
part1-test5.elf:     file format elf32-littlearm


Disassembly of section .text:

00008000 <_start>:
    8000:	e3a0d302 	mov	sp, #134217728	; 0x8000000
    8004:	e3a0b000 	mov	fp, #0
    8008:	eb000430 	bl	90d0 <_cstart>
    800c:	eb000445 	bl	9128 <rpi_reboot>

00008010 <notmain>:
    8010:	e92d41f0 	push	{r4, r5, r6, r7, r8, lr}
    8014:	e59f00c4 	ldr	r0, [pc, #196]	; 80e0 <notmain+0xd0>
    8018:	eb000291 	bl	8a64 <printk>
    801c:	e3a00601 	mov	r0, #1048576	; 0x100000
    8020:	eb000536 	bl	9500 <kmalloc_init_set_start>
    8024:	e3a00601 	mov	r0, #1048576	; 0x100000
    8028:	eb000548 	bl	9550 <kmalloc>
    802c:	e3a01601 	mov	r1, #1048576	; 0x100000
    8030:	eb000124 	bl	84c8 <ck_init>
    8034:	eb0002c7 	bl	8b58 <rpi_rand32>
    8038:	e59f50a4 	ldr	r5, [pc, #164]	; 80e4 <notmain+0xd4>
    803c:	e59f40a4 	ldr	r4, [pc, #164]	; 80e8 <notmain+0xd8>
    8040:	e3a0300e 	mov	r3, #14
    8044:	e1a02005 	mov	r2, r5
    8048:	e1a01004 	mov	r1, r4
    804c:	e1a00b00 	lsl	r0, r0, #22
    8050:	e1a00b20 	lsr	r0, r0, #22
    8054:	eb000166 	bl	85f4 <ckalloc>
    8058:	e1a07000 	mov	r7, r0
    805c:	eb0002bd 	bl	8b58 <rpi_rand32>
    8060:	e3a0300f 	mov	r3, #15
    8064:	e1a02005 	mov	r2, r5
    8068:	e1a01004 	mov	r1, r4
    806c:	e1a00b00 	lsl	r0, r0, #22
    8070:	e1a00b20 	lsr	r0, r0, #22
    8074:	eb00015e 	bl	85f4 <ckalloc>
    8078:	e1a06000 	mov	r6, r0
    807c:	e3a03011 	mov	r3, #17
    8080:	e1a02005 	mov	r2, r5
    8084:	e1a01004 	mov	r1, r4
    8088:	e1a00007 	mov	r0, r7
    808c:	eb00012a 	bl	853c <ckfree>
    8090:	e3a03012 	mov	r3, #18
    8094:	e1a02005 	mov	r2, r5
    8098:	e1a01004 	mov	r1, r4
    809c:	e1a00006 	mov	r0, r6
    80a0:	eb000125 	bl	853c <ckfree>
    80a4:	eb0001d9 	bl	8810 <ck_heap_errors>
    80a8:	e3500000 	cmp	r0, #0
    80ac:	1a000004 	bne	80c4 <notmain+0xb4>
    80b0:	e59f0034 	ldr	r0, [pc, #52]	; 80ec <notmain+0xdc>
    80b4:	eb00026a 	bl	8a64 <printk>
    80b8:	e59f0030 	ldr	r0, [pc, #48]	; 80f0 <notmain+0xe0>
    80bc:	eb000268 	bl	8a64 <printk>
    80c0:	e8bd81f0 	pop	{r4, r5, r6, r7, r8, pc}
    80c4:	eb000281 	bl	8ad0 <rpi_reset_putc>
    80c8:	e3a03015 	mov	r3, #21
    80cc:	e1a02005 	mov	r2, r5
    80d0:	e1a01004 	mov	r1, r4
    80d4:	e59f0018 	ldr	r0, [pc, #24]	; 80f4 <notmain+0xe4>
    80d8:	eb000261 	bl	8a64 <printk>
    80dc:	eb0003f1 	bl	90a8 <clean_reboot>
    80e0:	000096a4 	andeq	r9, r0, r4, lsr #13
    80e4:	00009714 	andeq	r9, r0, r4, lsl r7
    80e8:	000096bc 			; <UNDEFINED> instruction: 0x000096bc
    80ec:	000096f0 	strdeq	r9, [r0], -r0
    80f0:	000096f8 	strdeq	r9, [r0], -r8
    80f4:	000096cc 	andeq	r9, r0, ip, asr #13

000080f8 <b_rz1_ptr>:
    80f8:	e2800038 	add	r0, r0, #56	; 0x38
    80fc:	e12fff1e 	bx	lr

00008100 <b_alloc_ptr>:
    8100:	e92d4010 	push	{r4, lr}
    8104:	ebfffffb 	bl	80f8 <b_rz1_ptr>
    8108:	e2800080 	add	r0, r0, #128	; 0x80
    810c:	e8bd8010 	pop	{r4, pc}

00008110 <b_rz2_ptr>:
    8110:	e92d4010 	push	{r4, lr}
    8114:	e1a04000 	mov	r4, r0
    8118:	ebfffff8 	bl	8100 <b_alloc_ptr>
    811c:	e5943000 	ldr	r3, [r4]
    8120:	e0800003 	add	r0, r0, r3
    8124:	e8bd8010 	pop	{r4, pc}

00008128 <b_rz2_nbytes>:
    8128:	e5900004 	ldr	r0, [r0, #4]
    812c:	e2800080 	add	r0, r0, #128	; 0x80
    8130:	e12fff1e 	bx	lr

00008134 <b_addr_to_hdr>:
    8134:	e24000b8 	sub	r0, r0, #184	; 0xb8
    8138:	e12fff1e 	bx	lr

0000813c <check_free_write>:
    813c:	e92d41f0 	push	{r4, r5, r6, r7, r8, lr}
    8140:	e1a05000 	mov	r5, r0
    8144:	e1a06002 	mov	r6, r2
    8148:	e3a04000 	mov	r4, #0
    814c:	e1540001 	cmp	r4, r1
    8150:	2a000033 	bcs	8224 <check_free_write+0xe8>
    8154:	e7d53004 	ldrb	r3, [r5, r4]
    8158:	e35300fe 	cmp	r3, #254	; 0xfe
    815c:	02844001 	addeq	r4, r4, #1
    8160:	0afffff9 	beq	814c <check_free_write+0x10>
    8164:	e1a00006 	mov	r0, r6
    8168:	ebffffe4 	bl	8100 <b_alloc_ptr>
    816c:	e0450000 	sub	r0, r5, r0
    8170:	e0804004 	add	r4, r0, r4
    8174:	e59f70b0 	ldr	r7, [pc, #176]	; 822c <check_free_write+0xf0>
    8178:	e1a00007 	mov	r0, r7
    817c:	eb000238 	bl	8a64 <printk>
    8180:	e59f00a8 	ldr	r0, [pc, #168]	; 8230 <check_free_write+0xf4>
    8184:	eb000236 	bl	8a64 <printk>
    8188:	e1a02004 	mov	r2, r4
    818c:	e1a01005 	mov	r1, r5
    8190:	e59f009c 	ldr	r0, [pc, #156]	; 8234 <check_free_write+0xf8>
    8194:	eb000232 	bl	8a64 <printk>
    8198:	e1a00007 	mov	r0, r7
    819c:	eb000230 	bl	8a64 <printk>
    81a0:	e5961000 	ldr	r1, [r6]
    81a4:	e59f008c 	ldr	r0, [pc, #140]	; 8238 <check_free_write+0xfc>
    81a8:	eb00022d 	bl	8a64 <printk>
    81ac:	e5963010 	ldr	r3, [r6, #16]
    81b0:	e3530000 	cmp	r3, #0
    81b4:	0a000006 	beq	81d4 <check_free_write+0x98>
    81b8:	e1a00007 	mov	r0, r7
    81bc:	eb000228 	bl	8a64 <printk>
    81c0:	e5963018 	ldr	r3, [r6, #24]
    81c4:	e5962014 	ldr	r2, [r6, #20]
    81c8:	e5961010 	ldr	r1, [r6, #16]
    81cc:	e59f0068 	ldr	r0, [pc, #104]	; 823c <check_free_write+0x100>
    81d0:	eb000223 	bl	8a64 <printk>
    81d4:	e5963008 	ldr	r3, [r6, #8]
    81d8:	e353000c 	cmp	r3, #12
    81dc:	0a000005 	beq	81f8 <check_free_write+0xbc>
    81e0:	e59f0044 	ldr	r0, [pc, #68]	; 822c <check_free_write+0xf0>
    81e4:	eb00021e 	bl	8a64 <printk>
    81e8:	e59f0050 	ldr	r0, [pc, #80]	; 8240 <check_free_write+0x104>
    81ec:	eb00021c 	bl	8a64 <printk>
    81f0:	e3a00000 	mov	r0, #0
    81f4:	e8bd81f0 	pop	{r4, r5, r6, r7, r8, pc}
    81f8:	e596301c 	ldr	r3, [r6, #28]
    81fc:	e3530000 	cmp	r3, #0
    8200:	0afffff6 	beq	81e0 <check_free_write+0xa4>
    8204:	e59f0020 	ldr	r0, [pc, #32]	; 822c <check_free_write+0xf0>
    8208:	eb000215 	bl	8a64 <printk>
    820c:	e5963024 	ldr	r3, [r6, #36]	; 0x24
    8210:	e5962020 	ldr	r2, [r6, #32]
    8214:	e596101c 	ldr	r1, [r6, #28]
    8218:	e59f0024 	ldr	r0, [pc, #36]	; 8244 <check_free_write+0x108>
    821c:	eb000210 	bl	8a64 <printk>
    8220:	eaffffee 	b	81e0 <check_free_write+0xa4>
    8224:	e3a00001 	mov	r0, #1
    8228:	e8bd81f0 	pop	{r4, r5, r6, r7, r8, pc}
    822c:	000096f0 	strdeq	r9, [r0], -r0
    8230:	0000971c 	andeq	r9, r0, ip, lsl r7
    8234:	00009724 	andeq	r9, r0, r4, lsr #14
    8238:	00009748 	andeq	r9, r0, r8, asr #14
    823c:	00009754 	andeq	r9, r0, r4, asr r7
    8240:	00009790 	muleq	r0, r0, r7
    8244:	00009774 	andeq	r9, r0, r4, ror r7

00008248 <mark_mem>:
    8248:	e92d4010 	push	{r4, lr}
    824c:	e1a02001 	mov	r2, r1
    8250:	e3a010fe 	mov	r1, #254	; 0xfe
    8254:	eb0001fc 	bl	8a4c <memset>
    8258:	e8bd8010 	pop	{r4, pc}

0000825c <hdr_cksum>:
    825c:	e92d4070 	push	{r4, r5, r6, lr}
    8260:	e1a04000 	mov	r4, r0
    8264:	e590500c 	ldr	r5, [r0, #12]
    8268:	e3a03000 	mov	r3, #0
    826c:	e580300c 	str	r3, [r0, #12]
    8270:	e3a01038 	mov	r1, #56	; 0x38
    8274:	eb0001b9 	bl	8960 <fast_hash>
    8278:	e584500c 	str	r5, [r4, #12]
    827c:	e8bd8070 	pop	{r4, r5, r6, pc}

00008280 <check_hdr>:
    8280:	e92d4070 	push	{r4, r5, r6, lr}
    8284:	e1a04000 	mov	r4, r0
    8288:	e5903008 	ldr	r3, [r0, #8]
    828c:	e243300b 	sub	r3, r3, #11
    8290:	e3530001 	cmp	r3, #1
    8294:	8a000003 	bhi	82a8 <check_hdr+0x28>
    8298:	e590500c 	ldr	r5, [r0, #12]
    829c:	ebffffee 	bl	825c <hdr_cksum>
    82a0:	e1550000 	cmp	r5, r0
    82a4:	0a000027 	beq	8348 <check_hdr+0xc8>
    82a8:	e59f50a0 	ldr	r5, [pc, #160]	; 8350 <check_hdr+0xd0>
    82ac:	e1a00005 	mov	r0, r5
    82b0:	eb0001eb 	bl	8a64 <printk>
    82b4:	e59f0098 	ldr	r0, [pc, #152]	; 8354 <check_hdr+0xd4>
    82b8:	eb0001e9 	bl	8a64 <printk>
    82bc:	e3a02000 	mov	r2, #0
    82c0:	e1a01004 	mov	r1, r4
    82c4:	e59f008c 	ldr	r0, [pc, #140]	; 8358 <check_hdr+0xd8>
    82c8:	eb0001e5 	bl	8a64 <printk>
    82cc:	e1a00005 	mov	r0, r5
    82d0:	eb0001e3 	bl	8a64 <printk>
    82d4:	e5941000 	ldr	r1, [r4]
    82d8:	e59f007c 	ldr	r0, [pc, #124]	; 835c <check_hdr+0xdc>
    82dc:	eb0001e0 	bl	8a64 <printk>
    82e0:	e5943010 	ldr	r3, [r4, #16]
    82e4:	e3530000 	cmp	r3, #0
    82e8:	0a000006 	beq	8308 <check_hdr+0x88>
    82ec:	e1a00005 	mov	r0, r5
    82f0:	eb0001db 	bl	8a64 <printk>
    82f4:	e5943018 	ldr	r3, [r4, #24]
    82f8:	e5942014 	ldr	r2, [r4, #20]
    82fc:	e5941010 	ldr	r1, [r4, #16]
    8300:	e59f0058 	ldr	r0, [pc, #88]	; 8360 <check_hdr+0xe0>
    8304:	eb0001d6 	bl	8a64 <printk>
    8308:	e5943008 	ldr	r3, [r4, #8]
    830c:	e353000c 	cmp	r3, #12
    8310:	0a000001 	beq	831c <check_hdr+0x9c>
    8314:	e3a00000 	mov	r0, #0
    8318:	e8bd8070 	pop	{r4, r5, r6, pc}
    831c:	e594301c 	ldr	r3, [r4, #28]
    8320:	e3530000 	cmp	r3, #0
    8324:	0afffffa 	beq	8314 <check_hdr+0x94>
    8328:	e59f0020 	ldr	r0, [pc, #32]	; 8350 <check_hdr+0xd0>
    832c:	eb0001cc 	bl	8a64 <printk>
    8330:	e5943024 	ldr	r3, [r4, #36]	; 0x24
    8334:	e5942020 	ldr	r2, [r4, #32]
    8338:	e594101c 	ldr	r1, [r4, #28]
    833c:	e59f0020 	ldr	r0, [pc, #32]	; 8364 <check_hdr+0xe4>
    8340:	eb0001c7 	bl	8a64 <printk>
    8344:	eafffff2 	b	8314 <check_hdr+0x94>
    8348:	e3a00001 	mov	r0, #1
    834c:	e8bd8070 	pop	{r4, r5, r6, pc}
    8350:	000096f0 	strdeq	r9, [r0], -r0
    8354:	0000971c 	andeq	r9, r0, ip, lsl r7
    8358:	00009724 	andeq	r9, r0, r4, lsr #14
    835c:	00009748 	andeq	r9, r0, r8, asr #14
    8360:	00009754 	andeq	r9, r0, r4, asr r7
    8364:	00009774 	andeq	r9, r0, r4, ror r7

00008368 <check_mem>:
    8368:	e92d41f0 	push	{r4, r5, r6, r7, r8, lr}
    836c:	e1a05000 	mov	r5, r0
    8370:	e1a06002 	mov	r6, r2
    8374:	e3a04000 	mov	r4, #0
    8378:	e1540001 	cmp	r4, r1
    837c:	2a000030 	bcs	8444 <check_mem+0xdc>
    8380:	e7d53004 	ldrb	r3, [r5, r4]
    8384:	e35300fe 	cmp	r3, #254	; 0xfe
    8388:	02844001 	addeq	r4, r4, #1
    838c:	0afffff9 	beq	8378 <check_mem+0x10>
    8390:	e1a00006 	mov	r0, r6
    8394:	ebffff59 	bl	8100 <b_alloc_ptr>
    8398:	e0450000 	sub	r0, r5, r0
    839c:	e0804004 	add	r4, r0, r4
    83a0:	e59f70a4 	ldr	r7, [pc, #164]	; 844c <check_mem+0xe4>
    83a4:	e1a00007 	mov	r0, r7
    83a8:	eb0001ad 	bl	8a64 <printk>
    83ac:	e59f009c 	ldr	r0, [pc, #156]	; 8450 <check_mem+0xe8>
    83b0:	eb0001ab 	bl	8a64 <printk>
    83b4:	e5961000 	ldr	r1, [r6]
    83b8:	e1a02004 	mov	r2, r4
    83bc:	e0451001 	sub	r1, r5, r1
    83c0:	e59f008c 	ldr	r0, [pc, #140]	; 8454 <check_mem+0xec>
    83c4:	eb0001a6 	bl	8a64 <printk>
    83c8:	e1a00007 	mov	r0, r7
    83cc:	eb0001a4 	bl	8a64 <printk>
    83d0:	e5961000 	ldr	r1, [r6]
    83d4:	e59f007c 	ldr	r0, [pc, #124]	; 8458 <check_mem+0xf0>
    83d8:	eb0001a1 	bl	8a64 <printk>
    83dc:	e5963010 	ldr	r3, [r6, #16]
    83e0:	e3530000 	cmp	r3, #0
    83e4:	0a000006 	beq	8404 <check_mem+0x9c>
    83e8:	e1a00007 	mov	r0, r7
    83ec:	eb00019c 	bl	8a64 <printk>
    83f0:	e5963018 	ldr	r3, [r6, #24]
    83f4:	e5962014 	ldr	r2, [r6, #20]
    83f8:	e5961010 	ldr	r1, [r6, #16]
    83fc:	e59f0058 	ldr	r0, [pc, #88]	; 845c <check_mem+0xf4>
    8400:	eb000197 	bl	8a64 <printk>
    8404:	e5963008 	ldr	r3, [r6, #8]
    8408:	e353000c 	cmp	r3, #12
    840c:	0a000001 	beq	8418 <check_mem+0xb0>
    8410:	e3a00000 	mov	r0, #0
    8414:	e8bd81f0 	pop	{r4, r5, r6, r7, r8, pc}
    8418:	e596301c 	ldr	r3, [r6, #28]
    841c:	e3530000 	cmp	r3, #0
    8420:	0afffffa 	beq	8410 <check_mem+0xa8>
    8424:	e59f0020 	ldr	r0, [pc, #32]	; 844c <check_mem+0xe4>
    8428:	eb00018d 	bl	8a64 <printk>
    842c:	e5963024 	ldr	r3, [r6, #36]	; 0x24
    8430:	e5962020 	ldr	r2, [r6, #32]
    8434:	e596101c 	ldr	r1, [r6, #28]
    8438:	e59f0020 	ldr	r0, [pc, #32]	; 8460 <check_mem+0xf8>
    843c:	eb000188 	bl	8a64 <printk>
    8440:	eafffff2 	b	8410 <check_mem+0xa8>
    8444:	e3a00001 	mov	r0, #1
    8448:	e8bd81f0 	pop	{r4, r5, r6, r7, r8, pc}
    844c:	000096f0 	strdeq	r9, [r0], -r0
    8450:	0000971c 	andeq	r9, r0, ip, lsl r7
    8454:	00009724 	andeq	r9, r0, r4, lsr #14
    8458:	00009748 	andeq	r9, r0, r8, asr #14
    845c:	00009754 	andeq	r9, r0, r4, asr r7
    8460:	00009774 	andeq	r9, r0, r4, ror r7

00008464 <check_block>:
    8464:	e92d4070 	push	{r4, r5, r6, lr}
    8468:	e1a04000 	mov	r4, r0
    846c:	ebffff83 	bl	8280 <check_hdr>
    8470:	e3500000 	cmp	r0, #0
    8474:	08bd8070 	popeq	{r4, r5, r6, pc}
    8478:	e1a00004 	mov	r0, r4
    847c:	ebffff1d 	bl	80f8 <b_rz1_ptr>
    8480:	e1a02004 	mov	r2, r4
    8484:	e3a01080 	mov	r1, #128	; 0x80
    8488:	ebffffb6 	bl	8368 <check_mem>
    848c:	e3500000 	cmp	r0, #0
    8490:	08bd8070 	popeq	{r4, r5, r6, pc}
    8494:	e1a00004 	mov	r0, r4
    8498:	ebffff1c 	bl	8110 <b_rz2_ptr>
    849c:	e1a05000 	mov	r5, r0
    84a0:	e1a00004 	mov	r0, r4
    84a4:	ebffff1f 	bl	8128 <b_rz2_nbytes>
    84a8:	e1a01000 	mov	r1, r0
    84ac:	e1a02004 	mov	r2, r4
    84b0:	e1a00005 	mov	r0, r5
    84b4:	ebffffab 	bl	8368 <check_mem>
    84b8:	e3500000 	cmp	r0, #0
    84bc:	08bd8070 	popeq	{r4, r5, r6, pc}
    84c0:	e3a00001 	mov	r0, #1
    84c4:	e8bd8070 	pop	{r4, r5, r6, pc}

000084c8 <ck_init>:
    84c8:	e92d4070 	push	{r4, r5, r6, lr}
    84cc:	e59f3054 	ldr	r3, [pc, #84]	; 8528 <ck_init+0x60>
    84d0:	e5933000 	ldr	r3, [r3]
    84d4:	e3130007 	tst	r3, #7
    84d8:	1a00000b 	bne	850c <ck_init+0x44>
    84dc:	e1a04000 	mov	r4, r0
    84e0:	e1a05001 	mov	r5, r1
    84e4:	e3a02080 	mov	r2, #128	; 0x80
    84e8:	e3a01038 	mov	r1, #56	; 0x38
    84ec:	e59f0038 	ldr	r0, [pc, #56]	; 852c <ck_init+0x64>
    84f0:	eb00015b 	bl	8a64 <printk>
    84f4:	e59f302c 	ldr	r3, [pc, #44]	; 8528 <ck_init+0x60>
    84f8:	e5834000 	str	r4, [r3]
    84fc:	e5834004 	str	r4, [r3, #4]
    8500:	e0844005 	add	r4, r4, r5
    8504:	e5834008 	str	r4, [r3, #8]
    8508:	e8bd8070 	pop	{r4, r5, r6, pc}
    850c:	eb00016f 	bl	8ad0 <rpi_reset_putc>
    8510:	e3a0300a 	mov	r3, #10
    8514:	e59f2014 	ldr	r2, [pc, #20]	; 8530 <ck_init+0x68>
    8518:	e59f1014 	ldr	r1, [pc, #20]	; 8534 <ck_init+0x6c>
    851c:	e59f0014 	ldr	r0, [pc, #20]	; 8538 <ck_init+0x70>
    8520:	eb00014f 	bl	8a64 <printk>
    8524:	eb0002df 	bl	90a8 <clean_reboot>
    8528:	00009c50 	andeq	r9, r0, r0, asr ip
    852c:	000097e0 	andeq	r9, r0, r0, ror #15
    8530:	00009a08 	andeq	r9, r0, r8, lsl #20
    8534:	000097ac 	andeq	r9, r0, ip, lsr #15
    8538:	000097b8 			; <UNDEFINED> instruction: 0x000097b8

0000853c <ckfree>:
    853c:	e92d41f0 	push	{r4, r5, r6, r7, r8, lr}
    8540:	e1a05000 	mov	r5, r0
    8544:	e1a07001 	mov	r7, r1
    8548:	e1a06002 	mov	r6, r2
    854c:	e1a08003 	mov	r8, r3
    8550:	ebfffef7 	bl	8134 <b_addr_to_hdr>
    8554:	e59fc080 	ldr	ip, [pc, #128]	; 85dc <ckfree+0xa0>
    8558:	e59cc004 	ldr	ip, [ip, #4]
    855c:	e35c0000 	cmp	ip, #0
    8560:	0a000016 	beq	85c0 <ckfree+0x84>
    8564:	e1a04000 	mov	r4, r0
    8568:	e59f0070 	ldr	r0, [pc, #112]	; 85e0 <ckfree+0xa4>
    856c:	eb00013c 	bl	8a64 <printk>
    8570:	e1a01005 	mov	r1, r5
    8574:	e59f0068 	ldr	r0, [pc, #104]	; 85e4 <ckfree+0xa8>
    8578:	eb000139 	bl	8a64 <printk>
    857c:	e1a00004 	mov	r0, r4
    8580:	ebffffb7 	bl	8464 <check_block>
    8584:	e3500000 	cmp	r0, #0
    8588:	08bd81f0 	popeq	{r4, r5, r6, r7, r8, pc}
    858c:	e584701c 	str	r7, [r4, #28]
    8590:	e5846020 	str	r6, [r4, #32]
    8594:	e5848024 	str	r8, [r4, #36]	; 0x24
    8598:	e3a0300c 	mov	r3, #12
    859c:	e5843008 	str	r3, [r4, #8]
    85a0:	e1a00004 	mov	r0, r4
    85a4:	ebfffed5 	bl	8100 <b_alloc_ptr>
    85a8:	e5941000 	ldr	r1, [r4]
    85ac:	ebffff25 	bl	8248 <mark_mem>
    85b0:	e1a00004 	mov	r0, r4
    85b4:	ebffff28 	bl	825c <hdr_cksum>
    85b8:	e584000c 	str	r0, [r4, #12]
    85bc:	e8bd81f0 	pop	{r4, r5, r6, r7, r8, pc}
    85c0:	eb000142 	bl	8ad0 <rpi_reset_putc>
    85c4:	e3a03074 	mov	r3, #116	; 0x74
    85c8:	e59f2018 	ldr	r2, [pc, #24]	; 85e8 <ckfree+0xac>
    85cc:	e59f1018 	ldr	r1, [pc, #24]	; 85ec <ckfree+0xb0>
    85d0:	e59f0018 	ldr	r0, [pc, #24]	; 85f0 <ckfree+0xb4>
    85d4:	eb000122 	bl	8a64 <printk>
    85d8:	eb0002b2 	bl	90a8 <clean_reboot>
    85dc:	00009c50 	andeq	r9, r0, r0, asr ip
    85e0:	000096f0 	strdeq	r9, [r0], -r0
    85e4:	00009830 	andeq	r9, r0, r0, lsr r8
    85e8:	00009a10 	andeq	r9, r0, r0, lsl sl
    85ec:	000097ac 	andeq	r9, r0, ip, lsr #15
    85f0:	000097fc 	strdeq	r9, [r0], -ip

000085f4 <ckalloc>:
    85f4:	e92d43f0 	push	{r4, r5, r6, r7, r8, r9, lr}
    85f8:	e24dd00c 	sub	sp, sp, #12
    85fc:	e1a06003 	mov	r6, r3
    8600:	e59f31d4 	ldr	r3, [pc, #468]	; 87dc <ckalloc+0x1e8>
    8604:	e5933004 	ldr	r3, [r3, #4]
    8608:	e3530000 	cmp	r3, #0
    860c:	0a000042 	beq	871c <ckalloc+0x128>
    8610:	e1a05000 	mov	r5, r0
    8614:	e1a08001 	mov	r8, r1
    8618:	e1a07002 	mov	r7, r2
    861c:	e59f01bc 	ldr	r0, [pc, #444]	; 87e0 <ckalloc+0x1ec>
    8620:	eb00010f 	bl	8a64 <printk>
    8624:	e1a01005 	mov	r1, r5
    8628:	e59f01b4 	ldr	r0, [pc, #436]	; 87e4 <ckalloc+0x1f0>
    862c:	eb00010c 	bl	8a64 <printk>
    8630:	e2850007 	add	r0, r5, #7
    8634:	e3c00007 	bic	r0, r0, #7
    8638:	e2809f4e 	add	r9, r0, #312	; 0x138
    863c:	e1550009 	cmp	r5, r9
    8640:	8a00003c 	bhi	8738 <ckalloc+0x144>
    8644:	e59f3190 	ldr	r3, [pc, #400]	; 87dc <ckalloc+0x1e8>
    8648:	e5934004 	ldr	r4, [r3, #4]
    864c:	e0842009 	add	r2, r4, r9
    8650:	e5933008 	ldr	r3, [r3, #8]
    8654:	e1520003 	cmp	r2, r3
    8658:	2a000043 	bcs	876c <ckalloc+0x178>
    865c:	e5845000 	str	r5, [r4]
    8660:	e0400005 	sub	r0, r0, r5
    8664:	e5840004 	str	r0, [r4, #4]
    8668:	e3a0300b 	mov	r3, #11
    866c:	e5843008 	str	r3, [r4, #8]
    8670:	e5848010 	str	r8, [r4, #16]
    8674:	e5847014 	str	r7, [r4, #20]
    8678:	e5846018 	str	r6, [r4, #24]
    867c:	e3a03001 	mov	r3, #1
    8680:	e5843028 	str	r3, [r4, #40]	; 0x28
    8684:	e3a03000 	mov	r3, #0
    8688:	e584302c 	str	r3, [r4, #44]	; 0x2c
    868c:	e1a00004 	mov	r0, r4
    8690:	ebfffe98 	bl	80f8 <b_rz1_ptr>
    8694:	e3a01080 	mov	r1, #128	; 0x80
    8698:	ebfffeea 	bl	8248 <mark_mem>
    869c:	e1a00004 	mov	r0, r4
    86a0:	ebfffe9a 	bl	8110 <b_rz2_ptr>
    86a4:	e1a06000 	mov	r6, r0
    86a8:	e1a00004 	mov	r0, r4
    86ac:	ebfffe9d 	bl	8128 <b_rz2_nbytes>
    86b0:	e1a01000 	mov	r1, r0
    86b4:	e1a00006 	mov	r0, r6
    86b8:	ebfffee2 	bl	8248 <mark_mem>
    86bc:	e1a00004 	mov	r0, r4
    86c0:	ebfffee5 	bl	825c <hdr_cksum>
    86c4:	e584000c 	str	r0, [r4, #12]
    86c8:	e59f210c 	ldr	r2, [pc, #268]	; 87dc <ckalloc+0x1e8>
    86cc:	e5923004 	ldr	r3, [r2, #4]
    86d0:	e0833009 	add	r3, r3, r9
    86d4:	e5823004 	str	r3, [r2, #4]
    86d8:	e1a00004 	mov	r0, r4
    86dc:	ebffff60 	bl	8464 <check_block>
    86e0:	e3500000 	cmp	r0, #0
    86e4:	0a000035 	beq	87c0 <ckalloc+0x1cc>
    86e8:	e1a00004 	mov	r0, r4
    86ec:	ebfffe83 	bl	8100 <b_alloc_ptr>
    86f0:	e1a04000 	mov	r4, r0
    86f4:	e59f00e4 	ldr	r0, [pc, #228]	; 87e0 <ckalloc+0x1ec>
    86f8:	eb0000d9 	bl	8a64 <printk>
    86fc:	e1a03004 	mov	r3, r4
    8700:	e1a02009 	mov	r2, r9
    8704:	e1a01005 	mov	r1, r5
    8708:	e59f00d8 	ldr	r0, [pc, #216]	; 87e8 <ckalloc+0x1f4>
    870c:	eb0000d4 	bl	8a64 <printk>
    8710:	e1a00004 	mov	r0, r4
    8714:	e28dd00c 	add	sp, sp, #12
    8718:	e8bd83f0 	pop	{r4, r5, r6, r7, r8, r9, pc}
    871c:	eb0000eb 	bl	8ad0 <rpi_reset_putc>
    8720:	e3a03087 	mov	r3, #135	; 0x87
    8724:	e59f20c0 	ldr	r2, [pc, #192]	; 87ec <ckalloc+0x1f8>
    8728:	e59f10c0 	ldr	r1, [pc, #192]	; 87f0 <ckalloc+0x1fc>
    872c:	e59f00c0 	ldr	r0, [pc, #192]	; 87f4 <ckalloc+0x200>
    8730:	eb0000cb 	bl	8a64 <printk>
    8734:	eb00025b 	bl	90a8 <clean_reboot>
    8738:	e59f00b8 	ldr	r0, [pc, #184]	; 87f8 <ckalloc+0x204>
    873c:	eb0000c8 	bl	8a64 <printk>
    8740:	e1a01005 	mov	r1, r5
    8744:	e59f00b0 	ldr	r0, [pc, #176]	; 87fc <ckalloc+0x208>
    8748:	eb0000c5 	bl	8a64 <printk>
    874c:	eb0000df 	bl	8ad0 <rpi_reset_putc>
    8750:	e58d5000 	str	r5, [sp]
    8754:	e3a0308f 	mov	r3, #143	; 0x8f
    8758:	e59f208c 	ldr	r2, [pc, #140]	; 87ec <ckalloc+0x1f8>
    875c:	e59f108c 	ldr	r1, [pc, #140]	; 87f0 <ckalloc+0x1fc>
    8760:	e59f0098 	ldr	r0, [pc, #152]	; 8800 <ckalloc+0x20c>
    8764:	eb0000be 	bl	8a64 <printk>
    8768:	eb00024e 	bl	90a8 <clean_reboot>
    876c:	e59f0084 	ldr	r0, [pc, #132]	; 87f8 <ckalloc+0x204>
    8770:	eb0000bb 	bl	8a64 <printk>
    8774:	e59f4060 	ldr	r4, [pc, #96]	; 87dc <ckalloc+0x1e8>
    8778:	e5941008 	ldr	r1, [r4, #8]
    877c:	e5943004 	ldr	r3, [r4, #4]
    8780:	e1a02009 	mov	r2, r9
    8784:	e0411003 	sub	r1, r1, r3
    8788:	e59f0074 	ldr	r0, [pc, #116]	; 8804 <ckalloc+0x210>
    878c:	eb0000b4 	bl	8a64 <printk>
    8790:	eb0000ce 	bl	8ad0 <rpi_reset_putc>
    8794:	e58d9004 	str	r9, [sp, #4]
    8798:	e5943008 	ldr	r3, [r4, #8]
    879c:	e5942004 	ldr	r2, [r4, #4]
    87a0:	e0433002 	sub	r3, r3, r2
    87a4:	e58d3000 	str	r3, [sp]
    87a8:	e3a03092 	mov	r3, #146	; 0x92
    87ac:	e59f2038 	ldr	r2, [pc, #56]	; 87ec <ckalloc+0x1f8>
    87b0:	e59f1038 	ldr	r1, [pc, #56]	; 87f0 <ckalloc+0x1fc>
    87b4:	e59f004c 	ldr	r0, [pc, #76]	; 8808 <ckalloc+0x214>
    87b8:	eb0000a9 	bl	8a64 <printk>
    87bc:	eb000239 	bl	90a8 <clean_reboot>
    87c0:	eb0000c2 	bl	8ad0 <rpi_reset_putc>
    87c4:	e3a030a1 	mov	r3, #161	; 0xa1
    87c8:	e59f201c 	ldr	r2, [pc, #28]	; 87ec <ckalloc+0x1f8>
    87cc:	e59f101c 	ldr	r1, [pc, #28]	; 87f0 <ckalloc+0x1fc>
    87d0:	e59f0034 	ldr	r0, [pc, #52]	; 880c <ckalloc+0x218>
    87d4:	eb0000a2 	bl	8a64 <printk>
    87d8:	eb000232 	bl	90a8 <clean_reboot>
    87dc:	00009c50 	andeq	r9, r0, r0, asr ip
    87e0:	000096f0 	strdeq	r9, [r0], -r0
    87e4:	0000983c 	andeq	r9, r0, ip, lsr r8
    87e8:	00009948 	andeq	r9, r0, r8, asr #18
    87ec:	00009a18 	andeq	r9, r0, r8, lsl sl
    87f0:	000097ac 	andeq	r9, r0, ip, lsr #15
    87f4:	000097fc 	strdeq	r9, [r0], -ip
    87f8:	00009854 	andeq	r9, r0, r4, asr r8
    87fc:	00009860 	andeq	r9, r0, r0, ror #16
    8800:	00009888 	andeq	r9, r0, r8, lsl #17
    8804:	000098c0 	andeq	r9, r0, r0, asr #17
    8808:	000098ec 	andeq	r9, r0, ip, ror #17
    880c:	00009928 	andeq	r9, r0, r8, lsr #18

00008810 <ck_heap_errors>:
    8810:	e92d41f0 	push	{r4, r5, r6, r7, r8, lr}
    8814:	e59f4130 	ldr	r4, [pc, #304]	; 894c <ck_heap_errors+0x13c>
    8818:	e5943004 	ldr	r3, [r4, #4]
    881c:	e5945000 	ldr	r5, [r4]
    8820:	e0435005 	sub	r5, r3, r5
    8824:	e5946008 	ldr	r6, [r4, #8]
    8828:	e0466003 	sub	r6, r6, r3
    882c:	e59f011c 	ldr	r0, [pc, #284]	; 8950 <ck_heap_errors+0x140>
    8830:	eb00008b 	bl	8a64 <printk>
    8834:	e1a02006 	mov	r2, r6
    8838:	e1a01005 	mov	r1, r5
    883c:	e59f0110 	ldr	r0, [pc, #272]	; 8954 <ck_heap_errors+0x144>
    8840:	eb000087 	bl	8a64 <printk>
    8844:	e5944000 	ldr	r4, [r4]
    8848:	e3a05000 	mov	r5, #0
    884c:	e1a06005 	mov	r6, r5
    8850:	ea000012 	b	88a0 <ck_heap_errors+0x90>
    8854:	e2866001 	add	r6, r6, #1
    8858:	e2855001 	add	r5, r5, #1
    885c:	e3560000 	cmp	r6, #0
    8860:	0a000033 	beq	8934 <ck_heap_errors+0x124>
    8864:	e59f00e4 	ldr	r0, [pc, #228]	; 8950 <ck_heap_errors+0x140>
    8868:	eb00007d 	bl	8a64 <printk>
    886c:	e1a02006 	mov	r2, r6
    8870:	e1a01005 	mov	r1, r5
    8874:	e59f00dc 	ldr	r0, [pc, #220]	; 8958 <ck_heap_errors+0x148>
    8878:	eb000079 	bl	8a64 <printk>
    887c:	e1a00006 	mov	r0, r6
    8880:	e8bd81f0 	pop	{r4, r5, r6, r7, r8, pc}
    8884:	e2866001 	add	r6, r6, #1
    8888:	e2855001 	add	r5, r5, #1
    888c:	e5943000 	ldr	r3, [r4]
    8890:	e5942004 	ldr	r2, [r4, #4]
    8894:	e0833002 	add	r3, r3, r2
    8898:	e2833f4e 	add	r3, r3, #312	; 0x138
    889c:	e0844003 	add	r4, r4, r3
    88a0:	e59f30a4 	ldr	r3, [pc, #164]	; 894c <ck_heap_errors+0x13c>
    88a4:	e5933004 	ldr	r3, [r3, #4]
    88a8:	e1530004 	cmp	r3, r4
    88ac:	9affffea 	bls	885c <ck_heap_errors+0x4c>
    88b0:	e1a00004 	mov	r0, r4
    88b4:	ebfffe71 	bl	8280 <check_hdr>
    88b8:	e3500000 	cmp	r0, #0
    88bc:	0affffe4 	beq	8854 <ck_heap_errors+0x44>
    88c0:	e1a00004 	mov	r0, r4
    88c4:	ebfffe0b 	bl	80f8 <b_rz1_ptr>
    88c8:	e1a02004 	mov	r2, r4
    88cc:	e3a01080 	mov	r1, #128	; 0x80
    88d0:	ebfffea4 	bl	8368 <check_mem>
    88d4:	e3500000 	cmp	r0, #0
    88d8:	0affffe9 	beq	8884 <ck_heap_errors+0x74>
    88dc:	e1a00004 	mov	r0, r4
    88e0:	ebfffe0a 	bl	8110 <b_rz2_ptr>
    88e4:	e1a07000 	mov	r7, r0
    88e8:	e1a00004 	mov	r0, r4
    88ec:	ebfffe0d 	bl	8128 <b_rz2_nbytes>
    88f0:	e1a01000 	mov	r1, r0
    88f4:	e1a02004 	mov	r2, r4
    88f8:	e1a00007 	mov	r0, r7
    88fc:	ebfffe99 	bl	8368 <check_mem>
    8900:	e3500000 	cmp	r0, #0
    8904:	0affffde 	beq	8884 <ck_heap_errors+0x74>
    8908:	e5943008 	ldr	r3, [r4, #8]
    890c:	e353000c 	cmp	r3, #12
    8910:	1affffdc 	bne	8888 <ck_heap_errors+0x78>
    8914:	e1a00004 	mov	r0, r4
    8918:	ebfffdf8 	bl	8100 <b_alloc_ptr>
    891c:	e1a02004 	mov	r2, r4
    8920:	e5941000 	ldr	r1, [r4]
    8924:	ebfffe04 	bl	813c <check_free_write>
    8928:	e3500000 	cmp	r0, #0
    892c:	02866001 	addeq	r6, r6, #1
    8930:	eaffffd4 	b	8888 <ck_heap_errors+0x78>
    8934:	e59f0014 	ldr	r0, [pc, #20]	; 8950 <ck_heap_errors+0x140>
    8938:	eb000049 	bl	8a64 <printk>
    893c:	e1a01005 	mov	r1, r5
    8940:	e59f0014 	ldr	r0, [pc, #20]	; 895c <ck_heap_errors+0x14c>
    8944:	eb000046 	bl	8a64 <printk>
    8948:	eaffffcb 	b	887c <ck_heap_errors+0x6c>
    894c:	00009c50 	andeq	r9, r0, r0, asr ip
    8950:	000096f0 	strdeq	r9, [r0], -r0
    8954:	00009978 	andeq	r9, r0, r8, ror r9
    8958:	000099b0 			; <UNDEFINED> instruction: 0x000099b0
    895c:	000099d8 	ldrdeq	r9, [r0], -r8

00008960 <fast_hash>:
    8960:	e3500000 	cmp	r0, #0
    8964:	13510000 	cmpne	r1, #0
    8968:	da000035 	ble	8a44 <fast_hash+0xe4>
    896c:	e52de004 	push	{lr}		; (str lr, [sp, #-4]!)
    8970:	e1a03001 	mov	r3, r1
    8974:	e1a0c000 	mov	ip, r0
    8978:	e201e003 	and	lr, r1, #3
    897c:	e1a01141 	asr	r1, r1, #2
    8980:	e3510000 	cmp	r1, #0
    8984:	da00000c 	ble	89bc <fast_hash+0x5c>
    8988:	e5dc0001 	ldrb	r0, [ip, #1]
    898c:	e5dc2000 	ldrb	r2, [ip]
    8990:	e0822400 	add	r2, r2, r0, lsl #8
    8994:	e0822003 	add	r2, r2, r3
    8998:	e5dc0003 	ldrb	r0, [ip, #3]
    899c:	e5dc3002 	ldrb	r3, [ip, #2]
    89a0:	e0833400 	add	r3, r3, r0, lsl #8
    89a4:	e0223583 	eor	r3, r2, r3, lsl #11
    89a8:	e0233802 	eor	r3, r3, r2, lsl #16
    89ac:	e28cc004 	add	ip, ip, #4
    89b0:	e08335a3 	add	r3, r3, r3, lsr #11
    89b4:	e2411001 	sub	r1, r1, #1
    89b8:	eafffff0 	b	8980 <fast_hash+0x20>
    89bc:	e35e0002 	cmp	lr, #2
    89c0:	0a000013 	beq	8a14 <fast_hash+0xb4>
    89c4:	e35e0003 	cmp	lr, #3
    89c8:	0a000008 	beq	89f0 <fast_hash+0x90>
    89cc:	e35e0001 	cmp	lr, #1
    89d0:	0a000016 	beq	8a30 <fast_hash+0xd0>
    89d4:	e0230183 	eor	r0, r3, r3, lsl #3
    89d8:	e08002a0 	add	r0, r0, r0, lsr #5
    89dc:	e0200200 	eor	r0, r0, r0, lsl #4
    89e0:	e08008a0 	add	r0, r0, r0, lsr #17
    89e4:	e0200c80 	eor	r0, r0, r0, lsl #25
    89e8:	e0800320 	add	r0, r0, r0, lsr #6
    89ec:	e49df004 	pop	{pc}		; (ldr pc, [sp], #4)
    89f0:	e5dc1001 	ldrb	r1, [ip, #1]
    89f4:	e5dc2000 	ldrb	r2, [ip]
    89f8:	e0822401 	add	r2, r2, r1, lsl #8
    89fc:	e0823003 	add	r3, r2, r3
    8a00:	e0233803 	eor	r3, r3, r3, lsl #16
    8a04:	e1dc20d2 	ldrsb	r2, [ip, #2]
    8a08:	e0233902 	eor	r3, r3, r2, lsl #18
    8a0c:	e08335a3 	add	r3, r3, r3, lsr #11
    8a10:	eaffffef 	b	89d4 <fast_hash+0x74>
    8a14:	e5dc1001 	ldrb	r1, [ip, #1]
    8a18:	e5dc2000 	ldrb	r2, [ip]
    8a1c:	e0822401 	add	r2, r2, r1, lsl #8
    8a20:	e0823003 	add	r3, r2, r3
    8a24:	e0233583 	eor	r3, r3, r3, lsl #11
    8a28:	e08338a3 	add	r3, r3, r3, lsr #17
    8a2c:	eaffffe8 	b	89d4 <fast_hash+0x74>
    8a30:	e1dc20d0 	ldrsb	r2, [ip]
    8a34:	e0823003 	add	r3, r2, r3
    8a38:	e0233503 	eor	r3, r3, r3, lsl #10
    8a3c:	e08330a3 	add	r3, r3, r3, lsr #1
    8a40:	eaffffe3 	b	89d4 <fast_hash+0x74>
    8a44:	e3a00000 	mov	r0, #0
    8a48:	e12fff1e 	bx	lr

00008a4c <memset>:
    8a4c:	e0802002 	add	r2, r0, r2
    8a50:	e1a03000 	mov	r3, r0
    8a54:	e1530002 	cmp	r3, r2
    8a58:	212fff1e 	bxcs	lr
    8a5c:	e4c31001 	strb	r1, [r3], #1
    8a60:	eafffffb 	b	8a54 <memset+0x8>

00008a64 <printk>:
    8a64:	e92d000f 	push	{r0, r1, r2, r3}
    8a68:	e92d4030 	push	{r4, r5, lr}
    8a6c:	e24dd00c 	sub	sp, sp, #12
    8a70:	e28d301c 	add	r3, sp, #28
    8a74:	e58d3004 	str	r3, [sp, #4]
    8a78:	e59f5034 	ldr	r5, [pc, #52]	; 8ab4 <printk+0x50>
    8a7c:	e59d2018 	ldr	r2, [sp, #24]
    8a80:	e3a01b01 	mov	r1, #1024	; 0x400
    8a84:	e1a00005 	mov	r0, r5
    8a88:	eb0000da 	bl	8df8 <va_printk>
    8a8c:	e1a04000 	mov	r4, r0
    8a90:	e59f3020 	ldr	r3, [pc, #32]	; 8ab8 <printk+0x54>
    8a94:	e5933000 	ldr	r3, [r3]
    8a98:	e1a00005 	mov	r0, r5
    8a9c:	e12fff33 	blx	r3
    8aa0:	e1a00004 	mov	r0, r4
    8aa4:	e28dd00c 	add	sp, sp, #12
    8aa8:	e8bd4030 	pop	{r4, r5, lr}
    8aac:	e28dd010 	add	sp, sp, #16
    8ab0:	e12fff1e 	bx	lr
    8ab4:	00009c5c 	andeq	r9, r0, ip, asr ip
    8ab8:	00009694 	muleq	r0, r4, r6

00008abc <internal_putchar>:
    8abc:	e92d4010 	push	{r4, lr}
    8ac0:	e1a04000 	mov	r4, r0
    8ac4:	eb00022e 	bl	9384 <uart_putc>
    8ac8:	e1a00004 	mov	r0, r4
    8acc:	e8bd8010 	pop	{r4, pc}

00008ad0 <rpi_reset_putc>:
    8ad0:	e59f3008 	ldr	r3, [pc, #8]	; 8ae0 <rpi_reset_putc+0x10>
    8ad4:	e59f2008 	ldr	r2, [pc, #8]	; 8ae4 <rpi_reset_putc+0x14>
    8ad8:	e5832000 	str	r2, [r3]
    8adc:	e12fff1e 	bx	lr
    8ae0:	00009690 	muleq	r0, r0, r6
    8ae4:	00008abc 			; <UNDEFINED> instruction: 0x00008abc

00008ae8 <rpi_set_putc>:
    8ae8:	e59f3004 	ldr	r3, [pc, #4]	; 8af4 <rpi_set_putc+0xc>
    8aec:	e5830000 	str	r0, [r3]
    8af0:	e12fff1e 	bx	lr
    8af4:	00009690 	muleq	r0, r0, r6

00008af8 <internal_putk>:
    8af8:	e92d4010 	push	{r4, lr}
    8afc:	e1a04000 	mov	r4, r0
    8b00:	e5d40000 	ldrb	r0, [r4]
    8b04:	e3500000 	cmp	r0, #0
    8b08:	0a000004 	beq	8b20 <internal_putk+0x28>
    8b0c:	e59f3014 	ldr	r3, [pc, #20]	; 8b28 <internal_putk+0x30>
    8b10:	e5933000 	ldr	r3, [r3]
    8b14:	e12fff33 	blx	r3
    8b18:	e2844001 	add	r4, r4, #1
    8b1c:	eafffff7 	b	8b00 <internal_putk+0x8>
    8b20:	e3a00001 	mov	r0, #1
    8b24:	e8bd8010 	pop	{r4, pc}
    8b28:	00009690 	muleq	r0, r0, r6

00008b2c <rpi_rand16>:
    8b2c:	e59f2020 	ldr	r2, [pc, #32]	; 8b54 <rpi_rand16+0x28>
    8b30:	e1d230b0 	ldrh	r3, [r2]
    8b34:	e0230123 	eor	r0, r3, r3, lsr #2
    8b38:	e02001a3 	eor	r0, r0, r3, lsr #3
    8b3c:	e02002a3 	eor	r0, r0, r3, lsr #5
    8b40:	e2000001 	and	r0, r0, #1
    8b44:	e1a030a3 	lsr	r3, r3, #1
    8b48:	e1830780 	orr	r0, r3, r0, lsl #15
    8b4c:	e1c200b0 	strh	r0, [r2]
    8b50:	e12fff1e 	bx	lr
    8b54:	00009698 	muleq	r0, r8, r6

00008b58 <rpi_rand32>:
    8b58:	e92d4010 	push	{r4, lr}
    8b5c:	ebfffff2 	bl	8b2c <rpi_rand16>
    8b60:	e1a04800 	lsl	r4, r0, #16
    8b64:	ebfffff0 	bl	8b2c <rpi_rand16>
    8b68:	e1840000 	orr	r0, r4, r0
    8b6c:	e8bd8010 	pop	{r4, pc}

00008b70 <rpi_reset>:
    8b70:	e59f3008 	ldr	r3, [pc, #8]	; 8b80 <rpi_reset+0x10>
    8b74:	e59f2008 	ldr	r2, [pc, #8]	; 8b84 <rpi_reset+0x14>
    8b78:	e1c320b0 	strh	r2, [r3]
    8b7c:	e12fff1e 	bx	lr
    8b80:	00009698 	muleq	r0, r8, r6
    8b84:	fffface1 			; <UNDEFINED> instruction: 0xfffface1

00008b88 <isdigit>:
    8b88:	e2400030 	sub	r0, r0, #48	; 0x30
    8b8c:	e3500009 	cmp	r0, #9
    8b90:	83a00000 	movhi	r0, #0
    8b94:	93a00001 	movls	r0, #1
    8b98:	e12fff1e 	bx	lr

00008b9c <pad>:
    8b9c:	e0401001 	sub	r1, r0, r1
    8ba0:	e1510002 	cmp	r1, r2
    8ba4:	b3a03020 	movlt	r3, #32
    8ba8:	b4c03001 	strblt	r3, [r0], #1
    8bac:	b2811001 	addlt	r1, r1, #1
    8bb0:	bafffffa 	blt	8ba0 <pad+0x4>
    8bb4:	e3a03000 	mov	r3, #0
    8bb8:	e5c03000 	strb	r3, [r0]
    8bbc:	e12fff1e 	bx	lr

00008bc0 <reverse>:
    8bc0:	e042c003 	sub	ip, r2, r3
    8bc4:	e28cc001 	add	ip, ip, #1
    8bc8:	e15c0001 	cmp	ip, r1
    8bcc:	c04cc001 	subgt	ip, ip, r1
    8bd0:	c083300c 	addgt	r3, r3, ip
    8bd4:	e2421001 	sub	r1, r2, #1
    8bd8:	e1a02000 	mov	r2, r0
    8bdc:	e1510003 	cmp	r1, r3
    8be0:	2451c001 	ldrbcs	ip, [r1], #-1
    8be4:	24c2c001 	strbcs	ip, [r2], #1
    8be8:	2afffffb 	bcs	8bdc <reverse+0x1c>
    8bec:	e3a03000 	mov	r3, #0
    8bf0:	e5c23000 	strb	r3, [r2]
    8bf4:	e12fff1e 	bx	lr

00008bf8 <emit>:
    8bf8:	e92d40f0 	push	{r4, r5, r6, r7, lr}
    8bfc:	e24dd044 	sub	sp, sp, #68	; 0x44
    8c00:	e1a05001 	mov	r5, r1
    8c04:	e1a04002 	mov	r4, r2
    8c08:	e59d2058 	ldr	r2, [sp, #88]	; 0x58
    8c0c:	e1520004 	cmp	r2, r4
    8c10:	c2442001 	subgt	r2, r4, #1
    8c14:	e1a0c003 	mov	ip, r3
    8c18:	e2400002 	sub	r0, r0, #2
    8c1c:	e350000e 	cmp	r0, #14
    8c20:	979ff100 	ldrls	pc, [pc, r0, lsl #2]
    8c24:	ea000050 	b	8d6c <emit+0x174>
    8c28:	00008d44 	andeq	r8, r0, r4, asr #26
    8c2c:	00008d6c 	andeq	r8, r0, ip, ror #26
    8c30:	00008d6c 	andeq	r8, r0, ip, ror #26
    8c34:	00008d6c 	andeq	r8, r0, ip, ror #26
    8c38:	00008d6c 	andeq	r8, r0, ip, ror #26
    8c3c:	00008d6c 	andeq	r8, r0, ip, ror #26
    8c40:	00008d38 	andeq	r8, r0, r8, lsr sp
    8c44:	00008d6c 	andeq	r8, r0, ip, ror #26
    8c48:	00008c64 	andeq	r8, r0, r4, ror #24
    8c4c:	00008d6c 	andeq	r8, r0, ip, ror #26
    8c50:	00008d6c 	andeq	r8, r0, ip, ror #26
    8c54:	00008d6c 	andeq	r8, r0, ip, ror #26
    8c58:	00008d6c 	andeq	r8, r0, ip, ror #26
    8c5c:	00008d6c 	andeq	r8, r0, ip, ror #26
    8c60:	00008cdc 	ldrdeq	r8, [r0], -ip
    8c64:	e59d105c 	ldr	r1, [sp, #92]	; 0x5c
    8c68:	e2511000 	subs	r1, r1, #0
    8c6c:	13a01001 	movne	r1, #1
    8c70:	e0111fa3 	ands	r1, r1, r3, lsr #31
    8c74:	0a000016 	beq	8cd4 <emit+0xdc>
    8c78:	e263c000 	rsb	ip, r3, #0
    8c7c:	e3a06001 	mov	r6, #1
    8c80:	e1a0000d 	mov	r0, sp
    8c84:	e59f30fc 	ldr	r3, [pc, #252]	; 8d88 <emit+0x190>
    8c88:	e0831c93 	umull	r1, r3, r3, ip
    8c8c:	e1a031a3 	lsr	r3, r3, #3
    8c90:	e1a0e003 	mov	lr, r3
    8c94:	e0833103 	add	r3, r3, r3, lsl #2
    8c98:	e04c3083 	sub	r3, ip, r3, lsl #1
    8c9c:	e1a01000 	mov	r1, r0
    8ca0:	e2800001 	add	r0, r0, #1
    8ca4:	e59f70e0 	ldr	r7, [pc, #224]	; 8d8c <emit+0x194>
    8ca8:	e7d73003 	ldrb	r3, [r7, r3]
    8cac:	e5c13000 	strb	r3, [r1]
    8cb0:	e1a0300c 	mov	r3, ip
    8cb4:	e1a0c00e 	mov	ip, lr
    8cb8:	e3530009 	cmp	r3, #9
    8cbc:	8afffff0 	bhi	8c84 <emit+0x8c>
    8cc0:	e3560000 	cmp	r6, #0
    8cc4:	13a0302d 	movne	r3, #45	; 0x2d
    8cc8:	15c03000 	strbne	r3, [r0]
    8ccc:	12810002 	addne	r0, r1, #2
    8cd0:	ea00000f 	b	8d14 <emit+0x11c>
    8cd4:	e3a06000 	mov	r6, #0
    8cd8:	eaffffe8 	b	8c80 <emit+0x88>
    8cdc:	e1a0100d 	mov	r1, sp
    8ce0:	e20c000f 	and	r0, ip, #15
    8ce4:	e59fe0a4 	ldr	lr, [pc, #164]	; 8d90 <emit+0x198>
    8ce8:	e7de0000 	ldrb	r0, [lr, r0]
    8cec:	e5c10000 	strb	r0, [r1]
    8cf0:	e2811001 	add	r1, r1, #1
    8cf4:	e35c000f 	cmp	ip, #15
    8cf8:	e1a0c22c 	lsr	ip, ip, #4
    8cfc:	8afffff7 	bhi	8ce0 <emit+0xe8>
    8d00:	e1a00001 	mov	r0, r1
    8d04:	e3a03078 	mov	r3, #120	; 0x78
    8d08:	e4c03002 	strb	r3, [r0], #2
    8d0c:	e3a03030 	mov	r3, #48	; 0x30
    8d10:	e5c13001 	strb	r3, [r1, #1]
    8d14:	e1a0100d 	mov	r1, sp
    8d18:	ebffff9f 	bl	8b9c <pad>
    8d1c:	e1a02000 	mov	r2, r0
    8d20:	e1a0300d 	mov	r3, sp
    8d24:	e1a01004 	mov	r1, r4
    8d28:	e1a00005 	mov	r0, r5
    8d2c:	ebffffa3 	bl	8bc0 <reverse>
    8d30:	e28dd044 	add	sp, sp, #68	; 0x44
    8d34:	e8bd80f0 	pop	{r4, r5, r6, r7, pc}
    8d38:	e5cd3000 	strb	r3, [sp]
    8d3c:	e28d0001 	add	r0, sp, #1
    8d40:	eafffff3 	b	8d14 <emit+0x11c>
    8d44:	e1a0000d 	mov	r0, sp
    8d48:	e20c1001 	and	r1, ip, #1
    8d4c:	e59fe040 	ldr	lr, [pc, #64]	; 8d94 <emit+0x19c>
    8d50:	e7de1001 	ldrb	r1, [lr, r1]
    8d54:	e5c01000 	strb	r1, [r0]
    8d58:	e2800001 	add	r0, r0, #1
    8d5c:	e35c0001 	cmp	ip, #1
    8d60:	e1a0c0ac 	lsr	ip, ip, #1
    8d64:	8afffff7 	bhi	8d48 <emit+0x150>
    8d68:	eaffffe9 	b	8d14 <emit+0x11c>
    8d6c:	ebffff57 	bl	8ad0 <rpi_reset_putc>
    8d70:	e3a03077 	mov	r3, #119	; 0x77
    8d74:	e59f201c 	ldr	r2, [pc, #28]	; 8d98 <emit+0x1a0>
    8d78:	e59f101c 	ldr	r1, [pc, #28]	; 8d9c <emit+0x1a4>
    8d7c:	e59f001c 	ldr	r0, [pc, #28]	; 8da0 <emit+0x1a8>
    8d80:	ebffff37 	bl	8a64 <printk>
    8d84:	eb0000c7 	bl	90a8 <clean_reboot>
    8d88:	cccccccd 	stclgt	12, cr12, [ip], {205}	; 0xcd
    8d8c:	00009a48 	andeq	r9, r0, r8, asr #20
    8d90:	00009a54 	andeq	r9, r0, r4, asr sl
    8d94:	00009a68 	andeq	r9, r0, r8, ror #20
    8d98:	00009b00 	andeq	r9, r0, r0, lsl #22
    8d9c:	00009a20 	andeq	r9, r0, r0, lsr #20
    8da0:	00009a34 	andeq	r9, r0, r4, lsr sl

00008da4 <rpi_set_output>:
    8da4:	e3500000 	cmp	r0, #0
    8da8:	0a000005 	beq	8dc4 <rpi_set_output+0x20>
    8dac:	e59f3030 	ldr	r3, [pc, #48]	; 8de4 <rpi_set_output+0x40>
    8db0:	e5830000 	str	r0, [r3]
    8db4:	e3510000 	cmp	r1, #0
    8db8:	159f3028 	ldrne	r3, [pc, #40]	; 8de8 <rpi_set_output+0x44>
    8dbc:	15831000 	strne	r1, [r3]
    8dc0:	e12fff1e 	bx	lr
    8dc4:	e92d4010 	push	{r4, lr}
    8dc8:	ebffff40 	bl	8ad0 <rpi_reset_putc>
    8dcc:	e3a03020 	mov	r3, #32
    8dd0:	e59f2014 	ldr	r2, [pc, #20]	; 8dec <rpi_set_output+0x48>
    8dd4:	e59f1014 	ldr	r1, [pc, #20]	; 8df0 <rpi_set_output+0x4c>
    8dd8:	e59f0014 	ldr	r0, [pc, #20]	; 8df4 <rpi_set_output+0x50>
    8ddc:	ebffff20 	bl	8a64 <printk>
    8de0:	eb0000b0 	bl	90a8 <clean_reboot>
    8de4:	00009690 	muleq	r0, r0, r6
    8de8:	00009694 	muleq	r0, r4, r6
    8dec:	00009b08 	andeq	r9, r0, r8, lsl #22
    8df0:	00009a20 	andeq	r9, r0, r0, lsr #20
    8df4:	00009a6c 	andeq	r9, r0, ip, ror #20

00008df8 <va_printk>:
    8df8:	e92d43f0 	push	{r4, r5, r6, r7, r8, r9, lr}
    8dfc:	e24dd094 	sub	sp, sp, #148	; 0x94
    8e00:	e1a07000 	mov	r7, r0
    8e04:	e1a09002 	mov	r9, r2
    8e08:	e58d300c 	str	r3, [sp, #12]
    8e0c:	e2411001 	sub	r1, r1, #1
    8e10:	e0808001 	add	r8, r0, r1
    8e14:	e3a03000 	mov	r3, #0
    8e18:	e5c03000 	strb	r3, [r0]
    8e1c:	e1a04000 	mov	r4, r0
    8e20:	ea000001 	b	8e2c <va_printk+0x34>
    8e24:	e2899001 	add	r9, r9, #1
    8e28:	e4c43001 	strb	r3, [r4], #1
    8e2c:	e5d93000 	ldrb	r3, [r9]
    8e30:	e3530000 	cmp	r3, #0
    8e34:	0a000091 	beq	9080 <va_printk+0x288>
    8e38:	e1540008 	cmp	r4, r8
    8e3c:	2a00008f 	bcs	9080 <va_printk+0x288>
    8e40:	e3530025 	cmp	r3, #37	; 0x25
    8e44:	1afffff6 	bne	8e24 <va_printk+0x2c>
    8e48:	e5d92001 	ldrb	r2, [r9, #1]
    8e4c:	e3520025 	cmp	r2, #37	; 0x25
    8e50:	04c43001 	strbeq	r3, [r4], #1
    8e54:	02899002 	addeq	r9, r9, #2
    8e58:	0afffff3 	beq	8e2c <va_printk+0x34>
    8e5c:	e2899001 	add	r9, r9, #1
    8e60:	e3a06000 	mov	r6, #0
    8e64:	ea000003 	b	8e78 <va_printk+0x80>
    8e68:	e0866106 	add	r6, r6, r6, lsl #2
    8e6c:	e0855086 	add	r5, r5, r6, lsl #1
    8e70:	e2456030 	sub	r6, r5, #48	; 0x30
    8e74:	e2899001 	add	r9, r9, #1
    8e78:	e5d95000 	ldrb	r5, [r9]
    8e7c:	e1a00005 	mov	r0, r5
    8e80:	ebffff40 	bl	8b88 <isdigit>
    8e84:	e3500000 	cmp	r0, #0
    8e88:	1afffff6 	bne	8e68 <va_printk+0x70>
    8e8c:	e356001f 	cmp	r6, #31
    8e90:	8a00001a 	bhi	8f00 <va_printk+0x108>
    8e94:	e2455062 	sub	r5, r5, #98	; 0x62
    8e98:	e3550016 	cmp	r5, #22
    8e9c:	979ff105 	ldrls	pc, [pc, r5, lsl #2]
    8ea0:	ea00006d 	b	905c <va_printk+0x264>
    8ea4:	00008fe8 	andeq	r8, r0, r8, ror #31
    8ea8:	0000902c 	andeq	r9, r0, ip, lsr #32
    8eac:	00008f38 	andeq	r8, r0, r8, lsr pc
    8eb0:	0000905c 	andeq	r9, r0, ip, asr r0
    8eb4:	00008f1c 	andeq	r8, r0, ip, lsl pc
    8eb8:	0000905c 	andeq	r9, r0, ip, asr r0
    8ebc:	0000905c 	andeq	r9, r0, ip, asr r0
    8ec0:	0000905c 	andeq	r9, r0, ip, asr r0
    8ec4:	0000905c 	andeq	r9, r0, ip, asr r0
    8ec8:	0000905c 	andeq	r9, r0, ip, asr r0
    8ecc:	0000905c 	andeq	r9, r0, ip, asr r0
    8ed0:	0000905c 	andeq	r9, r0, ip, asr r0
    8ed4:	0000905c 	andeq	r9, r0, ip, asr r0
    8ed8:	0000905c 	andeq	r9, r0, ip, asr r0
    8edc:	00008fb8 			; <UNDEFINED> instruction: 0x00008fb8
    8ee0:	0000905c 	andeq	r9, r0, ip, asr r0
    8ee4:	0000905c 	andeq	r9, r0, ip, asr r0
    8ee8:	00009018 	andeq	r9, r0, r8, lsl r0
    8eec:	0000905c 	andeq	r9, r0, ip, asr r0
    8ef0:	00008f88 	andeq	r8, r0, r8, lsl #31
    8ef4:	0000905c 	andeq	r9, r0, ip, asr r0
    8ef8:	0000905c 	andeq	r9, r0, ip, asr r0
    8efc:	00008fb8 			; <UNDEFINED> instruction: 0x00008fb8
    8f00:	ebfffef2 	bl	8ad0 <rpi_reset_putc>
    8f04:	e3a03094 	mov	r3, #148	; 0x94
    8f08:	e59f2184 	ldr	r2, [pc, #388]	; 9094 <va_printk+0x29c>
    8f0c:	e59f1184 	ldr	r1, [pc, #388]	; 9098 <va_printk+0x2a0>
    8f10:	e59f0184 	ldr	r0, [pc, #388]	; 909c <va_printk+0x2a4>
    8f14:	ebfffed2 	bl	8a64 <printk>
    8f18:	eb000062 	bl	90a8 <clean_reboot>
    8f1c:	ebfffeeb 	bl	8ad0 <rpi_reset_putc>
    8f20:	e3a0309a 	mov	r3, #154	; 0x9a
    8f24:	e59f2168 	ldr	r2, [pc, #360]	; 9094 <va_printk+0x29c>
    8f28:	e59f1168 	ldr	r1, [pc, #360]	; 9098 <va_printk+0x2a0>
    8f2c:	e59f016c 	ldr	r0, [pc, #364]	; 90a0 <va_printk+0x2a8>
    8f30:	ebfffecb 	bl	8a64 <printk>
    8f34:	eb00005b 	bl	90a8 <clean_reboot>
    8f38:	e59d300c 	ldr	r3, [sp, #12]
    8f3c:	e2832004 	add	r2, r3, #4
    8f40:	e58d200c 	str	r2, [sp, #12]
    8f44:	e5933000 	ldr	r3, [r3]
    8f48:	e3a02001 	mov	r2, #1
    8f4c:	e58d2004 	str	r2, [sp, #4]
    8f50:	e58d6000 	str	r6, [sp]
    8f54:	e3a02080 	mov	r2, #128	; 0x80
    8f58:	e28d1010 	add	r1, sp, #16
    8f5c:	e3a0000a 	mov	r0, #10
    8f60:	ebffff24 	bl	8bf8 <emit>
    8f64:	e2899001 	add	r9, r9, #1
    8f68:	e1540008 	cmp	r4, r8
    8f6c:	2affffae 	bcs	8e2c <va_printk+0x34>
    8f70:	e5d03000 	ldrb	r3, [r0]
    8f74:	e3530000 	cmp	r3, #0
    8f78:	0affffab 	beq	8e2c <va_printk+0x34>
    8f7c:	e2800001 	add	r0, r0, #1
    8f80:	e4c43001 	strb	r3, [r4], #1
    8f84:	eafffff7 	b	8f68 <va_printk+0x170>
    8f88:	e59d300c 	ldr	r3, [sp, #12]
    8f8c:	e2832004 	add	r2, r3, #4
    8f90:	e58d200c 	str	r2, [sp, #12]
    8f94:	e5933000 	ldr	r3, [r3]
    8f98:	e3a02000 	mov	r2, #0
    8f9c:	e58d2004 	str	r2, [sp, #4]
    8fa0:	e58d6000 	str	r6, [sp]
    8fa4:	e3a02080 	mov	r2, #128	; 0x80
    8fa8:	e28d1010 	add	r1, sp, #16
    8fac:	e3a0000a 	mov	r0, #10
    8fb0:	ebffff10 	bl	8bf8 <emit>
    8fb4:	eaffffea 	b	8f64 <va_printk+0x16c>
    8fb8:	e59d300c 	ldr	r3, [sp, #12]
    8fbc:	e2832004 	add	r2, r3, #4
    8fc0:	e58d200c 	str	r2, [sp, #12]
    8fc4:	e5933000 	ldr	r3, [r3]
    8fc8:	e3a02000 	mov	r2, #0
    8fcc:	e58d2004 	str	r2, [sp, #4]
    8fd0:	e58d6000 	str	r6, [sp]
    8fd4:	e3a02080 	mov	r2, #128	; 0x80
    8fd8:	e28d1010 	add	r1, sp, #16
    8fdc:	e3a00010 	mov	r0, #16
    8fe0:	ebffff04 	bl	8bf8 <emit>
    8fe4:	eaffffde 	b	8f64 <va_printk+0x16c>
    8fe8:	e59d300c 	ldr	r3, [sp, #12]
    8fec:	e2832004 	add	r2, r3, #4
    8ff0:	e58d200c 	str	r2, [sp, #12]
    8ff4:	e5933000 	ldr	r3, [r3]
    8ff8:	e3a02000 	mov	r2, #0
    8ffc:	e58d2004 	str	r2, [sp, #4]
    9000:	e58d6000 	str	r6, [sp]
    9004:	e3a02080 	mov	r2, #128	; 0x80
    9008:	e28d1010 	add	r1, sp, #16
    900c:	e3a00002 	mov	r0, #2
    9010:	ebfffef8 	bl	8bf8 <emit>
    9014:	eaffffd2 	b	8f64 <va_printk+0x16c>
    9018:	e59d300c 	ldr	r3, [sp, #12]
    901c:	e2832004 	add	r2, r3, #4
    9020:	e58d200c 	str	r2, [sp, #12]
    9024:	e5930000 	ldr	r0, [r3]
    9028:	eaffffcd 	b	8f64 <va_printk+0x16c>
    902c:	e59d300c 	ldr	r3, [sp, #12]
    9030:	e2832004 	add	r2, r3, #4
    9034:	e58d200c 	str	r2, [sp, #12]
    9038:	e5933000 	ldr	r3, [r3]
    903c:	e3a02000 	mov	r2, #0
    9040:	e58d2004 	str	r2, [sp, #4]
    9044:	e58d6000 	str	r6, [sp]
    9048:	e3a02080 	mov	r2, #128	; 0x80
    904c:	e28d1010 	add	r1, sp, #16
    9050:	e3a00008 	mov	r0, #8
    9054:	ebfffee7 	bl	8bf8 <emit>
    9058:	eaffffc1 	b	8f64 <va_printk+0x16c>
    905c:	ebfffe9b 	bl	8ad0 <rpi_reset_putc>
    9060:	e5d93000 	ldrb	r3, [r9]
    9064:	e58d3000 	str	r3, [sp]
    9068:	e3a030bb 	mov	r3, #187	; 0xbb
    906c:	e59f2020 	ldr	r2, [pc, #32]	; 9094 <va_printk+0x29c>
    9070:	e59f1020 	ldr	r1, [pc, #32]	; 9098 <va_printk+0x2a0>
    9074:	e59f0028 	ldr	r0, [pc, #40]	; 90a4 <va_printk+0x2ac>
    9078:	ebfffe79 	bl	8a64 <printk>
    907c:	eb000009 	bl	90a8 <clean_reboot>
    9080:	e3a03000 	mov	r3, #0
    9084:	e4c43001 	strb	r3, [r4], #1
    9088:	e0440007 	sub	r0, r4, r7
    908c:	e28dd094 	add	sp, sp, #148	; 0x94
    9090:	e8bd83f0 	pop	{r4, r5, r6, r7, r8, r9, pc}
    9094:	00009b18 	andeq	r9, r0, r8, lsl fp
    9098:	00009a20 	andeq	r9, r0, r0, lsr #20
    909c:	00009a84 	andeq	r9, r0, r4, lsl #21
    90a0:	00009aa0 	andeq	r9, r0, r0, lsr #21
    90a4:	00009ac8 	andeq	r9, r0, r8, asr #21

000090a8 <clean_reboot>:
    90a8:	e92d4010 	push	{r4, lr}
    90ac:	e59f3014 	ldr	r3, [pc, #20]	; 90c8 <clean_reboot+0x20>
    90b0:	e5933000 	ldr	r3, [r3]
    90b4:	e59f0010 	ldr	r0, [pc, #16]	; 90cc <clean_reboot+0x24>
    90b8:	e12fff33 	blx	r3
    90bc:	e3a00064 	mov	r0, #100	; 0x64
    90c0:	eb000042 	bl	91d0 <delay_ms>
    90c4:	eb000017 	bl	9128 <rpi_reboot>
    90c8:	00009694 	muleq	r0, r4, r6
    90cc:	00009b24 	andeq	r9, r0, r4, lsr #22

000090d0 <_cstart>:
    90d0:	e92d4010 	push	{r4, lr}
    90d4:	e59f3018 	ldr	r3, [pc, #24]	; 90f4 <_cstart+0x24>
    90d8:	e59f2018 	ldr	r2, [pc, #24]	; 90f8 <_cstart+0x28>
    90dc:	e1530002 	cmp	r3, r2
    90e0:	33a02000 	movcc	r2, #0
    90e4:	34832004 	strcc	r2, [r3], #4
    90e8:	3afffffa 	bcc	90d8 <_cstart+0x8>
    90ec:	ebfffbc7 	bl	8010 <notmain>
    90f0:	ebffffec 	bl	90a8 <clean_reboot>
    90f4:	00009c50 	andeq	r9, r0, r0, asr ip
    90f8:	0000a060 	andeq	sl, r0, r0, rrx

000090fc <at_user_level>:
    90fc:	e10f0000 	mrs	r0, CPSR
    9100:	e200001f 	and	r0, r0, #31
    9104:	e3500010 	cmp	r0, #16
    9108:	13a00000 	movne	r0, #0
    910c:	03a00001 	moveq	r0, #1
    9110:	e12fff1e 	bx	lr

00009114 <set_user_level>:
    9114:	e10f3000 	mrs	r3, CPSR
    9118:	e3c3301f 	bic	r3, r3, #31
    911c:	e3833010 	orr	r3, r3, #16
    9120:	e129f003 	msr	CPSR_fc, r3
    9124:	e12fff1e 	bx	lr

00009128 <rpi_reboot>:
    9128:	e92d4010 	push	{r4, lr}
    912c:	ebfffff2 	bl	90fc <at_user_level>
    9130:	e3500000 	cmp	r0, #0
    9134:	1a000008 	bne	915c <rpi_reboot+0x34>
    9138:	e3a0001e 	mov	r0, #30
    913c:	eb000023 	bl	91d0 <delay_ms>
    9140:	e59f101c 	ldr	r1, [pc, #28]	; 9164 <rpi_reboot+0x3c>
    9144:	e59f001c 	ldr	r0, [pc, #28]	; 9168 <rpi_reboot+0x40>
    9148:	eb00002e 	bl	9208 <PUT32>
    914c:	e59f1018 	ldr	r1, [pc, #24]	; 916c <rpi_reboot+0x44>
    9150:	e59f0018 	ldr	r0, [pc, #24]	; 9170 <rpi_reboot+0x48>
    9154:	eb00002b 	bl	9208 <PUT32>
    9158:	eafffffe 	b	9158 <rpi_reboot+0x30>
    915c:	ebffffec 	bl	9114 <set_user_level>
    9160:	eafffff4 	b	9138 <rpi_reboot+0x10>
    9164:	5a000001 	bpl	9170 <rpi_reboot+0x48>
    9168:	20100024 	andscs	r0, r0, r4, lsr #32
    916c:	5a000020 	bpl	91f4 <delay_sec+0xc>
    9170:	2010001c 	andscs	r0, r0, ip, lsl r0

00009174 <delay_cycles>:
    9174:	e2403001 	sub	r3, r0, #1
    9178:	e3500000 	cmp	r0, #0
    917c:	012fff1e 	bxeq	lr
    9180:	e2811000 	add	r1, r1, #0
    9184:	e1a00003 	mov	r0, r3
    9188:	eafffff9 	b	9174 <delay_cycles>

0000918c <timer_get_usec_raw>:
    918c:	e92d4010 	push	{r4, lr}
    9190:	e59f0004 	ldr	r0, [pc, #4]	; 919c <timer_get_usec_raw+0x10>
    9194:	eb000027 	bl	9238 <GET32>
    9198:	e8bd8010 	pop	{r4, pc}
    919c:	20003004 	andcs	r3, r0, r4

000091a0 <timer_get_usec>:
    91a0:	e92d4010 	push	{r4, lr}
    91a4:	ebfffff8 	bl	918c <timer_get_usec_raw>
    91a8:	e8bd8010 	pop	{r4, pc}

000091ac <delay_us>:
    91ac:	e92d4070 	push	{r4, r5, r6, lr}
    91b0:	e1a05000 	mov	r5, r0
    91b4:	ebfffff9 	bl	91a0 <timer_get_usec>
    91b8:	e1a04000 	mov	r4, r0
    91bc:	ebfffff7 	bl	91a0 <timer_get_usec>
    91c0:	e0400004 	sub	r0, r0, r4
    91c4:	e1500005 	cmp	r0, r5
    91c8:	3afffffb 	bcc	91bc <delay_us+0x10>
    91cc:	e8bd8070 	pop	{r4, r5, r6, pc}

000091d0 <delay_ms>:
    91d0:	e92d4010 	push	{r4, lr}
    91d4:	e0603280 	rsb	r3, r0, r0, lsl #5
    91d8:	e0800103 	add	r0, r0, r3, lsl #2
    91dc:	e1a00180 	lsl	r0, r0, #3
    91e0:	ebfffff1 	bl	91ac <delay_us>
    91e4:	e8bd8010 	pop	{r4, pc}

000091e8 <delay_sec>:
    91e8:	e92d4010 	push	{r4, lr}
    91ec:	e0603280 	rsb	r3, r0, r0, lsl #5
    91f0:	e0800103 	add	r0, r0, r3, lsl #2
    91f4:	e1a00180 	lsl	r0, r0, #3
    91f8:	ebfffff4 	bl	91d0 <delay_ms>
    91fc:	e8bd8010 	pop	{r4, pc}

00009200 <put32>:
    9200:	e5801000 	str	r1, [r0]
    9204:	e12fff1e 	bx	lr

00009208 <PUT32>:
    9208:	e5801000 	str	r1, [r0]
    920c:	e12fff1e 	bx	lr

00009210 <put16>:
    9210:	e1c010b0 	strh	r1, [r0]
    9214:	e12fff1e 	bx	lr

00009218 <PUT16>:
    9218:	e1c010b0 	strh	r1, [r0]
    921c:	e12fff1e 	bx	lr

00009220 <put8>:
    9220:	e5c01000 	strb	r1, [r0]
    9224:	e12fff1e 	bx	lr

00009228 <PUT8>:
    9228:	e5c01000 	strb	r1, [r0]
    922c:	e12fff1e 	bx	lr

00009230 <get32>:
    9230:	e5900000 	ldr	r0, [r0]
    9234:	e12fff1e 	bx	lr

00009238 <GET32>:
    9238:	e5900000 	ldr	r0, [r0]
    923c:	e12fff1e 	bx	lr

00009240 <GETPC>:
    9240:	e1a0000e 	mov	r0, lr
    9244:	e12fff1e 	bx	lr

00009248 <dummy>:
    9248:	e12fff1e 	bx	lr

0000924c <or_in32>:
    924c:	e92d4070 	push	{r4, r5, r6, lr}
    9250:	e1a04000 	mov	r4, r0
    9254:	e1a05001 	mov	r5, r1
    9258:	ebfffff4 	bl	9230 <get32>
    925c:	e1801005 	orr	r1, r0, r5
    9260:	e1a00004 	mov	r0, r4
    9264:	ebffffe5 	bl	9200 <put32>
    9268:	e8bd8070 	pop	{r4, r5, r6, pc}

0000926c <uart_init>:
    926c:	e92d4010 	push	{r4, lr}
    9270:	e3a01002 	mov	r1, #2
    9274:	e3a0000e 	mov	r0, #14
    9278:	eb000051 	bl	93c4 <gpio_set_function>
    927c:	e3a01002 	mov	r1, #2
    9280:	e3a0000f 	mov	r0, #15
    9284:	eb00004e 	bl	93c4 <gpio_set_function>
    9288:	eb0000fa 	bl	9678 <dev_barrier>
    928c:	e3a01001 	mov	r1, #1
    9290:	e59f0064 	ldr	r0, [pc, #100]	; 92fc <uart_init+0x90>
    9294:	ebffffec 	bl	924c <or_in32>
    9298:	eb0000f6 	bl	9678 <dev_barrier>
    929c:	e59f405c 	ldr	r4, [pc, #92]	; 9300 <uart_init+0x94>
    92a0:	e3a01000 	mov	r1, #0
    92a4:	e1a00004 	mov	r0, r4
    92a8:	ebffffd4 	bl	9200 <put32>
    92ac:	e3a01000 	mov	r1, #0
    92b0:	e59f004c 	ldr	r0, [pc, #76]	; 9304 <uart_init+0x98>
    92b4:	ebffffd1 	bl	9200 <put32>
    92b8:	e3a01003 	mov	r1, #3
    92bc:	e59f0044 	ldr	r0, [pc, #68]	; 9308 <uart_init+0x9c>
    92c0:	ebffffce 	bl	9200 <put32>
    92c4:	e3a01000 	mov	r1, #0
    92c8:	e59f003c 	ldr	r0, [pc, #60]	; 930c <uart_init+0xa0>
    92cc:	ebffffcb 	bl	9200 <put32>
    92d0:	e3a010c7 	mov	r1, #199	; 0xc7
    92d4:	e59f0034 	ldr	r0, [pc, #52]	; 9310 <uart_init+0xa4>
    92d8:	ebffffc8 	bl	9200 <put32>
    92dc:	e59f1030 	ldr	r1, [pc, #48]	; 9314 <uart_init+0xa8>
    92e0:	e59f0030 	ldr	r0, [pc, #48]	; 9318 <uart_init+0xac>
    92e4:	ebffffc5 	bl	9200 <put32>
    92e8:	e3a01003 	mov	r1, #3
    92ec:	e1a00004 	mov	r0, r4
    92f0:	ebffffc2 	bl	9200 <put32>
    92f4:	eb0000df 	bl	9678 <dev_barrier>
    92f8:	e8bd8010 	pop	{r4, pc}
    92fc:	20215004 	eorcs	r5, r1, r4
    9300:	20215060 	eorcs	r5, r1, r0, rrx
    9304:	20215044 	eorcs	r5, r1, r4, asr #32
    9308:	2021504c 	eorcs	r5, r1, ip, asr #32
    930c:	20215050 	eorcs	r5, r1, r0, asr r0
    9310:	20215048 	eorcs	r5, r1, r8, asr #32
    9314:	0000010e 	andeq	r0, r0, lr, lsl #2
    9318:	20215068 	eorcs	r5, r1, r8, rrx

0000931c <uart_can_getc>:
    931c:	e92d4010 	push	{r4, lr}
    9320:	e59f0008 	ldr	r0, [pc, #8]	; 9330 <uart_can_getc+0x14>
    9324:	ebffffc1 	bl	9230 <get32>
    9328:	e2000001 	and	r0, r0, #1
    932c:	e8bd8010 	pop	{r4, pc}
    9330:	20215064 	eorcs	r5, r1, r4, rrx

00009334 <uart_can_putc>:
    9334:	e92d4010 	push	{r4, lr}
    9338:	e59f0010 	ldr	r0, [pc, #16]	; 9350 <uart_can_putc+0x1c>
    933c:	ebffffbb 	bl	9230 <get32>
    9340:	e3100002 	tst	r0, #2
    9344:	13a00001 	movne	r0, #1
    9348:	03a00000 	moveq	r0, #0
    934c:	e8bd8010 	pop	{r4, pc}
    9350:	20215064 	eorcs	r5, r1, r4, rrx

00009354 <uart_getc>:
    9354:	e92d4010 	push	{r4, lr}
    9358:	eb0000c6 	bl	9678 <dev_barrier>
    935c:	ebffffee 	bl	931c <uart_can_getc>
    9360:	e3500000 	cmp	r0, #0
    9364:	0afffffc 	beq	935c <uart_getc+0x8>
    9368:	e59f0010 	ldr	r0, [pc, #16]	; 9380 <uart_getc+0x2c>
    936c:	ebffffaf 	bl	9230 <get32>
    9370:	e6ef4070 	uxtb	r4, r0
    9374:	eb0000bf 	bl	9678 <dev_barrier>
    9378:	e1a00004 	mov	r0, r4
    937c:	e8bd8010 	pop	{r4, pc}
    9380:	20215040 	eorcs	r5, r1, r0, asr #32

00009384 <uart_putc>:
    9384:	e92d4010 	push	{r4, lr}
    9388:	e1a04000 	mov	r4, r0
    938c:	eb0000b9 	bl	9678 <dev_barrier>
    9390:	ebffffe7 	bl	9334 <uart_can_putc>
    9394:	e3500000 	cmp	r0, #0
    9398:	0afffffc 	beq	9390 <uart_putc+0xc>
    939c:	e6ef1074 	uxtb	r1, r4
    93a0:	e59f0008 	ldr	r0, [pc, #8]	; 93b0 <uart_putc+0x2c>
    93a4:	ebffff95 	bl	9200 <put32>
    93a8:	eb0000b2 	bl	9678 <dev_barrier>
    93ac:	e8bd8010 	pop	{r4, pc}
    93b0:	20215040 	eorcs	r5, r1, r0, asr #32

000093b4 <uart_has_data>:
    93b4:	e92d4010 	push	{r4, lr}
    93b8:	eb0000ae 	bl	9678 <dev_barrier>
    93bc:	ebffffd6 	bl	931c <uart_can_getc>
    93c0:	e8bd8010 	pop	{r4, pc}

000093c4 <gpio_set_function>:
    93c4:	e350001f 	cmp	r0, #31
    93c8:	812fff1e 	bxhi	lr
    93cc:	e3d13007 	bics	r3, r1, #7
    93d0:	112fff1e 	bxne	lr
    93d4:	e92d4070 	push	{r4, r5, r6, lr}
    93d8:	e1a05001 	mov	r5, r1
    93dc:	e59f3044 	ldr	r3, [pc, #68]	; 9428 <gpio_set_function+0x64>
    93e0:	e0832093 	umull	r2, r3, r3, r0
    93e4:	e1a031a3 	lsr	r3, r3, #3
    93e8:	e1a06003 	mov	r6, r3
    93ec:	e0833103 	add	r3, r3, r3, lsl #2
    93f0:	e1a02083 	lsl	r2, r3, #1
    93f4:	e0403002 	sub	r3, r0, r2
    93f8:	e0834083 	add	r4, r3, r3, lsl #1
    93fc:	e2866302 	add	r6, r6, #134217728	; 0x8000000
    9400:	e2866702 	add	r6, r6, #524288	; 0x80000
    9404:	e1a06106 	lsl	r6, r6, #2
    9408:	e1a00006 	mov	r0, r6
    940c:	ebffff89 	bl	9238 <GET32>
    9410:	e3a01007 	mov	r1, #7
    9414:	e1c01411 	bic	r1, r0, r1, lsl r4
    9418:	e1811415 	orr	r1, r1, r5, lsl r4
    941c:	e1a00006 	mov	r0, r6
    9420:	ebffff78 	bl	9208 <PUT32>
    9424:	e8bd8070 	pop	{r4, r5, r6, pc}
    9428:	cccccccd 	stclgt	12, cr12, [ip], {205}	; 0xcd

0000942c <gpio_set_output>:
    942c:	e92d4010 	push	{r4, lr}
    9430:	e3a01001 	mov	r1, #1
    9434:	ebffffe2 	bl	93c4 <gpio_set_function>
    9438:	e8bd8010 	pop	{r4, pc}

0000943c <gpio_set_on>:
    943c:	e350001f 	cmp	r0, #31
    9440:	812fff1e 	bxhi	lr
    9444:	e92d4010 	push	{r4, lr}
    9448:	e3a01001 	mov	r1, #1
    944c:	e1a01011 	lsl	r1, r1, r0
    9450:	e59f0004 	ldr	r0, [pc, #4]	; 945c <gpio_set_on+0x20>
    9454:	ebffff6b 	bl	9208 <PUT32>
    9458:	e8bd8010 	pop	{r4, pc}
    945c:	2020001c 	eorcs	r0, r0, ip, lsl r0

00009460 <gpio_set_off>:
    9460:	e350001f 	cmp	r0, #31
    9464:	812fff1e 	bxhi	lr
    9468:	e92d4010 	push	{r4, lr}
    946c:	e3a01001 	mov	r1, #1
    9470:	e1a01011 	lsl	r1, r1, r0
    9474:	e59f0004 	ldr	r0, [pc, #4]	; 9480 <gpio_set_off+0x20>
    9478:	ebffff62 	bl	9208 <PUT32>
    947c:	e8bd8010 	pop	{r4, pc}
    9480:	20200028 	eorcs	r0, r0, r8, lsr #32

00009484 <gpio_set_input>:
    9484:	e92d4010 	push	{r4, lr}
    9488:	e3a01000 	mov	r1, #0
    948c:	ebffffcc 	bl	93c4 <gpio_set_function>
    9490:	e8bd8010 	pop	{r4, pc}

00009494 <gpio_write>:
    9494:	e92d4010 	push	{r4, lr}
    9498:	e3510000 	cmp	r1, #0
    949c:	1a000001 	bne	94a8 <gpio_write+0x14>
    94a0:	ebffffee 	bl	9460 <gpio_set_off>
    94a4:	e8bd8010 	pop	{r4, pc}
    94a8:	ebffffe3 	bl	943c <gpio_set_on>
    94ac:	e8bd8010 	pop	{r4, pc}

000094b0 <gpio_read>:
    94b0:	e350001f 	cmp	r0, #31
    94b4:	8a000007 	bhi	94d8 <gpio_read+0x28>
    94b8:	e92d4010 	push	{r4, lr}
    94bc:	e200401f 	and	r4, r0, #31
    94c0:	e59f3018 	ldr	r3, [pc, #24]	; 94e0 <gpio_read+0x30>
    94c4:	e08302a0 	add	r0, r3, r0, lsr #5
    94c8:	ebffff5a 	bl	9238 <GET32>
    94cc:	e1a00430 	lsr	r0, r0, r4
    94d0:	e2000001 	and	r0, r0, #1
    94d4:	e8bd8010 	pop	{r4, pc}
    94d8:	e3e00000 	mvn	r0, #0
    94dc:	e12fff1e 	bx	lr
    94e0:	20200034 	eorcs	r0, r0, r4, lsr r0

000094e4 <kmalloc_heap_end>:
    94e4:	e59f3004 	ldr	r3, [pc, #4]	; 94f0 <kmalloc_heap_end+0xc>
    94e8:	e5930000 	ldr	r0, [r3]
    94ec:	e12fff1e 	bx	lr
    94f0:	0000969c 	muleq	r0, ip, r6

000094f4 <kmalloc_heap_start>:
    94f4:	e59f0000 	ldr	r0, [pc]	; 94fc <kmalloc_heap_start+0x8>
    94f8:	e12fff1e 	bx	lr
    94fc:	0000a060 	andeq	sl, r0, r0, rrx

00009500 <kmalloc_init_set_start>:
    9500:	e59f3038 	ldr	r3, [pc, #56]	; 9540 <kmalloc_init_set_start+0x40>
    9504:	e5933000 	ldr	r3, [r3]
    9508:	e1500003 	cmp	r0, r3
    950c:	9a000003 	bls	9520 <kmalloc_init_set_start+0x20>
    9510:	e59f3028 	ldr	r3, [pc, #40]	; 9540 <kmalloc_init_set_start+0x40>
    9514:	e5830000 	str	r0, [r3]
    9518:	e5830004 	str	r0, [r3, #4]
    951c:	e12fff1e 	bx	lr
    9520:	e92d4010 	push	{r4, lr}
    9524:	ebfffd69 	bl	8ad0 <rpi_reset_putc>
    9528:	e3a03016 	mov	r3, #22
    952c:	e59f2010 	ldr	r2, [pc, #16]	; 9544 <kmalloc_init_set_start+0x44>
    9530:	e59f1010 	ldr	r1, [pc, #16]	; 9548 <kmalloc_init_set_start+0x48>
    9534:	e59f0010 	ldr	r0, [pc, #16]	; 954c <kmalloc_init_set_start+0x4c>
    9538:	ebfffd49 	bl	8a64 <printk>
    953c:	ebfffed9 	bl	90a8 <clean_reboot>
    9540:	0000969c 	muleq	r0, ip, r6
    9544:	00009b30 	andeq	r9, r0, r0, lsr fp
    9548:	00009b60 	andeq	r9, r0, r0, ror #22
    954c:	00009b6c 	andeq	r9, r0, ip, ror #22

00009550 <kmalloc>:
    9550:	e92d4010 	push	{r4, lr}
    9554:	e3500000 	cmp	r0, #0
    9558:	0a00000a 	beq	9588 <kmalloc+0x38>
    955c:	e2802007 	add	r2, r0, #7
    9560:	e3c22007 	bic	r2, r2, #7
    9564:	e59f3038 	ldr	r3, [pc, #56]	; 95a4 <kmalloc+0x54>
    9568:	e5934000 	ldr	r4, [r3]
    956c:	e0841002 	add	r1, r4, r2
    9570:	e5831000 	str	r1, [r3]
    9574:	e3a01000 	mov	r1, #0
    9578:	e1a00004 	mov	r0, r4
    957c:	ebfffd32 	bl	8a4c <memset>
    9580:	e1a00004 	mov	r0, r4
    9584:	e8bd8010 	pop	{r4, pc}
    9588:	ebfffd50 	bl	8ad0 <rpi_reset_putc>
    958c:	e3a0301b 	mov	r3, #27
    9590:	e59f2010 	ldr	r2, [pc, #16]	; 95a8 <kmalloc+0x58>
    9594:	e59f1010 	ldr	r1, [pc, #16]	; 95ac <kmalloc+0x5c>
    9598:	e59f0010 	ldr	r0, [pc, #16]	; 95b0 <kmalloc+0x60>
    959c:	ebfffd30 	bl	8a64 <printk>
    95a0:	ebfffec0 	bl	90a8 <clean_reboot>
    95a4:	0000969c 	muleq	r0, ip, r6
    95a8:	00009b48 	andeq	r9, r0, r8, asr #22
    95ac:	00009b60 	andeq	r9, r0, r0, ror #22
    95b0:	00009b88 	andeq	r9, r0, r8, lsl #23

000095b4 <kmalloc_init>:
    95b4:	e12fff1e 	bx	lr

000095b8 <kmalloc_heap_ptr>:
    95b8:	e92d4010 	push	{r4, lr}
    95bc:	ebffffcc 	bl	94f4 <kmalloc_heap_start>
    95c0:	e8bd8010 	pop	{r4, pc}

000095c4 <kmalloc_aligned>:
    95c4:	e92d4010 	push	{r4, lr}
    95c8:	e2613000 	rsb	r3, r1, #0
    95cc:	e1d12003 	bics	r2, r1, r3
    95d0:	1a00000b 	bne	9604 <kmalloc_aligned+0x40>
    95d4:	e59f2060 	ldr	r2, [pc, #96]	; 963c <kmalloc_aligned+0x78>
    95d8:	e5922000 	ldr	r2, [r2]
    95dc:	e0812002 	add	r2, r1, r2
    95e0:	e2422001 	sub	r2, r2, #1
    95e4:	e0033002 	and	r3, r3, r2
    95e8:	e2411001 	sub	r1, r1, #1
    95ec:	e1130001 	tst	r3, r1
    95f0:	1a00000a 	bne	9620 <kmalloc_aligned+0x5c>
    95f4:	e59f2040 	ldr	r2, [pc, #64]	; 963c <kmalloc_aligned+0x78>
    95f8:	e5823000 	str	r3, [r2]
    95fc:	ebffffd3 	bl	9550 <kmalloc>
    9600:	e8bd8010 	pop	{r4, pc}
    9604:	ebfffd31 	bl	8ad0 <rpi_reset_putc>
    9608:	e3a0302a 	mov	r3, #42	; 0x2a
    960c:	e59f202c 	ldr	r2, [pc, #44]	; 9640 <kmalloc_aligned+0x7c>
    9610:	e59f102c 	ldr	r1, [pc, #44]	; 9644 <kmalloc_aligned+0x80>
    9614:	e59f002c 	ldr	r0, [pc, #44]	; 9648 <kmalloc_aligned+0x84>
    9618:	ebfffd11 	bl	8a64 <printk>
    961c:	ebfffea1 	bl	90a8 <clean_reboot>
    9620:	ebfffd2a 	bl	8ad0 <rpi_reset_putc>
    9624:	e3a03030 	mov	r3, #48	; 0x30
    9628:	e59f2010 	ldr	r2, [pc, #16]	; 9640 <kmalloc_aligned+0x7c>
    962c:	e59f1010 	ldr	r1, [pc, #16]	; 9644 <kmalloc_aligned+0x80>
    9630:	e59f0014 	ldr	r0, [pc, #20]	; 964c <kmalloc_aligned+0x88>
    9634:	ebfffd0a 	bl	8a64 <printk>
    9638:	ebfffe9a 	bl	90a8 <clean_reboot>
    963c:	0000969c 	muleq	r0, ip, r6
    9640:	00009b50 	andeq	r9, r0, r0, asr fp
    9644:	00009b60 	andeq	r9, r0, r0, ror #22
    9648:	00009b9c 	muleq	r0, ip, fp
    964c:	00009bfc 	strdeq	r9, [r0], -ip

00009650 <kfree>:
    9650:	e12fff1e 	bx	lr

00009654 <kfree_all>:
    9654:	e59f3008 	ldr	r3, [pc, #8]	; 9664 <kfree_all+0x10>
    9658:	e5932004 	ldr	r2, [r3, #4]
    965c:	e5832000 	str	r2, [r3]
    9660:	e12fff1e 	bx	lr
    9664:	0000969c 	muleq	r0, ip, r6

00009668 <kfree_after>:
    9668:	e59f3004 	ldr	r3, [pc, #4]	; 9674 <kfree_after+0xc>
    966c:	e5830000 	str	r0, [r3]
    9670:	e12fff1e 	bx	lr
    9674:	0000969c 	muleq	r0, ip, r6

00009678 <dev_barrier>:
    9678:	ea000002 	b	9688 <dsb>

0000967c <dmb>:
    967c:	e3a00000 	mov	r0, #0
    9680:	ee070fba 	mcr	15, 0, r0, cr7, cr10, {5}
    9684:	e12fff1e 	bx	lr

00009688 <dsb>:
    9688:	ee070f9a 	mcr	15, 0, r0, cr7, cr10, {4}
    968c:	e12fff1e 	bx	lr

Disassembly of section .data:

00009690 <rpi_putchar>:
    9690:	00008abc 			; <UNDEFINED> instruction: 0x00008abc

00009694 <putk>:
    9694:	00008af8 	strdeq	r8, [r0], -r8	; <UNPREDICTABLE>

00009698 <lfsr>:
    9698:	0000ace1 	andeq	sl, r0, r1, ror #25

0000969c <heap>:
    969c:	0000a060 	andeq	sl, r0, r0, rrx

000096a0 <heap_start>:
    96a0:	0000a060 	andeq	sl, r0, r0, rrx

Disassembly of section .rodata:

000096a4 <__FUNCTION__.4337-0x70>:
    96a4:	74736574 	ldrbtvc	r6, [r3], #-1396	; 0xfffffa8c
    96a8:	75203a34 	strvc	r3, [r0, #-2612]!	; 0xfffff5cc
    96ac:	61206573 			; <UNDEFINED> instruction: 0x61206573
    96b0:	72657466 	rsbvc	r7, r5, #1711276032	; 0x66000000
    96b4:	65726620 	ldrbvs	r6, [r2, #-1568]!	; 0xfffff9e0
    96b8:	00000a65 	andeq	r0, r0, r5, ror #20
    96bc:	74726170 	ldrbtvc	r6, [r2], #-368	; 0xfffffe90
    96c0:	65742d31 	ldrbvs	r2, [r4, #-3377]!	; 0xfffff2cf
    96c4:	2e357473 	mrccs	4, 1, r7, cr5, cr3, {3}
    96c8:	00000063 	andeq	r0, r0, r3, rrx
    96cc:	494e4150 	stmdbmi	lr, {r4, r6, r8, lr}^
    96d0:	73253a43 			; <UNDEFINED> instruction: 0x73253a43
    96d4:	3a73253a 	bcc	1cd2bc4 <__bss_end__+0x1cc8b64>
    96d8:	693a6425 	ldmdbvs	sl!, {r0, r2, r5, sl, sp, lr}
    96dc:	6c61766e 	stclvs	6, cr7, [r1], #-440	; 0xfffffe48
    96e0:	65206469 	strvs	r6, [r0, #-1129]!	; 0xfffffb97
    96e4:	726f7272 	rsbvc	r7, pc, #536870919	; 0x20000007
    96e8:	0a0a2121 	beq	291b74 <__bss_end__+0x287b14>
    96ec:	00000000 	andeq	r0, r0, r0
    96f0:	43415254 	movtmi	r5, #4692	; 0x1254
    96f4:	00003a45 	andeq	r3, r0, r5, asr #20
    96f8:	43435553 	movtmi	r5, #13651	; 0x3553
    96fc:	20535345 	subscs	r5, r3, r5, asr #6
    9700:	70616568 	rsbvc	r6, r1, r8, ror #10
    9704:	65686320 	strbvs	r6, [r8, #-800]!	; 0xfffffce0
    9708:	64656b63 	strbtvs	r6, [r5], #-2915	; 0xfffff49d
    970c:	74756f20 	ldrbtvc	r6, [r5], #-3872	; 0xfffff0e0
    9710:	0000000a 	andeq	r0, r0, sl

00009714 <__FUNCTION__.4337>:
    9714:	6d746f6e 	ldclvs	15, cr6, [r4, #-440]!	; 0xfffffe48
    9718:	006e6961 	rsbeq	r6, lr, r1, ror #18
    971c:	4f525245 	svcmi	0x00525245
    9720:	00003a52 	andeq	r3, r0, r2, asr sl
    9724:	636f6c62 	cmnvs	pc, #25088	; 0x6200
    9728:	7025206b 	eorvc	r2, r5, fp, rrx
    972c:	726f6320 	rsbvc	r6, pc, #32, 6	; 0x80000000
    9730:	74707572 	ldrbtvc	r7, [r0], #-1394	; 0xfffffa8e
    9734:	61206465 			; <UNDEFINED> instruction: 0x61206465
    9738:	666f2074 			; <UNDEFINED> instruction: 0x666f2074
    973c:	74657366 	strbtvc	r7, [r5], #-870	; 0xfffffc9a
    9740:	0a642520 	beq	1912bc8 <__bss_end__+0x1908b68>
    9744:	00000000 	andeq	r0, r0, r0
    9748:	79626e09 	stmdbvc	r2!, {r0, r3, r9, sl, fp, sp, lr}^
    974c:	3d736574 	cfldr64cc	mvdx6, [r3, #-464]!	; 0xfffffe30
    9750:	000a6425 	andeq	r6, sl, r5, lsr #8
    9754:	6f6c4209 	svcvs	0x006c4209
    9758:	61206b63 			; <UNDEFINED> instruction: 0x61206b63
    975c:	636f6c6c 	cmnvs	pc, #108, 24	; 0x6c00
    9760:	64657461 	strbtvs	r7, [r5], #-1121	; 0xfffffb9f
    9764:	3a746120 	bcc	1d21bec <__bss_end__+0x1d17b8c>
    9768:	3a732520 	bcc	1cd2bf0 <__bss_end__+0x1cc8b90>
    976c:	253a7325 	ldrcs	r7, [sl, #-805]!	; 0xfffffcdb
    9770:	00000a64 	andeq	r0, r0, r4, ror #20
    9774:	6f6c4209 	svcvs	0x006c4209
    9778:	66206b63 	strtvs	r6, [r0], -r3, ror #22
    977c:	64656572 	strbtvs	r6, [r5], #-1394	; 0xfffffa8e
    9780:	3a746120 	bcc	1d21c08 <__bss_end__+0x1d17ba8>
    9784:	3a732520 	bcc	1cd2c0c <__bss_end__+0x1cc8bac>
    9788:	253a7325 	ldrcs	r7, [sl, #-805]!	; 0xfffffcdb
    978c:	00000a64 	andeq	r0, r0, r4, ror #20
    9790:	6f725709 	svcvs	0x00725709
    9794:	62206574 	eorvs	r6, r0, #116, 10	; 0x1d000000
    9798:	6b636f6c 	blvs	18e5550 <__bss_end__+0x18db4f0>
    979c:	74666120 	strbtvc	r6, [r6], #-288	; 0xfffffee0
    97a0:	66207265 	strtvs	r7, [r0], -r5, ror #4
    97a4:	21656572 	smccs	22098	; 0x5652
    97a8:	0000000a 	andeq	r0, r0, sl
    97ac:	6c616b63 			; <UNDEFINED> instruction: 0x6c616b63
    97b0:	2e636f6c 	cdpcs	15, 6, cr6, cr3, cr12, {3}
    97b4:	00000063 	andeq	r0, r0, r3, rrx
    97b8:	494e4150 	stmdbmi	lr, {r4, r6, r8, lr}^
    97bc:	73253a43 			; <UNDEFINED> instruction: 0x73253a43
    97c0:	3a73253a 	bcc	1cd2cb0 <__bss_end__+0x1cc8c50>
    97c4:	613a6425 	teqvs	sl, r5, lsr #8
    97c8:	6e67696c 	vnmulvs.f16	s13, s14, s25	; <UNPREDICTABLE>
    97cc:	68286465 	stmdavs	r8!, {r0, r2, r5, r6, sl, sp, lr}
    97d0:	5f706165 	svcpl	0x00706165
    97d4:	72617473 	rsbvc	r7, r1, #1929379840	; 0x73000000
    97d8:	38202c74 	stmdacc	r0!, {r2, r4, r5, r6, sl, fp, sp}
    97dc:	00000a29 	andeq	r0, r0, r9, lsr #20
    97e0:	657a6973 	ldrbvs	r6, [sl, #-2419]!	; 0xfffff68d
    97e4:	6820666f 	stmdavs	r0!, {r0, r1, r2, r3, r5, r6, r9, sl, sp, lr}
    97e8:	253d7264 	ldrcs	r7, [sp, #-612]!	; 0xfffffd9c
    97ec:	72202c64 	eorvc	r2, r0, #100, 24	; 0x6400
    97f0:	6f7a6465 	svcvs	0x007a6465
    97f4:	253d656e 	ldrcs	r6, [sp, #-1390]!	; 0xfffffa92
    97f8:	00000a64 	andeq	r0, r0, r4, ror #20
    97fc:	4f525245 	svcmi	0x00525245
    9800:	73253a52 			; <UNDEFINED> instruction: 0x73253a52
    9804:	3a73253a 	bcc	1cd2cf4 <__bss_end__+0x1cc8c94>
    9808:	203a6425 	eorscs	r6, sl, r5, lsr #8
    980c:	534c4146 	movtpl	r4, #49478	; 0xc146
    9810:	683c2845 	ldmdavs	ip!, {r0, r2, r6, fp, sp}
    9814:	3e706165 	rpwccsz	f6, f0, f5
    9818:	6e203a29 	vmulvs.f32	s6, s0, s19
    981c:	6920746f 	stmdbvs	r0!, {r0, r1, r2, r3, r5, r6, sl, ip, sp, lr}
    9820:	6974696e 	ldmdbvs	r4!, {r1, r2, r3, r5, r6, r8, fp, sp, lr}^
    9824:	7a696c61 	bvc	1a649b0 <__bss_end__+0x1a5a950>
    9828:	0a3f6465 	beq	fe29c4 <__bss_end__+0xfd8964>
    982c:	00000000 	andeq	r0, r0, r0
    9830:	65657266 	strbvs	r7, [r5, #-614]!	; 0xfffffd9a
    9834:	20676e69 	rsbcs	r6, r7, r9, ror #28
    9838:	000a7025 	andeq	r7, sl, r5, lsr #32
    983c:	6f6c6c61 	svcvs	0x006c6c61
    9840:	69746163 	ldmdbvs	r4!, {r0, r1, r5, r6, r8, sp, lr}^
    9844:	2520676e 	strcs	r6, [r0, #-1902]!	; 0xfffff892
    9848:	79622064 	stmdbvc	r2!, {r2, r5, r6, sp}^
    984c:	0a736574 	beq	1ce2e24 <__bss_end__+0x1cd8dc4>
    9850:	00000000 	andeq	r0, r0, r0
    9854:	43415254 	movtmi	r5, #4692	; 0x1254
    9858:	52453a45 	subpl	r3, r5, #282624	; 0x45000
    985c:	00524f52 	subseq	r4, r2, r2, asr pc
    9860:	657a6973 	ldrbvs	r6, [sl, #-2419]!	; 0xfffff68d
    9864:	65766f20 	ldrbvs	r6, [r6, #-3872]!	; 0xfffff0e0
    9868:	6f6c6672 	svcvs	0x006c6672
    986c:	3a646577 	bcc	1922e50 <__bss_end__+0x1918df0>
    9870:	20642520 	rsbcs	r2, r4, r0, lsr #10
    9874:	65747962 	ldrbvs	r7, [r4, #-2402]!	; 0xfffff69e
    9878:	73692073 	cmnvc	r9, #115	; 0x73
    987c:	6f6f7420 	svcvs	0x006f7420
    9880:	72616c20 	rsbvc	r6, r1, #32, 24	; 0x2000
    9884:	000a6567 	andeq	r6, sl, r7, ror #10
    9888:	494e4150 	stmdbmi	lr, {r4, r6, r8, lr}^
    988c:	73253a43 			; <UNDEFINED> instruction: 0x73253a43
    9890:	3a73253a 	bcc	1cd2d80 <__bss_end__+0x1cc8d20>
    9894:	733a6425 	teqvc	sl, #620756992	; 0x25000000
    9898:	20657a69 	rsbcs	r7, r5, r9, ror #20
    989c:	7265766f 	rsbvc	r7, r5, #116391936	; 0x6f00000
    98a0:	776f6c66 	strbvc	r6, [pc, -r6, ror #24]!
    98a4:	203a6465 	eorscs	r6, sl, r5, ror #8
    98a8:	62206425 	eorvs	r6, r0, #620756992	; 0x25000000
    98ac:	73657479 	cmnvc	r5, #2030043136	; 0x79000000
    98b0:	20736920 	rsbscs	r6, r3, r0, lsr #18
    98b4:	206f6f74 	rsbcs	r6, pc, r4, ror pc	; <UNPREDICTABLE>
    98b8:	6772616c 	ldrbvs	r6, [r2, -ip, ror #2]!
    98bc:	000a0a65 	andeq	r0, sl, r5, ror #20
    98c0:	2074756f 	rsbscs	r7, r4, pc, ror #10
    98c4:	6d20666f 	stcvs	6, cr6, [r0, #-444]!	; 0xfffffe44
    98c8:	726f6d65 	rsbvc	r6, pc, #6464	; 0x1940
    98cc:	20202179 	eorcs	r2, r0, r9, ror r1
    98d0:	65766168 	ldrbvs	r6, [r6, #-360]!	; 0xfffffe98
    98d4:	6c6e6f20 	stclvs	15, cr6, [lr], #-128	; 0xffffff80
    98d8:	64252079 	strtvs	r2, [r5], #-121	; 0xffffff87
    98dc:	66656c20 	strbtvs	r6, [r5], -r0, lsr #24
    98e0:	6e202c74 	mcrvs	12, 1, r2, cr0, cr4, {3}
    98e4:	20646565 	rsbcs	r6, r4, r5, ror #10
    98e8:	000a6425 	andeq	r6, sl, r5, lsr #8
    98ec:	494e4150 	stmdbmi	lr, {r4, r6, r8, lr}^
    98f0:	73253a43 			; <UNDEFINED> instruction: 0x73253a43
    98f4:	3a73253a 	bcc	1cd2de4 <__bss_end__+0x1cc8d84>
    98f8:	6f3a6425 	svcvs	0x003a6425
    98fc:	6f207475 	svcvs	0x00207475
    9900:	656d2066 	strbvs	r2, [sp, #-102]!	; 0xffffff9a
    9904:	79726f6d 	ldmdbvc	r2!, {r0, r2, r3, r5, r6, r8, r9, sl, fp, sp, lr}^
    9908:	68202021 	stmdavs	r0!, {r0, r5, sp}
    990c:	20657661 	rsbcs	r7, r5, r1, ror #12
    9910:	796c6e6f 	stmdbvc	ip!, {r0, r1, r2, r3, r5, r6, r9, sl, fp, sp, lr}^
    9914:	20642520 	rsbcs	r2, r4, r0, lsr #10
    9918:	7466656c 	strbtvc	r6, [r6], #-1388	; 0xfffffa94
    991c:	656e202c 	strbvs	r2, [lr, #-44]!	; 0xffffffd4
    9920:	25206465 	strcs	r6, [r0, #-1125]!	; 0xfffffb9b
    9924:	000a0a64 	andeq	r0, sl, r4, ror #20
    9928:	494e4150 	stmdbmi	lr, {r4, r6, r8, lr}^
    992c:	73253a43 			; <UNDEFINED> instruction: 0x73253a43
    9930:	3a73253a 	bcc	1cd2e20 <__bss_end__+0x1cc8dc0>
    9934:	633a6425 	teqvs	sl, #620756992	; 0x25000000
    9938:	6b636568 	blvs	18e2ee0 <__bss_end__+0x18d8e80>
    993c:	6f6c625f 	svcvs	0x006c625f
    9940:	68286b63 	stmdavs	r8!, {r0, r1, r5, r6, r8, r9, fp, sp, lr}
    9944:	00000a29 	andeq	r0, r0, r9, lsr #20
    9948:	6c616b63 			; <UNDEFINED> instruction: 0x6c616b63
    994c:	3a636f6c 	bcc	18e5704 <__bss_end__+0x18db6a4>
    9950:	6f6c6c61 	svcvs	0x006c6c61
    9954:	65746163 	ldrbvs	r6, [r4, #-355]!	; 0xfffffe9d
    9958:	64252064 	strtvs	r2, [r5], #-100	; 0xffffff9c
    995c:	74796220 	ldrbtvc	r6, [r9], #-544	; 0xfffffde0
    9960:	202c7365 	eorcs	r7, ip, r5, ror #6
    9964:	746f7428 	strbtvc	r7, [pc], #-1064	; 996c <__FUNCTION__.4337+0x258>
    9968:	253d6c61 	ldrcs	r6, [sp, #-3169]!	; 0xfffff39f
    996c:	202c2964 	eorcs	r2, ip, r4, ror #18
    9970:	3d727470 	cfldrdcc	mvd7, [r2, #-448]!	; 0xfffffe40
    9974:	000a7025 	andeq	r7, sl, r5, lsr #32
    9978:	6e696f67 	cdpvs	15, 6, cr6, cr9, cr7, {3}
    997c:	6f742067 	svcvs	0x00742067
    9980:	65686320 	strbvs	r6, [r8, #-800]!	; 0xfffffce0
    9984:	68206b63 	stmdavs	r0!, {r0, r1, r5, r6, r8, r9, fp, sp, lr}
    9988:	3a706165 	bcc	1c21f24 <__bss_end__+0x1c17ec4>
    998c:	20642520 	rsbcs	r2, r4, r0, lsr #10
    9990:	65747962 	ldrbvs	r7, [r4, #-2402]!	; 0xfffff69e
    9994:	6c612073 	stclvs	0, cr2, [r1], #-460	; 0xfffffe34
    9998:	61636f6c 	cmnvs	r3, ip, ror #30
    999c:	2c646574 	cfstr64cs	mvdx6, [r4], #-464	; 0xfffffe30
    99a0:	20642520 	rsbcs	r2, r4, r0, lsr #10
    99a4:	65747962 	ldrbvs	r7, [r4, #-2402]!	; 0xfffff69e
    99a8:	656c2073 	strbvs	r2, [ip, #-115]!	; 0xffffff8d
    99ac:	000a7466 	andeq	r7, sl, r6, ror #8
    99b0:	63656863 	cmnvs	r5, #6488064	; 0x630000
    99b4:	2064656b 	rsbcs	r6, r4, fp, ror #10
    99b8:	62206425 	eorvs	r6, r0, #620756992	; 0x25000000
    99bc:	6b636f6c 	blvs	18e5774 <__bss_end__+0x18db714>
    99c0:	64202c73 	strtvs	r2, [r0], #-3187	; 0xfffff38d
    99c4:	63657465 	cmnvs	r5, #1694498816	; 0x65000000
    99c8:	20646574 	rsbcs	r6, r4, r4, ror r5
    99cc:	65206425 	strvs	r6, [r0, #-1061]!	; 0xfffffbdb
    99d0:	726f7272 	rsbvc	r7, pc, #536870919	; 0x20000007
    99d4:	00000a73 	andeq	r0, r0, r3, ror sl
    99d8:	43435553 	movtmi	r5, #13651	; 0x3553
    99dc:	3a535345 	bcc	14de6f8 <__bss_end__+0x14d4698>
    99e0:	65686320 	strbvs	r6, [r8, #-800]!	; 0xfffffce0
    99e4:	64656b63 	strbtvs	r6, [r5], #-2915	; 0xfffff49d
    99e8:	20642520 	rsbcs	r2, r4, r0, lsr #10
    99ec:	636f6c62 	cmnvs	pc, #25088	; 0x6200
    99f0:	202c736b 	eorcs	r7, ip, fp, ror #6
    99f4:	65746564 	ldrbvs	r6, [r4, #-1380]!	; 0xfffffa9c
    99f8:	64657463 	strbtvs	r7, [r5], #-1123	; 0xfffffb9d
    99fc:	206f6e20 	rsbcs	r6, pc, r0, lsr #28
    9a00:	6f727265 	svcvs	0x00727265
    9a04:	000a7372 	andeq	r7, sl, r2, ror r3

00009a08 <__FUNCTION__.4339>:
    9a08:	695f6b63 	ldmdbvs	pc, {r0, r1, r5, r6, r8, r9, fp, sp, lr}^	; <UNPREDICTABLE>
    9a0c:	0074696e 	rsbseq	r6, r4, lr, ror #18

00009a10 <__FUNCTION__.4397>:
    9a10:	72666b63 	rsbvc	r6, r6, #101376	; 0x18c00
    9a14:	00006565 	andeq	r6, r0, r5, ror #10

00009a18 <__FUNCTION__.4407>:
    9a18:	6c616b63 			; <UNDEFINED> instruction: 0x6c616b63
    9a1c:	00636f6c 	rsbeq	r6, r3, ip, ror #30
    9a20:	6362696c 	cmnvs	r2, #108, 18	; 0x1b0000
    9a24:	2d61762f 	stclcs	6, cr7, [r1, #-188]!	; 0xffffff44
    9a28:	6e697270 	mcrvs	2, 3, r7, cr9, cr0, {3}
    9a2c:	632e6b74 			; <UNDEFINED> instruction: 0x632e6b74
    9a30:	00000000 	andeq	r0, r0, r0
    9a34:	494e4150 	stmdbmi	lr, {r4, r6, r8, lr}^
    9a38:	73253a43 			; <UNDEFINED> instruction: 0x73253a43
    9a3c:	3a73253a 	bcc	1cd2f2c <__bss_end__+0x1cc8ecc>
    9a40:	303a6425 	eorscc	r6, sl, r5, lsr #8
    9a44:	0000000a 	andeq	r0, r0, sl
    9a48:	33323130 	teqcc	r2, #48, 2
    9a4c:	37363534 			; <UNDEFINED> instruction: 0x37363534
    9a50:	00003938 	andeq	r3, r0, r8, lsr r9
    9a54:	33323130 	teqcc	r2, #48, 2
    9a58:	37363534 			; <UNDEFINED> instruction: 0x37363534
    9a5c:	62613938 	rsbvs	r3, r1, #56, 18	; 0xe0000
    9a60:	66656463 	strbtvs	r6, [r5], -r3, ror #8
    9a64:	00000000 	andeq	r0, r0, r0
    9a68:	00003130 	andeq	r3, r0, r0, lsr r1
    9a6c:	494e4150 	stmdbmi	lr, {r4, r6, r8, lr}^
    9a70:	73253a43 			; <UNDEFINED> instruction: 0x73253a43
    9a74:	3a73253a 	bcc	1cd2f64 <__bss_end__+0x1cc8f04>
    9a78:	703a6425 	eorsvc	r6, sl, r5, lsr #8
    9a7c:	5f637475 	svcpl	0x00637475
    9a80:	000a7066 	andeq	r7, sl, r6, rrx
    9a84:	494e4150 	stmdbmi	lr, {r4, r6, r8, lr}^
    9a88:	73253a43 			; <UNDEFINED> instruction: 0x73253a43
    9a8c:	3a73253a 	bcc	1cd2f7c <__bss_end__+0x1cc8f1c>
    9a90:	773a6425 	ldrvc	r6, [sl, -r5, lsr #8]!
    9a94:	68746469 	ldmdavs	r4!, {r0, r3, r5, r6, sl, sp, lr}^
    9a98:	33203c20 			; <UNDEFINED> instruction: 0x33203c20
    9a9c:	00000a32 	andeq	r0, r0, r2, lsr sl
    9aa0:	494e4150 	stmdbmi	lr, {r4, r6, r8, lr}^
    9aa4:	73253a43 			; <UNDEFINED> instruction: 0x73253a43
    9aa8:	3a73253a 	bcc	1cd2f98 <__bss_end__+0x1cc8f38>
    9aac:	663a6425 	ldrtvs	r6, [sl], -r5, lsr #8
    9ab0:	74616f6c 	strbtvc	r6, [r1], #-3948	; 0xfffff094
    9ab4:	746f6e20 	strbtvc	r6, [pc], #-3616	; 9abc <__FUNCTION__.4407+0xa4>
    9ab8:	616e6520 	cmnvs	lr, r0, lsr #10
    9abc:	64656c62 	strbtvs	r6, [r5], #-3170	; 0xfffff39e
    9ac0:	0a212121 	beq	851f4c <__bss_end__+0x847eec>
    9ac4:	00000000 	andeq	r0, r0, r0
    9ac8:	494e4150 	stmdbmi	lr, {r4, r6, r8, lr}^
    9acc:	73253a43 			; <UNDEFINED> instruction: 0x73253a43
    9ad0:	3a73253a 	bcc	1cd2fc0 <__bss_end__+0x1cc8f60>
    9ad4:	703a6425 	eorsvc	r6, sl, r5, lsr #8
    9ad8:	746e6972 	strbtvc	r6, [lr], #-2418	; 0xfffff68e
    9adc:	6e203a6b 	vnmulvs.f32	s6, s0, s23
    9ae0:	6820746f 	stmdavs	r0!, {r0, r1, r2, r3, r5, r6, sl, ip, sp, lr}
    9ae4:	6c646e61 	stclvs	14, cr6, [r4], #-388	; 0xfffffe7c
    9ae8:	20676e69 	rsbcs	r6, r7, r9, ror #28
    9aec:	63657073 	cmnvs	r5, #115	; 0x73
    9af0:	65696669 	strbvs	r6, [r9, #-1641]!	; 0xfffff997
    9af4:	25272072 	strcs	r2, [r7, #-114]!	; 0xffffff8e
    9af8:	0a0a2763 	beq	29388c <__bss_end__+0x28982c>
    9afc:	00000000 	andeq	r0, r0, r0

00009b00 <__FUNCTION__.4349>:
    9b00:	74696d65 	strbtvc	r6, [r9], #-3429	; 0xfffff29b
    9b04:	00000000 	andeq	r0, r0, r0

00009b08 <__FUNCTION__.4297>:
    9b08:	5f697072 	svcpl	0x00697072
    9b0c:	5f746573 	svcpl	0x00746573
    9b10:	7074756f 	rsbsvc	r7, r4, pc, ror #10
    9b14:	00007475 	andeq	r7, r0, r5, ror r4

00009b18 <__FUNCTION__.4371>:
    9b18:	705f6176 	subsvc	r6, pc, r6, ror r1	; <UNPREDICTABLE>
    9b1c:	746e6972 	strbtvc	r6, [lr], #-2418	; 0xfffff68e
    9b20:	0000006b 	andeq	r0, r0, fp, rrx
    9b24:	454e4f44 	strbmi	r4, [lr, #-3908]	; 0xfffff0bc
    9b28:	0a212121 	beq	851fb4 <__bss_end__+0x847f54>
    9b2c:	00000000 	andeq	r0, r0, r0

00009b30 <__FUNCTION__.4237>:
    9b30:	6c616d6b 	stclvs	13, cr6, [r1], #-428	; 0xfffffe54
    9b34:	5f636f6c 	svcpl	0x00636f6c
    9b38:	74696e69 	strbtvc	r6, [r9], #-3689	; 0xfffff197
    9b3c:	7465735f 	strbtvc	r7, [r5], #-863	; 0xfffffca1
    9b40:	6174735f 	cmnvs	r4, pc, asr r3
    9b44:	00007472 	andeq	r7, r0, r2, ror r4

00009b48 <__FUNCTION__.4241>:
    9b48:	6c616d6b 	stclvs	13, cr6, [r1], #-428	; 0xfffffe54
    9b4c:	00636f6c 	rsbeq	r6, r3, ip, ror #30

00009b50 <__FUNCTION__.4253>:
    9b50:	6c616d6b 	stclvs	13, cr6, [r1], #-428	; 0xfffffe54
    9b54:	5f636f6c 	svcpl	0x00636f6c
    9b58:	67696c61 	strbvs	r6, [r9, -r1, ror #24]!
    9b5c:	0064656e 	rsbeq	r6, r4, lr, ror #10
    9b60:	6c616d6b 	stclvs	13, cr6, [r1], #-428	; 0xfffffe54
    9b64:	2e636f6c 	cdpcs	15, 6, cr6, cr3, cr12, {3}
    9b68:	00000063 	andeq	r0, r0, r3, rrx
    9b6c:	494e4150 	stmdbmi	lr, {r4, r6, r8, lr}^
    9b70:	73253a43 			; <UNDEFINED> instruction: 0x73253a43
    9b74:	3a73253a 	bcc	1cd3064 <__bss_end__+0x1cc9004>
    9b78:	613a6425 	teqvs	sl, r5, lsr #8
    9b7c:	20726464 	rsbscs	r6, r2, r4, ror #8
    9b80:	6568203e 	strbvs	r2, [r8, #-62]!	; 0xffffffc2
    9b84:	000a7061 	andeq	r7, sl, r1, rrx
    9b88:	494e4150 	stmdbmi	lr, {r4, r6, r8, lr}^
    9b8c:	73253a43 			; <UNDEFINED> instruction: 0x73253a43
    9b90:	3a73253a 	bcc	1cd3080 <__bss_end__+0x1cc9020>
    9b94:	733a6425 	teqvc	sl, #620756992	; 0x25000000
    9b98:	00000a7a 	andeq	r0, r0, sl, ror sl
    9b9c:	4f525245 	svcmi	0x00525245
    9ba0:	73253a52 			; <UNDEFINED> instruction: 0x73253a52
    9ba4:	3a73253a 	bcc	1cd3094 <__bss_end__+0x1cc9034>
    9ba8:	203a6425 	eorscs	r6, sl, r5, lsr #8
    9bac:	534c4146 	movtpl	r4, #49478	; 0xc146
    9bb0:	283c2845 	ldmdacs	ip!, {r0, r2, r6, fp, sp}
    9bb4:	6c612828 	stclvs	8, cr2, [r1], #-160	; 0xffffff60
    9bb8:	6d6e6769 	stclvs	7, cr6, [lr, #-420]!	; 0xfffffe5c
    9bbc:	29746e65 	ldmdbcs	r4!, {r0, r2, r5, r6, r9, sl, fp, sp, lr}^
    9bc0:	61282d26 			; <UNDEFINED> instruction: 0x61282d26
    9bc4:	6e67696c 	vnmulvs.f16	s13, s14, s25	; <UNPREDICTABLE>
    9bc8:	746e656d 	strbtvc	r6, [lr], #-1389	; 0xfffffa93
    9bcc:	3d202929 			; <UNDEFINED> instruction: 0x3d202929
    9bd0:	6128203d 			; <UNDEFINED> instruction: 0x6128203d
    9bd4:	6e67696c 	vnmulvs.f16	s13, s14, s25	; <UNPREDICTABLE>
    9bd8:	746e656d 	strbtvc	r6, [lr], #-1389	; 0xfffffa93
    9bdc:	293e2929 	ldmdbcs	lr!, {r0, r3, r5, r8, fp, sp}
    9be0:	7361203a 	cmnvc	r1, #58	; 0x3a
    9be4:	696d7573 	stmdbvs	sp!, {r0, r1, r4, r5, r6, r8, sl, ip, sp, lr}^
    9be8:	7020676e 	eorvc	r6, r0, lr, ror #14
    9bec:	7265776f 	rsbvc	r7, r5, #29097984	; 0x1bc0000
    9bf0:	20666f20 	rsbcs	r6, r6, r0, lsr #30
    9bf4:	0a6f7774 	beq	1be79cc <__bss_end__+0x1bdd96c>
    9bf8:	00000000 	andeq	r0, r0, r0
    9bfc:	4f525245 	svcmi	0x00525245
    9c00:	73253a52 			; <UNDEFINED> instruction: 0x73253a52
    9c04:	3a73253a 	bcc	1cd30f4 <__bss_end__+0x1cc9094>
    9c08:	203a6425 	eorscs	r6, sl, r5, lsr #8
    9c0c:	534c4146 	movtpl	r4, #49478	; 0xc146
    9c10:	283c2845 	ldmdacs	ip!, {r0, r2, r6, fp, sp}
    9c14:	29682828 	stmdbcs	r8!, {r3, r5, fp, sp}^
    9c18:	28202620 	stmdacs	r0!, {r5, r9, sl, sp}
    9c1c:	70797428 	rsbsvc	r7, r9, r8, lsr #8
    9c20:	28666f65 	stmdacs	r6!, {r0, r2, r5, r6, r8, r9, sl, fp, sp, lr}^
    9c24:	28292968 	stmdacs	r9!, {r3, r5, r6, r8, fp, sp}
    9c28:	67696c61 	strbvs	r6, [r9, -r1, ror #24]!
    9c2c:	6e656d6e 	cdpvs	13, 6, cr6, cr5, cr14, {3}
    9c30:	2d202974 			; <UNDEFINED> instruction: 0x2d202974
    9c34:	29293120 	stmdbcs	r9!, {r5, r8, ip, sp}
    9c38:	203d3d20 	eorscs	r3, sp, r0, lsr #26
    9c3c:	293e2930 	ldmdbcs	lr!, {r4, r5, r8, fp, sp}
    9c40:	6d69203a 	stclvs	0, cr2, [r9, #-232]!	; 0xffffff18
    9c44:	73736f70 	cmnvc	r3, #112, 30	; 0x1c0
    9c48:	656c6269 	strbvs	r6, [ip, #-617]!	; 0xfffffd97
    9c4c:	Address 0x0000000000009c4c is out of bounds.


Disassembly of section .bss:

00009c50 <__bss_start__>:
    9c50:	00000000 	andeq	r0, r0, r0

00009c54 <heap>:
    9c54:	00000000 	andeq	r0, r0, r0

00009c58 <heap_end>:
    9c58:	00000000 	andeq	r0, r0, r0

00009c5c <buf.4297>:
	...

Disassembly of section .ARM.attributes:

00000000 <.ARM.attributes>:
   0:	00002c41 	andeq	r2, r0, r1, asr #24
   4:	61656100 	cmnvs	r5, r0, lsl #2
   8:	01006962 	tsteq	r0, r2, ror #18
   c:	00000022 	andeq	r0, r0, r2, lsr #32
  10:	4b5a3605 	blmi	168d82c <__bss_end__+0x16837cc>
  14:	08070600 	stmdaeq	r7, {r9, sl}
  18:	0a010901 	beq	42424 <__bss_end__+0x383c4>
  1c:	14041202 	strne	r1, [r4], #-514	; 0xfffffdfe
  20:	17011501 	strne	r1, [r1, -r1, lsl #10]
  24:	1a011803 	bne	46038 <__bss_end__+0x3bfd8>
  28:	44012201 	strmi	r2, [r1], #-513	; 0xfffffdff
  2c:	Address 0x000000000000002c is out of bounds.


Disassembly of section .comment:

00000000 <.comment>:
   0:	3a434347 	bcc	10d0d24 <__bss_end__+0x10c6cc4>
   4:	72412820 	subvc	r2, r1, #32, 16	; 0x200000
   8:	52206863 	eorpl	r6, r0, #6488064	; 0x630000
   c:	736f7065 	cmnvc	pc, #101	; 0x65
  10:	726f7469 	rsbvc	r7, pc, #1761607680	; 0x69000000
  14:	39202979 	stmdbcc	r0!, {r0, r3, r4, r5, r6, r8, fp, sp}
  18:	302e322e 	eorcc	r3, lr, lr, lsr #4
  1c:	43434700 	movtmi	r4, #14080	; 0x3700
  20:	3128203a 			; <UNDEFINED> instruction: 0x3128203a
  24:	2e363a35 			; <UNDEFINED> instruction: 0x2e363a35
  28:	2b312e33 	blcs	c4b8fc <__bss_end__+0xc4189c>
  2c:	326e7673 	rsbcc	r7, lr, #120586240	; 0x7300000
  30:	33303335 	teqcc	r0, #-738197504	; 0xd4000000
  34:	62312d39 	eorsvs	r2, r1, #3648	; 0xe40
  38:	646c6975 	strbtvs	r6, [ip], #-2421	; 0xfffff68b
  3c:	36202931 			; <UNDEFINED> instruction: 0x36202931
  40:	312e332e 			; <UNDEFINED> instruction: 0x312e332e
  44:	31303220 	teqcc	r0, r0, lsr #4
  48:	32363037 	eorscc	r3, r6, #55	; 0x37
  4c:	Address 0x000000000000004c is out of bounds.


Disassembly of section .debug_info:

00000000 <.debug_info>:
       0:	00000b94 	muleq	r0, r4, fp
       4:	00000004 	andeq	r0, r0, r4
       8:	01040000 	mrseq	r0, (UNDEF: 4)
       c:	000002ef 	andeq	r0, r0, pc, ror #5
      10:	0003810c 	andeq	r8, r3, ip, lsl #2
      14:	0000cb00 	andeq	ip, r0, r0, lsl #22
      18:	00801000 	addeq	r1, r0, r0
      1c:	0000e800 	andeq	lr, r0, r0, lsl #16
      20:	00000000 	andeq	r0, r0, r0
      24:	05040200 	streq	r0, [r4, #-512]	; 0xfffffe00
      28:	00746e69 	rsbseq	r6, r4, r9, ror #28
      2c:	66070403 	strvs	r0, [r7], -r3, lsl #8
      30:	03000000 	movweq	r0, #0
      34:	02de0601 	sbcseq	r0, lr, #1048576	; 0x100000
      38:	02030000 	andeq	r0, r3, #0
      3c:	00037705 	andeq	r7, r3, r5, lsl #14
      40:	05040300 	streq	r0, [r4, #-768]	; 0xfffffd00
      44:	000000ac 	andeq	r0, r0, ip, lsr #1
      48:	a7050803 	strge	r0, [r5, -r3, lsl #16]
      4c:	03000000 	movweq	r0, #0
      50:	02dc0801 	sbcseq	r0, ip, #65536	; 0x10000
      54:	02030000 	andeq	r0, r3, #0
      58:	00022207 	andeq	r2, r2, r7, lsl #4
      5c:	07040300 	streq	r0, [r4, -r0, lsl #6]
      60:	00000061 	andeq	r0, r0, r1, rrx
      64:	5c070803 	stcpl	8, cr0, [r7], {3}
      68:	04000000 	streq	r0, [r0], #-0
      6c:	00000265 	andeq	r0, r0, r5, ror #4
      70:	77192202 	ldrvc	r2, [r9, -r2, lsl #4]
      74:	05000000 	streq	r0, [r0, #-0]
      78:	00007d04 	andeq	r7, r0, r4, lsl #26
      7c:	04210600 	strteq	r0, [r1], #-1536	; 0xfffffa00
      80:	bd040000 	stclt	0, cr0, [r4, #-0]
      84:	03000002 	movweq	r0, #2
      88:	00410e2c 	subeq	r0, r1, ip, lsr #28
      8c:	36040000 	strcc	r0, [r4], -r0
      90:	03000004 	movweq	r0, #4
      94:	00410e72 	subeq	r0, r1, r2, ror lr
      98:	6d070000 	stcvs	0, cr0, [r7, #-0]
      9c:	04000002 	streq	r0, [r0], #-2
      a0:	2c17015e 	ldfcss	f0, [r7], {94}	; 0x5e
      a4:	08000000 	stmdaeq	r0, {}	; <UNPREDICTABLE>
      a8:	03a60304 			; <UNDEFINED> instruction: 0x03a60304
      ac:	000000c9 	andeq	r0, r0, r9, asr #1
      b0:	00025f09 	andeq	r5, r2, r9, lsl #30
      b4:	0ca80300 	stceq	3, cr0, [r8]
      b8:	0000009a 	muleq	r0, sl, r0
      bc:	0001e209 	andeq	lr, r1, r9, lsl #4
      c0:	13a90300 			; <UNDEFINED> instruction: 0x13a90300
      c4:	000000c9 	andeq	r0, r0, r9, asr #1
      c8:	004f0a00 	subeq	r0, pc, r0, lsl #20
      cc:	00d90000 	sbcseq	r0, r9, r0
      d0:	2c0b0000 	stccs	0, cr0, [fp], {-0}
      d4:	03000000 	movweq	r0, #0
      d8:	03080c00 	movweq	r0, #35840	; 0x8c00
      dc:	00fd09a3 	rscseq	r0, sp, r3, lsr #19
      e0:	190d0000 	stmdbne	sp, {}	; <UNPREDICTABLE>
      e4:	03000004 	movweq	r0, #4
      e8:	002507a5 	eoreq	r0, r5, r5, lsr #15
      ec:	0d000000 	stceq	0, cr0, [r0, #-0]
      f0:	00000428 	andeq	r0, r0, r8, lsr #8
      f4:	a705aa03 	strge	sl, [r5, -r3, lsl #20]
      f8:	04000000 	streq	r0, [r0], #-0
      fc:	03a30400 			; <UNDEFINED> instruction: 0x03a30400
     100:	ab030000 	blge	c0108 <__bss_end__+0xb60a8>
     104:	0000d903 	andeq	sp, r0, r3, lsl #18
     108:	019f0400 	orrseq	r0, pc, r0, lsl #8
     10c:	af030000 	svcge	0x00030000
     110:	00006b1b 	andeq	r6, r0, fp, lsl fp
     114:	05040e00 	streq	r0, [r4, #-3584]	; 0xfffff200
     118:	00011d04 	andeq	r1, r1, r4, lsl #26
     11c:	08010300 	stmdaeq	r1, {r8, r9}
     120:	000002e5 	andeq	r0, r0, r5, ror #5
     124:	00011d0f 	andeq	r1, r1, pc, lsl #26
     128:	04680400 	strbteq	r0, [r8], #-1024	; 0xfffffc00
     12c:	16050000 	strne	r0, [r5], -r0
     130:	00005d19 	andeq	r5, r0, r9, lsl sp
     134:	01b01000 	movseq	r1, r0
     138:	05180000 	ldreq	r0, [r8, #-0]
     13c:	018f082f 	orreq	r0, pc, pc, lsr #16
     140:	c40d0000 	strgt	r0, [sp], #-0
     144:	05000003 	streq	r0, [r0, #-3]
     148:	018f1331 	orreq	r1, pc, r1, lsr r3	; <UNPREDICTABLE>
     14c:	11000000 	mrsne	r0, (UNDEF: 0)
     150:	05006b5f 	streq	r6, [r0, #-2911]	; 0xfffff4a1
     154:	00250732 	eoreq	r0, r5, r2, lsr r7
     158:	0d040000 	stceq	0, cr0, [r4, #-0]
     15c:	00000404 	andeq	r0, r0, r4, lsl #8
     160:	250b3205 	strcs	r3, [fp, #-517]	; 0xfffffdfb
     164:	08000000 	stmdaeq	r0, {}	; <UNPREDICTABLE>
     168:	0001990d 	andeq	r9, r1, sp, lsl #18
     16c:	14320500 	ldrtne	r0, [r2], #-1280	; 0xfffffb00
     170:	00000025 	andeq	r0, r0, r5, lsr #32
     174:	04a80d0c 	strteq	r0, [r8], #3340	; 0xd0c
     178:	32050000 	andcc	r0, r5, #0
     17c:	0000251b 	andeq	r2, r0, fp, lsl r5
     180:	5f111000 	svcpl	0x00111000
     184:	33050078 	movwcc	r0, #20600	; 0x5078
     188:	0001950b 	andeq	r9, r1, fp, lsl #10
     18c:	05001400 	streq	r1, [r0, #-1024]	; 0xfffffc00
     190:	00013504 	andeq	r3, r1, r4, lsl #10
     194:	01290a00 			; <UNDEFINED> instruction: 0x01290a00
     198:	01a50000 			; <UNDEFINED> instruction: 0x01a50000
     19c:	2c0b0000 	stccs	0, cr0, [fp], {-0}
     1a0:	00000000 	andeq	r0, r0, r0
     1a4:	01dd1000 	bicseq	r1, sp, r0
     1a8:	05240000 	streq	r0, [r4, #-0]!
     1ac:	02280837 	eoreq	r0, r8, #3604480	; 0x370000
     1b0:	9e0d0000 	cdpls	0, 0, cr0, cr13, cr0, {0}
     1b4:	05000000 	streq	r0, [r0, #-0]
     1b8:	00250939 	eoreq	r0, r5, r9, lsr r9
     1bc:	0d000000 	stceq	0, cr0, [r0, #-0]
     1c0:	0000043e 	andeq	r0, r0, lr, lsr r4
     1c4:	25093a05 	strcs	r3, [r9, #-2565]	; 0xfffff5fb
     1c8:	04000000 	streq	r0, [r0], #-0
     1cc:	0000c10d 	andeq	ip, r0, sp, lsl #2
     1d0:	093b0500 	ldmdbeq	fp!, {r8, sl}
     1d4:	00000025 	andeq	r0, r0, r5, lsr #32
     1d8:	05330d08 	ldreq	r0, [r3, #-3336]!	; 0xfffff2f8
     1dc:	3c050000 	stccc	0, cr0, [r5], {-0}
     1e0:	00002509 	andeq	r2, r0, r9, lsl #10
     1e4:	a10d0c00 	tstge	sp, r0, lsl #24
     1e8:	05000002 	streq	r0, [r0, #-2]
     1ec:	0025093d 	eoreq	r0, r5, sp, lsr r9
     1f0:	0d100000 	ldceq	0, cr0, [r0, #-0]
     1f4:	00000283 	andeq	r0, r0, r3, lsl #5
     1f8:	25093e05 	strcs	r3, [r9, #-3589]	; 0xfffff1fb
     1fc:	14000000 	strne	r0, [r0], #-0
     200:	0004ad0d 	andeq	sl, r4, sp, lsl #26
     204:	093f0500 	ldmdbeq	pc!, {r8, sl}	; <UNPREDICTABLE>
     208:	00000025 	andeq	r0, r0, r5, lsr #32
     20c:	05290d18 	streq	r0, [r9, #-3352]!	; 0xfffff2e8
     210:	40050000 	andmi	r0, r5, r0
     214:	00002509 	andeq	r2, r0, r9, lsl #10
     218:	f00d1c00 			; <UNDEFINED> instruction: 0xf00d1c00
     21c:	05000004 	streq	r0, [r0, #-4]
     220:	00250941 	eoreq	r0, r5, r1, asr #18
     224:	00200000 	eoreq	r0, r0, r0
     228:	00010112 	andeq	r0, r1, r2, lsl r1
     22c:	05010800 	streq	r0, [r1, #-2048]	; 0xfffff800
     230:	026d084a 	rsbeq	r0, sp, #4849664	; 0x4a0000
     234:	8c0d0000 	stchi	0, cr0, [sp], {-0}
     238:	05000001 	streq	r0, [r0, #-1]
     23c:	026d0a4b 	rsbeq	r0, sp, #307200	; 0x4b000
     240:	0d000000 	stceq	0, cr0, [r0, #-0]
     244:	00000000 	andeq	r0, r0, r0
     248:	6d094c05 	stcvs	12, cr4, [r9, #-20]	; 0xffffffec
     24c:	80000002 	andhi	r0, r0, r2
     250:	00045a13 	andeq	r5, r4, r3, lsl sl
     254:	0a4e0500 	beq	138165c <__bss_end__+0x13775fc>
     258:	00000129 	andeq	r0, r0, r9, lsr #2
     25c:	26130100 	ldrcs	r0, [r3], -r0, lsl #2
     260:	05000001 	streq	r0, [r0, #-1]
     264:	01290a51 			; <UNDEFINED> instruction: 0x01290a51
     268:	01040000 	mrseq	r0, (UNDEF: 4)
     26c:	01150a00 	tsteq	r5, r0, lsl #20
     270:	027d0000 	rsbseq	r0, sp, #0
     274:	2c0b0000 	stccs	0, cr0, [fp], {-0}
     278:	1f000000 	svcne	0x00000000
     27c:	02aa1200 	adceq	r1, sl, #0, 4
     280:	01900000 	orrseq	r0, r0, r0
     284:	c0085d05 	andgt	r5, r8, r5, lsl #26
     288:	0d000002 	stceq	0, cr0, [r0, #-8]
     28c:	000003c4 	andeq	r0, r0, r4, asr #7
     290:	c0125e05 	andsgt	r5, r2, r5, lsl #28
     294:	00000002 	andeq	r0, r0, r2
     298:	0003dc0d 	andeq	sp, r3, sp, lsl #24
     29c:	065f0500 	ldrbeq	r0, [pc], -r0, lsl #10
     2a0:	00000025 	andeq	r0, r0, r5, lsr #32
     2a4:	01940d04 	orrseq	r0, r4, r4, lsl #26
     2a8:	61050000 	mrsvs	r0, (UNDEF: 5)
     2ac:	0002c609 	andeq	ip, r2, r9, lsl #12
     2b0:	010d0800 	tsteq	sp, r0, lsl #16
     2b4:	05000001 	streq	r0, [r0, #-1]
     2b8:	02281e62 	eoreq	r1, r8, #1568	; 0x620
     2bc:	00880000 	addeq	r0, r8, r0
     2c0:	027d0405 	rsbseq	r0, sp, #83886080	; 0x5000000
     2c4:	d60a0000 	strle	r0, [sl], -r0
     2c8:	d6000002 	strle	r0, [r0], -r2
     2cc:	0b000002 	bleq	2dc <_start-0x7d24>
     2d0:	0000002c 	andeq	r0, r0, ip, lsr #32
     2d4:	0405001f 	streq	r0, [r5], #-31	; 0xffffffe1
     2d8:	000002dc 	ldrdeq	r0, [r0], -ip
     2dc:	038f1014 	orreq	r1, pc, #20
     2e0:	05080000 	streq	r0, [r8, #-0]
     2e4:	03050875 	movweq	r0, #22645	; 0x5875
     2e8:	bb0d0000 	bllt	3402f0 <__bss_end__+0x336290>
     2ec:	05000000 	streq	r0, [r0, #-0]
     2f0:	03051176 	movweq	r1, #20854	; 0x5176
     2f4:	0d000000 	stceq	0, cr0, [r0, #-0]
     2f8:	0000001b 	andeq	r0, r0, fp, lsl r0
     2fc:	25067705 	strcs	r7, [r6, #-1797]	; 0xfffff8fb
     300:	04000000 	streq	r0, [r0], #-0
     304:	4f040500 	svcmi	0x00040500
     308:	10000000 	andne	r0, r0, r0
     30c:	000003ae 	andeq	r0, r0, lr, lsr #7
     310:	08b50568 	ldmeq	r5!, {r3, r5, r6, r8, sl}
     314:	0000044e 	andeq	r0, r0, lr, asr #8
     318:	00705f11 	rsbseq	r5, r0, r1, lsl pc
     31c:	0512b605 	ldreq	fp, [r2, #-1541]	; 0xfffff9fb
     320:	00000003 	andeq	r0, r0, r3
     324:	00725f11 	rsbseq	r5, r2, r1, lsl pc
     328:	2507b705 	strcs	fp, [r7, #-1797]	; 0xfffff8fb
     32c:	04000000 	streq	r0, [r0], #-0
     330:	00775f11 	rsbseq	r5, r7, r1, lsl pc
     334:	2507b805 	strcs	fp, [r7, #-2053]	; 0xfffff7fb
     338:	08000000 	stmdaeq	r0, {}	; <UNPREDICTABLE>
     33c:	00011f0d 	andeq	r1, r1, sp, lsl #30
     340:	09b90500 	ldmibeq	r9!, {r8, sl}
     344:	0000003a 	andeq	r0, r0, sl, lsr r0
     348:	02080d0c 	andeq	r0, r8, #12, 26	; 0x300
     34c:	ba050000 	blt	140354 <__bss_end__+0x1362f4>
     350:	00003a09 	andeq	r3, r0, r9, lsl #20
     354:	5f110e00 	svcpl	0x00110e00
     358:	05006662 	streq	r6, [r0, #-1634]	; 0xfffff99e
     35c:	02dd11bb 	sbcseq	r1, sp, #-1073741778	; 0xc000002e
     360:	0d100000 	ldceq	0, cr0, [r0, #-0]
     364:	0000007b 	andeq	r0, r0, fp, ror r0
     368:	2507bc05 	strcs	fp, [r7, #-3077]	; 0xfffff3fb
     36c:	18000000 	stmdane	r0, {}	; <UNPREDICTABLE>
     370:	00010f0d 	andeq	r0, r1, sp, lsl #30
     374:	0ac30500 	beq	ff0c177c <__bss_end__+0xff0b771c>
     378:	00000115 	andeq	r0, r0, r5, lsl r1
     37c:	0b590d1c 	bleq	16437f4 <__bss_end__+0x1639794>
     380:	c5050000 	strgt	r0, [r5, #-0]
     384:	0005c01d 	andeq	ip, r5, sp, lsl r0
     388:	1d0d2000 	stcne	0, cr2, [sp, #-0]
     38c:	05000006 	streq	r0, [r0, #-6]
     390:	05ea1dc7 	strbeq	r1, [sl, #3527]!	; 0xdc7
     394:	0d240000 	stceq	0, cr0, [r4, #-0]
     398:	00000430 	andeq	r0, r0, r0, lsr r4
     39c:	0e0dca05 	vmlaeq.f32	s24, s26, s10
     3a0:	28000006 	stmdacs	r0, {r1, r2}
     3a4:	00050a0d 	andeq	r0, r5, sp, lsl #20
     3a8:	09cb0500 	stmibeq	fp, {r8, sl}^
     3ac:	00000628 	andeq	r0, r0, r8, lsr #12
     3b0:	755f112c 	ldrbvc	r1, [pc, #-300]	; 28c <_start-0x7d74>
     3b4:	ce050062 	cdpgt	0, 0, cr0, cr5, cr2, {3}
     3b8:	0002dd11 	andeq	sp, r2, r1, lsl sp
     3bc:	5f113000 	svcpl	0x00113000
     3c0:	05007075 	streq	r7, [r0, #-117]	; 0xffffff8b
     3c4:	030512cf 	movweq	r1, #21199	; 0x52cf
     3c8:	11380000 	teqne	r8, r0
     3cc:	0072755f 	rsbseq	r7, r2, pc, asr r5
     3d0:	2507d005 	strcs	sp, [r7, #-5]
     3d4:	3c000000 	stccc	0, cr0, [r0], {-0}
     3d8:	0000b50d 	andeq	fp, r0, sp, lsl #10
     3dc:	11d30500 	bicsne	r0, r3, r0, lsl #10
     3e0:	0000062e 	andeq	r0, r0, lr, lsr #12
     3e4:	04e20d40 	strbteq	r0, [r2], #3392	; 0xd40
     3e8:	d4050000 	strle	r0, [r5], #-0
     3ec:	00063e11 	andeq	r3, r6, r1, lsl lr
     3f0:	5f114300 	svcpl	0x00114300
     3f4:	0500626c 	streq	r6, [r0, #-620]	; 0xfffffd94
     3f8:	02dd11d7 	sbcseq	r1, sp, #-1073741771	; 0xc0000035
     3fc:	0d440000 	stcleq	0, cr0, [r4, #-0]
     400:	0000013d 	andeq	r0, r0, sp, lsr r1
     404:	2507da05 	strcs	sp, [r7, #-2565]	; 0xfffff5fb
     408:	4c000000 	stcmi	0, cr0, [r0], {-0}
     40c:	00014e0d 	andeq	r4, r1, sp, lsl #28
     410:	0adb0500 	beq	ff6c1818 <__bss_end__+0xff6b77b8>
     414:	00000082 	andeq	r0, r0, r2, lsl #1
     418:	0afa0d50 	beq	ffe83960 <__bss_end__+0xffe79900>
     41c:	de050000 	cdple	0, 0, cr0, cr5, cr0, {0}
     420:	00046c12 	andeq	r6, r4, r2, lsl ip
     424:	220d5400 	andcs	r5, sp, #0, 8
     428:	05000004 	streq	r0, [r0, #-4]
     42c:	01090ce2 	smlatteq	r9, r2, ip, r0
     430:	0d580000 	ldcleq	0, cr0, [r8, #-0]
     434:	000003b6 			; <UNDEFINED> instruction: 0x000003b6
     438:	fd0ee405 	stc2	4, cr14, [lr, #-20]	; 0xffffffec
     43c:	5c000000 	stcpl	0, cr0, [r0], {-0}
     440:	00027b0d 	andeq	r7, r2, sp, lsl #22
     444:	09e50500 	stmibeq	r5!, {r8, sl}^
     448:	00000025 	andeq	r0, r0, r5, lsr #32
     44c:	25150064 	ldrcs	r0, [r5, #-100]	; 0xffffff9c
     450:	6c000000 	stcvs	0, cr0, [r0], {-0}
     454:	16000004 	strne	r0, [r0], -r4
     458:	0000046c 	andeq	r0, r0, ip, ror #8
     45c:	00011516 	andeq	r1, r1, r6, lsl r5
     460:	01171600 	tsteq	r7, r0, lsl #12
     464:	25160000 	ldrcs	r0, [r6, #-0]
     468:	00000000 	andeq	r0, r0, r0
     46c:	04770405 	ldrbteq	r0, [r7], #-1029	; 0xfffffbfb
     470:	6c0f0000 	stcvs	0, cr0, [pc], {-0}
     474:	17000004 	strne	r0, [r0, -r4]
     478:	0000040c 	andeq	r0, r0, ip, lsl #8
     47c:	60050428 	andvs	r0, r5, r8, lsr #8
     480:	05c00802 	strbeq	r0, [r0, #2050]	; 0x802
     484:	70180000 	andsvc	r0, r8, r0
     488:	05000003 	streq	r0, [r0, #-3]
     48c:	25070262 	strcs	r0, [r7, #-610]	; 0xfffffd9e
     490:	00000000 	andeq	r0, r0, r0
     494:	00012e18 	andeq	r2, r1, r8, lsl lr
     498:	02670500 	rsbeq	r0, r7, #0, 10
     49c:	00069a0b 	andeq	r9, r6, fp, lsl #20
     4a0:	f8180400 			; <UNDEFINED> instruction: 0xf8180400
     4a4:	05000001 	streq	r0, [r0, #-1]
     4a8:	9a140267 	bls	500e4c <__bss_end__+0x4f6dec>
     4ac:	08000006 	stmdaeq	r0, {r1, r2}
     4b0:	0001a818 	andeq	sl, r1, r8, lsl r8
     4b4:	02670500 	rsbeq	r0, r7, #0, 10
     4b8:	00069a1e 	andeq	r9, r6, lr, lsl sl
     4bc:	d7180c00 	ldrle	r0, [r8, -r0, lsl #24]
     4c0:	05000003 	streq	r0, [r0, #-3]
     4c4:	25080269 	strcs	r0, [r8, #-617]	; 0xfffffd97
     4c8:	10000000 	andne	r0, r0, r0
     4cc:	00002918 	andeq	r2, r0, r8, lsl r9
     4d0:	026a0500 	rsbeq	r0, sl, #0, 10
     4d4:	00089a08 	andeq	r9, r8, r8, lsl #20
     4d8:	eb181400 	bl	6054e0 <__bss_end__+0x5fb480>
     4dc:	05000003 	streq	r0, [r0, #-3]
     4e0:	2507026d 	strcs	r0, [r7, #-621]	; 0xfffffd93
     4e4:	30000000 	andcc	r0, r0, r0
     4e8:	000a3618 	andeq	r3, sl, r8, lsl r6
     4ec:	026e0500 	rsbeq	r0, lr, #0, 10
     4f0:	0008af16 	andeq	sl, r8, r6, lsl pc
     4f4:	b2183400 	andslt	r3, r8, #0, 8
     4f8:	05000002 	streq	r0, [r0, #-2]
     4fc:	25070270 	strcs	r0, [r7, #-624]	; 0xfffffd90
     500:	38000000 	stmdacc	r0, {}	; <UNPREDICTABLE>
     504:	0003e118 	andeq	lr, r3, r8, lsl r1
     508:	02720500 	rsbseq	r0, r2, #0, 10
     50c:	0008c00a 	andeq	ip, r8, sl
     510:	57183c00 	ldrpl	r3, [r8, -r0, lsl #24]
     514:	05000002 	streq	r0, [r0, #-2]
     518:	8f130275 	svchi	0x00130275
     51c:	40000001 	andmi	r0, r0, r1
     520:	0001c718 	andeq	ip, r1, r8, lsl r7
     524:	02760500 	rsbseq	r0, r6, #0, 10
     528:	00002507 	andeq	r2, r0, r7, lsl #10
     52c:	24184400 	ldrcs	r4, [r8], #-1024	; 0xfffffc00
     530:	05000005 	streq	r0, [r0, #-5]
     534:	8f130277 	svchi	0x00130277
     538:	48000001 	stmdami	r0, {r0}
     53c:	0002c418 	andeq	ip, r2, r8, lsl r4
     540:	02780500 	rsbseq	r0, r8, #0, 10
     544:	0008c614 	andeq	ip, r8, r4, lsl r6
     548:	00184c00 	andseq	r4, r8, r0, lsl #24
     54c:	05000002 	streq	r0, [r0, #-2]
     550:	2507027b 	strcs	r0, [r7, #-635]	; 0xfffffd85
     554:	50000000 	andpl	r0, r0, r0
     558:	00014618 	andeq	r4, r1, r8, lsl r6
     55c:	027c0500 	rsbseq	r0, ip, #0, 10
     560:	00011709 	andeq	r1, r1, r9, lsl #14
     564:	ea185400 	b	61556c <__bss_end__+0x60b50c>
     568:	05000002 	streq	r0, [r0, #-2]
     56c:	7507029f 	strvc	r0, [r7, #-671]	; 0xfffffd61
     570:	58000008 	stmdapl	r0, {r3}
     574:	0002aa19 	andeq	sl, r2, r9, lsl sl
     578:	02a30500 	adceq	r0, r3, #0, 10
     57c:	0002c013 	andeq	ip, r2, r3, lsl r0
     580:	19014800 	stmdbne	r1, {fp, lr}
     584:	00000235 	andeq	r0, r0, r5, lsr r2
     588:	1202a405 	andne	sl, r2, #83886080	; 0x5000000
     58c:	0000027d 	andeq	r0, r0, sp, ror r2
     590:	d019014c 	andsle	r0, r9, ip, asr #2
     594:	05000004 	streq	r0, [r0, #-4]
     598:	d70c02a8 	strle	r0, [ip, -r8, lsr #5]
     59c:	dc000008 	stcle	0, cr0, [r0], {8}
     5a0:	01171902 	tsteq	r7, r2, lsl #18
     5a4:	ad050000 	stcge	0, cr0, [r5, #-0]
     5a8:	065b1002 	ldrbeq	r1, [fp], -r2
     5ac:	02e00000 	rsceq	r0, r0, #0
     5b0:	0000fc19 	andeq	pc, r0, r9, lsl ip	; <UNPREDICTABLE>
     5b4:	02af0500 	adceq	r0, pc, #0, 10
     5b8:	0008e30a 	andeq	lr, r8, sl, lsl #6
     5bc:	0002ec00 	andeq	lr, r2, r0, lsl #24
     5c0:	044e0405 	strbeq	r0, [lr], #-1029	; 0xfffffbfb
     5c4:	25150000 	ldrcs	r0, [r5, #-0]
     5c8:	e4000000 	str	r0, [r0], #-0
     5cc:	16000005 	strne	r0, [r0], -r5
     5d0:	0000046c 	andeq	r0, r0, ip, ror #8
     5d4:	00011516 	andeq	r1, r1, r6, lsl r5
     5d8:	05e41600 	strbeq	r1, [r4, #1536]!	; 0x600
     5dc:	25160000 	ldrcs	r0, [r6, #-0]
     5e0:	00000000 	andeq	r0, r0, r0
     5e4:	01240405 			; <UNDEFINED> instruction: 0x01240405
     5e8:	04050000 	streq	r0, [r5], #-0
     5ec:	000005c6 	andeq	r0, r0, r6, asr #11
     5f0:	00008e15 	andeq	r8, r0, r5, lsl lr
     5f4:	00060e00 	andeq	r0, r6, r0, lsl #28
     5f8:	046c1600 	strbteq	r1, [ip], #-1536	; 0xfffffa00
     5fc:	15160000 	ldrne	r0, [r6, #-0]
     600:	16000001 	strne	r0, [r0], -r1
     604:	0000008e 	andeq	r0, r0, lr, lsl #1
     608:	00002516 	andeq	r2, r0, r6, lsl r5
     60c:	04050000 	streq	r0, [r5], #-0
     610:	000005f0 	strdeq	r0, [r0], -r0	; <UNPREDICTABLE>
     614:	00002515 	andeq	r2, r0, r5, lsl r5
     618:	00062800 	andeq	r2, r6, r0, lsl #16
     61c:	046c1600 	strbteq	r1, [ip], #-1536	; 0xfffffa00
     620:	15160000 	ldrne	r0, [r6, #-0]
     624:	00000001 	andeq	r0, r0, r1
     628:	06140405 	ldreq	r0, [r4], -r5, lsl #8
     62c:	4f0a0000 	svcmi	0x000a0000
     630:	3e000000 	cdpcc	0, 0, cr0, cr0, cr0, {0}
     634:	0b000006 	bleq	654 <_start-0x79ac>
     638:	0000002c 	andeq	r0, r0, ip, lsr #32
     63c:	4f0a0002 	svcmi	0x000a0002
     640:	4e000000 	cdpmi	0, 0, cr0, cr0, cr0, {0}
     644:	0b000006 	bleq	664 <_start-0x799c>
     648:	0000002c 	andeq	r0, r0, ip, lsr #32
     64c:	9c070000 	stcls	0, cr0, [r7], {-0}
     650:	05000003 	streq	r0, [r0, #-3]
     654:	0b1a011f 	bleq	680ad8 <__bss_end__+0x676a78>
     658:	1a000003 	bne	66c <_start-0x7994>
     65c:	000004b7 			; <UNDEFINED> instruction: 0x000004b7
     660:	0123050c 			; <UNDEFINED> instruction: 0x0123050c
     664:	00069408 	andeq	r9, r6, r8, lsl #8
     668:	03c41800 	biceq	r1, r4, #0, 16
     66c:	25050000 	strcs	r0, [r5, #-0]
     670:	06941101 	ldreq	r1, [r4], r1, lsl #2
     674:	18000000 	stmdane	r0, {}	; <UNPREDICTABLE>
     678:	0000021b 	andeq	r0, r0, fp, lsl r2
     67c:	07012605 	streq	r2, [r1, -r5, lsl #12]
     680:	00000025 	andeq	r0, r0, r5, lsr #32
     684:	03961804 	orrseq	r1, r6, #4, 16	; 0x40000
     688:	27050000 	strcs	r0, [r5, -r0]
     68c:	069a0b01 	ldreq	r0, [sl], r1, lsl #22
     690:	00080000 	andeq	r0, r8, r0
     694:	065b0405 	ldrbeq	r0, [fp], -r5, lsl #8
     698:	04050000 	streq	r0, [r5], #-0
     69c:	0000064e 	andeq	r0, r0, lr, asr #12
     6a0:	0000211a 	andeq	r2, r0, sl, lsl r1
     6a4:	3f050e00 	svccc	0x00050e00
     6a8:	06d90801 	ldrbeq	r0, [r9], r1, lsl #16
     6ac:	13180000 	tstne	r8, #0
     6b0:	05000004 	streq	r0, [r0, #-4]
     6b4:	d9120140 	ldmdble	r2, {r6, r8}
     6b8:	00000006 	andeq	r0, r0, r6
     6bc:	00044718 	andeq	r4, r4, r8, lsl r7
     6c0:	01410500 	cmpeq	r1, r0, lsl #10
     6c4:	0006d912 	andeq	sp, r6, r2, lsl r9
     6c8:	63180600 	tstvs	r8, #0, 12
     6cc:	05000004 	streq	r0, [r0, #-4]
     6d0:	56120142 	ldrpl	r0, [r2], -r2, asr #2
     6d4:	0c000000 	stceq	0, cr0, [r0], {-0}
     6d8:	00560a00 	subseq	r0, r6, r0, lsl #20
     6dc:	06e90000 	strbteq	r0, [r9], r0
     6e0:	2c0b0000 	stccs	0, cr0, [fp], {-0}
     6e4:	02000000 	andeq	r0, r0, #0
     6e8:	05d01b00 	ldrbeq	r1, [r0, #2816]	; 0xb00
     6ec:	fe070280 	cdp2	2, 0, cr0, cr7, cr0, {4}
     6f0:	18000007 	stmdane	r0, {r0, r1, r2}
     6f4:	0000049b 	muleq	r0, fp, r4
     6f8:	18028205 	stmdane	r2, {r0, r2, r9, pc}
     6fc:	0000002c 	andeq	r0, r0, ip, lsr #32
     700:	044d1800 	strbeq	r1, [sp], #-2048	; 0xfffff800
     704:	83050000 	movwhi	r0, #20480	; 0x5000
     708:	01171202 	tsteq	r7, r2, lsl #4
     70c:	18040000 	stmdane	r4, {}	; <UNPREDICTABLE>
     710:	0000024a 	andeq	r0, r0, sl, asr #4
     714:	10028405 	andne	r8, r2, r5, lsl #8
     718:	000007fe 	strdeq	r0, [r0], -lr
     71c:	04fb1808 	ldrbteq	r1, [fp], #2056	; 0x808
     720:	85050000 	strhi	r0, [r5, #-0]
     724:	01a51702 			; <UNDEFINED> instruction: 0x01a51702
     728:	18240000 	stmdane	r4!, {}	; <UNPREDICTABLE>
     72c:	000001b8 			; <UNDEFINED> instruction: 0x000001b8
     730:	0f028605 	svceq	0x00028605
     734:	00000025 	andeq	r0, r0, r5, lsr #32
     738:	03bf1848 			; <UNDEFINED> instruction: 0x03bf1848
     73c:	87050000 	strhi	r0, [r5, -r0]
     740:	00642c02 	rsbeq	r2, r4, r2, lsl #24
     744:	18500000 	ldmdane	r0, {}^	; <UNPREDICTABLE>
     748:	00000511 	andeq	r0, r0, r1, lsl r5
     74c:	1a028805 	bne	a2768 <__bss_end__+0x98708>
     750:	000006a0 	andeq	r0, r0, r0, lsr #13
     754:	03ca1858 	biceq	r1, sl, #88, 16	; 0x580000
     758:	89050000 	stmdbhi	r5, {}	; <UNPREDICTABLE>
     75c:	00fd1602 	rscseq	r1, sp, r2, lsl #12
     760:	18680000 	stmdane	r8!, {}^	; <UNPREDICTABLE>
     764:	00000516 	andeq	r0, r0, r6, lsl r5
     768:	16028a05 	strne	r8, [r2], -r5, lsl #20
     76c:	000000fd 	strdeq	r0, [r0], -sp
     770:	02ce1870 	sbceq	r1, lr, #112, 16	; 0x700000
     774:	8b050000 	blhi	14077c <__bss_end__+0x13671c>
     778:	00fd1602 	rscseq	r1, sp, r2, lsl #12
     77c:	18780000 	ldmdane	r8!, {}^	; <UNPREDICTABLE>
     780:	000004c6 	andeq	r0, r0, r6, asr #9
     784:	10028c05 	andne	r8, r2, r5, lsl #24
     788:	0000080e 	andeq	r0, r0, lr, lsl #16
     78c:	023e1880 	eorseq	r1, lr, #128, 16	; 0x800000
     790:	8d050000 	stchi	0, cr0, [r5, #-0]
     794:	081e1002 	ldmdaeq	lr, {r1, ip}
     798:	18880000 	stmne	r8, {}	; <UNPREDICTABLE>
     79c:	00000470 	andeq	r0, r0, r0, ror r4
     7a0:	0f028e05 	svceq	0x00028e05
     7a4:	00000025 	andeq	r0, r0, r5, lsr #32
     7a8:	017e18a0 	cmneq	lr, r0, lsr #17
     7ac:	8f050000 	svchi	0x00050000
     7b0:	00fd1602 	rscseq	r1, sp, r2, lsl #12
     7b4:	18a40000 	stmiane	r4!, {}	; <UNPREDICTABLE>
     7b8:	0000008f 	andeq	r0, r0, pc, lsl #1
     7bc:	16029005 	strne	r9, [r2], -r5
     7c0:	000000fd 	strdeq	r0, [r0], -sp
     7c4:	016d18ac 	cmneq	sp, ip, lsr #17
     7c8:	91050000 	mrsls	r0, (UNDEF: 5)
     7cc:	00fd1602 	rscseq	r1, sp, r2, lsl #12
     7d0:	18b40000 	ldmne	r4!, {}	; <UNPREDICTABLE>
     7d4:	0000003c 	andeq	r0, r0, ip, lsr r0
     7d8:	16029205 	strne	r9, [r2], -r5, lsl #4
     7dc:	000000fd 	strdeq	r0, [r0], -sp
     7e0:	004b18bc 	strheq	r1, [fp], #-140	; 0xffffff74
     7e4:	93050000 	movwls	r0, #20480	; 0x5000
     7e8:	00fd1602 	rscseq	r1, sp, r2, lsl #12
     7ec:	18c40000 	stmiane	r4, {}^	; <UNPREDICTABLE>
     7f0:	0000036e 	andeq	r0, r0, lr, ror #6
     7f4:	08029405 	stmdaeq	r2, {r0, r2, sl, ip, pc}
     7f8:	00000025 	andeq	r0, r0, r5, lsr #32
     7fc:	1d0a00cc 	stcne	0, cr0, [sl, #-816]	; 0xfffffcd0
     800:	0e000001 	cdpeq	0, 0, cr0, cr0, cr1, {0}
     804:	0b000008 	bleq	82c <_start-0x77d4>
     808:	0000002c 	andeq	r0, r0, ip, lsr #32
     80c:	1d0a0019 	stcne	0, cr0, [sl, #-100]	; 0xffffff9c
     810:	1e000001 	cdpne	0, 0, cr0, cr0, cr1, {0}
     814:	0b000008 	bleq	83c <_start-0x77c4>
     818:	0000002c 	andeq	r0, r0, ip, lsr #32
     81c:	1d0a0007 	stcne	0, cr0, [sl, #-28]	; 0xffffffe4
     820:	2e000001 	cdpcs	0, 0, cr0, cr0, cr1, {0}
     824:	0b000008 	bleq	84c <_start-0x77b4>
     828:	0000002c 	andeq	r0, r0, ip, lsr #32
     82c:	f01b0017 			; <UNDEFINED> instruction: 0xf01b0017
     830:	07029905 	streq	r9, [r2, -r5, lsl #18]
     834:	00000855 	andeq	r0, r0, r5, asr r8
     838:	00029a18 	andeq	r9, r2, r8, lsl sl
     83c:	029c0500 	addseq	r0, ip, #0, 10
     840:	0008551b 	andeq	r5, r8, fp, lsl r5
     844:	bd180000 	ldclt	0, cr0, [r8, #-0]
     848:	05000004 	streq	r0, [r0, #-4]
     84c:	6518029d 	ldrvs	r0, [r8, #-669]	; 0xfffffd63
     850:	78000008 	stmdavc	r0, {r3}
     854:	03050a00 	movweq	r0, #23040	; 0x5a00
     858:	08650000 	stmdaeq	r5!, {}^	; <UNPREDICTABLE>
     85c:	2c0b0000 	stccs	0, cr0, [fp], {-0}
     860:	1d000000 	stcne	0, cr0, [r0, #-0]
     864:	002c0a00 	eoreq	r0, ip, r0, lsl #20
     868:	08750000 	ldmdaeq	r5!, {}^	; <UNPREDICTABLE>
     86c:	2c0b0000 	stccs	0, cr0, [fp], {-0}
     870:	1d000000 	stcne	0, cr0, [r0, #-0]
     874:	05f01c00 	ldrbeq	r1, [r0, #3072]!	; 0xc00
     878:	9a03027e 	bls	c1278 <__bss_end__+0xb7218>
     87c:	1d000008 	stcne	0, cr0, [r0, #-32]	; 0xffffffe0
     880:	0000040c 	andeq	r0, r0, ip, lsl #8
     884:	0b029505 	bleq	a5ca0 <__bss_end__+0x9bc40>
     888:	000006e9 	andeq	r0, r0, r9, ror #13
     88c:	0004e81d 	andeq	lr, r4, sp, lsl r8
     890:	029e0500 	addseq	r0, lr, #0, 10
     894:	00082e0b 	andeq	r2, r8, fp, lsl #28
     898:	1d0a0000 	stcne	0, cr0, [sl, #-0]
     89c:	aa000001 	bge	8a8 <_start-0x7758>
     8a0:	0b000008 	bleq	8c8 <_start-0x7738>
     8a4:	0000002c 	andeq	r0, r0, ip, lsr #32
     8a8:	84060018 	strhi	r0, [r6], #-24	; 0xffffffe8
     8ac:	05000000 	streq	r0, [r0, #-0]
     8b0:	0008aa04 	andeq	sl, r8, r4, lsl #20
     8b4:	08c01e00 	stmiaeq	r0, {r9, sl, fp, ip}^
     8b8:	6c160000 	ldcvs	0, cr0, [r6], {-0}
     8bc:	00000004 	andeq	r0, r0, r4
     8c0:	08b50405 	ldmeq	r5!, {r0, r2, sl}
     8c4:	04050000 	streq	r0, [r5], #-0
     8c8:	0000018f 	andeq	r0, r0, pc, lsl #3
     8cc:	0008d71e 	andeq	sp, r8, lr, lsl r7
     8d0:	00251600 	eoreq	r1, r5, r0, lsl #12
     8d4:	05000000 	streq	r0, [r0, #-0]
     8d8:	0008dd04 	andeq	sp, r8, r4, lsl #26
     8dc:	cc040500 	cfstr32gt	mvfx0, [r4], {-0}
     8e0:	0a000008 	beq	908 <_start-0x76f8>
     8e4:	0000064e 	andeq	r0, r0, lr, asr #12
     8e8:	000008f3 	strdeq	r0, [r0], -r3
     8ec:	00002c0b 	andeq	r2, r0, fp, lsl #24
     8f0:	1f000200 	svcne	0x00000200
     8f4:	00000484 	andeq	r0, r0, r4, lsl #9
     8f8:	17032e05 	strne	r2, [r3, -r5, lsl #28]
     8fc:	0000046c 	andeq	r0, r0, ip, ror #8
     900:	00047d1f 	andeq	r7, r4, pc, lsl sp
     904:	032f0500 			; <UNDEFINED> instruction: 0x032f0500
     908:	0004721d 	andeq	r7, r4, sp, lsl r2
     90c:	00251500 	eoreq	r1, r5, r0, lsl #10
     910:	091c0000 	ldmdbeq	ip, {}	; <UNPREDICTABLE>
     914:	25160000 	ldrcs	r0, [r6, #-0]
     918:	00000000 	andeq	r0, r0, r0
     91c:	0001d120 	andeq	sp, r1, r0, lsr #2
     920:	0e1d0600 	cfmsub32eq	mvax0, mvfx0, mvfx13, mvfx0
     924:	00000928 	andeq	r0, r0, r8, lsr #18
     928:	090d0405 	stmdbeq	sp, {r0, r2, sl}
     92c:	25150000 	ldrcs	r0, [r5, #-0]
     930:	3d000000 	stccc	0, cr0, [r0, #-0]
     934:	16000009 	strne	r0, [r0], -r9
     938:	000005e4 	andeq	r0, r0, r4, ror #11
     93c:	07732000 	ldrbeq	r2, [r3, -r0]!
     940:	22060000 	andcs	r0, r6, #0
     944:	0009490e 	andeq	r4, r9, lr, lsl #18
     948:	2e040500 	cfsh32cs	mvfx0, mvfx4, #0
     94c:	21000009 	tstcs	r0, r9
     950:	00000034 	andeq	r0, r0, r4, lsr r0
     954:	10060501 	andne	r0, r6, r1, lsl #10
     958:	e8000080 	stmda	r0, {r7}
     95c:	01000000 	mrseq	r0, (UNDEF: 0)
     960:	000b0a9c 	muleq	fp, ip, sl
     964:	006e2200 	rsbeq	r2, lr, r0, lsl #4
     968:	2c0e0a01 			; <UNDEFINED> instruction: 0x2c0e0a01
     96c:	00000000 	andeq	r0, r0, r0
     970:	23001000 	movwcs	r1, #0
     974:	01003070 	tsteq	r0, r0, ror r0
     978:	01150b0e 	tsteq	r5, lr, lsl #22
     97c:	00040000 	andeq	r0, r4, r0
     980:	00000000 	andeq	r0, r0, r0
     984:	0e240000 	cdpeq	0, 2, cr0, cr4, cr0, {0}
     988:	1a000002 	bne	998 <_start-0x7668>
     98c:	0500000b 	streq	r0, [r0, #-11]
     990:	00971403 	addseq	r1, r7, r3, lsl #8
     994:	31702300 	cmncc	r0, r0, lsl #6
     998:	0b0f0100 	bleq	3c0da0 <__bss_end__+0x3b6d40>
     99c:	00000115 	andeq	r0, r0, r5, lsl r1
     9a0:	00000026 	andeq	r0, r0, r6, lsr #32
     9a4:	00000022 	andeq	r0, r0, r2, lsr #32
     9a8:	00801c25 	addeq	r1, r0, r5, lsr #24
     9ac:	000b1f00 	andeq	r1, fp, r0, lsl #30
     9b0:	0009bf00 	andeq	fp, r9, r0, lsl #30
     9b4:	50012600 	andpl	r2, r1, r0, lsl #12
     9b8:	96a40305 	strtls	r0, [r4], r5, lsl #6
     9bc:	25000000 	strcs	r0, [r0, #-0]
     9c0:	00008024 	andeq	r8, r0, r4, lsr #32
     9c4:	00000b2b 	andeq	r0, r0, fp, lsr #22
     9c8:	000009d4 	ldrdeq	r0, [r0], -r4
     9cc:	03500126 	cmpeq	r0, #-2147483639	; 0x80000009
     9d0:	00244040 	eoreq	r4, r4, r0, asr #32
     9d4:	00802c25 	addeq	r2, r0, r5, lsr #24
     9d8:	000b3700 	andeq	r3, fp, r0, lsl #14
     9dc:	0009e900 	andeq	lr, r9, r0, lsl #18
     9e0:	50012600 	andpl	r2, r1, r0, lsl #12
     9e4:	24404003 	strbcs	r4, [r0], #-3
     9e8:	80342500 	eorshi	r2, r4, r0, lsl #10
     9ec:	0b430000 	bleq	10c09f4 <__bss_end__+0x10b6994>
     9f0:	09fe0000 	ldmibeq	lr!, {}^	; <UNPREDICTABLE>
     9f4:	01260000 			; <UNDEFINED> instruction: 0x01260000
     9f8:	40400351 	submi	r0, r0, r1, asr r3
     9fc:	38270024 	stmdacc	r7!, {r2, r5}
     a00:	4f000080 	svcmi	0x00000080
     a04:	2500000b 	strcs	r0, [r0, #-11]
     a08:	00008058 	andeq	r8, r0, r8, asr r0
     a0c:	00000b5b 	andeq	r0, r0, fp, asr fp
     a10:	00000a26 	andeq	r0, r0, r6, lsr #20
     a14:	02510126 	subseq	r0, r1, #-2147483639	; 0x80000009
     a18:	01260074 			; <UNDEFINED> instruction: 0x01260074
     a1c:	00750252 	rsbseq	r0, r5, r2, asr r2
     a20:	01530126 	cmpeq	r3, r6, lsr #2
     a24:	6027003e 	eorvs	r0, r7, lr, lsr r0
     a28:	4f000080 	svcmi	0x00000080
     a2c:	2500000b 	strcs	r0, [r0, #-11]
     a30:	00008078 	andeq	r8, r0, r8, ror r0
     a34:	00000b5b 	andeq	r0, r0, fp, asr fp
     a38:	00000a4e 	andeq	r0, r0, lr, asr #20
     a3c:	02510126 	subseq	r0, r1, #-2147483639	; 0x80000009
     a40:	01260074 			; <UNDEFINED> instruction: 0x01260074
     a44:	00750252 	rsbseq	r0, r5, r2, asr r2
     a48:	01530126 	cmpeq	r3, r6, lsr #2
     a4c:	9025003f 	eorls	r0, r5, pc, lsr r0
     a50:	67000080 	strvs	r0, [r0, -r0, lsl #1]
     a54:	7300000b 	movwvc	r0, #11
     a58:	2600000a 	strcs	r0, [r0], -sl
     a5c:	77025001 	strvc	r5, [r2, -r1]
     a60:	51012600 	tstpl	r1, r0, lsl #12
     a64:	26007402 	strcs	r7, [r0], -r2, lsl #8
     a68:	75025201 	strvc	r5, [r2, #-513]	; 0xfffffdff
     a6c:	53012600 	movwpl	r2, #5632	; 0x1600
     a70:	25004101 	strcs	r4, [r0, #-257]	; 0xfffffeff
     a74:	000080a4 	andeq	r8, r0, r4, lsr #1
     a78:	00000b67 	andeq	r0, r0, r7, ror #22
     a7c:	00000a98 	muleq	r0, r8, sl
     a80:	02500126 	subseq	r0, r0, #-2147483639	; 0x80000009
     a84:	01260076 			; <UNDEFINED> instruction: 0x01260076
     a88:	00740251 	rsbseq	r0, r4, r1, asr r2
     a8c:	02520126 	subseq	r0, r2, #-2147483639	; 0x80000009
     a90:	01260075 			; <UNDEFINED> instruction: 0x01260075
     a94:	00420153 	subeq	r0, r2, r3, asr r1
     a98:	0080a827 	addeq	sl, r0, r7, lsr #16
     a9c:	000b7300 	andeq	r7, fp, r0, lsl #6
     aa0:	80b82500 	adcshi	r2, r8, r0, lsl #10
     aa4:	0b1f0000 	bleq	7c0aac <__bss_end__+0x7b6a4c>
     aa8:	0ab80000 	beq	fee00ab0 <__bss_end__+0xfedf6a50>
     aac:	01260000 			; <UNDEFINED> instruction: 0x01260000
     ab0:	f0030550 			; <UNDEFINED> instruction: 0xf0030550
     ab4:	00000096 	muleq	r0, r6, r0
     ab8:	0080c025 	addeq	ip, r0, r5, lsr #32
     abc:	000b1f00 	andeq	r1, fp, r0, lsl #30
     ac0:	000acf00 	andeq	ip, sl, r0, lsl #30
     ac4:	50012600 	andpl	r2, r1, r0, lsl #12
     ac8:	96f80305 	ldrbtls	r0, [r8], r5, lsl #6
     acc:	27000000 	strcs	r0, [r0, -r0]
     ad0:	000080c8 	andeq	r8, r0, r8, asr #1
     ad4:	00000b7f 	andeq	r0, r0, pc, ror fp
     ad8:	0080dc25 	addeq	sp, r0, r5, lsr #24
     adc:	000b1f00 	andeq	r1, fp, r0, lsl #30
     ae0:	000b0000 	andeq	r0, fp, r0
     ae4:	50012600 	andpl	r2, r1, r0, lsl #12
     ae8:	96cc0305 	strbls	r0, [ip], r5, lsl #6
     aec:	01260000 			; <UNDEFINED> instruction: 0x01260000
     af0:	00740251 	rsbseq	r0, r4, r1, asr r2
     af4:	02520126 	subseq	r0, r2, #-2147483639	; 0x80000009
     af8:	01260075 			; <UNDEFINED> instruction: 0x01260075
     afc:	00450153 	subeq	r0, r5, r3, asr r1
     b00:	0080e027 	addeq	lr, r0, r7, lsr #32
     b04:	000b8b00 	andeq	r8, fp, r0, lsl #22
     b08:	240a0000 	strcs	r0, [sl], #-0
     b0c:	1a000001 	bne	b18 <_start-0x74e8>
     b10:	0b00000b 	bleq	b44 <_start-0x74bc>
     b14:	0000002c 	andeq	r0, r0, ip, lsr #32
     b18:	0a0f0007 	beq	3c0b3c <__bss_end__+0x3b6adc>
     b1c:	2800000b 	stmdacs	r0, {r0, r1, r3}
     b20:	0000070a 	andeq	r0, r0, sl, lsl #14
     b24:	0000070a 	andeq	r0, r0, sl, lsl #14
     b28:	28052906 	stmdacs	r5, {r1, r2, r8, fp, sp}
     b2c:	00000156 	andeq	r0, r0, r6, asr r1
     b30:	00000156 	andeq	r0, r0, r6, asr r1
     b34:	28067206 	stmdacs	r6, {r1, r2, r9, ip, sp, lr}
     b38:	000004da 	ldrdeq	r0, [r0], -sl
     b3c:	000004da 	ldrdeq	r0, [r0], -sl
     b40:	28076c06 	stmdacs	r7, {r1, r2, sl, fp, sp, lr}
     b44:	00000135 	andeq	r0, r0, r5, lsr r1
     b48:	00000135 	andeq	r0, r0, r5, lsr r1
     b4c:	28067707 	stmdacs	r6, {r0, r1, r2, r8, r9, sl, ip, sp, lr}
     b50:	00000490 	muleq	r0, r0, r4
     b54:	00000490 	muleq	r0, r0, r4
     b58:	280f3206 	stmdacs	pc, {r1, r2, r9, ip, sp}	; <UNPREDICTABLE>
     b5c:	00000073 	andeq	r0, r0, r3, ror r0
     b60:	00000073 	andeq	r0, r0, r3, ror r0
     b64:	28087407 	stmdacs	r8, {r0, r1, r2, sl, ip, sp, lr}
     b68:	00000274 	andeq	r0, r0, r4, ror r2
     b6c:	00000274 	andeq	r0, r0, r4, ror r2
     b70:	28077507 	stmdacs	r7, {r0, r1, r2, r8, sl, ip, sp, lr}
     b74:	0000000c 	andeq	r0, r0, ip
     b78:	0000000c 	andeq	r0, r0, ip
     b7c:	28057d07 	stmdacs	r5, {r0, r1, r2, r8, sl, fp, ip, sp, lr}
     b80:	000001e9 	andeq	r0, r0, r9, ror #3
     b84:	000001e9 	andeq	r0, r0, r9, ror #3
     b88:	28061e06 	stmdacs	r6, {r1, r2, r9, sl, fp, ip}
     b8c:	0000028d 	andeq	r0, r0, sp, lsl #5
     b90:	0000028d 	andeq	r0, r0, sp, lsl #5
     b94:	00066506 	andeq	r6, r6, r6, lsl #10
     b98:	00001985 	andeq	r1, r0, r5, lsl #19
     b9c:	023a0004 	eorseq	r0, sl, #4
     ba0:	01040000 	mrseq	r0, (UNDEF: 4)
     ba4:	000002ef 	andeq	r0, r0, pc, ror #5
     ba8:	0005d70c 	andeq	sp, r5, ip, lsl #14
     bac:	0000cb00 	andeq	ip, r0, r0, lsl #22
     bb0:	0080f800 	addeq	pc, r0, r0, lsl #16
     bb4:	00086800 	andeq	r6, r8, r0, lsl #16
     bb8:	00012400 	andeq	r2, r1, r0, lsl #8
     bbc:	05040200 	streq	r0, [r4, #-512]	; 0xfffffe00
     bc0:	00746e69 	rsbseq	r6, r4, r9, ror #28
     bc4:	66070403 	strvs	r0, [r7], -r3, lsl #8
     bc8:	03000000 	movweq	r0, #0
     bcc:	02de0601 	sbcseq	r0, lr, #1048576	; 0x100000
     bd0:	02030000 	andeq	r0, r3, #0
     bd4:	00037705 	andeq	r7, r3, r5, lsl #14
     bd8:	05040300 	streq	r0, [r4, #-768]	; 0xfffffd00
     bdc:	000000ac 	andeq	r0, r0, ip, lsr #1
     be0:	a7050803 	strge	r0, [r5, -r3, lsl #16]
     be4:	04000000 	streq	r0, [r0], #-0
     be8:	00000691 	muleq	r0, r1, r6
     bec:	5b182e03 	blpl	60c400 <__bss_end__+0x6023a0>
     bf0:	03000000 	movweq	r0, #0
     bf4:	02dc0801 	sbcseq	r0, ip, #65536	; 0x10000
     bf8:	02030000 	andeq	r0, r3, #0
     bfc:	00022207 	andeq	r2, r2, r7, lsl #4
     c00:	06480400 	strbeq	r0, [r8], -r0, lsl #8
     c04:	34030000 	strcc	r0, [r3], #-0
     c08:	00007519 	andeq	r7, r0, r9, lsl r5
     c0c:	07040300 	streq	r0, [r4, -r0, lsl #6]
     c10:	00000061 	andeq	r0, r0, r1, rrx
     c14:	5c070803 	stcpl	8, cr0, [r7], {3}
     c18:	04000000 	streq	r0, [r0], #-0
     c1c:	00000265 	andeq	r0, r0, r5, ror #4
     c20:	8f192204 	svchi	0x00192204
     c24:	05000000 	streq	r0, [r0, #-0]
     c28:	00009504 	andeq	r9, r0, r4, lsl #10
     c2c:	04210600 	strteq	r0, [r1], #-1536	; 0xfffffa00
     c30:	bd040000 	stclt	0, cr0, [r4, #-0]
     c34:	05000002 	streq	r0, [r0, #-2]
     c38:	00410e2c 	subeq	r0, r1, ip, lsr #28
     c3c:	36040000 	strcc	r0, [r4], -r0
     c40:	05000004 	streq	r0, [r0, #-4]
     c44:	00410e72 	subeq	r0, r1, r2, ror lr
     c48:	6d070000 	stcvs	0, cr0, [r7, #-0]
     c4c:	06000002 	streq	r0, [r0], -r2
     c50:	2c17015e 	ldfcss	f0, [r7], {94}	; 0x5e
     c54:	08000000 	stmdaeq	r0, {}	; <UNPREDICTABLE>
     c58:	03a60504 			; <UNDEFINED> instruction: 0x03a60504
     c5c:	000000e1 	andeq	r0, r0, r1, ror #1
     c60:	00025f09 	andeq	r5, r2, r9, lsl #30
     c64:	0ca80500 	cfstr32eq	mvfx0, [r8]
     c68:	000000b2 	strheq	r0, [r0], -r2
     c6c:	0001e209 	andeq	lr, r1, r9, lsl #4
     c70:	13a90500 			; <UNDEFINED> instruction: 0x13a90500
     c74:	000000e1 	andeq	r0, r0, r1, ror #1
     c78:	005b0a00 	subseq	r0, fp, r0, lsl #20
     c7c:	00f10000 	rscseq	r0, r1, r0
     c80:	2c0b0000 	stccs	0, cr0, [fp], {-0}
     c84:	03000000 	movweq	r0, #0
     c88:	05080c00 	streq	r0, [r8, #-3072]	; 0xfffff400
     c8c:	011509a3 	tsteq	r5, r3, lsr #19
     c90:	190d0000 	stmdbne	sp, {}	; <UNPREDICTABLE>
     c94:	05000004 	streq	r0, [r0, #-4]
     c98:	002507a5 	eoreq	r0, r5, r5, lsr #15
     c9c:	0d000000 	stceq	0, cr0, [r0, #-0]
     ca0:	00000428 	andeq	r0, r0, r8, lsr #8
     ca4:	bf05aa05 	svclt	0x0005aa05
     ca8:	04000000 	streq	r0, [r0], #-0
     cac:	03a30400 			; <UNDEFINED> instruction: 0x03a30400
     cb0:	ab050000 	blge	140cb8 <__bss_end__+0x136c58>
     cb4:	0000f103 	andeq	pc, r0, r3, lsl #2
     cb8:	019f0400 	orrseq	r0, pc, r0, lsl #8
     cbc:	af050000 	svcge	0x00050000
     cc0:	0000831b 	andeq	r8, r0, fp, lsl r3
     cc4:	05040e00 	streq	r0, [r4, #-3584]	; 0xfffff200
     cc8:	00013504 	andeq	r3, r1, r4, lsl #10
     ccc:	08010300 	stmdaeq	r1, {r8, r9}
     cd0:	000002e5 	andeq	r0, r0, r5, ror #5
     cd4:	0001350f 	andeq	r3, r1, pc, lsl #10
     cd8:	04680400 	strbteq	r0, [r8], #-1024	; 0xfffffc00
     cdc:	16070000 	strne	r0, [r7], -r0
     ce0:	00007519 	andeq	r7, r0, r9, lsl r5
     ce4:	01b01000 	movseq	r1, r0
     ce8:	07180000 	ldreq	r0, [r8, -r0]
     cec:	01a7082f 			; <UNDEFINED> instruction: 0x01a7082f
     cf0:	c40d0000 	strgt	r0, [sp], #-0
     cf4:	07000003 	streq	r0, [r0, -r3]
     cf8:	01a71331 			; <UNDEFINED> instruction: 0x01a71331
     cfc:	11000000 	mrsne	r0, (UNDEF: 0)
     d00:	07006b5f 	smlsdeq	r0, pc, fp, r6	; <UNPREDICTABLE>
     d04:	00250732 	eoreq	r0, r5, r2, lsr r7
     d08:	0d040000 	stceq	0, cr0, [r4, #-0]
     d0c:	00000404 	andeq	r0, r0, r4, lsl #8
     d10:	250b3207 	strcs	r3, [fp, #-519]	; 0xfffffdf9
     d14:	08000000 	stmdaeq	r0, {}	; <UNPREDICTABLE>
     d18:	0001990d 	andeq	r9, r1, sp, lsl #18
     d1c:	14320700 	ldrtne	r0, [r2], #-1792	; 0xfffff900
     d20:	00000025 	andeq	r0, r0, r5, lsr #32
     d24:	04a80d0c 	strteq	r0, [r8], #3340	; 0xd0c
     d28:	32070000 	andcc	r0, r7, #0
     d2c:	0000251b 	andeq	r2, r0, fp, lsl r5
     d30:	5f111000 	svcpl	0x00111000
     d34:	33070078 	movwcc	r0, #28792	; 0x7078
     d38:	0001ad0b 	andeq	sl, r1, fp, lsl #26
     d3c:	05001400 	streq	r1, [r0, #-1024]	; 0xfffffc00
     d40:	00014d04 	andeq	r4, r1, r4, lsl #26
     d44:	01410a00 	cmpeq	r1, r0, lsl #20
     d48:	01bd0000 			; <UNDEFINED> instruction: 0x01bd0000
     d4c:	2c0b0000 	stccs	0, cr0, [fp], {-0}
     d50:	00000000 	andeq	r0, r0, r0
     d54:	01dd1000 	bicseq	r1, sp, r0
     d58:	07240000 	streq	r0, [r4, -r0]!
     d5c:	02400837 	subeq	r0, r0, #3604480	; 0x370000
     d60:	9e0d0000 	cdpls	0, 0, cr0, cr13, cr0, {0}
     d64:	07000000 	streq	r0, [r0, -r0]
     d68:	00250939 	eoreq	r0, r5, r9, lsr r9
     d6c:	0d000000 	stceq	0, cr0, [r0, #-0]
     d70:	0000043e 	andeq	r0, r0, lr, lsr r4
     d74:	25093a07 	strcs	r3, [r9, #-2567]	; 0xfffff5f9
     d78:	04000000 	streq	r0, [r0], #-0
     d7c:	0000c10d 	andeq	ip, r0, sp, lsl #2
     d80:	093b0700 	ldmdbeq	fp!, {r8, r9, sl}
     d84:	00000025 	andeq	r0, r0, r5, lsr #32
     d88:	05330d08 	ldreq	r0, [r3, #-3336]!	; 0xfffff2f8
     d8c:	3c070000 	stccc	0, cr0, [r7], {-0}
     d90:	00002509 	andeq	r2, r0, r9, lsl #10
     d94:	a10d0c00 	tstge	sp, r0, lsl #24
     d98:	07000002 	streq	r0, [r0, -r2]
     d9c:	0025093d 	eoreq	r0, r5, sp, lsr r9
     da0:	0d100000 	ldceq	0, cr0, [r0, #-0]
     da4:	00000283 	andeq	r0, r0, r3, lsl #5
     da8:	25093e07 	strcs	r3, [r9, #-3591]	; 0xfffff1f9
     dac:	14000000 	strne	r0, [r0], #-0
     db0:	0004ad0d 	andeq	sl, r4, sp, lsl #26
     db4:	093f0700 	ldmdbeq	pc!, {r8, r9, sl}	; <UNPREDICTABLE>
     db8:	00000025 	andeq	r0, r0, r5, lsr #32
     dbc:	05290d18 	streq	r0, [r9, #-3352]!	; 0xfffff2e8
     dc0:	40070000 	andmi	r0, r7, r0
     dc4:	00002509 	andeq	r2, r0, r9, lsl #10
     dc8:	f00d1c00 			; <UNDEFINED> instruction: 0xf00d1c00
     dcc:	07000004 	streq	r0, [r0, -r4]
     dd0:	00250941 	eoreq	r0, r5, r1, asr #18
     dd4:	00200000 	eoreq	r0, r0, r0
     dd8:	00010112 	andeq	r0, r1, r2, lsl r1
     ddc:	07010800 	streq	r0, [r1, -r0, lsl #16]
     de0:	0285084a 	addeq	r0, r5, #4849664	; 0x4a0000
     de4:	8c0d0000 	stchi	0, cr0, [sp], {-0}
     de8:	07000001 	streq	r0, [r0, -r1]
     dec:	02850a4b 	addeq	r0, r5, #307200	; 0x4b000
     df0:	0d000000 	stceq	0, cr0, [r0, #-0]
     df4:	00000000 	andeq	r0, r0, r0
     df8:	85094c07 	strhi	r4, [r9, #-3079]	; 0xfffff3f9
     dfc:	80000002 	andhi	r0, r0, r2
     e00:	00045a13 	andeq	r5, r4, r3, lsl sl
     e04:	0a4e0700 	beq	1382a0c <__bss_end__+0x13789ac>
     e08:	00000141 	andeq	r0, r0, r1, asr #2
     e0c:	26130100 	ldrcs	r0, [r3], -r0, lsl #2
     e10:	07000001 	streq	r0, [r0, -r1]
     e14:	01410a51 	cmpeq	r1, r1, asr sl
     e18:	01040000 	mrseq	r0, (UNDEF: 4)
     e1c:	012d0a00 			; <UNDEFINED> instruction: 0x012d0a00
     e20:	02950000 	addseq	r0, r5, #0
     e24:	2c0b0000 	stccs	0, cr0, [fp], {-0}
     e28:	1f000000 	svcne	0x00000000
     e2c:	02aa1200 	adceq	r1, sl, #0, 4
     e30:	01900000 	orrseq	r0, r0, r0
     e34:	d8085d07 	stmdale	r8, {r0, r1, r2, r8, sl, fp, ip, lr}
     e38:	0d000002 	stceq	0, cr0, [r0, #-8]
     e3c:	000003c4 	andeq	r0, r0, r4, asr #7
     e40:	d8125e07 	ldmdale	r2, {r0, r1, r2, r9, sl, fp, ip, lr}
     e44:	00000002 	andeq	r0, r0, r2
     e48:	0003dc0d 	andeq	sp, r3, sp, lsl #24
     e4c:	065f0700 	ldrbeq	r0, [pc], -r0, lsl #14
     e50:	00000025 	andeq	r0, r0, r5, lsr #32
     e54:	01940d04 	orrseq	r0, r4, r4, lsl #26
     e58:	61070000 	mrsvs	r0, (UNDEF: 7)
     e5c:	0002de09 	andeq	sp, r2, r9, lsl #28
     e60:	010d0800 	tsteq	sp, r0, lsl #16
     e64:	07000001 	streq	r0, [r0, -r1]
     e68:	02401e62 	subeq	r1, r0, #1568	; 0x620
     e6c:	00880000 	addeq	r0, r8, r0
     e70:	02950405 	addseq	r0, r5, #83886080	; 0x5000000
     e74:	ee0a0000 	cdp	0, 0, cr0, cr10, cr0, {0}
     e78:	ee000002 	cdp	0, 0, cr0, cr0, cr2, {0}
     e7c:	0b000002 	bleq	e8c <_start-0x7174>
     e80:	0000002c 	andeq	r0, r0, ip, lsr #32
     e84:	0405001f 	streq	r0, [r5], #-31	; 0xffffffe1
     e88:	000002f4 	strdeq	r0, [r0], -r4
     e8c:	038f1014 	orreq	r1, pc, #20
     e90:	07080000 	streq	r0, [r8, -r0]
     e94:	031d0875 	tsteq	sp, #7667712	; 0x750000
     e98:	bb0d0000 	bllt	340ea0 <__bss_end__+0x336e40>
     e9c:	07000000 	streq	r0, [r0, -r0]
     ea0:	031d1176 	tsteq	sp, #-2147483619	; 0x8000001d
     ea4:	0d000000 	stceq	0, cr0, [r0, #-0]
     ea8:	0000001b 	andeq	r0, r0, fp, lsl r0
     eac:	25067707 	strcs	r7, [r6, #-1799]	; 0xfffff8f9
     eb0:	04000000 	streq	r0, [r0], #-0
     eb4:	5b040500 	blpl	1022bc <__bss_end__+0xf825c>
     eb8:	10000000 	andne	r0, r0, r0
     ebc:	000003ae 	andeq	r0, r0, lr, lsr #7
     ec0:	08b50768 	ldmeq	r5!, {r3, r5, r6, r8, r9, sl}
     ec4:	00000466 	andeq	r0, r0, r6, ror #8
     ec8:	00705f11 	rsbseq	r5, r0, r1, lsl pc
     ecc:	1d12b607 	ldcne	6, cr11, [r2, #-28]	; 0xffffffe4
     ed0:	00000003 	andeq	r0, r0, r3
     ed4:	00725f11 	rsbseq	r5, r2, r1, lsl pc
     ed8:	2507b707 	strcs	fp, [r7, #-1799]	; 0xfffff8f9
     edc:	04000000 	streq	r0, [r0], #-0
     ee0:	00775f11 	rsbseq	r5, r7, r1, lsl pc
     ee4:	2507b807 	strcs	fp, [r7, #-2055]	; 0xfffff7f9
     ee8:	08000000 	stmdaeq	r0, {}	; <UNPREDICTABLE>
     eec:	00011f0d 	andeq	r1, r1, sp, lsl #30
     ef0:	09b90700 	ldmibeq	r9!, {r8, r9, sl}
     ef4:	0000003a 	andeq	r0, r0, sl, lsr r0
     ef8:	02080d0c 	andeq	r0, r8, #12, 26	; 0x300
     efc:	ba070000 	blt	1c0f04 <__bss_end__+0x1b6ea4>
     f00:	00003a09 	andeq	r3, r0, r9, lsl #20
     f04:	5f110e00 	svcpl	0x00110e00
     f08:	07006662 	streq	r6, [r0, -r2, ror #12]
     f0c:	02f511bb 	rscseq	r1, r5, #-1073741778	; 0xc000002e
     f10:	0d100000 	ldceq	0, cr0, [r0, #-0]
     f14:	0000007b 	andeq	r0, r0, fp, ror r0
     f18:	2507bc07 	strcs	fp, [r7, #-3079]	; 0xfffff3f9
     f1c:	18000000 	stmdane	r0, {}	; <UNPREDICTABLE>
     f20:	00010f0d 	andeq	r0, r1, sp, lsl #30
     f24:	0ac30700 	beq	ff0c2b2c <__bss_end__+0xff0b8acc>
     f28:	0000012d 	andeq	r0, r0, sp, lsr #2
     f2c:	0b590d1c 	bleq	16443a4 <__bss_end__+0x163a344>
     f30:	c5070000 	strgt	r0, [r7, #-0]
     f34:	0005d81d 	andeq	sp, r5, sp, lsl r8
     f38:	1d0d2000 	stcne	0, cr2, [sp, #-0]
     f3c:	07000006 	streq	r0, [r0, -r6]
     f40:	06021dc7 	streq	r1, [r2], -r7, asr #27
     f44:	0d240000 	stceq	0, cr0, [r4, #-0]
     f48:	00000430 	andeq	r0, r0, r0, lsr r4
     f4c:	260dca07 	strcs	ip, [sp], -r7, lsl #20
     f50:	28000006 	stmdacs	r0, {r1, r2}
     f54:	00050a0d 	andeq	r0, r5, sp, lsl #20
     f58:	09cb0700 	stmibeq	fp, {r8, r9, sl}^
     f5c:	00000640 	andeq	r0, r0, r0, asr #12
     f60:	755f112c 	ldrbvc	r1, [pc, #-300]	; e3c <_start-0x71c4>
     f64:	ce070062 	cdpgt	0, 0, cr0, cr7, cr2, {3}
     f68:	0002f511 	andeq	pc, r2, r1, lsl r5	; <UNPREDICTABLE>
     f6c:	5f113000 	svcpl	0x00113000
     f70:	07007075 	smlsdxeq	r0, r5, r0, r7
     f74:	031d12cf 	tsteq	sp, #-268435444	; 0xf000000c
     f78:	11380000 	teqne	r8, r0
     f7c:	0072755f 	rsbseq	r7, r2, pc, asr r5
     f80:	2507d007 	strcs	sp, [r7, #-7]
     f84:	3c000000 	stccc	0, cr0, [r0], {-0}
     f88:	0000b50d 	andeq	fp, r0, sp, lsl #10
     f8c:	11d30700 	bicsne	r0, r3, r0, lsl #14
     f90:	00000646 	andeq	r0, r0, r6, asr #12
     f94:	04e20d40 	strbteq	r0, [r2], #3392	; 0xd40
     f98:	d4070000 	strle	r0, [r7], #-0
     f9c:	00065611 	andeq	r5, r6, r1, lsl r6
     fa0:	5f114300 	svcpl	0x00114300
     fa4:	0700626c 	streq	r6, [r0, -ip, ror #4]
     fa8:	02f511d7 	rscseq	r1, r5, #-1073741771	; 0xc0000035
     fac:	0d440000 	stcleq	0, cr0, [r4, #-0]
     fb0:	0000013d 	andeq	r0, r0, sp, lsr r1
     fb4:	2507da07 	strcs	sp, [r7, #-2567]	; 0xfffff5f9
     fb8:	4c000000 	stcmi	0, cr0, [r0], {-0}
     fbc:	00014e0d 	andeq	r4, r1, sp, lsl #28
     fc0:	0adb0700 	beq	ff6c2bc8 <__bss_end__+0xff6b8b68>
     fc4:	0000009a 	muleq	r0, sl, r0
     fc8:	0afa0d50 	beq	ffe84510 <__bss_end__+0xffe7a4b0>
     fcc:	de070000 	cdple	0, 0, cr0, cr7, cr0, {0}
     fd0:	00048412 	andeq	r8, r4, r2, lsl r4
     fd4:	220d5400 	andcs	r5, sp, #0, 8
     fd8:	07000004 	streq	r0, [r0, -r4]
     fdc:	01210ce2 	smulwteq	r1, r2, ip
     fe0:	0d580000 	ldcleq	0, cr0, [r8, #-0]
     fe4:	000003b6 			; <UNDEFINED> instruction: 0x000003b6
     fe8:	150ee407 	strne	lr, [lr, #-1031]	; 0xfffffbf9
     fec:	5c000001 	stcpl	0, cr0, [r0], {1}
     ff0:	00027b0d 	andeq	r7, r2, sp, lsl #22
     ff4:	09e50700 	stmibeq	r5!, {r8, r9, sl}^
     ff8:	00000025 	andeq	r0, r0, r5, lsr #32
     ffc:	25150064 	ldrcs	r0, [r5, #-100]	; 0xffffff9c
    1000:	84000000 	strhi	r0, [r0], #-0
    1004:	16000004 	strne	r0, [r0], -r4
    1008:	00000484 	andeq	r0, r0, r4, lsl #9
    100c:	00012d16 	andeq	r2, r1, r6, lsl sp
    1010:	012f1600 			; <UNDEFINED> instruction: 0x012f1600
    1014:	25160000 	ldrcs	r0, [r6, #-0]
    1018:	00000000 	andeq	r0, r0, r0
    101c:	048f0405 	streq	r0, [pc], #1029	; 1024 <_start-0x6fdc>
    1020:	840f0000 	strhi	r0, [pc], #-0	; 1028 <_start-0x6fd8>
    1024:	17000004 	strne	r0, [r0, -r4]
    1028:	0000040c 	andeq	r0, r0, ip, lsl #8
    102c:	60070428 	andvs	r0, r7, r8, lsr #8
    1030:	05d80802 	ldrbeq	r0, [r8, #2050]	; 0x802
    1034:	70180000 	andsvc	r0, r8, r0
    1038:	07000003 	streq	r0, [r0, -r3]
    103c:	25070262 	strcs	r0, [r7, #-610]	; 0xfffffd9e
    1040:	00000000 	andeq	r0, r0, r0
    1044:	00012e18 	andeq	r2, r1, r8, lsl lr
    1048:	02670700 	rsbeq	r0, r7, #0, 14
    104c:	0006b20b 	andeq	fp, r6, fp, lsl #4
    1050:	f8180400 			; <UNDEFINED> instruction: 0xf8180400
    1054:	07000001 	streq	r0, [r0, -r1]
    1058:	b2140267 	andslt	r0, r4, #1879048198	; 0x70000006
    105c:	08000006 	stmdaeq	r0, {r1, r2}
    1060:	0001a818 	andeq	sl, r1, r8, lsl r8
    1064:	02670700 	rsbeq	r0, r7, #0, 14
    1068:	0006b21e 	andeq	fp, r6, lr, lsl r2
    106c:	d7180c00 	ldrle	r0, [r8, -r0, lsl #24]
    1070:	07000003 	streq	r0, [r0, -r3]
    1074:	25080269 	strcs	r0, [r8, #-617]	; 0xfffffd97
    1078:	10000000 	andne	r0, r0, r0
    107c:	00002918 	andeq	r2, r0, r8, lsl r9
    1080:	026a0700 	rsbeq	r0, sl, #0, 14
    1084:	0008b208 	andeq	fp, r8, r8, lsl #4
    1088:	eb181400 	bl	606090 <__bss_end__+0x5fc030>
    108c:	07000003 	streq	r0, [r0, -r3]
    1090:	2507026d 	strcs	r0, [r7, #-621]	; 0xfffffd93
    1094:	30000000 	andcc	r0, r0, r0
    1098:	000a3618 	andeq	r3, sl, r8, lsl r6
    109c:	026e0700 	rsbeq	r0, lr, #0, 14
    10a0:	0008c716 	andeq	ip, r8, r6, lsl r7
    10a4:	b2183400 	andslt	r3, r8, #0, 8
    10a8:	07000002 	streq	r0, [r0, -r2]
    10ac:	25070270 	strcs	r0, [r7, #-624]	; 0xfffffd90
    10b0:	38000000 	stmdacc	r0, {}	; <UNPREDICTABLE>
    10b4:	0003e118 	andeq	lr, r3, r8, lsl r1
    10b8:	02720700 	rsbseq	r0, r2, #0, 14
    10bc:	0008d80a 	andeq	sp, r8, sl, lsl #16
    10c0:	57183c00 	ldrpl	r3, [r8, -r0, lsl #24]
    10c4:	07000002 	streq	r0, [r0, -r2]
    10c8:	a7130275 			; <UNDEFINED> instruction: 0xa7130275
    10cc:	40000001 	andmi	r0, r0, r1
    10d0:	0001c718 	andeq	ip, r1, r8, lsl r7
    10d4:	02760700 	rsbseq	r0, r6, #0, 14
    10d8:	00002507 	andeq	r2, r0, r7, lsl #10
    10dc:	24184400 	ldrcs	r4, [r8], #-1024	; 0xfffffc00
    10e0:	07000005 	streq	r0, [r0, -r5]
    10e4:	a7130277 			; <UNDEFINED> instruction: 0xa7130277
    10e8:	48000001 	stmdami	r0, {r0}
    10ec:	0002c418 	andeq	ip, r2, r8, lsl r4
    10f0:	02780700 	rsbseq	r0, r8, #0, 14
    10f4:	0008de14 	andeq	sp, r8, r4, lsl lr
    10f8:	00184c00 	andseq	r4, r8, r0, lsl #24
    10fc:	07000002 	streq	r0, [r0, -r2]
    1100:	2507027b 	strcs	r0, [r7, #-635]	; 0xfffffd85
    1104:	50000000 	andpl	r0, r0, r0
    1108:	00014618 	andeq	r4, r1, r8, lsl r6
    110c:	027c0700 	rsbseq	r0, ip, #0, 14
    1110:	00012f09 	andeq	r2, r1, r9, lsl #30
    1114:	ea185400 	b	61611c <__bss_end__+0x60c0bc>
    1118:	07000002 	streq	r0, [r0, -r2]
    111c:	8d07029f 	sfmhi	f0, 4, [r7, #-636]	; 0xfffffd84
    1120:	58000008 	stmdapl	r0, {r3}
    1124:	0002aa19 	andeq	sl, r2, r9, lsl sl
    1128:	02a30700 	adceq	r0, r3, #0, 14
    112c:	0002d813 	andeq	sp, r2, r3, lsl r8
    1130:	19014800 	stmdbne	r1, {fp, lr}
    1134:	00000235 	andeq	r0, r0, r5, lsr r2
    1138:	1202a407 	andne	sl, r2, #117440512	; 0x7000000
    113c:	00000295 	muleq	r0, r5, r2
    1140:	d019014c 	andsle	r0, r9, ip, asr #2
    1144:	07000004 	streq	r0, [r0, -r4]
    1148:	ef0c02a8 	svc	0x000c02a8
    114c:	dc000008 	stcle	0, cr0, [r0], {8}
    1150:	01171902 	tsteq	r7, r2, lsl #18
    1154:	ad070000 	stcge	0, cr0, [r7, #-0]
    1158:	06731002 	ldrbteq	r1, [r3], -r2
    115c:	02e00000 	rsceq	r0, r0, #0
    1160:	0000fc19 	andeq	pc, r0, r9, lsl ip	; <UNPREDICTABLE>
    1164:	02af0700 	adceq	r0, pc, #0, 14
    1168:	0008fb0a 	andeq	pc, r8, sl, lsl #22
    116c:	0002ec00 	andeq	lr, r2, r0, lsl #24
    1170:	04660405 	strbteq	r0, [r6], #-1029	; 0xfffffbfb
    1174:	25150000 	ldrcs	r0, [r5, #-0]
    1178:	fc000000 	stc2	0, cr0, [r0], {-0}
    117c:	16000005 	strne	r0, [r0], -r5
    1180:	00000484 	andeq	r0, r0, r4, lsl #9
    1184:	00012d16 	andeq	r2, r1, r6, lsl sp
    1188:	05fc1600 	ldrbeq	r1, [ip, #1536]!	; 0x600
    118c:	25160000 	ldrcs	r0, [r6, #-0]
    1190:	00000000 	andeq	r0, r0, r0
    1194:	013c0405 	teqeq	ip, r5, lsl #8
    1198:	04050000 	streq	r0, [r5], #-0
    119c:	000005de 	ldrdeq	r0, [r0], -lr
    11a0:	0000a615 	andeq	sl, r0, r5, lsl r6
    11a4:	00062600 	andeq	r2, r6, r0, lsl #12
    11a8:	04841600 	streq	r1, [r4], #1536	; 0x600
    11ac:	2d160000 	ldccs	0, cr0, [r6, #-0]
    11b0:	16000001 	strne	r0, [r0], -r1
    11b4:	000000a6 	andeq	r0, r0, r6, lsr #1
    11b8:	00002516 	andeq	r2, r0, r6, lsl r5
    11bc:	04050000 	streq	r0, [r5], #-0
    11c0:	00000608 	andeq	r0, r0, r8, lsl #12
    11c4:	00002515 	andeq	r2, r0, r5, lsl r5
    11c8:	00064000 	andeq	r4, r6, r0
    11cc:	04841600 	streq	r1, [r4], #1536	; 0x600
    11d0:	2d160000 	ldccs	0, cr0, [r6, #-0]
    11d4:	00000001 	andeq	r0, r0, r1
    11d8:	062c0405 	strteq	r0, [ip], -r5, lsl #8
    11dc:	5b0a0000 	blpl	2811e4 <__bss_end__+0x277184>
    11e0:	56000000 	strpl	r0, [r0], -r0
    11e4:	0b000006 	bleq	1204 <_start-0x6dfc>
    11e8:	0000002c 	andeq	r0, r0, ip, lsr #32
    11ec:	5b0a0002 	blpl	2811fc <__bss_end__+0x27719c>
    11f0:	66000000 	strvs	r0, [r0], -r0
    11f4:	0b000006 	bleq	1214 <_start-0x6dec>
    11f8:	0000002c 	andeq	r0, r0, ip, lsr #32
    11fc:	9c070000 	stcls	0, cr0, [r7], {-0}
    1200:	07000003 	streq	r0, [r0, -r3]
    1204:	231a011f 	tstcs	sl, #-1073741817	; 0xc0000007
    1208:	1a000003 	bne	121c <_start-0x6de4>
    120c:	000004b7 			; <UNDEFINED> instruction: 0x000004b7
    1210:	0123070c 			; <UNDEFINED> instruction: 0x0123070c
    1214:	0006ac08 	andeq	sl, r6, r8, lsl #24
    1218:	03c41800 	biceq	r1, r4, #0, 16
    121c:	25070000 	strcs	r0, [r7, #-0]
    1220:	06ac1101 	strteq	r1, [ip], r1, lsl #2
    1224:	18000000 	stmdane	r0, {}	; <UNPREDICTABLE>
    1228:	0000021b 	andeq	r0, r0, fp, lsl r2
    122c:	07012607 	streq	r2, [r1, -r7, lsl #12]
    1230:	00000025 	andeq	r0, r0, r5, lsr #32
    1234:	03961804 	orrseq	r1, r6, #4, 16	; 0x40000
    1238:	27070000 	strcs	r0, [r7, -r0]
    123c:	06b20b01 	ldrteq	r0, [r2], r1, lsl #22
    1240:	00080000 	andeq	r0, r8, r0
    1244:	06730405 	ldrbteq	r0, [r3], -r5, lsl #8
    1248:	04050000 	streq	r0, [r5], #-0
    124c:	00000666 	andeq	r0, r0, r6, ror #12
    1250:	0000211a 	andeq	r2, r0, sl, lsl r1
    1254:	3f070e00 	svccc	0x00070e00
    1258:	06f10801 	ldrbteq	r0, [r1], r1, lsl #16
    125c:	13180000 	tstne	r8, #0
    1260:	07000004 	streq	r0, [r0, -r4]
    1264:	f1120140 			; <UNDEFINED> instruction: 0xf1120140
    1268:	00000006 	andeq	r0, r0, r6
    126c:	00044718 	andeq	r4, r4, r8, lsl r7
    1270:	01410700 	cmpeq	r1, r0, lsl #14
    1274:	0006f112 	andeq	pc, r6, r2, lsl r1	; <UNPREDICTABLE>
    1278:	63180600 	tstvs	r8, #0, 12
    127c:	07000004 	streq	r0, [r0, -r4]
    1280:	62120142 	andsvs	r0, r2, #-2147483632	; 0x80000010
    1284:	0c000000 	stceq	0, cr0, [r0], {-0}
    1288:	00620a00 	rsbeq	r0, r2, r0, lsl #20
    128c:	07010000 	streq	r0, [r1, -r0]
    1290:	2c0b0000 	stccs	0, cr0, [fp], {-0}
    1294:	02000000 	andeq	r0, r0, #0
    1298:	07d01b00 	ldrbeq	r1, [r0, r0, lsl #22]
    129c:	16070280 	strne	r0, [r7], -r0, lsl #5
    12a0:	18000008 	stmdane	r0, {r3}
    12a4:	0000049b 	muleq	r0, fp, r4
    12a8:	18028207 	stmdane	r2, {r0, r1, r2, r9, pc}
    12ac:	0000002c 	andeq	r0, r0, ip, lsr #32
    12b0:	044d1800 	strbeq	r1, [sp], #-2048	; 0xfffff800
    12b4:	83070000 	movwhi	r0, #28672	; 0x7000
    12b8:	012f1202 			; <UNDEFINED> instruction: 0x012f1202
    12bc:	18040000 	stmdane	r4, {}	; <UNPREDICTABLE>
    12c0:	0000024a 	andeq	r0, r0, sl, asr #4
    12c4:	10028407 	andne	r8, r2, r7, lsl #8
    12c8:	00000816 	andeq	r0, r0, r6, lsl r8
    12cc:	04fb1808 	ldrbteq	r1, [fp], #2056	; 0x808
    12d0:	85070000 	strhi	r0, [r7, #-0]
    12d4:	01bd1702 			; <UNDEFINED> instruction: 0x01bd1702
    12d8:	18240000 	stmdane	r4!, {}	; <UNPREDICTABLE>
    12dc:	000001b8 			; <UNDEFINED> instruction: 0x000001b8
    12e0:	0f028607 	svceq	0x00028607
    12e4:	00000025 	andeq	r0, r0, r5, lsr #32
    12e8:	03bf1848 			; <UNDEFINED> instruction: 0x03bf1848
    12ec:	87070000 	strhi	r0, [r7, -r0]
    12f0:	007c2c02 	rsbseq	r2, ip, r2, lsl #24
    12f4:	18500000 	ldmdane	r0, {}^	; <UNPREDICTABLE>
    12f8:	00000511 	andeq	r0, r0, r1, lsl r5
    12fc:	1a028807 	bne	a3320 <__bss_end__+0x992c0>
    1300:	000006b8 			; <UNDEFINED> instruction: 0x000006b8
    1304:	03ca1858 	biceq	r1, sl, #88, 16	; 0x580000
    1308:	89070000 	stmdbhi	r7, {}	; <UNPREDICTABLE>
    130c:	01151602 	tsteq	r5, r2, lsl #12
    1310:	18680000 	stmdane	r8!, {}^	; <UNPREDICTABLE>
    1314:	00000516 	andeq	r0, r0, r6, lsl r5
    1318:	16028a07 	strne	r8, [r2], -r7, lsl #20
    131c:	00000115 	andeq	r0, r0, r5, lsl r1
    1320:	02ce1870 	sbceq	r1, lr, #112, 16	; 0x700000
    1324:	8b070000 	blhi	1c132c <__bss_end__+0x1b72cc>
    1328:	01151602 	tsteq	r5, r2, lsl #12
    132c:	18780000 	ldmdane	r8!, {}^	; <UNPREDICTABLE>
    1330:	000004c6 	andeq	r0, r0, r6, asr #9
    1334:	10028c07 	andne	r8, r2, r7, lsl #24
    1338:	00000826 	andeq	r0, r0, r6, lsr #16
    133c:	023e1880 	eorseq	r1, lr, #128, 16	; 0x800000
    1340:	8d070000 	stchi	0, cr0, [r7, #-0]
    1344:	08361002 	ldmdaeq	r6!, {r1, ip}
    1348:	18880000 	stmne	r8, {}	; <UNPREDICTABLE>
    134c:	00000470 	andeq	r0, r0, r0, ror r4
    1350:	0f028e07 	svceq	0x00028e07
    1354:	00000025 	andeq	r0, r0, r5, lsr #32
    1358:	017e18a0 	cmneq	lr, r0, lsr #17
    135c:	8f070000 	svchi	0x00070000
    1360:	01151602 	tsteq	r5, r2, lsl #12
    1364:	18a40000 	stmiane	r4!, {}	; <UNPREDICTABLE>
    1368:	0000008f 	andeq	r0, r0, pc, lsl #1
    136c:	16029007 	strne	r9, [r2], -r7
    1370:	00000115 	andeq	r0, r0, r5, lsl r1
    1374:	016d18ac 	cmneq	sp, ip, lsr #17
    1378:	91070000 	mrsls	r0, (UNDEF: 7)
    137c:	01151602 	tsteq	r5, r2, lsl #12
    1380:	18b40000 	ldmne	r4!, {}	; <UNPREDICTABLE>
    1384:	0000003c 	andeq	r0, r0, ip, lsr r0
    1388:	16029207 	strne	r9, [r2], -r7, lsl #4
    138c:	00000115 	andeq	r0, r0, r5, lsl r1
    1390:	004b18bc 	strheq	r1, [fp], #-140	; 0xffffff74
    1394:	93070000 	movwls	r0, #28672	; 0x7000
    1398:	01151602 	tsteq	r5, r2, lsl #12
    139c:	18c40000 	stmiane	r4, {}^	; <UNPREDICTABLE>
    13a0:	0000036e 	andeq	r0, r0, lr, ror #6
    13a4:	08029407 	stmdaeq	r2, {r0, r1, r2, sl, ip, pc}
    13a8:	00000025 	andeq	r0, r0, r5, lsr #32
    13ac:	350a00cc 	strcc	r0, [sl, #-204]	; 0xffffff34
    13b0:	26000001 	strcs	r0, [r0], -r1
    13b4:	0b000008 	bleq	13dc <_start-0x6c24>
    13b8:	0000002c 	andeq	r0, r0, ip, lsr #32
    13bc:	350a0019 	strcc	r0, [sl, #-25]	; 0xffffffe7
    13c0:	36000001 	strcc	r0, [r0], -r1
    13c4:	0b000008 	bleq	13ec <_start-0x6c14>
    13c8:	0000002c 	andeq	r0, r0, ip, lsr #32
    13cc:	350a0007 	strcc	r0, [sl, #-7]
    13d0:	46000001 	strmi	r0, [r0], -r1
    13d4:	0b000008 	bleq	13fc <_start-0x6c04>
    13d8:	0000002c 	andeq	r0, r0, ip, lsr #32
    13dc:	f01b0017 			; <UNDEFINED> instruction: 0xf01b0017
    13e0:	07029907 	streq	r9, [r2, -r7, lsl #18]
    13e4:	0000086d 	andeq	r0, r0, sp, ror #16
    13e8:	00029a18 	andeq	r9, r2, r8, lsl sl
    13ec:	029c0700 	addseq	r0, ip, #0, 14
    13f0:	00086d1b 	andeq	r6, r8, fp, lsl sp
    13f4:	bd180000 	ldclt	0, cr0, [r8, #-0]
    13f8:	07000004 	streq	r0, [r0, -r4]
    13fc:	7d18029d 	lfmvc	f0, 4, [r8, #-628]	; 0xfffffd8c
    1400:	78000008 	stmdavc	r0, {r3}
    1404:	031d0a00 	tsteq	sp, #0, 20
    1408:	087d0000 	ldmdaeq	sp!, {}^	; <UNPREDICTABLE>
    140c:	2c0b0000 	stccs	0, cr0, [fp], {-0}
    1410:	1d000000 	stcne	0, cr0, [r0, #-0]
    1414:	002c0a00 	eoreq	r0, ip, r0, lsl #20
    1418:	088d0000 	stmeq	sp, {}	; <UNPREDICTABLE>
    141c:	2c0b0000 	stccs	0, cr0, [fp], {-0}
    1420:	1d000000 	stcne	0, cr0, [r0, #-0]
    1424:	07f01c00 	ldrbeq	r1, [r0, r0, lsl #24]!
    1428:	b203027e 	andlt	r0, r3, #-536870905	; 0xe0000007
    142c:	1d000008 	stcne	0, cr0, [r0, #-32]	; 0xffffffe0
    1430:	0000040c 	andeq	r0, r0, ip, lsl #8
    1434:	0b029507 	bleq	a6858 <__bss_end__+0x9c7f8>
    1438:	00000701 	andeq	r0, r0, r1, lsl #14
    143c:	0004e81d 	andeq	lr, r4, sp, lsl r8
    1440:	029e0700 	addseq	r0, lr, #0, 14
    1444:	0008460b 	andeq	r4, r8, fp, lsl #12
    1448:	350a0000 	strcc	r0, [sl, #-0]
    144c:	c2000001 	andgt	r0, r0, #1
    1450:	0b000008 	bleq	1478 <_start-0x6b88>
    1454:	0000002c 	andeq	r0, r0, ip, lsr #32
    1458:	84060018 	strhi	r0, [r6], #-24	; 0xffffffe8
    145c:	05000000 	streq	r0, [r0, #-0]
    1460:	0008c204 	andeq	ip, r8, r4, lsl #4
    1464:	08d81e00 	ldmeq	r8, {r9, sl, fp, ip}^
    1468:	84160000 	ldrhi	r0, [r6], #-0
    146c:	00000004 	andeq	r0, r0, r4
    1470:	08cd0405 	stmiaeq	sp, {r0, r2, sl}^
    1474:	04050000 	streq	r0, [r5], #-0
    1478:	000001a7 	andeq	r0, r0, r7, lsr #3
    147c:	0008ef1e 	andeq	lr, r8, lr, lsl pc
    1480:	00251600 	eoreq	r1, r5, r0, lsl #12
    1484:	05000000 	streq	r0, [r0, #-0]
    1488:	0008f504 	andeq	pc, r8, r4, lsl #10
    148c:	e4040500 	str	r0, [r4], #-1280	; 0xfffffb00
    1490:	0a000008 	beq	14b8 <_start-0x6b48>
    1494:	00000666 	andeq	r0, r0, r6, ror #12
    1498:	0000090b 	andeq	r0, r0, fp, lsl #18
    149c:	00002c0b 	andeq	r2, r0, fp, lsl #24
    14a0:	1f000200 	svcne	0x00000200
    14a4:	00000484 	andeq	r0, r0, r4, lsl #9
    14a8:	17032e07 	strne	r2, [r3, -r7, lsl #28]
    14ac:	00000484 	andeq	r0, r0, r4, lsl #9
    14b0:	00047d1f 	andeq	r7, r4, pc, lsl sp
    14b4:	032f0700 			; <UNDEFINED> instruction: 0x032f0700
    14b8:	00048a1d 	andeq	r8, r4, sp, lsl sl
    14bc:	00251500 	eoreq	r1, r5, r0, lsl #10
    14c0:	09340000 	ldmdbeq	r4!, {}	; <UNPREDICTABLE>
    14c4:	25160000 	ldrcs	r0, [r6, #-0]
    14c8:	00000000 	andeq	r0, r0, r0
    14cc:	0001d120 	andeq	sp, r1, r0, lsr #2
    14d0:	0e1d0800 	cdpeq	8, 1, cr0, cr13, cr0, {0}
    14d4:	00000940 	andeq	r0, r0, r0, asr #18
    14d8:	09250405 	stmdbeq	r5!, {r0, r2, sl}
    14dc:	25150000 	ldrcs	r0, [r5, #-0]
    14e0:	55000000 	strpl	r0, [r0, #-0]
    14e4:	16000009 	strne	r0, [r0], -r9
    14e8:	000005fc 	strdeq	r0, [r0], -ip
    14ec:	07732000 	ldrbeq	r2, [r3, -r0]!
    14f0:	22080000 	andcs	r0, r8, #0
    14f4:	0009610e 	andeq	r6, r9, lr, lsl #2
    14f8:	46040500 	strmi	r0, [r4], -r0, lsl #10
    14fc:	21000009 	tstcs	r0, r9
    1500:	005b0107 	subseq	r0, fp, r7, lsl #2
    1504:	24020000 	strcs	r0, [r2], #-0
    1508:	0009820e 	andeq	r8, r9, lr, lsl #4
    150c:	05742200 	ldrbeq	r2, [r4, #-512]!	; 0xfffffe00
    1510:	220b0000 	andcs	r0, fp, #0
    1514:	0000056e 	andeq	r0, r0, lr, ror #10
    1518:	0c0c000c 	stceq	0, cr0, [ip], {12}
    151c:	b3092602 	movwlt	r2, #38402	; 0x9602
    1520:	0d000009 	stceq	0, cr0, [r0, #-36]	; 0xffffffdc
    1524:	00000209 	andeq	r0, r0, r9, lsl #4
    1528:	fc112702 	ldc2	7, cr2, [r1], {2}
    152c:	00000005 	andeq	r0, r0, r5
    1530:	0004d50d 	andeq	sp, r4, sp, lsl #10
    1534:	11280200 			; <UNDEFINED> instruction: 0x11280200
    1538:	000005fc 	strdeq	r0, [r0], -ip
    153c:	05450d04 	strbeq	r0, [r5, #-3332]	; 0xfffff2fc
    1540:	29020000 	stmdbcs	r2, {}	; <UNPREDICTABLE>
    1544:	00002c0e 	andeq	r2, r0, lr, lsl #24
    1548:	04000800 	streq	r0, [r0], #-2048	; 0xfffff800
    154c:	0000063e 	andeq	r0, r0, lr, lsr r6
    1550:	82032a02 	andhi	r2, r3, #8192	; 0x2000
    1554:	10000009 	andne	r0, r0, r9
    1558:	000006b9 			; <UNDEFINED> instruction: 0x000006b9
    155c:	102d0238 	eorne	r0, sp, r8, lsr r2
    1560:	00000a4f 	andeq	r0, r0, pc, asr #20
    1564:	0005fa0d 	andeq	pc, r5, sp, lsl #20
    1568:	0e2e0200 	cdpeq	2, 2, cr0, cr14, cr0, {0}
    156c:	00000069 	andeq	r0, r0, r9, rrx
    1570:	069f0d00 	ldreq	r0, [pc], r0, lsl #26
    1574:	2f020000 	svccs	0x00020000
    1578:	0000690e 	andeq	r6, r0, lr, lsl #18
    157c:	d60d0400 	strle	r0, [sp], -r0, lsl #8
    1580:	02000002 	andeq	r0, r0, #2
    1584:	00690e30 	rsbeq	r0, r9, r0, lsr lr
    1588:	0d080000 	stceq	0, cr0, [r8, #-0]
    158c:	000005f4 	strdeq	r0, [r0], -r4
    1590:	690e3402 	stmdbvs	lr, {r1, sl, ip, sp}
    1594:	0c000000 	stceq	0, cr0, [r0], {-0}
    1598:	0005e60d 	andeq	lr, r5, sp, lsl #12
    159c:	0f360200 	svceq	0x00360200
    15a0:	000009b3 			; <UNDEFINED> instruction: 0x000009b3
    15a4:	055b0d10 	ldrbeq	r0, [fp, #-3344]	; 0xfffff2f0
    15a8:	37020000 	strcc	r0, [r2, -r0]
    15ac:	0009b30f 	andeq	fp, r9, pc, lsl #6
    15b0:	880d1c00 	stmdahi	sp, {sl, fp, ip}
    15b4:	02000005 	andeq	r0, r0, #5
    15b8:	00690e3b 	rsbeq	r0, r9, fp, lsr lr
    15bc:	0d280000 	stceq	0, cr0, [r8, #-0]
    15c0:	0000057c 	andeq	r0, r0, ip, ror r5
    15c4:	690e3c02 	stmdbvs	lr, {r1, sl, fp, ip, sp}
    15c8:	2c000000 	stccs	0, cr0, [r0], {-0}
    15cc:	00054c0d 	andeq	r4, r5, sp, lsl #24
    15d0:	153f0200 	ldrne	r0, [pc, #-512]!	; 13d8 <_start-0x6c28>
    15d4:	00000a4f 	andeq	r0, r0, pc, asr #20
    15d8:	053d0d30 	ldreq	r0, [sp, #-3376]!	; 0xfffff2d0
    15dc:	41020000 	mrsmi	r0, (UNDEF: 2)
    15e0:	0000690e 	andeq	r6, r0, lr, lsl #18
    15e4:	05003400 	streq	r3, [r0, #-1024]	; 0xfffffc00
    15e8:	0009bf04 	andeq	fp, r9, r4, lsl #30
    15ec:	06990400 	ldreq	r0, [r9], r0, lsl #8
    15f0:	42020000 	andmi	r0, r2, #0
    15f4:	0009bf03 	andeq	fp, r9, r3, lsl #30
    15f8:	02072100 	andeq	r2, r7, #0, 2
    15fc:	00000062 	andeq	r0, r0, r2, rrx
    1600:	89066202 	stmdbhi	r6, {r1, r9, sp, lr}
    1604:	2200000a 	andcs	r0, r0, #10
    1608:	00000668 	andeq	r0, r0, r8, ror #12
    160c:	05ab22fe 	streq	r2, [fp, #766]!	; 0x2fe
    1610:	22800000 	addcs	r0, r0, #0
    1614:	000005b3 			; <UNDEFINED> instruction: 0x000005b3
    1618:	059b23b8 	ldreq	r2, [fp, #952]	; 0x3b8
    161c:	01380000 	teqeq	r8, r0
    1620:	06632400 	strbteq	r2, [r3], -r0, lsl #8
    1624:	07010000 	streq	r0, [r1, -r0]
    1628:	000a9b11 	andeq	r9, sl, r1, lsl fp
    162c:	54030500 	strpl	r0, [r3], #-1280	; 0xfffffb00
    1630:	0500009c 	streq	r0, [r0, #-156]	; 0xffffff64
    1634:	00004f04 	andeq	r4, r0, r4, lsl #30
    1638:	0c4e2400 	cfstrdeq	mvd2, [lr], {-0}
    163c:	07010000 	streq	r0, [r1, -r0]
    1640:	000a9b1c 	andeq	r9, sl, ip, lsl fp
    1644:	58030500 	stmdapl	r3, {r8, sl}
    1648:	2400009c 	strcs	r0, [r0], #-156	; 0xffffff64
    164c:	00000c35 	andeq	r0, r0, r5, lsr ip
    1650:	9b270701 	blls	9c325c <__bss_end__+0x9b91fc>
    1654:	0500000a 	streq	r0, [r0, #-10]
    1658:	009c5003 	addseq	r5, ip, r3
    165c:	000c2500 	andeq	r2, ip, r0, lsl #10
    1660:	aa010000 	bge	41668 <__bss_end__+0x37608>
    1664:	00002505 	andeq	r2, r0, r5, lsl #10
    1668:	00881000 	addeq	r1, r8, r0
    166c:	00015000 	andeq	r5, r1, r0
    1670:	9a9c0100 	bls	fe701a78 <__bss_end__+0xfe6f7a18>
    1674:	2600000c 	strcs	r0, [r0], -ip
    1678:	00000593 	muleq	r0, r3, r5
    167c:	2c0eab01 			; <UNDEFINED> instruction: 0x2c0eab01
    1680:	46000000 	strmi	r0, [r0], -r0
    1684:	44000000 	strmi	r0, [r0], #-0
    1688:	26000000 	strcs	r0, [r0], -r0
    168c:	000006aa 	andeq	r0, r0, sl, lsr #13
    1690:	2c0eac01 	stccs	12, cr10, [lr], {1}
    1694:	5b000000 	blpl	169c <_start-0x6964>
    1698:	59000000 	stmdbpl	r0, {}	; <UNPREDICTABLE>
    169c:	26000000 	strcs	r0, [r0], -r0
    16a0:	00000651 	andeq	r0, r0, r1, asr r6
    16a4:	2c0eb001 	stccs	0, cr11, [lr], {1}
    16a8:	72000000 	andvc	r0, r0, #0
    16ac:	6e000000 	cdpvs	0, 0, cr0, cr0, cr0, {0}
    16b0:	26000000 	strcs	r0, [r0], -r0
    16b4:	00000638 	andeq	r0, r0, r8, lsr r6
    16b8:	2c0eb101 	stfcsd	f3, [lr], {1}
    16bc:	95000000 	strls	r0, [r0, #-0]
    16c0:	91000000 	mrsls	r0, (UNDEF: 0)
    16c4:	27000000 	strcs	r0, [r0, -r0]
    16c8:	00000048 	andeq	r0, r0, r8, asr #32
    16cc:	00000bf5 	strdeq	r0, [r0], -r5
    16d0:	00067726 	andeq	r7, r6, r6, lsr #14
    16d4:	11b40100 			; <UNDEFINED> instruction: 0x11b40100
    16d8:	00000c9a 	muleq	r0, sl, ip
    16dc:	000000b6 	strheq	r0, [r0], -r6
    16e0:	000000b4 	strheq	r0, [r0], -r4
    16e4:	0088b828 	addeq	fp, r8, r8, lsr #16
    16e8:	0015c900 	andseq	ip, r5, r0, lsl #18
    16ec:	000b6000 	andeq	r6, fp, r0
    16f0:	50012900 	andpl	r2, r1, r0, lsl #18
    16f4:	00007402 	andeq	r7, r0, r2, lsl #8
    16f8:	0088c828 	addeq	ip, r8, r8, lsr #16
    16fc:	00184800 	andseq	r4, r8, r0, lsl #16
    1700:	000b7400 	andeq	r7, fp, r0, lsl #8
    1704:	50012900 	andpl	r2, r1, r0, lsl #18
    1708:	00007402 	andeq	r7, r0, r2, lsl #8
    170c:	0088d428 	addeq	sp, r8, r8, lsr #8
    1710:	00143b00 	andseq	r3, r4, r0, lsl #22
    1714:	000b8e00 	andeq	r8, fp, r0, lsl #28
    1718:	51012900 	tstpl	r1, r0, lsl #18
    171c:	29800802 	stmibcs	r0, {r1, fp}
    1720:	74025201 	strvc	r5, [r2], #-513	; 0xfffffdff
    1724:	e4280000 	strt	r0, [r8], #-0
    1728:	cd000088 	stcgt	0, cr0, [r0, #-544]	; 0xfffffde0
    172c:	a2000017 	andge	r0, r0, #23
    1730:	2900000b 	stmdbcs	r0, {r0, r1, r3}
    1734:	74025001 	strvc	r5, [r2], #-1
    1738:	f0280000 			; <UNDEFINED> instruction: 0xf0280000
    173c:	a0000088 	andge	r0, r0, r8, lsl #1
    1740:	b6000017 			; <UNDEFINED> instruction: 0xb6000017
    1744:	2900000b 	stmdbcs	r0, {r0, r1, r3}
    1748:	74025001 	strvc	r5, [r2], #-1
    174c:	00280000 	eoreq	r0, r8, r0
    1750:	3b000089 	blcc	197c <_start-0x6684>
    1754:	d0000014 	andle	r0, r0, r4, lsl r0
    1758:	2900000b 	stmdbcs	r0, {r0, r1, r3}
    175c:	77025001 	strvc	r5, [r2, -r1]
    1760:	52012900 	andpl	r2, r1, #0, 18
    1764:	00007402 	andeq	r7, r0, r2, lsl #8
    1768:	00891c28 	addeq	r1, r9, r8, lsr #24
    176c:	00180a00 	andseq	r0, r8, r0, lsl #20
    1770:	000be400 	andeq	lr, fp, r0, lsl #8
    1774:	50012900 	andpl	r2, r1, r0, lsl #18
    1778:	00007402 	andeq	r7, r0, r2, lsl #8
    177c:	0089282a 	addeq	r2, r9, sl, lsr #16
    1780:	00127c00 	andseq	r7, r2, r0, lsl #24
    1784:	52012900 	andpl	r2, r1, #0, 18
    1788:	00007402 	andeq	r7, r0, r2, lsl #8
    178c:	88342800 	ldmdahi	r4!, {fp, sp}
    1790:	194c0000 	stmdbne	ip, {}^	; <UNPREDICTABLE>
    1794:	0c0c0000 	stceq	0, cr0, [ip], {-0}
    1798:	01290000 			; <UNDEFINED> instruction: 0x01290000
    179c:	f0030550 			; <UNDEFINED> instruction: 0xf0030550
    17a0:	00000096 	muleq	r0, r6, r0
    17a4:	00884428 	addeq	r4, r8, r8, lsr #8
    17a8:	00194c00 	andseq	r4, r9, r0, lsl #24
    17ac:	000c2f00 	andeq	r2, ip, r0, lsl #30
    17b0:	50012900 	andpl	r2, r1, r0, lsl #18
    17b4:	99780305 	ldmdbls	r8!, {r0, r2, r8, r9}^
    17b8:	01290000 			; <UNDEFINED> instruction: 0x01290000
    17bc:	00750251 	rsbseq	r0, r5, r1, asr r2
    17c0:	02520129 	subseq	r0, r2, #1073741834	; 0x4000000a
    17c4:	28000076 	stmdacs	r0, {r1, r2, r4, r5, r6}
    17c8:	0000886c 	andeq	r8, r0, ip, ror #16
    17cc:	0000194c 	andeq	r1, r0, ip, asr #18
    17d0:	00000c46 	andeq	r0, r0, r6, asr #24
    17d4:	05500129 	ldrbeq	r0, [r0, #-297]	; 0xfffffed7
    17d8:	0096f003 	addseq	pc, r6, r3
    17dc:	7c280000 	stcvc	0, cr0, [r8], #-0
    17e0:	4c000088 	stcmi	0, cr0, [r0], {136}	; 0x88
    17e4:	69000019 	stmdbvs	r0, {r0, r3, r4}
    17e8:	2900000c 	stmdbcs	r0, {r2, r3}
    17ec:	03055001 	movweq	r5, #20481	; 0x5001
    17f0:	000099b0 			; <UNDEFINED> instruction: 0x000099b0
    17f4:	02510129 	subseq	r0, r1, #1073741834	; 0x4000000a
    17f8:	01290075 			; <UNDEFINED> instruction: 0x01290075
    17fc:	00760252 	rsbseq	r0, r6, r2, asr r2
    1800:	893c2800 	ldmdbhi	ip!, {fp, sp}
    1804:	194c0000 	stmdbne	ip, {}^	; <UNPREDICTABLE>
    1808:	0c800000 	stceq	0, cr0, [r0], {0}
    180c:	01290000 			; <UNDEFINED> instruction: 0x01290000
    1810:	f0030550 			; <UNDEFINED> instruction: 0xf0030550
    1814:	00000096 	muleq	r0, r6, r0
    1818:	0089482a 	addeq	r4, r9, sl, lsr #16
    181c:	00194c00 	andseq	r4, r9, r0, lsl #24
    1820:	50012900 	andpl	r2, r1, r0, lsl #18
    1824:	99d80305 	ldmibls	r8, {r0, r2, r8, r9}^
    1828:	01290000 			; <UNDEFINED> instruction: 0x01290000
    182c:	00750251 	rsbseq	r0, r5, r1, asr r2
    1830:	04050000 	streq	r0, [r5], #-0
    1834:	00000a55 	andeq	r0, r0, r5, asr sl
    1838:	00007325 	andeq	r7, r0, r5, lsr #6
    183c:	08830100 	stmeq	r3, {r8}
    1840:	0000012d 	andeq	r0, r0, sp, lsr #2
    1844:	000085f4 	strdeq	r8, [r0], -r4
    1848:	0000021c 	andeq	r0, r0, ip, lsl r2
    184c:	0ff49c01 	svceq	0x00f49c01
    1850:	8a2b0000 	bhi	ac1858 <__bss_end__+0xab77f8>
    1854:	01000006 	tsteq	r0, r6
    1858:	00691a83 	rsbeq	r1, r9, r3, lsl #21
    185c:	00d30000 	sbcseq	r0, r3, r0
    1860:	00c90000 	sbceq	r0, r9, r0
    1864:	092b0000 	stmdbeq	fp!, {}	; <UNPREDICTABLE>
    1868:	01000002 	tsteq	r0, r2
    186c:	05fc2e83 	ldrbeq	r2, [ip, #3715]!	; 0xe83
    1870:	011f0000 	tsteq	pc, r0
    1874:	01150000 	tsteq	r5, r0
    1878:	d52b0000 	strle	r0, [fp, #-0]!
    187c:	01000004 	tsteq	r0, r4
    1880:	05fc4083 	ldrbeq	r4, [ip, #131]!	; 0x83
    1884:	016b0000 	cmneq	fp, r0
    1888:	01610000 	cmneq	r1, r0
    188c:	452b0000 	strmi	r0, [fp, #-0]!
    1890:	01000005 	tsteq	r0, r5
    1894:	002c4f83 	eoreq	r4, ip, r3, lsl #31
    1898:	01b70000 			; <UNDEFINED> instruction: 0x01b70000
    189c:	01ad0000 			; <UNDEFINED> instruction: 0x01ad0000
    18a0:	682c0000 	stmdavs	ip!, {}	; <UNPREDICTABLE>
    18a4:	0c840100 	stfeqs	f0, [r4], {0}
    18a8:	00000c9a 	muleq	r0, sl, ip
    18ac:	00000204 	andeq	r0, r0, r4, lsl #4
    18b0:	000001fc 	strdeq	r0, [r0], -ip
    18b4:	7274702c 	rsbsvc	r7, r4, #44	; 0x2c
    18b8:	0b850100 	bleq	fe141cc0 <__bss_end__+0xfe137c60>
    18bc:	0000012d 	andeq	r0, r0, sp, lsr #2
    18c0:	00000242 	andeq	r0, r0, r2, asr #4
    18c4:	0000023a 	andeq	r0, r0, sl, lsr r2
    18c8:	00020e2d 	andeq	r0, r2, sp, lsr #28
    18cc:	00100400 	andseq	r0, r0, r0, lsl #8
    18d0:	18030500 	stmdane	r3, {r8, sl}
    18d4:	2c00009a 	stccs	0, cr0, [r0], {154}	; 0x9a
    18d8:	00746f74 	rsbseq	r6, r4, r4, ror pc
    18dc:	2c0e8a01 			; <UNDEFINED> instruction: 0x2c0e8a01
    18e0:	84000000 	strhi	r0, [r0], #-0
    18e4:	78000002 	stmdavc	r0, {r1}
    18e8:	2c000002 	stccs	0, cr0, [r0], {2}
    18ec:	8b01006e 	blhi	41aac <__bss_end__+0x37a4c>
    18f0:	00002c0e 	andeq	r2, r0, lr, lsl #24
    18f4:	0002db00 	andeq	sp, r2, r0, lsl #22
    18f8:	0002d700 	andeq	sp, r2, r0, lsl #14
    18fc:	86242800 	strthi	r2, [r4], -r0, lsl #16
    1900:	194c0000 	stmdbne	ip, {}^	; <UNPREDICTABLE>
    1904:	0d7c0000 	ldcleq	0, cr0, [ip, #-0]
    1908:	01290000 			; <UNDEFINED> instruction: 0x01290000
    190c:	f0030550 			; <UNDEFINED> instruction: 0xf0030550
    1910:	00000096 	muleq	r0, r6, r0
    1914:	00863028 	addeq	r3, r6, r8, lsr #32
    1918:	00194c00 	andseq	r4, r9, r0, lsl #24
    191c:	000d9900 	andeq	r9, sp, r0, lsl #18
    1920:	50012900 	andpl	r2, r1, r0, lsl #18
    1924:	983c0305 	ldmdals	ip!, {r0, r2, r8, r9}
    1928:	01290000 			; <UNDEFINED> instruction: 0x01290000
    192c:	00750251 	rsbseq	r0, r5, r1, asr r2
    1930:	86942800 	ldrhi	r2, [r4], r0, lsl #16
    1934:	18480000 	stmdane	r8, {}^	; <UNPREDICTABLE>
    1938:	0dad0000 	stceq	0, cr0, [sp]
    193c:	01290000 			; <UNDEFINED> instruction: 0x01290000
    1940:	00740250 	rsbseq	r0, r4, r0, asr r2
    1944:	869c2800 	ldrhi	r2, [ip], r0, lsl #16
    1948:	12210000 	eorne	r0, r1, #0
    194c:	0dc10000 	stcleq	0, cr0, [r1]
    1950:	01290000 			; <UNDEFINED> instruction: 0x01290000
    1954:	80080251 	andhi	r0, r8, r1, asr r2
    1958:	86a42800 	strthi	r2, [r4], r0, lsl #16
    195c:	17cd0000 	strbne	r0, [sp, r0]
    1960:	0dd50000 	ldcleq	0, cr0, [r5]
    1964:	01290000 			; <UNDEFINED> instruction: 0x01290000
    1968:	00740250 	rsbseq	r0, r4, r0, asr r2
    196c:	86b02800 	ldrthi	r2, [r0], r0, lsl #16
    1970:	17a00000 	strne	r0, [r0, r0]!
    1974:	0de90000 	stcleq	0, cr0, [r9]
    1978:	01290000 			; <UNDEFINED> instruction: 0x01290000
    197c:	00740250 	rsbseq	r0, r4, r0, asr r2
    1980:	86bc2800 	ldrthi	r2, [ip], r0, lsl #16
    1984:	12210000 	eorne	r0, r1, #0
    1988:	0dfd0000 	ldcleq	0, cr0, [sp]
    198c:	01290000 			; <UNDEFINED> instruction: 0x01290000
    1990:	00760250 	rsbseq	r0, r6, r0, asr r2
    1994:	86c42800 	strbhi	r2, [r4], r0, lsl #16
    1998:	17060000 	strne	r0, [r6, -r0]
    199c:	0e110000 	cdpeq	0, 1, cr0, cr1, cr0, {0}
    19a0:	01290000 			; <UNDEFINED> instruction: 0x01290000
    19a4:	00740250 	rsbseq	r0, r4, r0, asr r2
    19a8:	86e02800 	strbthi	r2, [r0], r0, lsl #16
    19ac:	11740000 	cmnne	r4, r0
    19b0:	0e250000 	cdpeq	0, 2, cr0, cr5, cr0, {0}
    19b4:	01290000 			; <UNDEFINED> instruction: 0x01290000
    19b8:	00740250 	rsbseq	r0, r4, r0, asr r2
    19bc:	86f02800 	ldrbthi	r2, [r0], r0, lsl #16
    19c0:	180a0000 	stmdane	sl, {}	; <UNPREDICTABLE>
    19c4:	0e390000 	cdpeq	0, 3, cr0, cr9, cr0, {0}
    19c8:	01290000 			; <UNDEFINED> instruction: 0x01290000
    19cc:	00740250 	rsbseq	r0, r4, r0, asr r2
    19d0:	86fc2800 	ldrbthi	r2, [ip], r0, lsl #16
    19d4:	194c0000 	stmdbne	ip, {}^	; <UNPREDICTABLE>
    19d8:	0e500000 	cdpeq	0, 5, cr0, cr0, cr0, {0}
    19dc:	01290000 			; <UNDEFINED> instruction: 0x01290000
    19e0:	f0030550 			; <UNDEFINED> instruction: 0xf0030550
    19e4:	00000096 	muleq	r0, r6, r0
    19e8:	00871028 	addeq	r1, r7, r8, lsr #32
    19ec:	00194c00 	andseq	r4, r9, r0, lsl #24
    19f0:	000e7900 	andeq	r7, lr, r0, lsl #18
    19f4:	50012900 	andpl	r2, r1, r0, lsl #18
    19f8:	99480305 	stmdbls	r8, {r0, r2, r8, r9}^
    19fc:	01290000 			; <UNDEFINED> instruction: 0x01290000
    1a00:	00750251 	rsbseq	r0, r5, r1, asr r2
    1a04:	02520129 	subseq	r0, r2, #1073741834	; 0x4000000a
    1a08:	01290079 			; <UNDEFINED> instruction: 0x01290079
    1a0c:	00740253 	rsbseq	r0, r4, r3, asr r2
    1a10:	87202e00 	strhi	r2, [r0, -r0, lsl #28]!
    1a14:	19580000 	ldmdbne	r8, {}^	; <UNPREDICTABLE>
    1a18:	34280000 	strtcc	r0, [r8], #-0
    1a1c:	4c000087 	stcmi	0, cr0, [r0], {135}	; 0x87
    1a20:	b1000019 	tstlt	r0, r9, lsl r0
    1a24:	2900000e 	stmdbcs	r0, {r1, r2, r3}
    1a28:	03055001 	movweq	r5, #20481	; 0x5001
    1a2c:	000097fc 	strdeq	r9, [r0], -ip
    1a30:	05510129 	ldrbeq	r0, [r1, #-297]	; 0xfffffed7
    1a34:	0097ac03 	addseq	sl, r7, r3, lsl #24
    1a38:	52012900 	andpl	r2, r1, #0, 18
    1a3c:	9a180305 	bls	602658 <__bss_end__+0x5f85f8>
    1a40:	01290000 			; <UNDEFINED> instruction: 0x01290000
    1a44:	87080253 	smlsdhi	r8, r3, r2, r0
    1a48:	87382e00 	ldrhi	r2, [r8, -r0, lsl #28]!
    1a4c:	19640000 	stmdbne	r4!, {}^	; <UNPREDICTABLE>
    1a50:	40280000 	eormi	r0, r8, r0
    1a54:	4c000087 	stcmi	0, cr0, [r0], {135}	; 0x87
    1a58:	d1000019 	tstle	r0, r9, lsl r0
    1a5c:	2900000e 	stmdbcs	r0, {r1, r2, r3}
    1a60:	03055001 	movweq	r5, #20481	; 0x5001
    1a64:	00009854 	andeq	r9, r0, r4, asr r8
    1a68:	874c2800 	strbhi	r2, [ip, -r0, lsl #16]
    1a6c:	194c0000 	stmdbne	ip, {}^	; <UNPREDICTABLE>
    1a70:	0eee0000 	cdpeq	0, 14, cr0, cr14, cr0, {0}
    1a74:	01290000 			; <UNDEFINED> instruction: 0x01290000
    1a78:	60030550 	andvs	r0, r3, r0, asr r5
    1a7c:	29000098 	stmdbcs	r0, {r3, r4, r7}
    1a80:	75025101 	strvc	r5, [r2, #-257]	; 0xfffffeff
    1a84:	502e0000 	eorpl	r0, lr, r0
    1a88:	58000087 	stmdapl	r0, {r0, r1, r2, r7}
    1a8c:	28000019 	stmdacs	r0, {r0, r3, r4}
    1a90:	00008768 	andeq	r8, r0, r8, ror #14
    1a94:	0000194c 	andeq	r1, r0, ip, asr #18
    1a98:	00000f2d 	andeq	r0, r0, sp, lsr #30
    1a9c:	05500129 	ldrbeq	r0, [r0, #-297]	; 0xfffffed7
    1aa0:	00988803 	addseq	r8, r8, r3, lsl #16
    1aa4:	51012900 	tstpl	r1, r0, lsl #18
    1aa8:	97ac0305 	strls	r0, [ip, r5, lsl #6]!
    1aac:	01290000 			; <UNDEFINED> instruction: 0x01290000
    1ab0:	18030552 	stmdane	r3, {r1, r4, r6, r8, sl}
    1ab4:	2900009a 	stmdbcs	r0, {r1, r3, r4, r7}
    1ab8:	08025301 	stmdaeq	r2, {r0, r8, r9, ip, lr}
    1abc:	7d02298f 	vstrvc.16	s4, [r2, #-286]	; 0xfffffee2	; <UNPREDICTABLE>
    1ac0:	00750200 	rsbseq	r0, r5, r0, lsl #4
    1ac4:	876c2e00 	strbhi	r2, [ip, -r0, lsl #28]!
    1ac8:	19640000 	stmdbne	r4!, {}^	; <UNPREDICTABLE>
    1acc:	74280000 	strtvc	r0, [r8], #-0
    1ad0:	4c000087 	stcmi	0, cr0, [r0], {135}	; 0x87
    1ad4:	4d000019 	stcmi	0, cr0, [r0, #-100]	; 0xffffff9c
    1ad8:	2900000f 	stmdbcs	r0, {r0, r1, r2, r3}
    1adc:	03055001 	movweq	r5, #20481	; 0x5001
    1ae0:	00009854 	andeq	r9, r0, r4, asr r8
    1ae4:	87902800 	ldrhi	r2, [r0, r0, lsl #16]
    1ae8:	194c0000 	stmdbne	ip, {}^	; <UNPREDICTABLE>
    1aec:	0f6a0000 	svceq	0x006a0000
    1af0:	01290000 			; <UNDEFINED> instruction: 0x01290000
    1af4:	c0030550 	andgt	r0, r3, r0, asr r5
    1af8:	29000098 	stmdbcs	r0, {r3, r4, r7}
    1afc:	79025201 	stmdbvc	r2, {r0, r9, ip, lr}
    1b00:	942e0000 	strtls	r0, [lr], #-0
    1b04:	58000087 	stmdapl	r0, {r0, r1, r2, r7}
    1b08:	28000019 	stmdacs	r0, {r0, r3, r4}
    1b0c:	000087bc 			; <UNDEFINED> instruction: 0x000087bc
    1b10:	0000194c 	andeq	r1, r0, ip, asr #18
    1b14:	00000fa9 	andeq	r0, r0, r9, lsr #31
    1b18:	05500129 	ldrbeq	r0, [r0, #-297]	; 0xfffffed7
    1b1c:	0098ec03 	addseq	lr, r8, r3, lsl #24
    1b20:	51012900 	tstpl	r1, r0, lsl #18
    1b24:	97ac0305 	strls	r0, [ip, r5, lsl #6]!
    1b28:	01290000 			; <UNDEFINED> instruction: 0x01290000
    1b2c:	18030552 	stmdane	r3, {r1, r4, r6, r8, sl}
    1b30:	2900009a 	stmdbcs	r0, {r1, r3, r4, r7}
    1b34:	08025301 	stmdaeq	r2, {r0, r8, r9, ip, lr}
    1b38:	7d022992 	vstrvc.16	s4, [r2, #-292]	; 0xfffffedc	; <UNPREDICTABLE>
    1b3c:	00790204 	rsbseq	r0, r9, r4, lsl #4
    1b40:	87c02e00 	strbhi	r2, [r0, r0, lsl #28]
    1b44:	19640000 	stmdbne	r4!, {}^	; <UNPREDICTABLE>
    1b48:	c42e0000 	strtgt	r0, [lr], #-0
    1b4c:	58000087 	stmdapl	r0, {r0, r1, r2, r7}
    1b50:	28000019 	stmdacs	r0, {r0, r3, r4}
    1b54:	000087d8 	ldrdeq	r8, [r0], -r8	; <UNPREDICTABLE>
    1b58:	0000194c 	andeq	r1, r0, ip, asr #18
    1b5c:	00000fea 	andeq	r0, r0, sl, ror #31
    1b60:	05500129 	ldrbeq	r0, [r0, #-297]	; 0xfffffed7
    1b64:	00992803 	addseq	r2, r9, r3, lsl #16
    1b68:	51012900 	tstpl	r1, r0, lsl #18
    1b6c:	97ac0305 	strls	r0, [ip, r5, lsl #6]!
    1b70:	01290000 			; <UNDEFINED> instruction: 0x01290000
    1b74:	18030552 	stmdane	r3, {r1, r4, r6, r8, sl}
    1b78:	2900009a 	stmdbcs	r0, {r1, r3, r4, r7}
    1b7c:	08025301 	stmdaeq	r2, {r0, r8, r9, ip, lr}
    1b80:	dc2e00a1 	stcle	0, cr0, [lr], #-644	; 0xfffffd7c
    1b84:	64000087 	strvs	r0, [r0], #-135	; 0xffffff79
    1b88:	00000019 	andeq	r0, r0, r9, lsl r0
    1b8c:	00013c0a 	andeq	r3, r1, sl, lsl #24
    1b90:	00100400 	andseq	r0, r0, r0, lsl #8
    1b94:	002c0b00 	eoreq	r0, ip, r0, lsl #22
    1b98:	00070000 	andeq	r0, r7, r0
    1b9c:	000ff40f 	andeq	pc, pc, pc, lsl #8
    1ba0:	02742f00 	rsbseq	r2, r4, #0, 30
    1ba4:	71010000 	mrsvc	r0, (UNDEF: 1)
    1ba8:	00853c07 	addeq	r3, r5, r7, lsl #24
    1bac:	0000b800 	andeq	fp, r0, r0, lsl #16
    1bb0:	5f9c0100 	svcpl	0x009c0100
    1bb4:	2b000011 	blcs	1c00 <_start-0x6400>
    1bb8:	00000c41 	andeq	r0, r0, r1, asr #24
    1bbc:	2d157101 	ldfcss	f7, [r5, #-4]
    1bc0:	fd000001 	stc2	0, cr0, [r0, #-4]
    1bc4:	f9000002 			; <UNDEFINED> instruction: 0xf9000002
    1bc8:	2b000002 	blcs	1bd8 <_start-0x6428>
    1bcc:	00000209 	andeq	r0, r0, r9, lsl #4
    1bd0:	fc277101 	stc2	1, cr7, [r7], #-4
    1bd4:	1f000005 	svcne	0x00000005
    1bd8:	1b000003 	blne	1bec <_start-0x6414>
    1bdc:	2b000003 	blcs	1bf0 <_start-0x6410>
    1be0:	000004d5 	ldrdeq	r0, [r0], -r5
    1be4:	fc397101 	ldc2	1, cr7, [r9], #-4
    1be8:	41000005 	tstmi	r0, r5
    1bec:	3d000003 	stccc	0, cr0, [r0, #-12]
    1bf0:	2b000003 	blcs	1c04 <_start-0x63fc>
    1bf4:	00000545 	andeq	r0, r0, r5, asr #10
    1bf8:	2c487101 	stfcse	f7, [r8], {1}
    1bfc:	63000000 	movwvs	r0, #0
    1c00:	5f000003 	svcpl	0x00000003
    1c04:	2c000003 	stccs	0, cr0, [r0], {3}
    1c08:	72010068 	andvc	r0, r1, #104	; 0x68
    1c0c:	000c9a0c 	andeq	r9, ip, ip, lsl #20
    1c10:	00038700 	andeq	r8, r3, r0, lsl #14
    1c14:	00038100 	andeq	r8, r3, r0, lsl #2
    1c18:	020e2d00 	andeq	r2, lr, #0, 26
    1c1c:	116f0000 	cmnne	pc, r0
    1c20:	03050000 	movweq	r0, #20480	; 0x5000
    1c24:	00009a10 	andeq	r9, r0, r0, lsl sl
    1c28:	00855428 	addeq	r5, r5, r8, lsr #8
    1c2c:	00177100 	andseq	r7, r7, r0, lsl #2
    1c30:	0010a400 	andseq	sl, r0, r0, lsl #8
    1c34:	50012900 	andpl	r2, r1, r0, lsl #18
    1c38:	00007502 	andeq	r7, r0, r2, lsl #10
    1c3c:	00857028 	addeq	r7, r5, r8, lsr #32
    1c40:	00194c00 	andseq	r4, r9, r0, lsl #24
    1c44:	0010bb00 	andseq	fp, r0, r0, lsl #22
    1c48:	50012900 	andpl	r2, r1, r0, lsl #18
    1c4c:	96f00305 	ldrbtls	r0, [r0], r5, lsl #6
    1c50:	28000000 	stmdacs	r0, {}	; <UNPREDICTABLE>
    1c54:	0000857c 	andeq	r8, r0, ip, ror r5
    1c58:	0000194c 	andeq	r1, r0, ip, asr #18
    1c5c:	000010d8 	ldrdeq	r1, [r0], -r8
    1c60:	05500129 	ldrbeq	r0, [r0, #-297]	; 0xfffffed7
    1c64:	00983003 	addseq	r3, r8, r3
    1c68:	51012900 	tstpl	r1, r0, lsl #18
    1c6c:	00007502 	andeq	r7, r0, r2, lsl #10
    1c70:	00858428 	addeq	r8, r5, r8, lsr #8
    1c74:	00117400 	andseq	r7, r1, r0, lsl #8
    1c78:	0010ec00 	andseq	lr, r0, r0, lsl #24
    1c7c:	50012900 	andpl	r2, r1, r0, lsl #18
    1c80:	00007402 	andeq	r7, r0, r2, lsl #8
    1c84:	0085a828 	addeq	sl, r5, r8, lsr #16
    1c88:	00180a00 	andseq	r0, r8, r0, lsl #20
    1c8c:	00110000 	andseq	r0, r1, r0
    1c90:	50012900 	andpl	r2, r1, r0, lsl #18
    1c94:	00007402 	andeq	r7, r0, r2, lsl #8
    1c98:	0085b02e 	addeq	fp, r5, lr, lsr #32
    1c9c:	00122100 	andseq	r2, r2, r0, lsl #2
    1ca0:	85b82800 	ldrhi	r2, [r8, #2048]!	; 0x800
    1ca4:	17060000 	strne	r0, [r6, -r0]
    1ca8:	111d0000 	tstne	sp, r0
    1cac:	01290000 			; <UNDEFINED> instruction: 0x01290000
    1cb0:	00740250 	rsbseq	r0, r4, r0, asr r2
    1cb4:	85c42e00 	strbhi	r2, [r4, #3584]	; 0xe00
    1cb8:	19580000 	ldmdbne	r8, {}^	; <UNPREDICTABLE>
    1cbc:	d8280000 	stmdale	r8!, {}	; <UNPREDICTABLE>
    1cc0:	4c000085 	stcmi	0, cr0, [r0], {133}	; 0x85
    1cc4:	55000019 	strpl	r0, [r0, #-25]	; 0xffffffe7
    1cc8:	29000011 	stmdbcs	r0, {r0, r4}
    1ccc:	03055001 	movweq	r5, #20481	; 0x5001
    1cd0:	000097fc 	strdeq	r9, [r0], -ip
    1cd4:	05510129 	ldrbeq	r0, [r1, #-297]	; 0xfffffed7
    1cd8:	0097ac03 	addseq	sl, r7, r3, lsl #24
    1cdc:	52012900 	andpl	r2, r1, #0, 18
    1ce0:	9a100305 	bls	4028fc <__bss_end__+0x3f889c>
    1ce4:	01290000 			; <UNDEFINED> instruction: 0x01290000
    1ce8:	74080253 	strvc	r0, [r8], #-595	; 0xfffffdad
    1cec:	85dc2e00 	ldrbhi	r2, [ip, #3584]	; 0xe00
    1cf0:	19640000 	stmdbne	r4!, {}^	; <UNPREDICTABLE>
    1cf4:	0a000000 	beq	1cfc <_start-0x6304>
    1cf8:	0000013c 	andeq	r0, r0, ip, lsr r1
    1cfc:	0000116f 	andeq	r1, r0, pc, ror #2
    1d00:	00002c0b 	andeq	r2, r0, fp, lsl #24
    1d04:	0f000600 	svceq	0x00000600
    1d08:	0000115f 	andeq	r1, r0, pc, asr r1
    1d0c:	00067130 	andeq	r7, r6, r0, lsr r1
    1d10:	0c590100 	ldfeqe	f0, [r9], {-0}
    1d14:	00000025 	andeq	r0, r0, r5, lsr #32
    1d18:	00008464 	andeq	r8, r0, r4, ror #8
    1d1c:	00000064 	andeq	r0, r0, r4, rrx
    1d20:	12219c01 	eorne	r9, r1, #256	; 0x100
    1d24:	68310000 	ldmdavs	r1!, {}	; <UNPREDICTABLE>
    1d28:	1f590100 	svcne	0x00590100
    1d2c:	00000c9a 	muleq	r0, sl, ip
    1d30:	000003b4 			; <UNDEFINED> instruction: 0x000003b4
    1d34:	000003b0 			; <UNDEFINED> instruction: 0x000003b0
    1d38:	00847028 	addeq	r7, r4, r8, lsr #32
    1d3c:	0015c900 	andseq	ip, r5, r0, lsl #18
    1d40:	0011b400 	andseq	fp, r1, r0, lsl #8
    1d44:	50012900 	andpl	r2, r1, r0, lsl #18
    1d48:	00007402 	andeq	r7, r0, r2, lsl #8
    1d4c:	00848028 	addeq	r8, r4, r8, lsr #32
    1d50:	00184800 	andseq	r4, r8, r0, lsl #16
    1d54:	0011c800 	andseq	ip, r1, r0, lsl #16
    1d58:	50012900 	andpl	r2, r1, r0, lsl #18
    1d5c:	00007402 	andeq	r7, r0, r2, lsl #8
    1d60:	00848c28 	addeq	r8, r4, r8, lsr #24
    1d64:	00143b00 	andseq	r3, r4, r0, lsl #22
    1d68:	0011e200 	andseq	lr, r1, r0, lsl #4
    1d6c:	51012900 	tstpl	r1, r0, lsl #18
    1d70:	29800802 	stmibcs	r0, {r1, fp}
    1d74:	74025201 	strvc	r5, [r2], #-513	; 0xfffffdff
    1d78:	9c280000 	stcls	0, cr0, [r8], #-0
    1d7c:	cd000084 	stcgt	0, cr0, [r0, #-528]	; 0xfffffdf0
    1d80:	f6000017 			; <UNDEFINED> instruction: 0xf6000017
    1d84:	29000011 	stmdbcs	r0, {r0, r4}
    1d88:	74025001 	strvc	r5, [r2], #-1
    1d8c:	a8280000 	stmdage	r8!, {}	; <UNPREDICTABLE>
    1d90:	a0000084 	andge	r0, r0, r4, lsl #1
    1d94:	0a000017 	beq	1df8 <_start-0x6208>
    1d98:	29000012 	stmdbcs	r0, {r1, r4}
    1d9c:	74025001 	strvc	r5, [r2], #-1
    1da0:	b82a0000 	stmdalt	sl!, {}	; <UNPREDICTABLE>
    1da4:	3b000084 	blcc	1fbc <_start-0x6044>
    1da8:	29000014 	stmdbcs	r0, {r2, r4}
    1dac:	75025001 	strvc	r5, [r2, #-1]
    1db0:	52012900 	andpl	r2, r1, #0, 18
    1db4:	00007402 	andeq	r7, r0, r2, lsl #8
    1db8:	05c03200 	strbeq	r3, [r0, #512]	; 0x200
    1dbc:	4f010000 	svcmi	0x00010000
    1dc0:	0082480d 	addeq	r4, r2, sp, lsl #16
    1dc4:	00001400 	andeq	r1, r0, r0, lsl #8
    1dc8:	7c9c0100 	ldfvcs	f0, [ip], {0}
    1dcc:	31000012 	tstcc	r0, r2, lsl r0
    1dd0:	4f010070 	svcmi	0x00010070
    1dd4:	00012d1c 	andeq	r2, r1, ip, lsl sp
    1dd8:	0003d600 	andeq	sp, r3, r0, lsl #12
    1ddc:	0003d200 	andeq	sp, r3, r0, lsl #4
    1de0:	068a2b00 	streq	r2, [sl], r0, lsl #22
    1de4:	4f010000 	svcmi	0x00010000
    1de8:	00002c28 	andeq	r2, r0, r8, lsr #24
    1dec:	0003fd00 	andeq	pc, r3, r0, lsl #26
    1df0:	0003f700 	andeq	pc, r3, r0, lsl #14
    1df4:	82582a00 	subshi	r2, r8, #0, 20
    1df8:	19700000 	ldmdbne	r0!, {}^	; <UNPREDICTABLE>
    1dfc:	01290000 			; <UNDEFINED> instruction: 0x01290000
    1e00:	01f30350 	mvnseq	r0, r0, asr r3
    1e04:	51012950 	tstpl	r1, r0, asr r9
    1e08:	29fe0802 	ldmibcs	lr!, {r1, fp}^
    1e0c:	f3035201 	vhsub.u8	d5, d3, d1
    1e10:	00005101 	andeq	r5, r0, r1, lsl #2
    1e14:	00061330 	andeq	r1, r6, r0, lsr r3
    1e18:	0c410100 	stfeqe	f0, [r1], {-0}
    1e1c:	00000025 	andeq	r0, r0, r5, lsr #32
    1e20:	0000813c 	andeq	r8, r0, ip, lsr r1
    1e24:	0000010c 	andeq	r0, r0, ip, lsl #2
    1e28:	143b9c01 	ldrtne	r9, [fp], #-3073	; 0xfffff3ff
    1e2c:	70310000 	eorsvc	r0, r1, r0
    1e30:	24410100 	strbcs	r0, [r1], #-256	; 0xffffff00
    1e34:	0000012f 	andeq	r0, r0, pc, lsr #2
    1e38:	00000431 	andeq	r0, r0, r1, lsr r4
    1e3c:	00000429 	andeq	r0, r0, r9, lsr #8
    1e40:	00068a2b 	andeq	r8, r6, fp, lsr #20
    1e44:	30410100 	subcc	r0, r1, r0, lsl #2
    1e48:	0000002c 	andeq	r0, r0, ip, lsr #32
    1e4c:	0000046b 	andeq	r0, r0, fp, ror #8
    1e50:	00000465 	andeq	r0, r0, r5, ror #8
    1e54:	01006831 	tsteq	r0, r1, lsr r8
    1e58:	0c9a3f41 	ldceq	15, cr3, [sl], {65}	; 0x41
    1e5c:	049d0000 	ldreq	r0, [sp], #0
    1e60:	04970000 	ldreq	r0, [r7], #0
    1e64:	692c0000 	stmdbvs	ip!, {}	; <UNPREDICTABLE>
    1e68:	09420100 	stmdbeq	r2, {r8}^
    1e6c:	00000025 	andeq	r0, r0, r5, lsr #32
    1e70:	000004cc 	andeq	r0, r0, ip, asr #9
    1e74:	000004c6 	andeq	r0, r0, r6, asr #9
    1e78:	00816433 	addeq	r6, r1, r3, lsr r4
    1e7c:	0000c000 	andeq	ip, r0, r0
    1e80:	05e12600 	strbeq	r2, [r1, #1536]!	; 0x600
    1e84:	45010000 	strmi	r0, [r1, #-0]
    1e88:	00002511 	andeq	r2, r0, r1, lsl r5
    1e8c:	0004f800 	andeq	pc, r4, r0, lsl #16
    1e90:	0004f600 	andeq	pc, r4, r0, lsl #12
    1e94:	19243400 	stmdbne	r4!, {sl, ip, sp}
    1e98:	81980000 	orrshi	r0, r8, r0
    1e9c:	00010000 	andeq	r0, r1, r0
    1ea0:	01000000 	mrseq	r0, (UNDEF: 0)
    1ea4:	13b00d46 	movsne	r0, #4480	; 0x1180
    1ea8:	31350000 	teqcc	r5, r0
    1eac:	0f000019 	svceq	0x00000019
    1eb0:	0b000005 	bleq	1ecc <_start-0x6134>
    1eb4:	36000005 	strcc	r0, [r0], -r5
    1eb8:	00000000 	andeq	r0, r0, r0
    1ebc:	00193b37 	andseq	r3, r9, r7, lsr fp
    1ec0:	00053100 	andeq	r3, r5, r0, lsl #2
    1ec4:	00052d00 	andeq	r2, r5, r0, lsl #26
    1ec8:	81a02800 	lslhi	r2, r0, #16
    1ecc:	194c0000 	stmdbne	ip, {}^	; <UNPREDICTABLE>
    1ed0:	13450000 	movtne	r0, #20480	; 0x5000
    1ed4:	01290000 			; <UNDEFINED> instruction: 0x01290000
    1ed8:	00770250 	rsbseq	r0, r7, r0, asr r2
    1edc:	81ac2800 			; <UNDEFINED> instruction: 0x81ac2800
    1ee0:	194c0000 	stmdbne	ip, {}^	; <UNPREDICTABLE>
    1ee4:	135c0000 	cmpne	ip, #0
    1ee8:	01290000 			; <UNDEFINED> instruction: 0x01290000
    1eec:	48030550 	stmdami	r3, {r4, r6, r8, sl}
    1ef0:	00000097 	muleq	r0, r7, r0
    1ef4:	0081c028 	addeq	ip, r1, r8, lsr #32
    1ef8:	00194c00 	andseq	r4, r9, r0, lsl #24
    1efc:	00137000 	andseq	r7, r3, r0
    1f00:	50012900 	andpl	r2, r1, r0, lsl #18
    1f04:	00007702 	andeq	r7, r0, r2, lsl #14
    1f08:	0081d428 	addeq	sp, r1, r8, lsr #8
    1f0c:	00194c00 	andseq	r4, r9, r0, lsl #24
    1f10:	00138700 	andseq	r8, r3, r0, lsl #14
    1f14:	50012900 	andpl	r2, r1, r0, lsl #18
    1f18:	97540305 	ldrbls	r0, [r4, -r5, lsl #6]
    1f1c:	28000000 	stmdacs	r0, {}	; <UNPREDICTABLE>
    1f20:	0000820c 	andeq	r8, r0, ip, lsl #4
    1f24:	0000194c 	andeq	r1, r0, ip, asr #18
    1f28:	0000139b 	muleq	r0, fp, r3
    1f2c:	02500129 	subseq	r0, r0, #1073741834	; 0x4000000a
    1f30:	2a000077 	bcs	2114 <_start-0x5eec>
    1f34:	00008220 	andeq	r8, r0, r0, lsr #4
    1f38:	0000194c 	andeq	r1, r0, ip, asr #18
    1f3c:	05500129 	ldrbeq	r0, [r0, #-297]	; 0xfffffed7
    1f40:	00977403 	addseq	r7, r7, r3, lsl #8
    1f44:	00000000 	andeq	r0, r0, r0
    1f48:	00816c28 	addeq	r6, r1, r8, lsr #24
    1f4c:	00180a00 	andseq	r0, r8, r0, lsl #20
    1f50:	0013c400 	andseq	ip, r3, r0, lsl #8
    1f54:	50012900 	andpl	r2, r1, r0, lsl #18
    1f58:	00007602 	andeq	r7, r0, r2, lsl #12
    1f5c:	00818028 	addeq	r8, r1, r8, lsr #32
    1f60:	00194c00 	andseq	r4, r9, r0, lsl #24
    1f64:	0013d800 	andseq	sp, r3, r0, lsl #16
    1f68:	50012900 	andpl	r2, r1, r0, lsl #18
    1f6c:	00007702 	andeq	r7, r0, r2, lsl #14
    1f70:	00818828 	addeq	r8, r1, r8, lsr #16
    1f74:	00194c00 	andseq	r4, r9, r0, lsl #24
    1f78:	0013ef00 	andseq	lr, r3, r0, lsl #30
    1f7c:	50012900 	andpl	r2, r1, r0, lsl #18
    1f80:	971c0305 	ldrls	r0, [ip, -r5, lsl #6]
    1f84:	28000000 	stmdacs	r0, {}	; <UNPREDICTABLE>
    1f88:	00008198 	muleq	r0, r8, r1
    1f8c:	0000194c 	andeq	r1, r0, ip, asr #18
    1f90:	00001412 	andeq	r1, r0, r2, lsl r4
    1f94:	05500129 	ldrbeq	r0, [r0, #-297]	; 0xfffffed7
    1f98:	00972403 	addseq	r2, r7, r3, lsl #8
    1f9c:	51012900 	tstpl	r1, r0, lsl #18
    1fa0:	29007502 	stmdbcs	r0, {r1, r8, sl, ip, sp, lr}
    1fa4:	74025201 	strvc	r5, [r2], #-513	; 0xfffffdff
    1fa8:	e8280000 	stmda	r8!, {}	; <UNPREDICTABLE>
    1fac:	4c000081 	stcmi	0, cr0, [r0], {129}	; 0x81
    1fb0:	26000019 			; <UNDEFINED> instruction: 0x26000019
    1fb4:	29000014 	stmdbcs	r0, {r2, r4}
    1fb8:	77025001 	strvc	r5, [r2, -r1]
    1fbc:	f02a0000 			; <UNDEFINED> instruction: 0xf02a0000
    1fc0:	4c000081 	stcmi	0, cr0, [r0], {129}	; 0x81
    1fc4:	29000019 	stmdbcs	r0, {r0, r3, r4}
    1fc8:	03055001 	movweq	r5, #20481	; 0x5001
    1fcc:	00009790 	muleq	r0, r0, r7
    1fd0:	30000000 	andcc	r0, r0, r0
    1fd4:	000006af 	andeq	r0, r0, pc, lsr #13
    1fd8:	250c3401 	strcs	r3, [ip, #-1025]	; 0xfffffbff
    1fdc:	68000000 	stmdavs	r0, {}	; <UNPREDICTABLE>
    1fe0:	fc000083 	stc2	0, cr0, [r0], {131}	; 0x83
    1fe4:	01000000 	mrseq	r0, (UNDEF: 0)
    1fe8:	0015c99c 	mulseq	r5, ip, r9
    1fec:	00703100 	rsbseq	r3, r0, r0, lsl #2
    1ff0:	2f1c3401 	svccs	0x001c3401
    1ff4:	5b000001 	blpl	2000 <_start-0x6000>
    1ff8:	53000005 	movwpl	r0, #5
    1ffc:	2b000005 	blcs	2018 <_start-0x5fe8>
    2000:	0000068a 	andeq	r0, r0, sl, lsl #13
    2004:	2c283401 	cfstrscs	mvf3, [r8], #-4
    2008:	95000000 	strls	r0, [r0, #-0]
    200c:	8f000005 	svchi	0x00000005
    2010:	31000005 	tstcc	r0, r5
    2014:	34010068 	strcc	r0, [r1], #-104	; 0xffffff98
    2018:	000c9a37 	andeq	r9, ip, r7, lsr sl
    201c:	0005c700 	andeq	ip, r5, r0, lsl #14
    2020:	0005c100 	andeq	ip, r5, r0, lsl #2
    2024:	00692c00 	rsbeq	r2, r9, r0, lsl #24
    2028:	25093501 	strcs	r3, [r9, #-1281]	; 0xfffffaff
    202c:	f6000000 			; <UNDEFINED> instruction: 0xf6000000
    2030:	f0000005 			; <UNDEFINED> instruction: 0xf0000005
    2034:	33000005 	movwcc	r0, #5
    2038:	00008390 	muleq	r0, r0, r3
    203c:	000000b4 	strheq	r0, [r0], -r4
    2040:	0005e126 	andeq	lr, r5, r6, lsr #2
    2044:	11380100 	teqne	r8, r0, lsl #2
    2048:	00000025 	andeq	r0, r0, r5, lsr #32
    204c:	00000622 	andeq	r0, r0, r2, lsr #12
    2050:	00000620 	andeq	r0, r0, r0, lsr #12
    2054:	00192434 	andseq	r2, r9, r4, lsr r4
    2058:	0083c800 	addeq	ip, r3, r0, lsl #16
    205c:	00300100 	eorseq	r0, r0, r0, lsl #2
    2060:	39010000 	stmdbcc	r1, {}	; <UNPREDICTABLE>
    2064:	00156f0d 	andseq	r6, r5, sp, lsl #30
    2068:	19313500 	ldmdbne	r1!, {r8, sl, ip, sp}
    206c:	06370000 	ldrteq	r0, [r7], -r0
    2070:	06350000 	ldrteq	r0, [r5], -r0
    2074:	30360000 	eorscc	r0, r6, r0
    2078:	37000000 	strcc	r0, [r0, -r0]
    207c:	0000193b 	andeq	r1, r0, fp, lsr r9
    2080:	0000064e 	andeq	r0, r0, lr, asr #12
    2084:	0000064a 	andeq	r0, r0, sl, asr #12
    2088:	0083d028 	addeq	sp, r3, r8, lsr #32
    208c:	00194c00 	andseq	r4, r9, r0, lsl #24
    2090:	00150400 	andseq	r0, r5, r0, lsl #8
    2094:	50012900 	andpl	r2, r1, r0, lsl #18
    2098:	00007702 	andeq	r7, r0, r2, lsl #14
    209c:	0083dc28 	addeq	sp, r3, r8, lsr #24
    20a0:	00194c00 	andseq	r4, r9, r0, lsl #24
    20a4:	00151b00 	andseq	r1, r5, r0, lsl #22
    20a8:	50012900 	andpl	r2, r1, r0, lsl #18
    20ac:	97480305 	strbls	r0, [r8, -r5, lsl #6]
    20b0:	28000000 	stmdacs	r0, {}	; <UNPREDICTABLE>
    20b4:	000083f0 	strdeq	r8, [r0], -r0
    20b8:	0000194c 	andeq	r1, r0, ip, asr #18
    20bc:	0000152f 	andeq	r1, r0, pc, lsr #10
    20c0:	02500129 	subseq	r0, r0, #1073741834	; 0x4000000a
    20c4:	28000077 	stmdacs	r0, {r0, r1, r2, r4, r5, r6}
    20c8:	00008404 	andeq	r8, r0, r4, lsl #8
    20cc:	0000194c 	andeq	r1, r0, ip, asr #18
    20d0:	00001546 	andeq	r1, r0, r6, asr #10
    20d4:	05500129 	ldrbeq	r0, [r0, #-297]	; 0xfffffed7
    20d8:	00975403 	addseq	r5, r7, r3, lsl #8
    20dc:	2c280000 	stccs	0, cr0, [r8], #-0
    20e0:	4c000084 	stcmi	0, cr0, [r0], {132}	; 0x84
    20e4:	5a000019 	bpl	2150 <_start-0x5eb0>
    20e8:	29000015 	stmdbcs	r0, {r0, r2, r4}
    20ec:	77025001 	strvc	r5, [r2, -r1]
    20f0:	402a0000 	eormi	r0, sl, r0
    20f4:	4c000084 	stcmi	0, cr0, [r0], {132}	; 0x84
    20f8:	29000019 	stmdbcs	r0, {r0, r3, r4}
    20fc:	03055001 	movweq	r5, #20481	; 0x5001
    2100:	00009774 	andeq	r9, r0, r4, ror r7
    2104:	28000000 	stmdacs	r0, {}	; <UNPREDICTABLE>
    2108:	00008398 	muleq	r0, r8, r3
    210c:	0000180a 	andeq	r1, r0, sl, lsl #16
    2110:	00001583 	andeq	r1, r0, r3, lsl #11
    2114:	02500129 	subseq	r0, r0, #1073741834	; 0x4000000a
    2118:	28000076 	stmdacs	r0, {r1, r2, r4, r5, r6}
    211c:	000083ac 	andeq	r8, r0, ip, lsr #7
    2120:	0000194c 	andeq	r1, r0, ip, asr #18
    2124:	00001597 	muleq	r0, r7, r5
    2128:	02500129 	subseq	r0, r0, #1073741834	; 0x4000000a
    212c:	28000077 	stmdacs	r0, {r0, r1, r2, r4, r5, r6}
    2130:	000083b4 			; <UNDEFINED> instruction: 0x000083b4
    2134:	0000194c 	andeq	r1, r0, ip, asr #18
    2138:	000015ae 	andeq	r1, r0, lr, lsr #11
    213c:	05500129 	ldrbeq	r0, [r0, #-297]	; 0xfffffed7
    2140:	00971c03 	addseq	r1, r7, r3, lsl #24
    2144:	c82a0000 	stmdagt	sl!, {}	; <UNPREDICTABLE>
    2148:	4c000083 	stcmi	0, cr0, [r0], {131}	; 0x83
    214c:	29000019 	stmdbcs	r0, {r0, r3, r4}
    2150:	03055001 	movweq	r5, #20481	; 0x5001
    2154:	00009724 	andeq	r9, r0, r4, lsr #14
    2158:	02520129 	subseq	r0, r2, #1073741834	; 0x4000000a
    215c:	00000074 	andeq	r0, r0, r4, ror r0
    2160:	06243000 	strteq	r3, [r4], -r0
    2164:	2a010000 	bcs	4216c <__bss_end__+0x3810c>
    2168:	0000250c 	andeq	r2, r0, ip, lsl #10
    216c:	00828000 	addeq	r8, r2, r0
    2170:	0000e800 	andeq	lr, r0, r0, lsl #16
    2174:	069c0100 	ldreq	r0, [ip], r0, lsl #2
    2178:	31000017 	tstcc	r0, r7, lsl r0
    217c:	2a010068 	bcs	42324 <__bss_end__+0x382c4>
    2180:	000c9a1d 	andeq	r9, ip, sp, lsl sl
    2184:	00067400 	andeq	r7, r6, r0, lsl #8
    2188:	00067000 	andeq	r7, r6, r0
    218c:	19243400 	stmdbne	r4!, {sl, ip, sp}
    2190:	82cc0000 	sbchi	r0, ip, #0
    2194:	18010000 	stmdane	r1, {}	; <UNPREDICTABLE>
    2198:	01000000 	mrseq	r0, (UNDEF: 0)
    219c:	16a8092d 	strtne	r0, [r8], sp, lsr #18
    21a0:	31350000 	teqcc	r5, r0
    21a4:	94000019 	strls	r0, [r0], #-25	; 0xffffffe7
    21a8:	92000006 	andls	r0, r0, #6
    21ac:	36000006 	strcc	r0, [r0], -r6
    21b0:	00000018 	andeq	r0, r0, r8, lsl r0
    21b4:	00193b37 	andseq	r3, r9, r7, lsr fp
    21b8:	0006ab00 	andeq	sl, r6, r0, lsl #22
    21bc:	0006a700 	andeq	sl, r6, r0, lsl #14
    21c0:	82d42800 	sbcshi	r2, r4, #0, 16
    21c4:	194c0000 	stmdbne	ip, {}^	; <UNPREDICTABLE>
    21c8:	163d0000 	ldrtne	r0, [sp], -r0
    21cc:	01290000 			; <UNDEFINED> instruction: 0x01290000
    21d0:	00750250 	rsbseq	r0, r5, r0, asr r2
    21d4:	82e02800 	rschi	r2, r0, #0, 16
    21d8:	194c0000 	stmdbne	ip, {}^	; <UNPREDICTABLE>
    21dc:	16540000 	ldrbne	r0, [r4], -r0
    21e0:	01290000 			; <UNDEFINED> instruction: 0x01290000
    21e4:	48030550 	stmdami	r3, {r4, r6, r8, sl}
    21e8:	00000097 	muleq	r0, r7, r0
    21ec:	0082f428 	addeq	pc, r2, r8, lsr #8
    21f0:	00194c00 	andseq	r4, r9, r0, lsl #24
    21f4:	00166800 	andseq	r6, r6, r0, lsl #16
    21f8:	50012900 	andpl	r2, r1, r0, lsl #18
    21fc:	00007502 	andeq	r7, r0, r2, lsl #10
    2200:	00830828 	addeq	r0, r3, r8, lsr #16
    2204:	00194c00 	andseq	r4, r9, r0, lsl #24
    2208:	00167f00 	andseq	r7, r6, r0, lsl #30
    220c:	50012900 	andpl	r2, r1, r0, lsl #18
    2210:	97540305 	ldrbls	r0, [r4, -r5, lsl #6]
    2214:	28000000 	stmdacs	r0, {}	; <UNPREDICTABLE>
    2218:	00008330 	andeq	r8, r0, r0, lsr r3
    221c:	0000194c 	andeq	r1, r0, ip, asr #18
    2220:	00001693 	muleq	r0, r3, r6
    2224:	02500129 	subseq	r0, r0, #1073741834	; 0x4000000a
    2228:	2a000075 	bcs	2404 <_start-0x5bfc>
    222c:	00008344 	andeq	r8, r0, r4, asr #6
    2230:	0000194c 	andeq	r1, r0, ip, asr #18
    2234:	05500129 	ldrbeq	r0, [r0, #-297]	; 0xfffffed7
    2238:	00977403 	addseq	r7, r7, r3, lsl #8
    223c:	00000000 	andeq	r0, r0, r0
    2240:	0082a028 	addeq	sl, r2, r8, lsr #32
    2244:	00170600 	andseq	r0, r7, r0, lsl #12
    2248:	0016bc00 	andseq	fp, r6, r0, lsl #24
    224c:	50012900 	andpl	r2, r1, r0, lsl #18
    2250:	00007402 	andeq	r7, r0, r2, lsl #8
    2254:	0082b428 	addeq	fp, r2, r8, lsr #8
    2258:	00194c00 	andseq	r4, r9, r0, lsl #24
    225c:	0016d000 	andseq	sp, r6, r0
    2260:	50012900 	andpl	r2, r1, r0, lsl #18
    2264:	00007502 	andeq	r7, r0, r2, lsl #10
    2268:	0082bc28 	addeq	fp, r2, r8, lsr #24
    226c:	00194c00 	andseq	r4, r9, r0, lsl #24
    2270:	0016e700 	andseq	lr, r6, r0, lsl #14
    2274:	50012900 	andpl	r2, r1, r0, lsl #18
    2278:	971c0305 	ldrls	r0, [ip, -r5, lsl #6]
    227c:	2a000000 	bcs	2284 <_start-0x5d7c>
    2280:	000082cc 	andeq	r8, r0, ip, asr #5
    2284:	0000194c 	andeq	r1, r0, ip, asr #18
    2288:	05500129 	ldrbeq	r0, [r0, #-297]	; 0xfffffed7
    228c:	00972403 	addseq	r2, r7, r3, lsl #8
    2290:	51012900 	tstpl	r1, r0, lsl #18
    2294:	29007402 	stmdbcs	r0, {r1, sl, ip, sp, lr}
    2298:	30015201 	andcc	r5, r1, r1, lsl #4
    229c:	f0300000 			; <UNDEFINED> instruction: 0xf0300000
    22a0:	01000005 	tsteq	r0, r5
    22a4:	00691121 	rsbeq	r1, r9, r1, lsr #2
    22a8:	825c0000 	subshi	r0, ip, #0
    22ac:	00240000 	eoreq	r0, r4, r0
    22b0:	9c010000 	stcls	0, cr0, [r1], {-0}
    22b4:	00001771 	andeq	r1, r0, r1, ror r7
    22b8:	01006831 	tsteq	r0, r1, lsr r8
    22bc:	0c9a2221 	lfmeq	f2, 4, [sl], {33}	; 0x21
    22c0:	06d10000 	ldrbeq	r0, [r1], r0
    22c4:	06cd0000 	strbeq	r0, [sp], r0
    22c8:	6f2c0000 	svcvs	0x002c0000
    22cc:	0100646c 	tsteq	r0, ip, ror #8
    22d0:	002c0e22 	eoreq	r0, ip, r2, lsr #28
    22d4:	06f10000 	ldrbteq	r0, [r1], r0
    22d8:	06ef0000 	strbteq	r0, [pc], r0
    22dc:	f4260000 	vld4.8	{d0-d3}, [r6], r0
    22e0:	01000005 	tsteq	r0, r5
    22e4:	00690e24 	rsbeq	r0, r9, r4, lsr #28
    22e8:	07060000 	streq	r0, [r6, -r0]
    22ec:	07040000 	streq	r0, [r4, -r0]
    22f0:	782a0000 	stmdavc	sl!, {}	; <UNPREDICTABLE>
    22f4:	7c000082 	stcvc	0, cr0, [r0], {130}	; 0x82
    22f8:	29000019 	stmdbcs	r0, {r0, r3, r4}
    22fc:	74025001 	strvc	r5, [r2], #-1
    2300:	51012900 	tstpl	r1, r0, lsl #18
    2304:	00380802 	eorseq	r0, r8, r2, lsl #16
    2308:	05c93000 	strbeq	r3, [r9]
    230c:	1c010000 	stcne	0, cr0, [r1], {-0}
    2310:	000c9a0f 	andeq	r9, ip, pc, lsl #20
    2314:	00813400 	addeq	r3, r1, r0, lsl #8
    2318:	00000800 	andeq	r0, r0, r0, lsl #16
    231c:	a09c0100 	addsge	r0, ip, r0, lsl #2
    2320:	2b000017 	blcs	2384 <_start-0x5c7c>
    2324:	00000c41 	andeq	r0, r0, r1, asr #24
    2328:	2d231c01 	stccs	12, cr1, [r3, #-4]!
    232c:	1d000001 	stcne	0, cr0, [r0, #-4]
    2330:	19000007 	stmdbne	r0, {r0, r1, r2}
    2334:	00000007 	andeq	r0, r0, r7
    2338:	00068430 	andeq	r8, r6, r0, lsr r4
    233c:	11190100 	tstne	r9, r0, lsl #2
    2340:	0000002c 	andeq	r0, r0, ip, lsr #32
    2344:	00008128 	andeq	r8, r0, r8, lsr #2
    2348:	0000000c 	andeq	r0, r0, ip
    234c:	17cd9c01 	strbne	r9, [sp, r1, lsl #24]
    2350:	68310000 	ldmdavs	r1!, {}	; <UNPREDICTABLE>
    2354:	25190100 	ldrcs	r0, [r9, #-256]	; 0xffffff00
    2358:	00000c9a 	muleq	r0, sl, ip
    235c:	00000742 	andeq	r0, r0, r2, asr #14
    2360:	0000073e 	andeq	r0, r0, lr, lsr r7
    2364:	062e3000 	strteq	r3, [lr], -r0
    2368:	17010000 	strne	r0, [r1, -r0]
    236c:	00012d0e 	andeq	r2, r1, lr, lsl #26
    2370:	00811000 	addeq	r1, r1, r0
    2374:	00001800 	andeq	r1, r0, r0, lsl #16
    2378:	0a9c0100 	beq	fe702780 <__bss_end__+0xfe6f8720>
    237c:	31000018 	tstcc	r0, r8, lsl r0
    2380:	17010068 	strne	r0, [r1, -r8, rrx]
    2384:	000c9a1f 	andeq	r9, ip, pc, lsl sl
    2388:	00076700 	andeq	r6, r7, r0, lsl #14
    238c:	00076300 	andeq	r6, r7, r0, lsl #6
    2390:	811c2a00 	tsthi	ip, r0, lsl #20
    2394:	180a0000 	stmdane	sl, {}	; <UNPREDICTABLE>
    2398:	01290000 			; <UNDEFINED> instruction: 0x01290000
    239c:	00740250 	rsbseq	r0, r4, r0, asr r2
    23a0:	07300000 	ldreq	r0, [r0, -r0]!
    23a4:	01000006 	tsteq	r0, r6
    23a8:	012d0e15 			; <UNDEFINED> instruction: 0x012d0e15
    23ac:	81000000 	mrshi	r0, (UNDEF: 0)
    23b0:	00100000 	andseq	r0, r0, r0
    23b4:	9c010000 	stcls	0, cr0, [r1], {-0}
    23b8:	00001848 	andeq	r1, r0, r8, asr #16
    23bc:	01006831 	tsteq	r0, r1, lsr r8
    23c0:	0c9a2115 	ldfeqs	f2, [sl], {21}
    23c4:	07890000 	streq	r0, [r9, r0]
    23c8:	07850000 	streq	r0, [r5, r0]
    23cc:	082a0000 	stmdaeq	sl!, {}	; <UNPREDICTABLE>
    23d0:	48000081 	stmdami	r0, {r0, r7}
    23d4:	29000018 	stmdbcs	r0, {r3, r4}
    23d8:	f3035001 	vhadd.u8	d5, d3, d1
    23dc:	00005001 	andeq	r5, r0, r1
    23e0:	00056430 	andeq	r6, r5, r0, lsr r4
    23e4:	0e130100 	mufeqs	f0, f3, f0
    23e8:	0000012d 	andeq	r0, r0, sp, lsr #2
    23ec:	000080f8 	strdeq	r8, [r0], -r8	; <UNPREDICTABLE>
    23f0:	00000008 	andeq	r0, r0, r8
    23f4:	18759c01 	ldmdane	r5!, {r0, sl, fp, ip, pc}^
    23f8:	68310000 	ldmdavs	r1!, {}	; <UNPREDICTABLE>
    23fc:	1f130100 	svcne	0x00130100
    2400:	00000c9a 	muleq	r0, sl, ip
    2404:	000007ae 	andeq	r0, r0, lr, lsr #15
    2408:	000007aa 	andeq	r0, r0, sl, lsr #15
    240c:	01352f00 	teqeq	r5, r0, lsl #30
    2410:	09010000 	stmdbeq	r1, {}	; <UNPREDICTABLE>
    2414:	0084c806 	addeq	ip, r4, r6, lsl #16
    2418:	00007400 	andeq	r7, r0, r0, lsl #8
    241c:	249c0100 	ldrcs	r0, [ip], #256	; 0x100
    2420:	2b000019 	blcs	248c <_start-0x5b74>
    2424:	00000c3a 	andeq	r0, r0, sl, lsr ip
    2428:	2d140901 	vldrcs.16	s0, [r4, #-2]	; <UNPREDICTABLE>
    242c:	d8000001 	stmdale	r0, {r0}
    2430:	ce000007 	cdpgt	0, 0, cr0, cr0, cr7, {0}
    2434:	31000007 	tstcc	r0, r7
    2438:	0901006e 	stmdbeq	r1, {r1, r2, r3, r5, r6}
    243c:	00002c24 	andeq	r2, r0, r4, lsr #24
    2440:	00082600 	andeq	r2, r8, r0, lsl #12
    2444:	00081e00 	andeq	r1, r8, r0, lsl #28
    2448:	020e2d00 	andeq	r2, lr, #0, 26
    244c:	10040000 	andne	r0, r4, r0
    2450:	03050000 	movweq	r0, #20480	; 0x5000
    2454:	00009a08 	andeq	r9, r0, r8, lsl #20
    2458:	0084f428 	addeq	pc, r4, r8, lsr #8
    245c:	00194c00 	andseq	r4, r9, r0, lsl #24
    2460:	0018e300 	andseq	lr, r8, r0, lsl #6
    2464:	50012900 	andpl	r2, r1, r0, lsl #18
    2468:	97e00305 	strbls	r0, [r0, r5, lsl #6]!
    246c:	01290000 			; <UNDEFINED> instruction: 0x01290000
    2470:	38080251 	stmdacc	r8, {r0, r4, r6, r9}
    2474:	02520129 	subseq	r0, r2, #1073741834	; 0x4000000a
    2478:	2e008008 	cdpcs	0, 0, cr8, cr0, cr8, {0}
    247c:	00008510 	andeq	r8, r0, r0, lsl r5
    2480:	00001958 	andeq	r1, r0, r8, asr r9
    2484:	00852428 	addeq	r2, r5, r8, lsr #8
    2488:	00194c00 	andseq	r4, r9, r0, lsl #24
    248c:	00191a00 	andseq	r1, r9, r0, lsl #20
    2490:	50012900 	andpl	r2, r1, r0, lsl #18
    2494:	97b80305 	ldrls	r0, [r8, r5, lsl #6]!
    2498:	01290000 			; <UNDEFINED> instruction: 0x01290000
    249c:	ac030551 	cfstr32ge	mvfx0, [r3], {81}	; 0x51
    24a0:	29000097 	stmdbcs	r0, {r0, r1, r2, r4, r7}
    24a4:	03055201 	movweq	r5, #20993	; 0x5201
    24a8:	00009a08 	andeq	r9, r0, r8, lsl #20
    24ac:	01530129 	cmpeq	r3, r9, lsr #2
    24b0:	282e003a 	stmdacs	lr!, {r1, r3, r4, r5}
    24b4:	64000085 	strvs	r0, [r0], #-133	; 0xffffff7b
    24b8:	00000019 	andeq	r0, r0, r9, lsl r0
    24bc:	00065938 	andeq	r5, r6, r8, lsr r9
    24c0:	14550200 	ldrbne	r0, [r5], #-512	; 0xfffffe00
    24c4:	00194603 	andseq	r4, r9, r3, lsl #12
    24c8:	00683900 	rsbeq	r3, r8, r0, lsl #18
    24cc:	9a255502 	bls	9578dc <__bss_end__+0x94d87c>
    24d0:	3a00000c 	bcc	2508 <_start-0x5af8>
    24d4:	5702006c 	strpl	r0, [r2, -ip, rrx]
    24d8:	00194610 	andseq	r4, r9, r0, lsl r6
    24dc:	04050000 	streq	r0, [r5], #-0
    24e0:	000009b3 			; <UNDEFINED> instruction: 0x000009b3
    24e4:	00070a3b 	andeq	r0, r7, fp, lsr sl
    24e8:	00070a00 	andeq	r0, r7, r0, lsl #20
    24ec:	05290800 	streq	r0, [r9, #-2048]!	; 0xfffff800
    24f0:	0001e93b 	andeq	lr, r1, fp, lsr r9
    24f4:	0001e900 	andeq	lr, r1, r0, lsl #18
    24f8:	061e0800 	ldreq	r0, [lr], -r0, lsl #16
    24fc:	00028d3b 	andeq	r8, r2, fp, lsr sp
    2500:	00028d00 	andeq	r8, r2, r0, lsl #26
    2504:	06650800 	strbteq	r0, [r5], -r0, lsl #16
    2508:	00067d3b 	andeq	r7, r6, fp, lsr sp
    250c:	00067d00 	andeq	r7, r6, r0, lsl #26
    2510:	09210900 	stmdbeq	r1!, {r8, fp}
    2514:	0005513b 	andeq	r5, r5, fp, lsr r1
    2518:	00055100 	andeq	r5, r5, r0, lsl #2
    251c:	0a050a00 	beq	144d24 <__bss_end__+0x13acc4>
    2520:	0009fe00 	andeq	pc, r9, r0, lsl #28
    2524:	ac000400 	cfstrsge	mvf0, [r0], {-0}
    2528:	04000005 	streq	r0, [r0], #-5
    252c:	0002ef01 	andeq	lr, r2, r1, lsl #30
    2530:	06c00c00 	strbeq	r0, [r0], r0, lsl #24
    2534:	06cc0000 	strbeq	r0, [ip], r0
    2538:	89600000 	stmdbhi	r0!, {}^	; <UNPREDICTABLE>
    253c:	00ec0000 	rsceq	r0, ip, r0
    2540:	08570000 	ldmdaeq	r7, {}^	; <UNPREDICTABLE>
    2544:	04020000 	streq	r0, [r2], #-0
    2548:	746e6905 	strbtvc	r6, [lr], #-2309	; 0xfffff6fb
    254c:	07040300 	streq	r0, [r4, -r0, lsl #6]
    2550:	00000066 	andeq	r0, r0, r6, rrx
    2554:	de060103 	adfles	f0, f6, f3
    2558:	03000002 	movweq	r0, #2
    255c:	03770502 	cmneq	r7, #8388608	; 0x800000
    2560:	04030000 	streq	r0, [r3], #-0
    2564:	0000ac05 	andeq	sl, r0, r5, lsl #24
    2568:	05080300 	streq	r0, [r8, #-768]	; 0xfffffd00
    256c:	000000a7 	andeq	r0, r0, r7, lsr #1
    2570:	00069104 	andeq	r9, r6, r4, lsl #2
    2574:	182e0200 	stmdane	lr!, {r9}
    2578:	0000005b 	andeq	r0, r0, fp, asr r0
    257c:	dc080103 	stfles	f0, [r8], {3}
    2580:	03000002 	movweq	r0, #2
    2584:	02220702 	eoreq	r0, r2, #524288	; 0x80000
    2588:	48040000 	stmdami	r4, {}	; <UNPREDICTABLE>
    258c:	02000006 	andeq	r0, r0, #6
    2590:	00751934 	rsbseq	r1, r5, r4, lsr r9
    2594:	04030000 	streq	r0, [r3], #-0
    2598:	00006107 	andeq	r6, r0, r7, lsl #2
    259c:	07080300 	streq	r0, [r8, -r0, lsl #6]
    25a0:	0000005c 	andeq	r0, r0, ip, asr r0
    25a4:	00026504 	andeq	r6, r2, r4, lsl #10
    25a8:	19220300 	stmdbne	r2!, {r8, r9}
    25ac:	0000008f 	andeq	r0, r0, pc, lsl #1
    25b0:	00950405 	addseq	r0, r5, r5, lsl #8
    25b4:	21060000 	mrscs	r0, (UNDEF: 6)
    25b8:	04000004 	streq	r0, [r0], #-4
    25bc:	000002bd 			; <UNDEFINED> instruction: 0x000002bd
    25c0:	410e2c04 	tstmi	lr, r4, lsl #24
    25c4:	04000000 	streq	r0, [r0], #-0
    25c8:	00000436 	andeq	r0, r0, r6, lsr r4
    25cc:	410e7204 	tstmi	lr, r4, lsl #4
    25d0:	07000000 	streq	r0, [r0, -r0]
    25d4:	0000026d 	andeq	r0, r0, sp, ror #4
    25d8:	17015e05 	strne	r5, [r1, -r5, lsl #28]
    25dc:	0000002c 	andeq	r0, r0, ip, lsr #32
    25e0:	a6040408 	strge	r0, [r4], -r8, lsl #8
    25e4:	0000e103 	andeq	lr, r0, r3, lsl #2
    25e8:	025f0900 	subseq	r0, pc, #0, 18
    25ec:	a8040000 	stmdage	r4, {}	; <UNPREDICTABLE>
    25f0:	0000b20c 	andeq	fp, r0, ip, lsl #4
    25f4:	01e20900 	mvneq	r0, r0, lsl #18
    25f8:	a9040000 	stmdbge	r4, {}	; <UNPREDICTABLE>
    25fc:	0000e113 	andeq	lr, r0, r3, lsl r1
    2600:	5b0a0000 	blpl	282608 <__bss_end__+0x2785a8>
    2604:	f1000000 	cps	#0
    2608:	0b000000 	bleq	2610 <_start-0x59f0>
    260c:	0000002c 	andeq	r0, r0, ip, lsr #32
    2610:	080c0003 	stmdaeq	ip, {r0, r1}
    2614:	1509a304 	strne	sl, [r9, #-772]	; 0xfffffcfc
    2618:	0d000001 	stceq	0, cr0, [r0, #-4]
    261c:	00000419 	andeq	r0, r0, r9, lsl r4
    2620:	2507a504 	strcs	sl, [r7, #-1284]	; 0xfffffafc
    2624:	00000000 	andeq	r0, r0, r0
    2628:	0004280d 	andeq	r2, r4, sp, lsl #16
    262c:	05aa0400 	streq	r0, [sl, #1024]!	; 0x400
    2630:	000000bf 	strheq	r0, [r0], -pc	; <UNPREDICTABLE>
    2634:	a3040004 	movwge	r0, #16388	; 0x4004
    2638:	04000003 	streq	r0, [r0], #-3
    263c:	00f103ab 	rscseq	r0, r1, fp, lsr #7
    2640:	9f040000 	svcls	0x00040000
    2644:	04000001 	streq	r0, [r0], #-1
    2648:	00831baf 	addeq	r1, r3, pc, lsr #23
    264c:	040e0000 	streq	r0, [lr], #-0
    2650:	01350405 	teqeq	r5, r5, lsl #8
    2654:	01030000 	mrseq	r0, (UNDEF: 3)
    2658:	0002e508 	andeq	lr, r2, r8, lsl #10
    265c:	01350f00 	teqeq	r5, r0, lsl #30
    2660:	68040000 	stmdavs	r4, {}	; <UNPREDICTABLE>
    2664:	06000004 	streq	r0, [r0], -r4
    2668:	00751916 	rsbseq	r1, r5, r6, lsl r9
    266c:	b0100000 	andslt	r0, r0, r0
    2670:	18000001 	stmdane	r0, {r0}
    2674:	a7082f06 	strge	r2, [r8, -r6, lsl #30]
    2678:	0d000001 	stceq	0, cr0, [r0, #-4]
    267c:	000003c4 	andeq	r0, r0, r4, asr #7
    2680:	a7133106 	ldrge	r3, [r3, -r6, lsl #2]
    2684:	00000001 	andeq	r0, r0, r1
    2688:	006b5f11 	rsbeq	r5, fp, r1, lsl pc
    268c:	25073206 	strcs	r3, [r7, #-518]	; 0xfffffdfa
    2690:	04000000 	streq	r0, [r0], #-0
    2694:	0004040d 	andeq	r0, r4, sp, lsl #8
    2698:	0b320600 	bleq	c83ea0 <__bss_end__+0xc79e40>
    269c:	00000025 	andeq	r0, r0, r5, lsr #32
    26a0:	01990d08 	orrseq	r0, r9, r8, lsl #26
    26a4:	32060000 	andcc	r0, r6, #0
    26a8:	00002514 	andeq	r2, r0, r4, lsl r5
    26ac:	a80d0c00 	stmdage	sp, {sl, fp}
    26b0:	06000004 	streq	r0, [r0], -r4
    26b4:	00251b32 	eoreq	r1, r5, r2, lsr fp
    26b8:	11100000 	tstne	r0, r0
    26bc:	0600785f 			; <UNDEFINED> instruction: 0x0600785f
    26c0:	01ad0b33 			; <UNDEFINED> instruction: 0x01ad0b33
    26c4:	00140000 	andseq	r0, r4, r0
    26c8:	014d0405 	cmpeq	sp, r5, lsl #8
    26cc:	410a0000 	mrsmi	r0, (UNDEF: 10)
    26d0:	bd000001 	stclt	0, cr0, [r0, #-4]
    26d4:	0b000001 	bleq	26e0 <_start-0x5920>
    26d8:	0000002c 	andeq	r0, r0, ip, lsr #32
    26dc:	dd100000 	ldcle	0, cr0, [r0, #-0]
    26e0:	24000001 	strcs	r0, [r0], #-1
    26e4:	40083706 	andmi	r3, r8, r6, lsl #14
    26e8:	0d000002 	stceq	0, cr0, [r0, #-8]
    26ec:	0000009e 	muleq	r0, lr, r0
    26f0:	25093906 	strcs	r3, [r9, #-2310]	; 0xfffff6fa
    26f4:	00000000 	andeq	r0, r0, r0
    26f8:	00043e0d 	andeq	r3, r4, sp, lsl #28
    26fc:	093a0600 	ldmdbeq	sl!, {r9, sl}
    2700:	00000025 	andeq	r0, r0, r5, lsr #32
    2704:	00c10d04 	sbceq	r0, r1, r4, lsl #26
    2708:	3b060000 	blcc	182710 <__bss_end__+0x1786b0>
    270c:	00002509 	andeq	r2, r0, r9, lsl #10
    2710:	330d0800 	movwcc	r0, #55296	; 0xd800
    2714:	06000005 	streq	r0, [r0], -r5
    2718:	0025093c 	eoreq	r0, r5, ip, lsr r9
    271c:	0d0c0000 	stceq	0, cr0, [ip, #-0]
    2720:	000002a1 	andeq	r0, r0, r1, lsr #5
    2724:	25093d06 	strcs	r3, [r9, #-3334]	; 0xfffff2fa
    2728:	10000000 	andne	r0, r0, r0
    272c:	0002830d 	andeq	r8, r2, sp, lsl #6
    2730:	093e0600 	ldmdbeq	lr!, {r9, sl}
    2734:	00000025 	andeq	r0, r0, r5, lsr #32
    2738:	04ad0d14 	strteq	r0, [sp], #3348	; 0xd14
    273c:	3f060000 	svccc	0x00060000
    2740:	00002509 	andeq	r2, r0, r9, lsl #10
    2744:	290d1800 	stmdbcs	sp, {fp, ip}
    2748:	06000005 	streq	r0, [r0], -r5
    274c:	00250940 	eoreq	r0, r5, r0, asr #18
    2750:	0d1c0000 	ldceq	0, cr0, [ip, #-0]
    2754:	000004f0 	strdeq	r0, [r0], -r0	; <UNPREDICTABLE>
    2758:	25094106 	strcs	r4, [r9, #-262]	; 0xfffffefa
    275c:	20000000 	andcs	r0, r0, r0
    2760:	01011200 	mrseq	r1, R9_usr
    2764:	01080000 	mrseq	r0, (UNDEF: 8)
    2768:	85084a06 	strhi	r4, [r8, #-2566]	; 0xfffff5fa
    276c:	0d000002 	stceq	0, cr0, [r0, #-8]
    2770:	0000018c 	andeq	r0, r0, ip, lsl #3
    2774:	850a4b06 	strhi	r4, [sl, #-2822]	; 0xfffff4fa
    2778:	00000002 	andeq	r0, r0, r2
    277c:	0000000d 	andeq	r0, r0, sp
    2780:	094c0600 	stmdbeq	ip, {r9, sl}^
    2784:	00000285 	andeq	r0, r0, r5, lsl #5
    2788:	045a1380 	ldrbeq	r1, [sl], #-896	; 0xfffffc80
    278c:	4e060000 	cdpmi	0, 0, cr0, cr6, cr0, {0}
    2790:	0001410a 	andeq	r4, r1, sl, lsl #2
    2794:	13010000 	movwne	r0, #4096	; 0x1000
    2798:	00000126 	andeq	r0, r0, r6, lsr #2
    279c:	410a5106 	tstmi	sl, r6, lsl #2
    27a0:	04000001 	streq	r0, [r0], #-1
    27a4:	2d0a0001 	stccs	0, cr0, [sl, #-4]
    27a8:	95000001 	strls	r0, [r0, #-1]
    27ac:	0b000002 	bleq	27bc <_start-0x5844>
    27b0:	0000002c 	andeq	r0, r0, ip, lsr #32
    27b4:	aa12001f 	bge	482838 <__bss_end__+0x4787d8>
    27b8:	90000002 	andls	r0, r0, r2
    27bc:	085d0601 	ldmdaeq	sp, {r0, r9, sl}^
    27c0:	000002d8 	ldrdeq	r0, [r0], -r8
    27c4:	0003c40d 	andeq	ip, r3, sp, lsl #8
    27c8:	125e0600 	subsne	r0, lr, #0, 12
    27cc:	000002d8 	ldrdeq	r0, [r0], -r8
    27d0:	03dc0d00 	bicseq	r0, ip, #0, 26
    27d4:	5f060000 	svcpl	0x00060000
    27d8:	00002506 	andeq	r2, r0, r6, lsl #10
    27dc:	940d0400 	strls	r0, [sp], #-1024	; 0xfffffc00
    27e0:	06000001 	streq	r0, [r0], -r1
    27e4:	02de0961 	sbcseq	r0, lr, #1589248	; 0x184000
    27e8:	0d080000 	stceq	0, cr0, [r8, #-0]
    27ec:	00000101 	andeq	r0, r0, r1, lsl #2
    27f0:	401e6206 	andsmi	r6, lr, r6, lsl #4
    27f4:	88000002 	stmdahi	r0, {r1}
    27f8:	95040500 	strls	r0, [r4, #-1280]	; 0xfffffb00
    27fc:	0a000002 	beq	280c <_start-0x57f4>
    2800:	000002ee 	andeq	r0, r0, lr, ror #5
    2804:	000002ee 	andeq	r0, r0, lr, ror #5
    2808:	00002c0b 	andeq	r2, r0, fp, lsl #24
    280c:	05001f00 	streq	r1, [r0, #-3840]	; 0xfffff100
    2810:	0002f404 	andeq	pc, r2, r4, lsl #8
    2814:	8f101400 	svchi	0x00101400
    2818:	08000003 	stmdaeq	r0, {r0, r1}
    281c:	1d087506 	cfstr32ne	mvfx7, [r8, #-24]	; 0xffffffe8
    2820:	0d000003 	stceq	0, cr0, [r0, #-12]
    2824:	000000bb 	strheq	r0, [r0], -fp
    2828:	1d117606 	ldcne	6, cr7, [r1, #-24]	; 0xffffffe8
    282c:	00000003 	andeq	r0, r0, r3
    2830:	00001b0d 	andeq	r1, r0, sp, lsl #22
    2834:	06770600 	ldrbteq	r0, [r7], -r0, lsl #12
    2838:	00000025 	andeq	r0, r0, r5, lsr #32
    283c:	04050004 	streq	r0, [r5], #-4
    2840:	0000005b 	andeq	r0, r0, fp, asr r0
    2844:	0003ae10 	andeq	sl, r3, r0, lsl lr
    2848:	b5066800 	strlt	r6, [r6, #-2048]	; 0xfffff800
    284c:	00046608 	andeq	r6, r4, r8, lsl #12
    2850:	705f1100 	subsvc	r1, pc, r0, lsl #2
    2854:	12b60600 	adcsne	r0, r6, #0, 12
    2858:	0000031d 	andeq	r0, r0, sp, lsl r3
    285c:	725f1100 	subsvc	r1, pc, #0, 2
    2860:	07b70600 	ldreq	r0, [r7, r0, lsl #12]!
    2864:	00000025 	andeq	r0, r0, r5, lsr #32
    2868:	775f1104 	ldrbvc	r1, [pc, -r4, lsl #2]
    286c:	07b80600 	ldreq	r0, [r8, r0, lsl #12]!
    2870:	00000025 	andeq	r0, r0, r5, lsr #32
    2874:	011f0d08 	tsteq	pc, r8, lsl #26
    2878:	b9060000 	stmdblt	r6, {}	; <UNPREDICTABLE>
    287c:	00003a09 	andeq	r3, r0, r9, lsl #20
    2880:	080d0c00 	stmdaeq	sp, {sl, fp}
    2884:	06000002 	streq	r0, [r0], -r2
    2888:	003a09ba 	ldrhteq	r0, [sl], -sl
    288c:	110e0000 	mrsne	r0, (UNDEF: 14)
    2890:	0066625f 	rsbeq	r6, r6, pc, asr r2
    2894:	f511bb06 			; <UNDEFINED> instruction: 0xf511bb06
    2898:	10000002 	andne	r0, r0, r2
    289c:	00007b0d 	andeq	r7, r0, sp, lsl #22
    28a0:	07bc0600 	ldreq	r0, [ip, r0, lsl #12]!
    28a4:	00000025 	andeq	r0, r0, r5, lsr #32
    28a8:	010f0d18 	tsteq	pc, r8, lsl sp	; <UNPREDICTABLE>
    28ac:	c3060000 	movwgt	r0, #24576	; 0x6000
    28b0:	00012d0a 	andeq	r2, r1, sl, lsl #26
    28b4:	590d1c00 	stmdbpl	sp, {sl, fp, ip}
    28b8:	0600000b 	streq	r0, [r0], -fp
    28bc:	05d81dc5 	ldrbeq	r1, [r8, #3525]	; 0xdc5
    28c0:	0d200000 	stceq	0, cr0, [r0, #-0]
    28c4:	0000061d 	andeq	r0, r0, sp, lsl r6
    28c8:	021dc706 	andseq	ip, sp, #1572864	; 0x180000
    28cc:	24000006 	strcs	r0, [r0], #-6
    28d0:	0004300d 	andeq	r3, r4, sp
    28d4:	0dca0600 	stcleq	6, cr0, [sl]
    28d8:	00000626 	andeq	r0, r0, r6, lsr #12
    28dc:	050a0d28 	streq	r0, [sl, #-3368]	; 0xfffff2d8
    28e0:	cb060000 	blgt	1828e8 <__bss_end__+0x178888>
    28e4:	00064009 	andeq	r4, r6, r9
    28e8:	5f112c00 	svcpl	0x00112c00
    28ec:	06006275 			; <UNDEFINED> instruction: 0x06006275
    28f0:	02f511ce 	rscseq	r1, r5, #-2147483597	; 0x80000033
    28f4:	11300000 	teqne	r0, r0
    28f8:	0070755f 	rsbseq	r7, r0, pc, asr r5
    28fc:	1d12cf06 	ldcne	15, cr12, [r2, #-24]	; 0xffffffe8
    2900:	38000003 	stmdacc	r0, {r0, r1}
    2904:	72755f11 	rsbsvc	r5, r5, #17, 30	; 0x44
    2908:	07d00600 	ldrbeq	r0, [r0, r0, lsl #12]
    290c:	00000025 	andeq	r0, r0, r5, lsr #32
    2910:	00b50d3c 	adcseq	r0, r5, ip, lsr sp
    2914:	d3060000 	movwle	r0, #24576	; 0x6000
    2918:	00064611 	andeq	r4, r6, r1, lsl r6
    291c:	e20d4000 	and	r4, sp, #0
    2920:	06000004 	streq	r0, [r0], -r4
    2924:	065611d4 			; <UNDEFINED> instruction: 0x065611d4
    2928:	11430000 	mrsne	r0, (UNDEF: 67)
    292c:	00626c5f 	rsbeq	r6, r2, pc, asr ip
    2930:	f511d706 			; <UNDEFINED> instruction: 0xf511d706
    2934:	44000002 	strmi	r0, [r0], #-2
    2938:	00013d0d 	andeq	r3, r1, sp, lsl #26
    293c:	07da0600 	ldrbeq	r0, [sl, r0, lsl #12]
    2940:	00000025 	andeq	r0, r0, r5, lsr #32
    2944:	014e0d4c 	cmpeq	lr, ip, asr #26
    2948:	db060000 	blle	182950 <__bss_end__+0x1788f0>
    294c:	00009a0a 	andeq	r9, r0, sl, lsl #20
    2950:	fa0d5000 	blx	356958 <__bss_end__+0x34c8f8>
    2954:	0600000a 	streq	r0, [r0], -sl
    2958:	048412de 	streq	r1, [r4], #734	; 0x2de
    295c:	0d540000 	ldcleq	0, cr0, [r4, #-0]
    2960:	00000422 	andeq	r0, r0, r2, lsr #8
    2964:	210ce206 	tstcs	ip, r6, lsl #4
    2968:	58000001 	stmdapl	r0, {r0}
    296c:	0003b60d 	andeq	fp, r3, sp, lsl #12
    2970:	0ee40600 	cdpeq	6, 14, cr0, cr4, cr0, {0}
    2974:	00000115 	andeq	r0, r0, r5, lsl r1
    2978:	027b0d5c 	rsbseq	r0, fp, #92, 26	; 0x1700
    297c:	e5060000 	str	r0, [r6, #-0]
    2980:	00002509 	andeq	r2, r0, r9, lsl #10
    2984:	15006400 	strne	r6, [r0, #-1024]	; 0xfffffc00
    2988:	00000025 	andeq	r0, r0, r5, lsr #32
    298c:	00000484 	andeq	r0, r0, r4, lsl #9
    2990:	00048416 	andeq	r8, r4, r6, lsl r4
    2994:	012d1600 			; <UNDEFINED> instruction: 0x012d1600
    2998:	2f160000 	svccs	0x00160000
    299c:	16000001 	strne	r0, [r0], -r1
    29a0:	00000025 	andeq	r0, r0, r5, lsr #32
    29a4:	8f040500 	svchi	0x00040500
    29a8:	0f000004 	svceq	0x00000004
    29ac:	00000484 	andeq	r0, r0, r4, lsl #9
    29b0:	00040c17 	andeq	r0, r4, r7, lsl ip
    29b4:	06042800 	streq	r2, [r4], -r0, lsl #16
    29b8:	d8080260 	stmdale	r8, {r5, r6, r9}
    29bc:	18000005 	stmdane	r0, {r0, r2}
    29c0:	00000370 	andeq	r0, r0, r0, ror r3
    29c4:	07026206 	streq	r6, [r2, -r6, lsl #4]
    29c8:	00000025 	andeq	r0, r0, r5, lsr #32
    29cc:	012e1800 			; <UNDEFINED> instruction: 0x012e1800
    29d0:	67060000 	strvs	r0, [r6, -r0]
    29d4:	06b20b02 	ldrteq	r0, [r2], r2, lsl #22
    29d8:	18040000 	stmdane	r4, {}	; <UNPREDICTABLE>
    29dc:	000001f8 	strdeq	r0, [r0], -r8
    29e0:	14026706 	strne	r6, [r2], #-1798	; 0xfffff8fa
    29e4:	000006b2 			; <UNDEFINED> instruction: 0x000006b2
    29e8:	01a81808 			; <UNDEFINED> instruction: 0x01a81808
    29ec:	67060000 	strvs	r0, [r6, -r0]
    29f0:	06b21e02 	ldrteq	r1, [r2], r2, lsl #28
    29f4:	180c0000 	stmdane	ip, {}	; <UNPREDICTABLE>
    29f8:	000003d7 	ldrdeq	r0, [r0], -r7
    29fc:	08026906 	stmdaeq	r2, {r1, r2, r8, fp, sp, lr}
    2a00:	00000025 	andeq	r0, r0, r5, lsr #32
    2a04:	00291810 	eoreq	r1, r9, r0, lsl r8
    2a08:	6a060000 	bvs	182a10 <__bss_end__+0x1789b0>
    2a0c:	08b20802 	ldmeq	r2!, {r1, fp}
    2a10:	18140000 	ldmdane	r4, {}	; <UNPREDICTABLE>
    2a14:	000003eb 	andeq	r0, r0, fp, ror #7
    2a18:	07026d06 	streq	r6, [r2, -r6, lsl #26]
    2a1c:	00000025 	andeq	r0, r0, r5, lsr #32
    2a20:	0a361830 	beq	d88ae8 <__bss_end__+0xd7ea88>
    2a24:	6e060000 	cdpvs	0, 0, cr0, cr6, cr0, {0}
    2a28:	08c71602 	stmiaeq	r7, {r1, r9, sl, ip}^
    2a2c:	18340000 	ldmdane	r4!, {}	; <UNPREDICTABLE>
    2a30:	000002b2 			; <UNDEFINED> instruction: 0x000002b2
    2a34:	07027006 	streq	r7, [r2, -r6]
    2a38:	00000025 	andeq	r0, r0, r5, lsr #32
    2a3c:	03e11838 	mvneq	r1, #56, 16	; 0x380000
    2a40:	72060000 	andvc	r0, r6, #0
    2a44:	08d80a02 	ldmeq	r8, {r1, r9, fp}^
    2a48:	183c0000 	ldmdane	ip!, {}	; <UNPREDICTABLE>
    2a4c:	00000257 	andeq	r0, r0, r7, asr r2
    2a50:	13027506 	movwne	r7, #9478	; 0x2506
    2a54:	000001a7 	andeq	r0, r0, r7, lsr #3
    2a58:	01c71840 	biceq	r1, r7, r0, asr #16
    2a5c:	76060000 	strvc	r0, [r6], -r0
    2a60:	00250702 	eoreq	r0, r5, r2, lsl #14
    2a64:	18440000 	stmdane	r4, {}^	; <UNPREDICTABLE>
    2a68:	00000524 	andeq	r0, r0, r4, lsr #10
    2a6c:	13027706 	movwne	r7, #9990	; 0x2706
    2a70:	000001a7 	andeq	r0, r0, r7, lsr #3
    2a74:	02c41848 	sbceq	r1, r4, #72, 16	; 0x480000
    2a78:	78060000 	stmdavc	r6, {}	; <UNPREDICTABLE>
    2a7c:	08de1402 	ldmeq	lr, {r1, sl, ip}^
    2a80:	184c0000 	stmdane	ip, {}^	; <UNPREDICTABLE>
    2a84:	00000200 	andeq	r0, r0, r0, lsl #4
    2a88:	07027b06 	streq	r7, [r2, -r6, lsl #22]
    2a8c:	00000025 	andeq	r0, r0, r5, lsr #32
    2a90:	01461850 	cmpeq	r6, r0, asr r8
    2a94:	7c060000 	stcvc	0, cr0, [r6], {-0}
    2a98:	012f0902 			; <UNDEFINED> instruction: 0x012f0902
    2a9c:	18540000 	ldmdane	r4, {}^	; <UNPREDICTABLE>
    2aa0:	000002ea 	andeq	r0, r0, sl, ror #5
    2aa4:	07029f06 	streq	r9, [r2, -r6, lsl #30]
    2aa8:	0000088d 	andeq	r0, r0, sp, lsl #17
    2aac:	02aa1958 	adceq	r1, sl, #88, 18	; 0x160000
    2ab0:	a3060000 	movwge	r0, #24576	; 0x6000
    2ab4:	02d81302 	sbcseq	r1, r8, #134217728	; 0x8000000
    2ab8:	01480000 	mrseq	r0, (UNDEF: 72)
    2abc:	00023519 	andeq	r3, r2, r9, lsl r5
    2ac0:	02a40600 	adceq	r0, r4, #0, 12
    2ac4:	00029512 	andeq	r9, r2, r2, lsl r5
    2ac8:	19014c00 	stmdbne	r1, {sl, fp, lr}
    2acc:	000004d0 	ldrdeq	r0, [r0], -r0	; <UNPREDICTABLE>
    2ad0:	0c02a806 	stceq	8, cr10, [r2], {6}
    2ad4:	000008ef 	andeq	r0, r0, pc, ror #17
    2ad8:	171902dc 			; <UNDEFINED> instruction: 0x171902dc
    2adc:	06000001 	streq	r0, [r0], -r1
    2ae0:	731002ad 	tstvc	r0, #-805306358	; 0xd000000a
    2ae4:	e0000006 	and	r0, r0, r6
    2ae8:	00fc1902 	rscseq	r1, ip, r2, lsl #18
    2aec:	af060000 	svcge	0x00060000
    2af0:	08fb0a02 	ldmeq	fp!, {r1, r9, fp}^
    2af4:	02ec0000 	rsceq	r0, ip, #0
    2af8:	66040500 	strvs	r0, [r4], -r0, lsl #10
    2afc:	15000004 	strne	r0, [r0, #-4]
    2b00:	00000025 	andeq	r0, r0, r5, lsr #32
    2b04:	000005fc 	strdeq	r0, [r0], -ip
    2b08:	00048416 	andeq	r8, r4, r6, lsl r4
    2b0c:	012d1600 			; <UNDEFINED> instruction: 0x012d1600
    2b10:	fc160000 	ldc2	0, cr0, [r6], {-0}
    2b14:	16000005 	strne	r0, [r0], -r5
    2b18:	00000025 	andeq	r0, r0, r5, lsr #32
    2b1c:	3c040500 	cfstr32cc	mvfx0, [r4], {-0}
    2b20:	05000001 	streq	r0, [r0, #-1]
    2b24:	0005de04 	andeq	sp, r5, r4, lsl #28
    2b28:	00a61500 	adceq	r1, r6, r0, lsl #10
    2b2c:	06260000 	strteq	r0, [r6], -r0
    2b30:	84160000 	ldrhi	r0, [r6], #-0
    2b34:	16000004 	strne	r0, [r0], -r4
    2b38:	0000012d 	andeq	r0, r0, sp, lsr #2
    2b3c:	0000a616 	andeq	sl, r0, r6, lsl r6
    2b40:	00251600 	eoreq	r1, r5, r0, lsl #12
    2b44:	05000000 	streq	r0, [r0, #-0]
    2b48:	00060804 	andeq	r0, r6, r4, lsl #16
    2b4c:	00251500 	eoreq	r1, r5, r0, lsl #10
    2b50:	06400000 	strbeq	r0, [r0], -r0
    2b54:	84160000 	ldrhi	r0, [r6], #-0
    2b58:	16000004 	strne	r0, [r0], -r4
    2b5c:	0000012d 	andeq	r0, r0, sp, lsr #2
    2b60:	2c040500 	cfstr32cs	mvfx0, [r4], {-0}
    2b64:	0a000006 	beq	2b84 <_start-0x547c>
    2b68:	0000005b 	andeq	r0, r0, fp, asr r0
    2b6c:	00000656 	andeq	r0, r0, r6, asr r6
    2b70:	00002c0b 	andeq	r2, r0, fp, lsl #24
    2b74:	0a000200 	beq	337c <_start-0x4c84>
    2b78:	0000005b 	andeq	r0, r0, fp, asr r0
    2b7c:	00000666 	andeq	r0, r0, r6, ror #12
    2b80:	00002c0b 	andeq	r2, r0, fp, lsl #24
    2b84:	07000000 	streq	r0, [r0, -r0]
    2b88:	0000039c 	muleq	r0, ip, r3
    2b8c:	1a011f06 	bne	4a7ac <__bss_end__+0x4074c>
    2b90:	00000323 	andeq	r0, r0, r3, lsr #6
    2b94:	0004b71a 	andeq	fp, r4, sl, lsl r7
    2b98:	23060c00 	movwcs	r0, #27648	; 0x6c00
    2b9c:	06ac0801 	strteq	r0, [ip], r1, lsl #16
    2ba0:	c4180000 	ldrgt	r0, [r8], #-0
    2ba4:	06000003 	streq	r0, [r0], -r3
    2ba8:	ac110125 	ldfges	f0, [r1], {37}	; 0x25
    2bac:	00000006 	andeq	r0, r0, r6
    2bb0:	00021b18 	andeq	r1, r2, r8, lsl fp
    2bb4:	01260600 			; <UNDEFINED> instruction: 0x01260600
    2bb8:	00002507 	andeq	r2, r0, r7, lsl #10
    2bbc:	96180400 	ldrls	r0, [r8], -r0, lsl #8
    2bc0:	06000003 	streq	r0, [r0], -r3
    2bc4:	b20b0127 	andlt	r0, fp, #-1073741815	; 0xc0000009
    2bc8:	08000006 	stmdaeq	r0, {r1, r2}
    2bcc:	73040500 	movwvc	r0, #17664	; 0x4500
    2bd0:	05000006 	streq	r0, [r0, #-6]
    2bd4:	00066604 	andeq	r6, r6, r4, lsl #12
    2bd8:	00211a00 	eoreq	r1, r1, r0, lsl #20
    2bdc:	060e0000 	streq	r0, [lr], -r0
    2be0:	f108013f 			; <UNDEFINED> instruction: 0xf108013f
    2be4:	18000006 	stmdane	r0, {r1, r2}
    2be8:	00000413 	andeq	r0, r0, r3, lsl r4
    2bec:	12014006 	andne	r4, r1, #6
    2bf0:	000006f1 	strdeq	r0, [r0], -r1
    2bf4:	04471800 	strbeq	r1, [r7], #-2048	; 0xfffff800
    2bf8:	41060000 	mrsmi	r0, (UNDEF: 6)
    2bfc:	06f11201 	ldrbteq	r1, [r1], r1, lsl #4
    2c00:	18060000 	stmdane	r6, {}	; <UNPREDICTABLE>
    2c04:	00000463 	andeq	r0, r0, r3, ror #8
    2c08:	12014206 	andne	r4, r1, #1610612736	; 0x60000000
    2c0c:	00000062 	andeq	r0, r0, r2, rrx
    2c10:	620a000c 	andvs	r0, sl, #12
    2c14:	01000000 	mrseq	r0, (UNDEF: 0)
    2c18:	0b000007 	bleq	2c3c <_start-0x53c4>
    2c1c:	0000002c 	andeq	r0, r0, ip, lsr #32
    2c20:	d01b0002 	andsle	r0, fp, r2
    2c24:	07028006 	streq	r8, [r2, -r6]
    2c28:	00000816 	andeq	r0, r0, r6, lsl r8
    2c2c:	00049b18 	andeq	r9, r4, r8, lsl fp
    2c30:	02820600 	addeq	r0, r2, #0, 12
    2c34:	00002c18 	andeq	r2, r0, r8, lsl ip
    2c38:	4d180000 	ldcmi	0, cr0, [r8, #-0]
    2c3c:	06000004 	streq	r0, [r0], -r4
    2c40:	2f120283 	svccs	0x00120283
    2c44:	04000001 	streq	r0, [r0], #-1
    2c48:	00024a18 	andeq	r4, r2, r8, lsl sl
    2c4c:	02840600 	addeq	r0, r4, #0, 12
    2c50:	00081610 	andeq	r1, r8, r0, lsl r6
    2c54:	fb180800 	blx	604c5e <__bss_end__+0x5fabfe>
    2c58:	06000004 	streq	r0, [r0], -r4
    2c5c:	bd170285 	lfmlt	f0, 4, [r7, #-532]	; 0xfffffdec
    2c60:	24000001 	strcs	r0, [r0], #-1
    2c64:	0001b818 	andeq	fp, r1, r8, lsl r8
    2c68:	02860600 	addeq	r0, r6, #0, 12
    2c6c:	0000250f 	andeq	r2, r0, pc, lsl #10
    2c70:	bf184800 	svclt	0x00184800
    2c74:	06000003 	streq	r0, [r0], -r3
    2c78:	7c2c0287 	sfmvc	f0, 4, [ip], #-540	; 0xfffffde4
    2c7c:	50000000 	andpl	r0, r0, r0
    2c80:	00051118 	andeq	r1, r5, r8, lsl r1
    2c84:	02880600 	addeq	r0, r8, #0, 12
    2c88:	0006b81a 	andeq	fp, r6, sl, lsl r8
    2c8c:	ca185800 	bgt	618c94 <__bss_end__+0x60ec34>
    2c90:	06000003 	streq	r0, [r0], -r3
    2c94:	15160289 	ldrne	r0, [r6, #-649]	; 0xfffffd77
    2c98:	68000001 	stmdavs	r0, {r0}
    2c9c:	00051618 	andeq	r1, r5, r8, lsl r6
    2ca0:	028a0600 	addeq	r0, sl, #0, 12
    2ca4:	00011516 	andeq	r1, r1, r6, lsl r5
    2ca8:	ce187000 	cdpgt	0, 1, cr7, cr8, cr0, {0}
    2cac:	06000002 	streq	r0, [r0], -r2
    2cb0:	1516028b 	ldrne	r0, [r6, #-651]	; 0xfffffd75
    2cb4:	78000001 	stmdavc	r0, {r0}
    2cb8:	0004c618 	andeq	ip, r4, r8, lsl r6
    2cbc:	028c0600 	addeq	r0, ip, #0, 12
    2cc0:	00082610 	andeq	r2, r8, r0, lsl r6
    2cc4:	3e188000 	cdpcc	0, 1, cr8, cr8, cr0, {0}
    2cc8:	06000002 	streq	r0, [r0], -r2
    2ccc:	3610028d 	ldrcc	r0, [r0], -sp, lsl #5
    2cd0:	88000008 	stmdahi	r0, {r3}
    2cd4:	00047018 	andeq	r7, r4, r8, lsl r0
    2cd8:	028e0600 	addeq	r0, lr, #0, 12
    2cdc:	0000250f 	andeq	r2, r0, pc, lsl #10
    2ce0:	7e18a000 	cdpvc	0, 1, cr10, cr8, cr0, {0}
    2ce4:	06000001 	streq	r0, [r0], -r1
    2ce8:	1516028f 	ldrne	r0, [r6, #-655]	; 0xfffffd71
    2cec:	a4000001 	strge	r0, [r0], #-1
    2cf0:	00008f18 	andeq	r8, r0, r8, lsl pc
    2cf4:	02900600 	addseq	r0, r0, #0, 12
    2cf8:	00011516 	andeq	r1, r1, r6, lsl r5
    2cfc:	6d18ac00 	ldcvs	12, cr10, [r8, #-0]
    2d00:	06000001 	streq	r0, [r0], -r1
    2d04:	15160291 	ldrne	r0, [r6, #-657]	; 0xfffffd6f
    2d08:	b4000001 	strlt	r0, [r0], #-1
    2d0c:	00003c18 	andeq	r3, r0, r8, lsl ip
    2d10:	02920600 	addseq	r0, r2, #0, 12
    2d14:	00011516 	andeq	r1, r1, r6, lsl r5
    2d18:	4b18bc00 	blmi	631d20 <__bss_end__+0x627cc0>
    2d1c:	06000000 	streq	r0, [r0], -r0
    2d20:	15160293 	ldrne	r0, [r6, #-659]	; 0xfffffd6d
    2d24:	c4000001 	strgt	r0, [r0], #-1
    2d28:	00036e18 	andeq	r6, r3, r8, lsl lr
    2d2c:	02940600 	addseq	r0, r4, #0, 12
    2d30:	00002508 	andeq	r2, r0, r8, lsl #10
    2d34:	0a00cc00 	beq	35d3c <__bss_end__+0x2bcdc>
    2d38:	00000135 	andeq	r0, r0, r5, lsr r1
    2d3c:	00000826 	andeq	r0, r0, r6, lsr #16
    2d40:	00002c0b 	andeq	r2, r0, fp, lsl #24
    2d44:	0a001900 	beq	914c <rpi_reboot+0x24>
    2d48:	00000135 	andeq	r0, r0, r5, lsr r1
    2d4c:	00000836 	andeq	r0, r0, r6, lsr r8
    2d50:	00002c0b 	andeq	r2, r0, fp, lsl #24
    2d54:	0a000700 	beq	495c <_start-0x36a4>
    2d58:	00000135 	andeq	r0, r0, r5, lsr r1
    2d5c:	00000846 	andeq	r0, r0, r6, asr #16
    2d60:	00002c0b 	andeq	r2, r0, fp, lsl #24
    2d64:	1b001700 	blne	896c <fast_hash+0xc>
    2d68:	029906f0 	addseq	r0, r9, #240, 12	; 0xf000000
    2d6c:	00086d07 	andeq	r6, r8, r7, lsl #26
    2d70:	029a1800 	addseq	r1, sl, #0, 16
    2d74:	9c060000 	stcls	0, cr0, [r6], {-0}
    2d78:	086d1b02 	stmdaeq	sp!, {r1, r8, r9, fp, ip}^
    2d7c:	18000000 	stmdane	r0, {}	; <UNPREDICTABLE>
    2d80:	000004bd 			; <UNDEFINED> instruction: 0x000004bd
    2d84:	18029d06 	stmdane	r2, {r1, r2, r8, sl, fp, ip, pc}
    2d88:	0000087d 	andeq	r0, r0, sp, ror r8
    2d8c:	1d0a0078 	stcne	0, cr0, [sl, #-480]	; 0xfffffe20
    2d90:	7d000003 	stcvc	0, cr0, [r0, #-12]
    2d94:	0b000008 	bleq	2dbc <_start-0x5244>
    2d98:	0000002c 	andeq	r0, r0, ip, lsr #32
    2d9c:	2c0a001d 	stccs	0, cr0, [sl], {29}
    2da0:	8d000000 	stchi	0, cr0, [r0, #-0]
    2da4:	0b000008 	bleq	2dcc <_start-0x5234>
    2da8:	0000002c 	andeq	r0, r0, ip, lsr #32
    2dac:	f01c001d 			; <UNDEFINED> instruction: 0xf01c001d
    2db0:	03027e06 	movweq	r7, #11782	; 0x2e06
    2db4:	000008b2 			; <UNDEFINED> instruction: 0x000008b2
    2db8:	00040c1d 	andeq	r0, r4, sp, lsl ip
    2dbc:	02950600 	addseq	r0, r5, #0, 12
    2dc0:	0007010b 	andeq	r0, r7, fp, lsl #2
    2dc4:	04e81d00 	strbteq	r1, [r8], #3328	; 0xd00
    2dc8:	9e060000 	cdpls	0, 0, cr0, cr6, cr0, {0}
    2dcc:	08460b02 	stmdaeq	r6, {r1, r8, r9, fp}^
    2dd0:	0a000000 	beq	2dd8 <_start-0x5228>
    2dd4:	00000135 	andeq	r0, r0, r5, lsr r1
    2dd8:	000008c2 	andeq	r0, r0, r2, asr #17
    2ddc:	00002c0b 	andeq	r2, r0, fp, lsl #24
    2de0:	06001800 	streq	r1, [r0], -r0, lsl #16
    2de4:	00000084 	andeq	r0, r0, r4, lsl #1
    2de8:	08c20405 	stmiaeq	r2, {r0, r2, sl}^
    2dec:	d81e0000 	ldmdale	lr, {}	; <UNPREDICTABLE>
    2df0:	16000008 	strne	r0, [r0], -r8
    2df4:	00000484 	andeq	r0, r0, r4, lsl #9
    2df8:	cd040500 	cfstr32gt	mvfx0, [r4, #-0]
    2dfc:	05000008 	streq	r0, [r0, #-8]
    2e00:	0001a704 	andeq	sl, r1, r4, lsl #14
    2e04:	08ef1e00 	stmiaeq	pc!, {r9, sl, fp, ip}^	; <UNPREDICTABLE>
    2e08:	25160000 	ldrcs	r0, [r6, #-0]
    2e0c:	00000000 	andeq	r0, r0, r0
    2e10:	08f50405 	ldmeq	r5!, {r0, r2, sl}^
    2e14:	04050000 	streq	r0, [r5], #-0
    2e18:	000008e4 	andeq	r0, r0, r4, ror #17
    2e1c:	0006660a 	andeq	r6, r6, sl, lsl #12
    2e20:	00090b00 	andeq	r0, r9, r0, lsl #22
    2e24:	002c0b00 	eoreq	r0, ip, r0, lsl #22
    2e28:	00020000 	andeq	r0, r2, r0
    2e2c:	0004841f 	andeq	r8, r4, pc, lsl r4
    2e30:	032e0600 			; <UNDEFINED> instruction: 0x032e0600
    2e34:	00048417 	andeq	r8, r4, r7, lsl r4
    2e38:	047d1f00 	ldrbteq	r1, [sp], #-3840	; 0xfffff100
    2e3c:	2f060000 	svccs	0x00060000
    2e40:	048a1d03 	streq	r1, [sl], #3331	; 0xd03
    2e44:	25150000 	ldrcs	r0, [r5, #-0]
    2e48:	34000000 	strcc	r0, [r0], #-0
    2e4c:	16000009 	strne	r0, [r0], -r9
    2e50:	00000025 	andeq	r0, r0, r5, lsr #32
    2e54:	01d12000 	bicseq	r2, r1, r0
    2e58:	1d070000 	stcne	0, cr0, [r7, #-0]
    2e5c:	0009400e 	andeq	r4, r9, lr
    2e60:	25040500 	strcs	r0, [r4, #-1280]	; 0xfffffb00
    2e64:	15000009 	strne	r0, [r0, #-9]
    2e68:	00000025 	andeq	r0, r0, r5, lsr #32
    2e6c:	00000955 	andeq	r0, r0, r5, asr r9
    2e70:	0005fc16 	andeq	pc, r5, r6, lsl ip	; <UNPREDICTABLE>
    2e74:	73200000 	nopvc	{0}	; <UNPREDICTABLE>
    2e78:	07000007 	streq	r0, [r0, -r7]
    2e7c:	09610e22 	stmdbeq	r1!, {r1, r5, r9, sl, fp}^
    2e80:	04050000 	streq	r0, [r5], #-0
    2e84:	00000946 	andeq	r0, r0, r6, asr #18
    2e88:	00055121 	andeq	r5, r5, r1, lsr #2
    2e8c:	0a0f0100 	beq	3c3294 <__bss_end__+0x3b9234>
    2e90:	00000069 	andeq	r0, r0, r9, rrx
    2e94:	00008960 	andeq	r8, r0, r0, ror #18
    2e98:	000000ec 	andeq	r0, r0, ip, ror #1
    2e9c:	09fa9c01 	ldmibeq	sl!, {r0, sl, fp, ip, pc}^
    2ea0:	fa220000 	blx	882ea8 <__bss_end__+0x878e48>
    2ea4:	0100000a 	tsteq	r0, sl
    2ea8:	09fa210f 	ldmibeq	sl!, {r0, r1, r2, r3, r8, sp}^
    2eac:	08650000 	stmdaeq	r5!, {}^	; <UNPREDICTABLE>
    2eb0:	085d0000 	ldmdaeq	sp, {}^	; <UNPREDICTABLE>
    2eb4:	6c230000 	stcvs	0, cr0, [r3], #-0
    2eb8:	01006e65 	tsteq	r0, r5, ror #28
    2ebc:	00252c0f 	eoreq	r2, r5, pc, lsl #24
    2ec0:	08a90000 	stmiaeq	r9!, {}	; <UNPREDICTABLE>
    2ec4:	089f0000 	ldmeq	pc, {}	; <UNPREDICTABLE>
    2ec8:	fb240000 	blx	902ed2 <__bss_end__+0x8f8e72>
    2ecc:	0100000a 	tsteq	r0, sl
    2ed0:	05fc1210 	ldrbeq	r1, [ip, #528]!	; 0x210
    2ed4:	08f00000 	ldmeq	r0!, {}^	; <UNPREDICTABLE>
    2ed8:	08e80000 	stmiaeq	r8!, {}^	; <UNPREDICTABLE>
    2edc:	56240000 	strtpl	r0, [r4], -r0
    2ee0:	01000005 	tsteq	r0, r5
    2ee4:	00690a11 	rsbeq	r0, r9, r1, lsl sl
    2ee8:	09350000 	ldmdbeq	r5!, {}	; <UNPREDICTABLE>
    2eec:	09270000 	stmdbeq	r7!, {}	; <UNPREDICTABLE>
    2ef0:	74250000 	strtvc	r0, [r5], #-0
    2ef4:	0100706d 	tsteq	r0, sp, rrx
    2ef8:	00691611 	rsbeq	r1, r9, r1, lsl r6
    2efc:	09900000 	ldmibeq	r0, {}	; <UNPREDICTABLE>
    2f00:	098a0000 	stmibeq	sl, {}	; <UNPREDICTABLE>
    2f04:	72250000 	eorvc	r0, r5, #0
    2f08:	01006d65 	tsteq	r0, r5, ror #26
    2f0c:	00250512 	eoreq	r0, r5, r2, lsl r5
    2f10:	09dd0000 	ldmibeq	sp, {}^	; <UNPREDICTABLE>
    2f14:	09db0000 	ldmibeq	fp, {}^	; <UNPREDICTABLE>
    2f18:	05000000 	streq	r0, [r0, #-0]
    2f1c:	000a0004 	andeq	r0, sl, r4
    2f20:	7c002600 	stcvc	6, cr2, [r0], {-0}
    2f24:	04000009 	streq	r0, [r0], #-9
    2f28:	0007d400 	andeq	sp, r7, r0, lsl #8
    2f2c:	ef010400 	svc	0x00010400
    2f30:	0c000002 	stceq	0, cr0, [r0], {2}
    2f34:	000006ef 	andeq	r0, r0, pc, ror #13
    2f38:	000006cc 	andeq	r0, r0, ip, asr #13
    2f3c:	00008a4c 	andeq	r8, r0, ip, asr #20
    2f40:	00000018 	andeq	r0, r0, r8, lsl r0
    2f44:	00000a97 	muleq	r0, r7, sl
    2f48:	69050402 	stmdbvs	r5, {r1, sl}
    2f4c:	0300746e 	movweq	r7, #1134	; 0x46e
    2f50:	000006e8 	andeq	r0, r0, r8, ror #13
    2f54:	3817d102 	ldmdacc	r7, {r1, r8, ip, lr, pc}
    2f58:	04000000 	streq	r0, [r0], #-0
    2f5c:	00660704 	rsbeq	r0, r6, r4, lsl #14
    2f60:	01040000 	mrseq	r0, (UNDEF: 4)
    2f64:	0002de06 	andeq	sp, r2, r6, lsl #28
    2f68:	08010400 	stmdaeq	r1, {sl}
    2f6c:	000002dc 	ldrdeq	r0, [r0], -ip
    2f70:	77050204 	strvc	r0, [r5, -r4, lsl #4]
    2f74:	04000003 	streq	r0, [r0], #-3
    2f78:	02220702 	eoreq	r0, r2, #524288	; 0x80000
    2f7c:	04040000 	streq	r0, [r4], #-0
    2f80:	0000ac05 	andeq	sl, r0, r5, lsl #24
    2f84:	07040400 	streq	r0, [r4, -r0, lsl #8]
    2f88:	00000061 	andeq	r0, r0, r1, rrx
    2f8c:	a7050804 	strge	r0, [r5, -r4, lsl #16]
    2f90:	04000000 	streq	r0, [r0], #-0
    2f94:	005c0708 	subseq	r0, ip, r8, lsl #14
    2f98:	65030000 	strvs	r0, [r3, #-0]
    2f9c:	03000002 	movweq	r0, #2
    2fa0:	00831922 	addeq	r1, r3, r2, lsr #18
    2fa4:	04050000 	streq	r0, [r5], #-0
    2fa8:	00000089 	andeq	r0, r0, r9, lsl #1
    2fac:	00042106 	andeq	r2, r4, r6, lsl #2
    2fb0:	02bd0300 	adcseq	r0, sp, #0, 6
    2fb4:	2c040000 	stccs	0, cr0, [r4], {-0}
    2fb8:	00005b0e 	andeq	r5, r0, lr, lsl #22
    2fbc:	04360300 	ldrteq	r0, [r6], #-768	; 0xfffffd00
    2fc0:	72040000 	andvc	r0, r4, #0
    2fc4:	00005b0e 	andeq	r5, r0, lr, lsl #22
    2fc8:	026d0700 	rsbeq	r0, sp, #0, 14
    2fcc:	5e020000 	cdppl	0, 0, cr0, cr2, cr0, {0}
    2fd0:	00381701 	eorseq	r1, r8, r1, lsl #14
    2fd4:	04080000 	streq	r0, [r8], #-0
    2fd8:	d503a604 	strle	sl, [r3, #-1540]	; 0xfffff9fc
    2fdc:	09000000 	stmdbeq	r0, {}	; <UNPREDICTABLE>
    2fe0:	0000025f 	andeq	r0, r0, pc, asr r2
    2fe4:	a60ca804 	strge	sl, [ip], -r4, lsl #16
    2fe8:	09000000 	stmdbeq	r0, {}	; <UNPREDICTABLE>
    2fec:	000001e2 	andeq	r0, r0, r2, ror #3
    2ff0:	d513a904 	ldrle	sl, [r3, #-2308]	; 0xfffff6fc
    2ff4:	00000000 	andeq	r0, r0, r0
    2ff8:	0000460a 	andeq	r4, r0, sl, lsl #12
    2ffc:	0000e500 	andeq	lr, r0, r0, lsl #10
    3000:	00380b00 	eorseq	r0, r8, r0, lsl #22
    3004:	00030000 	andeq	r0, r3, r0
    3008:	a304080c 	movwge	r0, #18444	; 0x480c
    300c:	00010909 	andeq	r0, r1, r9, lsl #18
    3010:	04190d00 	ldreq	r0, [r9], #-3328	; 0xfffff300
    3014:	a5040000 	strge	r0, [r4, #-0]
    3018:	00002507 	andeq	r2, r0, r7, lsl #10
    301c:	280d0000 	stmdacs	sp, {}	; <UNPREDICTABLE>
    3020:	04000004 	streq	r0, [r0], #-4
    3024:	00b305aa 	adcseq	r0, r3, sl, lsr #11
    3028:	00040000 	andeq	r0, r4, r0
    302c:	0003a303 	andeq	sl, r3, r3, lsl #6
    3030:	03ab0400 			; <UNDEFINED> instruction: 0x03ab0400
    3034:	000000e5 	andeq	r0, r0, r5, ror #1
    3038:	00019f03 	andeq	r9, r1, r3, lsl #30
    303c:	1baf0400 	blne	febc4044 <__bss_end__+0xfebb9fe4>
    3040:	00000077 	andeq	r0, r0, r7, ror r0
    3044:	0405040e 	streq	r0, [r5], #-1038	; 0xfffffbf2
    3048:	00000129 	andeq	r0, r0, r9, lsr #2
    304c:	e5080104 	str	r0, [r8, #-260]	; 0xfffffefc
    3050:	0f000002 	svceq	0x00000002
    3054:	00000129 	andeq	r0, r0, r9, lsr #2
    3058:	00046803 	andeq	r6, r4, r3, lsl #16
    305c:	19160500 	ldmdbne	r6, {r8, sl}
    3060:	00000062 	andeq	r0, r0, r2, rrx
    3064:	0001b010 	andeq	fp, r1, r0, lsl r0
    3068:	2f051800 	svccs	0x00051800
    306c:	00019b08 	andeq	r9, r1, r8, lsl #22
    3070:	03c40d00 	biceq	r0, r4, #0, 26
    3074:	31050000 	mrscc	r0, (UNDEF: 5)
    3078:	00019b13 	andeq	r9, r1, r3, lsl fp
    307c:	5f110000 	svcpl	0x00110000
    3080:	3205006b 	andcc	r0, r5, #107	; 0x6b
    3084:	00002507 	andeq	r2, r0, r7, lsl #10
    3088:	040d0400 	streq	r0, [sp], #-1024	; 0xfffffc00
    308c:	05000004 	streq	r0, [r0, #-4]
    3090:	00250b32 	eoreq	r0, r5, r2, lsr fp
    3094:	0d080000 	stceq	0, cr0, [r8, #-0]
    3098:	00000199 	muleq	r0, r9, r1
    309c:	25143205 	ldrcs	r3, [r4, #-517]	; 0xfffffdfb
    30a0:	0c000000 	stceq	0, cr0, [r0], {-0}
    30a4:	0004a80d 	andeq	sl, r4, sp, lsl #16
    30a8:	1b320500 	blne	c844b0 <__bss_end__+0xc7a450>
    30ac:	00000025 	andeq	r0, r0, r5, lsr #32
    30b0:	785f1110 	ldmdavc	pc, {r4, r8, ip}^	; <UNPREDICTABLE>
    30b4:	0b330500 	bleq	cc44bc <__bss_end__+0xcba45c>
    30b8:	000001a1 	andeq	r0, r0, r1, lsr #3
    30bc:	04050014 	streq	r0, [r5], #-20	; 0xffffffec
    30c0:	00000141 	andeq	r0, r0, r1, asr #2
    30c4:	0001350a 	andeq	r3, r1, sl, lsl #10
    30c8:	0001b100 	andeq	fp, r1, r0, lsl #2
    30cc:	00380b00 	eorseq	r0, r8, r0, lsl #22
    30d0:	00000000 	andeq	r0, r0, r0
    30d4:	0001dd10 	andeq	sp, r1, r0, lsl sp
    30d8:	37052400 	strcc	r2, [r5, -r0, lsl #8]
    30dc:	00023408 	andeq	r3, r2, r8, lsl #8
    30e0:	009e0d00 	addseq	r0, lr, r0, lsl #26
    30e4:	39050000 	stmdbcc	r5, {}	; <UNPREDICTABLE>
    30e8:	00002509 	andeq	r2, r0, r9, lsl #10
    30ec:	3e0d0000 	cdpcc	0, 0, cr0, cr13, cr0, {0}
    30f0:	05000004 	streq	r0, [r0, #-4]
    30f4:	0025093a 	eoreq	r0, r5, sl, lsr r9
    30f8:	0d040000 	stceq	0, cr0, [r4, #-0]
    30fc:	000000c1 	andeq	r0, r0, r1, asr #1
    3100:	25093b05 	strcs	r3, [r9, #-2821]	; 0xfffff4fb
    3104:	08000000 	stmdaeq	r0, {}	; <UNPREDICTABLE>
    3108:	0005330d 	andeq	r3, r5, sp, lsl #6
    310c:	093c0500 	ldmdbeq	ip!, {r8, sl}
    3110:	00000025 	andeq	r0, r0, r5, lsr #32
    3114:	02a10d0c 	adceq	r0, r1, #12, 26	; 0x300
    3118:	3d050000 	stccc	0, cr0, [r5, #-0]
    311c:	00002509 	andeq	r2, r0, r9, lsl #10
    3120:	830d1000 	movwhi	r1, #53248	; 0xd000
    3124:	05000002 	streq	r0, [r0, #-2]
    3128:	0025093e 	eoreq	r0, r5, lr, lsr r9
    312c:	0d140000 	ldceq	0, cr0, [r4, #-0]
    3130:	000004ad 	andeq	r0, r0, sp, lsr #9
    3134:	25093f05 	strcs	r3, [r9, #-3845]	; 0xfffff0fb
    3138:	18000000 	stmdane	r0, {}	; <UNPREDICTABLE>
    313c:	0005290d 	andeq	r2, r5, sp, lsl #18
    3140:	09400500 	stmdbeq	r0, {r8, sl}^
    3144:	00000025 	andeq	r0, r0, r5, lsr #32
    3148:	04f00d1c 	ldrbteq	r0, [r0], #3356	; 0xd1c
    314c:	41050000 	mrsmi	r0, (UNDEF: 5)
    3150:	00002509 	andeq	r2, r0, r9, lsl #10
    3154:	12002000 	andne	r2, r0, #0
    3158:	00000101 	andeq	r0, r0, r1, lsl #2
    315c:	4a050108 	bmi	143584 <__bss_end__+0x139524>
    3160:	00027908 	andeq	r7, r2, r8, lsl #18
    3164:	018c0d00 	orreq	r0, ip, r0, lsl #26
    3168:	4b050000 	blmi	143170 <__bss_end__+0x139110>
    316c:	0002790a 	andeq	r7, r2, sl, lsl #18
    3170:	000d0000 	andeq	r0, sp, r0
    3174:	05000000 	streq	r0, [r0, #-0]
    3178:	0279094c 	rsbseq	r0, r9, #76, 18	; 0x130000
    317c:	13800000 	orrne	r0, r0, #0
    3180:	0000045a 	andeq	r0, r0, sl, asr r4
    3184:	350a4e05 	strcc	r4, [sl, #-3589]	; 0xfffff1fb
    3188:	00000001 	andeq	r0, r0, r1
    318c:	01261301 			; <UNDEFINED> instruction: 0x01261301
    3190:	51050000 	mrspl	r0, (UNDEF: 5)
    3194:	0001350a 	andeq	r3, r1, sl, lsl #10
    3198:	00010400 	andeq	r0, r1, r0, lsl #8
    319c:	0001210a 	andeq	r2, r1, sl, lsl #2
    31a0:	00028900 	andeq	r8, r2, r0, lsl #18
    31a4:	00380b00 	eorseq	r0, r8, r0, lsl #22
    31a8:	001f0000 	andseq	r0, pc, r0
    31ac:	0002aa12 	andeq	sl, r2, r2, lsl sl
    31b0:	05019000 	streq	r9, [r1, #-0]
    31b4:	02cc085d 	sbceq	r0, ip, #6094848	; 0x5d0000
    31b8:	c40d0000 	strgt	r0, [sp], #-0
    31bc:	05000003 	streq	r0, [r0, #-3]
    31c0:	02cc125e 	sbceq	r1, ip, #-536870907	; 0xe0000005
    31c4:	0d000000 	stceq	0, cr0, [r0, #-0]
    31c8:	000003dc 	ldrdeq	r0, [r0], -ip
    31cc:	25065f05 	strcs	r5, [r6, #-3845]	; 0xfffff0fb
    31d0:	04000000 	streq	r0, [r0], #-0
    31d4:	0001940d 	andeq	r9, r1, sp, lsl #8
    31d8:	09610500 	stmdbeq	r1!, {r8, sl}^
    31dc:	000002d2 	ldrdeq	r0, [r0], -r2
    31e0:	01010d08 	tsteq	r1, r8, lsl #26
    31e4:	62050000 	andvs	r0, r5, #0
    31e8:	0002341e 	andeq	r3, r2, lr, lsl r4
    31ec:	05008800 	streq	r8, [r0, #-2048]	; 0xfffff800
    31f0:	00028904 	andeq	r8, r2, r4, lsl #18
    31f4:	02e20a00 	rsceq	r0, r2, #0, 20
    31f8:	02e20000 	rsceq	r0, r2, #0
    31fc:	380b0000 	stmdacc	fp, {}	; <UNPREDICTABLE>
    3200:	1f000000 	svcne	0x00000000
    3204:	e8040500 	stmda	r4, {r8, sl}
    3208:	14000002 	strne	r0, [r0], #-2
    320c:	00038f10 	andeq	r8, r3, r0, lsl pc
    3210:	75050800 	strvc	r0, [r5, #-2048]	; 0xfffff800
    3214:	00031108 	andeq	r1, r3, r8, lsl #2
    3218:	00bb0d00 	adcseq	r0, fp, r0, lsl #26
    321c:	76050000 	strvc	r0, [r5], -r0
    3220:	00031111 	andeq	r1, r3, r1, lsl r1
    3224:	1b0d0000 	blne	34322c <__bss_end__+0x3391cc>
    3228:	05000000 	streq	r0, [r0, #-0]
    322c:	00250677 	eoreq	r0, r5, r7, ror r6
    3230:	00040000 	andeq	r0, r4, r0
    3234:	00460405 	subeq	r0, r6, r5, lsl #8
    3238:	ae100000 	cdpge	0, 1, cr0, cr0, cr0, {0}
    323c:	68000003 	stmdavs	r0, {r0, r1}
    3240:	5a08b505 	bpl	23065c <__bss_end__+0x2265fc>
    3244:	11000004 	tstne	r0, r4
    3248:	0500705f 	streq	r7, [r0, #-95]	; 0xffffffa1
    324c:	031112b6 	tsteq	r1, #1610612747	; 0x6000000b
    3250:	11000000 	mrsne	r0, (UNDEF: 0)
    3254:	0500725f 	streq	r7, [r0, #-607]	; 0xfffffda1
    3258:	002507b7 	strhteq	r0, [r5], -r7
    325c:	11040000 	mrsne	r0, (UNDEF: 4)
    3260:	0500775f 	streq	r7, [r0, #-1887]	; 0xfffff8a1
    3264:	002507b8 	strhteq	r0, [r5], -r8
    3268:	0d080000 	stceq	0, cr0, [r8, #-0]
    326c:	0000011f 	andeq	r0, r0, pc, lsl r1
    3270:	4d09b905 	vstrmi.16	s22, [r9, #-10]	; <UNPREDICTABLE>
    3274:	0c000000 	stceq	0, cr0, [r0], {-0}
    3278:	0002080d 	andeq	r0, r2, sp, lsl #16
    327c:	09ba0500 	ldmibeq	sl!, {r8, sl}
    3280:	0000004d 	andeq	r0, r0, sp, asr #32
    3284:	625f110e 	subsvs	r1, pc, #-2147483645	; 0x80000003
    3288:	bb050066 	bllt	143428 <__bss_end__+0x1393c8>
    328c:	0002e911 	andeq	lr, r2, r1, lsl r9
    3290:	7b0d1000 	blvc	347298 <__bss_end__+0x33d238>
    3294:	05000000 	streq	r0, [r0, #-0]
    3298:	002507bc 	strhteq	r0, [r5], -ip
    329c:	0d180000 	ldceq	0, cr0, [r8, #-0]
    32a0:	0000010f 	andeq	r0, r0, pc, lsl #2
    32a4:	210ac305 	tstcs	sl, r5, lsl #6
    32a8:	1c000001 	stcne	0, cr0, [r0], {1}
    32ac:	000b590d 	andeq	r5, fp, sp, lsl #18
    32b0:	1dc50500 	cfstr64ne	mvdx0, [r5]
    32b4:	000005cc 	andeq	r0, r0, ip, asr #11
    32b8:	061d0d20 	ldreq	r0, [sp], -r0, lsr #26
    32bc:	c7050000 	strgt	r0, [r5, -r0]
    32c0:	0005f61d 	andeq	pc, r5, sp, lsl r6	; <UNPREDICTABLE>
    32c4:	300d2400 	andcc	r2, sp, r0, lsl #8
    32c8:	05000004 	streq	r0, [r0, #-4]
    32cc:	061a0dca 	ldreq	r0, [sl], -sl, asr #27
    32d0:	0d280000 	stceq	0, cr0, [r8, #-0]
    32d4:	0000050a 	andeq	r0, r0, sl, lsl #10
    32d8:	3409cb05 	strcc	ip, [r9], #-2821	; 0xfffff4fb
    32dc:	2c000006 	stccs	0, cr0, [r0], {6}
    32e0:	62755f11 	rsbsvs	r5, r5, #17, 30	; 0x44
    32e4:	11ce0500 	bicne	r0, lr, r0, lsl #10
    32e8:	000002e9 	andeq	r0, r0, r9, ror #5
    32ec:	755f1130 	ldrbvc	r1, [pc, #-304]	; 31c4 <_start-0x4e3c>
    32f0:	cf050070 	svcgt	0x00050070
    32f4:	00031112 	andeq	r1, r3, r2, lsl r1
    32f8:	5f113800 	svcpl	0x00113800
    32fc:	05007275 	streq	r7, [r0, #-629]	; 0xfffffd8b
    3300:	002507d0 	ldrdeq	r0, [r5], -r0	; <UNPREDICTABLE>
    3304:	0d3c0000 	ldceq	0, cr0, [ip, #-0]
    3308:	000000b5 	strheq	r0, [r0], -r5
    330c:	3a11d305 	bcc	477f28 <__bss_end__+0x46dec8>
    3310:	40000006 	andmi	r0, r0, r6
    3314:	0004e20d 	andeq	lr, r4, sp, lsl #4
    3318:	11d40500 	bicsne	r0, r4, r0, lsl #10
    331c:	0000064a 	andeq	r0, r0, sl, asr #12
    3320:	6c5f1143 	ldfvse	f1, [pc], {67}	; 0x43
    3324:	d7050062 	strle	r0, [r5, -r2, rrx]
    3328:	0002e911 	andeq	lr, r2, r1, lsl r9
    332c:	3d0d4400 	cfstrscc	mvf4, [sp, #-0]
    3330:	05000001 	streq	r0, [r0, #-1]
    3334:	002507da 	ldrdeq	r0, [r5], -sl	; <UNPREDICTABLE>
    3338:	0d4c0000 	stcleq	0, cr0, [ip, #-0]
    333c:	0000014e 	andeq	r0, r0, lr, asr #2
    3340:	8e0adb05 	vmlahi.f64	d13, d10, d5
    3344:	50000000 	andpl	r0, r0, r0
    3348:	000afa0d 	andeq	pc, sl, sp, lsl #20
    334c:	12de0500 	sbcsne	r0, lr, #0, 10
    3350:	00000478 	andeq	r0, r0, r8, ror r4
    3354:	04220d54 	strteq	r0, [r2], #-3412	; 0xfffff2ac
    3358:	e2050000 	and	r0, r5, #0
    335c:	0001150c 	andeq	r1, r1, ip, lsl #10
    3360:	b60d5800 	strlt	r5, [sp], -r0, lsl #16
    3364:	05000003 	streq	r0, [r0, #-3]
    3368:	01090ee4 	smlatteq	r9, r4, lr, r0
    336c:	0d5c0000 	ldcleq	0, cr0, [ip, #-0]
    3370:	0000027b 	andeq	r0, r0, fp, ror r2
    3374:	2509e505 	strcs	lr, [r9, #-1285]	; 0xfffffafb
    3378:	64000000 	strvs	r0, [r0], #-0
    337c:	00251500 	eoreq	r1, r5, r0, lsl #10
    3380:	04780000 	ldrbteq	r0, [r8], #-0
    3384:	78160000 	ldmdavc	r6, {}	; <UNPREDICTABLE>
    3388:	16000004 	strne	r0, [r0], -r4
    338c:	00000121 	andeq	r0, r0, r1, lsr #2
    3390:	00012316 	andeq	r2, r1, r6, lsl r3
    3394:	00251600 	eoreq	r1, r5, r0, lsl #12
    3398:	05000000 	streq	r0, [r0, #-0]
    339c:	00048304 	andeq	r8, r4, r4, lsl #6
    33a0:	04780f00 	ldrbteq	r0, [r8], #-3840	; 0xfffff100
    33a4:	0c170000 	ldceq	0, cr0, [r7], {-0}
    33a8:	28000004 	stmdacs	r0, {r2}
    33ac:	02600504 	rsbeq	r0, r0, #4, 10	; 0x1000000
    33b0:	0005cc08 	andeq	ip, r5, r8, lsl #24
    33b4:	03701800 	cmneq	r0, #0, 16
    33b8:	62050000 	andvs	r0, r5, #0
    33bc:	00250702 	eoreq	r0, r5, r2, lsl #14
    33c0:	18000000 	stmdane	r0, {}	; <UNPREDICTABLE>
    33c4:	0000012e 	andeq	r0, r0, lr, lsr #2
    33c8:	0b026705 	bleq	9cfe4 <__bss_end__+0x92f84>
    33cc:	000006a6 	andeq	r0, r0, r6, lsr #13
    33d0:	01f81804 	mvnseq	r1, r4, lsl #16
    33d4:	67050000 	strvs	r0, [r5, -r0]
    33d8:	06a61402 	strteq	r1, [r6], r2, lsl #8
    33dc:	18080000 	stmdane	r8, {}	; <UNPREDICTABLE>
    33e0:	000001a8 	andeq	r0, r0, r8, lsr #3
    33e4:	1e026705 	cdpne	7, 0, cr6, cr2, cr5, {0}
    33e8:	000006a6 	andeq	r0, r0, r6, lsr #13
    33ec:	03d7180c 	bicseq	r1, r7, #12, 16	; 0xc0000
    33f0:	69050000 	stmdbvs	r5, {}	; <UNPREDICTABLE>
    33f4:	00250802 	eoreq	r0, r5, r2, lsl #16
    33f8:	18100000 	ldmdane	r0, {}	; <UNPREDICTABLE>
    33fc:	00000029 	andeq	r0, r0, r9, lsr #32
    3400:	08026a05 	stmdaeq	r2, {r0, r2, r9, fp, sp, lr}
    3404:	000008a6 	andeq	r0, r0, r6, lsr #17
    3408:	03eb1814 	mvneq	r1, #20, 16	; 0x140000
    340c:	6d050000 	stcvs	0, cr0, [r5, #-0]
    3410:	00250702 	eoreq	r0, r5, r2, lsl #14
    3414:	18300000 	ldmdane	r0!, {}	; <UNPREDICTABLE>
    3418:	00000a36 	andeq	r0, r0, r6, lsr sl
    341c:	16026e05 	strne	r6, [r2], -r5, lsl #28
    3420:	000008bb 			; <UNDEFINED> instruction: 0x000008bb
    3424:	02b21834 	adcseq	r1, r2, #52, 16	; 0x340000
    3428:	70050000 	andvc	r0, r5, r0
    342c:	00250702 	eoreq	r0, r5, r2, lsl #14
    3430:	18380000 	ldmdane	r8!, {}	; <UNPREDICTABLE>
    3434:	000003e1 	andeq	r0, r0, r1, ror #7
    3438:	0a027205 	beq	9fc54 <__bss_end__+0x95bf4>
    343c:	000008cc 	andeq	r0, r0, ip, asr #17
    3440:	0257183c 	subseq	r1, r7, #60, 16	; 0x3c0000
    3444:	75050000 	strvc	r0, [r5, #-0]
    3448:	019b1302 	orrseq	r1, fp, r2, lsl #6
    344c:	18400000 	stmdane	r0, {}^	; <UNPREDICTABLE>
    3450:	000001c7 	andeq	r0, r0, r7, asr #3
    3454:	07027605 	streq	r7, [r2, -r5, lsl #12]
    3458:	00000025 	andeq	r0, r0, r5, lsr #32
    345c:	05241844 	streq	r1, [r4, #-2116]!	; 0xfffff7bc
    3460:	77050000 	strvc	r0, [r5, -r0]
    3464:	019b1302 	orrseq	r1, fp, r2, lsl #6
    3468:	18480000 	stmdane	r8, {}^	; <UNPREDICTABLE>
    346c:	000002c4 	andeq	r0, r0, r4, asr #5
    3470:	14027805 	strne	r7, [r2], #-2053	; 0xfffff7fb
    3474:	000008d2 	ldrdeq	r0, [r0], -r2
    3478:	0200184c 	andeq	r1, r0, #76, 16	; 0x4c0000
    347c:	7b050000 	blvc	143484 <__bss_end__+0x139424>
    3480:	00250702 	eoreq	r0, r5, r2, lsl #14
    3484:	18500000 	ldmdane	r0, {}^	; <UNPREDICTABLE>
    3488:	00000146 	andeq	r0, r0, r6, asr #2
    348c:	09027c05 	stmdbeq	r2, {r0, r2, sl, fp, ip, sp, lr}
    3490:	00000123 	andeq	r0, r0, r3, lsr #2
    3494:	02ea1854 	rsceq	r1, sl, #84, 16	; 0x540000
    3498:	9f050000 	svcls	0x00050000
    349c:	08810702 	stmeq	r1, {r1, r8, r9, sl}
    34a0:	19580000 	ldmdbne	r8, {}^	; <UNPREDICTABLE>
    34a4:	000002aa 	andeq	r0, r0, sl, lsr #5
    34a8:	1302a305 	movwne	sl, #8965	; 0x2305
    34ac:	000002cc 	andeq	r0, r0, ip, asr #5
    34b0:	35190148 	ldrcc	r0, [r9, #-328]	; 0xfffffeb8
    34b4:	05000002 	streq	r0, [r0, #-2]
    34b8:	891202a4 	ldmdbhi	r2, {r2, r5, r7, r9}
    34bc:	4c000002 	stcmi	0, cr0, [r0], {2}
    34c0:	04d01901 	ldrbeq	r1, [r0], #2305	; 0x901
    34c4:	a8050000 	stmdage	r5, {}	; <UNPREDICTABLE>
    34c8:	08e30c02 	stmiaeq	r3!, {r1, sl, fp}^
    34cc:	02dc0000 	sbcseq	r0, ip, #0
    34d0:	00011719 	andeq	r1, r1, r9, lsl r7
    34d4:	02ad0500 	adceq	r0, sp, #0, 10
    34d8:	00066710 	andeq	r6, r6, r0, lsl r7
    34dc:	1902e000 	stmdbne	r2, {sp, lr, pc}
    34e0:	000000fc 	strdeq	r0, [r0], -ip
    34e4:	0a02af05 	beq	af100 <__bss_end__+0xa50a0>
    34e8:	000008ef 	andeq	r0, r0, pc, ror #17
    34ec:	050002ec 	streq	r0, [r0, #-748]	; 0xfffffd14
    34f0:	00045a04 	andeq	r5, r4, r4, lsl #20
    34f4:	00251500 	eoreq	r1, r5, r0, lsl #10
    34f8:	05f00000 	ldrbeq	r0, [r0, #0]!
    34fc:	78160000 	ldmdavc	r6, {}	; <UNPREDICTABLE>
    3500:	16000004 	strne	r0, [r0], -r4
    3504:	00000121 	andeq	r0, r0, r1, lsr #2
    3508:	0005f016 	andeq	pc, r5, r6, lsl r0	; <UNPREDICTABLE>
    350c:	00251600 	eoreq	r1, r5, r0, lsl #12
    3510:	05000000 	streq	r0, [r0, #-0]
    3514:	00013004 	andeq	r3, r1, r4
    3518:	d2040500 	andle	r0, r4, #0, 10
    351c:	15000005 	strne	r0, [r0, #-5]
    3520:	0000009a 	muleq	r0, sl, r0
    3524:	0000061a 	andeq	r0, r0, sl, lsl r6
    3528:	00047816 	andeq	r7, r4, r6, lsl r8
    352c:	01211600 			; <UNDEFINED> instruction: 0x01211600
    3530:	9a160000 	bls	583538 <__bss_end__+0x5794d8>
    3534:	16000000 	strne	r0, [r0], -r0
    3538:	00000025 	andeq	r0, r0, r5, lsr #32
    353c:	fc040500 	stc2	5, cr0, [r4], {-0}
    3540:	15000005 	strne	r0, [r0, #-5]
    3544:	00000025 	andeq	r0, r0, r5, lsr #32
    3548:	00000634 	andeq	r0, r0, r4, lsr r6
    354c:	00047816 	andeq	r7, r4, r6, lsl r8
    3550:	01211600 			; <UNDEFINED> instruction: 0x01211600
    3554:	05000000 	streq	r0, [r0, #-0]
    3558:	00062004 	andeq	r2, r6, r4
    355c:	00460a00 	subeq	r0, r6, r0, lsl #20
    3560:	064a0000 	strbeq	r0, [sl], -r0
    3564:	380b0000 	stmdacc	fp, {}	; <UNPREDICTABLE>
    3568:	02000000 	andeq	r0, r0, #0
    356c:	00460a00 	subeq	r0, r6, r0, lsl #20
    3570:	065a0000 	ldrbeq	r0, [sl], -r0
    3574:	380b0000 	stmdacc	fp, {}	; <UNPREDICTABLE>
    3578:	00000000 	andeq	r0, r0, r0
    357c:	039c0700 	orrseq	r0, ip, #0, 14
    3580:	1f050000 	svcne	0x00050000
    3584:	03171a01 	tsteq	r7, #4096	; 0x1000
    3588:	b71a0000 	ldrlt	r0, [sl, -r0]
    358c:	0c000004 	stceq	0, cr0, [r0], {4}
    3590:	08012305 	stmdaeq	r1, {r0, r2, r8, r9, sp}
    3594:	000006a0 	andeq	r0, r0, r0, lsr #13
    3598:	0003c418 	andeq	ip, r3, r8, lsl r4
    359c:	01250500 			; <UNDEFINED> instruction: 0x01250500
    35a0:	0006a011 	andeq	sl, r6, r1, lsl r0
    35a4:	1b180000 	blne	6035ac <__bss_end__+0x5f954c>
    35a8:	05000002 	streq	r0, [r0, #-2]
    35ac:	25070126 	strcs	r0, [r7, #-294]	; 0xfffffeda
    35b0:	04000000 	streq	r0, [r0], #-0
    35b4:	00039618 	andeq	r9, r3, r8, lsl r6
    35b8:	01270500 			; <UNDEFINED> instruction: 0x01270500
    35bc:	0006a60b 	andeq	sl, r6, fp, lsl #12
    35c0:	05000800 	streq	r0, [r0, #-2048]	; 0xfffff800
    35c4:	00066704 	andeq	r6, r6, r4, lsl #14
    35c8:	5a040500 	bpl	1049d0 <__bss_end__+0xfa970>
    35cc:	1a000006 	bne	35ec <_start-0x4a14>
    35d0:	00000021 	andeq	r0, r0, r1, lsr #32
    35d4:	013f050e 	teqeq	pc, lr, lsl #10
    35d8:	0006e508 	andeq	lr, r6, r8, lsl #10
    35dc:	04131800 	ldreq	r1, [r3], #-2048	; 0xfffff800
    35e0:	40050000 	andmi	r0, r5, r0
    35e4:	06e51201 	strbteq	r1, [r5], r1, lsl #4
    35e8:	18000000 	stmdane	r0, {}	; <UNPREDICTABLE>
    35ec:	00000447 	andeq	r0, r0, r7, asr #8
    35f0:	12014105 	andne	r4, r1, #1073741825	; 0x40000001
    35f4:	000006e5 	andeq	r0, r0, r5, ror #13
    35f8:	04631806 	strbteq	r1, [r3], #-2054	; 0xfffff7fa
    35fc:	42050000 	andmi	r0, r5, #0
    3600:	00541201 	subseq	r1, r4, r1, lsl #4
    3604:	000c0000 	andeq	r0, ip, r0
    3608:	0000540a 	andeq	r5, r0, sl, lsl #8
    360c:	0006f500 	andeq	pc, r6, r0, lsl #10
    3610:	00380b00 	eorseq	r0, r8, r0, lsl #22
    3614:	00020000 	andeq	r0, r2, r0
    3618:	8005d01b 	andhi	sp, r5, fp, lsl r0
    361c:	080a0702 	stmdaeq	sl, {r1, r8, r9, sl}
    3620:	9b180000 	blls	603628 <__bss_end__+0x5f95c8>
    3624:	05000004 	streq	r0, [r0, #-4]
    3628:	38180282 	ldmdacc	r8, {r1, r7, r9}
    362c:	00000000 	andeq	r0, r0, r0
    3630:	00044d18 	andeq	r4, r4, r8, lsl sp
    3634:	02830500 	addeq	r0, r3, #0, 10
    3638:	00012312 	andeq	r2, r1, r2, lsl r3
    363c:	4a180400 	bmi	604644 <__bss_end__+0x5fa5e4>
    3640:	05000002 	streq	r0, [r0, #-2]
    3644:	0a100284 	beq	40405c <__bss_end__+0x3f9ffc>
    3648:	08000008 	stmdaeq	r0, {r3}
    364c:	0004fb18 	andeq	pc, r4, r8, lsl fp	; <UNPREDICTABLE>
    3650:	02850500 	addeq	r0, r5, #0, 10
    3654:	0001b117 	andeq	fp, r1, r7, lsl r1
    3658:	b8182400 	ldmdalt	r8, {sl, sp}
    365c:	05000001 	streq	r0, [r0, #-1]
    3660:	250f0286 	strcs	r0, [pc, #-646]	; 33e2 <_start-0x4c1e>
    3664:	48000000 	stmdami	r0, {}	; <UNPREDICTABLE>
    3668:	0003bf18 	andeq	fp, r3, r8, lsl pc
    366c:	02870500 	addeq	r0, r7, #0, 10
    3670:	0000702c 	andeq	r7, r0, ip, lsr #32
    3674:	11185000 	tstne	r8, r0
    3678:	05000005 	streq	r0, [r0, #-5]
    367c:	ac1a0288 	lfmge	f0, 4, [sl], {136}	; 0x88
    3680:	58000006 	stmdapl	r0, {r1, r2}
    3684:	0003ca18 	andeq	ip, r3, r8, lsl sl
    3688:	02890500 	addeq	r0, r9, #0, 10
    368c:	00010916 	andeq	r0, r1, r6, lsl r9
    3690:	16186800 	ldrne	r6, [r8], -r0, lsl #16
    3694:	05000005 	streq	r0, [r0, #-5]
    3698:	0916028a 	ldmdbeq	r6, {r1, r3, r7, r9}
    369c:	70000001 	andvc	r0, r0, r1
    36a0:	0002ce18 	andeq	ip, r2, r8, lsl lr
    36a4:	028b0500 	addeq	r0, fp, #0, 10
    36a8:	00010916 	andeq	r0, r1, r6, lsl r9
    36ac:	c6187800 	ldrgt	r7, [r8], -r0, lsl #16
    36b0:	05000004 	streq	r0, [r0, #-4]
    36b4:	1a10028c 	bne	4040ec <__bss_end__+0x3fa08c>
    36b8:	80000008 	andhi	r0, r0, r8
    36bc:	00023e18 	andeq	r3, r2, r8, lsl lr
    36c0:	028d0500 	addeq	r0, sp, #0, 10
    36c4:	00082a10 	andeq	r2, r8, r0, lsl sl
    36c8:	70188800 	andsvc	r8, r8, r0, lsl #16
    36cc:	05000004 	streq	r0, [r0, #-4]
    36d0:	250f028e 	strcs	r0, [pc, #-654]	; 344a <_start-0x4bb6>
    36d4:	a0000000 	andge	r0, r0, r0
    36d8:	00017e18 	andeq	r7, r1, r8, lsl lr
    36dc:	028f0500 	addeq	r0, pc, #0, 10
    36e0:	00010916 	andeq	r0, r1, r6, lsl r9
    36e4:	8f18a400 	svchi	0x0018a400
    36e8:	05000000 	streq	r0, [r0, #-0]
    36ec:	09160290 	ldmdbeq	r6, {r4, r7, r9}
    36f0:	ac000001 	stcge	0, cr0, [r0], {1}
    36f4:	00016d18 	andeq	r6, r1, r8, lsl sp
    36f8:	02910500 	addseq	r0, r1, #0, 10
    36fc:	00010916 	andeq	r0, r1, r6, lsl r9
    3700:	3c18b400 	cfldrscc	mvf11, [r8], {-0}
    3704:	05000000 	streq	r0, [r0, #-0]
    3708:	09160292 	ldmdbeq	r6, {r1, r4, r7, r9}
    370c:	bc000001 	stclt	0, cr0, [r0], {1}
    3710:	00004b18 	andeq	r4, r0, r8, lsl fp
    3714:	02930500 	addseq	r0, r3, #0, 10
    3718:	00010916 	andeq	r0, r1, r6, lsl r9
    371c:	6e18c400 	cfmulsvs	mvf12, mvf8, mvf0
    3720:	05000003 	streq	r0, [r0, #-3]
    3724:	25080294 	strcs	r0, [r8, #-660]	; 0xfffffd6c
    3728:	cc000000 	stcgt	0, cr0, [r0], {-0}
    372c:	01290a00 			; <UNDEFINED> instruction: 0x01290a00
    3730:	081a0000 	ldmdaeq	sl, {}	; <UNPREDICTABLE>
    3734:	380b0000 	stmdacc	fp, {}	; <UNPREDICTABLE>
    3738:	19000000 	stmdbne	r0, {}	; <UNPREDICTABLE>
    373c:	01290a00 			; <UNDEFINED> instruction: 0x01290a00
    3740:	082a0000 	stmdaeq	sl!, {}	; <UNPREDICTABLE>
    3744:	380b0000 	stmdacc	fp, {}	; <UNPREDICTABLE>
    3748:	07000000 	streq	r0, [r0, -r0]
    374c:	01290a00 			; <UNDEFINED> instruction: 0x01290a00
    3750:	083a0000 	ldmdaeq	sl!, {}	; <UNPREDICTABLE>
    3754:	380b0000 	stmdacc	fp, {}	; <UNPREDICTABLE>
    3758:	17000000 	strne	r0, [r0, -r0]
    375c:	05f01b00 	ldrbeq	r1, [r0, #2816]!	; 0xb00
    3760:	61070299 			; <UNDEFINED> instruction: 0x61070299
    3764:	18000008 	stmdane	r0, {r3}
    3768:	0000029a 	muleq	r0, sl, r2
    376c:	1b029c05 	blne	aa788 <__bss_end__+0xa0728>
    3770:	00000861 	andeq	r0, r0, r1, ror #16
    3774:	04bd1800 	ldrteq	r1, [sp], #2048	; 0x800
    3778:	9d050000 	stcls	0, cr0, [r5, #-0]
    377c:	08711802 	ldmdaeq	r1!, {r1, fp, ip}^
    3780:	00780000 	rsbseq	r0, r8, r0
    3784:	0003110a 	andeq	r1, r3, sl, lsl #2
    3788:	00087100 	andeq	r7, r8, r0, lsl #2
    378c:	00380b00 	eorseq	r0, r8, r0, lsl #22
    3790:	001d0000 	andseq	r0, sp, r0
    3794:	0000380a 	andeq	r3, r0, sl, lsl #16
    3798:	00088100 	andeq	r8, r8, r0, lsl #2
    379c:	00380b00 	eorseq	r0, r8, r0, lsl #22
    37a0:	001d0000 	andseq	r0, sp, r0
    37a4:	7e05f01c 	mcrvc	0, 0, pc, cr5, cr12, {0}	; <UNPREDICTABLE>
    37a8:	08a60302 	stmiaeq	r6!, {r1, r8, r9}
    37ac:	0c1d0000 	ldceq	0, cr0, [sp], {-0}
    37b0:	05000004 	streq	r0, [r0, #-4]
    37b4:	f50b0295 			; <UNDEFINED> instruction: 0xf50b0295
    37b8:	1d000006 	stcne	0, cr0, [r0, #-24]	; 0xffffffe8
    37bc:	000004e8 	andeq	r0, r0, r8, ror #9
    37c0:	0b029e05 	bleq	aafdc <__bss_end__+0xa0f7c>
    37c4:	0000083a 	andeq	r0, r0, sl, lsr r8
    37c8:	01290a00 			; <UNDEFINED> instruction: 0x01290a00
    37cc:	08b60000 	ldmeq	r6!, {}	; <UNPREDICTABLE>
    37d0:	380b0000 	stmdacc	fp, {}	; <UNPREDICTABLE>
    37d4:	18000000 	stmdane	r0, {}	; <UNPREDICTABLE>
    37d8:	00840600 	addeq	r0, r4, r0, lsl #12
    37dc:	04050000 	streq	r0, [r5], #-0
    37e0:	000008b6 			; <UNDEFINED> instruction: 0x000008b6
    37e4:	0008cc1e 	andeq	ip, r8, lr, lsl ip
    37e8:	04781600 	ldrbteq	r1, [r8], #-1536	; 0xfffffa00
    37ec:	05000000 	streq	r0, [r0, #-0]
    37f0:	0008c104 	andeq	ip, r8, r4, lsl #2
    37f4:	9b040500 	blls	104bfc <__bss_end__+0xfab9c>
    37f8:	1e000001 	cdpne	0, 0, cr0, cr0, cr1, {0}
    37fc:	000008e3 	andeq	r0, r0, r3, ror #17
    3800:	00002516 	andeq	r2, r0, r6, lsl r5
    3804:	04050000 	streq	r0, [r5], #-0
    3808:	000008e9 	andeq	r0, r0, r9, ror #17
    380c:	08d80405 	ldmeq	r8, {r0, r2, sl}^
    3810:	5a0a0000 	bpl	283818 <__bss_end__+0x2797b8>
    3814:	ff000006 			; <UNDEFINED> instruction: 0xff000006
    3818:	0b000008 	bleq	3840 <_start-0x47c0>
    381c:	00000038 	andeq	r0, r0, r8, lsr r0
    3820:	841f0002 	ldrhi	r0, [pc], #-2	; 3828 <_start-0x47d8>
    3824:	05000004 	streq	r0, [r0, #-4]
    3828:	7817032e 	ldmdavc	r7, {r1, r2, r3, r5, r8, r9}
    382c:	1f000004 	svcne	0x00000004
    3830:	0000047d 	andeq	r0, r0, sp, ror r4
    3834:	1d032f05 	stcne	15, cr2, [r3, #-20]	; 0xffffffec
    3838:	0000047e 	andeq	r0, r0, lr, ror r4
    383c:	00067d20 	andeq	r7, r6, r0, lsr #26
    3840:	09210600 	stmdbeq	r1!, {r9, sl}
    3844:	00000121 	andeq	r0, r0, r1, lsr #2
    3848:	00008a4c 	andeq	r8, r0, ip, asr #20
    384c:	00000018 	andeq	r0, r0, r8, lsl r0
    3850:	5f219c01 	svcpl	0x00219c01
    3854:	03010070 	movweq	r0, #4208	; 0x1070
    3858:	00012114 	andeq	r2, r1, r4, lsl r1
    385c:	21500100 	cmpcs	r0, r0, lsl #2
    3860:	03010063 	movweq	r0, #4195	; 0x1063
    3864:	0000251c 	andeq	r2, r0, ip, lsl r5
    3868:	22510100 	subscs	r0, r1, #0, 2
    386c:	0301006e 	movweq	r0, #4206	; 0x106e
    3870:	00002c26 	andeq	r2, r0, r6, lsr #24
    3874:	0009f400 	andeq	pc, r9, r0, lsl #8
    3878:	0009f000 	andeq	pc, r9, r0
    387c:	00702300 	rsbseq	r2, r0, r0, lsl #6
    3880:	230b0401 	movwcs	r0, #46081	; 0xb401
    3884:	1d000001 	stcne	0, cr0, [r0, #-4]
    3888:	1500000a 	strne	r0, [r0, #-10]
    388c:	2300000a 	movwcs	r0, #10
    3890:	04010065 	streq	r0, [r1], #-101	; 0xffffff9b
    3894:	00012314 	andeq	r2, r1, r4, lsl r3
    3898:	000a5500 	andeq	r5, sl, r0, lsl #10
    389c:	000a5300 	andeq	r5, sl, r0, lsl #6
    38a0:	2b000000 	blcs	38a8 <_start-0x4758>
    38a4:	0400000a 	streq	r0, [r0], #-10
    38a8:	0009cb00 	andeq	ip, r9, r0, lsl #22
    38ac:	ef010400 	svc	0x00010400
    38b0:	0c000002 	stceq	0, cr0, [r0], {2}
    38b4:	00000725 	andeq	r0, r0, r5, lsr #14
    38b8:	000006cc 	andeq	r0, r0, ip, asr #13
    38bc:	00008a64 	andeq	r8, r0, r4, ror #20
    38c0:	00000058 	andeq	r0, r0, r8, asr r0
    38c4:	00000b8b 	andeq	r0, r0, fp, lsl #23
    38c8:	00071102 	andeq	r1, r7, r2, lsl #2
    38cc:	1b280200 	blne	a040d4 <__bss_end__+0x9fa074>
    38d0:	00000031 	andeq	r0, r0, r1, lsr r0
    38d4:	0006fd03 	andeq	pc, r6, r3, lsl #26
    38d8:	00080400 	andeq	r0, r8, r0, lsl #8
    38dc:	00000048 	andeq	r0, r0, r8, asr #32
    38e0:	00072004 	andeq	r2, r7, r4
    38e4:	00004800 	andeq	r4, r0, r0, lsl #16
    38e8:	05000000 	streq	r0, [r0, #-0]
    38ec:	06ff0204 	ldrbteq	r0, [pc], r4, lsl #4
    38f0:	63020000 	movwvs	r0, #8192	; 0x2000
    38f4:	00002518 	andeq	r2, r0, r8, lsl r5
    38f8:	05040600 	streq	r0, [r4, #-1536]	; 0xfffffa00
    38fc:	00746e69 	rsbseq	r6, r4, r9, ror #28
    3900:	66070407 	strvs	r0, [r7], -r7, lsl #8
    3904:	07000000 	streq	r0, [r0, -r0]
    3908:	02de0601 	sbcseq	r0, lr, #1048576	; 0x100000
    390c:	02070000 	andeq	r0, r7, #0
    3910:	00037705 	andeq	r7, r3, r5, lsl #14
    3914:	05040700 	streq	r0, [r4, #-1792]	; 0xfffff900
    3918:	000000ac 	andeq	r0, r0, ip, lsr #1
    391c:	a7050807 	strge	r0, [r5, -r7, lsl #16]
    3920:	07000000 	streq	r0, [r0, -r0]
    3924:	02dc0801 	sbcseq	r0, ip, #65536	; 0x10000
    3928:	02070000 	andeq	r0, r7, #0
    392c:	00022207 	andeq	r2, r2, r7, lsl #4
    3930:	07040700 	streq	r0, [r4, -r0, lsl #14]
    3934:	00000061 	andeq	r0, r0, r1, rrx
    3938:	5c070807 	stcpl	8, cr0, [r7], {7}
    393c:	02000000 	andeq	r0, r0, #0
    3940:	00000265 	andeq	r0, r0, r5, ror #4
    3944:	a8192203 	ldmdage	r9, {r0, r1, r9, sp}
    3948:	08000000 	stmdaeq	r0, {}	; <UNPREDICTABLE>
    394c:	0000ae04 	andeq	sl, r0, r4, lsl #28
    3950:	04210900 	strteq	r0, [r1], #-2304	; 0xfffff700
    3954:	bd020000 	stclt	0, cr0, [r2, #-0]
    3958:	04000002 	streq	r0, [r0], #-2
    395c:	00720e2c 	rsbseq	r0, r2, ip, lsr #28
    3960:	36020000 	strcc	r0, [r2], -r0
    3964:	04000004 	streq	r0, [r0], #-4
    3968:	00720e72 	rsbseq	r0, r2, r2, ror lr
    396c:	6d0a0000 	stcvs	0, cr0, [sl, #-0]
    3970:	05000002 	streq	r0, [r0, #-2]
    3974:	5d17015e 	ldfpls	f0, [r7, #-376]	; 0xfffffe88
    3978:	0b000000 	bleq	3980 <_start-0x4680>
    397c:	03a60404 			; <UNDEFINED> instruction: 0x03a60404
    3980:	000000fa 	strdeq	r0, [r0], -sl
    3984:	00025f0c 	andeq	r5, r2, ip, lsl #30
    3988:	0ca80400 	cfstrseq	mvf0, [r8]
    398c:	000000cb 	andeq	r0, r0, fp, asr #1
    3990:	0001e20c 	andeq	lr, r1, ip, lsl #4
    3994:	13a90400 			; <UNDEFINED> instruction: 0x13a90400
    3998:	000000fa 	strdeq	r0, [r0], -sl
    399c:	00800d00 	addeq	r0, r0, r0, lsl #26
    39a0:	010a0000 	mrseq	r0, (UNDEF: 10)
    39a4:	5d0e0000 	stcpl	0, cr0, [lr, #-0]
    39a8:	03000000 	movweq	r0, #0
    39ac:	04080f00 	streq	r0, [r8], #-3840	; 0xfffff100
    39b0:	012e09a3 	smulwbeq	lr, r3, r9
    39b4:	19100000 	ldmdbne	r0, {}	; <UNPREDICTABLE>
    39b8:	04000004 	streq	r0, [r0], #-4
    39bc:	005607a5 	subseq	r0, r6, r5, lsr #15
    39c0:	10000000 	andne	r0, r0, r0
    39c4:	00000428 	andeq	r0, r0, r8, lsr #8
    39c8:	d805aa04 	stmdale	r5, {r2, r9, fp, sp, pc}
    39cc:	04000000 	streq	r0, [r0], #-0
    39d0:	03a30200 			; <UNDEFINED> instruction: 0x03a30200
    39d4:	ab040000 	blge	1039dc <__bss_end__+0xf997c>
    39d8:	00010a03 	andeq	r0, r1, r3, lsl #20
    39dc:	019f0200 	orrseq	r0, pc, r0, lsl #4
    39e0:	af040000 	svcge	0x00040000
    39e4:	00009c1b 	andeq	r9, r0, fp, lsl ip
    39e8:	4c040800 	stcmi	8, cr0, [r4], {-0}
    39ec:	07000001 	streq	r0, [r0, -r1]
    39f0:	02e50801 	rsceq	r0, r5, #65536	; 0x10000
    39f4:	4c110000 	ldcmi	0, cr0, [r1], {-0}
    39f8:	02000001 	andeq	r0, r0, #1
    39fc:	00000468 	andeq	r0, r0, r8, ror #8
    3a00:	8e191606 	cfmsub32hi	mvax0, mvfx1, mvfx9, mvfx6
    3a04:	12000000 	andne	r0, r0, #0
    3a08:	000001b0 			; <UNDEFINED> instruction: 0x000001b0
    3a0c:	082f0618 	stmdaeq	pc!, {r3, r4, r9, sl}	; <UNPREDICTABLE>
    3a10:	000001be 			; <UNDEFINED> instruction: 0x000001be
    3a14:	0003c410 	andeq	ip, r3, r0, lsl r4
    3a18:	13310600 	teqne	r1, #0, 12
    3a1c:	000001be 			; <UNDEFINED> instruction: 0x000001be
    3a20:	6b5f1300 	blvs	17c8628 <__bss_end__+0x17be5c8>
    3a24:	07320600 	ldreq	r0, [r2, -r0, lsl #12]!
    3a28:	00000056 	andeq	r0, r0, r6, asr r0
    3a2c:	04041004 	streq	r1, [r4], #-4
    3a30:	32060000 	andcc	r0, r6, #0
    3a34:	0000560b 	andeq	r5, r0, fp, lsl #12
    3a38:	99100800 	ldmdbls	r0, {fp}
    3a3c:	06000001 	streq	r0, [r0], -r1
    3a40:	00561432 	subseq	r1, r6, r2, lsr r4
    3a44:	100c0000 	andne	r0, ip, r0
    3a48:	000004a8 	andeq	r0, r0, r8, lsr #9
    3a4c:	561b3206 	ldrpl	r3, [fp], -r6, lsl #4
    3a50:	10000000 	andne	r0, r0, r0
    3a54:	00785f13 	rsbseq	r5, r8, r3, lsl pc
    3a58:	c40b3306 	strgt	r3, [fp], #-774	; 0xfffffcfa
    3a5c:	14000001 	strne	r0, [r0], #-1
    3a60:	64040800 	strvs	r0, [r4], #-2048	; 0xfffff800
    3a64:	0d000001 	stceq	0, cr0, [r0, #-4]
    3a68:	00000158 	andeq	r0, r0, r8, asr r1
    3a6c:	000001d4 	ldrdeq	r0, [r0], -r4
    3a70:	00005d0e 	andeq	r5, r0, lr, lsl #26
    3a74:	12000000 	andne	r0, r0, #0
    3a78:	000001dd 	ldrdeq	r0, [r0], -sp
    3a7c:	08370624 	ldmdaeq	r7!, {r2, r5, r9, sl}
    3a80:	00000257 	andeq	r0, r0, r7, asr r2
    3a84:	00009e10 	andeq	r9, r0, r0, lsl lr
    3a88:	09390600 	ldmdbeq	r9!, {r9, sl}
    3a8c:	00000056 	andeq	r0, r0, r6, asr r0
    3a90:	043e1000 	ldrteq	r1, [lr], #-0
    3a94:	3a060000 	bcc	183a9c <__bss_end__+0x179a3c>
    3a98:	00005609 	andeq	r5, r0, r9, lsl #12
    3a9c:	c1100400 	tstgt	r0, r0, lsl #8
    3aa0:	06000000 	streq	r0, [r0], -r0
    3aa4:	0056093b 	subseq	r0, r6, fp, lsr r9
    3aa8:	10080000 	andne	r0, r8, r0
    3aac:	00000533 	andeq	r0, r0, r3, lsr r5
    3ab0:	56093c06 	strpl	r3, [r9], -r6, lsl #24
    3ab4:	0c000000 	stceq	0, cr0, [r0], {-0}
    3ab8:	0002a110 	andeq	sl, r2, r0, lsl r1
    3abc:	093d0600 	ldmdbeq	sp!, {r9, sl}
    3ac0:	00000056 	andeq	r0, r0, r6, asr r0
    3ac4:	02831010 	addeq	r1, r3, #16
    3ac8:	3e060000 	cdpcc	0, 0, cr0, cr6, cr0, {0}
    3acc:	00005609 	andeq	r5, r0, r9, lsl #12
    3ad0:	ad101400 	cfldrsge	mvf1, [r0, #-0]
    3ad4:	06000004 	streq	r0, [r0], -r4
    3ad8:	0056093f 	subseq	r0, r6, pc, lsr r9
    3adc:	10180000 	andsne	r0, r8, r0
    3ae0:	00000529 	andeq	r0, r0, r9, lsr #10
    3ae4:	56094006 	strpl	r4, [r9], -r6
    3ae8:	1c000000 	stcne	0, cr0, [r0], {-0}
    3aec:	0004f010 	andeq	pc, r4, r0, lsl r0	; <UNPREDICTABLE>
    3af0:	09410600 	stmdbeq	r1, {r9, sl}^
    3af4:	00000056 	andeq	r0, r0, r6, asr r0
    3af8:	01140020 	tsteq	r4, r0, lsr #32
    3afc:	08000001 	stmdaeq	r0, {r0}
    3b00:	084a0601 	stmdaeq	sl, {r0, r9, sl}^
    3b04:	0000029c 	muleq	r0, ip, r2
    3b08:	00018c10 	andeq	r8, r1, r0, lsl ip
    3b0c:	0a4b0600 	beq	12c5314 <__bss_end__+0x12bb2b4>
    3b10:	0000029c 	muleq	r0, ip, r2
    3b14:	00001000 	andeq	r1, r0, r0
    3b18:	4c060000 	stcmi	0, cr0, [r6], {-0}
    3b1c:	00029c09 	andeq	r9, r2, r9, lsl #24
    3b20:	5a158000 	bpl	563b28 <__bss_end__+0x559ac8>
    3b24:	06000004 	streq	r0, [r0], -r4
    3b28:	01580a4e 	cmpeq	r8, lr, asr #20
    3b2c:	01000000 	mrseq	r0, (UNDEF: 0)
    3b30:	00012615 	andeq	r2, r1, r5, lsl r6
    3b34:	0a510600 	beq	144533c <__bss_end__+0x143b2dc>
    3b38:	00000158 	andeq	r0, r0, r8, asr r1
    3b3c:	0d000104 	stfeqs	f0, [r0, #-16]
    3b40:	00000048 	andeq	r0, r0, r8, asr #32
    3b44:	000002ac 	andeq	r0, r0, ip, lsr #5
    3b48:	00005d0e 	andeq	r5, r0, lr, lsl #26
    3b4c:	14001f00 	strne	r1, [r0], #-3840	; 0xfffff100
    3b50:	000002aa 	andeq	r0, r0, sl, lsr #5
    3b54:	5d060190 	stfpls	f0, [r6, #-576]	; 0xfffffdc0
    3b58:	0002ef08 	andeq	lr, r2, r8, lsl #30
    3b5c:	03c41000 	biceq	r1, r4, #0
    3b60:	5e060000 	cdppl	0, 0, cr0, cr6, cr0, {0}
    3b64:	0002ef12 	andeq	lr, r2, r2, lsl pc
    3b68:	dc100000 	ldcle	0, cr0, [r0], {-0}
    3b6c:	06000003 	streq	r0, [r0], -r3
    3b70:	0056065f 	subseq	r0, r6, pc, asr r6
    3b74:	10040000 	andne	r0, r4, r0
    3b78:	00000194 	muleq	r0, r4, r1
    3b7c:	f5096106 			; <UNDEFINED> instruction: 0xf5096106
    3b80:	08000002 	stmdaeq	r0, {r1}
    3b84:	00010110 	andeq	r0, r1, r0, lsl r1
    3b88:	1e620600 	cdpne	6, 6, cr0, cr2, cr0, {0}
    3b8c:	00000257 	andeq	r0, r0, r7, asr r2
    3b90:	04080088 	streq	r0, [r8], #-136	; 0xffffff78
    3b94:	000002ac 	andeq	r0, r0, ip, lsr #5
    3b98:	0003050d 	andeq	r0, r3, sp, lsl #10
    3b9c:	00030500 	andeq	r0, r3, r0, lsl #10
    3ba0:	005d0e00 	subseq	r0, sp, r0, lsl #28
    3ba4:	001f0000 	andseq	r0, pc, r0
    3ba8:	030b0408 	movweq	r0, #46088	; 0xb408
    3bac:	12160000 	andsne	r0, r6, #0
    3bb0:	0000038f 	andeq	r0, r0, pc, lsl #7
    3bb4:	08750608 	ldmdaeq	r5!, {r3, r9, sl}^
    3bb8:	00000334 	andeq	r0, r0, r4, lsr r3
    3bbc:	0000bb10 	andeq	fp, r0, r0, lsl fp
    3bc0:	11760600 	cmnne	r6, r0, lsl #12
    3bc4:	00000334 	andeq	r0, r0, r4, lsr r3
    3bc8:	001b1000 	andseq	r1, fp, r0
    3bcc:	77060000 	strvc	r0, [r6, -r0]
    3bd0:	00005606 	andeq	r5, r0, r6, lsl #12
    3bd4:	08000400 	stmdaeq	r0, {sl}
    3bd8:	00008004 	andeq	r8, r0, r4
    3bdc:	03ae1200 			; <UNDEFINED> instruction: 0x03ae1200
    3be0:	06680000 	strbteq	r0, [r8], -r0
    3be4:	047d08b5 	ldrbteq	r0, [sp], #-2229	; 0xfffff74b
    3be8:	5f130000 	svcpl	0x00130000
    3bec:	b6060070 			; <UNDEFINED> instruction: 0xb6060070
    3bf0:	00033412 	andeq	r3, r3, r2, lsl r4
    3bf4:	5f130000 	svcpl	0x00130000
    3bf8:	b7060072 	smlsdxlt	r6, r2, r0, r0
    3bfc:	00005607 	andeq	r5, r0, r7, lsl #12
    3c00:	5f130400 	svcpl	0x00130400
    3c04:	b8060077 	stmdalt	r6, {r0, r1, r2, r4, r5, r6}
    3c08:	00005607 	andeq	r5, r0, r7, lsl #12
    3c0c:	1f100800 	svcne	0x00100800
    3c10:	06000001 	streq	r0, [r0], -r1
    3c14:	006b09b9 	strhteq	r0, [fp], #-153	; 0xffffff67
    3c18:	100c0000 	andne	r0, ip, r0
    3c1c:	00000208 	andeq	r0, r0, r8, lsl #4
    3c20:	6b09ba06 	blvs	272440 <__bss_end__+0x2683e0>
    3c24:	0e000000 	cdpeq	0, 0, cr0, cr0, cr0, {0}
    3c28:	66625f13 	uqadd16vs	r5, r2, r3
    3c2c:	11bb0600 			; <UNDEFINED> instruction: 0x11bb0600
    3c30:	0000030c 	andeq	r0, r0, ip, lsl #6
    3c34:	007b1010 	rsbseq	r1, fp, r0, lsl r0
    3c38:	bc060000 	stclt	0, cr0, [r6], {-0}
    3c3c:	00005607 	andeq	r5, r0, r7, lsl #12
    3c40:	0f101800 	svceq	0x00101800
    3c44:	06000001 	streq	r0, [r0], -r1
    3c48:	00480ac3 	subeq	r0, r8, r3, asr #21
    3c4c:	101c0000 	andsne	r0, ip, r0
    3c50:	00000b59 	andeq	r0, r0, r9, asr fp
    3c54:	ef1dc506 	svc	0x001dc506
    3c58:	20000005 	andcs	r0, r0, r5
    3c5c:	00061d10 	andeq	r1, r6, r0, lsl sp
    3c60:	1dc70600 	stclne	6, cr0, [r7]
    3c64:	00000619 	andeq	r0, r0, r9, lsl r6
    3c68:	04301024 	ldrteq	r1, [r0], #-36	; 0xffffffdc
    3c6c:	ca060000 	bgt	183c74 <__bss_end__+0x179c14>
    3c70:	00063d0d 	andeq	r3, r6, sp, lsl #26
    3c74:	0a102800 	beq	40dc7c <__bss_end__+0x403c1c>
    3c78:	06000005 	streq	r0, [r0], -r5
    3c7c:	065709cb 	ldrbeq	r0, [r7], -fp, asr #19
    3c80:	132c0000 			; <UNDEFINED> instruction: 0x132c0000
    3c84:	0062755f 	rsbeq	r7, r2, pc, asr r5
    3c88:	0c11ce06 	ldceq	14, cr12, [r1], {6}
    3c8c:	30000003 	andcc	r0, r0, r3
    3c90:	70755f13 	rsbsvc	r5, r5, r3, lsl pc
    3c94:	12cf0600 	sbcne	r0, pc, #0, 12
    3c98:	00000334 	andeq	r0, r0, r4, lsr r3
    3c9c:	755f1338 	ldrbvc	r1, [pc, #-824]	; 396c <_start-0x4694>
    3ca0:	d0060072 	andle	r0, r6, r2, ror r0
    3ca4:	00005607 	andeq	r5, r0, r7, lsl #12
    3ca8:	b5103c00 	ldrlt	r3, [r0, #-3072]	; 0xfffff400
    3cac:	06000000 	streq	r0, [r0], -r0
    3cb0:	065d11d3 			; <UNDEFINED> instruction: 0x065d11d3
    3cb4:	10400000 	subne	r0, r0, r0
    3cb8:	000004e2 	andeq	r0, r0, r2, ror #9
    3cbc:	6d11d406 	cfldrsvs	mvf13, [r1, #-24]	; 0xffffffe8
    3cc0:	43000006 	movwmi	r0, #6
    3cc4:	626c5f13 	rsbvs	r5, ip, #19, 30	; 0x4c
    3cc8:	11d70600 	bicsne	r0, r7, r0, lsl #12
    3ccc:	0000030c 	andeq	r0, r0, ip, lsl #6
    3cd0:	013d1044 	teqeq	sp, r4, asr #32
    3cd4:	da060000 	ble	183cdc <__bss_end__+0x179c7c>
    3cd8:	00005607 	andeq	r5, r0, r7, lsl #12
    3cdc:	4e104c00 	cdpmi	12, 1, cr4, cr0, cr0, {0}
    3ce0:	06000001 	streq	r0, [r0], -r1
    3ce4:	00b30adb 	ldrsbteq	r0, [r3], fp
    3ce8:	10500000 	subsne	r0, r0, r0
    3cec:	00000afa 	strdeq	r0, [r0], -sl
    3cf0:	9b12de06 	blls	4bb510 <__bss_end__+0x4b14b0>
    3cf4:	54000004 	strpl	r0, [r0], #-4
    3cf8:	00042210 	andeq	r2, r4, r0, lsl r2
    3cfc:	0ce20600 	stcleq	6, cr0, [r2]
    3d00:	0000013a 	andeq	r0, r0, sl, lsr r1
    3d04:	03b61058 			; <UNDEFINED> instruction: 0x03b61058
    3d08:	e4060000 	str	r0, [r6], #-0
    3d0c:	00012e0e 	andeq	r2, r1, lr, lsl #28
    3d10:	7b105c00 	blvc	41ad18 <__bss_end__+0x410cb8>
    3d14:	06000002 	streq	r0, [r0], -r2
    3d18:	005609e5 	subseq	r0, r6, r5, ror #19
    3d1c:	00640000 	rsbeq	r0, r4, r0
    3d20:	00005617 	andeq	r5, r0, r7, lsl r6
    3d24:	00049b00 	andeq	r9, r4, r0, lsl #22
    3d28:	049b1800 	ldreq	r1, [fp], #2048	; 0x800
    3d2c:	48180000 	ldmdami	r8, {}	; <UNPREDICTABLE>
    3d30:	18000000 	stmdane	r0, {}	; <UNPREDICTABLE>
    3d34:	00000146 	andeq	r0, r0, r6, asr #2
    3d38:	00005618 	andeq	r5, r0, r8, lsl r6
    3d3c:	04080000 	streq	r0, [r8], #-0
    3d40:	000004a6 	andeq	r0, r0, r6, lsr #9
    3d44:	00049b11 	andeq	r9, r4, r1, lsl fp
    3d48:	040c1900 	streq	r1, [ip], #-2304	; 0xfffff700
    3d4c:	04280000 	strteq	r0, [r8], #-0
    3d50:	08026006 	stmdaeq	r2, {r1, r2, sp, lr}
    3d54:	000005ef 	andeq	r0, r0, pc, ror #11
    3d58:	0003701a 	andeq	r7, r3, sl, lsl r0
    3d5c:	02620600 	rsbeq	r0, r2, #0, 12
    3d60:	00005607 	andeq	r5, r0, r7, lsl #12
    3d64:	2e1a0000 	cdpcs	0, 1, cr0, cr10, cr0, {0}
    3d68:	06000001 	streq	r0, [r0], -r1
    3d6c:	c90b0267 	stmdbgt	fp, {r0, r1, r2, r5, r6, r9}
    3d70:	04000006 	streq	r0, [r0], #-6
    3d74:	0001f81a 	andeq	pc, r1, sl, lsl r8	; <UNPREDICTABLE>
    3d78:	02670600 	rsbeq	r0, r7, #0, 12
    3d7c:	0006c914 	andeq	ip, r6, r4, lsl r9
    3d80:	a81a0800 	ldmdage	sl, {fp}
    3d84:	06000001 	streq	r0, [r0], -r1
    3d88:	c91e0267 	ldmdbgt	lr, {r0, r1, r2, r5, r6, r9}
    3d8c:	0c000006 	stceq	0, cr0, [r0], {6}
    3d90:	0003d71a 	andeq	sp, r3, sl, lsl r7
    3d94:	02690600 	rsbeq	r0, r9, #0, 12
    3d98:	00005608 	andeq	r5, r0, r8, lsl #12
    3d9c:	291a1000 	ldmdbcs	sl, {ip}
    3da0:	06000000 	streq	r0, [r0], -r0
    3da4:	c908026a 	stmdbgt	r8, {r1, r3, r5, r6, r9}
    3da8:	14000008 	strne	r0, [r0], #-8
    3dac:	0003eb1a 	andeq	lr, r3, sl, lsl fp
    3db0:	026d0600 	rsbeq	r0, sp, #0, 12
    3db4:	00005607 	andeq	r5, r0, r7, lsl #12
    3db8:	361a3000 	ldrcc	r3, [sl], -r0
    3dbc:	0600000a 	streq	r0, [r0], -sl
    3dc0:	de16026e 	cdple	2, 1, cr0, cr6, cr14, {3}
    3dc4:	34000008 	strcc	r0, [r0], #-8
    3dc8:	0002b21a 	andeq	fp, r2, sl, lsl r2
    3dcc:	02700600 	rsbseq	r0, r0, #0, 12
    3dd0:	00005607 	andeq	r5, r0, r7, lsl #12
    3dd4:	e11a3800 	tst	sl, r0, lsl #16
    3dd8:	06000003 	streq	r0, [r0], -r3
    3ddc:	ef0a0272 	svc	0x000a0272
    3de0:	3c000008 	stccc	0, cr0, [r0], {8}
    3de4:	0002571a 	andeq	r5, r2, sl, lsl r7
    3de8:	02750600 	rsbseq	r0, r5, #0, 12
    3dec:	0001be13 	andeq	fp, r1, r3, lsl lr
    3df0:	c71a4000 	ldrgt	r4, [sl, -r0]
    3df4:	06000001 	streq	r0, [r0], -r1
    3df8:	56070276 			; <UNDEFINED> instruction: 0x56070276
    3dfc:	44000000 	strmi	r0, [r0], #-0
    3e00:	0005241a 	andeq	r2, r5, sl, lsl r4
    3e04:	02770600 	rsbseq	r0, r7, #0, 12
    3e08:	0001be13 	andeq	fp, r1, r3, lsl lr
    3e0c:	c41a4800 	ldrgt	r4, [sl], #-2048	; 0xfffff800
    3e10:	06000002 	streq	r0, [r0], -r2
    3e14:	f5140278 			; <UNDEFINED> instruction: 0xf5140278
    3e18:	4c000008 	stcmi	0, cr0, [r0], {8}
    3e1c:	0002001a 	andeq	r0, r2, sl, lsl r0
    3e20:	027b0600 	rsbseq	r0, fp, #0, 12
    3e24:	00005607 	andeq	r5, r0, r7, lsl #12
    3e28:	461a5000 	ldrmi	r5, [sl], -r0
    3e2c:	06000001 	streq	r0, [r0], -r1
    3e30:	4609027c 			; <UNDEFINED> instruction: 0x4609027c
    3e34:	54000001 	strpl	r0, [r0], #-1
    3e38:	0002ea1a 	andeq	lr, r2, sl, lsl sl
    3e3c:	029f0600 	addseq	r0, pc, #0, 12
    3e40:	0008a407 	andeq	sl, r8, r7, lsl #8
    3e44:	aa1b5800 	bge	6d9e4c <__bss_end__+0x6cfdec>
    3e48:	06000002 	streq	r0, [r0], -r2
    3e4c:	ef1302a3 	svc	0x001302a3
    3e50:	48000002 	stmdami	r0, {r1}
    3e54:	02351b01 	eorseq	r1, r5, #1024	; 0x400
    3e58:	a4060000 	strge	r0, [r6], #-0
    3e5c:	02ac1202 	adceq	r1, ip, #536870912	; 0x20000000
    3e60:	014c0000 	mrseq	r0, (UNDEF: 76)
    3e64:	0004d01b 	andeq	sp, r4, fp, lsl r0
    3e68:	02a80600 	adceq	r0, r8, #0, 12
    3e6c:	0009060c 	andeq	r0, r9, ip, lsl #12
    3e70:	1b02dc00 	blne	bae78 <__bss_end__+0xb0e18>
    3e74:	00000117 	andeq	r0, r0, r7, lsl r1
    3e78:	1002ad06 	andne	sl, r2, r6, lsl #26
    3e7c:	0000068a 	andeq	r0, r0, sl, lsl #13
    3e80:	fc1b02e0 	ldc2	2, cr0, [fp], {224}	; 0xe0
    3e84:	06000000 	streq	r0, [r0], -r0
    3e88:	120a02af 	andne	r0, sl, #-268435446	; 0xf000000a
    3e8c:	ec000009 	stc	0, cr0, [r0], {9}
    3e90:	04080002 	streq	r0, [r8], #-2
    3e94:	0000047d 	andeq	r0, r0, sp, ror r4
    3e98:	00005617 	andeq	r5, r0, r7, lsl r6
    3e9c:	00061300 	andeq	r1, r6, r0, lsl #6
    3ea0:	049b1800 	ldreq	r1, [fp], #2048	; 0x800
    3ea4:	48180000 	ldmdami	r8, {}	; <UNPREDICTABLE>
    3ea8:	18000000 	stmdane	r0, {}	; <UNPREDICTABLE>
    3eac:	00000613 	andeq	r0, r0, r3, lsl r6
    3eb0:	00005618 	andeq	r5, r0, r8, lsl r6
    3eb4:	04080000 	streq	r0, [r8], #-0
    3eb8:	00000153 	andeq	r0, r0, r3, asr r1
    3ebc:	05f50408 	ldrbeq	r0, [r5, #1032]!	; 0x408
    3ec0:	bf170000 	svclt	0x00170000
    3ec4:	3d000000 	stccc	0, cr0, [r0, #-0]
    3ec8:	18000006 	stmdane	r0, {r1, r2}
    3ecc:	0000049b 	muleq	r0, fp, r4
    3ed0:	00004818 	andeq	r4, r0, r8, lsl r8
    3ed4:	00bf1800 	adcseq	r1, pc, r0, lsl #16
    3ed8:	56180000 	ldrpl	r0, [r8], -r0
    3edc:	00000000 	andeq	r0, r0, r0
    3ee0:	061f0408 	ldreq	r0, [pc], -r8, lsl #8
    3ee4:	56170000 	ldrpl	r0, [r7], -r0
    3ee8:	57000000 	strpl	r0, [r0, -r0]
    3eec:	18000006 	stmdane	r0, {r1, r2}
    3ef0:	0000049b 	muleq	r0, fp, r4
    3ef4:	00004818 	andeq	r4, r0, r8, lsl r8
    3ef8:	04080000 	streq	r0, [r8], #-0
    3efc:	00000643 	andeq	r0, r0, r3, asr #12
    3f00:	0000800d 	andeq	r8, r0, sp
    3f04:	00066d00 	andeq	r6, r6, r0, lsl #26
    3f08:	005d0e00 	subseq	r0, sp, r0, lsl #28
    3f0c:	00020000 	andeq	r0, r2, r0
    3f10:	0000800d 	andeq	r8, r0, sp
    3f14:	00067d00 	andeq	r7, r6, r0, lsl #26
    3f18:	005d0e00 	subseq	r0, sp, r0, lsl #28
    3f1c:	00000000 	andeq	r0, r0, r0
    3f20:	00039c0a 	andeq	r9, r3, sl, lsl #24
    3f24:	011f0600 	tsteq	pc, r0, lsl #12
    3f28:	00033a1a 	andeq	r3, r3, sl, lsl sl
    3f2c:	04b71c00 	ldrteq	r1, [r7], #3072	; 0xc00
    3f30:	060c0000 	streq	r0, [ip], -r0
    3f34:	c3080123 	movwgt	r0, #33059	; 0x8123
    3f38:	1a000006 	bne	3f58 <_start-0x40a8>
    3f3c:	000003c4 	andeq	r0, r0, r4, asr #7
    3f40:	11012506 	tstne	r1, r6, lsl #10
    3f44:	000006c3 	andeq	r0, r0, r3, asr #13
    3f48:	021b1a00 	andseq	r1, fp, #0, 20
    3f4c:	26060000 	strcs	r0, [r6], -r0
    3f50:	00560701 	subseq	r0, r6, r1, lsl #14
    3f54:	1a040000 	bne	103f5c <__bss_end__+0xf9efc>
    3f58:	00000396 	muleq	r0, r6, r3
    3f5c:	0b012706 	bleq	4db7c <__bss_end__+0x43b1c>
    3f60:	000006c9 	andeq	r0, r0, r9, asr #13
    3f64:	04080008 	streq	r0, [r8], #-8
    3f68:	0000068a 	andeq	r0, r0, sl, lsl #13
    3f6c:	067d0408 	ldrbteq	r0, [sp], -r8, lsl #8
    3f70:	211c0000 	tstcs	ip, r0
    3f74:	0e000000 	cdpeq	0, 0, cr0, cr0, cr0, {0}
    3f78:	08013f06 	stmdaeq	r1, {r1, r2, r8, r9, sl, fp, ip, sp}
    3f7c:	00000708 	andeq	r0, r0, r8, lsl #14
    3f80:	0004131a 	andeq	r1, r4, sl, lsl r3
    3f84:	01400600 	cmpeq	r0, r0, lsl #12
    3f88:	00070812 	andeq	r0, r7, r2, lsl r8
    3f8c:	471a0000 	ldrmi	r0, [sl, -r0]
    3f90:	06000004 	streq	r0, [r0], -r4
    3f94:	08120141 	ldmdaeq	r2, {r0, r6, r8}
    3f98:	06000007 	streq	r0, [r0], -r7
    3f9c:	0004631a 	andeq	r6, r4, sl, lsl r3
    3fa0:	01420600 	cmpeq	r2, r0, lsl #12
    3fa4:	00008712 	andeq	r8, r0, r2, lsl r7
    3fa8:	0d000c00 	stceq	12, cr0, [r0, #-0]
    3fac:	00000087 	andeq	r0, r0, r7, lsl #1
    3fb0:	00000718 	andeq	r0, r0, r8, lsl r7
    3fb4:	00005d0e 	andeq	r5, r0, lr, lsl #26
    3fb8:	1d000200 	sfmne	f0, 4, [r0, #-0]
    3fbc:	028006d0 	addeq	r0, r0, #208, 12	; 0xd000000
    3fc0:	00082d07 	andeq	r2, r8, r7, lsl #26
    3fc4:	049b1a00 	ldreq	r1, [fp], #2560	; 0xa00
    3fc8:	82060000 	andhi	r0, r6, #0
    3fcc:	005d1802 	subseq	r1, sp, r2, lsl #16
    3fd0:	1a000000 	bne	3fd8 <_start-0x4028>
    3fd4:	0000044d 	andeq	r0, r0, sp, asr #8
    3fd8:	12028306 	andne	r8, r2, #402653184	; 0x18000000
    3fdc:	00000146 	andeq	r0, r0, r6, asr #2
    3fe0:	024a1a04 	subeq	r1, sl, #4, 20	; 0x4000
    3fe4:	84060000 	strhi	r0, [r6], #-0
    3fe8:	082d1002 	stmdaeq	sp!, {r1, ip}
    3fec:	1a080000 	bne	203ff4 <__bss_end__+0x1f9f94>
    3ff0:	000004fb 	strdeq	r0, [r0], -fp
    3ff4:	17028506 	strne	r8, [r2, -r6, lsl #10]
    3ff8:	000001d4 	ldrdeq	r0, [r0], -r4
    3ffc:	01b81a24 			; <UNDEFINED> instruction: 0x01b81a24
    4000:	86060000 	strhi	r0, [r6], -r0
    4004:	00560f02 	subseq	r0, r6, r2, lsl #30
    4008:	1a480000 	bne	1204010 <__bss_end__+0x11f9fb0>
    400c:	000003bf 			; <UNDEFINED> instruction: 0x000003bf
    4010:	2c028706 	stccs	7, cr8, [r2], {6}
    4014:	00000095 	muleq	r0, r5, r0
    4018:	05111a50 	ldreq	r1, [r1, #-2640]	; 0xfffff5b0
    401c:	88060000 	stmdahi	r6, {}	; <UNPREDICTABLE>
    4020:	06cf1a02 	strbeq	r1, [pc], r2, lsl #20
    4024:	1a580000 	bne	160402c <__bss_end__+0x15f9fcc>
    4028:	000003ca 	andeq	r0, r0, sl, asr #7
    402c:	16028906 	strne	r8, [r2], -r6, lsl #18
    4030:	0000012e 	andeq	r0, r0, lr, lsr #2
    4034:	05161a68 	ldreq	r1, [r6, #-2664]	; 0xfffff598
    4038:	8a060000 	bhi	184040 <__bss_end__+0x179fe0>
    403c:	012e1602 			; <UNDEFINED> instruction: 0x012e1602
    4040:	1a700000 	bne	1c04048 <__bss_end__+0x1bf9fe8>
    4044:	000002ce 	andeq	r0, r0, lr, asr #5
    4048:	16028b06 	strne	r8, [r2], -r6, lsl #22
    404c:	0000012e 	andeq	r0, r0, lr, lsr #2
    4050:	04c61a78 	strbeq	r1, [r6], #2680	; 0xa78
    4054:	8c060000 	stchi	0, cr0, [r6], {-0}
    4058:	083d1002 	ldmdaeq	sp!, {r1, ip}
    405c:	1a800000 	bne	fe004064 <__bss_end__+0xfdffa004>
    4060:	0000023e 	andeq	r0, r0, lr, lsr r2
    4064:	10028d06 	andne	r8, r2, r6, lsl #26
    4068:	0000084d 	andeq	r0, r0, sp, asr #16
    406c:	04701a88 	ldrbteq	r1, [r0], #-2696	; 0xfffff578
    4070:	8e060000 	cdphi	0, 0, cr0, cr6, cr0, {0}
    4074:	00560f02 	subseq	r0, r6, r2, lsl #30
    4078:	1aa00000 	bne	fe804080 <__bss_end__+0xfe7fa020>
    407c:	0000017e 	andeq	r0, r0, lr, ror r1
    4080:	16028f06 	strne	r8, [r2], -r6, lsl #30
    4084:	0000012e 	andeq	r0, r0, lr, lsr #2
    4088:	008f1aa4 	addeq	r1, pc, r4, lsr #21
    408c:	90060000 	andls	r0, r6, r0
    4090:	012e1602 			; <UNDEFINED> instruction: 0x012e1602
    4094:	1aac0000 	bne	feb0409c <__bss_end__+0xfeafa03c>
    4098:	0000016d 	andeq	r0, r0, sp, ror #2
    409c:	16029106 	strne	r9, [r2], -r6, lsl #2
    40a0:	0000012e 	andeq	r0, r0, lr, lsr #2
    40a4:	003c1ab4 	ldrhteq	r1, [ip], -r4
    40a8:	92060000 	andls	r0, r6, #0
    40ac:	012e1602 			; <UNDEFINED> instruction: 0x012e1602
    40b0:	1abc0000 	bne	fef040b8 <__bss_end__+0xfeefa058>
    40b4:	0000004b 	andeq	r0, r0, fp, asr #32
    40b8:	16029306 	strne	r9, [r2], -r6, lsl #6
    40bc:	0000012e 	andeq	r0, r0, lr, lsr #2
    40c0:	036e1ac4 	cmneq	lr, #196, 20	; 0xc4000
    40c4:	94060000 	strls	r0, [r6], #-0
    40c8:	00560802 	subseq	r0, r6, r2, lsl #16
    40cc:	00cc0000 	sbceq	r0, ip, r0
    40d0:	00014c0d 	andeq	r4, r1, sp, lsl #24
    40d4:	00083d00 	andeq	r3, r8, r0, lsl #26
    40d8:	005d0e00 	subseq	r0, sp, r0, lsl #28
    40dc:	00190000 	andseq	r0, r9, r0
    40e0:	00014c0d 	andeq	r4, r1, sp, lsl #24
    40e4:	00084d00 	andeq	r4, r8, r0, lsl #26
    40e8:	005d0e00 	subseq	r0, sp, r0, lsl #28
    40ec:	00070000 	andeq	r0, r7, r0
    40f0:	00014c0d 	andeq	r4, r1, sp, lsl #24
    40f4:	00085d00 	andeq	r5, r8, r0, lsl #26
    40f8:	005d0e00 	subseq	r0, sp, r0, lsl #28
    40fc:	00170000 	andseq	r0, r7, r0
    4100:	9906f01d 	stmdbls	r6, {r0, r2, r3, r4, ip, sp, lr, pc}
    4104:	08840702 	stmeq	r4, {r1, r8, r9, sl}
    4108:	9a1a0000 	bls	684110 <__bss_end__+0x67a0b0>
    410c:	06000002 	streq	r0, [r0], -r2
    4110:	841b029c 	ldrhi	r0, [fp], #-668	; 0xfffffd64
    4114:	00000008 	andeq	r0, r0, r8
    4118:	0004bd1a 	andeq	fp, r4, sl, lsl sp
    411c:	029d0600 	addseq	r0, sp, #0, 12
    4120:	00089418 	andeq	r9, r8, r8, lsl r4
    4124:	0d007800 	stceq	8, cr7, [r0, #-0]
    4128:	00000334 	andeq	r0, r0, r4, lsr r3
    412c:	00000894 	muleq	r0, r4, r8
    4130:	00005d0e 	andeq	r5, r0, lr, lsl #26
    4134:	0d001d00 	stceq	13, cr1, [r0, #-0]
    4138:	0000005d 	andeq	r0, r0, sp, asr r0
    413c:	000008a4 	andeq	r0, r0, r4, lsr #17
    4140:	00005d0e 	andeq	r5, r0, lr, lsl #26
    4144:	1e001d00 	cdpne	13, 0, cr1, cr0, cr0, {0}
    4148:	027e06f0 	rsbseq	r0, lr, #240, 12	; 0xf000000
    414c:	0008c903 	andeq	ip, r8, r3, lsl #18
    4150:	040c1f00 	streq	r1, [ip], #-3840	; 0xfffff100
    4154:	95060000 	strls	r0, [r6, #-0]
    4158:	07180b02 	ldreq	r0, [r8, -r2, lsl #22]
    415c:	e81f0000 	ldmda	pc, {}	; <UNPREDICTABLE>
    4160:	06000004 	streq	r0, [r0], -r4
    4164:	5d0b029e 	sfmpl	f0, 4, [fp, #-632]	; 0xfffffd88
    4168:	00000008 	andeq	r0, r0, r8
    416c:	00014c0d 	andeq	r4, r1, sp, lsl #24
    4170:	0008d900 	andeq	sp, r8, r0, lsl #18
    4174:	005d0e00 	subseq	r0, sp, r0, lsl #28
    4178:	00180000 	andseq	r0, r8, r0
    417c:	00008409 	andeq	r8, r0, r9, lsl #8
    4180:	d9040800 	stmdble	r4, {fp}
    4184:	20000008 	andcs	r0, r0, r8
    4188:	000008ef 	andeq	r0, r0, pc, ror #17
    418c:	00049b18 	andeq	r9, r4, r8, lsl fp
    4190:	04080000 	streq	r0, [r8], #-0
    4194:	000008e4 	andeq	r0, r0, r4, ror #17
    4198:	01be0408 			; <UNDEFINED> instruction: 0x01be0408
    419c:	06200000 	strteq	r0, [r0], -r0
    41a0:	18000009 	stmdane	r0, {r0, r3}
    41a4:	00000056 	andeq	r0, r0, r6, asr r0
    41a8:	0c040800 	stceq	8, cr0, [r4], {-0}
    41ac:	08000009 	stmdaeq	r0, {r0, r3}
    41b0:	0008fb04 	andeq	pc, r8, r4, lsl #22
    41b4:	067d0d00 	ldrbteq	r0, [sp], -r0, lsl #26
    41b8:	09220000 	stmdbeq	r2!, {}	; <UNPREDICTABLE>
    41bc:	5d0e0000 	stcpl	0, cr0, [lr, #-0]
    41c0:	02000000 	andeq	r0, r0, #0
    41c4:	04842100 	streq	r2, [r4], #256	; 0x100
    41c8:	2e060000 	cdpcs	0, 0, cr0, cr6, cr0, {0}
    41cc:	049b1703 	ldreq	r1, [fp], #1795	; 0x703
    41d0:	7d210000 	stcvc	0, cr0, [r1, #-0]
    41d4:	06000004 	streq	r0, [r0], -r4
    41d8:	a11d032f 	tstge	sp, pc, lsr #6
    41dc:	17000004 	strne	r0, [r0, -r4]
    41e0:	00000056 	andeq	r0, r0, r6, asr r0
    41e4:	0000094b 	andeq	r0, r0, fp, asr #18
    41e8:	00005618 	andeq	r5, r0, r8, lsl r6
    41ec:	d1220000 			; <UNDEFINED> instruction: 0xd1220000
    41f0:	07000001 	streq	r0, [r0, -r1]
    41f4:	09570e1d 	ldmdbeq	r7, {r0, r2, r3, r4, r9, sl, fp}^
    41f8:	04080000 	streq	r0, [r8], #-0
    41fc:	0000093c 	andeq	r0, r0, ip, lsr r9
    4200:	00005617 	andeq	r5, r0, r7, lsl r6
    4204:	00096c00 	andeq	r6, r9, r0, lsl #24
    4208:	06131800 	ldreq	r1, [r3], -r0, lsl #16
    420c:	22000000 	andcs	r0, r0, #0
    4210:	00000773 	andeq	r0, r0, r3, ror r7
    4214:	780e2207 	stmdavc	lr, {r0, r1, r2, r9, sp}
    4218:	08000009 	stmdaeq	r0, {r0, r3}
    421c:	00095d04 	andeq	r5, r9, r4, lsl #26
    4220:	070a2300 	streq	r2, [sl, -r0, lsl #6]
    4224:	06010000 	streq	r0, [r1], -r0
    4228:	00005605 	andeq	r5, r0, r5, lsl #12
    422c:	008a6400 	addeq	r6, sl, r0, lsl #8
    4230:	00005800 	andeq	r5, r0, r0, lsl #16
    4234:	119c0100 	orrsne	r0, ip, r0, lsl #2
    4238:	2400000a 	strcs	r0, [r0], #-10
    423c:	00746d66 	rsbseq	r6, r4, r6, ror #26
    4240:	13180601 	tstne	r8, #1048576	; 0x100000
    4244:	02000006 	andeq	r0, r0, #6
    4248:	26257091 			; <UNDEFINED> instruction: 0x26257091
    424c:	00667562 	rsbeq	r7, r6, r2, ror #10
    4250:	11110801 	tstne	r1, r1, lsl #16
    4254:	0500000a 	streq	r0, [r0, #-10]
    4258:	009c5c03 	addseq	r5, ip, r3, lsl #24
    425c:	010a2700 	tsteq	sl, r0, lsl #14
    4260:	09010000 	stmdbeq	r1, {}	; <UNPREDICTABLE>
    4264:	00004a0d 	andeq	r4, r0, sp, lsl #20
    4268:	5c910200 	lfmpl	f0, 4, [r1], {0}
    426c:	007a7328 	rsbseq	r7, sl, r8, lsr #6
    4270:	560d0c01 	strpl	r0, [sp], -r1, lsl #24
    4274:	6e000000 	cdpvs	0, 0, cr0, cr0, cr0, {0}
    4278:	6800000a 	stmdavs	r0, {r1, r3}
    427c:	2900000a 	stmdbcs	r0, {r1, r3}
    4280:	00008a8c 	andeq	r8, r0, ip, lsl #21
    4284:	00000a22 	andeq	r0, r0, r2, lsr #20
    4288:	00000a04 	andeq	r0, r0, r4, lsl #20
    428c:	0250012a 	subseq	r0, r0, #-2147483638	; 0x8000000a
    4290:	012a0075 			; <UNDEFINED> instruction: 0x012a0075
    4294:	000a0351 	andeq	r0, sl, r1, asr r3
    4298:	52012a04 	andpl	r2, r1, #4, 20	; 0x4000
    429c:	06489103 	strbeq	r9, [r8], -r3, lsl #2
    42a0:	0253012a 	subseq	r0, r3, #-2147483638	; 0x8000000a
    42a4:	2b004c91 	blcs	174f0 <__bss_end__+0xd490>
    42a8:	00008aa0 	andeq	r8, r0, r0, lsr #21
    42ac:	0250012a 	subseq	r0, r0, #-2147483638	; 0x8000000a
    42b0:	00000075 	andeq	r0, r0, r5, ror r0
    42b4:	00014c0d 	andeq	r4, r1, sp, lsl #24
    42b8:	000a2200 	andeq	r2, sl, r0, lsl #4
    42bc:	005d2c00 	subseq	r2, sp, r0, lsl #24
    42c0:	03ff0000 	mvnseq	r0, #0
    42c4:	07072d00 	streq	r2, [r7, -r0, lsl #26]
    42c8:	07070000 	streq	r0, [r7, -r0]
    42cc:	02090000 	andeq	r0, r9, #0
    42d0:	09d90005 	ldmibeq	r9, {r0, r2}^
    42d4:	00040000 	andeq	r0, r4, r0
    42d8:	00000c44 	andeq	r0, r0, r4, asr #24
    42dc:	02ef0104 	rsceq	r0, pc, #4, 2
    42e0:	5b0c0000 	blpl	3042e8 <__bss_end__+0x2fa288>
    42e4:	cc000007 	stcgt	0, cr0, [r0], {7}
    42e8:	bc000006 	stclt	0, cr0, [r0], {6}
    42ec:	3c00008a 	stccc	0, cr0, [r0], {138}	; 0x8a
    42f0:	b0000000 	andlt	r0, r0, r0
    42f4:	0200000c 	andeq	r0, r0, #12
    42f8:	6e690504 	cdpvs	5, 6, cr0, cr9, cr4, {0}
    42fc:	04030074 	streq	r0, [r3], #-116	; 0xffffff8c
    4300:	00006607 	andeq	r6, r0, r7, lsl #12
    4304:	06010300 	streq	r0, [r1], -r0, lsl #6
    4308:	000002de 	ldrdeq	r0, [r0], -lr
    430c:	77050203 	strvc	r0, [r5, -r3, lsl #4]
    4310:	03000003 	movweq	r0, #3
    4314:	00ac0504 	adceq	r0, ip, r4, lsl #10
    4318:	08030000 	stmdaeq	r3, {}	; <UNPREDICTABLE>
    431c:	0000a705 	andeq	sl, r0, r5, lsl #14
    4320:	08010300 	stmdaeq	r1, {r8, r9}
    4324:	000002dc 	ldrdeq	r0, [r0], -ip
    4328:	22070203 	andcs	r0, r7, #805306368	; 0x30000000
    432c:	03000002 	movweq	r0, #2
    4330:	00610704 	rsbeq	r0, r1, r4, lsl #14
    4334:	08030000 	stmdaeq	r3, {}	; <UNPREDICTABLE>
    4338:	00005c07 	andeq	r5, r0, r7, lsl #24
    433c:	02650400 	rsbeq	r0, r5, #0, 8
    4340:	22020000 	andcs	r0, r2, #0
    4344:	00007719 	andeq	r7, r0, r9, lsl r7
    4348:	7d040500 	cfstr32vc	mvfx0, [r4, #-0]
    434c:	06000000 	streq	r0, [r0], -r0
    4350:	00000421 	andeq	r0, r0, r1, lsr #8
    4354:	0002bd04 	andeq	fp, r2, r4, lsl #26
    4358:	0e2c0300 	cdpeq	3, 2, cr0, cr12, cr0, {0}
    435c:	00000041 	andeq	r0, r0, r1, asr #32
    4360:	00043604 	andeq	r3, r4, r4, lsl #12
    4364:	0e720300 	cdpeq	3, 7, cr0, cr2, cr0, {0}
    4368:	00000041 	andeq	r0, r0, r1, asr #32
    436c:	00026d07 	andeq	r6, r2, r7, lsl #26
    4370:	015e0400 	cmpeq	lr, r0, lsl #8
    4374:	00002c17 	andeq	r2, r0, r7, lsl ip
    4378:	03040800 	movweq	r0, #18432	; 0x4800
    437c:	00c903a6 	sbceq	r0, r9, r6, lsr #7
    4380:	5f090000 	svcpl	0x00090000
    4384:	03000002 	movweq	r0, #2
    4388:	009a0ca8 	addseq	r0, sl, r8, lsr #25
    438c:	e2090000 	and	r0, r9, #0
    4390:	03000001 	movweq	r0, #1
    4394:	00c913a9 	sbceq	r1, r9, r9, lsr #7
    4398:	0a000000 	beq	43a0 <_start-0x3c60>
    439c:	0000004f 	andeq	r0, r0, pc, asr #32
    43a0:	000000d9 	ldrdeq	r0, [r0], -r9
    43a4:	00002c0b 	andeq	r2, r0, fp, lsl #24
    43a8:	0c000300 	stceq	3, cr0, [r0], {-0}
    43ac:	09a30308 	stmibeq	r3!, {r3, r8, r9}
    43b0:	000000fd 	strdeq	r0, [r0], -sp
    43b4:	0004190d 	andeq	r1, r4, sp, lsl #18
    43b8:	07a50300 	streq	r0, [r5, r0, lsl #6]!
    43bc:	00000025 	andeq	r0, r0, r5, lsr #32
    43c0:	04280d00 	strteq	r0, [r8], #-3328	; 0xfffff300
    43c4:	aa030000 	bge	c43cc <__bss_end__+0xba36c>
    43c8:	0000a705 	andeq	sl, r0, r5, lsl #14
    43cc:	04000400 	streq	r0, [r0], #-1024	; 0xfffffc00
    43d0:	000003a3 	andeq	r0, r0, r3, lsr #7
    43d4:	d903ab03 	stmdble	r3, {r0, r1, r8, r9, fp, sp, pc}
    43d8:	04000000 	streq	r0, [r0], #-0
    43dc:	0000019f 	muleq	r0, pc, r1	; <UNPREDICTABLE>
    43e0:	6b1baf03 	blvs	6efff4 <__bss_end__+0x6e5f94>
    43e4:	0e000000 	cdpeq	0, 0, cr0, cr0, cr0, {0}
    43e8:	1d040504 	cfstr32ne	mvfx0, [r4, #-16]
    43ec:	03000001 	movweq	r0, #1
    43f0:	02e50801 	rsceq	r0, r5, #65536	; 0x10000
    43f4:	1d0f0000 	stcne	0, cr0, [pc, #-0]	; 43fc <_start-0x3c04>
    43f8:	04000001 	streq	r0, [r0], #-1
    43fc:	00000468 	andeq	r0, r0, r8, ror #8
    4400:	5d191605 	ldcpl	6, cr1, [r9, #-20]	; 0xffffffec
    4404:	10000000 	andne	r0, r0, r0
    4408:	000001b0 			; <UNDEFINED> instruction: 0x000001b0
    440c:	082f0518 	stmdaeq	pc!, {r3, r4, r8, sl}	; <UNPREDICTABLE>
    4410:	0000018f 	andeq	r0, r0, pc, lsl #3
    4414:	0003c40d 	andeq	ip, r3, sp, lsl #8
    4418:	13310500 	teqne	r1, #0, 10
    441c:	0000018f 	andeq	r0, r0, pc, lsl #3
    4420:	6b5f1100 	blvs	17c8828 <__bss_end__+0x17be7c8>
    4424:	07320500 	ldreq	r0, [r2, -r0, lsl #10]!
    4428:	00000025 	andeq	r0, r0, r5, lsr #32
    442c:	04040d04 	streq	r0, [r4], #-3332	; 0xfffff2fc
    4430:	32050000 	andcc	r0, r5, #0
    4434:	0000250b 	andeq	r2, r0, fp, lsl #10
    4438:	990d0800 	stmdbls	sp, {fp}
    443c:	05000001 	streq	r0, [r0, #-1]
    4440:	00251432 	eoreq	r1, r5, r2, lsr r4
    4444:	0d0c0000 	stceq	0, cr0, [ip, #-0]
    4448:	000004a8 	andeq	r0, r0, r8, lsr #9
    444c:	251b3205 	ldrcs	r3, [fp, #-517]	; 0xfffffdfb
    4450:	10000000 	andne	r0, r0, r0
    4454:	00785f11 	rsbseq	r5, r8, r1, lsl pc
    4458:	950b3305 	strls	r3, [fp, #-773]	; 0xfffffcfb
    445c:	14000001 	strne	r0, [r0], #-1
    4460:	35040500 	strcc	r0, [r4, #-1280]	; 0xfffffb00
    4464:	0a000001 	beq	4470 <_start-0x3b90>
    4468:	00000129 	andeq	r0, r0, r9, lsr #2
    446c:	000001a5 	andeq	r0, r0, r5, lsr #3
    4470:	00002c0b 	andeq	r2, r0, fp, lsl #24
    4474:	10000000 	andne	r0, r0, r0
    4478:	000001dd 	ldrdeq	r0, [r0], -sp
    447c:	08370524 	ldmdaeq	r7!, {r2, r5, r8, sl}
    4480:	00000228 	andeq	r0, r0, r8, lsr #4
    4484:	00009e0d 	andeq	r9, r0, sp, lsl #28
    4488:	09390500 	ldmdbeq	r9!, {r8, sl}
    448c:	00000025 	andeq	r0, r0, r5, lsr #32
    4490:	043e0d00 	ldrteq	r0, [lr], #-3328	; 0xfffff300
    4494:	3a050000 	bcc	14449c <__bss_end__+0x13a43c>
    4498:	00002509 	andeq	r2, r0, r9, lsl #10
    449c:	c10d0400 	tstgt	sp, r0, lsl #8
    44a0:	05000000 	streq	r0, [r0, #-0]
    44a4:	0025093b 	eoreq	r0, r5, fp, lsr r9
    44a8:	0d080000 	stceq	0, cr0, [r8, #-0]
    44ac:	00000533 	andeq	r0, r0, r3, lsr r5
    44b0:	25093c05 	strcs	r3, [r9, #-3077]	; 0xfffff3fb
    44b4:	0c000000 	stceq	0, cr0, [r0], {-0}
    44b8:	0002a10d 	andeq	sl, r2, sp, lsl #2
    44bc:	093d0500 	ldmdbeq	sp!, {r8, sl}
    44c0:	00000025 	andeq	r0, r0, r5, lsr #32
    44c4:	02830d10 	addeq	r0, r3, #16, 26	; 0x400
    44c8:	3e050000 	cdpcc	0, 0, cr0, cr5, cr0, {0}
    44cc:	00002509 	andeq	r2, r0, r9, lsl #10
    44d0:	ad0d1400 	cfstrsge	mvf1, [sp, #-0]
    44d4:	05000004 	streq	r0, [r0, #-4]
    44d8:	0025093f 	eoreq	r0, r5, pc, lsr r9
    44dc:	0d180000 	ldceq	0, cr0, [r8, #-0]
    44e0:	00000529 	andeq	r0, r0, r9, lsr #10
    44e4:	25094005 	strcs	r4, [r9, #-5]
    44e8:	1c000000 	stcne	0, cr0, [r0], {-0}
    44ec:	0004f00d 	andeq	pc, r4, sp
    44f0:	09410500 	stmdbeq	r1, {r8, sl}^
    44f4:	00000025 	andeq	r0, r0, r5, lsr #32
    44f8:	01120020 	tsteq	r2, r0, lsr #32
    44fc:	08000001 	stmdaeq	r0, {r0}
    4500:	084a0501 	stmdaeq	sl, {r0, r8, sl}^
    4504:	0000026d 	andeq	r0, r0, sp, ror #4
    4508:	00018c0d 	andeq	r8, r1, sp, lsl #24
    450c:	0a4b0500 	beq	12c5914 <__bss_end__+0x12bb8b4>
    4510:	0000026d 	andeq	r0, r0, sp, ror #4
    4514:	00000d00 	andeq	r0, r0, r0, lsl #26
    4518:	4c050000 	stcmi	0, cr0, [r5], {-0}
    451c:	00026d09 	andeq	r6, r2, r9, lsl #26
    4520:	5a138000 	bpl	4e4528 <__bss_end__+0x4da4c8>
    4524:	05000004 	streq	r0, [r0, #-4]
    4528:	01290a4e 			; <UNDEFINED> instruction: 0x01290a4e
    452c:	01000000 	mrseq	r0, (UNDEF: 0)
    4530:	00012613 	andeq	r2, r1, r3, lsl r6
    4534:	0a510500 	beq	144593c <__bss_end__+0x143b8dc>
    4538:	00000129 	andeq	r0, r0, r9, lsr #2
    453c:	0a000104 	beq	4954 <_start-0x36ac>
    4540:	00000115 	andeq	r0, r0, r5, lsl r1
    4544:	0000027d 	andeq	r0, r0, sp, ror r2
    4548:	00002c0b 	andeq	r2, r0, fp, lsl #24
    454c:	12001f00 	andne	r1, r0, #0, 30
    4550:	000002aa 	andeq	r0, r0, sl, lsr #5
    4554:	5d050190 	stfpls	f0, [r5, #-576]	; 0xfffffdc0
    4558:	0002c008 	andeq	ip, r2, r8
    455c:	03c40d00 	biceq	r0, r4, #0, 26
    4560:	5e050000 	cdppl	0, 0, cr0, cr5, cr0, {0}
    4564:	0002c012 	andeq	ip, r2, r2, lsl r0
    4568:	dc0d0000 	stcle	0, cr0, [sp], {-0}
    456c:	05000003 	streq	r0, [r0, #-3]
    4570:	0025065f 	eoreq	r0, r5, pc, asr r6
    4574:	0d040000 	stceq	0, cr0, [r4, #-0]
    4578:	00000194 	muleq	r0, r4, r1
    457c:	c6096105 	strgt	r6, [r9], -r5, lsl #2
    4580:	08000002 	stmdaeq	r0, {r1}
    4584:	0001010d 	andeq	r0, r1, sp, lsl #2
    4588:	1e620500 	cdpne	5, 6, cr0, cr2, cr0, {0}
    458c:	00000228 	andeq	r0, r0, r8, lsr #4
    4590:	04050088 	streq	r0, [r5], #-136	; 0xffffff78
    4594:	0000027d 	andeq	r0, r0, sp, ror r2
    4598:	0002d60a 	andeq	sp, r2, sl, lsl #12
    459c:	0002d600 	andeq	sp, r2, r0, lsl #12
    45a0:	002c0b00 	eoreq	r0, ip, r0, lsl #22
    45a4:	001f0000 	andseq	r0, pc, r0
    45a8:	02dc0405 	sbcseq	r0, ip, #83886080	; 0x5000000
    45ac:	10140000 	andsne	r0, r4, r0
    45b0:	0000038f 	andeq	r0, r0, pc, lsl #7
    45b4:	08750508 	ldmdaeq	r5!, {r3, r8, sl}^
    45b8:	00000305 	andeq	r0, r0, r5, lsl #6
    45bc:	0000bb0d 	andeq	fp, r0, sp, lsl #22
    45c0:	11760500 	cmnne	r6, r0, lsl #10
    45c4:	00000305 	andeq	r0, r0, r5, lsl #6
    45c8:	001b0d00 	andseq	r0, fp, r0, lsl #26
    45cc:	77050000 	strvc	r0, [r5, -r0]
    45d0:	00002506 	andeq	r2, r0, r6, lsl #10
    45d4:	05000400 	streq	r0, [r0, #-1024]	; 0xfffffc00
    45d8:	00004f04 	andeq	r4, r0, r4, lsl #30
    45dc:	03ae1000 			; <UNDEFINED> instruction: 0x03ae1000
    45e0:	05680000 	strbeq	r0, [r8, #-0]!
    45e4:	044e08b5 	strbeq	r0, [lr], #-2229	; 0xfffff74b
    45e8:	5f110000 	svcpl	0x00110000
    45ec:	b6050070 			; <UNDEFINED> instruction: 0xb6050070
    45f0:	00030512 	andeq	r0, r3, r2, lsl r5
    45f4:	5f110000 	svcpl	0x00110000
    45f8:	b7050072 	smlsdxlt	r5, r2, r0, r0
    45fc:	00002507 	andeq	r2, r0, r7, lsl #10
    4600:	5f110400 	svcpl	0x00110400
    4604:	b8050077 	stmdalt	r5, {r0, r1, r2, r4, r5, r6}
    4608:	00002507 	andeq	r2, r0, r7, lsl #10
    460c:	1f0d0800 	svcne	0x000d0800
    4610:	05000001 	streq	r0, [r0, #-1]
    4614:	003a09b9 	ldrhteq	r0, [sl], -r9
    4618:	0d0c0000 	stceq	0, cr0, [ip, #-0]
    461c:	00000208 	andeq	r0, r0, r8, lsl #4
    4620:	3a09ba05 	bcc	272e3c <__bss_end__+0x268ddc>
    4624:	0e000000 	cdpeq	0, 0, cr0, cr0, cr0, {0}
    4628:	66625f11 	uqadd16vs	r5, r2, r1
    462c:	11bb0500 			; <UNDEFINED> instruction: 0x11bb0500
    4630:	000002dd 	ldrdeq	r0, [r0], -sp
    4634:	007b0d10 	rsbseq	r0, fp, r0, lsl sp
    4638:	bc050000 	stclt	0, cr0, [r5], {-0}
    463c:	00002507 	andeq	r2, r0, r7, lsl #10
    4640:	0f0d1800 	svceq	0x000d1800
    4644:	05000001 	streq	r0, [r0, #-1]
    4648:	01150ac3 	tsteq	r5, r3, asr #21
    464c:	0d1c0000 	ldceq	0, cr0, [ip, #-0]
    4650:	00000b59 	andeq	r0, r0, r9, asr fp
    4654:	c01dc505 	andsgt	ip, sp, r5, lsl #10
    4658:	20000005 	andcs	r0, r0, r5
    465c:	00061d0d 	andeq	r1, r6, sp, lsl #26
    4660:	1dc70500 	cfstr64ne	mvdx0, [r7]
    4664:	000005ea 	andeq	r0, r0, sl, ror #11
    4668:	04300d24 	ldrteq	r0, [r0], #-3364	; 0xfffff2dc
    466c:	ca050000 	bgt	144674 <__bss_end__+0x13a614>
    4670:	00060e0d 	andeq	r0, r6, sp, lsl #28
    4674:	0a0d2800 	beq	34e67c <__bss_end__+0x34461c>
    4678:	05000005 	streq	r0, [r0, #-5]
    467c:	062809cb 	strteq	r0, [r8], -fp, asr #19
    4680:	112c0000 			; <UNDEFINED> instruction: 0x112c0000
    4684:	0062755f 	rsbeq	r7, r2, pc, asr r5
    4688:	dd11ce05 	ldcle	14, cr12, [r1, #-20]	; 0xffffffec
    468c:	30000002 	andcc	r0, r0, r2
    4690:	70755f11 	rsbsvc	r5, r5, r1, lsl pc
    4694:	12cf0500 	sbcne	r0, pc, #0, 10
    4698:	00000305 	andeq	r0, r0, r5, lsl #6
    469c:	755f1138 	ldrbvc	r1, [pc, #-312]	; 456c <_start-0x3a94>
    46a0:	d0050072 	andle	r0, r5, r2, ror r0
    46a4:	00002507 	andeq	r2, r0, r7, lsl #10
    46a8:	b50d3c00 	strlt	r3, [sp, #-3072]	; 0xfffff400
    46ac:	05000000 	streq	r0, [r0, #-0]
    46b0:	062e11d3 			; <UNDEFINED> instruction: 0x062e11d3
    46b4:	0d400000 	stcleq	0, cr0, [r0, #-0]
    46b8:	000004e2 	andeq	r0, r0, r2, ror #9
    46bc:	3e11d405 	cfmulscc	mvf13, mvf1, mvf5
    46c0:	43000006 	movwmi	r0, #6
    46c4:	626c5f11 	rsbvs	r5, ip, #17, 30	; 0x44
    46c8:	11d70500 	bicsne	r0, r7, r0, lsl #10
    46cc:	000002dd 	ldrdeq	r0, [r0], -sp
    46d0:	013d0d44 	teqeq	sp, r4, asr #26
    46d4:	da050000 	ble	1446dc <__bss_end__+0x13a67c>
    46d8:	00002507 	andeq	r2, r0, r7, lsl #10
    46dc:	4e0d4c00 	cdpmi	12, 0, cr4, cr13, cr0, {0}
    46e0:	05000001 	streq	r0, [r0, #-1]
    46e4:	00820adb 	ldrdeq	r0, [r2], fp
    46e8:	0d500000 	ldcleq	0, cr0, [r0, #-0]
    46ec:	00000afa 	strdeq	r0, [r0], -sl
    46f0:	6c12de05 	ldcvs	14, cr13, [r2], {5}
    46f4:	54000004 	strpl	r0, [r0], #-4
    46f8:	0004220d 	andeq	r2, r4, sp, lsl #4
    46fc:	0ce20500 	cfstr64eq	mvdx0, [r2]
    4700:	00000109 	andeq	r0, r0, r9, lsl #2
    4704:	03b60d58 			; <UNDEFINED> instruction: 0x03b60d58
    4708:	e4050000 	str	r0, [r5], #-0
    470c:	0000fd0e 	andeq	pc, r0, lr, lsl #26
    4710:	7b0d5c00 	blvc	35b718 <__bss_end__+0x3516b8>
    4714:	05000002 	streq	r0, [r0, #-2]
    4718:	002509e5 	eoreq	r0, r5, r5, ror #19
    471c:	00640000 	rsbeq	r0, r4, r0
    4720:	00002515 	andeq	r2, r0, r5, lsl r5
    4724:	00046c00 	andeq	r6, r4, r0, lsl #24
    4728:	046c1600 	strbteq	r1, [ip], #-1536	; 0xfffffa00
    472c:	15160000 	ldrne	r0, [r6, #-0]
    4730:	16000001 	strne	r0, [r0], -r1
    4734:	00000117 	andeq	r0, r0, r7, lsl r1
    4738:	00002516 	andeq	r2, r0, r6, lsl r5
    473c:	04050000 	streq	r0, [r5], #-0
    4740:	00000477 	andeq	r0, r0, r7, ror r4
    4744:	00046c0f 	andeq	r6, r4, pc, lsl #24
    4748:	040c1700 	streq	r1, [ip], #-1792	; 0xfffff900
    474c:	04280000 	strteq	r0, [r8], #-0
    4750:	08026005 	stmdaeq	r2, {r0, r2, sp, lr}
    4754:	000005c0 	andeq	r0, r0, r0, asr #11
    4758:	00037018 	andeq	r7, r3, r8, lsl r0
    475c:	02620500 	rsbeq	r0, r2, #0, 10
    4760:	00002507 	andeq	r2, r0, r7, lsl #10
    4764:	2e180000 	cdpcs	0, 1, cr0, cr8, cr0, {0}
    4768:	05000001 	streq	r0, [r0, #-1]
    476c:	9a0b0267 	bls	2c5110 <__bss_end__+0x2bb0b0>
    4770:	04000006 	streq	r0, [r0], #-6
    4774:	0001f818 	andeq	pc, r1, r8, lsl r8	; <UNPREDICTABLE>
    4778:	02670500 	rsbeq	r0, r7, #0, 10
    477c:	00069a14 	andeq	r9, r6, r4, lsl sl
    4780:	a8180800 	ldmdage	r8, {fp}
    4784:	05000001 	streq	r0, [r0, #-1]
    4788:	9a1e0267 	bls	78512c <__bss_end__+0x77b0cc>
    478c:	0c000006 	stceq	0, cr0, [r0], {6}
    4790:	0003d718 	andeq	sp, r3, r8, lsl r7
    4794:	02690500 	rsbeq	r0, r9, #0, 10
    4798:	00002508 	andeq	r2, r0, r8, lsl #10
    479c:	29181000 	ldmdbcs	r8, {ip}
    47a0:	05000000 	streq	r0, [r0, #-0]
    47a4:	9a08026a 	bls	205154 <__bss_end__+0x1fb0f4>
    47a8:	14000008 	strne	r0, [r0], #-8
    47ac:	0003eb18 	andeq	lr, r3, r8, lsl fp
    47b0:	026d0500 	rsbeq	r0, sp, #0, 10
    47b4:	00002507 	andeq	r2, r0, r7, lsl #10
    47b8:	36183000 	ldrcc	r3, [r8], -r0
    47bc:	0500000a 	streq	r0, [r0, #-10]
    47c0:	af16026e 	svcge	0x0016026e
    47c4:	34000008 	strcc	r0, [r0], #-8
    47c8:	0002b218 	andeq	fp, r2, r8, lsl r2
    47cc:	02700500 	rsbseq	r0, r0, #0, 10
    47d0:	00002507 	andeq	r2, r0, r7, lsl #10
    47d4:	e1183800 	tst	r8, r0, lsl #16
    47d8:	05000003 	streq	r0, [r0, #-3]
    47dc:	c00a0272 	andgt	r0, sl, r2, ror r2
    47e0:	3c000008 	stccc	0, cr0, [r0], {8}
    47e4:	00025718 	andeq	r5, r2, r8, lsl r7
    47e8:	02750500 	rsbseq	r0, r5, #0, 10
    47ec:	00018f13 	andeq	r8, r1, r3, lsl pc
    47f0:	c7184000 	ldrgt	r4, [r8, -r0]
    47f4:	05000001 	streq	r0, [r0, #-1]
    47f8:	25070276 	strcs	r0, [r7, #-630]	; 0xfffffd8a
    47fc:	44000000 	strmi	r0, [r0], #-0
    4800:	00052418 	andeq	r2, r5, r8, lsl r4
    4804:	02770500 	rsbseq	r0, r7, #0, 10
    4808:	00018f13 	andeq	r8, r1, r3, lsl pc
    480c:	c4184800 	ldrgt	r4, [r8], #-2048	; 0xfffff800
    4810:	05000002 	streq	r0, [r0, #-2]
    4814:	c6140278 			; <UNDEFINED> instruction: 0xc6140278
    4818:	4c000008 	stcmi	0, cr0, [r0], {8}
    481c:	00020018 	andeq	r0, r2, r8, lsl r0
    4820:	027b0500 	rsbseq	r0, fp, #0, 10
    4824:	00002507 	andeq	r2, r0, r7, lsl #10
    4828:	46185000 	ldrmi	r5, [r8], -r0
    482c:	05000001 	streq	r0, [r0, #-1]
    4830:	1709027c 	smlsdxne	r9, ip, r2, r0
    4834:	54000001 	strpl	r0, [r0], #-1
    4838:	0002ea18 	andeq	lr, r2, r8, lsl sl
    483c:	029f0500 	addseq	r0, pc, #0, 10
    4840:	00087507 	andeq	r7, r8, r7, lsl #10
    4844:	aa195800 	bge	65a84c <__bss_end__+0x6507ec>
    4848:	05000002 	streq	r0, [r0, #-2]
    484c:	c01302a3 	andsgt	r0, r3, r3, lsr #5
    4850:	48000002 	stmdami	r0, {r1}
    4854:	02351901 	eorseq	r1, r5, #16384	; 0x4000
    4858:	a4050000 	strge	r0, [r5], #-0
    485c:	027d1202 	rsbseq	r1, sp, #536870912	; 0x20000000
    4860:	014c0000 	mrseq	r0, (UNDEF: 76)
    4864:	0004d019 	andeq	sp, r4, r9, lsl r0
    4868:	02a80500 	adceq	r0, r8, #0, 10
    486c:	0008d70c 	andeq	sp, r8, ip, lsl #14
    4870:	1902dc00 	stmdbne	r2, {sl, fp, ip, lr, pc}
    4874:	00000117 	andeq	r0, r0, r7, lsl r1
    4878:	1002ad05 	andne	sl, r2, r5, lsl #26
    487c:	0000065b 	andeq	r0, r0, fp, asr r6
    4880:	fc1902e0 	ldc2	2, cr0, [r9], {224}	; 0xe0
    4884:	05000000 	streq	r0, [r0, #-0]
    4888:	e30a02af 	movw	r0, #41647	; 0xa2af
    488c:	ec000008 	stc	0, cr0, [r0], {8}
    4890:	04050002 	streq	r0, [r5], #-2
    4894:	0000044e 	andeq	r0, r0, lr, asr #8
    4898:	00002515 	andeq	r2, r0, r5, lsl r5
    489c:	0005e400 	andeq	lr, r5, r0, lsl #8
    48a0:	046c1600 	strbteq	r1, [ip], #-1536	; 0xfffffa00
    48a4:	15160000 	ldrne	r0, [r6, #-0]
    48a8:	16000001 	strne	r0, [r0], -r1
    48ac:	000005e4 	andeq	r0, r0, r4, ror #11
    48b0:	00002516 	andeq	r2, r0, r6, lsl r5
    48b4:	04050000 	streq	r0, [r5], #-0
    48b8:	00000124 	andeq	r0, r0, r4, lsr #2
    48bc:	05c60405 	strbeq	r0, [r6, #1029]	; 0x405
    48c0:	8e150000 	cdphi	0, 1, cr0, cr5, cr0, {0}
    48c4:	0e000000 	cdpeq	0, 0, cr0, cr0, cr0, {0}
    48c8:	16000006 	strne	r0, [r0], -r6
    48cc:	0000046c 	andeq	r0, r0, ip, ror #8
    48d0:	00011516 	andeq	r1, r1, r6, lsl r5
    48d4:	008e1600 	addeq	r1, lr, r0, lsl #12
    48d8:	25160000 	ldrcs	r0, [r6, #-0]
    48dc:	00000000 	andeq	r0, r0, r0
    48e0:	05f00405 	ldrbeq	r0, [r0, #1029]!	; 0x405
    48e4:	25150000 	ldrcs	r0, [r5, #-0]
    48e8:	28000000 	stmdacs	r0, {}	; <UNPREDICTABLE>
    48ec:	16000006 	strne	r0, [r0], -r6
    48f0:	0000046c 	andeq	r0, r0, ip, ror #8
    48f4:	00011516 	andeq	r1, r1, r6, lsl r5
    48f8:	04050000 	streq	r0, [r5], #-0
    48fc:	00000614 	andeq	r0, r0, r4, lsl r6
    4900:	00004f0a 	andeq	r4, r0, sl, lsl #30
    4904:	00063e00 	andeq	r3, r6, r0, lsl #28
    4908:	002c0b00 	eoreq	r0, ip, r0, lsl #22
    490c:	00020000 	andeq	r0, r2, r0
    4910:	00004f0a 	andeq	r4, r0, sl, lsl #30
    4914:	00064e00 	andeq	r4, r6, r0, lsl #28
    4918:	002c0b00 	eoreq	r0, ip, r0, lsl #22
    491c:	00000000 	andeq	r0, r0, r0
    4920:	00039c07 	andeq	r9, r3, r7, lsl #24
    4924:	011f0500 	tsteq	pc, r0, lsl #10
    4928:	00030b1a 	andeq	r0, r3, sl, lsl fp
    492c:	04b71a00 	ldrteq	r1, [r7], #2560	; 0xa00
    4930:	050c0000 	streq	r0, [ip, #-0]
    4934:	94080123 	strls	r0, [r8], #-291	; 0xfffffedd
    4938:	18000006 	stmdane	r0, {r1, r2}
    493c:	000003c4 	andeq	r0, r0, r4, asr #7
    4940:	11012505 	tstne	r1, r5, lsl #10
    4944:	00000694 	muleq	r0, r4, r6
    4948:	021b1800 	andseq	r1, fp, #0, 16
    494c:	26050000 	strcs	r0, [r5], -r0
    4950:	00250701 	eoreq	r0, r5, r1, lsl #14
    4954:	18040000 	stmdane	r4, {}	; <UNPREDICTABLE>
    4958:	00000396 	muleq	r0, r6, r3
    495c:	0b012705 	bleq	4e578 <__bss_end__+0x44518>
    4960:	0000069a 	muleq	r0, sl, r6
    4964:	04050008 	streq	r0, [r5], #-8
    4968:	0000065b 	andeq	r0, r0, fp, asr r6
    496c:	064e0405 	strbeq	r0, [lr], -r5, lsl #8
    4970:	211a0000 	tstcs	sl, r0
    4974:	0e000000 	cdpeq	0, 0, cr0, cr0, cr0, {0}
    4978:	08013f05 	stmdaeq	r1, {r0, r2, r8, r9, sl, fp, ip, sp}
    497c:	000006d9 	ldrdeq	r0, [r0], -r9
    4980:	00041318 	andeq	r1, r4, r8, lsl r3
    4984:	01400500 	cmpeq	r0, r0, lsl #10
    4988:	0006d912 	andeq	sp, r6, r2, lsl r9
    498c:	47180000 	ldrmi	r0, [r8, -r0]
    4990:	05000004 	streq	r0, [r0, #-4]
    4994:	d9120141 	ldmdble	r2, {r0, r6, r8}
    4998:	06000006 	streq	r0, [r0], -r6
    499c:	00046318 	andeq	r6, r4, r8, lsl r3
    49a0:	01420500 	cmpeq	r2, r0, lsl #10
    49a4:	00005612 	andeq	r5, r0, r2, lsl r6
    49a8:	0a000c00 	beq	79b0 <_start-0x650>
    49ac:	00000056 	andeq	r0, r0, r6, asr r0
    49b0:	000006e9 	andeq	r0, r0, r9, ror #13
    49b4:	00002c0b 	andeq	r2, r0, fp, lsl #24
    49b8:	1b000200 	blne	51c0 <_start-0x2e40>
    49bc:	028005d0 	addeq	r0, r0, #208, 10	; 0x34000000
    49c0:	0007fe07 	andeq	pc, r7, r7, lsl #28
    49c4:	049b1800 	ldreq	r1, [fp], #2048	; 0x800
    49c8:	82050000 	andhi	r0, r5, #0
    49cc:	002c1802 	eoreq	r1, ip, r2, lsl #16
    49d0:	18000000 	stmdane	r0, {}	; <UNPREDICTABLE>
    49d4:	0000044d 	andeq	r0, r0, sp, asr #8
    49d8:	12028305 	andne	r8, r2, #335544320	; 0x14000000
    49dc:	00000117 	andeq	r0, r0, r7, lsl r1
    49e0:	024a1804 	subeq	r1, sl, #4, 16	; 0x40000
    49e4:	84050000 	strhi	r0, [r5], #-0
    49e8:	07fe1002 	ldrbeq	r1, [lr, r2]!
    49ec:	18080000 	stmdane	r8, {}	; <UNPREDICTABLE>
    49f0:	000004fb 	strdeq	r0, [r0], -fp
    49f4:	17028505 	strne	r8, [r2, -r5, lsl #10]
    49f8:	000001a5 	andeq	r0, r0, r5, lsr #3
    49fc:	01b81824 			; <UNDEFINED> instruction: 0x01b81824
    4a00:	86050000 	strhi	r0, [r5], -r0
    4a04:	00250f02 	eoreq	r0, r5, r2, lsl #30
    4a08:	18480000 	stmdane	r8, {}^	; <UNPREDICTABLE>
    4a0c:	000003bf 			; <UNDEFINED> instruction: 0x000003bf
    4a10:	2c028705 	stccs	7, cr8, [r2], {5}
    4a14:	00000064 	andeq	r0, r0, r4, rrx
    4a18:	05111850 	ldreq	r1, [r1, #-2128]	; 0xfffff7b0
    4a1c:	88050000 	stmdahi	r5, {}	; <UNPREDICTABLE>
    4a20:	06a01a02 	strteq	r1, [r0], r2, lsl #20
    4a24:	18580000 	ldmdane	r8, {}^	; <UNPREDICTABLE>
    4a28:	000003ca 	andeq	r0, r0, sl, asr #7
    4a2c:	16028905 	strne	r8, [r2], -r5, lsl #18
    4a30:	000000fd 	strdeq	r0, [r0], -sp
    4a34:	05161868 	ldreq	r1, [r6, #-2152]	; 0xfffff798
    4a38:	8a050000 	bhi	144a40 <__bss_end__+0x13a9e0>
    4a3c:	00fd1602 	rscseq	r1, sp, r2, lsl #12
    4a40:	18700000 	ldmdane	r0!, {}^	; <UNPREDICTABLE>
    4a44:	000002ce 	andeq	r0, r0, lr, asr #5
    4a48:	16028b05 	strne	r8, [r2], -r5, lsl #22
    4a4c:	000000fd 	strdeq	r0, [r0], -sp
    4a50:	04c61878 	strbeq	r1, [r6], #2168	; 0x878
    4a54:	8c050000 	stchi	0, cr0, [r5], {-0}
    4a58:	080e1002 	stmdaeq	lr, {r1, ip}
    4a5c:	18800000 	stmne	r0, {}	; <UNPREDICTABLE>
    4a60:	0000023e 	andeq	r0, r0, lr, lsr r2
    4a64:	10028d05 	andne	r8, r2, r5, lsl #26
    4a68:	0000081e 	andeq	r0, r0, lr, lsl r8
    4a6c:	04701888 	ldrbteq	r1, [r0], #-2184	; 0xfffff778
    4a70:	8e050000 	cdphi	0, 0, cr0, cr5, cr0, {0}
    4a74:	00250f02 	eoreq	r0, r5, r2, lsl #30
    4a78:	18a00000 	stmiane	r0!, {}	; <UNPREDICTABLE>
    4a7c:	0000017e 	andeq	r0, r0, lr, ror r1
    4a80:	16028f05 	strne	r8, [r2], -r5, lsl #30
    4a84:	000000fd 	strdeq	r0, [r0], -sp
    4a88:	008f18a4 	addeq	r1, pc, r4, lsr #17
    4a8c:	90050000 	andls	r0, r5, r0
    4a90:	00fd1602 	rscseq	r1, sp, r2, lsl #12
    4a94:	18ac0000 	stmiane	ip!, {}	; <UNPREDICTABLE>
    4a98:	0000016d 	andeq	r0, r0, sp, ror #2
    4a9c:	16029105 	strne	r9, [r2], -r5, lsl #2
    4aa0:	000000fd 	strdeq	r0, [r0], -sp
    4aa4:	003c18b4 	ldrhteq	r1, [ip], -r4
    4aa8:	92050000 	andls	r0, r5, #0
    4aac:	00fd1602 	rscseq	r1, sp, r2, lsl #12
    4ab0:	18bc0000 	ldmne	ip!, {}	; <UNPREDICTABLE>
    4ab4:	0000004b 	andeq	r0, r0, fp, asr #32
    4ab8:	16029305 	strne	r9, [r2], -r5, lsl #6
    4abc:	000000fd 	strdeq	r0, [r0], -sp
    4ac0:	036e18c4 	cmneq	lr, #196, 16	; 0xc40000
    4ac4:	94050000 	strls	r0, [r5], #-0
    4ac8:	00250802 	eoreq	r0, r5, r2, lsl #16
    4acc:	00cc0000 	sbceq	r0, ip, r0
    4ad0:	00011d0a 	andeq	r1, r1, sl, lsl #26
    4ad4:	00080e00 	andeq	r0, r8, r0, lsl #28
    4ad8:	002c0b00 	eoreq	r0, ip, r0, lsl #22
    4adc:	00190000 	andseq	r0, r9, r0
    4ae0:	00011d0a 	andeq	r1, r1, sl, lsl #26
    4ae4:	00081e00 	andeq	r1, r8, r0, lsl #28
    4ae8:	002c0b00 	eoreq	r0, ip, r0, lsl #22
    4aec:	00070000 	andeq	r0, r7, r0
    4af0:	00011d0a 	andeq	r1, r1, sl, lsl #26
    4af4:	00082e00 	andeq	r2, r8, r0, lsl #28
    4af8:	002c0b00 	eoreq	r0, ip, r0, lsl #22
    4afc:	00170000 	andseq	r0, r7, r0
    4b00:	9905f01b 	stmdbls	r5, {r0, r1, r3, r4, ip, sp, lr, pc}
    4b04:	08550702 	ldmdaeq	r5, {r1, r8, r9, sl}^
    4b08:	9a180000 	bls	604b10 <__bss_end__+0x5faab0>
    4b0c:	05000002 	streq	r0, [r0, #-2]
    4b10:	551b029c 	ldrpl	r0, [fp, #-668]	; 0xfffffd64
    4b14:	00000008 	andeq	r0, r0, r8
    4b18:	0004bd18 	andeq	fp, r4, r8, lsl sp
    4b1c:	029d0500 	addseq	r0, sp, #0, 10
    4b20:	00086518 	andeq	r6, r8, r8, lsl r5
    4b24:	0a007800 	beq	22b2c <__bss_end__+0x18acc>
    4b28:	00000305 	andeq	r0, r0, r5, lsl #6
    4b2c:	00000865 	andeq	r0, r0, r5, ror #16
    4b30:	00002c0b 	andeq	r2, r0, fp, lsl #24
    4b34:	0a001d00 	beq	bf3c <__bss_end__+0x1edc>
    4b38:	0000002c 	andeq	r0, r0, ip, lsr #32
    4b3c:	00000875 	andeq	r0, r0, r5, ror r8
    4b40:	00002c0b 	andeq	r2, r0, fp, lsl #24
    4b44:	1c001d00 	stcne	13, cr1, [r0], {-0}
    4b48:	027e05f0 	rsbseq	r0, lr, #240, 10	; 0x3c000000
    4b4c:	00089a03 	andeq	r9, r8, r3, lsl #20
    4b50:	040c1d00 	streq	r1, [ip], #-3328	; 0xfffff300
    4b54:	95050000 	strls	r0, [r5, #-0]
    4b58:	06e90b02 	strbteq	r0, [r9], r2, lsl #22
    4b5c:	e81d0000 	ldmda	sp, {}	; <UNPREDICTABLE>
    4b60:	05000004 	streq	r0, [r0, #-4]
    4b64:	2e0b029e 	mcrcs	2, 0, r0, cr11, cr14, {4}
    4b68:	00000008 	andeq	r0, r0, r8
    4b6c:	00011d0a 	andeq	r1, r1, sl, lsl #26
    4b70:	0008aa00 	andeq	sl, r8, r0, lsl #20
    4b74:	002c0b00 	eoreq	r0, ip, r0, lsl #22
    4b78:	00180000 	andseq	r0, r8, r0
    4b7c:	00008406 	andeq	r8, r0, r6, lsl #8
    4b80:	aa040500 	bge	105f88 <__bss_end__+0xfbf28>
    4b84:	1e000008 	cdpne	0, 0, cr0, cr0, cr8, {0}
    4b88:	000008c0 	andeq	r0, r0, r0, asr #17
    4b8c:	00046c16 	andeq	r6, r4, r6, lsl ip
    4b90:	04050000 	streq	r0, [r5], #-0
    4b94:	000008b5 			; <UNDEFINED> instruction: 0x000008b5
    4b98:	018f0405 	orreq	r0, pc, r5, lsl #8
    4b9c:	d71e0000 	ldrle	r0, [lr, -r0]
    4ba0:	16000008 	strne	r0, [r0], -r8
    4ba4:	00000025 	andeq	r0, r0, r5, lsr #32
    4ba8:	dd040500 	cfstr32le	mvfx0, [r4, #-0]
    4bac:	05000008 	streq	r0, [r0, #-8]
    4bb0:	0008cc04 	andeq	ip, r8, r4, lsl #24
    4bb4:	064e0a00 	strbeq	r0, [lr], -r0, lsl #20
    4bb8:	08f30000 	ldmeq	r3!, {}^	; <UNPREDICTABLE>
    4bbc:	2c0b0000 	stccs	0, cr0, [fp], {-0}
    4bc0:	02000000 	andeq	r0, r0, #0
    4bc4:	04841f00 	streq	r1, [r4], #3840	; 0xf00
    4bc8:	2e050000 	cdpcs	0, 0, cr0, cr5, cr0, {0}
    4bcc:	046c1703 	strbteq	r1, [ip], #-1795	; 0xfffff8fd
    4bd0:	7d1f0000 	ldcvc	0, cr0, [pc, #-0]	; 4bd8 <_start-0x3428>
    4bd4:	05000004 	streq	r0, [r0, #-4]
    4bd8:	721d032f 	andsvc	r0, sp, #-1140850688	; 0xbc000000
    4bdc:	15000004 	strne	r0, [r0, #-4]
    4be0:	00000025 	andeq	r0, r0, r5, lsr #32
    4be4:	0000091c 	andeq	r0, r0, ip, lsl r9
    4be8:	00002516 	andeq	r2, r0, r6, lsl r5
    4bec:	d1200000 			; <UNDEFINED> instruction: 0xd1200000
    4bf0:	06000001 	streq	r0, [r0], -r1
    4bf4:	09280e1d 	stmdbeq	r8!, {r0, r2, r3, r4, r9, sl, fp}
    4bf8:	04050000 	streq	r0, [r5], #-0
    4bfc:	0000090d 	andeq	r0, r0, sp, lsl #18
    4c00:	00002515 	andeq	r2, r0, r5, lsl r5
    4c04:	00093d00 	andeq	r3, r9, r0, lsl #26
    4c08:	05e41600 	strbeq	r1, [r4, #1536]!	; 0x600
    4c0c:	20000000 	andcs	r0, r0, r0
    4c10:	00000773 	andeq	r0, r0, r3, ror r7
    4c14:	490e2206 	stmdbmi	lr, {r1, r2, r9, sp}
    4c18:	05000009 	streq	r0, [r0, #-9]
    4c1c:	00092e04 	andeq	r2, r9, r4, lsl #28
    4c20:	091c2100 	ldmdbeq	ip, {r8, sp}
    4c24:	06010000 	streq	r0, [r1], -r0
    4c28:	90030507 	andls	r0, r3, r7, lsl #10
    4c2c:	22000096 	andcs	r0, r0, #150	; 0x96
    4c30:	00000733 	andeq	r0, r0, r3, lsr r7
    4c34:	e8060b01 	stmda	r6, {r0, r8, r9, fp}
    4c38:	1000008a 	andne	r0, r0, sl, lsl #1
    4c3c:	01000000 	mrseq	r0, (UNDEF: 0)
    4c40:	0009819c 	muleq	r9, ip, r1
    4c44:	70662300 	rsbvc	r2, r6, r0, lsl #6
    4c48:	190b0100 	stmdbne	fp, {r8}
    4c4c:	00000928 	andeq	r0, r0, r8, lsr #18
    4c50:	24005001 	strcs	r5, [r0], #-1
    4c54:	000001e9 	andeq	r0, r0, r9, ror #3
    4c58:	d0060801 	andle	r0, r6, r1, lsl #16
    4c5c:	1800008a 	stmdane	r0, {r1, r3, r7}
    4c60:	01000000 	mrseq	r0, (UNDEF: 0)
    4c64:	074a259c 			; <UNDEFINED> instruction: 0x074a259c
    4c68:	03010000 	movweq	r0, #4096	; 0x1000
    4c6c:	0000250c 	andeq	r2, r0, ip, lsl #10
    4c70:	008abc00 	addeq	fp, sl, r0, lsl #24
    4c74:	00001400 	andeq	r1, r0, r0, lsl #8
    4c78:	d09c0100 	addsle	r0, ip, r0, lsl #2
    4c7c:	26000009 	strcs	r0, [r0], -r9
    4c80:	03010063 	movweq	r0, #4195	; 0x1063
    4c84:	00002521 	andeq	r2, r0, r1, lsr #10
    4c88:	000a9b00 	andeq	r9, sl, r0, lsl #22
    4c8c:	000a9700 	andeq	r9, sl, r0, lsl #14
    4c90:	8ac82700 	bhi	ff20e898 <__bss_end__+0xff204838>
    4c94:	09d00000 	ldmibeq	r0, {}^	; <UNPREDICTABLE>
    4c98:	01280000 			; <UNDEFINED> instruction: 0x01280000
    4c9c:	00740250 	rsbseq	r0, r4, r0, asr r2
    4ca0:	40290000 	eormi	r0, r9, r0
    4ca4:	40000007 	andmi	r0, r0, r7
    4ca8:	06000007 	streq	r0, [r0], -r7
    4cac:	8300063c 	movwhi	r0, #1596	; 0x63c
    4cb0:	04000009 	streq	r0, [r0], #-9
    4cb4:	000ea900 	andeq	sl, lr, r0, lsl #18
    4cb8:	ef010400 	svc	0x00010400
    4cbc:	0c000002 	stceq	0, cr0, [r0], {2}
    4cc0:	00000778 	andeq	r0, r0, r8, ror r7
    4cc4:	000006cc 	andeq	r0, r0, ip, asr #13
    4cc8:	00008af8 	strdeq	r8, [r0], -r8	; <UNPREDICTABLE>
    4ccc:	00000034 	andeq	r0, r0, r4, lsr r0
    4cd0:	00000db9 			; <UNDEFINED> instruction: 0x00000db9
    4cd4:	69050402 	stmdbvs	r5, {r1, sl}
    4cd8:	0300746e 	movweq	r7, #1134	; 0x46e
    4cdc:	00660704 	rsbeq	r0, r6, r4, lsl #14
    4ce0:	01030000 	mrseq	r0, (UNDEF: 3)
    4ce4:	0002de06 	andeq	sp, r2, r6, lsl #28
    4ce8:	05020300 	streq	r0, [r2, #-768]	; 0xfffffd00
    4cec:	00000377 	andeq	r0, r0, r7, ror r3
    4cf0:	ac050403 	cfstrsge	mvf0, [r5], {3}
    4cf4:	03000000 	movweq	r0, #0
    4cf8:	00a70508 	adceq	r0, r7, r8, lsl #10
    4cfc:	01030000 	mrseq	r0, (UNDEF: 3)
    4d00:	0002dc08 	andeq	sp, r2, r8, lsl #24
    4d04:	07020300 	streq	r0, [r2, -r0, lsl #6]
    4d08:	00000222 	andeq	r0, r0, r2, lsr #4
    4d0c:	61070403 	tstvs	r7, r3, lsl #8
    4d10:	03000000 	movweq	r0, #0
    4d14:	005c0708 	subseq	r0, ip, r8, lsl #14
    4d18:	65040000 	strvs	r0, [r4, #-0]
    4d1c:	02000002 	andeq	r0, r0, #2
    4d20:	00771922 	rsbseq	r1, r7, r2, lsr #18
    4d24:	04050000 	streq	r0, [r5], #-0
    4d28:	0000007d 	andeq	r0, r0, sp, ror r0
    4d2c:	00042106 	andeq	r2, r4, r6, lsl #2
    4d30:	02bd0400 	adcseq	r0, sp, #0, 8
    4d34:	2c030000 	stccs	0, cr0, [r3], {-0}
    4d38:	0000410e 	andeq	r4, r0, lr, lsl #2
    4d3c:	04360400 	ldrteq	r0, [r6], #-1024	; 0xfffffc00
    4d40:	72030000 	andvc	r0, r3, #0
    4d44:	0000410e 	andeq	r4, r0, lr, lsl #2
    4d48:	026d0700 	rsbeq	r0, sp, #0, 14
    4d4c:	5e040000 	cdppl	0, 0, cr0, cr4, cr0, {0}
    4d50:	002c1701 	eoreq	r1, ip, r1, lsl #14
    4d54:	04080000 	streq	r0, [r8], #-0
    4d58:	c903a603 	stmdbgt	r3, {r0, r1, r9, sl, sp, pc}
    4d5c:	09000000 	stmdbeq	r0, {}	; <UNPREDICTABLE>
    4d60:	0000025f 	andeq	r0, r0, pc, asr r2
    4d64:	9a0ca803 	bls	32ed78 <__bss_end__+0x324d18>
    4d68:	09000000 	stmdbeq	r0, {}	; <UNPREDICTABLE>
    4d6c:	000001e2 	andeq	r0, r0, r2, ror #3
    4d70:	c913a903 	ldmdbgt	r3, {r0, r1, r8, fp, sp, pc}
    4d74:	00000000 	andeq	r0, r0, r0
    4d78:	00004f0a 	andeq	r4, r0, sl, lsl #30
    4d7c:	0000d900 	andeq	sp, r0, r0, lsl #18
    4d80:	002c0b00 	eoreq	r0, ip, r0, lsl #22
    4d84:	00030000 	andeq	r0, r3, r0
    4d88:	a303080c 	movwge	r0, #14348	; 0x380c
    4d8c:	0000fd09 	andeq	pc, r0, r9, lsl #26
    4d90:	04190d00 	ldreq	r0, [r9], #-3328	; 0xfffff300
    4d94:	a5030000 	strge	r0, [r3, #-0]
    4d98:	00002507 	andeq	r2, r0, r7, lsl #10
    4d9c:	280d0000 	stmdacs	sp, {}	; <UNPREDICTABLE>
    4da0:	03000004 	movweq	r0, #4
    4da4:	00a705aa 	adceq	r0, r7, sl, lsr #11
    4da8:	00040000 	andeq	r0, r4, r0
    4dac:	0003a304 	andeq	sl, r3, r4, lsl #6
    4db0:	03ab0300 			; <UNDEFINED> instruction: 0x03ab0300
    4db4:	000000d9 	ldrdeq	r0, [r0], -r9
    4db8:	00019f04 	andeq	r9, r1, r4, lsl #30
    4dbc:	1baf0300 	blne	febc59c4 <__bss_end__+0xfebbb964>
    4dc0:	0000006b 	andeq	r0, r0, fp, rrx
    4dc4:	0405040e 	streq	r0, [r5], #-1038	; 0xfffffbf2
    4dc8:	0000011d 	andeq	r0, r0, sp, lsl r1
    4dcc:	e5080103 	str	r0, [r8, #-259]	; 0xfffffefd
    4dd0:	0f000002 	svceq	0x00000002
    4dd4:	0000011d 	andeq	r0, r0, sp, lsl r1
    4dd8:	00046804 	andeq	r6, r4, r4, lsl #16
    4ddc:	19160500 	ldmdbne	r6, {r8, sl}
    4de0:	0000005d 	andeq	r0, r0, sp, asr r0
    4de4:	0001b010 	andeq	fp, r1, r0, lsl r0
    4de8:	2f051800 	svccs	0x00051800
    4dec:	00018f08 	andeq	r8, r1, r8, lsl #30
    4df0:	03c40d00 	biceq	r0, r4, #0, 26
    4df4:	31050000 	mrscc	r0, (UNDEF: 5)
    4df8:	00018f13 	andeq	r8, r1, r3, lsl pc
    4dfc:	5f110000 	svcpl	0x00110000
    4e00:	3205006b 	andcc	r0, r5, #107	; 0x6b
    4e04:	00002507 	andeq	r2, r0, r7, lsl #10
    4e08:	040d0400 	streq	r0, [sp], #-1024	; 0xfffffc00
    4e0c:	05000004 	streq	r0, [r0, #-4]
    4e10:	00250b32 	eoreq	r0, r5, r2, lsr fp
    4e14:	0d080000 	stceq	0, cr0, [r8, #-0]
    4e18:	00000199 	muleq	r0, r9, r1
    4e1c:	25143205 	ldrcs	r3, [r4, #-517]	; 0xfffffdfb
    4e20:	0c000000 	stceq	0, cr0, [r0], {-0}
    4e24:	0004a80d 	andeq	sl, r4, sp, lsl #16
    4e28:	1b320500 	blne	c86230 <__bss_end__+0xc7c1d0>
    4e2c:	00000025 	andeq	r0, r0, r5, lsr #32
    4e30:	785f1110 	ldmdavc	pc, {r4, r8, ip}^	; <UNPREDICTABLE>
    4e34:	0b330500 	bleq	cc623c <__bss_end__+0xcbc1dc>
    4e38:	00000195 	muleq	r0, r5, r1
    4e3c:	04050014 	streq	r0, [r5], #-20	; 0xffffffec
    4e40:	00000135 	andeq	r0, r0, r5, lsr r1
    4e44:	0001290a 	andeq	r2, r1, sl, lsl #18
    4e48:	0001a500 	andeq	sl, r1, r0, lsl #10
    4e4c:	002c0b00 	eoreq	r0, ip, r0, lsl #22
    4e50:	00000000 	andeq	r0, r0, r0
    4e54:	0001dd10 	andeq	sp, r1, r0, lsl sp
    4e58:	37052400 	strcc	r2, [r5, -r0, lsl #8]
    4e5c:	00022808 	andeq	r2, r2, r8, lsl #16
    4e60:	009e0d00 	addseq	r0, lr, r0, lsl #26
    4e64:	39050000 	stmdbcc	r5, {}	; <UNPREDICTABLE>
    4e68:	00002509 	andeq	r2, r0, r9, lsl #10
    4e6c:	3e0d0000 	cdpcc	0, 0, cr0, cr13, cr0, {0}
    4e70:	05000004 	streq	r0, [r0, #-4]
    4e74:	0025093a 	eoreq	r0, r5, sl, lsr r9
    4e78:	0d040000 	stceq	0, cr0, [r4, #-0]
    4e7c:	000000c1 	andeq	r0, r0, r1, asr #1
    4e80:	25093b05 	strcs	r3, [r9, #-2821]	; 0xfffff4fb
    4e84:	08000000 	stmdaeq	r0, {}	; <UNPREDICTABLE>
    4e88:	0005330d 	andeq	r3, r5, sp, lsl #6
    4e8c:	093c0500 	ldmdbeq	ip!, {r8, sl}
    4e90:	00000025 	andeq	r0, r0, r5, lsr #32
    4e94:	02a10d0c 	adceq	r0, r1, #12, 26	; 0x300
    4e98:	3d050000 	stccc	0, cr0, [r5, #-0]
    4e9c:	00002509 	andeq	r2, r0, r9, lsl #10
    4ea0:	830d1000 	movwhi	r1, #53248	; 0xd000
    4ea4:	05000002 	streq	r0, [r0, #-2]
    4ea8:	0025093e 	eoreq	r0, r5, lr, lsr r9
    4eac:	0d140000 	ldceq	0, cr0, [r4, #-0]
    4eb0:	000004ad 	andeq	r0, r0, sp, lsr #9
    4eb4:	25093f05 	strcs	r3, [r9, #-3845]	; 0xfffff0fb
    4eb8:	18000000 	stmdane	r0, {}	; <UNPREDICTABLE>
    4ebc:	0005290d 	andeq	r2, r5, sp, lsl #18
    4ec0:	09400500 	stmdbeq	r0, {r8, sl}^
    4ec4:	00000025 	andeq	r0, r0, r5, lsr #32
    4ec8:	04f00d1c 	ldrbteq	r0, [r0], #3356	; 0xd1c
    4ecc:	41050000 	mrsmi	r0, (UNDEF: 5)
    4ed0:	00002509 	andeq	r2, r0, r9, lsl #10
    4ed4:	12002000 	andne	r2, r0, #0
    4ed8:	00000101 	andeq	r0, r0, r1, lsl #2
    4edc:	4a050108 	bmi	145304 <__bss_end__+0x13b2a4>
    4ee0:	00026d08 	andeq	r6, r2, r8, lsl #26
    4ee4:	018c0d00 	orreq	r0, ip, r0, lsl #26
    4ee8:	4b050000 	blmi	144ef0 <__bss_end__+0x13ae90>
    4eec:	00026d0a 	andeq	r6, r2, sl, lsl #26
    4ef0:	000d0000 	andeq	r0, sp, r0
    4ef4:	05000000 	streq	r0, [r0, #-0]
    4ef8:	026d094c 	rsbeq	r0, sp, #76, 18	; 0x130000
    4efc:	13800000 	orrne	r0, r0, #0
    4f00:	0000045a 	andeq	r0, r0, sl, asr r4
    4f04:	290a4e05 	stmdbcs	sl, {r0, r2, r9, sl, fp, lr}
    4f08:	00000001 	andeq	r0, r0, r1
    4f0c:	01261301 			; <UNDEFINED> instruction: 0x01261301
    4f10:	51050000 	mrspl	r0, (UNDEF: 5)
    4f14:	0001290a 	andeq	r2, r1, sl, lsl #18
    4f18:	00010400 	andeq	r0, r1, r0, lsl #8
    4f1c:	0001150a 	andeq	r1, r1, sl, lsl #10
    4f20:	00027d00 	andeq	r7, r2, r0, lsl #26
    4f24:	002c0b00 	eoreq	r0, ip, r0, lsl #22
    4f28:	001f0000 	andseq	r0, pc, r0
    4f2c:	0002aa12 	andeq	sl, r2, r2, lsl sl
    4f30:	05019000 	streq	r9, [r1, #-0]
    4f34:	02c0085d 	sbceq	r0, r0, #6094848	; 0x5d0000
    4f38:	c40d0000 	strgt	r0, [sp], #-0
    4f3c:	05000003 	streq	r0, [r0, #-3]
    4f40:	02c0125e 	sbceq	r1, r0, #-536870907	; 0xe0000005
    4f44:	0d000000 	stceq	0, cr0, [r0, #-0]
    4f48:	000003dc 	ldrdeq	r0, [r0], -ip
    4f4c:	25065f05 	strcs	r5, [r6, #-3845]	; 0xfffff0fb
    4f50:	04000000 	streq	r0, [r0], #-0
    4f54:	0001940d 	andeq	r9, r1, sp, lsl #8
    4f58:	09610500 	stmdbeq	r1!, {r8, sl}^
    4f5c:	000002c6 	andeq	r0, r0, r6, asr #5
    4f60:	01010d08 	tsteq	r1, r8, lsl #26
    4f64:	62050000 	andvs	r0, r5, #0
    4f68:	0002281e 	andeq	r2, r2, lr, lsl r8
    4f6c:	05008800 	streq	r8, [r0, #-2048]	; 0xfffff800
    4f70:	00027d04 	andeq	r7, r2, r4, lsl #26
    4f74:	02d60a00 	sbcseq	r0, r6, #0, 20
    4f78:	02d60000 	sbcseq	r0, r6, #0
    4f7c:	2c0b0000 	stccs	0, cr0, [fp], {-0}
    4f80:	1f000000 	svcne	0x00000000
    4f84:	dc040500 	cfstr32le	mvfx0, [r4], {-0}
    4f88:	14000002 	strne	r0, [r0], #-2
    4f8c:	00038f10 	andeq	r8, r3, r0, lsl pc
    4f90:	75050800 	strvc	r0, [r5, #-2048]	; 0xfffff800
    4f94:	00030508 	andeq	r0, r3, r8, lsl #10
    4f98:	00bb0d00 	adcseq	r0, fp, r0, lsl #26
    4f9c:	76050000 	strvc	r0, [r5], -r0
    4fa0:	00030511 	andeq	r0, r3, r1, lsl r5
    4fa4:	1b0d0000 	blne	344fac <__bss_end__+0x33af4c>
    4fa8:	05000000 	streq	r0, [r0, #-0]
    4fac:	00250677 	eoreq	r0, r5, r7, ror r6
    4fb0:	00040000 	andeq	r0, r4, r0
    4fb4:	004f0405 	subeq	r0, pc, r5, lsl #8
    4fb8:	ae100000 	cdpge	0, 1, cr0, cr0, cr0, {0}
    4fbc:	68000003 	stmdavs	r0, {r0, r1}
    4fc0:	4e08b505 	cfsh32mi	mvfx11, mvfx8, #5
    4fc4:	11000004 	tstne	r0, r4
    4fc8:	0500705f 	streq	r7, [r0, #-95]	; 0xffffffa1
    4fcc:	030512b6 	movweq	r1, #21174	; 0x52b6
    4fd0:	11000000 	mrsne	r0, (UNDEF: 0)
    4fd4:	0500725f 	streq	r7, [r0, #-607]	; 0xfffffda1
    4fd8:	002507b7 	strhteq	r0, [r5], -r7
    4fdc:	11040000 	mrsne	r0, (UNDEF: 4)
    4fe0:	0500775f 	streq	r7, [r0, #-1887]	; 0xfffff8a1
    4fe4:	002507b8 	strhteq	r0, [r5], -r8
    4fe8:	0d080000 	stceq	0, cr0, [r8, #-0]
    4fec:	0000011f 	andeq	r0, r0, pc, lsl r1
    4ff0:	3a09b905 	bcc	27340c <__bss_end__+0x2693ac>
    4ff4:	0c000000 	stceq	0, cr0, [r0], {-0}
    4ff8:	0002080d 	andeq	r0, r2, sp, lsl #16
    4ffc:	09ba0500 	ldmibeq	sl!, {r8, sl}
    5000:	0000003a 	andeq	r0, r0, sl, lsr r0
    5004:	625f110e 	subsvs	r1, pc, #-2147483645	; 0x80000003
    5008:	bb050066 	bllt	1451a8 <__bss_end__+0x13b148>
    500c:	0002dd11 	andeq	sp, r2, r1, lsl sp
    5010:	7b0d1000 	blvc	349018 <__bss_end__+0x33efb8>
    5014:	05000000 	streq	r0, [r0, #-0]
    5018:	002507bc 	strhteq	r0, [r5], -ip
    501c:	0d180000 	ldceq	0, cr0, [r8, #-0]
    5020:	0000010f 	andeq	r0, r0, pc, lsl #2
    5024:	150ac305 	strne	ip, [sl, #-773]	; 0xfffffcfb
    5028:	1c000001 	stcne	0, cr0, [r0], {1}
    502c:	000b590d 	andeq	r5, fp, sp, lsl #18
    5030:	1dc50500 	cfstr64ne	mvdx0, [r5]
    5034:	000005c0 	andeq	r0, r0, r0, asr #11
    5038:	061d0d20 	ldreq	r0, [sp], -r0, lsr #26
    503c:	c7050000 	strgt	r0, [r5, -r0]
    5040:	0005ea1d 	andeq	lr, r5, sp, lsl sl
    5044:	300d2400 	andcc	r2, sp, r0, lsl #8
    5048:	05000004 	streq	r0, [r0, #-4]
    504c:	060e0dca 	streq	r0, [lr], -sl, asr #27
    5050:	0d280000 	stceq	0, cr0, [r8, #-0]
    5054:	0000050a 	andeq	r0, r0, sl, lsl #10
    5058:	2809cb05 	stmdacs	r9, {r0, r2, r8, r9, fp, lr, pc}
    505c:	2c000006 	stccs	0, cr0, [r0], {6}
    5060:	62755f11 	rsbsvs	r5, r5, #17, 30	; 0x44
    5064:	11ce0500 	bicne	r0, lr, r0, lsl #10
    5068:	000002dd 	ldrdeq	r0, [r0], -sp
    506c:	755f1130 	ldrbvc	r1, [pc, #-304]	; 4f44 <_start-0x30bc>
    5070:	cf050070 	svcgt	0x00050070
    5074:	00030512 	andeq	r0, r3, r2, lsl r5
    5078:	5f113800 	svcpl	0x00113800
    507c:	05007275 	streq	r7, [r0, #-629]	; 0xfffffd8b
    5080:	002507d0 	ldrdeq	r0, [r5], -r0	; <UNPREDICTABLE>
    5084:	0d3c0000 	ldceq	0, cr0, [ip, #-0]
    5088:	000000b5 	strheq	r0, [r0], -r5
    508c:	2e11d305 	cdpcs	3, 1, cr13, cr1, cr5, {0}
    5090:	40000006 	andmi	r0, r0, r6
    5094:	0004e20d 	andeq	lr, r4, sp, lsl #4
    5098:	11d40500 	bicsne	r0, r4, r0, lsl #10
    509c:	0000063e 	andeq	r0, r0, lr, lsr r6
    50a0:	6c5f1143 	ldfvse	f1, [pc], {67}	; 0x43
    50a4:	d7050062 	strle	r0, [r5, -r2, rrx]
    50a8:	0002dd11 	andeq	sp, r2, r1, lsl sp
    50ac:	3d0d4400 	cfstrscc	mvf4, [sp, #-0]
    50b0:	05000001 	streq	r0, [r0, #-1]
    50b4:	002507da 	ldrdeq	r0, [r5], -sl	; <UNPREDICTABLE>
    50b8:	0d4c0000 	stcleq	0, cr0, [ip, #-0]
    50bc:	0000014e 	andeq	r0, r0, lr, asr #2
    50c0:	820adb05 	andhi	sp, sl, #5120	; 0x1400
    50c4:	50000000 	andpl	r0, r0, r0
    50c8:	000afa0d 	andeq	pc, sl, sp, lsl #20
    50cc:	12de0500 	sbcsne	r0, lr, #0, 10
    50d0:	0000046c 	andeq	r0, r0, ip, ror #8
    50d4:	04220d54 	strteq	r0, [r2], #-3412	; 0xfffff2ac
    50d8:	e2050000 	and	r0, r5, #0
    50dc:	0001090c 	andeq	r0, r1, ip, lsl #18
    50e0:	b60d5800 	strlt	r5, [sp], -r0, lsl #16
    50e4:	05000003 	streq	r0, [r0, #-3]
    50e8:	00fd0ee4 	rscseq	r0, sp, r4, ror #29
    50ec:	0d5c0000 	ldcleq	0, cr0, [ip, #-0]
    50f0:	0000027b 	andeq	r0, r0, fp, ror r2
    50f4:	2509e505 	strcs	lr, [r9, #-1285]	; 0xfffffafb
    50f8:	64000000 	strvs	r0, [r0], #-0
    50fc:	00251500 	eoreq	r1, r5, r0, lsl #10
    5100:	046c0000 	strbteq	r0, [ip], #-0
    5104:	6c160000 	ldcvs	0, cr0, [r6], {-0}
    5108:	16000004 	strne	r0, [r0], -r4
    510c:	00000115 	andeq	r0, r0, r5, lsl r1
    5110:	00011716 	andeq	r1, r1, r6, lsl r7
    5114:	00251600 	eoreq	r1, r5, r0, lsl #12
    5118:	05000000 	streq	r0, [r0, #-0]
    511c:	00047704 	andeq	r7, r4, r4, lsl #14
    5120:	046c0f00 	strbteq	r0, [ip], #-3840	; 0xfffff100
    5124:	0c170000 	ldceq	0, cr0, [r7], {-0}
    5128:	28000004 	stmdacs	r0, {r2}
    512c:	02600504 	rsbeq	r0, r0, #4, 10	; 0x1000000
    5130:	0005c008 	andeq	ip, r5, r8
    5134:	03701800 	cmneq	r0, #0, 16
    5138:	62050000 	andvs	r0, r5, #0
    513c:	00250702 	eoreq	r0, r5, r2, lsl #14
    5140:	18000000 	stmdane	r0, {}	; <UNPREDICTABLE>
    5144:	0000012e 	andeq	r0, r0, lr, lsr #2
    5148:	0b026705 	bleq	9ed64 <__bss_end__+0x94d04>
    514c:	0000069a 	muleq	r0, sl, r6
    5150:	01f81804 	mvnseq	r1, r4, lsl #16
    5154:	67050000 	strvs	r0, [r5, -r0]
    5158:	069a1402 	ldreq	r1, [sl], r2, lsl #8
    515c:	18080000 	stmdane	r8, {}	; <UNPREDICTABLE>
    5160:	000001a8 	andeq	r0, r0, r8, lsr #3
    5164:	1e026705 	cdpne	7, 0, cr6, cr2, cr5, {0}
    5168:	0000069a 	muleq	r0, sl, r6
    516c:	03d7180c 	bicseq	r1, r7, #12, 16	; 0xc0000
    5170:	69050000 	stmdbvs	r5, {}	; <UNPREDICTABLE>
    5174:	00250802 	eoreq	r0, r5, r2, lsl #16
    5178:	18100000 	ldmdane	r0, {}	; <UNPREDICTABLE>
    517c:	00000029 	andeq	r0, r0, r9, lsr #32
    5180:	08026a05 	stmdaeq	r2, {r0, r2, r9, fp, sp, lr}
    5184:	0000089a 	muleq	r0, sl, r8
    5188:	03eb1814 	mvneq	r1, #20, 16	; 0x140000
    518c:	6d050000 	stcvs	0, cr0, [r5, #-0]
    5190:	00250702 	eoreq	r0, r5, r2, lsl #14
    5194:	18300000 	ldmdane	r0!, {}	; <UNPREDICTABLE>
    5198:	00000a36 	andeq	r0, r0, r6, lsr sl
    519c:	16026e05 	strne	r6, [r2], -r5, lsl #28
    51a0:	000008af 	andeq	r0, r0, pc, lsr #17
    51a4:	02b21834 	adcseq	r1, r2, #52, 16	; 0x340000
    51a8:	70050000 	andvc	r0, r5, r0
    51ac:	00250702 	eoreq	r0, r5, r2, lsl #14
    51b0:	18380000 	ldmdane	r8!, {}	; <UNPREDICTABLE>
    51b4:	000003e1 	andeq	r0, r0, r1, ror #7
    51b8:	0a027205 	beq	a19d4 <__bss_end__+0x97974>
    51bc:	000008c0 	andeq	r0, r0, r0, asr #17
    51c0:	0257183c 	subseq	r1, r7, #60, 16	; 0x3c0000
    51c4:	75050000 	strvc	r0, [r5, #-0]
    51c8:	018f1302 	orreq	r1, pc, r2, lsl #6
    51cc:	18400000 	stmdane	r0, {}^	; <UNPREDICTABLE>
    51d0:	000001c7 	andeq	r0, r0, r7, asr #3
    51d4:	07027605 	streq	r7, [r2, -r5, lsl #12]
    51d8:	00000025 	andeq	r0, r0, r5, lsr #32
    51dc:	05241844 	streq	r1, [r4, #-2116]!	; 0xfffff7bc
    51e0:	77050000 	strvc	r0, [r5, -r0]
    51e4:	018f1302 	orreq	r1, pc, r2, lsl #6
    51e8:	18480000 	stmdane	r8, {}^	; <UNPREDICTABLE>
    51ec:	000002c4 	andeq	r0, r0, r4, asr #5
    51f0:	14027805 	strne	r7, [r2], #-2053	; 0xfffff7fb
    51f4:	000008c6 	andeq	r0, r0, r6, asr #17
    51f8:	0200184c 	andeq	r1, r0, #76, 16	; 0x4c0000
    51fc:	7b050000 	blvc	145204 <__bss_end__+0x13b1a4>
    5200:	00250702 	eoreq	r0, r5, r2, lsl #14
    5204:	18500000 	ldmdane	r0, {}^	; <UNPREDICTABLE>
    5208:	00000146 	andeq	r0, r0, r6, asr #2
    520c:	09027c05 	stmdbeq	r2, {r0, r2, sl, fp, ip, sp, lr}
    5210:	00000117 	andeq	r0, r0, r7, lsl r1
    5214:	02ea1854 	rsceq	r1, sl, #84, 16	; 0x540000
    5218:	9f050000 	svcls	0x00050000
    521c:	08750702 	ldmdaeq	r5!, {r1, r8, r9, sl}^
    5220:	19580000 	ldmdbne	r8, {}^	; <UNPREDICTABLE>
    5224:	000002aa 	andeq	r0, r0, sl, lsr #5
    5228:	1302a305 	movwne	sl, #8965	; 0x2305
    522c:	000002c0 	andeq	r0, r0, r0, asr #5
    5230:	35190148 	ldrcc	r0, [r9, #-328]	; 0xfffffeb8
    5234:	05000002 	streq	r0, [r0, #-2]
    5238:	7d1202a4 	lfmvc	f0, 4, [r2, #-656]	; 0xfffffd70
    523c:	4c000002 	stcmi	0, cr0, [r0], {2}
    5240:	04d01901 	ldrbeq	r1, [r0], #2305	; 0x901
    5244:	a8050000 	stmdage	r5, {}	; <UNPREDICTABLE>
    5248:	08d70c02 	ldmeq	r7, {r1, sl, fp}^
    524c:	02dc0000 	sbcseq	r0, ip, #0
    5250:	00011719 	andeq	r1, r1, r9, lsl r7
    5254:	02ad0500 	adceq	r0, sp, #0, 10
    5258:	00065b10 	andeq	r5, r6, r0, lsl fp
    525c:	1902e000 	stmdbne	r2, {sp, lr, pc}
    5260:	000000fc 	strdeq	r0, [r0], -ip
    5264:	0a02af05 	beq	b0e80 <__bss_end__+0xa6e20>
    5268:	000008e3 	andeq	r0, r0, r3, ror #17
    526c:	050002ec 	streq	r0, [r0, #-748]	; 0xfffffd14
    5270:	00044e04 	andeq	r4, r4, r4, lsl #28
    5274:	00251500 	eoreq	r1, r5, r0, lsl #10
    5278:	05e40000 	strbeq	r0, [r4, #0]!
    527c:	6c160000 	ldcvs	0, cr0, [r6], {-0}
    5280:	16000004 	strne	r0, [r0], -r4
    5284:	00000115 	andeq	r0, r0, r5, lsl r1
    5288:	0005e416 	andeq	lr, r5, r6, lsl r4
    528c:	00251600 	eoreq	r1, r5, r0, lsl #12
    5290:	05000000 	streq	r0, [r0, #-0]
    5294:	00012404 	andeq	r2, r1, r4, lsl #8
    5298:	c6040500 	strgt	r0, [r4], -r0, lsl #10
    529c:	15000005 	strne	r0, [r0, #-5]
    52a0:	0000008e 	andeq	r0, r0, lr, lsl #1
    52a4:	0000060e 	andeq	r0, r0, lr, lsl #12
    52a8:	00046c16 	andeq	r6, r4, r6, lsl ip
    52ac:	01151600 	tsteq	r5, r0, lsl #12
    52b0:	8e160000 	cdphi	0, 1, cr0, cr6, cr0, {0}
    52b4:	16000000 	strne	r0, [r0], -r0
    52b8:	00000025 	andeq	r0, r0, r5, lsr #32
    52bc:	f0040500 			; <UNDEFINED> instruction: 0xf0040500
    52c0:	15000005 	strne	r0, [r0, #-5]
    52c4:	00000025 	andeq	r0, r0, r5, lsr #32
    52c8:	00000628 	andeq	r0, r0, r8, lsr #12
    52cc:	00046c16 	andeq	r6, r4, r6, lsl ip
    52d0:	01151600 	tsteq	r5, r0, lsl #12
    52d4:	05000000 	streq	r0, [r0, #-0]
    52d8:	00061404 	andeq	r1, r6, r4, lsl #8
    52dc:	004f0a00 	subeq	r0, pc, r0, lsl #20
    52e0:	063e0000 	ldrteq	r0, [lr], -r0
    52e4:	2c0b0000 	stccs	0, cr0, [fp], {-0}
    52e8:	02000000 	andeq	r0, r0, #0
    52ec:	004f0a00 	subeq	r0, pc, r0, lsl #20
    52f0:	064e0000 	strbeq	r0, [lr], -r0
    52f4:	2c0b0000 	stccs	0, cr0, [fp], {-0}
    52f8:	00000000 	andeq	r0, r0, r0
    52fc:	039c0700 	orrseq	r0, ip, #0, 14
    5300:	1f050000 	svcne	0x00050000
    5304:	030b1a01 	movweq	r1, #47617	; 0xba01
    5308:	b71a0000 	ldrlt	r0, [sl, -r0]
    530c:	0c000004 	stceq	0, cr0, [r0], {4}
    5310:	08012305 	stmdaeq	r1, {r0, r2, r8, r9, sp}
    5314:	00000694 	muleq	r0, r4, r6
    5318:	0003c418 	andeq	ip, r3, r8, lsl r4
    531c:	01250500 			; <UNDEFINED> instruction: 0x01250500
    5320:	00069411 	andeq	r9, r6, r1, lsl r4
    5324:	1b180000 	blne	60532c <__bss_end__+0x5fb2cc>
    5328:	05000002 	streq	r0, [r0, #-2]
    532c:	25070126 	strcs	r0, [r7, #-294]	; 0xfffffeda
    5330:	04000000 	streq	r0, [r0], #-0
    5334:	00039618 	andeq	r9, r3, r8, lsl r6
    5338:	01270500 			; <UNDEFINED> instruction: 0x01270500
    533c:	00069a0b 	andeq	r9, r6, fp, lsl #20
    5340:	05000800 	streq	r0, [r0, #-2048]	; 0xfffff800
    5344:	00065b04 	andeq	r5, r6, r4, lsl #22
    5348:	4e040500 	cfsh32mi	mvfx0, mvfx4, #0
    534c:	1a000006 	bne	536c <_start-0x2c94>
    5350:	00000021 	andeq	r0, r0, r1, lsr #32
    5354:	013f050e 	teqeq	pc, lr, lsl #10
    5358:	0006d908 	andeq	sp, r6, r8, lsl #18
    535c:	04131800 	ldreq	r1, [r3], #-2048	; 0xfffff800
    5360:	40050000 	andmi	r0, r5, r0
    5364:	06d91201 	ldrbeq	r1, [r9], r1, lsl #4
    5368:	18000000 	stmdane	r0, {}	; <UNPREDICTABLE>
    536c:	00000447 	andeq	r0, r0, r7, asr #8
    5370:	12014105 	andne	r4, r1, #1073741825	; 0x40000001
    5374:	000006d9 	ldrdeq	r0, [r0], -r9
    5378:	04631806 	strbteq	r1, [r3], #-2054	; 0xfffff7fa
    537c:	42050000 	andmi	r0, r5, #0
    5380:	00561201 	subseq	r1, r6, r1, lsl #4
    5384:	000c0000 	andeq	r0, ip, r0
    5388:	0000560a 	andeq	r5, r0, sl, lsl #12
    538c:	0006e900 	andeq	lr, r6, r0, lsl #18
    5390:	002c0b00 	eoreq	r0, ip, r0, lsl #22
    5394:	00020000 	andeq	r0, r2, r0
    5398:	8005d01b 	andhi	sp, r5, fp, lsl r0
    539c:	07fe0702 	ldrbeq	r0, [lr, r2, lsl #14]!
    53a0:	9b180000 	blls	6053a8 <__bss_end__+0x5fb348>
    53a4:	05000004 	streq	r0, [r0, #-4]
    53a8:	2c180282 	lfmcs	f0, 4, [r8], {130}	; 0x82
    53ac:	00000000 	andeq	r0, r0, r0
    53b0:	00044d18 	andeq	r4, r4, r8, lsl sp
    53b4:	02830500 	addeq	r0, r3, #0, 10
    53b8:	00011712 	andeq	r1, r1, r2, lsl r7
    53bc:	4a180400 	bmi	6063c4 <__bss_end__+0x5fc364>
    53c0:	05000002 	streq	r0, [r0, #-2]
    53c4:	fe100284 	cdp2	2, 1, cr0, cr0, cr4, {4}
    53c8:	08000007 	stmdaeq	r0, {r0, r1, r2}
    53cc:	0004fb18 	andeq	pc, r4, r8, lsl fp	; <UNPREDICTABLE>
    53d0:	02850500 	addeq	r0, r5, #0, 10
    53d4:	0001a517 	andeq	sl, r1, r7, lsl r5
    53d8:	b8182400 	ldmdalt	r8, {sl, sp}
    53dc:	05000001 	streq	r0, [r0, #-1]
    53e0:	250f0286 	strcs	r0, [pc, #-646]	; 5162 <_start-0x2e9e>
    53e4:	48000000 	stmdami	r0, {}	; <UNPREDICTABLE>
    53e8:	0003bf18 	andeq	fp, r3, r8, lsl pc
    53ec:	02870500 	addeq	r0, r7, #0, 10
    53f0:	0000642c 	andeq	r6, r0, ip, lsr #8
    53f4:	11185000 	tstne	r8, r0
    53f8:	05000005 	streq	r0, [r0, #-5]
    53fc:	a01a0288 	andsge	r0, sl, r8, lsl #5
    5400:	58000006 	stmdapl	r0, {r1, r2}
    5404:	0003ca18 	andeq	ip, r3, r8, lsl sl
    5408:	02890500 	addeq	r0, r9, #0, 10
    540c:	0000fd16 	andeq	pc, r0, r6, lsl sp	; <UNPREDICTABLE>
    5410:	16186800 	ldrne	r6, [r8], -r0, lsl #16
    5414:	05000005 	streq	r0, [r0, #-5]
    5418:	fd16028a 	ldc2	2, cr0, [r6, #-552]	; 0xfffffdd8
    541c:	70000000 	andvc	r0, r0, r0
    5420:	0002ce18 	andeq	ip, r2, r8, lsl lr
    5424:	028b0500 	addeq	r0, fp, #0, 10
    5428:	0000fd16 	andeq	pc, r0, r6, lsl sp	; <UNPREDICTABLE>
    542c:	c6187800 	ldrgt	r7, [r8], -r0, lsl #16
    5430:	05000004 	streq	r0, [r0, #-4]
    5434:	0e10028c 	cdpeq	2, 1, cr0, cr0, cr12, {4}
    5438:	80000008 	andhi	r0, r0, r8
    543c:	00023e18 	andeq	r3, r2, r8, lsl lr
    5440:	028d0500 	addeq	r0, sp, #0, 10
    5444:	00081e10 	andeq	r1, r8, r0, lsl lr
    5448:	70188800 	andsvc	r8, r8, r0, lsl #16
    544c:	05000004 	streq	r0, [r0, #-4]
    5450:	250f028e 	strcs	r0, [pc, #-654]	; 51ca <_start-0x2e36>
    5454:	a0000000 	andge	r0, r0, r0
    5458:	00017e18 	andeq	r7, r1, r8, lsl lr
    545c:	028f0500 	addeq	r0, pc, #0, 10
    5460:	0000fd16 	andeq	pc, r0, r6, lsl sp	; <UNPREDICTABLE>
    5464:	8f18a400 	svchi	0x0018a400
    5468:	05000000 	streq	r0, [r0, #-0]
    546c:	fd160290 	ldc2	2, cr0, [r6, #-576]	; 0xfffffdc0
    5470:	ac000000 	stcge	0, cr0, [r0], {-0}
    5474:	00016d18 	andeq	r6, r1, r8, lsl sp
    5478:	02910500 	addseq	r0, r1, #0, 10
    547c:	0000fd16 	andeq	pc, r0, r6, lsl sp	; <UNPREDICTABLE>
    5480:	3c18b400 	cfldrscc	mvf11, [r8], {-0}
    5484:	05000000 	streq	r0, [r0, #-0]
    5488:	fd160292 	ldc2	2, cr0, [r6, #-584]	; 0xfffffdb8
    548c:	bc000000 	stclt	0, cr0, [r0], {-0}
    5490:	00004b18 	andeq	r4, r0, r8, lsl fp
    5494:	02930500 	addseq	r0, r3, #0, 10
    5498:	0000fd16 	andeq	pc, r0, r6, lsl sp	; <UNPREDICTABLE>
    549c:	6e18c400 	cfmulsvs	mvf12, mvf8, mvf0
    54a0:	05000003 	streq	r0, [r0, #-3]
    54a4:	25080294 	strcs	r0, [r8, #-660]	; 0xfffffd6c
    54a8:	cc000000 	stcgt	0, cr0, [r0], {-0}
    54ac:	011d0a00 	tsteq	sp, r0, lsl #20
    54b0:	080e0000 	stmdaeq	lr, {}	; <UNPREDICTABLE>
    54b4:	2c0b0000 	stccs	0, cr0, [fp], {-0}
    54b8:	19000000 	stmdbne	r0, {}	; <UNPREDICTABLE>
    54bc:	011d0a00 	tsteq	sp, r0, lsl #20
    54c0:	081e0000 	ldmdaeq	lr, {}	; <UNPREDICTABLE>
    54c4:	2c0b0000 	stccs	0, cr0, [fp], {-0}
    54c8:	07000000 	streq	r0, [r0, -r0]
    54cc:	011d0a00 	tsteq	sp, r0, lsl #20
    54d0:	082e0000 	stmdaeq	lr!, {}	; <UNPREDICTABLE>
    54d4:	2c0b0000 	stccs	0, cr0, [fp], {-0}
    54d8:	17000000 	strne	r0, [r0, -r0]
    54dc:	05f01b00 	ldrbeq	r1, [r0, #2816]!	; 0xb00
    54e0:	55070299 	strpl	r0, [r7, #-665]	; 0xfffffd67
    54e4:	18000008 	stmdane	r0, {r3}
    54e8:	0000029a 	muleq	r0, sl, r2
    54ec:	1b029c05 	blne	ac508 <__bss_end__+0xa24a8>
    54f0:	00000855 	andeq	r0, r0, r5, asr r8
    54f4:	04bd1800 	ldrteq	r1, [sp], #2048	; 0x800
    54f8:	9d050000 	stcls	0, cr0, [r5, #-0]
    54fc:	08651802 	stmdaeq	r5!, {r1, fp, ip}^
    5500:	00780000 	rsbseq	r0, r8, r0
    5504:	0003050a 	andeq	r0, r3, sl, lsl #10
    5508:	00086500 	andeq	r6, r8, r0, lsl #10
    550c:	002c0b00 	eoreq	r0, ip, r0, lsl #22
    5510:	001d0000 	andseq	r0, sp, r0
    5514:	00002c0a 	andeq	r2, r0, sl, lsl #24
    5518:	00087500 	andeq	r7, r8, r0, lsl #10
    551c:	002c0b00 	eoreq	r0, ip, r0, lsl #22
    5520:	001d0000 	andseq	r0, sp, r0
    5524:	7e05f01c 	mcrvc	0, 0, pc, cr5, cr12, {0}	; <UNPREDICTABLE>
    5528:	089a0302 	ldmeq	sl, {r1, r8, r9}
    552c:	0c1d0000 	ldceq	0, cr0, [sp], {-0}
    5530:	05000004 	streq	r0, [r0, #-4]
    5534:	e90b0295 	stmdb	fp, {r0, r2, r4, r7, r9}
    5538:	1d000006 	stcne	0, cr0, [r0, #-24]	; 0xffffffe8
    553c:	000004e8 	andeq	r0, r0, r8, ror #9
    5540:	0b029e05 	bleq	acd5c <__bss_end__+0xa2cfc>
    5544:	0000082e 	andeq	r0, r0, lr, lsr #16
    5548:	011d0a00 	tsteq	sp, r0, lsl #20
    554c:	08aa0000 	stmiaeq	sl!, {}	; <UNPREDICTABLE>
    5550:	2c0b0000 	stccs	0, cr0, [fp], {-0}
    5554:	18000000 	stmdane	r0, {}	; <UNPREDICTABLE>
    5558:	00840600 	addeq	r0, r4, r0, lsl #12
    555c:	04050000 	streq	r0, [r5], #-0
    5560:	000008aa 	andeq	r0, r0, sl, lsr #17
    5564:	0008c01e 	andeq	ip, r8, lr, lsl r0
    5568:	046c1600 	strbteq	r1, [ip], #-1536	; 0xfffffa00
    556c:	05000000 	streq	r0, [r0, #-0]
    5570:	0008b504 	andeq	fp, r8, r4, lsl #10
    5574:	8f040500 	svchi	0x00040500
    5578:	1e000001 	cdpne	0, 0, cr0, cr0, cr1, {0}
    557c:	000008d7 	ldrdeq	r0, [r0], -r7
    5580:	00002516 	andeq	r2, r0, r6, lsl r5
    5584:	04050000 	streq	r0, [r5], #-0
    5588:	000008dd 	ldrdeq	r0, [r0], -sp
    558c:	08cc0405 	stmiaeq	ip, {r0, r2, sl}^
    5590:	4e0a0000 	cdpmi	0, 0, cr0, cr10, cr0, {0}
    5594:	f3000006 	vhadd.u8	d0, d0, d6
    5598:	0b000008 	bleq	55c0 <_start-0x2a40>
    559c:	0000002c 	andeq	r0, r0, ip, lsr #32
    55a0:	841f0002 	ldrhi	r0, [pc], #-2	; 55a8 <_start-0x2a58>
    55a4:	05000004 	streq	r0, [r0, #-4]
    55a8:	6c17032e 	ldcvs	3, cr0, [r7], {46}	; 0x2e
    55ac:	1f000004 	svcne	0x00000004
    55b0:	0000047d 	andeq	r0, r0, sp, ror r4
    55b4:	1d032f05 	stcne	15, cr2, [r3, #-20]	; 0xffffffec
    55b8:	00000472 	andeq	r0, r0, r2, ror r4
    55bc:	00002515 	andeq	r2, r0, r5, lsl r5
    55c0:	00091c00 	andeq	r1, r9, r0, lsl #24
    55c4:	00251600 	eoreq	r1, r5, r0, lsl #12
    55c8:	20000000 	andcs	r0, r0, r0
    55cc:	000001d1 	ldrdeq	r0, [r0], -r1
    55d0:	280e1d06 	stmdacs	lr, {r1, r2, r8, sl, fp, ip}
    55d4:	05000009 	streq	r0, [r0, #-9]
    55d8:	00090d04 	andeq	r0, r9, r4, lsl #26
    55dc:	00251500 	eoreq	r1, r5, r0, lsl #10
    55e0:	093d0000 	ldmdbeq	sp!, {}	; <UNPREDICTABLE>
    55e4:	e4160000 	ldr	r0, [r6], #-0
    55e8:	00000005 	andeq	r0, r0, r5
    55ec:	00077320 	andeq	r7, r7, r0, lsr #6
    55f0:	0e220600 	cfmadda32eq	mvax0, mvax0, mvfx2, mvfx0
    55f4:	00000949 	andeq	r0, r0, r9, asr #18
    55f8:	092e0405 	stmdbeq	lr!, {r0, r2, sl}
    55fc:	3d210000 	stccc	0, cr0, [r1, #-0]
    5600:	01000009 	tsteq	r0, r9
    5604:	0305070c 	movweq	r0, #22284	; 0x570c
    5608:	00009694 	muleq	r0, r4, r6
    560c:	00076a22 	andeq	r6, r7, r2, lsr #20
    5610:	05040100 	streq	r0, [r4, #-256]	; 0xffffff00
    5614:	00000025 	andeq	r0, r0, r5, lsr #32
    5618:	00008af8 	strdeq	r8, [r0], -r8	; <UNPREDICTABLE>
    561c:	00000034 	andeq	r0, r0, r4, lsr r0
    5620:	70239c01 	eorvc	r9, r3, r1, lsl #24
    5624:	1f040100 	svcne	0x00040100
    5628:	000005e4 	andeq	r0, r0, r4, ror #11
    562c:	00000abd 			; <UNDEFINED> instruction: 0x00000abd
    5630:	00000ab9 			; <UNDEFINED> instruction: 0x00000ab9
    5634:	09d20000 	ldmibeq	r2, {}^	; <UNPREDICTABLE>
    5638:	00040000 	andeq	r0, r4, r0
    563c:	0000109d 	muleq	r0, sp, r0
    5640:	02ef0104 	rsceq	r0, pc, #4, 2
    5644:	9e0c0000 	cdpls	0, 0, cr0, cr12, cr0, {0}
    5648:	cc000007 	stcgt	0, cr0, [r0], {7}
    564c:	2c000006 	stccs	0, cr0, [r0], {6}
    5650:	5c00008b 	stcpl	0, cr0, [r0], {139}	; 0x8b
    5654:	cf000000 	svcgt	0x00000000
    5658:	0200000e 	andeq	r0, r0, #14
    565c:	6e690504 	cdpvs	5, 6, cr0, cr9, cr4, {0}
    5660:	04030074 	streq	r0, [r3], #-116	; 0xffffff8c
    5664:	00006607 	andeq	r6, r0, r7, lsl #12
    5668:	06010300 	streq	r0, [r1], -r0, lsl #6
    566c:	000002de 	ldrdeq	r0, [r0], -lr
    5670:	77050203 	strvc	r0, [r5, -r3, lsl #4]
    5674:	03000003 	movweq	r0, #3
    5678:	00ac0504 	adceq	r0, ip, r4, lsl #10
    567c:	08030000 	stmdaeq	r3, {}	; <UNPREDICTABLE>
    5680:	0000a705 	andeq	sl, r0, r5, lsl #14
    5684:	08010300 	stmdaeq	r1, {r8, r9}
    5688:	000002dc 	ldrdeq	r0, [r0], -ip
    568c:	22070203 	andcs	r0, r7, #805306368	; 0x30000000
    5690:	03000002 	movweq	r0, #2
    5694:	00610704 	rsbeq	r0, r1, r4, lsl #14
    5698:	08030000 	stmdaeq	r3, {}	; <UNPREDICTABLE>
    569c:	00005c07 	andeq	r5, r0, r7, lsl #24
    56a0:	02650400 	rsbeq	r0, r5, #0, 8
    56a4:	22020000 	andcs	r0, r2, #0
    56a8:	00007719 	andeq	r7, r0, r9, lsl r7
    56ac:	7d040500 	cfstr32vc	mvfx0, [r4, #-0]
    56b0:	06000000 	streq	r0, [r0], -r0
    56b4:	00000421 	andeq	r0, r0, r1, lsr #8
    56b8:	0002bd04 	andeq	fp, r2, r4, lsl #26
    56bc:	0e2c0300 	cdpeq	3, 2, cr0, cr12, cr0, {0}
    56c0:	00000041 	andeq	r0, r0, r1, asr #32
    56c4:	00043604 	andeq	r3, r4, r4, lsl #12
    56c8:	0e720300 	cdpeq	3, 7, cr0, cr2, cr0, {0}
    56cc:	00000041 	andeq	r0, r0, r1, asr #32
    56d0:	00026d07 	andeq	r6, r2, r7, lsl #26
    56d4:	015e0400 	cmpeq	lr, r0, lsl #8
    56d8:	00002c17 	andeq	r2, r0, r7, lsl ip
    56dc:	03040800 	movweq	r0, #18432	; 0x4800
    56e0:	00c903a6 	sbceq	r0, r9, r6, lsr #7
    56e4:	5f090000 	svcpl	0x00090000
    56e8:	03000002 	movweq	r0, #2
    56ec:	009a0ca8 	addseq	r0, sl, r8, lsr #25
    56f0:	e2090000 	and	r0, r9, #0
    56f4:	03000001 	movweq	r0, #1
    56f8:	00c913a9 	sbceq	r1, r9, r9, lsr #7
    56fc:	0a000000 	beq	5704 <_start-0x28fc>
    5700:	0000004f 	andeq	r0, r0, pc, asr #32
    5704:	000000d9 	ldrdeq	r0, [r0], -r9
    5708:	00002c0b 	andeq	r2, r0, fp, lsl #24
    570c:	0c000300 	stceq	3, cr0, [r0], {-0}
    5710:	09a30308 	stmibeq	r3!, {r3, r8, r9}
    5714:	000000fd 	strdeq	r0, [r0], -sp
    5718:	0004190d 	andeq	r1, r4, sp, lsl #18
    571c:	07a50300 	streq	r0, [r5, r0, lsl #6]!
    5720:	00000025 	andeq	r0, r0, r5, lsr #32
    5724:	04280d00 	strteq	r0, [r8], #-3328	; 0xfffff300
    5728:	aa030000 	bge	c5730 <__bss_end__+0xbb6d0>
    572c:	0000a705 	andeq	sl, r0, r5, lsl #14
    5730:	04000400 	streq	r0, [r0], #-1024	; 0xfffffc00
    5734:	000003a3 	andeq	r0, r0, r3, lsr #7
    5738:	d903ab03 	stmdble	r3, {r0, r1, r8, r9, fp, sp, pc}
    573c:	04000000 	streq	r0, [r0], #-0
    5740:	0000019f 	muleq	r0, pc, r1	; <UNPREDICTABLE>
    5744:	6b1baf03 	blvs	6f1358 <__bss_end__+0x6e72f8>
    5748:	0e000000 	cdpeq	0, 0, cr0, cr0, cr0, {0}
    574c:	1d040504 	cfstr32ne	mvfx0, [r4, #-16]
    5750:	03000001 	movweq	r0, #1
    5754:	02e50801 	rsceq	r0, r5, #65536	; 0x10000
    5758:	1d0f0000 	stcne	0, cr0, [pc, #-0]	; 5760 <_start-0x28a0>
    575c:	04000001 	streq	r0, [r0], #-1
    5760:	00000468 	andeq	r0, r0, r8, ror #8
    5764:	5d191605 	ldcpl	6, cr1, [r9, #-20]	; 0xffffffec
    5768:	10000000 	andne	r0, r0, r0
    576c:	000001b0 			; <UNDEFINED> instruction: 0x000001b0
    5770:	082f0518 	stmdaeq	pc!, {r3, r4, r8, sl}	; <UNPREDICTABLE>
    5774:	0000018f 	andeq	r0, r0, pc, lsl #3
    5778:	0003c40d 	andeq	ip, r3, sp, lsl #8
    577c:	13310500 	teqne	r1, #0, 10
    5780:	0000018f 	andeq	r0, r0, pc, lsl #3
    5784:	6b5f1100 	blvs	17c9b8c <__bss_end__+0x17bfb2c>
    5788:	07320500 	ldreq	r0, [r2, -r0, lsl #10]!
    578c:	00000025 	andeq	r0, r0, r5, lsr #32
    5790:	04040d04 	streq	r0, [r4], #-3332	; 0xfffff2fc
    5794:	32050000 	andcc	r0, r5, #0
    5798:	0000250b 	andeq	r2, r0, fp, lsl #10
    579c:	990d0800 	stmdbls	sp, {fp}
    57a0:	05000001 	streq	r0, [r0, #-1]
    57a4:	00251432 	eoreq	r1, r5, r2, lsr r4
    57a8:	0d0c0000 	stceq	0, cr0, [ip, #-0]
    57ac:	000004a8 	andeq	r0, r0, r8, lsr #9
    57b0:	251b3205 	ldrcs	r3, [fp, #-517]	; 0xfffffdfb
    57b4:	10000000 	andne	r0, r0, r0
    57b8:	00785f11 	rsbseq	r5, r8, r1, lsl pc
    57bc:	950b3305 	strls	r3, [fp, #-773]	; 0xfffffcfb
    57c0:	14000001 	strne	r0, [r0], #-1
    57c4:	35040500 	strcc	r0, [r4, #-1280]	; 0xfffffb00
    57c8:	0a000001 	beq	57d4 <_start-0x282c>
    57cc:	00000129 	andeq	r0, r0, r9, lsr #2
    57d0:	000001a5 	andeq	r0, r0, r5, lsr #3
    57d4:	00002c0b 	andeq	r2, r0, fp, lsl #24
    57d8:	10000000 	andne	r0, r0, r0
    57dc:	000001dd 	ldrdeq	r0, [r0], -sp
    57e0:	08370524 	ldmdaeq	r7!, {r2, r5, r8, sl}
    57e4:	00000228 	andeq	r0, r0, r8, lsr #4
    57e8:	00009e0d 	andeq	r9, r0, sp, lsl #28
    57ec:	09390500 	ldmdbeq	r9!, {r8, sl}
    57f0:	00000025 	andeq	r0, r0, r5, lsr #32
    57f4:	043e0d00 	ldrteq	r0, [lr], #-3328	; 0xfffff300
    57f8:	3a050000 	bcc	145800 <__bss_end__+0x13b7a0>
    57fc:	00002509 	andeq	r2, r0, r9, lsl #10
    5800:	c10d0400 	tstgt	sp, r0, lsl #8
    5804:	05000000 	streq	r0, [r0, #-0]
    5808:	0025093b 	eoreq	r0, r5, fp, lsr r9
    580c:	0d080000 	stceq	0, cr0, [r8, #-0]
    5810:	00000533 	andeq	r0, r0, r3, lsr r5
    5814:	25093c05 	strcs	r3, [r9, #-3077]	; 0xfffff3fb
    5818:	0c000000 	stceq	0, cr0, [r0], {-0}
    581c:	0002a10d 	andeq	sl, r2, sp, lsl #2
    5820:	093d0500 	ldmdbeq	sp!, {r8, sl}
    5824:	00000025 	andeq	r0, r0, r5, lsr #32
    5828:	02830d10 	addeq	r0, r3, #16, 26	; 0x400
    582c:	3e050000 	cdpcc	0, 0, cr0, cr5, cr0, {0}
    5830:	00002509 	andeq	r2, r0, r9, lsl #10
    5834:	ad0d1400 	cfstrsge	mvf1, [sp, #-0]
    5838:	05000004 	streq	r0, [r0, #-4]
    583c:	0025093f 	eoreq	r0, r5, pc, lsr r9
    5840:	0d180000 	ldceq	0, cr0, [r8, #-0]
    5844:	00000529 	andeq	r0, r0, r9, lsr #10
    5848:	25094005 	strcs	r4, [r9, #-5]
    584c:	1c000000 	stcne	0, cr0, [r0], {-0}
    5850:	0004f00d 	andeq	pc, r4, sp
    5854:	09410500 	stmdbeq	r1, {r8, sl}^
    5858:	00000025 	andeq	r0, r0, r5, lsr #32
    585c:	01120020 	tsteq	r2, r0, lsr #32
    5860:	08000001 	stmdaeq	r0, {r0}
    5864:	084a0501 	stmdaeq	sl, {r0, r8, sl}^
    5868:	0000026d 	andeq	r0, r0, sp, ror #4
    586c:	00018c0d 	andeq	r8, r1, sp, lsl #24
    5870:	0a4b0500 	beq	12c6c78 <__bss_end__+0x12bcc18>
    5874:	0000026d 	andeq	r0, r0, sp, ror #4
    5878:	00000d00 	andeq	r0, r0, r0, lsl #26
    587c:	4c050000 	stcmi	0, cr0, [r5], {-0}
    5880:	00026d09 	andeq	r6, r2, r9, lsl #26
    5884:	5a138000 	bpl	4e588c <__bss_end__+0x4db82c>
    5888:	05000004 	streq	r0, [r0, #-4]
    588c:	01290a4e 			; <UNDEFINED> instruction: 0x01290a4e
    5890:	01000000 	mrseq	r0, (UNDEF: 0)
    5894:	00012613 	andeq	r2, r1, r3, lsl r6
    5898:	0a510500 	beq	1446ca0 <__bss_end__+0x143cc40>
    589c:	00000129 	andeq	r0, r0, r9, lsr #2
    58a0:	0a000104 	beq	5cb8 <_start-0x2348>
    58a4:	00000115 	andeq	r0, r0, r5, lsl r1
    58a8:	0000027d 	andeq	r0, r0, sp, ror r2
    58ac:	00002c0b 	andeq	r2, r0, fp, lsl #24
    58b0:	12001f00 	andne	r1, r0, #0, 30
    58b4:	000002aa 	andeq	r0, r0, sl, lsr #5
    58b8:	5d050190 	stfpls	f0, [r5, #-576]	; 0xfffffdc0
    58bc:	0002c008 	andeq	ip, r2, r8
    58c0:	03c40d00 	biceq	r0, r4, #0, 26
    58c4:	5e050000 	cdppl	0, 0, cr0, cr5, cr0, {0}
    58c8:	0002c012 	andeq	ip, r2, r2, lsl r0
    58cc:	dc0d0000 	stcle	0, cr0, [sp], {-0}
    58d0:	05000003 	streq	r0, [r0, #-3]
    58d4:	0025065f 	eoreq	r0, r5, pc, asr r6
    58d8:	0d040000 	stceq	0, cr0, [r4, #-0]
    58dc:	00000194 	muleq	r0, r4, r1
    58e0:	c6096105 	strgt	r6, [r9], -r5, lsl #2
    58e4:	08000002 	stmdaeq	r0, {r1}
    58e8:	0001010d 	andeq	r0, r1, sp, lsl #2
    58ec:	1e620500 	cdpne	5, 6, cr0, cr2, cr0, {0}
    58f0:	00000228 	andeq	r0, r0, r8, lsr #4
    58f4:	04050088 	streq	r0, [r5], #-136	; 0xffffff78
    58f8:	0000027d 	andeq	r0, r0, sp, ror r2
    58fc:	0002d60a 	andeq	sp, r2, sl, lsl #12
    5900:	0002d600 	andeq	sp, r2, r0, lsl #12
    5904:	002c0b00 	eoreq	r0, ip, r0, lsl #22
    5908:	001f0000 	andseq	r0, pc, r0
    590c:	02dc0405 	sbcseq	r0, ip, #83886080	; 0x5000000
    5910:	10140000 	andsne	r0, r4, r0
    5914:	0000038f 	andeq	r0, r0, pc, lsl #7
    5918:	08750508 	ldmdaeq	r5!, {r3, r8, sl}^
    591c:	00000305 	andeq	r0, r0, r5, lsl #6
    5920:	0000bb0d 	andeq	fp, r0, sp, lsl #22
    5924:	11760500 	cmnne	r6, r0, lsl #10
    5928:	00000305 	andeq	r0, r0, r5, lsl #6
    592c:	001b0d00 	andseq	r0, fp, r0, lsl #26
    5930:	77050000 	strvc	r0, [r5, -r0]
    5934:	00002506 	andeq	r2, r0, r6, lsl #10
    5938:	05000400 	streq	r0, [r0, #-1024]	; 0xfffffc00
    593c:	00004f04 	andeq	r4, r0, r4, lsl #30
    5940:	03ae1000 			; <UNDEFINED> instruction: 0x03ae1000
    5944:	05680000 	strbeq	r0, [r8, #-0]!
    5948:	044e08b5 	strbeq	r0, [lr], #-2229	; 0xfffff74b
    594c:	5f110000 	svcpl	0x00110000
    5950:	b6050070 			; <UNDEFINED> instruction: 0xb6050070
    5954:	00030512 	andeq	r0, r3, r2, lsl r5
    5958:	5f110000 	svcpl	0x00110000
    595c:	b7050072 	smlsdxlt	r5, r2, r0, r0
    5960:	00002507 	andeq	r2, r0, r7, lsl #10
    5964:	5f110400 	svcpl	0x00110400
    5968:	b8050077 	stmdalt	r5, {r0, r1, r2, r4, r5, r6}
    596c:	00002507 	andeq	r2, r0, r7, lsl #10
    5970:	1f0d0800 	svcne	0x000d0800
    5974:	05000001 	streq	r0, [r0, #-1]
    5978:	003a09b9 	ldrhteq	r0, [sl], -r9
    597c:	0d0c0000 	stceq	0, cr0, [ip, #-0]
    5980:	00000208 	andeq	r0, r0, r8, lsl #4
    5984:	3a09ba05 	bcc	2741a0 <__bss_end__+0x26a140>
    5988:	0e000000 	cdpeq	0, 0, cr0, cr0, cr0, {0}
    598c:	66625f11 	uqadd16vs	r5, r2, r1
    5990:	11bb0500 			; <UNDEFINED> instruction: 0x11bb0500
    5994:	000002dd 	ldrdeq	r0, [r0], -sp
    5998:	007b0d10 	rsbseq	r0, fp, r0, lsl sp
    599c:	bc050000 	stclt	0, cr0, [r5], {-0}
    59a0:	00002507 	andeq	r2, r0, r7, lsl #10
    59a4:	0f0d1800 	svceq	0x000d1800
    59a8:	05000001 	streq	r0, [r0, #-1]
    59ac:	01150ac3 	tsteq	r5, r3, asr #21
    59b0:	0d1c0000 	ldceq	0, cr0, [ip, #-0]
    59b4:	00000b59 	andeq	r0, r0, r9, asr fp
    59b8:	c01dc505 	andsgt	ip, sp, r5, lsl #10
    59bc:	20000005 	andcs	r0, r0, r5
    59c0:	00061d0d 	andeq	r1, r6, sp, lsl #26
    59c4:	1dc70500 	cfstr64ne	mvdx0, [r7]
    59c8:	000005ea 	andeq	r0, r0, sl, ror #11
    59cc:	04300d24 	ldrteq	r0, [r0], #-3364	; 0xfffff2dc
    59d0:	ca050000 	bgt	1459d8 <__bss_end__+0x13b978>
    59d4:	00060e0d 	andeq	r0, r6, sp, lsl #28
    59d8:	0a0d2800 	beq	34f9e0 <__bss_end__+0x345980>
    59dc:	05000005 	streq	r0, [r0, #-5]
    59e0:	062809cb 	strteq	r0, [r8], -fp, asr #19
    59e4:	112c0000 			; <UNDEFINED> instruction: 0x112c0000
    59e8:	0062755f 	rsbeq	r7, r2, pc, asr r5
    59ec:	dd11ce05 	ldcle	14, cr12, [r1, #-20]	; 0xffffffec
    59f0:	30000002 	andcc	r0, r0, r2
    59f4:	70755f11 	rsbsvc	r5, r5, r1, lsl pc
    59f8:	12cf0500 	sbcne	r0, pc, #0, 10
    59fc:	00000305 	andeq	r0, r0, r5, lsl #6
    5a00:	755f1138 	ldrbvc	r1, [pc, #-312]	; 58d0 <_start-0x2730>
    5a04:	d0050072 	andle	r0, r5, r2, ror r0
    5a08:	00002507 	andeq	r2, r0, r7, lsl #10
    5a0c:	b50d3c00 	strlt	r3, [sp, #-3072]	; 0xfffff400
    5a10:	05000000 	streq	r0, [r0, #-0]
    5a14:	062e11d3 			; <UNDEFINED> instruction: 0x062e11d3
    5a18:	0d400000 	stcleq	0, cr0, [r0, #-0]
    5a1c:	000004e2 	andeq	r0, r0, r2, ror #9
    5a20:	3e11d405 	cfmulscc	mvf13, mvf1, mvf5
    5a24:	43000006 	movwmi	r0, #6
    5a28:	626c5f11 	rsbvs	r5, ip, #17, 30	; 0x44
    5a2c:	11d70500 	bicsne	r0, r7, r0, lsl #10
    5a30:	000002dd 	ldrdeq	r0, [r0], -sp
    5a34:	013d0d44 	teqeq	sp, r4, asr #26
    5a38:	da050000 	ble	145a40 <__bss_end__+0x13b9e0>
    5a3c:	00002507 	andeq	r2, r0, r7, lsl #10
    5a40:	4e0d4c00 	cdpmi	12, 0, cr4, cr13, cr0, {0}
    5a44:	05000001 	streq	r0, [r0, #-1]
    5a48:	00820adb 	ldrdeq	r0, [r2], fp
    5a4c:	0d500000 	ldcleq	0, cr0, [r0, #-0]
    5a50:	00000afa 	strdeq	r0, [r0], -sl
    5a54:	6c12de05 	ldcvs	14, cr13, [r2], {5}
    5a58:	54000004 	strpl	r0, [r0], #-4
    5a5c:	0004220d 	andeq	r2, r4, sp, lsl #4
    5a60:	0ce20500 	cfstr64eq	mvdx0, [r2]
    5a64:	00000109 	andeq	r0, r0, r9, lsl #2
    5a68:	03b60d58 			; <UNDEFINED> instruction: 0x03b60d58
    5a6c:	e4050000 	str	r0, [r5], #-0
    5a70:	0000fd0e 	andeq	pc, r0, lr, lsl #26
    5a74:	7b0d5c00 	blvc	35ca7c <__bss_end__+0x352a1c>
    5a78:	05000002 	streq	r0, [r0, #-2]
    5a7c:	002509e5 	eoreq	r0, r5, r5, ror #19
    5a80:	00640000 	rsbeq	r0, r4, r0
    5a84:	00002515 	andeq	r2, r0, r5, lsl r5
    5a88:	00046c00 	andeq	r6, r4, r0, lsl #24
    5a8c:	046c1600 	strbteq	r1, [ip], #-1536	; 0xfffffa00
    5a90:	15160000 	ldrne	r0, [r6, #-0]
    5a94:	16000001 	strne	r0, [r0], -r1
    5a98:	00000117 	andeq	r0, r0, r7, lsl r1
    5a9c:	00002516 	andeq	r2, r0, r6, lsl r5
    5aa0:	04050000 	streq	r0, [r5], #-0
    5aa4:	00000477 	andeq	r0, r0, r7, ror r4
    5aa8:	00046c0f 	andeq	r6, r4, pc, lsl #24
    5aac:	040c1700 	streq	r1, [ip], #-1792	; 0xfffff900
    5ab0:	04280000 	strteq	r0, [r8], #-0
    5ab4:	08026005 	stmdaeq	r2, {r0, r2, sp, lr}
    5ab8:	000005c0 	andeq	r0, r0, r0, asr #11
    5abc:	00037018 	andeq	r7, r3, r8, lsl r0
    5ac0:	02620500 	rsbeq	r0, r2, #0, 10
    5ac4:	00002507 	andeq	r2, r0, r7, lsl #10
    5ac8:	2e180000 	cdpcs	0, 1, cr0, cr8, cr0, {0}
    5acc:	05000001 	streq	r0, [r0, #-1]
    5ad0:	9a0b0267 	bls	2c6474 <__bss_end__+0x2bc414>
    5ad4:	04000006 	streq	r0, [r0], #-6
    5ad8:	0001f818 	andeq	pc, r1, r8, lsl r8	; <UNPREDICTABLE>
    5adc:	02670500 	rsbeq	r0, r7, #0, 10
    5ae0:	00069a14 	andeq	r9, r6, r4, lsl sl
    5ae4:	a8180800 	ldmdage	r8, {fp}
    5ae8:	05000001 	streq	r0, [r0, #-1]
    5aec:	9a1e0267 	bls	786490 <__bss_end__+0x77c430>
    5af0:	0c000006 	stceq	0, cr0, [r0], {6}
    5af4:	0003d718 	andeq	sp, r3, r8, lsl r7
    5af8:	02690500 	rsbeq	r0, r9, #0, 10
    5afc:	00002508 	andeq	r2, r0, r8, lsl #10
    5b00:	29181000 	ldmdbcs	r8, {ip}
    5b04:	05000000 	streq	r0, [r0, #-0]
    5b08:	9a08026a 	bls	2064b8 <__bss_end__+0x1fc458>
    5b0c:	14000008 	strne	r0, [r0], #-8
    5b10:	0003eb18 	andeq	lr, r3, r8, lsl fp
    5b14:	026d0500 	rsbeq	r0, sp, #0, 10
    5b18:	00002507 	andeq	r2, r0, r7, lsl #10
    5b1c:	36183000 	ldrcc	r3, [r8], -r0
    5b20:	0500000a 	streq	r0, [r0, #-10]
    5b24:	af16026e 	svcge	0x0016026e
    5b28:	34000008 	strcc	r0, [r0], #-8
    5b2c:	0002b218 	andeq	fp, r2, r8, lsl r2
    5b30:	02700500 	rsbseq	r0, r0, #0, 10
    5b34:	00002507 	andeq	r2, r0, r7, lsl #10
    5b38:	e1183800 	tst	r8, r0, lsl #16
    5b3c:	05000003 	streq	r0, [r0, #-3]
    5b40:	c00a0272 	andgt	r0, sl, r2, ror r2
    5b44:	3c000008 	stccc	0, cr0, [r0], {8}
    5b48:	00025718 	andeq	r5, r2, r8, lsl r7
    5b4c:	02750500 	rsbseq	r0, r5, #0, 10
    5b50:	00018f13 	andeq	r8, r1, r3, lsl pc
    5b54:	c7184000 	ldrgt	r4, [r8, -r0]
    5b58:	05000001 	streq	r0, [r0, #-1]
    5b5c:	25070276 	strcs	r0, [r7, #-630]	; 0xfffffd8a
    5b60:	44000000 	strmi	r0, [r0], #-0
    5b64:	00052418 	andeq	r2, r5, r8, lsl r4
    5b68:	02770500 	rsbseq	r0, r7, #0, 10
    5b6c:	00018f13 	andeq	r8, r1, r3, lsl pc
    5b70:	c4184800 	ldrgt	r4, [r8], #-2048	; 0xfffff800
    5b74:	05000002 	streq	r0, [r0, #-2]
    5b78:	c6140278 			; <UNDEFINED> instruction: 0xc6140278
    5b7c:	4c000008 	stcmi	0, cr0, [r0], {8}
    5b80:	00020018 	andeq	r0, r2, r8, lsl r0
    5b84:	027b0500 	rsbseq	r0, fp, #0, 10
    5b88:	00002507 	andeq	r2, r0, r7, lsl #10
    5b8c:	46185000 	ldrmi	r5, [r8], -r0
    5b90:	05000001 	streq	r0, [r0, #-1]
    5b94:	1709027c 	smlsdxne	r9, ip, r2, r0
    5b98:	54000001 	strpl	r0, [r0], #-1
    5b9c:	0002ea18 	andeq	lr, r2, r8, lsl sl
    5ba0:	029f0500 	addseq	r0, pc, #0, 10
    5ba4:	00087507 	andeq	r7, r8, r7, lsl #10
    5ba8:	aa195800 	bge	65bbb0 <__bss_end__+0x651b50>
    5bac:	05000002 	streq	r0, [r0, #-2]
    5bb0:	c01302a3 	andsgt	r0, r3, r3, lsr #5
    5bb4:	48000002 	stmdami	r0, {r1}
    5bb8:	02351901 	eorseq	r1, r5, #16384	; 0x4000
    5bbc:	a4050000 	strge	r0, [r5], #-0
    5bc0:	027d1202 	rsbseq	r1, sp, #536870912	; 0x20000000
    5bc4:	014c0000 	mrseq	r0, (UNDEF: 76)
    5bc8:	0004d019 	andeq	sp, r4, r9, lsl r0
    5bcc:	02a80500 	adceq	r0, r8, #0, 10
    5bd0:	0008d70c 	andeq	sp, r8, ip, lsl #14
    5bd4:	1902dc00 	stmdbne	r2, {sl, fp, ip, lr, pc}
    5bd8:	00000117 	andeq	r0, r0, r7, lsl r1
    5bdc:	1002ad05 	andne	sl, r2, r5, lsl #26
    5be0:	0000065b 	andeq	r0, r0, fp, asr r6
    5be4:	fc1902e0 	ldc2	2, cr0, [r9], {224}	; 0xe0
    5be8:	05000000 	streq	r0, [r0, #-0]
    5bec:	e30a02af 	movw	r0, #41647	; 0xa2af
    5bf0:	ec000008 	stc	0, cr0, [r0], {8}
    5bf4:	04050002 	streq	r0, [r5], #-2
    5bf8:	0000044e 	andeq	r0, r0, lr, asr #8
    5bfc:	00002515 	andeq	r2, r0, r5, lsl r5
    5c00:	0005e400 	andeq	lr, r5, r0, lsl #8
    5c04:	046c1600 	strbteq	r1, [ip], #-1536	; 0xfffffa00
    5c08:	15160000 	ldrne	r0, [r6, #-0]
    5c0c:	16000001 	strne	r0, [r0], -r1
    5c10:	000005e4 	andeq	r0, r0, r4, ror #11
    5c14:	00002516 	andeq	r2, r0, r6, lsl r5
    5c18:	04050000 	streq	r0, [r5], #-0
    5c1c:	00000124 	andeq	r0, r0, r4, lsr #2
    5c20:	05c60405 	strbeq	r0, [r6, #1029]	; 0x405
    5c24:	8e150000 	cdphi	0, 1, cr0, cr5, cr0, {0}
    5c28:	0e000000 	cdpeq	0, 0, cr0, cr0, cr0, {0}
    5c2c:	16000006 	strne	r0, [r0], -r6
    5c30:	0000046c 	andeq	r0, r0, ip, ror #8
    5c34:	00011516 	andeq	r1, r1, r6, lsl r5
    5c38:	008e1600 	addeq	r1, lr, r0, lsl #12
    5c3c:	25160000 	ldrcs	r0, [r6, #-0]
    5c40:	00000000 	andeq	r0, r0, r0
    5c44:	05f00405 	ldrbeq	r0, [r0, #1029]!	; 0x405
    5c48:	25150000 	ldrcs	r0, [r5, #-0]
    5c4c:	28000000 	stmdacs	r0, {}	; <UNPREDICTABLE>
    5c50:	16000006 	strne	r0, [r0], -r6
    5c54:	0000046c 	andeq	r0, r0, ip, ror #8
    5c58:	00011516 	andeq	r1, r1, r6, lsl r5
    5c5c:	04050000 	streq	r0, [r5], #-0
    5c60:	00000614 	andeq	r0, r0, r4, lsl r6
    5c64:	00004f0a 	andeq	r4, r0, sl, lsl #30
    5c68:	00063e00 	andeq	r3, r6, r0, lsl #28
    5c6c:	002c0b00 	eoreq	r0, ip, r0, lsl #22
    5c70:	00020000 	andeq	r0, r2, r0
    5c74:	00004f0a 	andeq	r4, r0, sl, lsl #30
    5c78:	00064e00 	andeq	r4, r6, r0, lsl #28
    5c7c:	002c0b00 	eoreq	r0, ip, r0, lsl #22
    5c80:	00000000 	andeq	r0, r0, r0
    5c84:	00039c07 	andeq	r9, r3, r7, lsl #24
    5c88:	011f0500 	tsteq	pc, r0, lsl #10
    5c8c:	00030b1a 	andeq	r0, r3, sl, lsl fp
    5c90:	04b71a00 	ldrteq	r1, [r7], #2560	; 0xa00
    5c94:	050c0000 	streq	r0, [ip, #-0]
    5c98:	94080123 	strls	r0, [r8], #-291	; 0xfffffedd
    5c9c:	18000006 	stmdane	r0, {r1, r2}
    5ca0:	000003c4 	andeq	r0, r0, r4, asr #7
    5ca4:	11012505 	tstne	r1, r5, lsl #10
    5ca8:	00000694 	muleq	r0, r4, r6
    5cac:	021b1800 	andseq	r1, fp, #0, 16
    5cb0:	26050000 	strcs	r0, [r5], -r0
    5cb4:	00250701 	eoreq	r0, r5, r1, lsl #14
    5cb8:	18040000 	stmdane	r4, {}	; <UNPREDICTABLE>
    5cbc:	00000396 	muleq	r0, r6, r3
    5cc0:	0b012705 	bleq	4f8dc <__bss_end__+0x4587c>
    5cc4:	0000069a 	muleq	r0, sl, r6
    5cc8:	04050008 	streq	r0, [r5], #-8
    5ccc:	0000065b 	andeq	r0, r0, fp, asr r6
    5cd0:	064e0405 	strbeq	r0, [lr], -r5, lsl #8
    5cd4:	211a0000 	tstcs	sl, r0
    5cd8:	0e000000 	cdpeq	0, 0, cr0, cr0, cr0, {0}
    5cdc:	08013f05 	stmdaeq	r1, {r0, r2, r8, r9, sl, fp, ip, sp}
    5ce0:	000006d9 	ldrdeq	r0, [r0], -r9
    5ce4:	00041318 	andeq	r1, r4, r8, lsl r3
    5ce8:	01400500 	cmpeq	r0, r0, lsl #10
    5cec:	0006d912 	andeq	sp, r6, r2, lsl r9
    5cf0:	47180000 	ldrmi	r0, [r8, -r0]
    5cf4:	05000004 	streq	r0, [r0, #-4]
    5cf8:	d9120141 	ldmdble	r2, {r0, r6, r8}
    5cfc:	06000006 	streq	r0, [r0], -r6
    5d00:	00046318 	andeq	r6, r4, r8, lsl r3
    5d04:	01420500 	cmpeq	r2, r0, lsl #10
    5d08:	00005612 	andeq	r5, r0, r2, lsl r6
    5d0c:	0a000c00 	beq	8d14 <emit+0x11c>
    5d10:	00000056 	andeq	r0, r0, r6, asr r0
    5d14:	000006e9 	andeq	r0, r0, r9, ror #13
    5d18:	00002c0b 	andeq	r2, r0, fp, lsl #24
    5d1c:	1b000200 	blne	6524 <_start-0x1adc>
    5d20:	028005d0 	addeq	r0, r0, #208, 10	; 0x34000000
    5d24:	0007fe07 	andeq	pc, r7, r7, lsl #28
    5d28:	049b1800 	ldreq	r1, [fp], #2048	; 0x800
    5d2c:	82050000 	andhi	r0, r5, #0
    5d30:	002c1802 	eoreq	r1, ip, r2, lsl #16
    5d34:	18000000 	stmdane	r0, {}	; <UNPREDICTABLE>
    5d38:	0000044d 	andeq	r0, r0, sp, asr #8
    5d3c:	12028305 	andne	r8, r2, #335544320	; 0x14000000
    5d40:	00000117 	andeq	r0, r0, r7, lsl r1
    5d44:	024a1804 	subeq	r1, sl, #4, 16	; 0x40000
    5d48:	84050000 	strhi	r0, [r5], #-0
    5d4c:	07fe1002 	ldrbeq	r1, [lr, r2]!
    5d50:	18080000 	stmdane	r8, {}	; <UNPREDICTABLE>
    5d54:	000004fb 	strdeq	r0, [r0], -fp
    5d58:	17028505 	strne	r8, [r2, -r5, lsl #10]
    5d5c:	000001a5 	andeq	r0, r0, r5, lsr #3
    5d60:	01b81824 			; <UNDEFINED> instruction: 0x01b81824
    5d64:	86050000 	strhi	r0, [r5], -r0
    5d68:	00250f02 	eoreq	r0, r5, r2, lsl #30
    5d6c:	18480000 	stmdane	r8, {}^	; <UNPREDICTABLE>
    5d70:	000003bf 			; <UNDEFINED> instruction: 0x000003bf
    5d74:	2c028705 	stccs	7, cr8, [r2], {5}
    5d78:	00000064 	andeq	r0, r0, r4, rrx
    5d7c:	05111850 	ldreq	r1, [r1, #-2128]	; 0xfffff7b0
    5d80:	88050000 	stmdahi	r5, {}	; <UNPREDICTABLE>
    5d84:	06a01a02 	strteq	r1, [r0], r2, lsl #20
    5d88:	18580000 	ldmdane	r8, {}^	; <UNPREDICTABLE>
    5d8c:	000003ca 	andeq	r0, r0, sl, asr #7
    5d90:	16028905 	strne	r8, [r2], -r5, lsl #18
    5d94:	000000fd 	strdeq	r0, [r0], -sp
    5d98:	05161868 	ldreq	r1, [r6, #-2152]	; 0xfffff798
    5d9c:	8a050000 	bhi	145da4 <__bss_end__+0x13bd44>
    5da0:	00fd1602 	rscseq	r1, sp, r2, lsl #12
    5da4:	18700000 	ldmdane	r0!, {}^	; <UNPREDICTABLE>
    5da8:	000002ce 	andeq	r0, r0, lr, asr #5
    5dac:	16028b05 	strne	r8, [r2], -r5, lsl #22
    5db0:	000000fd 	strdeq	r0, [r0], -sp
    5db4:	04c61878 	strbeq	r1, [r6], #2168	; 0x878
    5db8:	8c050000 	stchi	0, cr0, [r5], {-0}
    5dbc:	080e1002 	stmdaeq	lr, {r1, ip}
    5dc0:	18800000 	stmne	r0, {}	; <UNPREDICTABLE>
    5dc4:	0000023e 	andeq	r0, r0, lr, lsr r2
    5dc8:	10028d05 	andne	r8, r2, r5, lsl #26
    5dcc:	0000081e 	andeq	r0, r0, lr, lsl r8
    5dd0:	04701888 	ldrbteq	r1, [r0], #-2184	; 0xfffff778
    5dd4:	8e050000 	cdphi	0, 0, cr0, cr5, cr0, {0}
    5dd8:	00250f02 	eoreq	r0, r5, r2, lsl #30
    5ddc:	18a00000 	stmiane	r0!, {}	; <UNPREDICTABLE>
    5de0:	0000017e 	andeq	r0, r0, lr, ror r1
    5de4:	16028f05 	strne	r8, [r2], -r5, lsl #30
    5de8:	000000fd 	strdeq	r0, [r0], -sp
    5dec:	008f18a4 	addeq	r1, pc, r4, lsr #17
    5df0:	90050000 	andls	r0, r5, r0
    5df4:	00fd1602 	rscseq	r1, sp, r2, lsl #12
    5df8:	18ac0000 	stmiane	ip!, {}	; <UNPREDICTABLE>
    5dfc:	0000016d 	andeq	r0, r0, sp, ror #2
    5e00:	16029105 	strne	r9, [r2], -r5, lsl #2
    5e04:	000000fd 	strdeq	r0, [r0], -sp
    5e08:	003c18b4 	ldrhteq	r1, [ip], -r4
    5e0c:	92050000 	andls	r0, r5, #0
    5e10:	00fd1602 	rscseq	r1, sp, r2, lsl #12
    5e14:	18bc0000 	ldmne	ip!, {}	; <UNPREDICTABLE>
    5e18:	0000004b 	andeq	r0, r0, fp, asr #32
    5e1c:	16029305 	strne	r9, [r2], -r5, lsl #6
    5e20:	000000fd 	strdeq	r0, [r0], -sp
    5e24:	036e18c4 	cmneq	lr, #196, 16	; 0xc40000
    5e28:	94050000 	strls	r0, [r5], #-0
    5e2c:	00250802 	eoreq	r0, r5, r2, lsl #16
    5e30:	00cc0000 	sbceq	r0, ip, r0
    5e34:	00011d0a 	andeq	r1, r1, sl, lsl #26
    5e38:	00080e00 	andeq	r0, r8, r0, lsl #28
    5e3c:	002c0b00 	eoreq	r0, ip, r0, lsl #22
    5e40:	00190000 	andseq	r0, r9, r0
    5e44:	00011d0a 	andeq	r1, r1, sl, lsl #26
    5e48:	00081e00 	andeq	r1, r8, r0, lsl #28
    5e4c:	002c0b00 	eoreq	r0, ip, r0, lsl #22
    5e50:	00070000 	andeq	r0, r7, r0
    5e54:	00011d0a 	andeq	r1, r1, sl, lsl #26
    5e58:	00082e00 	andeq	r2, r8, r0, lsl #28
    5e5c:	002c0b00 	eoreq	r0, ip, r0, lsl #22
    5e60:	00170000 	andseq	r0, r7, r0
    5e64:	9905f01b 	stmdbls	r5, {r0, r1, r3, r4, ip, sp, lr, pc}
    5e68:	08550702 	ldmdaeq	r5, {r1, r8, r9, sl}^
    5e6c:	9a180000 	bls	605e74 <__bss_end__+0x5fbe14>
    5e70:	05000002 	streq	r0, [r0, #-2]
    5e74:	551b029c 	ldrpl	r0, [fp, #-668]	; 0xfffffd64
    5e78:	00000008 	andeq	r0, r0, r8
    5e7c:	0004bd18 	andeq	fp, r4, r8, lsl sp
    5e80:	029d0500 	addseq	r0, sp, #0, 10
    5e84:	00086518 	andeq	r6, r8, r8, lsl r5
    5e88:	0a007800 	beq	23e90 <__bss_end__+0x19e30>
    5e8c:	00000305 	andeq	r0, r0, r5, lsl #6
    5e90:	00000865 	andeq	r0, r0, r5, ror #16
    5e94:	00002c0b 	andeq	r2, r0, fp, lsl #24
    5e98:	0a001d00 	beq	d2a0 <__bss_end__+0x3240>
    5e9c:	0000002c 	andeq	r0, r0, ip, lsr #32
    5ea0:	00000875 	andeq	r0, r0, r5, ror r8
    5ea4:	00002c0b 	andeq	r2, r0, fp, lsl #24
    5ea8:	1c001d00 	stcne	13, cr1, [r0], {-0}
    5eac:	027e05f0 	rsbseq	r0, lr, #240, 10	; 0x3c000000
    5eb0:	00089a03 	andeq	r9, r8, r3, lsl #20
    5eb4:	040c1d00 	streq	r1, [ip], #-3328	; 0xfffff300
    5eb8:	95050000 	strls	r0, [r5, #-0]
    5ebc:	06e90b02 	strbteq	r0, [r9], r2, lsl #22
    5ec0:	e81d0000 	ldmda	sp, {}	; <UNPREDICTABLE>
    5ec4:	05000004 	streq	r0, [r0, #-4]
    5ec8:	2e0b029e 	mcrcs	2, 0, r0, cr11, cr14, {4}
    5ecc:	00000008 	andeq	r0, r0, r8
    5ed0:	00011d0a 	andeq	r1, r1, sl, lsl #26
    5ed4:	0008aa00 	andeq	sl, r8, r0, lsl #20
    5ed8:	002c0b00 	eoreq	r0, ip, r0, lsl #22
    5edc:	00180000 	andseq	r0, r8, r0
    5ee0:	00008406 	andeq	r8, r0, r6, lsl #8
    5ee4:	aa040500 	bge	1072ec <__bss_end__+0xfd28c>
    5ee8:	1e000008 	cdpne	0, 0, cr0, cr0, cr8, {0}
    5eec:	000008c0 	andeq	r0, r0, r0, asr #17
    5ef0:	00046c16 	andeq	r6, r4, r6, lsl ip
    5ef4:	04050000 	streq	r0, [r5], #-0
    5ef8:	000008b5 			; <UNDEFINED> instruction: 0x000008b5
    5efc:	018f0405 	orreq	r0, pc, r5, lsl #8
    5f00:	d71e0000 	ldrle	r0, [lr, -r0]
    5f04:	16000008 	strne	r0, [r0], -r8
    5f08:	00000025 	andeq	r0, r0, r5, lsr #32
    5f0c:	dd040500 	cfstr32le	mvfx0, [r4, #-0]
    5f10:	05000008 	streq	r0, [r0, #-8]
    5f14:	0008cc04 	andeq	ip, r8, r4, lsl #24
    5f18:	064e0a00 	strbeq	r0, [lr], -r0, lsl #20
    5f1c:	08f30000 	ldmeq	r3!, {}^	; <UNPREDICTABLE>
    5f20:	2c0b0000 	stccs	0, cr0, [fp], {-0}
    5f24:	02000000 	andeq	r0, r0, #0
    5f28:	04841f00 	streq	r1, [r4], #3840	; 0xf00
    5f2c:	2e050000 	cdpcs	0, 0, cr0, cr5, cr0, {0}
    5f30:	046c1703 	strbteq	r1, [ip], #-1795	; 0xfffff8fd
    5f34:	7d1f0000 	ldcvc	0, cr0, [pc, #-0]	; 5f3c <_start-0x20c4>
    5f38:	05000004 	streq	r0, [r0, #-4]
    5f3c:	721d032f 	andsvc	r0, sp, #-1140850688	; 0xbc000000
    5f40:	15000004 	strne	r0, [r0, #-4]
    5f44:	00000025 	andeq	r0, r0, r5, lsr #32
    5f48:	0000091c 	andeq	r0, r0, ip, lsl r9
    5f4c:	00002516 	andeq	r2, r0, r6, lsl r5
    5f50:	d1200000 			; <UNDEFINED> instruction: 0xd1200000
    5f54:	06000001 	streq	r0, [r0], -r1
    5f58:	09280e1d 	stmdbeq	r8!, {r0, r2, r3, r4, r9, sl, fp}
    5f5c:	04050000 	streq	r0, [r5], #-0
    5f60:	0000090d 	andeq	r0, r0, sp, lsl #18
    5f64:	00002515 	andeq	r2, r0, r5, lsl r5
    5f68:	00093d00 	andeq	r3, r9, r0, lsl #26
    5f6c:	05e41600 	strbeq	r1, [r4, #1536]!	; 0x600
    5f70:	20000000 	andcs	r0, r0, r0
    5f74:	00000773 	andeq	r0, r0, r3, ror r7
    5f78:	490e2206 	stmdbmi	lr, {r1, r2, r9, sp}
    5f7c:	05000009 	streq	r0, [r0, #-9]
    5f80:	00092e04 	andeq	r2, r9, r4, lsl #28
    5f84:	078e2100 	streq	r2, [lr, r0, lsl #2]
    5f88:	08010000 	stmdaeq	r1, {}	; <UNPREDICTABLE>
    5f8c:	00005617 	andeq	r5, r0, r7, lsl r6
    5f90:	98030500 	stmdals	r3, {r8, sl}
    5f94:	22000096 	andcs	r0, r0, #150	; 0x96
    5f98:	00746962 	rsbseq	r6, r4, r2, ror #18
    5f9c:	2c110901 			; <UNDEFINED> instruction: 0x2c110901
    5fa0:	23000000 	movwcs	r0, #0
    5fa4:	00000784 	andeq	r0, r0, r4, lsl #15
    5fa8:	70061601 	andvc	r1, r6, r1, lsl #12
    5fac:	1800008b 	stmdane	r0, {r0, r1, r3, r7}
    5fb0:	01000000 	mrseq	r0, (UNDEF: 0)
    5fb4:	0009929c 	muleq	r9, ip, r2
    5fb8:	04142400 	ldreq	r2, [r4], #-1024	; 0xfffffc00
    5fbc:	16010000 	strne	r0, [r1], -r0
    5fc0:	00002c19 	andeq	r2, r0, r9, lsl ip
    5fc4:	00500100 	subseq	r0, r0, r0, lsl #2
    5fc8:	00049025 	andeq	r9, r4, r5, lsr #32
    5fcc:	0f110100 	svceq	0x00110100
    5fd0:	0000005d 	andeq	r0, r0, sp, asr r0
    5fd4:	00008b58 	andeq	r8, r0, r8, asr fp
    5fd8:	00000018 	andeq	r0, r0, r8, lsl r0
    5fdc:	09bf9c01 	ldmibeq	pc!, {r0, sl, fp, ip, pc}	; <UNPREDICTABLE>
    5fe0:	60260000 	eorvs	r0, r6, r0
    5fe4:	bf00008b 	svclt	0x0000008b
    5fe8:	26000009 	strcs	r0, [r0], -r9
    5fec:	00008b68 	andeq	r8, r0, r8, ror #22
    5ff0:	000009bf 			; <UNDEFINED> instruction: 0x000009bf
    5ff4:	07932700 	ldreq	r2, [r3, r0, lsl #14]
    5ff8:	0b010000 	bleq	46000 <__bss_end__+0x3bfa0>
    5ffc:	00005610 	andeq	r5, r0, r0, lsl r6
    6000:	008b2c00 	addeq	r2, fp, r0, lsl #24
    6004:	00002c00 	andeq	r2, r0, r0, lsl #24
    6008:	009c0100 	addseq	r0, ip, r0, lsl #2
    600c:	00000fa0 	andeq	r0, r0, r0, lsr #31
    6010:	12e40004 	rscne	r0, r4, #4
    6014:	01040000 	mrseq	r0, (UNDEF: 4)
    6018:	000002ef 	andeq	r0, r0, pc, ror #5
    601c:	0007ae0c 	andeq	sl, r7, ip, lsl #28
    6020:	0006cc00 	andeq	ip, r6, r0, lsl #24
    6024:	008b8800 	addeq	r8, fp, r0, lsl #16
    6028:	00052000 	andeq	r2, r5, r0
    602c:	000ff700 	andeq	pc, pc, r0, lsl #14
    6030:	05040200 	streq	r0, [r4, #-512]	; 0xfffffe00
    6034:	00746e69 	rsbseq	r6, r4, r9, ror #28
    6038:	66070403 	strvs	r0, [r7], -r3, lsl #8
    603c:	03000000 	movweq	r0, #0
    6040:	02de0601 	sbcseq	r0, lr, #1048576	; 0x100000
    6044:	02030000 	andeq	r0, r3, #0
    6048:	00037705 	andeq	r7, r3, r5, lsl #14
    604c:	05040300 	streq	r0, [r4, #-768]	; 0xfffffd00
    6050:	000000ac 	andeq	r0, r0, ip, lsr #1
    6054:	a7050803 	strge	r0, [r5, -r3, lsl #16]
    6058:	03000000 	movweq	r0, #0
    605c:	02dc0801 	sbcseq	r0, ip, #65536	; 0x10000
    6060:	02030000 	andeq	r0, r3, #0
    6064:	00022207 	andeq	r2, r2, r7, lsl #4
    6068:	07040300 	streq	r0, [r4, -r0, lsl #6]
    606c:	00000061 	andeq	r0, r0, r1, rrx
    6070:	5c070803 	stcpl	8, cr0, [r7], {3}
    6074:	04000000 	streq	r0, [r0], #-0
    6078:	00000265 	andeq	r0, r0, r5, ror #4
    607c:	77192202 	ldrvc	r2, [r9, -r2, lsl #4]
    6080:	05000000 	streq	r0, [r0, #-0]
    6084:	00007d04 	andeq	r7, r0, r4, lsl #26
    6088:	04210600 	strteq	r0, [r1], #-1536	; 0xfffffa00
    608c:	bd040000 	stclt	0, cr0, [r4, #-0]
    6090:	03000002 	movweq	r0, #2
    6094:	00410e2c 	subeq	r0, r1, ip, lsr #28
    6098:	36040000 	strcc	r0, [r4], -r0
    609c:	03000004 	movweq	r0, #4
    60a0:	00410e72 	subeq	r0, r1, r2, ror lr
    60a4:	6d070000 	stcvs	0, cr0, [r7, #-0]
    60a8:	04000002 	streq	r0, [r0], #-2
    60ac:	2c17015e 	ldfcss	f0, [r7], {94}	; 0x5e
    60b0:	08000000 	stmdaeq	r0, {}	; <UNPREDICTABLE>
    60b4:	03a60304 			; <UNDEFINED> instruction: 0x03a60304
    60b8:	000000c9 	andeq	r0, r0, r9, asr #1
    60bc:	00025f09 	andeq	r5, r2, r9, lsl #30
    60c0:	0ca80300 	stceq	3, cr0, [r8]
    60c4:	0000009a 	muleq	r0, sl, r0
    60c8:	0001e209 	andeq	lr, r1, r9, lsl #4
    60cc:	13a90300 			; <UNDEFINED> instruction: 0x13a90300
    60d0:	000000c9 	andeq	r0, r0, r9, asr #1
    60d4:	004f0a00 	subeq	r0, pc, r0, lsl #20
    60d8:	00d90000 	sbcseq	r0, r9, r0
    60dc:	2c0b0000 	stccs	0, cr0, [fp], {-0}
    60e0:	03000000 	movweq	r0, #0
    60e4:	03080c00 	movweq	r0, #35840	; 0x8c00
    60e8:	00fd09a3 	rscseq	r0, sp, r3, lsr #19
    60ec:	190d0000 	stmdbne	sp, {}	; <UNPREDICTABLE>
    60f0:	03000004 	movweq	r0, #4
    60f4:	002507a5 	eoreq	r0, r5, r5, lsr #15
    60f8:	0d000000 	stceq	0, cr0, [r0, #-0]
    60fc:	00000428 	andeq	r0, r0, r8, lsr #8
    6100:	a705aa03 	strge	sl, [r5, -r3, lsl #20]
    6104:	04000000 	streq	r0, [r0], #-0
    6108:	03a30400 			; <UNDEFINED> instruction: 0x03a30400
    610c:	ab030000 	blge	c6114 <__bss_end__+0xbc0b4>
    6110:	0000d903 	andeq	sp, r0, r3, lsl #18
    6114:	019f0400 	orrseq	r0, pc, r0, lsl #8
    6118:	af030000 	svcge	0x00030000
    611c:	00006b1b 	andeq	r6, r0, fp, lsl fp
    6120:	05040e00 	streq	r0, [r4, #-3584]	; 0xfffff200
    6124:	00011d04 	andeq	r1, r1, r4, lsl #26
    6128:	08010300 	stmdaeq	r1, {r8, r9}
    612c:	000002e5 	andeq	r0, r0, r5, ror #5
    6130:	00011d0f 	andeq	r1, r1, pc, lsl #26
    6134:	04680400 	strbteq	r0, [r8], #-1024	; 0xfffffc00
    6138:	16050000 	strne	r0, [r5], -r0
    613c:	00005d19 	andeq	r5, r0, r9, lsl sp
    6140:	01b01000 	movseq	r1, r0
    6144:	05180000 	ldreq	r0, [r8, #-0]
    6148:	018f082f 	orreq	r0, pc, pc, lsr #16
    614c:	c40d0000 	strgt	r0, [sp], #-0
    6150:	05000003 	streq	r0, [r0, #-3]
    6154:	018f1331 	orreq	r1, pc, r1, lsr r3	; <UNPREDICTABLE>
    6158:	11000000 	mrsne	r0, (UNDEF: 0)
    615c:	05006b5f 	streq	r6, [r0, #-2911]	; 0xfffff4a1
    6160:	00250732 	eoreq	r0, r5, r2, lsr r7
    6164:	0d040000 	stceq	0, cr0, [r4, #-0]
    6168:	00000404 	andeq	r0, r0, r4, lsl #8
    616c:	250b3205 	strcs	r3, [fp, #-517]	; 0xfffffdfb
    6170:	08000000 	stmdaeq	r0, {}	; <UNPREDICTABLE>
    6174:	0001990d 	andeq	r9, r1, sp, lsl #18
    6178:	14320500 	ldrtne	r0, [r2], #-1280	; 0xfffffb00
    617c:	00000025 	andeq	r0, r0, r5, lsr #32
    6180:	04a80d0c 	strteq	r0, [r8], #3340	; 0xd0c
    6184:	32050000 	andcc	r0, r5, #0
    6188:	0000251b 	andeq	r2, r0, fp, lsl r5
    618c:	5f111000 	svcpl	0x00111000
    6190:	33050078 	movwcc	r0, #20600	; 0x5078
    6194:	0001950b 	andeq	r9, r1, fp, lsl #10
    6198:	05001400 	streq	r1, [r0, #-1024]	; 0xfffffc00
    619c:	00013504 	andeq	r3, r1, r4, lsl #10
    61a0:	01290a00 			; <UNDEFINED> instruction: 0x01290a00
    61a4:	01a50000 			; <UNDEFINED> instruction: 0x01a50000
    61a8:	2c0b0000 	stccs	0, cr0, [fp], {-0}
    61ac:	00000000 	andeq	r0, r0, r0
    61b0:	01dd1000 	bicseq	r1, sp, r0
    61b4:	05240000 	streq	r0, [r4, #-0]!
    61b8:	02280837 	eoreq	r0, r8, #3604480	; 0x370000
    61bc:	9e0d0000 	cdpls	0, 0, cr0, cr13, cr0, {0}
    61c0:	05000000 	streq	r0, [r0, #-0]
    61c4:	00250939 	eoreq	r0, r5, r9, lsr r9
    61c8:	0d000000 	stceq	0, cr0, [r0, #-0]
    61cc:	0000043e 	andeq	r0, r0, lr, lsr r4
    61d0:	25093a05 	strcs	r3, [r9, #-2565]	; 0xfffff5fb
    61d4:	04000000 	streq	r0, [r0], #-0
    61d8:	0000c10d 	andeq	ip, r0, sp, lsl #2
    61dc:	093b0500 	ldmdbeq	fp!, {r8, sl}
    61e0:	00000025 	andeq	r0, r0, r5, lsr #32
    61e4:	05330d08 	ldreq	r0, [r3, #-3336]!	; 0xfffff2f8
    61e8:	3c050000 	stccc	0, cr0, [r5], {-0}
    61ec:	00002509 	andeq	r2, r0, r9, lsl #10
    61f0:	a10d0c00 	tstge	sp, r0, lsl #24
    61f4:	05000002 	streq	r0, [r0, #-2]
    61f8:	0025093d 	eoreq	r0, r5, sp, lsr r9
    61fc:	0d100000 	ldceq	0, cr0, [r0, #-0]
    6200:	00000283 	andeq	r0, r0, r3, lsl #5
    6204:	25093e05 	strcs	r3, [r9, #-3589]	; 0xfffff1fb
    6208:	14000000 	strne	r0, [r0], #-0
    620c:	0004ad0d 	andeq	sl, r4, sp, lsl #26
    6210:	093f0500 	ldmdbeq	pc!, {r8, sl}	; <UNPREDICTABLE>
    6214:	00000025 	andeq	r0, r0, r5, lsr #32
    6218:	05290d18 	streq	r0, [r9, #-3352]!	; 0xfffff2e8
    621c:	40050000 	andmi	r0, r5, r0
    6220:	00002509 	andeq	r2, r0, r9, lsl #10
    6224:	f00d1c00 			; <UNDEFINED> instruction: 0xf00d1c00
    6228:	05000004 	streq	r0, [r0, #-4]
    622c:	00250941 	eoreq	r0, r5, r1, asr #18
    6230:	00200000 	eoreq	r0, r0, r0
    6234:	00010112 	andeq	r0, r1, r2, lsl r1
    6238:	05010800 	streq	r0, [r1, #-2048]	; 0xfffff800
    623c:	026d084a 	rsbeq	r0, sp, #4849664	; 0x4a0000
    6240:	8c0d0000 	stchi	0, cr0, [sp], {-0}
    6244:	05000001 	streq	r0, [r0, #-1]
    6248:	026d0a4b 	rsbeq	r0, sp, #307200	; 0x4b000
    624c:	0d000000 	stceq	0, cr0, [r0, #-0]
    6250:	00000000 	andeq	r0, r0, r0
    6254:	6d094c05 	stcvs	12, cr4, [r9, #-20]	; 0xffffffec
    6258:	80000002 	andhi	r0, r0, r2
    625c:	00045a13 	andeq	r5, r4, r3, lsl sl
    6260:	0a4e0500 	beq	1387668 <__bss_end__+0x137d608>
    6264:	00000129 	andeq	r0, r0, r9, lsr #2
    6268:	26130100 	ldrcs	r0, [r3], -r0, lsl #2
    626c:	05000001 	streq	r0, [r0, #-1]
    6270:	01290a51 			; <UNDEFINED> instruction: 0x01290a51
    6274:	01040000 	mrseq	r0, (UNDEF: 4)
    6278:	01150a00 	tsteq	r5, r0, lsl #20
    627c:	027d0000 	rsbseq	r0, sp, #0
    6280:	2c0b0000 	stccs	0, cr0, [fp], {-0}
    6284:	1f000000 	svcne	0x00000000
    6288:	02aa1200 	adceq	r1, sl, #0, 4
    628c:	01900000 	orrseq	r0, r0, r0
    6290:	c0085d05 	andgt	r5, r8, r5, lsl #26
    6294:	0d000002 	stceq	0, cr0, [r0, #-8]
    6298:	000003c4 	andeq	r0, r0, r4, asr #7
    629c:	c0125e05 	andsgt	r5, r2, r5, lsl #28
    62a0:	00000002 	andeq	r0, r0, r2
    62a4:	0003dc0d 	andeq	sp, r3, sp, lsl #24
    62a8:	065f0500 	ldrbeq	r0, [pc], -r0, lsl #10
    62ac:	00000025 	andeq	r0, r0, r5, lsr #32
    62b0:	01940d04 	orrseq	r0, r4, r4, lsl #26
    62b4:	61050000 	mrsvs	r0, (UNDEF: 5)
    62b8:	0002c609 	andeq	ip, r2, r9, lsl #12
    62bc:	010d0800 	tsteq	sp, r0, lsl #16
    62c0:	05000001 	streq	r0, [r0, #-1]
    62c4:	02281e62 	eoreq	r1, r8, #1568	; 0x620
    62c8:	00880000 	addeq	r0, r8, r0
    62cc:	027d0405 	rsbseq	r0, sp, #83886080	; 0x5000000
    62d0:	d60a0000 	strle	r0, [sl], -r0
    62d4:	d6000002 	strle	r0, [r0], -r2
    62d8:	0b000002 	bleq	62e8 <_start-0x1d18>
    62dc:	0000002c 	andeq	r0, r0, ip, lsr #32
    62e0:	0405001f 	streq	r0, [r5], #-31	; 0xffffffe1
    62e4:	000002dc 	ldrdeq	r0, [r0], -ip
    62e8:	038f1014 	orreq	r1, pc, #20
    62ec:	05080000 	streq	r0, [r8, #-0]
    62f0:	03050875 	movweq	r0, #22645	; 0x5875
    62f4:	bb0d0000 	bllt	3462fc <__bss_end__+0x33c29c>
    62f8:	05000000 	streq	r0, [r0, #-0]
    62fc:	03051176 	movweq	r1, #20854	; 0x5176
    6300:	0d000000 	stceq	0, cr0, [r0, #-0]
    6304:	0000001b 	andeq	r0, r0, fp, lsl r0
    6308:	25067705 	strcs	r7, [r6, #-1797]	; 0xfffff8fb
    630c:	04000000 	streq	r0, [r0], #-0
    6310:	4f040500 	svcmi	0x00040500
    6314:	10000000 	andne	r0, r0, r0
    6318:	000003ae 	andeq	r0, r0, lr, lsr #7
    631c:	08b50568 	ldmeq	r5!, {r3, r5, r6, r8, sl}
    6320:	0000044e 	andeq	r0, r0, lr, asr #8
    6324:	00705f11 	rsbseq	r5, r0, r1, lsl pc
    6328:	0512b605 	ldreq	fp, [r2, #-1541]	; 0xfffff9fb
    632c:	00000003 	andeq	r0, r0, r3
    6330:	00725f11 	rsbseq	r5, r2, r1, lsl pc
    6334:	2507b705 	strcs	fp, [r7, #-1797]	; 0xfffff8fb
    6338:	04000000 	streq	r0, [r0], #-0
    633c:	00775f11 	rsbseq	r5, r7, r1, lsl pc
    6340:	2507b805 	strcs	fp, [r7, #-2053]	; 0xfffff7fb
    6344:	08000000 	stmdaeq	r0, {}	; <UNPREDICTABLE>
    6348:	00011f0d 	andeq	r1, r1, sp, lsl #30
    634c:	09b90500 	ldmibeq	r9!, {r8, sl}
    6350:	0000003a 	andeq	r0, r0, sl, lsr r0
    6354:	02080d0c 	andeq	r0, r8, #12, 26	; 0x300
    6358:	ba050000 	blt	146360 <__bss_end__+0x13c300>
    635c:	00003a09 	andeq	r3, r0, r9, lsl #20
    6360:	5f110e00 	svcpl	0x00110e00
    6364:	05006662 	streq	r6, [r0, #-1634]	; 0xfffff99e
    6368:	02dd11bb 	sbcseq	r1, sp, #-1073741778	; 0xc000002e
    636c:	0d100000 	ldceq	0, cr0, [r0, #-0]
    6370:	0000007b 	andeq	r0, r0, fp, ror r0
    6374:	2507bc05 	strcs	fp, [r7, #-3077]	; 0xfffff3fb
    6378:	18000000 	stmdane	r0, {}	; <UNPREDICTABLE>
    637c:	00010f0d 	andeq	r0, r1, sp, lsl #30
    6380:	0ac30500 	beq	ff0c7788 <__bss_end__+0xff0bd728>
    6384:	00000115 	andeq	r0, r0, r5, lsl r1
    6388:	0b590d1c 	bleq	1649800 <__bss_end__+0x163f7a0>
    638c:	c5050000 	strgt	r0, [r5, #-0]
    6390:	0005c01d 	andeq	ip, r5, sp, lsl r0
    6394:	1d0d2000 	stcne	0, cr2, [sp, #-0]
    6398:	05000006 	streq	r0, [r0, #-6]
    639c:	05ea1dc7 	strbeq	r1, [sl, #3527]!	; 0xdc7
    63a0:	0d240000 	stceq	0, cr0, [r4, #-0]
    63a4:	00000430 	andeq	r0, r0, r0, lsr r4
    63a8:	0e0dca05 	vmlaeq.f32	s24, s26, s10
    63ac:	28000006 	stmdacs	r0, {r1, r2}
    63b0:	00050a0d 	andeq	r0, r5, sp, lsl #20
    63b4:	09cb0500 	stmibeq	fp, {r8, sl}^
    63b8:	00000628 	andeq	r0, r0, r8, lsr #12
    63bc:	755f112c 	ldrbvc	r1, [pc, #-300]	; 6298 <_start-0x1d68>
    63c0:	ce050062 	cdpgt	0, 0, cr0, cr5, cr2, {3}
    63c4:	0002dd11 	andeq	sp, r2, r1, lsl sp
    63c8:	5f113000 	svcpl	0x00113000
    63cc:	05007075 	streq	r7, [r0, #-117]	; 0xffffff8b
    63d0:	030512cf 	movweq	r1, #21199	; 0x52cf
    63d4:	11380000 	teqne	r8, r0
    63d8:	0072755f 	rsbseq	r7, r2, pc, asr r5
    63dc:	2507d005 	strcs	sp, [r7, #-5]
    63e0:	3c000000 	stccc	0, cr0, [r0], {-0}
    63e4:	0000b50d 	andeq	fp, r0, sp, lsl #10
    63e8:	11d30500 	bicsne	r0, r3, r0, lsl #10
    63ec:	0000062e 	andeq	r0, r0, lr, lsr #12
    63f0:	04e20d40 	strbteq	r0, [r2], #3392	; 0xd40
    63f4:	d4050000 	strle	r0, [r5], #-0
    63f8:	00063e11 	andeq	r3, r6, r1, lsl lr
    63fc:	5f114300 	svcpl	0x00114300
    6400:	0500626c 	streq	r6, [r0, #-620]	; 0xfffffd94
    6404:	02dd11d7 	sbcseq	r1, sp, #-1073741771	; 0xc0000035
    6408:	0d440000 	stcleq	0, cr0, [r4, #-0]
    640c:	0000013d 	andeq	r0, r0, sp, lsr r1
    6410:	2507da05 	strcs	sp, [r7, #-2565]	; 0xfffff5fb
    6414:	4c000000 	stcmi	0, cr0, [r0], {-0}
    6418:	00014e0d 	andeq	r4, r1, sp, lsl #28
    641c:	0adb0500 	beq	ff6c7824 <__bss_end__+0xff6bd7c4>
    6420:	00000082 	andeq	r0, r0, r2, lsl #1
    6424:	0afa0d50 	beq	ffe8996c <__bss_end__+0xffe7f90c>
    6428:	de050000 	cdple	0, 0, cr0, cr5, cr0, {0}
    642c:	00046c12 	andeq	r6, r4, r2, lsl ip
    6430:	220d5400 	andcs	r5, sp, #0, 8
    6434:	05000004 	streq	r0, [r0, #-4]
    6438:	01090ce2 	smlatteq	r9, r2, ip, r0
    643c:	0d580000 	ldcleq	0, cr0, [r8, #-0]
    6440:	000003b6 			; <UNDEFINED> instruction: 0x000003b6
    6444:	fd0ee405 	stc2	4, cr14, [lr, #-20]	; 0xffffffec
    6448:	5c000000 	stcpl	0, cr0, [r0], {-0}
    644c:	00027b0d 	andeq	r7, r2, sp, lsl #22
    6450:	09e50500 	stmibeq	r5!, {r8, sl}^
    6454:	00000025 	andeq	r0, r0, r5, lsr #32
    6458:	25150064 	ldrcs	r0, [r5, #-100]	; 0xffffff9c
    645c:	6c000000 	stcvs	0, cr0, [r0], {-0}
    6460:	16000004 	strne	r0, [r0], -r4
    6464:	0000046c 	andeq	r0, r0, ip, ror #8
    6468:	00011516 	andeq	r1, r1, r6, lsl r5
    646c:	01171600 	tsteq	r7, r0, lsl #12
    6470:	25160000 	ldrcs	r0, [r6, #-0]
    6474:	00000000 	andeq	r0, r0, r0
    6478:	04770405 	ldrbteq	r0, [r7], #-1029	; 0xfffffbfb
    647c:	6c0f0000 	stcvs	0, cr0, [pc], {-0}
    6480:	17000004 	strne	r0, [r0, -r4]
    6484:	0000040c 	andeq	r0, r0, ip, lsl #8
    6488:	60050428 	andvs	r0, r5, r8, lsr #8
    648c:	05c00802 	strbeq	r0, [r0, #2050]	; 0x802
    6490:	70180000 	andsvc	r0, r8, r0
    6494:	05000003 	streq	r0, [r0, #-3]
    6498:	25070262 	strcs	r0, [r7, #-610]	; 0xfffffd9e
    649c:	00000000 	andeq	r0, r0, r0
    64a0:	00012e18 	andeq	r2, r1, r8, lsl lr
    64a4:	02670500 	rsbeq	r0, r7, #0, 10
    64a8:	00069a0b 	andeq	r9, r6, fp, lsl #20
    64ac:	f8180400 			; <UNDEFINED> instruction: 0xf8180400
    64b0:	05000001 	streq	r0, [r0, #-1]
    64b4:	9a140267 	bls	506e58 <__bss_end__+0x4fcdf8>
    64b8:	08000006 	stmdaeq	r0, {r1, r2}
    64bc:	0001a818 	andeq	sl, r1, r8, lsl r8
    64c0:	02670500 	rsbeq	r0, r7, #0, 10
    64c4:	00069a1e 	andeq	r9, r6, lr, lsl sl
    64c8:	d7180c00 	ldrle	r0, [r8, -r0, lsl #24]
    64cc:	05000003 	streq	r0, [r0, #-3]
    64d0:	25080269 	strcs	r0, [r8, #-617]	; 0xfffffd97
    64d4:	10000000 	andne	r0, r0, r0
    64d8:	00002918 	andeq	r2, r0, r8, lsl r9
    64dc:	026a0500 	rsbeq	r0, sl, #0, 10
    64e0:	00089a08 	andeq	r9, r8, r8, lsl #20
    64e4:	eb181400 	bl	60b4ec <__bss_end__+0x60148c>
    64e8:	05000003 	streq	r0, [r0, #-3]
    64ec:	2507026d 	strcs	r0, [r7, #-621]	; 0xfffffd93
    64f0:	30000000 	andcc	r0, r0, r0
    64f4:	000a3618 	andeq	r3, sl, r8, lsl r6
    64f8:	026e0500 	rsbeq	r0, lr, #0, 10
    64fc:	0008af16 	andeq	sl, r8, r6, lsl pc
    6500:	b2183400 	andslt	r3, r8, #0, 8
    6504:	05000002 	streq	r0, [r0, #-2]
    6508:	25070270 	strcs	r0, [r7, #-624]	; 0xfffffd90
    650c:	38000000 	stmdacc	r0, {}	; <UNPREDICTABLE>
    6510:	0003e118 	andeq	lr, r3, r8, lsl r1
    6514:	02720500 	rsbseq	r0, r2, #0, 10
    6518:	0008c00a 	andeq	ip, r8, sl
    651c:	57183c00 	ldrpl	r3, [r8, -r0, lsl #24]
    6520:	05000002 	streq	r0, [r0, #-2]
    6524:	8f130275 	svchi	0x00130275
    6528:	40000001 	andmi	r0, r0, r1
    652c:	0001c718 	andeq	ip, r1, r8, lsl r7
    6530:	02760500 	rsbseq	r0, r6, #0, 10
    6534:	00002507 	andeq	r2, r0, r7, lsl #10
    6538:	24184400 	ldrcs	r4, [r8], #-1024	; 0xfffffc00
    653c:	05000005 	streq	r0, [r0, #-5]
    6540:	8f130277 	svchi	0x00130277
    6544:	48000001 	stmdami	r0, {r0}
    6548:	0002c418 	andeq	ip, r2, r8, lsl r4
    654c:	02780500 	rsbseq	r0, r8, #0, 10
    6550:	0008c614 	andeq	ip, r8, r4, lsl r6
    6554:	00184c00 	andseq	r4, r8, r0, lsl #24
    6558:	05000002 	streq	r0, [r0, #-2]
    655c:	2507027b 	strcs	r0, [r7, #-635]	; 0xfffffd85
    6560:	50000000 	andpl	r0, r0, r0
    6564:	00014618 	andeq	r4, r1, r8, lsl r6
    6568:	027c0500 	rsbseq	r0, ip, #0, 10
    656c:	00011709 	andeq	r1, r1, r9, lsl #14
    6570:	ea185400 	b	61b578 <__bss_end__+0x611518>
    6574:	05000002 	streq	r0, [r0, #-2]
    6578:	7507029f 	strvc	r0, [r7, #-671]	; 0xfffffd61
    657c:	58000008 	stmdapl	r0, {r3}
    6580:	0002aa19 	andeq	sl, r2, r9, lsl sl
    6584:	02a30500 	adceq	r0, r3, #0, 10
    6588:	0002c013 	andeq	ip, r2, r3, lsl r0
    658c:	19014800 	stmdbne	r1, {fp, lr}
    6590:	00000235 	andeq	r0, r0, r5, lsr r2
    6594:	1202a405 	andne	sl, r2, #83886080	; 0x5000000
    6598:	0000027d 	andeq	r0, r0, sp, ror r2
    659c:	d019014c 	andsle	r0, r9, ip, asr #2
    65a0:	05000004 	streq	r0, [r0, #-4]
    65a4:	d70c02a8 	strle	r0, [ip, -r8, lsr #5]
    65a8:	dc000008 	stcle	0, cr0, [r0], {8}
    65ac:	01171902 	tsteq	r7, r2, lsl #18
    65b0:	ad050000 	stcge	0, cr0, [r5, #-0]
    65b4:	065b1002 	ldrbeq	r1, [fp], -r2
    65b8:	02e00000 	rsceq	r0, r0, #0
    65bc:	0000fc19 	andeq	pc, r0, r9, lsl ip	; <UNPREDICTABLE>
    65c0:	02af0500 	adceq	r0, pc, #0, 10
    65c4:	0008e30a 	andeq	lr, r8, sl, lsl #6
    65c8:	0002ec00 	andeq	lr, r2, r0, lsl #24
    65cc:	044e0405 	strbeq	r0, [lr], #-1029	; 0xfffffbfb
    65d0:	25150000 	ldrcs	r0, [r5, #-0]
    65d4:	e4000000 	str	r0, [r0], #-0
    65d8:	16000005 	strne	r0, [r0], -r5
    65dc:	0000046c 	andeq	r0, r0, ip, ror #8
    65e0:	00011516 	andeq	r1, r1, r6, lsl r5
    65e4:	05e41600 	strbeq	r1, [r4, #1536]!	; 0x600
    65e8:	25160000 	ldrcs	r0, [r6, #-0]
    65ec:	00000000 	andeq	r0, r0, r0
    65f0:	01240405 			; <UNDEFINED> instruction: 0x01240405
    65f4:	04050000 	streq	r0, [r5], #-0
    65f8:	000005c6 	andeq	r0, r0, r6, asr #11
    65fc:	00008e15 	andeq	r8, r0, r5, lsl lr
    6600:	00060e00 	andeq	r0, r6, r0, lsl #28
    6604:	046c1600 	strbteq	r1, [ip], #-1536	; 0xfffffa00
    6608:	15160000 	ldrne	r0, [r6, #-0]
    660c:	16000001 	strne	r0, [r0], -r1
    6610:	0000008e 	andeq	r0, r0, lr, lsl #1
    6614:	00002516 	andeq	r2, r0, r6, lsl r5
    6618:	04050000 	streq	r0, [r5], #-0
    661c:	000005f0 	strdeq	r0, [r0], -r0	; <UNPREDICTABLE>
    6620:	00002515 	andeq	r2, r0, r5, lsl r5
    6624:	00062800 	andeq	r2, r6, r0, lsl #16
    6628:	046c1600 	strbteq	r1, [ip], #-1536	; 0xfffffa00
    662c:	15160000 	ldrne	r0, [r6, #-0]
    6630:	00000001 	andeq	r0, r0, r1
    6634:	06140405 	ldreq	r0, [r4], -r5, lsl #8
    6638:	4f0a0000 	svcmi	0x000a0000
    663c:	3e000000 	cdpcc	0, 0, cr0, cr0, cr0, {0}
    6640:	0b000006 	bleq	6660 <_start-0x19a0>
    6644:	0000002c 	andeq	r0, r0, ip, lsr #32
    6648:	4f0a0002 	svcmi	0x000a0002
    664c:	4e000000 	cdpmi	0, 0, cr0, cr0, cr0, {0}
    6650:	0b000006 	bleq	6670 <_start-0x1990>
    6654:	0000002c 	andeq	r0, r0, ip, lsr #32
    6658:	9c070000 	stcls	0, cr0, [r7], {-0}
    665c:	05000003 	streq	r0, [r0, #-3]
    6660:	0b1a011f 	bleq	686ae4 <__bss_end__+0x67ca84>
    6664:	1a000003 	bne	6678 <_start-0x1988>
    6668:	000004b7 			; <UNDEFINED> instruction: 0x000004b7
    666c:	0123050c 			; <UNDEFINED> instruction: 0x0123050c
    6670:	00069408 	andeq	r9, r6, r8, lsl #8
    6674:	03c41800 	biceq	r1, r4, #0, 16
    6678:	25050000 	strcs	r0, [r5, #-0]
    667c:	06941101 	ldreq	r1, [r4], r1, lsl #2
    6680:	18000000 	stmdane	r0, {}	; <UNPREDICTABLE>
    6684:	0000021b 	andeq	r0, r0, fp, lsl r2
    6688:	07012605 	streq	r2, [r1, -r5, lsl #12]
    668c:	00000025 	andeq	r0, r0, r5, lsr #32
    6690:	03961804 	orrseq	r1, r6, #4, 16	; 0x40000
    6694:	27050000 	strcs	r0, [r5, -r0]
    6698:	069a0b01 	ldreq	r0, [sl], r1, lsl #22
    669c:	00080000 	andeq	r0, r8, r0
    66a0:	065b0405 	ldrbeq	r0, [fp], -r5, lsl #8
    66a4:	04050000 	streq	r0, [r5], #-0
    66a8:	0000064e 	andeq	r0, r0, lr, asr #12
    66ac:	0000211a 	andeq	r2, r0, sl, lsl r1
    66b0:	3f050e00 	svccc	0x00050e00
    66b4:	06d90801 	ldrbeq	r0, [r9], r1, lsl #16
    66b8:	13180000 	tstne	r8, #0
    66bc:	05000004 	streq	r0, [r0, #-4]
    66c0:	d9120140 	ldmdble	r2, {r6, r8}
    66c4:	00000006 	andeq	r0, r0, r6
    66c8:	00044718 	andeq	r4, r4, r8, lsl r7
    66cc:	01410500 	cmpeq	r1, r0, lsl #10
    66d0:	0006d912 	andeq	sp, r6, r2, lsl r9
    66d4:	63180600 	tstvs	r8, #0, 12
    66d8:	05000004 	streq	r0, [r0, #-4]
    66dc:	56120142 	ldrpl	r0, [r2], -r2, asr #2
    66e0:	0c000000 	stceq	0, cr0, [r0], {-0}
    66e4:	00560a00 	subseq	r0, r6, r0, lsl #20
    66e8:	06e90000 	strbteq	r0, [r9], r0
    66ec:	2c0b0000 	stccs	0, cr0, [fp], {-0}
    66f0:	02000000 	andeq	r0, r0, #0
    66f4:	05d01b00 	ldrbeq	r1, [r0, #2816]	; 0xb00
    66f8:	fe070280 	cdp2	2, 0, cr0, cr7, cr0, {4}
    66fc:	18000007 	stmdane	r0, {r0, r1, r2}
    6700:	0000049b 	muleq	r0, fp, r4
    6704:	18028205 	stmdane	r2, {r0, r2, r9, pc}
    6708:	0000002c 	andeq	r0, r0, ip, lsr #32
    670c:	044d1800 	strbeq	r1, [sp], #-2048	; 0xfffff800
    6710:	83050000 	movwhi	r0, #20480	; 0x5000
    6714:	01171202 	tsteq	r7, r2, lsl #4
    6718:	18040000 	stmdane	r4, {}	; <UNPREDICTABLE>
    671c:	0000024a 	andeq	r0, r0, sl, asr #4
    6720:	10028405 	andne	r8, r2, r5, lsl #8
    6724:	000007fe 	strdeq	r0, [r0], -lr
    6728:	04fb1808 	ldrbteq	r1, [fp], #2056	; 0x808
    672c:	85050000 	strhi	r0, [r5, #-0]
    6730:	01a51702 			; <UNDEFINED> instruction: 0x01a51702
    6734:	18240000 	stmdane	r4!, {}	; <UNPREDICTABLE>
    6738:	000001b8 			; <UNDEFINED> instruction: 0x000001b8
    673c:	0f028605 	svceq	0x00028605
    6740:	00000025 	andeq	r0, r0, r5, lsr #32
    6744:	03bf1848 			; <UNDEFINED> instruction: 0x03bf1848
    6748:	87050000 	strhi	r0, [r5, -r0]
    674c:	00642c02 	rsbeq	r2, r4, r2, lsl #24
    6750:	18500000 	ldmdane	r0, {}^	; <UNPREDICTABLE>
    6754:	00000511 	andeq	r0, r0, r1, lsl r5
    6758:	1a028805 	bne	a8774 <__bss_end__+0x9e714>
    675c:	000006a0 	andeq	r0, r0, r0, lsr #13
    6760:	03ca1858 	biceq	r1, sl, #88, 16	; 0x580000
    6764:	89050000 	stmdbhi	r5, {}	; <UNPREDICTABLE>
    6768:	00fd1602 	rscseq	r1, sp, r2, lsl #12
    676c:	18680000 	stmdane	r8!, {}^	; <UNPREDICTABLE>
    6770:	00000516 	andeq	r0, r0, r6, lsl r5
    6774:	16028a05 	strne	r8, [r2], -r5, lsl #20
    6778:	000000fd 	strdeq	r0, [r0], -sp
    677c:	02ce1870 	sbceq	r1, lr, #112, 16	; 0x700000
    6780:	8b050000 	blhi	146788 <__bss_end__+0x13c728>
    6784:	00fd1602 	rscseq	r1, sp, r2, lsl #12
    6788:	18780000 	ldmdane	r8!, {}^	; <UNPREDICTABLE>
    678c:	000004c6 	andeq	r0, r0, r6, asr #9
    6790:	10028c05 	andne	r8, r2, r5, lsl #24
    6794:	0000080e 	andeq	r0, r0, lr, lsl #16
    6798:	023e1880 	eorseq	r1, lr, #128, 16	; 0x800000
    679c:	8d050000 	stchi	0, cr0, [r5, #-0]
    67a0:	081e1002 	ldmdaeq	lr, {r1, ip}
    67a4:	18880000 	stmne	r8, {}	; <UNPREDICTABLE>
    67a8:	00000470 	andeq	r0, r0, r0, ror r4
    67ac:	0f028e05 	svceq	0x00028e05
    67b0:	00000025 	andeq	r0, r0, r5, lsr #32
    67b4:	017e18a0 	cmneq	lr, r0, lsr #17
    67b8:	8f050000 	svchi	0x00050000
    67bc:	00fd1602 	rscseq	r1, sp, r2, lsl #12
    67c0:	18a40000 	stmiane	r4!, {}	; <UNPREDICTABLE>
    67c4:	0000008f 	andeq	r0, r0, pc, lsl #1
    67c8:	16029005 	strne	r9, [r2], -r5
    67cc:	000000fd 	strdeq	r0, [r0], -sp
    67d0:	016d18ac 	cmneq	sp, ip, lsr #17
    67d4:	91050000 	mrsls	r0, (UNDEF: 5)
    67d8:	00fd1602 	rscseq	r1, sp, r2, lsl #12
    67dc:	18b40000 	ldmne	r4!, {}	; <UNPREDICTABLE>
    67e0:	0000003c 	andeq	r0, r0, ip, lsr r0
    67e4:	16029205 	strne	r9, [r2], -r5, lsl #4
    67e8:	000000fd 	strdeq	r0, [r0], -sp
    67ec:	004b18bc 	strheq	r1, [fp], #-140	; 0xffffff74
    67f0:	93050000 	movwls	r0, #20480	; 0x5000
    67f4:	00fd1602 	rscseq	r1, sp, r2, lsl #12
    67f8:	18c40000 	stmiane	r4, {}^	; <UNPREDICTABLE>
    67fc:	0000036e 	andeq	r0, r0, lr, ror #6
    6800:	08029405 	stmdaeq	r2, {r0, r2, sl, ip, pc}
    6804:	00000025 	andeq	r0, r0, r5, lsr #32
    6808:	1d0a00cc 	stcne	0, cr0, [sl, #-816]	; 0xfffffcd0
    680c:	0e000001 	cdpeq	0, 0, cr0, cr0, cr1, {0}
    6810:	0b000008 	bleq	6838 <_start-0x17c8>
    6814:	0000002c 	andeq	r0, r0, ip, lsr #32
    6818:	1d0a0019 	stcne	0, cr0, [sl, #-100]	; 0xffffff9c
    681c:	1e000001 	cdpne	0, 0, cr0, cr0, cr1, {0}
    6820:	0b000008 	bleq	6848 <_start-0x17b8>
    6824:	0000002c 	andeq	r0, r0, ip, lsr #32
    6828:	1d0a0007 	stcne	0, cr0, [sl, #-28]	; 0xffffffe4
    682c:	2e000001 	cdpcs	0, 0, cr0, cr0, cr1, {0}
    6830:	0b000008 	bleq	6858 <_start-0x17a8>
    6834:	0000002c 	andeq	r0, r0, ip, lsr #32
    6838:	f01b0017 			; <UNDEFINED> instruction: 0xf01b0017
    683c:	07029905 	streq	r9, [r2, -r5, lsl #18]
    6840:	00000855 	andeq	r0, r0, r5, asr r8
    6844:	00029a18 	andeq	r9, r2, r8, lsl sl
    6848:	029c0500 	addseq	r0, ip, #0, 10
    684c:	0008551b 	andeq	r5, r8, fp, lsl r5
    6850:	bd180000 	ldclt	0, cr0, [r8, #-0]
    6854:	05000004 	streq	r0, [r0, #-4]
    6858:	6518029d 	ldrvs	r0, [r8, #-669]	; 0xfffffd63
    685c:	78000008 	stmdavc	r0, {r3}
    6860:	03050a00 	movweq	r0, #23040	; 0x5a00
    6864:	08650000 	stmdaeq	r5!, {}^	; <UNPREDICTABLE>
    6868:	2c0b0000 	stccs	0, cr0, [fp], {-0}
    686c:	1d000000 	stcne	0, cr0, [r0, #-0]
    6870:	002c0a00 	eoreq	r0, ip, r0, lsl #20
    6874:	08750000 	ldmdaeq	r5!, {}^	; <UNPREDICTABLE>
    6878:	2c0b0000 	stccs	0, cr0, [fp], {-0}
    687c:	1d000000 	stcne	0, cr0, [r0, #-0]
    6880:	05f01c00 	ldrbeq	r1, [r0, #3072]!	; 0xc00
    6884:	9a03027e 	bls	c7284 <__bss_end__+0xbd224>
    6888:	1d000008 	stcne	0, cr0, [r0, #-32]	; 0xffffffe0
    688c:	0000040c 	andeq	r0, r0, ip, lsl #8
    6890:	0b029505 	bleq	abcac <__bss_end__+0xa1c4c>
    6894:	000006e9 	andeq	r0, r0, r9, ror #13
    6898:	0004e81d 	andeq	lr, r4, sp, lsl r8
    689c:	029e0500 	addseq	r0, lr, #0, 10
    68a0:	00082e0b 	andeq	r2, r8, fp, lsl #28
    68a4:	1d0a0000 	stcne	0, cr0, [sl, #-0]
    68a8:	aa000001 	bge	68b4 <_start-0x174c>
    68ac:	0b000008 	bleq	68d4 <_start-0x172c>
    68b0:	0000002c 	andeq	r0, r0, ip, lsr #32
    68b4:	84060018 	strhi	r0, [r6], #-24	; 0xffffffe8
    68b8:	05000000 	streq	r0, [r0, #-0]
    68bc:	0008aa04 	andeq	sl, r8, r4, lsl #20
    68c0:	08c01e00 	stmiaeq	r0, {r9, sl, fp, ip}^
    68c4:	6c160000 	ldcvs	0, cr0, [r6], {-0}
    68c8:	00000004 	andeq	r0, r0, r4
    68cc:	08b50405 	ldmeq	r5!, {r0, r2, sl}
    68d0:	04050000 	streq	r0, [r5], #-0
    68d4:	0000018f 	andeq	r0, r0, pc, lsl #3
    68d8:	0008d71e 	andeq	sp, r8, lr, lsl r7
    68dc:	00251600 	eoreq	r1, r5, r0, lsl #12
    68e0:	05000000 	streq	r0, [r0, #-0]
    68e4:	0008dd04 	andeq	sp, r8, r4, lsl #26
    68e8:	cc040500 	cfstr32gt	mvfx0, [r4], {-0}
    68ec:	0a000008 	beq	6914 <_start-0x16ec>
    68f0:	0000064e 	andeq	r0, r0, lr, asr #12
    68f4:	000008f3 	strdeq	r0, [r0], -r3
    68f8:	00002c0b 	andeq	r2, r0, fp, lsl #24
    68fc:	1f000200 	svcne	0x00000200
    6900:	00000484 	andeq	r0, r0, r4, lsl #9
    6904:	17032e05 	strne	r2, [r3, -r5, lsl #28]
    6908:	0000046c 	andeq	r0, r0, ip, ror #8
    690c:	00047d1f 	andeq	r7, r4, pc, lsl sp
    6910:	032f0500 			; <UNDEFINED> instruction: 0x032f0500
    6914:	0004721d 	andeq	r7, r4, sp, lsl r2
    6918:	00251500 	eoreq	r1, r5, r0, lsl #10
    691c:	091c0000 	ldmdbeq	ip, {}	; <UNPREDICTABLE>
    6920:	25160000 	ldrcs	r0, [r6, #-0]
    6924:	00000000 	andeq	r0, r0, r0
    6928:	0001d120 	andeq	sp, r1, r0, lsr #2
    692c:	0e1d0600 	cfmsub32eq	mvax0, mvfx0, mvfx13, mvfx0
    6930:	00000928 	andeq	r0, r0, r8, lsr #18
    6934:	090d0405 	stmdbeq	sp, {r0, r2, sl}
    6938:	25150000 	ldrcs	r0, [r5, #-0]
    693c:	3d000000 	stccc	0, cr0, [r0, #-0]
    6940:	16000009 	strne	r0, [r0], -r9
    6944:	000005e4 	andeq	r0, r0, r4, ror #11
    6948:	07732000 	ldrbeq	r2, [r3, -r0]!
    694c:	22060000 	andcs	r0, r6, #0
    6950:	0009490e 	andeq	r4, r9, lr, lsl #18
    6954:	2e040500 	cfsh32cs	mvfx0, mvfx4, #0
    6958:	04000009 	streq	r0, [r0], #-9
    695c:	00000711 	andeq	r0, r0, r1, lsl r7
    6960:	5b1b2807 	blpl	6d0984 <__bss_end__+0x6c6924>
    6964:	21000009 	tstcs	r0, r9
    6968:	000006fd 	strdeq	r0, [r0], -sp
    696c:	72000804 	andvc	r0, r0, #4, 16	; 0x40000
    6970:	22000009 	andcs	r0, r0, #9
    6974:	00000720 	andeq	r0, r0, r0, lsr #14
    6978:	00000115 	andeq	r0, r0, r5, lsl r1
    697c:	ff040000 			; <UNDEFINED> instruction: 0xff040000
    6980:	07000006 	streq	r0, [r0, -r6]
    6984:	094f1863 	stmdbeq	pc, {r0, r1, r5, r6, fp, ip}^	; <UNPREDICTABLE>
    6988:	07230000 	streq	r0, [r3, -r0]!
    698c:	01000007 	tsteq	r0, r7
    6990:	0025057f 	eoreq	r0, r5, pc, ror r5
    6994:	8df80000 	ldclhi	0, cr0, [r8]
    6998:	02b00000 	adcseq	r0, r0, #0
    699c:	9c010000 	stcls	0, cr0, [r1], {-0}
    69a0:	00000c0e 	andeq	r0, r0, lr, lsl #24
    69a4:	66756224 	ldrbtvs	r6, [r5], -r4, lsr #4
    69a8:	157f0100 	ldrbne	r0, [pc, #-256]!	; 68b0 <_start-0x1750>
    69ac:	00000117 	andeq	r0, r0, r7, lsl r1
    69b0:	00000ae1 	andeq	r0, r0, r1, ror #21
    69b4:	00000adb 	ldrdeq	r0, [r0], -fp
    69b8:	01006e24 	tsteq	r0, r4, lsr #28
    69bc:	00251e7f 	eoreq	r1, r5, pc, ror lr
    69c0:	0b130000 	bleq	4c69c8 <__bss_end__+0x4bc968>
    69c4:	0b0d0000 	bleq	3469cc <__bss_end__+0x33c96c>
    69c8:	66240000 	strtvs	r0, [r4], -r0
    69cc:	0100746d 	tsteq	r0, sp, ror #8
    69d0:	05e42d7f 	strbeq	r2, [r4, #3455]!	; 0xd7f
    69d4:	0b450000 	bleq	11469dc <__bss_end__+0x113c97c>
    69d8:	0b410000 	bleq	10469e0 <__bss_end__+0x103c980>
    69dc:	0a250000 	beq	9469e4 <__bss_end__+0x93c984>
    69e0:	01000001 	tsteq	r0, r1
    69e4:	09723a7f 	ldmdbeq	r2!, {r0, r1, r2, r3, r4, r5, r6, r9, fp, ip, sp}^
    69e8:	91030000 	mrsls	r0, (UNDEF: 3)
    69ec:	70267edc 	ldrdvc	r7, [r6], -ip	; <UNPREDICTABLE>
    69f0:	08800100 	stmeq	r0, {r8}
    69f4:	00000117 	andeq	r0, r0, r7, lsl r1
    69f8:	00000b77 	andeq	r0, r0, r7, ror fp
    69fc:	00000b63 	andeq	r0, r0, r3, ror #22
    6a00:	01006526 	tsteq	r0, r6, lsr #10
    6a04:	01171280 	tsteq	r7, r0, lsl #5
    6a08:	0bf90000 	bleq	ffe46a10 <__bss_end__+0xffe3c9b0>
    6a0c:	0bf50000 	bleq	ffd46a14 <__bss_end__+0xffd3c9b4>
    6a10:	0e270000 	cdpeq	0, 2, cr0, cr7, cr0, {0}
    6a14:	1e000002 	cdpne	0, 0, cr0, cr0, cr2, {0}
    6a18:	0500000c 	streq	r0, [r0, #-12]
    6a1c:	009b1803 	addseq	r1, fp, r3, lsl #16
    6a20:	8e5c2800 	cdphi	8, 5, cr2, cr12, cr0, {0}
    6a24:	02240000 	eoreq	r0, r4, #0
    6a28:	73260000 			; <UNDEFINED> instruction: 0x73260000
    6a2c:	0a8d0100 	beq	fe346e34 <__bss_end__+0xfe33cdd4>
    6a30:	00000117 	andeq	r0, r0, r7, lsl r1
    6a34:	00000c2a 	andeq	r0, r0, sl, lsr #24
    6a38:	00000c20 	andeq	r0, r0, r0, lsr #24
    6a3c:	6d756e29 	ldclvs	14, cr6, [r5, #-164]!	; 0xffffff5c
    6a40:	0d8d0100 	stfeqs	f0, [sp]
    6a44:	00000c23 	andeq	r0, r0, r3, lsr #24
    6a48:	7ee09103 	urdvcs	f1, f3
    6a4c:	0007df2a 	andeq	sp, r7, sl, lsr #30
    6a50:	0d8e0100 	stfeqs	f0, [lr]
    6a54:	0000002c 	andeq	r0, r0, ip, lsr #32
    6a58:	00000c6f 	andeq	r0, r0, pc, ror #24
    6a5c:	00000c69 	andeq	r0, r0, r9, ror #24
    6a60:	008e842b 	addeq	r8, lr, fp, lsr #8
    6a64:	000eae00 	andeq	sl, lr, r0, lsl #28
    6a68:	000a6800 	andeq	r6, sl, r0, lsl #16
    6a6c:	50012c00 	andpl	r2, r1, r0, lsl #24
    6a70:	00007502 	andeq	r7, r0, r2, lsl #10
    6a74:	008f042d 	addeq	r0, pc, sp, lsr #8
    6a78:	000f7f00 	andeq	r7, pc, r0, lsl #30
    6a7c:	8f182b00 	svchi	0x00182b00
    6a80:	0f8b0000 	svceq	0x008b0000
    6a84:	0aa00000 	beq	fe806a8c <__bss_end__+0xfe7fca2c>
    6a88:	012c0000 			; <UNDEFINED> instruction: 0x012c0000
    6a8c:	84030550 	strhi	r0, [r3], #-1360	; 0xfffffab0
    6a90:	2c00009a 	stccs	0, cr0, [r0], {154}	; 0x9a
    6a94:	03055101 	movweq	r5, #20737	; 0x5101
    6a98:	00009a20 	andeq	r9, r0, r0, lsr #20
    6a9c:	0552012c 	ldrbeq	r0, [r2, #-300]	; 0xfffffed4
    6aa0:	009b1803 	addseq	r1, fp, r3, lsl #16
    6aa4:	53012c00 	movwpl	r2, #7168	; 0x1c00
    6aa8:	00940802 	addseq	r0, r4, r2, lsl #16
    6aac:	008f1c2d 	addeq	r1, pc, sp, lsr #24
    6ab0:	000f9700 	andeq	r9, pc, r0, lsl #14
    6ab4:	8f202d00 	svchi	0x00202d00
    6ab8:	0f7f0000 	svceq	0x007f0000
    6abc:	342b0000 	strtcc	r0, [fp], #-0
    6ac0:	8b00008f 	blhi	6d04 <_start-0x12fc>
    6ac4:	e100000f 	tst	r0, pc
    6ac8:	2c00000a 	stccs	0, cr0, [r0], {10}
    6acc:	03055001 	movweq	r5, #20481	; 0x5001
    6ad0:	00009aa0 	andeq	r9, r0, r0, lsr #21
    6ad4:	0551012c 	ldrbeq	r0, [r1, #-300]	; 0xfffffed4
    6ad8:	009a2003 	addseq	r2, sl, r3
    6adc:	52012c00 	andpl	r2, r1, #0, 24
    6ae0:	9b180305 	blls	6076fc <__bss_end__+0x5fd69c>
    6ae4:	012c0000 			; <UNDEFINED> instruction: 0x012c0000
    6ae8:	9a080253 	bls	20743c <__bss_end__+0x1fd3dc>
    6aec:	8f382d00 	svchi	0x00382d00
    6af0:	0f970000 	svceq	0x00970000
    6af4:	642b0000 	strtvs	r0, [fp], #-0
    6af8:	3300008f 	movwcc	r0, #143	; 0x8f
    6afc:	1700000c 	strne	r0, [r0, -ip]
    6b00:	2c00000b 	stccs	0, cr0, [r0], {11}
    6b04:	3a015001 	bcc	5ab10 <__bss_end__+0x50ab0>
    6b08:	0351012c 	cmpeq	r1, #44, 2
    6b0c:	2c7ed891 	ldclcs	8, cr13, [lr], #-580	; 0xfffffdbc
    6b10:	08025201 	stmdaeq	r2, {r0, r9, ip, lr}
    6b14:	7d022c80 	stcvc	12, cr2, [r2, #-512]	; 0xfffffe00
    6b18:	00760200 	rsbseq	r0, r6, r0, lsl #4
    6b1c:	047d022c 	ldrbteq	r0, [sp], #-556	; 0xfffffdd4
    6b20:	2b003101 	blcs	12f2c <__bss_end__+0x8ecc>
    6b24:	00008fb4 			; <UNDEFINED> instruction: 0x00008fb4
    6b28:	00000c33 	andeq	r0, r0, r3, lsr ip
    6b2c:	00000b44 	andeq	r0, r0, r4, asr #22
    6b30:	0150012c 	cmpeq	r0, ip, lsr #2
    6b34:	51012c3a 	tstpl	r1, sl, lsr ip
    6b38:	7ed89103 	atnvce	f1, f3
    6b3c:	0252012c 	subseq	r0, r2, #44, 2
    6b40:	022c8008 	eoreq	r8, ip, #8
    6b44:	7602007d 			; <UNDEFINED> instruction: 0x7602007d
    6b48:	7d022c00 	stcvc	12, cr2, [r2, #-0]
    6b4c:	00300104 	eorseq	r0, r0, r4, lsl #2
    6b50:	008fe42b 	addeq	lr, pc, fp, lsr #8
    6b54:	000c3300 	andeq	r3, ip, r0, lsl #6
    6b58:	000b7100 	andeq	r7, fp, r0, lsl #2
    6b5c:	50012c00 	andpl	r2, r1, r0, lsl #24
    6b60:	012c4001 			; <UNDEFINED> instruction: 0x012c4001
    6b64:	d8910351 	ldmle	r1, {r0, r4, r6, r8, r9}
    6b68:	52012c7e 	andpl	r2, r1, #32256	; 0x7e00
    6b6c:	2c800802 	stccs	8, cr0, [r0], {2}
    6b70:	02007d02 	andeq	r7, r0, #2, 26	; 0x80
    6b74:	022c0076 	eoreq	r0, ip, #118	; 0x76
    6b78:	3001047d 	andcc	r0, r1, sp, ror r4
    6b7c:	90142b00 	andsls	r2, r4, r0, lsl #22
    6b80:	0c330000 	ldceq	0, cr0, [r3], #-0
    6b84:	0b9e0000 	bleq	fe786b8c <__bss_end__+0xfe77cb2c>
    6b88:	012c0000 			; <UNDEFINED> instruction: 0x012c0000
    6b8c:	2c320150 	ldfcss	f0, [r2], #-320	; 0xfffffec0
    6b90:	91035101 	tstls	r3, r1, lsl #2
    6b94:	012c7ed8 	ldrdeq	r7, [ip, -r8]!
    6b98:	80080252 	andhi	r0, r8, r2, asr r2
    6b9c:	007d022c 	rsbseq	r0, sp, ip, lsr #4
    6ba0:	2c007602 	stccs	6, cr7, [r0], {2}
    6ba4:	01047d02 	tsteq	r4, r2, lsl #26
    6ba8:	582b0030 	stmdapl	fp!, {r4, r5}
    6bac:	33000090 	movwcc	r0, #144	; 0x90
    6bb0:	cb00000c 	blgt	6be8 <_start-0x1418>
    6bb4:	2c00000b 	stccs	0, cr0, [r0], {11}
    6bb8:	38015001 	stmdacc	r1, {r0, ip, lr}
    6bbc:	0351012c 	cmpeq	r1, #44, 2
    6bc0:	2c7ed891 	ldclcs	8, cr13, [lr], #-580	; 0xfffffdbc
    6bc4:	08025201 	stmdaeq	r2, {r0, r9, ip, lr}
    6bc8:	7d022c80 	stcvc	12, cr2, [r2, #-512]	; 0xfffffe00
    6bcc:	00760200 	rsbseq	r0, r6, r0, lsl #4
    6bd0:	047d022c 	ldrbteq	r0, [sp], #-556	; 0xfffffdd4
    6bd4:	2d003001 	stccs	0, cr3, [r0, #-4]
    6bd8:	00009060 	andeq	r9, r0, r0, rrx
    6bdc:	00000f7f 	andeq	r0, r0, pc, ror pc
    6be0:	00907c2b 	addseq	r7, r0, fp, lsr #24
    6be4:	000f8b00 	andeq	r8, pc, r0, lsl #22
    6be8:	000c0300 	andeq	r0, ip, r0, lsl #6
    6bec:	50012c00 	andpl	r2, r1, r0, lsl #24
    6bf0:	9ac80305 	bls	ff20780c <__bss_end__+0xff1fd7ac>
    6bf4:	012c0000 			; <UNDEFINED> instruction: 0x012c0000
    6bf8:	20030551 	andcs	r0, r3, r1, asr r5
    6bfc:	2c00009a 	stccs	0, cr0, [r0], {154}	; 0x9a
    6c00:	03055201 	movweq	r5, #20993	; 0x5201
    6c04:	00009b18 	andeq	r9, r0, r8, lsl fp
    6c08:	0253012c 	subseq	r0, r3, #44, 2
    6c0c:	2d00bb08 	vstrcs	d11, [r0, #-32]	; 0xffffffe0
    6c10:	00009080 	andeq	r9, r0, r0, lsl #1
    6c14:	00000f97 	muleq	r0, r7, pc	; <UNPREDICTABLE>
    6c18:	240a0000 	strcs	r0, [sl], #-0
    6c1c:	1e000001 	cdpne	0, 0, cr0, cr0, cr1, {0}
    6c20:	0b00000c 	bleq	6c58 <_start-0x13a8>
    6c24:	0000002c 	andeq	r0, r0, ip, lsr #32
    6c28:	0e0f0009 	cdpeq	0, 0, cr0, cr15, cr9, {0}
    6c2c:	0a00000c 	beq	6c64 <_start-0x139c>
    6c30:	0000011d 	andeq	r0, r0, sp, lsl r1
    6c34:	00000c33 	andeq	r0, r0, r3, lsr ip
    6c38:	00002c0b 	andeq	r2, r0, fp, lsl #24
    6c3c:	2e007f00 	cdpcs	15, 0, cr7, cr0, cr0, {0}
    6c40:	00000803 	andeq	r0, r0, r3, lsl #16
    6c44:	170e4701 	strne	r4, [lr, -r1, lsl #14]
    6c48:	f8000001 			; <UNDEFINED> instruction: 0xf8000001
    6c4c:	ac00008b 	stcge	0, cr0, [r0], {139}	; 0x8b
    6c50:	01000001 	tsteq	r0, r1
    6c54:	000d999c 	muleq	sp, ip, r9
    6c58:	00bc2f00 	adcseq	r2, ip, r0, lsl #30
    6c5c:	47010000 	strmi	r0, [r1, -r0]
    6c60:	00002c1c 	andeq	r2, r0, ip, lsl ip
    6c64:	000c9f00 	andeq	r9, ip, r0, lsl #30
    6c68:	000c9900 	andeq	r9, ip, r0, lsl #18
    6c6c:	73642400 	cmnvc	r4, #0, 8
    6c70:	47010074 	smlsdxmi	r1, r4, r0, r0
    6c74:	00011728 	andeq	r1, r1, r8, lsr #14
    6c78:	000cdd00 	andeq	sp, ip, r0, lsl #26
    6c7c:	000ccd00 	andeq	ip, ip, r0, lsl #26
    6c80:	006e2400 	rsbeq	r2, lr, r0, lsl #8
    6c84:	25314701 	ldrcs	r4, [r1, #-1793]!	; 0xfffff8ff
    6c88:	41000000 	mrsmi	r0, (UNDEF: 0)
    6c8c:	3d00000d 	stccc	0, cr0, [r0, #-52]	; 0xffffffcc
    6c90:	2400000d 	strcs	r0, [r0], #-13
    6c94:	006c6176 	rsbeq	r6, ip, r6, ror r1
    6c98:	25384701 	ldrcs	r4, [r8, #-1793]!	; 0xfffff8ff
    6c9c:	69000000 	stmdbvs	r0, {}	; <UNPREDICTABLE>
    6ca0:	5f00000d 	svcpl	0x0000000d
    6ca4:	2f00000d 	svccs	0x0000000d
    6ca8:	000007df 	ldrdeq	r0, [r0], -pc	; <UNPREDICTABLE>
    6cac:	25414701 	strbcs	r4, [r1, #-1793]	; 0xfffff8ff
    6cb0:	b4000000 	strlt	r0, [r0], #-0
    6cb4:	ae00000d 	cdpge	0, 0, cr0, cr0, cr13, {0}
    6cb8:	2500000d 	strcs	r0, [r0, #-13]
    6cbc:	000007ce 	andeq	r0, r0, lr, asr #15
    6cc0:	254c4701 	strbcs	r4, [ip, #-1793]	; 0xfffff8ff
    6cc4:	02000000 	andeq	r0, r0, #0
    6cc8:	62290491 	eorvs	r0, r9, #-1862270976	; 0x91000000
    6ccc:	01006675 	tsteq	r0, r5, ror r6
    6cd0:	0d99074c 	ldceq	7, cr0, [r9, #304]	; 0x130
    6cd4:	91030000 	mrsls	r0, (UNDEF: 3)
    6cd8:	70267fa8 	eorvc	r7, r6, r8, lsr #31
    6cdc:	114c0100 	mrsne	r0, (UNDEF: 92)
    6ce0:	00000117 	andeq	r0, r0, r7, lsl r1
    6ce4:	00000dfe 	strdeq	r0, [r0], -lr
    6ce8:	00000dde 	ldrdeq	r0, [r0], -lr
    6cec:	01007526 	tsteq	r0, r6, lsr #10
    6cf0:	002c0b4d 	eoreq	r0, ip, sp, asr #22
    6cf4:	0ed30000 	cdpeq	0, 13, cr0, cr3, cr0, {0}
    6cf8:	0ec10000 	cdpeq	0, 12, cr0, cr1, cr0, {0}
    6cfc:	0e270000 	cdpeq	0, 2, cr0, cr7, cr0, {0}
    6d00:	b9000002 	stmdblt	r0, {r1}
    6d04:	0500000d 	streq	r0, [r0, #-13]
    6d08:	009b0003 	addseq	r0, fp, r3
    6d0c:	8c643000 	stclhi	0, cr3, [r4], #-0
    6d10:	00780000 	rsbseq	r0, r8, r0
    6d14:	0d230000 	stceq	0, cr0, [r3, #-0]
    6d18:	ed2a0000 	stc	0, cr0, [sl, #-0]
    6d1c:	01000007 	tsteq	r0, r7
    6d20:	002c0d52 	eoreq	r0, ip, r2, asr sp
    6d24:	0f490000 	svceq	0x00490000
    6d28:	0f410000 	svceq	0x00410000
    6d2c:	2b000000 	blcs	6d34 <_start-0x12cc>
    6d30:	00008d1c 	andeq	r8, r0, ip, lsl sp
    6d34:	00000e4b 	andeq	r0, r0, fp, asr #28
    6d38:	00000d37 	andeq	r0, r0, r7, lsr sp
    6d3c:	0251012c 	subseq	r0, r1, #44, 2
    6d40:	2b00007d 	blcs	6f3c <_start-0x10c4>
    6d44:	00008d30 	andeq	r8, r0, r0, lsr sp
    6d48:	00000dbe 			; <UNDEFINED> instruction: 0x00000dbe
    6d4c:	00000d57 	andeq	r0, r0, r7, asr sp
    6d50:	0250012c 	subseq	r0, r0, #44, 2
    6d54:	012c0075 			; <UNDEFINED> instruction: 0x012c0075
    6d58:	00740251 	rsbseq	r0, r4, r1, asr r2
    6d5c:	0253012c 	subseq	r0, r3, #44, 2
    6d60:	2d00007d 	stccs	0, cr0, [r0, #-500]	; 0xfffffe0c
    6d64:	00008d70 	andeq	r8, r0, r0, ror sp
    6d68:	00000f7f 	andeq	r0, r0, pc, ror pc
    6d6c:	008d842b 	addeq	r8, sp, fp, lsr #8
    6d70:	000f8b00 	andeq	r8, pc, r0, lsl #22
    6d74:	000d8f00 	andeq	r8, sp, r0, lsl #30
    6d78:	50012c00 	andpl	r2, r1, r0, lsl #24
    6d7c:	9a340305 	bls	d07998 <__bss_end__+0xcfd938>
    6d80:	012c0000 			; <UNDEFINED> instruction: 0x012c0000
    6d84:	20030551 	andcs	r0, r3, r1, asr r5
    6d88:	2c00009a 	stccs	0, cr0, [r0], {154}	; 0x9a
    6d8c:	03055201 	movweq	r5, #20993	; 0x5201
    6d90:	00009b00 	andeq	r9, r0, r0, lsl #22
    6d94:	0253012c 	subseq	r0, r3, #44, 2
    6d98:	2d007708 	stccs	7, cr7, [r0, #-32]	; 0xffffffe0
    6d9c:	00008d88 	andeq	r8, r0, r8, lsl #27
    6da0:	00000f97 	muleq	r0, r7, pc	; <UNPREDICTABLE>
    6da4:	011d0a00 	tsteq	sp, r0, lsl #20
    6da8:	0da90000 	stceq	0, cr0, [r9]
    6dac:	2c0b0000 	stccs	0, cr0, [fp], {-0}
    6db0:	3f000000 	svccc	0x00000000
    6db4:	01240a00 			; <UNDEFINED> instruction: 0x01240a00
    6db8:	0db90000 	ldceq	0, cr0, [r9]
    6dbc:	2c0b0000 	stccs	0, cr0, [fp], {-0}
    6dc0:	04000000 	streq	r0, [r0], #-0
    6dc4:	0da90f00 	stceq	15, cr0, [r9]
    6dc8:	d72e0000 	strle	r0, [lr, -r0]!
    6dcc:	01000007 	tsteq	r0, r7
    6dd0:	01170e37 	tsteq	r7, r7, lsr lr
    6dd4:	8bc00000 	blhi	ff006ddc <__bss_end__+0xfeffcd7c>
    6dd8:	00380000 	eorseq	r0, r8, r0
    6ddc:	9c010000 	stcls	0, cr0, [r1], {-0}
    6de0:	00000e4b 	andeq	r0, r0, fp, asr #28
    6de4:	74736424 	ldrbtvc	r6, [r3], #-1060	; 0xfffffbdc
    6de8:	1c370100 	ldfnes	f0, [r7], #-0
    6dec:	00000117 	andeq	r0, r0, r7, lsl r1
    6df0:	00000f8a 	andeq	r0, r0, sl, lsl #31
    6df4:	00000f80 	andeq	r0, r0, r0, lsl #31
    6df8:	01006e24 	tsteq	r0, r4, lsr #28
    6dfc:	00252537 	eoreq	r2, r5, r7, lsr r5
    6e00:	0fd10000 	svceq	0x00d10000
    6e04:	0fcd0000 	svceq	0x00cd0000
    6e08:	70240000 	eorvc	r0, r4, r0
    6e0c:	2e370100 	rsfcss	f0, f7, f0
    6e10:	00000117 	andeq	r0, r0, r7, lsl r1
    6e14:	00000ffa 	strdeq	r0, [r0], -sl
    6e18:	00000ff2 	strdeq	r0, [r0], -r2
    6e1c:	000c3a2f 	andeq	r3, ip, pc, lsr #20
    6e20:	37370100 	ldrcc	r0, [r7, -r0, lsl #2]!
    6e24:	00000117 	andeq	r0, r0, r7, lsl r1
    6e28:	00001034 	andeq	r1, r0, r4, lsr r0
    6e2c:	00001030 	andeq	r1, r0, r0, lsr r0
    6e30:	6e656c26 	cdpvs	12, 6, cr6, cr5, cr6, {1}
    6e34:	06390100 	ldrteq	r0, [r9], -r0, lsl #2
    6e38:	00000025 	andeq	r0, r0, r5, lsr #32
    6e3c:	0000105a 	andeq	r1, r0, sl, asr r0
    6e40:	00001052 	andeq	r1, r0, r2, asr r0
    6e44:	01007326 	tsteq	r0, r6, lsr #6
    6e48:	0117083d 	tsteq	r7, sp, lsr r8
    6e4c:	10a80000 	adcne	r0, r8, r0
    6e50:	10a60000 	adcne	r0, r6, r0
    6e54:	31000000 	mrscc	r0, (UNDEF: 0)
    6e58:	00646170 	rsbeq	r6, r4, r0, ror r1
    6e5c:	170e2e01 	strne	r2, [lr, -r1, lsl #28]
    6e60:	9c000001 	stcls	0, cr0, [r0], {1}
    6e64:	2400008b 	strcs	r0, [r0], #-139	; 0xffffff75
    6e68:	01000000 	mrseq	r0, (UNDEF: 0)
    6e6c:	000eae9c 	muleq	lr, ip, lr
    6e70:	00702400 	rsbseq	r2, r0, r0, lsl #8
    6e74:	17182e01 	ldrne	r2, [r8, -r1, lsl #28]
    6e78:	c1000001 	tstgt	r0, r1
    6e7c:	bb000010 	bllt	6ec4 <_start-0x113c>
    6e80:	2f000010 	svccs	0x00000010
    6e84:	000000bc 	strheq	r0, [r0], -ip
    6e88:	17222e01 	strne	r2, [r2, -r1, lsl #28]!
    6e8c:	f0000001 			; <UNDEFINED> instruction: 0xf0000001
    6e90:	ec000010 	stc	0, cr0, [r0], {16}
    6e94:	25000010 	strcs	r0, [r0, #-16]
    6e98:	000007df 	ldrdeq	r0, [r0], -pc	; <UNPREDICTABLE>
    6e9c:	252c2e01 	strcs	r2, [ip, #-3585]!	; 0xfffff1ff
    6ea0:	01000000 	mrseq	r0, (UNDEF: 0)
    6ea4:	656c2652 	strbvs	r2, [ip, #-1618]!	; 0xfffff9ae
    6ea8:	2f01006e 	svccs	0x0001006e
    6eac:	00002506 	andeq	r2, r0, r6, lsl #10
    6eb0:	00111300 	andseq	r1, r1, r0, lsl #6
    6eb4:	00111100 	andseq	r1, r1, r0, lsl #2
    6eb8:	fb2e0000 	blx	b86ec2 <__bss_end__+0xb7ce62>
    6ebc:	01000007 	tsteq	r0, r7
    6ec0:	00250c27 	eoreq	r0, r5, r7, lsr #24
    6ec4:	8b880000 	blhi	fe206ecc <__bss_end__+0xfe1fce6c>
    6ec8:	00140000 	andseq	r0, r4, r0
    6ecc:	9c010000 	stcls	0, cr0, [r1], {-0}
    6ed0:	00000edb 	ldrdeq	r0, [r0], -fp
    6ed4:	01006324 	tsteq	r0, r4, lsr #6
    6ed8:	00251827 	eoreq	r1, r5, r7, lsr #16
    6edc:	112c0000 			; <UNDEFINED> instruction: 0x112c0000
    6ee0:	11260000 			; <UNDEFINED> instruction: 0x11260000
    6ee4:	32000000 	andcc	r0, r0, #0
    6ee8:	000007bf 			; <UNDEFINED> instruction: 0x000007bf
    6eec:	a4061f01 	strge	r1, [r6], #-3841	; 0xfffff0ff
    6ef0:	5400008d 	strpl	r0, [r0], #-141	; 0xffffff73
    6ef4:	01000000 	mrseq	r0, (UNDEF: 0)
    6ef8:	000f6a9c 	muleq	pc, ip, sl	; <UNPREDICTABLE>
    6efc:	07f32f00 	ldrbeq	r2, [r3, r0, lsl #30]!
    6f00:	1f010000 	svcne	0x00010000
    6f04:	0009281b 	andeq	r2, r9, fp, lsl r8
    6f08:	00115e00 	andseq	r5, r1, r0, lsl #28
    6f0c:	00115a00 	andseq	r5, r1, r0, lsl #20
    6f10:	07e52f00 	strbeq	r2, [r5, r0, lsl #30]!
    6f14:	1f010000 	svcne	0x00010000
    6f18:	00094930 	andeq	r4, r9, r0, lsr r9
    6f1c:	00118300 	andseq	r8, r1, r0, lsl #6
    6f20:	00117f00 	andseq	r7, r1, r0, lsl #30
    6f24:	020e2700 	andeq	r2, lr, #0, 14
    6f28:	0f7a0000 	svceq	0x007a0000
    6f2c:	03050000 	movweq	r0, #20480	; 0x5000
    6f30:	00009b08 	andeq	r9, r0, r8, lsl #22
    6f34:	008dcc2d 	addeq	ip, sp, sp, lsr #24
    6f38:	000f7f00 	andeq	r7, pc, r0, lsl #30
    6f3c:	8de02b00 			; <UNDEFINED> instruction: 0x8de02b00
    6f40:	0f8b0000 	svceq	0x008b0000
    6f44:	0f600000 	svceq	0x00600000
    6f48:	012c0000 			; <UNDEFINED> instruction: 0x012c0000
    6f4c:	6c030550 	cfstr32vs	mvfx0, [r3], {80}	; 0x50
    6f50:	2c00009a 	stccs	0, cr0, [r0], {154}	; 0x9a
    6f54:	03055101 	movweq	r5, #20737	; 0x5101
    6f58:	00009a20 	andeq	r9, r0, r0, lsr #20
    6f5c:	0552012c 	ldrbeq	r0, [r2, #-300]	; 0xfffffed4
    6f60:	009b0803 	addseq	r0, fp, r3, lsl #16
    6f64:	53012c00 	movwpl	r2, #7168	; 0x1c00
    6f68:	00200802 	eoreq	r0, r0, r2, lsl #16
    6f6c:	008de42d 	addeq	lr, sp, sp, lsr #8
    6f70:	000f9700 	andeq	r9, pc, r0, lsl #14
    6f74:	240a0000 	strcs	r0, [sl], #-0
    6f78:	7a000001 	bvc	6f84 <_start-0x107c>
    6f7c:	0b00000f 	bleq	6fc0 <_start-0x1040>
    6f80:	0000002c 	andeq	r0, r0, ip, lsr #32
    6f84:	6a0f000e 	bvs	3c6fc4 <__bss_end__+0x3bcf64>
    6f88:	3300000f 	movwcc	r0, #15
    6f8c:	000001e9 	andeq	r0, r0, r9, ror #3
    6f90:	000001e9 	andeq	r0, r0, r9, ror #3
    6f94:	33061e06 	movwcc	r1, #28166	; 0x6e06
    6f98:	0000070a 	andeq	r0, r0, sl, lsl #14
    6f9c:	0000070a 	andeq	r0, r0, sl, lsl #14
    6fa0:	33052906 	movwcc	r2, #22790	; 0x5906
    6fa4:	0000028d 	andeq	r0, r0, sp, lsl #5
    6fa8:	0000028d 	andeq	r0, r0, sp, lsl #5
    6fac:	00066506 	andeq	r6, r6, r6, lsl #10
    6fb0:	000009ab 	andeq	r0, r0, fp, lsr #19
    6fb4:	15f10004 	ldrbne	r0, [r1, #4]!
    6fb8:	01040000 	mrseq	r0, (UNDEF: 4)
    6fbc:	000002ef 	andeq	r0, r0, pc, ror #5
    6fc0:	0008080c 	andeq	r0, r8, ip, lsl #16
    6fc4:	0006cc00 	andeq	ip, r6, r0, lsl #24
    6fc8:	0090a800 	addseq	sl, r0, r0, lsl #16
    6fcc:	00002800 	andeq	r2, r0, r0, lsl #16
    6fd0:	00150800 	andseq	r0, r5, r0, lsl #16
    6fd4:	05040200 	streq	r0, [r4, #-512]	; 0xfffffe00
    6fd8:	00746e69 	rsbseq	r6, r4, r9, ror #28
    6fdc:	66070403 	strvs	r0, [r7], -r3, lsl #8
    6fe0:	03000000 	movweq	r0, #0
    6fe4:	02de0601 	sbcseq	r0, lr, #1048576	; 0x100000
    6fe8:	02030000 	andeq	r0, r3, #0
    6fec:	00037705 	andeq	r7, r3, r5, lsl #14
    6ff0:	05040300 	streq	r0, [r4, #-768]	; 0xfffffd00
    6ff4:	000000ac 	andeq	r0, r0, ip, lsr #1
    6ff8:	a7050803 	strge	r0, [r5, -r3, lsl #16]
    6ffc:	03000000 	movweq	r0, #0
    7000:	02dc0801 	sbcseq	r0, ip, #65536	; 0x10000
    7004:	02030000 	andeq	r0, r3, #0
    7008:	00022207 	andeq	r2, r2, r7, lsl #4
    700c:	07040300 	streq	r0, [r4, -r0, lsl #6]
    7010:	00000061 	andeq	r0, r0, r1, rrx
    7014:	5c070803 	stcpl	8, cr0, [r7], {3}
    7018:	04000000 	streq	r0, [r0], #-0
    701c:	00000265 	andeq	r0, r0, r5, ror #4
    7020:	77192202 	ldrvc	r2, [r9, -r2, lsl #4]
    7024:	05000000 	streq	r0, [r0, #-0]
    7028:	00007d04 	andeq	r7, r0, r4, lsl #26
    702c:	04210600 	strteq	r0, [r1], #-1536	; 0xfffffa00
    7030:	bd040000 	stclt	0, cr0, [r4, #-0]
    7034:	03000002 	movweq	r0, #2
    7038:	00410e2c 	subeq	r0, r1, ip, lsr #28
    703c:	36040000 	strcc	r0, [r4], -r0
    7040:	03000004 	movweq	r0, #4
    7044:	00410e72 	subeq	r0, r1, r2, ror lr
    7048:	6d070000 	stcvs	0, cr0, [r7, #-0]
    704c:	04000002 	streq	r0, [r0], #-2
    7050:	2c17015e 	ldfcss	f0, [r7], {94}	; 0x5e
    7054:	08000000 	stmdaeq	r0, {}	; <UNPREDICTABLE>
    7058:	03a60304 			; <UNDEFINED> instruction: 0x03a60304
    705c:	000000c9 	andeq	r0, r0, r9, asr #1
    7060:	00025f09 	andeq	r5, r2, r9, lsl #30
    7064:	0ca80300 	stceq	3, cr0, [r8]
    7068:	0000009a 	muleq	r0, sl, r0
    706c:	0001e209 	andeq	lr, r1, r9, lsl #4
    7070:	13a90300 			; <UNDEFINED> instruction: 0x13a90300
    7074:	000000c9 	andeq	r0, r0, r9, asr #1
    7078:	004f0a00 	subeq	r0, pc, r0, lsl #20
    707c:	00d90000 	sbcseq	r0, r9, r0
    7080:	2c0b0000 	stccs	0, cr0, [fp], {-0}
    7084:	03000000 	movweq	r0, #0
    7088:	03080c00 	movweq	r0, #35840	; 0x8c00
    708c:	00fd09a3 	rscseq	r0, sp, r3, lsr #19
    7090:	190d0000 	stmdbne	sp, {}	; <UNPREDICTABLE>
    7094:	03000004 	movweq	r0, #4
    7098:	002507a5 	eoreq	r0, r5, r5, lsr #15
    709c:	0d000000 	stceq	0, cr0, [r0, #-0]
    70a0:	00000428 	andeq	r0, r0, r8, lsr #8
    70a4:	a705aa03 	strge	sl, [r5, -r3, lsl #20]
    70a8:	04000000 	streq	r0, [r0], #-0
    70ac:	03a30400 			; <UNDEFINED> instruction: 0x03a30400
    70b0:	ab030000 	blge	c70b8 <__bss_end__+0xbd058>
    70b4:	0000d903 	andeq	sp, r0, r3, lsl #18
    70b8:	019f0400 	orrseq	r0, pc, r0, lsl #8
    70bc:	af030000 	svcge	0x00030000
    70c0:	00006b1b 	andeq	r6, r0, fp, lsl fp
    70c4:	05040e00 	streq	r0, [r4, #-3584]	; 0xfffff200
    70c8:	00011d04 	andeq	r1, r1, r4, lsl #26
    70cc:	08010300 	stmdaeq	r1, {r8, r9}
    70d0:	000002e5 	andeq	r0, r0, r5, ror #5
    70d4:	00011d0f 	andeq	r1, r1, pc, lsl #26
    70d8:	04680400 	strbteq	r0, [r8], #-1024	; 0xfffffc00
    70dc:	16050000 	strne	r0, [r5], -r0
    70e0:	00005d19 	andeq	r5, r0, r9, lsl sp
    70e4:	01b01000 	movseq	r1, r0
    70e8:	05180000 	ldreq	r0, [r8, #-0]
    70ec:	018f082f 	orreq	r0, pc, pc, lsr #16
    70f0:	c40d0000 	strgt	r0, [sp], #-0
    70f4:	05000003 	streq	r0, [r0, #-3]
    70f8:	018f1331 	orreq	r1, pc, r1, lsr r3	; <UNPREDICTABLE>
    70fc:	11000000 	mrsne	r0, (UNDEF: 0)
    7100:	05006b5f 	streq	r6, [r0, #-2911]	; 0xfffff4a1
    7104:	00250732 	eoreq	r0, r5, r2, lsr r7
    7108:	0d040000 	stceq	0, cr0, [r4, #-0]
    710c:	00000404 	andeq	r0, r0, r4, lsl #8
    7110:	250b3205 	strcs	r3, [fp, #-517]	; 0xfffffdfb
    7114:	08000000 	stmdaeq	r0, {}	; <UNPREDICTABLE>
    7118:	0001990d 	andeq	r9, r1, sp, lsl #18
    711c:	14320500 	ldrtne	r0, [r2], #-1280	; 0xfffffb00
    7120:	00000025 	andeq	r0, r0, r5, lsr #32
    7124:	04a80d0c 	strteq	r0, [r8], #3340	; 0xd0c
    7128:	32050000 	andcc	r0, r5, #0
    712c:	0000251b 	andeq	r2, r0, fp, lsl r5
    7130:	5f111000 	svcpl	0x00111000
    7134:	33050078 	movwcc	r0, #20600	; 0x5078
    7138:	0001950b 	andeq	r9, r1, fp, lsl #10
    713c:	05001400 	streq	r1, [r0, #-1024]	; 0xfffffc00
    7140:	00013504 	andeq	r3, r1, r4, lsl #10
    7144:	01290a00 			; <UNDEFINED> instruction: 0x01290a00
    7148:	01a50000 			; <UNDEFINED> instruction: 0x01a50000
    714c:	2c0b0000 	stccs	0, cr0, [fp], {-0}
    7150:	00000000 	andeq	r0, r0, r0
    7154:	01dd1000 	bicseq	r1, sp, r0
    7158:	05240000 	streq	r0, [r4, #-0]!
    715c:	02280837 	eoreq	r0, r8, #3604480	; 0x370000
    7160:	9e0d0000 	cdpls	0, 0, cr0, cr13, cr0, {0}
    7164:	05000000 	streq	r0, [r0, #-0]
    7168:	00250939 	eoreq	r0, r5, r9, lsr r9
    716c:	0d000000 	stceq	0, cr0, [r0, #-0]
    7170:	0000043e 	andeq	r0, r0, lr, lsr r4
    7174:	25093a05 	strcs	r3, [r9, #-2565]	; 0xfffff5fb
    7178:	04000000 	streq	r0, [r0], #-0
    717c:	0000c10d 	andeq	ip, r0, sp, lsl #2
    7180:	093b0500 	ldmdbeq	fp!, {r8, sl}
    7184:	00000025 	andeq	r0, r0, r5, lsr #32
    7188:	05330d08 	ldreq	r0, [r3, #-3336]!	; 0xfffff2f8
    718c:	3c050000 	stccc	0, cr0, [r5], {-0}
    7190:	00002509 	andeq	r2, r0, r9, lsl #10
    7194:	a10d0c00 	tstge	sp, r0, lsl #24
    7198:	05000002 	streq	r0, [r0, #-2]
    719c:	0025093d 	eoreq	r0, r5, sp, lsr r9
    71a0:	0d100000 	ldceq	0, cr0, [r0, #-0]
    71a4:	00000283 	andeq	r0, r0, r3, lsl #5
    71a8:	25093e05 	strcs	r3, [r9, #-3589]	; 0xfffff1fb
    71ac:	14000000 	strne	r0, [r0], #-0
    71b0:	0004ad0d 	andeq	sl, r4, sp, lsl #26
    71b4:	093f0500 	ldmdbeq	pc!, {r8, sl}	; <UNPREDICTABLE>
    71b8:	00000025 	andeq	r0, r0, r5, lsr #32
    71bc:	05290d18 	streq	r0, [r9, #-3352]!	; 0xfffff2e8
    71c0:	40050000 	andmi	r0, r5, r0
    71c4:	00002509 	andeq	r2, r0, r9, lsl #10
    71c8:	f00d1c00 			; <UNDEFINED> instruction: 0xf00d1c00
    71cc:	05000004 	streq	r0, [r0, #-4]
    71d0:	00250941 	eoreq	r0, r5, r1, asr #18
    71d4:	00200000 	eoreq	r0, r0, r0
    71d8:	00010112 	andeq	r0, r1, r2, lsl r1
    71dc:	05010800 	streq	r0, [r1, #-2048]	; 0xfffff800
    71e0:	026d084a 	rsbeq	r0, sp, #4849664	; 0x4a0000
    71e4:	8c0d0000 	stchi	0, cr0, [sp], {-0}
    71e8:	05000001 	streq	r0, [r0, #-1]
    71ec:	026d0a4b 	rsbeq	r0, sp, #307200	; 0x4b000
    71f0:	0d000000 	stceq	0, cr0, [r0, #-0]
    71f4:	00000000 	andeq	r0, r0, r0
    71f8:	6d094c05 	stcvs	12, cr4, [r9, #-20]	; 0xffffffec
    71fc:	80000002 	andhi	r0, r0, r2
    7200:	00045a13 	andeq	r5, r4, r3, lsl sl
    7204:	0a4e0500 	beq	138860c <__bss_end__+0x137e5ac>
    7208:	00000129 	andeq	r0, r0, r9, lsr #2
    720c:	26130100 	ldrcs	r0, [r3], -r0, lsl #2
    7210:	05000001 	streq	r0, [r0, #-1]
    7214:	01290a51 			; <UNDEFINED> instruction: 0x01290a51
    7218:	01040000 	mrseq	r0, (UNDEF: 4)
    721c:	01150a00 	tsteq	r5, r0, lsl #20
    7220:	027d0000 	rsbseq	r0, sp, #0
    7224:	2c0b0000 	stccs	0, cr0, [fp], {-0}
    7228:	1f000000 	svcne	0x00000000
    722c:	02aa1200 	adceq	r1, sl, #0, 4
    7230:	01900000 	orrseq	r0, r0, r0
    7234:	c0085d05 	andgt	r5, r8, r5, lsl #26
    7238:	0d000002 	stceq	0, cr0, [r0, #-8]
    723c:	000003c4 	andeq	r0, r0, r4, asr #7
    7240:	c0125e05 	andsgt	r5, r2, r5, lsl #28
    7244:	00000002 	andeq	r0, r0, r2
    7248:	0003dc0d 	andeq	sp, r3, sp, lsl #24
    724c:	065f0500 	ldrbeq	r0, [pc], -r0, lsl #10
    7250:	00000025 	andeq	r0, r0, r5, lsr #32
    7254:	01940d04 	orrseq	r0, r4, r4, lsl #26
    7258:	61050000 	mrsvs	r0, (UNDEF: 5)
    725c:	0002c609 	andeq	ip, r2, r9, lsl #12
    7260:	010d0800 	tsteq	sp, r0, lsl #16
    7264:	05000001 	streq	r0, [r0, #-1]
    7268:	02281e62 	eoreq	r1, r8, #1568	; 0x620
    726c:	00880000 	addeq	r0, r8, r0
    7270:	027d0405 	rsbseq	r0, sp, #83886080	; 0x5000000
    7274:	d60a0000 	strle	r0, [sl], -r0
    7278:	d6000002 	strle	r0, [r0], -r2
    727c:	0b000002 	bleq	728c <_start-0xd74>
    7280:	0000002c 	andeq	r0, r0, ip, lsr #32
    7284:	0405001f 	streq	r0, [r5], #-31	; 0xffffffe1
    7288:	000002dc 	ldrdeq	r0, [r0], -ip
    728c:	038f1014 	orreq	r1, pc, #20
    7290:	05080000 	streq	r0, [r8, #-0]
    7294:	03050875 	movweq	r0, #22645	; 0x5875
    7298:	bb0d0000 	bllt	3472a0 <__bss_end__+0x33d240>
    729c:	05000000 	streq	r0, [r0, #-0]
    72a0:	03051176 	movweq	r1, #20854	; 0x5176
    72a4:	0d000000 	stceq	0, cr0, [r0, #-0]
    72a8:	0000001b 	andeq	r0, r0, fp, lsl r0
    72ac:	25067705 	strcs	r7, [r6, #-1797]	; 0xfffff8fb
    72b0:	04000000 	streq	r0, [r0], #-0
    72b4:	4f040500 	svcmi	0x00040500
    72b8:	10000000 	andne	r0, r0, r0
    72bc:	000003ae 	andeq	r0, r0, lr, lsr #7
    72c0:	08b50568 	ldmeq	r5!, {r3, r5, r6, r8, sl}
    72c4:	0000044e 	andeq	r0, r0, lr, asr #8
    72c8:	00705f11 	rsbseq	r5, r0, r1, lsl pc
    72cc:	0512b605 	ldreq	fp, [r2, #-1541]	; 0xfffff9fb
    72d0:	00000003 	andeq	r0, r0, r3
    72d4:	00725f11 	rsbseq	r5, r2, r1, lsl pc
    72d8:	2507b705 	strcs	fp, [r7, #-1797]	; 0xfffff8fb
    72dc:	04000000 	streq	r0, [r0], #-0
    72e0:	00775f11 	rsbseq	r5, r7, r1, lsl pc
    72e4:	2507b805 	strcs	fp, [r7, #-2053]	; 0xfffff7fb
    72e8:	08000000 	stmdaeq	r0, {}	; <UNPREDICTABLE>
    72ec:	00011f0d 	andeq	r1, r1, sp, lsl #30
    72f0:	09b90500 	ldmibeq	r9!, {r8, sl}
    72f4:	0000003a 	andeq	r0, r0, sl, lsr r0
    72f8:	02080d0c 	andeq	r0, r8, #12, 26	; 0x300
    72fc:	ba050000 	blt	147304 <__bss_end__+0x13d2a4>
    7300:	00003a09 	andeq	r3, r0, r9, lsl #20
    7304:	5f110e00 	svcpl	0x00110e00
    7308:	05006662 	streq	r6, [r0, #-1634]	; 0xfffff99e
    730c:	02dd11bb 	sbcseq	r1, sp, #-1073741778	; 0xc000002e
    7310:	0d100000 	ldceq	0, cr0, [r0, #-0]
    7314:	0000007b 	andeq	r0, r0, fp, ror r0
    7318:	2507bc05 	strcs	fp, [r7, #-3077]	; 0xfffff3fb
    731c:	18000000 	stmdane	r0, {}	; <UNPREDICTABLE>
    7320:	00010f0d 	andeq	r0, r1, sp, lsl #30
    7324:	0ac30500 	beq	ff0c872c <__bss_end__+0xff0be6cc>
    7328:	00000115 	andeq	r0, r0, r5, lsl r1
    732c:	0b590d1c 	bleq	164a7a4 <__bss_end__+0x1640744>
    7330:	c5050000 	strgt	r0, [r5, #-0]
    7334:	0005c01d 	andeq	ip, r5, sp, lsl r0
    7338:	1d0d2000 	stcne	0, cr2, [sp, #-0]
    733c:	05000006 	streq	r0, [r0, #-6]
    7340:	05ea1dc7 	strbeq	r1, [sl, #3527]!	; 0xdc7
    7344:	0d240000 	stceq	0, cr0, [r4, #-0]
    7348:	00000430 	andeq	r0, r0, r0, lsr r4
    734c:	0e0dca05 	vmlaeq.f32	s24, s26, s10
    7350:	28000006 	stmdacs	r0, {r1, r2}
    7354:	00050a0d 	andeq	r0, r5, sp, lsl #20
    7358:	09cb0500 	stmibeq	fp, {r8, sl}^
    735c:	00000628 	andeq	r0, r0, r8, lsr #12
    7360:	755f112c 	ldrbvc	r1, [pc, #-300]	; 723c <_start-0xdc4>
    7364:	ce050062 	cdpgt	0, 0, cr0, cr5, cr2, {3}
    7368:	0002dd11 	andeq	sp, r2, r1, lsl sp
    736c:	5f113000 	svcpl	0x00113000
    7370:	05007075 	streq	r7, [r0, #-117]	; 0xffffff8b
    7374:	030512cf 	movweq	r1, #21199	; 0x52cf
    7378:	11380000 	teqne	r8, r0
    737c:	0072755f 	rsbseq	r7, r2, pc, asr r5
    7380:	2507d005 	strcs	sp, [r7, #-5]
    7384:	3c000000 	stccc	0, cr0, [r0], {-0}
    7388:	0000b50d 	andeq	fp, r0, sp, lsl #10
    738c:	11d30500 	bicsne	r0, r3, r0, lsl #10
    7390:	0000062e 	andeq	r0, r0, lr, lsr #12
    7394:	04e20d40 	strbteq	r0, [r2], #3392	; 0xd40
    7398:	d4050000 	strle	r0, [r5], #-0
    739c:	00063e11 	andeq	r3, r6, r1, lsl lr
    73a0:	5f114300 	svcpl	0x00114300
    73a4:	0500626c 	streq	r6, [r0, #-620]	; 0xfffffd94
    73a8:	02dd11d7 	sbcseq	r1, sp, #-1073741771	; 0xc0000035
    73ac:	0d440000 	stcleq	0, cr0, [r4, #-0]
    73b0:	0000013d 	andeq	r0, r0, sp, lsr r1
    73b4:	2507da05 	strcs	sp, [r7, #-2565]	; 0xfffff5fb
    73b8:	4c000000 	stcmi	0, cr0, [r0], {-0}
    73bc:	00014e0d 	andeq	r4, r1, sp, lsl #28
    73c0:	0adb0500 	beq	ff6c87c8 <__bss_end__+0xff6be768>
    73c4:	00000082 	andeq	r0, r0, r2, lsl #1
    73c8:	0afa0d50 	beq	ffe8a910 <__bss_end__+0xffe808b0>
    73cc:	de050000 	cdple	0, 0, cr0, cr5, cr0, {0}
    73d0:	00046c12 	andeq	r6, r4, r2, lsl ip
    73d4:	220d5400 	andcs	r5, sp, #0, 8
    73d8:	05000004 	streq	r0, [r0, #-4]
    73dc:	01090ce2 	smlatteq	r9, r2, ip, r0
    73e0:	0d580000 	ldcleq	0, cr0, [r8, #-0]
    73e4:	000003b6 			; <UNDEFINED> instruction: 0x000003b6
    73e8:	fd0ee405 	stc2	4, cr14, [lr, #-20]	; 0xffffffec
    73ec:	5c000000 	stcpl	0, cr0, [r0], {-0}
    73f0:	00027b0d 	andeq	r7, r2, sp, lsl #22
    73f4:	09e50500 	stmibeq	r5!, {r8, sl}^
    73f8:	00000025 	andeq	r0, r0, r5, lsr #32
    73fc:	25150064 	ldrcs	r0, [r5, #-100]	; 0xffffff9c
    7400:	6c000000 	stcvs	0, cr0, [r0], {-0}
    7404:	16000004 	strne	r0, [r0], -r4
    7408:	0000046c 	andeq	r0, r0, ip, ror #8
    740c:	00011516 	andeq	r1, r1, r6, lsl r5
    7410:	01171600 	tsteq	r7, r0, lsl #12
    7414:	25160000 	ldrcs	r0, [r6, #-0]
    7418:	00000000 	andeq	r0, r0, r0
    741c:	04770405 	ldrbteq	r0, [r7], #-1029	; 0xfffffbfb
    7420:	6c0f0000 	stcvs	0, cr0, [pc], {-0}
    7424:	17000004 	strne	r0, [r0, -r4]
    7428:	0000040c 	andeq	r0, r0, ip, lsl #8
    742c:	60050428 	andvs	r0, r5, r8, lsr #8
    7430:	05c00802 	strbeq	r0, [r0, #2050]	; 0x802
    7434:	70180000 	andsvc	r0, r8, r0
    7438:	05000003 	streq	r0, [r0, #-3]
    743c:	25070262 	strcs	r0, [r7, #-610]	; 0xfffffd9e
    7440:	00000000 	andeq	r0, r0, r0
    7444:	00012e18 	andeq	r2, r1, r8, lsl lr
    7448:	02670500 	rsbeq	r0, r7, #0, 10
    744c:	00069a0b 	andeq	r9, r6, fp, lsl #20
    7450:	f8180400 			; <UNDEFINED> instruction: 0xf8180400
    7454:	05000001 	streq	r0, [r0, #-1]
    7458:	9a140267 	bls	507dfc <__bss_end__+0x4fdd9c>
    745c:	08000006 	stmdaeq	r0, {r1, r2}
    7460:	0001a818 	andeq	sl, r1, r8, lsl r8
    7464:	02670500 	rsbeq	r0, r7, #0, 10
    7468:	00069a1e 	andeq	r9, r6, lr, lsl sl
    746c:	d7180c00 	ldrle	r0, [r8, -r0, lsl #24]
    7470:	05000003 	streq	r0, [r0, #-3]
    7474:	25080269 	strcs	r0, [r8, #-617]	; 0xfffffd97
    7478:	10000000 	andne	r0, r0, r0
    747c:	00002918 	andeq	r2, r0, r8, lsl r9
    7480:	026a0500 	rsbeq	r0, sl, #0, 10
    7484:	00089a08 	andeq	r9, r8, r8, lsl #20
    7488:	eb181400 	bl	60c490 <__bss_end__+0x602430>
    748c:	05000003 	streq	r0, [r0, #-3]
    7490:	2507026d 	strcs	r0, [r7, #-621]	; 0xfffffd93
    7494:	30000000 	andcc	r0, r0, r0
    7498:	000a3618 	andeq	r3, sl, r8, lsl r6
    749c:	026e0500 	rsbeq	r0, lr, #0, 10
    74a0:	0008af16 	andeq	sl, r8, r6, lsl pc
    74a4:	b2183400 	andslt	r3, r8, #0, 8
    74a8:	05000002 	streq	r0, [r0, #-2]
    74ac:	25070270 	strcs	r0, [r7, #-624]	; 0xfffffd90
    74b0:	38000000 	stmdacc	r0, {}	; <UNPREDICTABLE>
    74b4:	0003e118 	andeq	lr, r3, r8, lsl r1
    74b8:	02720500 	rsbseq	r0, r2, #0, 10
    74bc:	0008c00a 	andeq	ip, r8, sl
    74c0:	57183c00 	ldrpl	r3, [r8, -r0, lsl #24]
    74c4:	05000002 	streq	r0, [r0, #-2]
    74c8:	8f130275 	svchi	0x00130275
    74cc:	40000001 	andmi	r0, r0, r1
    74d0:	0001c718 	andeq	ip, r1, r8, lsl r7
    74d4:	02760500 	rsbseq	r0, r6, #0, 10
    74d8:	00002507 	andeq	r2, r0, r7, lsl #10
    74dc:	24184400 	ldrcs	r4, [r8], #-1024	; 0xfffffc00
    74e0:	05000005 	streq	r0, [r0, #-5]
    74e4:	8f130277 	svchi	0x00130277
    74e8:	48000001 	stmdami	r0, {r0}
    74ec:	0002c418 	andeq	ip, r2, r8, lsl r4
    74f0:	02780500 	rsbseq	r0, r8, #0, 10
    74f4:	0008c614 	andeq	ip, r8, r4, lsl r6
    74f8:	00184c00 	andseq	r4, r8, r0, lsl #24
    74fc:	05000002 	streq	r0, [r0, #-2]
    7500:	2507027b 	strcs	r0, [r7, #-635]	; 0xfffffd85
    7504:	50000000 	andpl	r0, r0, r0
    7508:	00014618 	andeq	r4, r1, r8, lsl r6
    750c:	027c0500 	rsbseq	r0, ip, #0, 10
    7510:	00011709 	andeq	r1, r1, r9, lsl #14
    7514:	ea185400 	b	61c51c <__bss_end__+0x6124bc>
    7518:	05000002 	streq	r0, [r0, #-2]
    751c:	7507029f 	strvc	r0, [r7, #-671]	; 0xfffffd61
    7520:	58000008 	stmdapl	r0, {r3}
    7524:	0002aa19 	andeq	sl, r2, r9, lsl sl
    7528:	02a30500 	adceq	r0, r3, #0, 10
    752c:	0002c013 	andeq	ip, r2, r3, lsl r0
    7530:	19014800 	stmdbne	r1, {fp, lr}
    7534:	00000235 	andeq	r0, r0, r5, lsr r2
    7538:	1202a405 	andne	sl, r2, #83886080	; 0x5000000
    753c:	0000027d 	andeq	r0, r0, sp, ror r2
    7540:	d019014c 	andsle	r0, r9, ip, asr #2
    7544:	05000004 	streq	r0, [r0, #-4]
    7548:	d70c02a8 	strle	r0, [ip, -r8, lsr #5]
    754c:	dc000008 	stcle	0, cr0, [r0], {8}
    7550:	01171902 	tsteq	r7, r2, lsl #18
    7554:	ad050000 	stcge	0, cr0, [r5, #-0]
    7558:	065b1002 	ldrbeq	r1, [fp], -r2
    755c:	02e00000 	rsceq	r0, r0, #0
    7560:	0000fc19 	andeq	pc, r0, r9, lsl ip	; <UNPREDICTABLE>
    7564:	02af0500 	adceq	r0, pc, #0, 10
    7568:	0008e30a 	andeq	lr, r8, sl, lsl #6
    756c:	0002ec00 	andeq	lr, r2, r0, lsl #24
    7570:	044e0405 	strbeq	r0, [lr], #-1029	; 0xfffffbfb
    7574:	25150000 	ldrcs	r0, [r5, #-0]
    7578:	e4000000 	str	r0, [r0], #-0
    757c:	16000005 	strne	r0, [r0], -r5
    7580:	0000046c 	andeq	r0, r0, ip, ror #8
    7584:	00011516 	andeq	r1, r1, r6, lsl r5
    7588:	05e41600 	strbeq	r1, [r4, #1536]!	; 0x600
    758c:	25160000 	ldrcs	r0, [r6, #-0]
    7590:	00000000 	andeq	r0, r0, r0
    7594:	01240405 			; <UNDEFINED> instruction: 0x01240405
    7598:	04050000 	streq	r0, [r5], #-0
    759c:	000005c6 	andeq	r0, r0, r6, asr #11
    75a0:	00008e15 	andeq	r8, r0, r5, lsl lr
    75a4:	00060e00 	andeq	r0, r6, r0, lsl #28
    75a8:	046c1600 	strbteq	r1, [ip], #-1536	; 0xfffffa00
    75ac:	15160000 	ldrne	r0, [r6, #-0]
    75b0:	16000001 	strne	r0, [r0], -r1
    75b4:	0000008e 	andeq	r0, r0, lr, lsl #1
    75b8:	00002516 	andeq	r2, r0, r6, lsl r5
    75bc:	04050000 	streq	r0, [r5], #-0
    75c0:	000005f0 	strdeq	r0, [r0], -r0	; <UNPREDICTABLE>
    75c4:	00002515 	andeq	r2, r0, r5, lsl r5
    75c8:	00062800 	andeq	r2, r6, r0, lsl #16
    75cc:	046c1600 	strbteq	r1, [ip], #-1536	; 0xfffffa00
    75d0:	15160000 	ldrne	r0, [r6, #-0]
    75d4:	00000001 	andeq	r0, r0, r1
    75d8:	06140405 	ldreq	r0, [r4], -r5, lsl #8
    75dc:	4f0a0000 	svcmi	0x000a0000
    75e0:	3e000000 	cdpcc	0, 0, cr0, cr0, cr0, {0}
    75e4:	0b000006 	bleq	7604 <_start-0x9fc>
    75e8:	0000002c 	andeq	r0, r0, ip, lsr #32
    75ec:	4f0a0002 	svcmi	0x000a0002
    75f0:	4e000000 	cdpmi	0, 0, cr0, cr0, cr0, {0}
    75f4:	0b000006 	bleq	7614 <_start-0x9ec>
    75f8:	0000002c 	andeq	r0, r0, ip, lsr #32
    75fc:	9c070000 	stcls	0, cr0, [r7], {-0}
    7600:	05000003 	streq	r0, [r0, #-3]
    7604:	0b1a011f 	bleq	687a88 <__bss_end__+0x67da28>
    7608:	1a000003 	bne	761c <_start-0x9e4>
    760c:	000004b7 			; <UNDEFINED> instruction: 0x000004b7
    7610:	0123050c 			; <UNDEFINED> instruction: 0x0123050c
    7614:	00069408 	andeq	r9, r6, r8, lsl #8
    7618:	03c41800 	biceq	r1, r4, #0, 16
    761c:	25050000 	strcs	r0, [r5, #-0]
    7620:	06941101 	ldreq	r1, [r4], r1, lsl #2
    7624:	18000000 	stmdane	r0, {}	; <UNPREDICTABLE>
    7628:	0000021b 	andeq	r0, r0, fp, lsl r2
    762c:	07012605 	streq	r2, [r1, -r5, lsl #12]
    7630:	00000025 	andeq	r0, r0, r5, lsr #32
    7634:	03961804 	orrseq	r1, r6, #4, 16	; 0x40000
    7638:	27050000 	strcs	r0, [r5, -r0]
    763c:	069a0b01 	ldreq	r0, [sl], r1, lsl #22
    7640:	00080000 	andeq	r0, r8, r0
    7644:	065b0405 	ldrbeq	r0, [fp], -r5, lsl #8
    7648:	04050000 	streq	r0, [r5], #-0
    764c:	0000064e 	andeq	r0, r0, lr, asr #12
    7650:	0000211a 	andeq	r2, r0, sl, lsl r1
    7654:	3f050e00 	svccc	0x00050e00
    7658:	06d90801 	ldrbeq	r0, [r9], r1, lsl #16
    765c:	13180000 	tstne	r8, #0
    7660:	05000004 	streq	r0, [r0, #-4]
    7664:	d9120140 	ldmdble	r2, {r6, r8}
    7668:	00000006 	andeq	r0, r0, r6
    766c:	00044718 	andeq	r4, r4, r8, lsl r7
    7670:	01410500 	cmpeq	r1, r0, lsl #10
    7674:	0006d912 	andeq	sp, r6, r2, lsl r9
    7678:	63180600 	tstvs	r8, #0, 12
    767c:	05000004 	streq	r0, [r0, #-4]
    7680:	56120142 	ldrpl	r0, [r2], -r2, asr #2
    7684:	0c000000 	stceq	0, cr0, [r0], {-0}
    7688:	00560a00 	subseq	r0, r6, r0, lsl #20
    768c:	06e90000 	strbteq	r0, [r9], r0
    7690:	2c0b0000 	stccs	0, cr0, [fp], {-0}
    7694:	02000000 	andeq	r0, r0, #0
    7698:	05d01b00 	ldrbeq	r1, [r0, #2816]	; 0xb00
    769c:	fe070280 	cdp2	2, 0, cr0, cr7, cr0, {4}
    76a0:	18000007 	stmdane	r0, {r0, r1, r2}
    76a4:	0000049b 	muleq	r0, fp, r4
    76a8:	18028205 	stmdane	r2, {r0, r2, r9, pc}
    76ac:	0000002c 	andeq	r0, r0, ip, lsr #32
    76b0:	044d1800 	strbeq	r1, [sp], #-2048	; 0xfffff800
    76b4:	83050000 	movwhi	r0, #20480	; 0x5000
    76b8:	01171202 	tsteq	r7, r2, lsl #4
    76bc:	18040000 	stmdane	r4, {}	; <UNPREDICTABLE>
    76c0:	0000024a 	andeq	r0, r0, sl, asr #4
    76c4:	10028405 	andne	r8, r2, r5, lsl #8
    76c8:	000007fe 	strdeq	r0, [r0], -lr
    76cc:	04fb1808 	ldrbteq	r1, [fp], #2056	; 0x808
    76d0:	85050000 	strhi	r0, [r5, #-0]
    76d4:	01a51702 			; <UNDEFINED> instruction: 0x01a51702
    76d8:	18240000 	stmdane	r4!, {}	; <UNPREDICTABLE>
    76dc:	000001b8 			; <UNDEFINED> instruction: 0x000001b8
    76e0:	0f028605 	svceq	0x00028605
    76e4:	00000025 	andeq	r0, r0, r5, lsr #32
    76e8:	03bf1848 			; <UNDEFINED> instruction: 0x03bf1848
    76ec:	87050000 	strhi	r0, [r5, -r0]
    76f0:	00642c02 	rsbeq	r2, r4, r2, lsl #24
    76f4:	18500000 	ldmdane	r0, {}^	; <UNPREDICTABLE>
    76f8:	00000511 	andeq	r0, r0, r1, lsl r5
    76fc:	1a028805 	bne	a9718 <__bss_end__+0x9f6b8>
    7700:	000006a0 	andeq	r0, r0, r0, lsr #13
    7704:	03ca1858 	biceq	r1, sl, #88, 16	; 0x580000
    7708:	89050000 	stmdbhi	r5, {}	; <UNPREDICTABLE>
    770c:	00fd1602 	rscseq	r1, sp, r2, lsl #12
    7710:	18680000 	stmdane	r8!, {}^	; <UNPREDICTABLE>
    7714:	00000516 	andeq	r0, r0, r6, lsl r5
    7718:	16028a05 	strne	r8, [r2], -r5, lsl #20
    771c:	000000fd 	strdeq	r0, [r0], -sp
    7720:	02ce1870 	sbceq	r1, lr, #112, 16	; 0x700000
    7724:	8b050000 	blhi	14772c <__bss_end__+0x13d6cc>
    7728:	00fd1602 	rscseq	r1, sp, r2, lsl #12
    772c:	18780000 	ldmdane	r8!, {}^	; <UNPREDICTABLE>
    7730:	000004c6 	andeq	r0, r0, r6, asr #9
    7734:	10028c05 	andne	r8, r2, r5, lsl #24
    7738:	0000080e 	andeq	r0, r0, lr, lsl #16
    773c:	023e1880 	eorseq	r1, lr, #128, 16	; 0x800000
    7740:	8d050000 	stchi	0, cr0, [r5, #-0]
    7744:	081e1002 	ldmdaeq	lr, {r1, ip}
    7748:	18880000 	stmne	r8, {}	; <UNPREDICTABLE>
    774c:	00000470 	andeq	r0, r0, r0, ror r4
    7750:	0f028e05 	svceq	0x00028e05
    7754:	00000025 	andeq	r0, r0, r5, lsr #32
    7758:	017e18a0 	cmneq	lr, r0, lsr #17
    775c:	8f050000 	svchi	0x00050000
    7760:	00fd1602 	rscseq	r1, sp, r2, lsl #12
    7764:	18a40000 	stmiane	r4!, {}	; <UNPREDICTABLE>
    7768:	0000008f 	andeq	r0, r0, pc, lsl #1
    776c:	16029005 	strne	r9, [r2], -r5
    7770:	000000fd 	strdeq	r0, [r0], -sp
    7774:	016d18ac 	cmneq	sp, ip, lsr #17
    7778:	91050000 	mrsls	r0, (UNDEF: 5)
    777c:	00fd1602 	rscseq	r1, sp, r2, lsl #12
    7780:	18b40000 	ldmne	r4!, {}	; <UNPREDICTABLE>
    7784:	0000003c 	andeq	r0, r0, ip, lsr r0
    7788:	16029205 	strne	r9, [r2], -r5, lsl #4
    778c:	000000fd 	strdeq	r0, [r0], -sp
    7790:	004b18bc 	strheq	r1, [fp], #-140	; 0xffffff74
    7794:	93050000 	movwls	r0, #20480	; 0x5000
    7798:	00fd1602 	rscseq	r1, sp, r2, lsl #12
    779c:	18c40000 	stmiane	r4, {}^	; <UNPREDICTABLE>
    77a0:	0000036e 	andeq	r0, r0, lr, ror #6
    77a4:	08029405 	stmdaeq	r2, {r0, r2, sl, ip, pc}
    77a8:	00000025 	andeq	r0, r0, r5, lsr #32
    77ac:	1d0a00cc 	stcne	0, cr0, [sl, #-816]	; 0xfffffcd0
    77b0:	0e000001 	cdpeq	0, 0, cr0, cr0, cr1, {0}
    77b4:	0b000008 	bleq	77dc <_start-0x824>
    77b8:	0000002c 	andeq	r0, r0, ip, lsr #32
    77bc:	1d0a0019 	stcne	0, cr0, [sl, #-100]	; 0xffffff9c
    77c0:	1e000001 	cdpne	0, 0, cr0, cr0, cr1, {0}
    77c4:	0b000008 	bleq	77ec <_start-0x814>
    77c8:	0000002c 	andeq	r0, r0, ip, lsr #32
    77cc:	1d0a0007 	stcne	0, cr0, [sl, #-28]	; 0xffffffe4
    77d0:	2e000001 	cdpcs	0, 0, cr0, cr0, cr1, {0}
    77d4:	0b000008 	bleq	77fc <_start-0x804>
    77d8:	0000002c 	andeq	r0, r0, ip, lsr #32
    77dc:	f01b0017 			; <UNDEFINED> instruction: 0xf01b0017
    77e0:	07029905 	streq	r9, [r2, -r5, lsl #18]
    77e4:	00000855 	andeq	r0, r0, r5, asr r8
    77e8:	00029a18 	andeq	r9, r2, r8, lsl sl
    77ec:	029c0500 	addseq	r0, ip, #0, 10
    77f0:	0008551b 	andeq	r5, r8, fp, lsl r5
    77f4:	bd180000 	ldclt	0, cr0, [r8, #-0]
    77f8:	05000004 	streq	r0, [r0, #-4]
    77fc:	6518029d 	ldrvs	r0, [r8, #-669]	; 0xfffffd63
    7800:	78000008 	stmdavc	r0, {r3}
    7804:	03050a00 	movweq	r0, #23040	; 0x5a00
    7808:	08650000 	stmdaeq	r5!, {}^	; <UNPREDICTABLE>
    780c:	2c0b0000 	stccs	0, cr0, [fp], {-0}
    7810:	1d000000 	stcne	0, cr0, [r0, #-0]
    7814:	002c0a00 	eoreq	r0, ip, r0, lsl #20
    7818:	08750000 	ldmdaeq	r5!, {}^	; <UNPREDICTABLE>
    781c:	2c0b0000 	stccs	0, cr0, [fp], {-0}
    7820:	1d000000 	stcne	0, cr0, [r0, #-0]
    7824:	05f01c00 	ldrbeq	r1, [r0, #3072]!	; 0xc00
    7828:	9a03027e 	bls	c8228 <__bss_end__+0xbe1c8>
    782c:	1d000008 	stcne	0, cr0, [r0, #-32]	; 0xffffffe0
    7830:	0000040c 	andeq	r0, r0, ip, lsl #8
    7834:	0b029505 	bleq	acc50 <__bss_end__+0xa2bf0>
    7838:	000006e9 	andeq	r0, r0, r9, ror #13
    783c:	0004e81d 	andeq	lr, r4, sp, lsl r8
    7840:	029e0500 	addseq	r0, lr, #0, 10
    7844:	00082e0b 	andeq	r2, r8, fp, lsl #28
    7848:	1d0a0000 	stcne	0, cr0, [sl, #-0]
    784c:	aa000001 	bge	7858 <_start-0x7a8>
    7850:	0b000008 	bleq	7878 <_start-0x788>
    7854:	0000002c 	andeq	r0, r0, ip, lsr #32
    7858:	84060018 	strhi	r0, [r6], #-24	; 0xffffffe8
    785c:	05000000 	streq	r0, [r0, #-0]
    7860:	0008aa04 	andeq	sl, r8, r4, lsl #20
    7864:	08c01e00 	stmiaeq	r0, {r9, sl, fp, ip}^
    7868:	6c160000 	ldcvs	0, cr0, [r6], {-0}
    786c:	00000004 	andeq	r0, r0, r4
    7870:	08b50405 	ldmeq	r5!, {r0, r2, sl}
    7874:	04050000 	streq	r0, [r5], #-0
    7878:	0000018f 	andeq	r0, r0, pc, lsl #3
    787c:	0008d71e 	andeq	sp, r8, lr, lsl r7
    7880:	00251600 	eoreq	r1, r5, r0, lsl #12
    7884:	05000000 	streq	r0, [r0, #-0]
    7888:	0008dd04 	andeq	sp, r8, r4, lsl #26
    788c:	cc040500 	cfstr32gt	mvfx0, [r4], {-0}
    7890:	0a000008 	beq	78b8 <_start-0x748>
    7894:	0000064e 	andeq	r0, r0, lr, asr #12
    7898:	000008f3 	strdeq	r0, [r0], -r3
    789c:	00002c0b 	andeq	r2, r0, fp, lsl #24
    78a0:	1f000200 	svcne	0x00000200
    78a4:	00000484 	andeq	r0, r0, r4, lsl #9
    78a8:	17032e05 	strne	r2, [r3, -r5, lsl #28]
    78ac:	0000046c 	andeq	r0, r0, ip, ror #8
    78b0:	00047d1f 	andeq	r7, r4, pc, lsl sp
    78b4:	032f0500 			; <UNDEFINED> instruction: 0x032f0500
    78b8:	0004721d 	andeq	r7, r4, sp, lsl r2
    78bc:	00251500 	eoreq	r1, r5, r0, lsl #10
    78c0:	091c0000 	ldmdbeq	ip, {}	; <UNPREDICTABLE>
    78c4:	25160000 	ldrcs	r0, [r6, #-0]
    78c8:	00000000 	andeq	r0, r0, r0
    78cc:	0001d120 	andeq	sp, r1, r0, lsr #2
    78d0:	0e1d0600 	cfmsub32eq	mvax0, mvfx0, mvfx13, mvfx0
    78d4:	00000928 	andeq	r0, r0, r8, lsr #18
    78d8:	090d0405 	stmdbeq	sp, {r0, r2, sl}
    78dc:	25150000 	ldrcs	r0, [r5, #-0]
    78e0:	3d000000 	stccc	0, cr0, [r0, #-0]
    78e4:	16000009 	strne	r0, [r0], -r9
    78e8:	000005e4 	andeq	r0, r0, r4, ror #11
    78ec:	07732000 	ldrbeq	r2, [r3, -r0]!
    78f0:	22060000 	andcs	r0, r6, #0
    78f4:	0009490e 	andeq	r4, r9, lr, lsl #18
    78f8:	2e040500 	cfsh32cs	mvfx0, mvfx4, #0
    78fc:	21000009 	tstcs	r0, r9
    7900:	0000028d 	andeq	r0, r0, sp, lsl #5
    7904:	a8060401 	stmdage	r6, {r0, sl}
    7908:	28000090 	stmdacs	r0, {r4, r7}
    790c:	01000000 	mrseq	r0, (UNDEF: 0)
    7910:	0009969c 	muleq	r9, ip, r6
    7914:	90bc2200 	adcsls	r2, ip, r0, lsl #4
    7918:	09780000 	ldmdbeq	r8!, {}^	; <UNPREDICTABLE>
    791c:	01230000 			; <UNDEFINED> instruction: 0x01230000
    7920:	24030550 	strcs	r0, [r3], #-1360	; 0xfffffab0
    7924:	0000009b 	muleq	r0, fp, r0
    7928:	0090c424 	addseq	ip, r0, r4, lsr #8
    792c:	00099600 	andeq	r9, r9, r0, lsl #12
    7930:	00098c00 	andeq	r8, r9, r0, lsl #24
    7934:	50012300 	andpl	r2, r1, r0, lsl #6
    7938:	00640802 	rsbeq	r0, r4, r2, lsl #16
    793c:	0090c825 	addseq	ip, r0, r5, lsr #16
    7940:	0009a200 	andeq	sl, r9, r0, lsl #4
    7944:	21260000 			; <UNDEFINED> instruction: 0x21260000
    7948:	21000008 	tstcs	r0, r8
    794c:	06000008 	streq	r0, [r0], -r8
    7950:	2a26064f 	bcs	989294 <__bss_end__+0x97f234>
    7954:	2a000008 	bcs	797c <_start-0x684>
    7958:	06000008 	streq	r0, [r0], -r8
    795c:	d3000662 	movwle	r0, #1634	; 0x662
    7960:	04000009 	streq	r0, [r0], #-9
    7964:	00180700 	andseq	r0, r8, r0, lsl #14
    7968:	ef010400 	svc	0x00010400
    796c:	0c000002 	stceq	0, cr0, [r0], {2}
    7970:	00000835 	andeq	r0, r0, r5, lsr r8
    7974:	000006cc 	andeq	r0, r0, ip, asr #13
    7978:	000090d0 	ldrdeq	r9, [r0], -r0
    797c:	0000002c 	andeq	r0, r0, ip, lsr #32
    7980:	000015f7 	strdeq	r1, [r0], -r7
    7984:	69050402 	stmdbvs	r5, {r1, sl}
    7988:	0300746e 	movweq	r7, #1134	; 0x46e
    798c:	00660704 	rsbeq	r0, r6, r4, lsl #14
    7990:	01030000 	mrseq	r0, (UNDEF: 3)
    7994:	0002de06 	andeq	sp, r2, r6, lsl #28
    7998:	05020300 	streq	r0, [r2, #-768]	; 0xfffffd00
    799c:	00000377 	andeq	r0, r0, r7, ror r3
    79a0:	ac050403 	cfstrsge	mvf0, [r5], {3}
    79a4:	03000000 	movweq	r0, #0
    79a8:	00a70508 	adceq	r0, r7, r8, lsl #10
    79ac:	01030000 	mrseq	r0, (UNDEF: 3)
    79b0:	0002dc08 	andeq	sp, r2, r8, lsl #24
    79b4:	07020300 	streq	r0, [r2, -r0, lsl #6]
    79b8:	00000222 	andeq	r0, r0, r2, lsr #4
    79bc:	61070403 	tstvs	r7, r3, lsl #8
    79c0:	03000000 	movweq	r0, #0
    79c4:	005c0708 	subseq	r0, ip, r8, lsl #14
    79c8:	65040000 	strvs	r0, [r4, #-0]
    79cc:	02000002 	andeq	r0, r0, #2
    79d0:	00771922 	rsbseq	r1, r7, r2, lsr #18
    79d4:	04050000 	streq	r0, [r5], #-0
    79d8:	0000007d 	andeq	r0, r0, sp, ror r0
    79dc:	00042106 	andeq	r2, r4, r6, lsl #2
    79e0:	02bd0400 	adcseq	r0, sp, #0, 8
    79e4:	2c030000 	stccs	0, cr0, [r3], {-0}
    79e8:	0000410e 	andeq	r4, r0, lr, lsl #2
    79ec:	04360400 	ldrteq	r0, [r6], #-1024	; 0xfffffc00
    79f0:	72030000 	andvc	r0, r3, #0
    79f4:	0000410e 	andeq	r4, r0, lr, lsl #2
    79f8:	026d0700 	rsbeq	r0, sp, #0, 14
    79fc:	5e040000 	cdppl	0, 0, cr0, cr4, cr0, {0}
    7a00:	002c1701 	eoreq	r1, ip, r1, lsl #14
    7a04:	04080000 	streq	r0, [r8], #-0
    7a08:	c903a603 	stmdbgt	r3, {r0, r1, r9, sl, sp, pc}
    7a0c:	09000000 	stmdbeq	r0, {}	; <UNPREDICTABLE>
    7a10:	0000025f 	andeq	r0, r0, pc, asr r2
    7a14:	9a0ca803 	bls	331a28 <__bss_end__+0x3279c8>
    7a18:	09000000 	stmdbeq	r0, {}	; <UNPREDICTABLE>
    7a1c:	000001e2 	andeq	r0, r0, r2, ror #3
    7a20:	c913a903 	ldmdbgt	r3, {r0, r1, r8, fp, sp, pc}
    7a24:	00000000 	andeq	r0, r0, r0
    7a28:	00004f0a 	andeq	r4, r0, sl, lsl #30
    7a2c:	0000d900 	andeq	sp, r0, r0, lsl #18
    7a30:	002c0b00 	eoreq	r0, ip, r0, lsl #22
    7a34:	00030000 	andeq	r0, r3, r0
    7a38:	a303080c 	movwge	r0, #14348	; 0x380c
    7a3c:	0000fd09 	andeq	pc, r0, r9, lsl #26
    7a40:	04190d00 	ldreq	r0, [r9], #-3328	; 0xfffff300
    7a44:	a5030000 	strge	r0, [r3, #-0]
    7a48:	00002507 	andeq	r2, r0, r7, lsl #10
    7a4c:	280d0000 	stmdacs	sp, {}	; <UNPREDICTABLE>
    7a50:	03000004 	movweq	r0, #4
    7a54:	00a705aa 	adceq	r0, r7, sl, lsr #11
    7a58:	00040000 	andeq	r0, r4, r0
    7a5c:	0003a304 	andeq	sl, r3, r4, lsl #6
    7a60:	03ab0300 			; <UNDEFINED> instruction: 0x03ab0300
    7a64:	000000d9 	ldrdeq	r0, [r0], -r9
    7a68:	00019f04 	andeq	r9, r1, r4, lsl #30
    7a6c:	1baf0300 	blne	febc8674 <__bss_end__+0xfebbe614>
    7a70:	0000006b 	andeq	r0, r0, fp, rrx
    7a74:	0405040e 	streq	r0, [r5], #-1038	; 0xfffffbf2
    7a78:	0000011d 	andeq	r0, r0, sp, lsl r1
    7a7c:	e5080103 	str	r0, [r8, #-259]	; 0xfffffefd
    7a80:	0f000002 	svceq	0x00000002
    7a84:	0000011d 	andeq	r0, r0, sp, lsl r1
    7a88:	00046804 	andeq	r6, r4, r4, lsl #16
    7a8c:	19160500 	ldmdbne	r6, {r8, sl}
    7a90:	0000005d 	andeq	r0, r0, sp, asr r0
    7a94:	0001b010 	andeq	fp, r1, r0, lsl r0
    7a98:	2f051800 	svccs	0x00051800
    7a9c:	00018f08 	andeq	r8, r1, r8, lsl #30
    7aa0:	03c40d00 	biceq	r0, r4, #0, 26
    7aa4:	31050000 	mrscc	r0, (UNDEF: 5)
    7aa8:	00018f13 	andeq	r8, r1, r3, lsl pc
    7aac:	5f110000 	svcpl	0x00110000
    7ab0:	3205006b 	andcc	r0, r5, #107	; 0x6b
    7ab4:	00002507 	andeq	r2, r0, r7, lsl #10
    7ab8:	040d0400 	streq	r0, [sp], #-1024	; 0xfffffc00
    7abc:	05000004 	streq	r0, [r0, #-4]
    7ac0:	00250b32 	eoreq	r0, r5, r2, lsr fp
    7ac4:	0d080000 	stceq	0, cr0, [r8, #-0]
    7ac8:	00000199 	muleq	r0, r9, r1
    7acc:	25143205 	ldrcs	r3, [r4, #-517]	; 0xfffffdfb
    7ad0:	0c000000 	stceq	0, cr0, [r0], {-0}
    7ad4:	0004a80d 	andeq	sl, r4, sp, lsl #16
    7ad8:	1b320500 	blne	c88ee0 <__bss_end__+0xc7ee80>
    7adc:	00000025 	andeq	r0, r0, r5, lsr #32
    7ae0:	785f1110 	ldmdavc	pc, {r4, r8, ip}^	; <UNPREDICTABLE>
    7ae4:	0b330500 	bleq	cc8eec <__bss_end__+0xcbee8c>
    7ae8:	00000195 	muleq	r0, r5, r1
    7aec:	04050014 	streq	r0, [r5], #-20	; 0xffffffec
    7af0:	00000135 	andeq	r0, r0, r5, lsr r1
    7af4:	0001290a 	andeq	r2, r1, sl, lsl #18
    7af8:	0001a500 	andeq	sl, r1, r0, lsl #10
    7afc:	002c0b00 	eoreq	r0, ip, r0, lsl #22
    7b00:	00000000 	andeq	r0, r0, r0
    7b04:	0001dd10 	andeq	sp, r1, r0, lsl sp
    7b08:	37052400 	strcc	r2, [r5, -r0, lsl #8]
    7b0c:	00022808 	andeq	r2, r2, r8, lsl #16
    7b10:	009e0d00 	addseq	r0, lr, r0, lsl #26
    7b14:	39050000 	stmdbcc	r5, {}	; <UNPREDICTABLE>
    7b18:	00002509 	andeq	r2, r0, r9, lsl #10
    7b1c:	3e0d0000 	cdpcc	0, 0, cr0, cr13, cr0, {0}
    7b20:	05000004 	streq	r0, [r0, #-4]
    7b24:	0025093a 	eoreq	r0, r5, sl, lsr r9
    7b28:	0d040000 	stceq	0, cr0, [r4, #-0]
    7b2c:	000000c1 	andeq	r0, r0, r1, asr #1
    7b30:	25093b05 	strcs	r3, [r9, #-2821]	; 0xfffff4fb
    7b34:	08000000 	stmdaeq	r0, {}	; <UNPREDICTABLE>
    7b38:	0005330d 	andeq	r3, r5, sp, lsl #6
    7b3c:	093c0500 	ldmdbeq	ip!, {r8, sl}
    7b40:	00000025 	andeq	r0, r0, r5, lsr #32
    7b44:	02a10d0c 	adceq	r0, r1, #12, 26	; 0x300
    7b48:	3d050000 	stccc	0, cr0, [r5, #-0]
    7b4c:	00002509 	andeq	r2, r0, r9, lsl #10
    7b50:	830d1000 	movwhi	r1, #53248	; 0xd000
    7b54:	05000002 	streq	r0, [r0, #-2]
    7b58:	0025093e 	eoreq	r0, r5, lr, lsr r9
    7b5c:	0d140000 	ldceq	0, cr0, [r4, #-0]
    7b60:	000004ad 	andeq	r0, r0, sp, lsr #9
    7b64:	25093f05 	strcs	r3, [r9, #-3845]	; 0xfffff0fb
    7b68:	18000000 	stmdane	r0, {}	; <UNPREDICTABLE>
    7b6c:	0005290d 	andeq	r2, r5, sp, lsl #18
    7b70:	09400500 	stmdbeq	r0, {r8, sl}^
    7b74:	00000025 	andeq	r0, r0, r5, lsr #32
    7b78:	04f00d1c 	ldrbteq	r0, [r0], #3356	; 0xd1c
    7b7c:	41050000 	mrsmi	r0, (UNDEF: 5)
    7b80:	00002509 	andeq	r2, r0, r9, lsl #10
    7b84:	12002000 	andne	r2, r0, #0
    7b88:	00000101 	andeq	r0, r0, r1, lsl #2
    7b8c:	4a050108 	bmi	147fb4 <__bss_end__+0x13df54>
    7b90:	00026d08 	andeq	r6, r2, r8, lsl #26
    7b94:	018c0d00 	orreq	r0, ip, r0, lsl #26
    7b98:	4b050000 	blmi	147ba0 <__bss_end__+0x13db40>
    7b9c:	00026d0a 	andeq	r6, r2, sl, lsl #26
    7ba0:	000d0000 	andeq	r0, sp, r0
    7ba4:	05000000 	streq	r0, [r0, #-0]
    7ba8:	026d094c 	rsbeq	r0, sp, #76, 18	; 0x130000
    7bac:	13800000 	orrne	r0, r0, #0
    7bb0:	0000045a 	andeq	r0, r0, sl, asr r4
    7bb4:	290a4e05 	stmdbcs	sl, {r0, r2, r9, sl, fp, lr}
    7bb8:	00000001 	andeq	r0, r0, r1
    7bbc:	01261301 			; <UNDEFINED> instruction: 0x01261301
    7bc0:	51050000 	mrspl	r0, (UNDEF: 5)
    7bc4:	0001290a 	andeq	r2, r1, sl, lsl #18
    7bc8:	00010400 	andeq	r0, r1, r0, lsl #8
    7bcc:	0001150a 	andeq	r1, r1, sl, lsl #10
    7bd0:	00027d00 	andeq	r7, r2, r0, lsl #26
    7bd4:	002c0b00 	eoreq	r0, ip, r0, lsl #22
    7bd8:	001f0000 	andseq	r0, pc, r0
    7bdc:	0002aa12 	andeq	sl, r2, r2, lsl sl
    7be0:	05019000 	streq	r9, [r1, #-0]
    7be4:	02c0085d 	sbceq	r0, r0, #6094848	; 0x5d0000
    7be8:	c40d0000 	strgt	r0, [sp], #-0
    7bec:	05000003 	streq	r0, [r0, #-3]
    7bf0:	02c0125e 	sbceq	r1, r0, #-536870907	; 0xe0000005
    7bf4:	0d000000 	stceq	0, cr0, [r0, #-0]
    7bf8:	000003dc 	ldrdeq	r0, [r0], -ip
    7bfc:	25065f05 	strcs	r5, [r6, #-3845]	; 0xfffff0fb
    7c00:	04000000 	streq	r0, [r0], #-0
    7c04:	0001940d 	andeq	r9, r1, sp, lsl #8
    7c08:	09610500 	stmdbeq	r1!, {r8, sl}^
    7c0c:	000002c6 	andeq	r0, r0, r6, asr #5
    7c10:	01010d08 	tsteq	r1, r8, lsl #26
    7c14:	62050000 	andvs	r0, r5, #0
    7c18:	0002281e 	andeq	r2, r2, lr, lsl r8
    7c1c:	05008800 	streq	r8, [r0, #-2048]	; 0xfffff800
    7c20:	00027d04 	andeq	r7, r2, r4, lsl #26
    7c24:	02d60a00 	sbcseq	r0, r6, #0, 20
    7c28:	02d60000 	sbcseq	r0, r6, #0
    7c2c:	2c0b0000 	stccs	0, cr0, [fp], {-0}
    7c30:	1f000000 	svcne	0x00000000
    7c34:	dc040500 	cfstr32le	mvfx0, [r4], {-0}
    7c38:	14000002 	strne	r0, [r0], #-2
    7c3c:	00038f10 	andeq	r8, r3, r0, lsl pc
    7c40:	75050800 	strvc	r0, [r5, #-2048]	; 0xfffff800
    7c44:	00030508 	andeq	r0, r3, r8, lsl #10
    7c48:	00bb0d00 	adcseq	r0, fp, r0, lsl #26
    7c4c:	76050000 	strvc	r0, [r5], -r0
    7c50:	00030511 	andeq	r0, r3, r1, lsl r5
    7c54:	1b0d0000 	blne	347c5c <__bss_end__+0x33dbfc>
    7c58:	05000000 	streq	r0, [r0, #-0]
    7c5c:	00250677 	eoreq	r0, r5, r7, ror r6
    7c60:	00040000 	andeq	r0, r4, r0
    7c64:	004f0405 	subeq	r0, pc, r5, lsl #8
    7c68:	ae100000 	cdpge	0, 1, cr0, cr0, cr0, {0}
    7c6c:	68000003 	stmdavs	r0, {r0, r1}
    7c70:	4e08b505 	cfsh32mi	mvfx11, mvfx8, #5
    7c74:	11000004 	tstne	r0, r4
    7c78:	0500705f 	streq	r7, [r0, #-95]	; 0xffffffa1
    7c7c:	030512b6 	movweq	r1, #21174	; 0x52b6
    7c80:	11000000 	mrsne	r0, (UNDEF: 0)
    7c84:	0500725f 	streq	r7, [r0, #-607]	; 0xfffffda1
    7c88:	002507b7 	strhteq	r0, [r5], -r7
    7c8c:	11040000 	mrsne	r0, (UNDEF: 4)
    7c90:	0500775f 	streq	r7, [r0, #-1887]	; 0xfffff8a1
    7c94:	002507b8 	strhteq	r0, [r5], -r8
    7c98:	0d080000 	stceq	0, cr0, [r8, #-0]
    7c9c:	0000011f 	andeq	r0, r0, pc, lsl r1
    7ca0:	3a09b905 	bcc	2760bc <__bss_end__+0x26c05c>
    7ca4:	0c000000 	stceq	0, cr0, [r0], {-0}
    7ca8:	0002080d 	andeq	r0, r2, sp, lsl #16
    7cac:	09ba0500 	ldmibeq	sl!, {r8, sl}
    7cb0:	0000003a 	andeq	r0, r0, sl, lsr r0
    7cb4:	625f110e 	subsvs	r1, pc, #-2147483645	; 0x80000003
    7cb8:	bb050066 	bllt	147e58 <__bss_end__+0x13ddf8>
    7cbc:	0002dd11 	andeq	sp, r2, r1, lsl sp
    7cc0:	7b0d1000 	blvc	34bcc8 <__bss_end__+0x341c68>
    7cc4:	05000000 	streq	r0, [r0, #-0]
    7cc8:	002507bc 	strhteq	r0, [r5], -ip
    7ccc:	0d180000 	ldceq	0, cr0, [r8, #-0]
    7cd0:	0000010f 	andeq	r0, r0, pc, lsl #2
    7cd4:	150ac305 	strne	ip, [sl, #-773]	; 0xfffffcfb
    7cd8:	1c000001 	stcne	0, cr0, [r0], {1}
    7cdc:	000b590d 	andeq	r5, fp, sp, lsl #18
    7ce0:	1dc50500 	cfstr64ne	mvdx0, [r5]
    7ce4:	000005c0 	andeq	r0, r0, r0, asr #11
    7ce8:	061d0d20 	ldreq	r0, [sp], -r0, lsr #26
    7cec:	c7050000 	strgt	r0, [r5, -r0]
    7cf0:	0005ea1d 	andeq	lr, r5, sp, lsl sl
    7cf4:	300d2400 	andcc	r2, sp, r0, lsl #8
    7cf8:	05000004 	streq	r0, [r0, #-4]
    7cfc:	060e0dca 	streq	r0, [lr], -sl, asr #27
    7d00:	0d280000 	stceq	0, cr0, [r8, #-0]
    7d04:	0000050a 	andeq	r0, r0, sl, lsl #10
    7d08:	2809cb05 	stmdacs	r9, {r0, r2, r8, r9, fp, lr, pc}
    7d0c:	2c000006 	stccs	0, cr0, [r0], {6}
    7d10:	62755f11 	rsbsvs	r5, r5, #17, 30	; 0x44
    7d14:	11ce0500 	bicne	r0, lr, r0, lsl #10
    7d18:	000002dd 	ldrdeq	r0, [r0], -sp
    7d1c:	755f1130 	ldrbvc	r1, [pc, #-304]	; 7bf4 <_start-0x40c>
    7d20:	cf050070 	svcgt	0x00050070
    7d24:	00030512 	andeq	r0, r3, r2, lsl r5
    7d28:	5f113800 	svcpl	0x00113800
    7d2c:	05007275 	streq	r7, [r0, #-629]	; 0xfffffd8b
    7d30:	002507d0 	ldrdeq	r0, [r5], -r0	; <UNPREDICTABLE>
    7d34:	0d3c0000 	ldceq	0, cr0, [ip, #-0]
    7d38:	000000b5 	strheq	r0, [r0], -r5
    7d3c:	2e11d305 	cdpcs	3, 1, cr13, cr1, cr5, {0}
    7d40:	40000006 	andmi	r0, r0, r6
    7d44:	0004e20d 	andeq	lr, r4, sp, lsl #4
    7d48:	11d40500 	bicsne	r0, r4, r0, lsl #10
    7d4c:	0000063e 	andeq	r0, r0, lr, lsr r6
    7d50:	6c5f1143 	ldfvse	f1, [pc], {67}	; 0x43
    7d54:	d7050062 	strle	r0, [r5, -r2, rrx]
    7d58:	0002dd11 	andeq	sp, r2, r1, lsl sp
    7d5c:	3d0d4400 	cfstrscc	mvf4, [sp, #-0]
    7d60:	05000001 	streq	r0, [r0, #-1]
    7d64:	002507da 	ldrdeq	r0, [r5], -sl	; <UNPREDICTABLE>
    7d68:	0d4c0000 	stcleq	0, cr0, [ip, #-0]
    7d6c:	0000014e 	andeq	r0, r0, lr, asr #2
    7d70:	820adb05 	andhi	sp, sl, #5120	; 0x1400
    7d74:	50000000 	andpl	r0, r0, r0
    7d78:	000afa0d 	andeq	pc, sl, sp, lsl #20
    7d7c:	12de0500 	sbcsne	r0, lr, #0, 10
    7d80:	0000046c 	andeq	r0, r0, ip, ror #8
    7d84:	04220d54 	strteq	r0, [r2], #-3412	; 0xfffff2ac
    7d88:	e2050000 	and	r0, r5, #0
    7d8c:	0001090c 	andeq	r0, r1, ip, lsl #18
    7d90:	b60d5800 	strlt	r5, [sp], -r0, lsl #16
    7d94:	05000003 	streq	r0, [r0, #-3]
    7d98:	00fd0ee4 	rscseq	r0, sp, r4, ror #29
    7d9c:	0d5c0000 	ldcleq	0, cr0, [ip, #-0]
    7da0:	0000027b 	andeq	r0, r0, fp, ror r2
    7da4:	2509e505 	strcs	lr, [r9, #-1285]	; 0xfffffafb
    7da8:	64000000 	strvs	r0, [r0], #-0
    7dac:	00251500 	eoreq	r1, r5, r0, lsl #10
    7db0:	046c0000 	strbteq	r0, [ip], #-0
    7db4:	6c160000 	ldcvs	0, cr0, [r6], {-0}
    7db8:	16000004 	strne	r0, [r0], -r4
    7dbc:	00000115 	andeq	r0, r0, r5, lsl r1
    7dc0:	00011716 	andeq	r1, r1, r6, lsl r7
    7dc4:	00251600 	eoreq	r1, r5, r0, lsl #12
    7dc8:	05000000 	streq	r0, [r0, #-0]
    7dcc:	00047704 	andeq	r7, r4, r4, lsl #14
    7dd0:	046c0f00 	strbteq	r0, [ip], #-3840	; 0xfffff100
    7dd4:	0c170000 	ldceq	0, cr0, [r7], {-0}
    7dd8:	28000004 	stmdacs	r0, {r2}
    7ddc:	02600504 	rsbeq	r0, r0, #4, 10	; 0x1000000
    7de0:	0005c008 	andeq	ip, r5, r8
    7de4:	03701800 	cmneq	r0, #0, 16
    7de8:	62050000 	andvs	r0, r5, #0
    7dec:	00250702 	eoreq	r0, r5, r2, lsl #14
    7df0:	18000000 	stmdane	r0, {}	; <UNPREDICTABLE>
    7df4:	0000012e 	andeq	r0, r0, lr, lsr #2
    7df8:	0b026705 	bleq	a1a14 <__bss_end__+0x979b4>
    7dfc:	0000069a 	muleq	r0, sl, r6
    7e00:	01f81804 	mvnseq	r1, r4, lsl #16
    7e04:	67050000 	strvs	r0, [r5, -r0]
    7e08:	069a1402 	ldreq	r1, [sl], r2, lsl #8
    7e0c:	18080000 	stmdane	r8, {}	; <UNPREDICTABLE>
    7e10:	000001a8 	andeq	r0, r0, r8, lsr #3
    7e14:	1e026705 	cdpne	7, 0, cr6, cr2, cr5, {0}
    7e18:	0000069a 	muleq	r0, sl, r6
    7e1c:	03d7180c 	bicseq	r1, r7, #12, 16	; 0xc0000
    7e20:	69050000 	stmdbvs	r5, {}	; <UNPREDICTABLE>
    7e24:	00250802 	eoreq	r0, r5, r2, lsl #16
    7e28:	18100000 	ldmdane	r0, {}	; <UNPREDICTABLE>
    7e2c:	00000029 	andeq	r0, r0, r9, lsr #32
    7e30:	08026a05 	stmdaeq	r2, {r0, r2, r9, fp, sp, lr}
    7e34:	0000089a 	muleq	r0, sl, r8
    7e38:	03eb1814 	mvneq	r1, #20, 16	; 0x140000
    7e3c:	6d050000 	stcvs	0, cr0, [r5, #-0]
    7e40:	00250702 	eoreq	r0, r5, r2, lsl #14
    7e44:	18300000 	ldmdane	r0!, {}	; <UNPREDICTABLE>
    7e48:	00000a36 	andeq	r0, r0, r6, lsr sl
    7e4c:	16026e05 	strne	r6, [r2], -r5, lsl #28
    7e50:	000008af 	andeq	r0, r0, pc, lsr #17
    7e54:	02b21834 	adcseq	r1, r2, #52, 16	; 0x340000
    7e58:	70050000 	andvc	r0, r5, r0
    7e5c:	00250702 	eoreq	r0, r5, r2, lsl #14
    7e60:	18380000 	ldmdane	r8!, {}	; <UNPREDICTABLE>
    7e64:	000003e1 	andeq	r0, r0, r1, ror #7
    7e68:	0a027205 	beq	a4684 <__bss_end__+0x9a624>
    7e6c:	000008c0 	andeq	r0, r0, r0, asr #17
    7e70:	0257183c 	subseq	r1, r7, #60, 16	; 0x3c0000
    7e74:	75050000 	strvc	r0, [r5, #-0]
    7e78:	018f1302 	orreq	r1, pc, r2, lsl #6
    7e7c:	18400000 	stmdane	r0, {}^	; <UNPREDICTABLE>
    7e80:	000001c7 	andeq	r0, r0, r7, asr #3
    7e84:	07027605 	streq	r7, [r2, -r5, lsl #12]
    7e88:	00000025 	andeq	r0, r0, r5, lsr #32
    7e8c:	05241844 	streq	r1, [r4, #-2116]!	; 0xfffff7bc
    7e90:	77050000 	strvc	r0, [r5, -r0]
    7e94:	018f1302 	orreq	r1, pc, r2, lsl #6
    7e98:	18480000 	stmdane	r8, {}^	; <UNPREDICTABLE>
    7e9c:	000002c4 	andeq	r0, r0, r4, asr #5
    7ea0:	14027805 	strne	r7, [r2], #-2053	; 0xfffff7fb
    7ea4:	000008c6 	andeq	r0, r0, r6, asr #17
    7ea8:	0200184c 	andeq	r1, r0, #76, 16	; 0x4c0000
    7eac:	7b050000 	blvc	147eb4 <__bss_end__+0x13de54>
    7eb0:	00250702 	eoreq	r0, r5, r2, lsl #14
    7eb4:	18500000 	ldmdane	r0, {}^	; <UNPREDICTABLE>
    7eb8:	00000146 	andeq	r0, r0, r6, asr #2
    7ebc:	09027c05 	stmdbeq	r2, {r0, r2, sl, fp, ip, sp, lr}
    7ec0:	00000117 	andeq	r0, r0, r7, lsl r1
    7ec4:	02ea1854 	rsceq	r1, sl, #84, 16	; 0x540000
    7ec8:	9f050000 	svcls	0x00050000
    7ecc:	08750702 	ldmdaeq	r5!, {r1, r8, r9, sl}^
    7ed0:	19580000 	ldmdbne	r8, {}^	; <UNPREDICTABLE>
    7ed4:	000002aa 	andeq	r0, r0, sl, lsr #5
    7ed8:	1302a305 	movwne	sl, #8965	; 0x2305
    7edc:	000002c0 	andeq	r0, r0, r0, asr #5
    7ee0:	35190148 	ldrcc	r0, [r9, #-328]	; 0xfffffeb8
    7ee4:	05000002 	streq	r0, [r0, #-2]
    7ee8:	7d1202a4 	lfmvc	f0, 4, [r2, #-656]	; 0xfffffd70
    7eec:	4c000002 	stcmi	0, cr0, [r0], {2}
    7ef0:	04d01901 	ldrbeq	r1, [r0], #2305	; 0x901
    7ef4:	a8050000 	stmdage	r5, {}	; <UNPREDICTABLE>
    7ef8:	08d70c02 	ldmeq	r7, {r1, sl, fp}^
    7efc:	02dc0000 	sbcseq	r0, ip, #0
    7f00:	00011719 	andeq	r1, r1, r9, lsl r7
    7f04:	02ad0500 	adceq	r0, sp, #0, 10
    7f08:	00065b10 	andeq	r5, r6, r0, lsl fp
    7f0c:	1902e000 	stmdbne	r2, {sp, lr, pc}
    7f10:	000000fc 	strdeq	r0, [r0], -ip
    7f14:	0a02af05 	beq	b3b30 <__bss_end__+0xa9ad0>
    7f18:	000008e3 	andeq	r0, r0, r3, ror #17
    7f1c:	050002ec 	streq	r0, [r0, #-748]	; 0xfffffd14
    7f20:	00044e04 	andeq	r4, r4, r4, lsl #28
    7f24:	00251500 	eoreq	r1, r5, r0, lsl #10
    7f28:	05e40000 	strbeq	r0, [r4, #0]!
    7f2c:	6c160000 	ldcvs	0, cr0, [r6], {-0}
    7f30:	16000004 	strne	r0, [r0], -r4
    7f34:	00000115 	andeq	r0, r0, r5, lsl r1
    7f38:	0005e416 	andeq	lr, r5, r6, lsl r4
    7f3c:	00251600 	eoreq	r1, r5, r0, lsl #12
    7f40:	05000000 	streq	r0, [r0, #-0]
    7f44:	00012404 	andeq	r2, r1, r4, lsl #8
    7f48:	c6040500 	strgt	r0, [r4], -r0, lsl #10
    7f4c:	15000005 	strne	r0, [r0, #-5]
    7f50:	0000008e 	andeq	r0, r0, lr, lsl #1
    7f54:	0000060e 	andeq	r0, r0, lr, lsl #12
    7f58:	00046c16 	andeq	r6, r4, r6, lsl ip
    7f5c:	01151600 	tsteq	r5, r0, lsl #12
    7f60:	8e160000 	cdphi	0, 1, cr0, cr6, cr0, {0}
    7f64:	16000000 	strne	r0, [r0], -r0
    7f68:	00000025 	andeq	r0, r0, r5, lsr #32
    7f6c:	f0040500 			; <UNDEFINED> instruction: 0xf0040500
    7f70:	15000005 	strne	r0, [r0, #-5]
    7f74:	00000025 	andeq	r0, r0, r5, lsr #32
    7f78:	00000628 	andeq	r0, r0, r8, lsr #12
    7f7c:	00046c16 	andeq	r6, r4, r6, lsl ip
    7f80:	01151600 	tsteq	r5, r0, lsl #12
    7f84:	05000000 	streq	r0, [r0, #-0]
    7f88:	00061404 	andeq	r1, r6, r4, lsl #8
    7f8c:	004f0a00 	subeq	r0, pc, r0, lsl #20
    7f90:	063e0000 	ldrteq	r0, [lr], -r0
    7f94:	2c0b0000 	stccs	0, cr0, [fp], {-0}
    7f98:	02000000 	andeq	r0, r0, #0
    7f9c:	004f0a00 	subeq	r0, pc, r0, lsl #20
    7fa0:	064e0000 	strbeq	r0, [lr], -r0
    7fa4:	2c0b0000 	stccs	0, cr0, [fp], {-0}
    7fa8:	00000000 	andeq	r0, r0, r0
    7fac:	039c0700 	orrseq	r0, ip, #0, 14
    7fb0:	1f050000 	svcne	0x00050000
    7fb4:	030b1a01 	movweq	r1, #47617	; 0xba01
    7fb8:	b71a0000 	ldrlt	r0, [sl, -r0]
    7fbc:	0c000004 	stceq	0, cr0, [r0], {4}
    7fc0:	08012305 	stmdaeq	r1, {r0, r2, r8, r9, sp}
    7fc4:	00000694 	muleq	r0, r4, r6
    7fc8:	0003c418 	andeq	ip, r3, r8, lsl r4
    7fcc:	01250500 			; <UNDEFINED> instruction: 0x01250500
    7fd0:	00069411 	andeq	r9, r6, r1, lsl r4
    7fd4:	1b180000 	blne	607fdc <__bss_end__+0x5fdf7c>
    7fd8:	05000002 	streq	r0, [r0, #-2]
    7fdc:	25070126 	strcs	r0, [r7, #-294]	; 0xfffffeda
    7fe0:	04000000 	streq	r0, [r0], #-0
    7fe4:	00039618 	andeq	r9, r3, r8, lsl r6
    7fe8:	01270500 			; <UNDEFINED> instruction: 0x01270500
    7fec:	00069a0b 	andeq	r9, r6, fp, lsl #20
    7ff0:	05000800 	streq	r0, [r0, #-2048]	; 0xfffff800
    7ff4:	00065b04 	andeq	r5, r6, r4, lsl #22
    7ff8:	4e040500 	cfsh32mi	mvfx0, mvfx4, #0
    7ffc:	1a000006 	bne	801c <notmain+0xc>
    8000:	00000021 	andeq	r0, r0, r1, lsr #32
    8004:	013f050e 	teqeq	pc, lr, lsl #10
    8008:	0006d908 	andeq	sp, r6, r8, lsl #18
    800c:	04131800 	ldreq	r1, [r3], #-2048	; 0xfffff800
    8010:	40050000 	andmi	r0, r5, r0
    8014:	06d91201 	ldrbeq	r1, [r9], r1, lsl #4
    8018:	18000000 	stmdane	r0, {}	; <UNPREDICTABLE>
    801c:	00000447 	andeq	r0, r0, r7, asr #8
    8020:	12014105 	andne	r4, r1, #1073741825	; 0x40000001
    8024:	000006d9 	ldrdeq	r0, [r0], -r9
    8028:	04631806 	strbteq	r1, [r3], #-2054	; 0xfffff7fa
    802c:	42050000 	andmi	r0, r5, #0
    8030:	00561201 	subseq	r1, r6, r1, lsl #4
    8034:	000c0000 	andeq	r0, ip, r0
    8038:	0000560a 	andeq	r5, r0, sl, lsl #12
    803c:	0006e900 	andeq	lr, r6, r0, lsl #18
    8040:	002c0b00 	eoreq	r0, ip, r0, lsl #22
    8044:	00020000 	andeq	r0, r2, r0
    8048:	8005d01b 	andhi	sp, r5, fp, lsl r0
    804c:	07fe0702 	ldrbeq	r0, [lr, r2, lsl #14]!
    8050:	9b180000 	blls	608058 <__bss_end__+0x5fdff8>
    8054:	05000004 	streq	r0, [r0, #-4]
    8058:	2c180282 	lfmcs	f0, 4, [r8], {130}	; 0x82
    805c:	00000000 	andeq	r0, r0, r0
    8060:	00044d18 	andeq	r4, r4, r8, lsl sp
    8064:	02830500 	addeq	r0, r3, #0, 10
    8068:	00011712 	andeq	r1, r1, r2, lsl r7
    806c:	4a180400 	bmi	609074 <__bss_end__+0x5ff014>
    8070:	05000002 	streq	r0, [r0, #-2]
    8074:	fe100284 	cdp2	2, 1, cr0, cr0, cr4, {4}
    8078:	08000007 	stmdaeq	r0, {r0, r1, r2}
    807c:	0004fb18 	andeq	pc, r4, r8, lsl fp	; <UNPREDICTABLE>
    8080:	02850500 	addeq	r0, r5, #0, 10
    8084:	0001a517 	andeq	sl, r1, r7, lsl r5
    8088:	b8182400 	ldmdalt	r8, {sl, sp}
    808c:	05000001 	streq	r0, [r0, #-1]
    8090:	250f0286 	strcs	r0, [pc, #-646]	; 7e12 <_start-0x1ee>
    8094:	48000000 	stmdami	r0, {}	; <UNPREDICTABLE>
    8098:	0003bf18 	andeq	fp, r3, r8, lsl pc
    809c:	02870500 	addeq	r0, r7, #0, 10
    80a0:	0000642c 	andeq	r6, r0, ip, lsr #8
    80a4:	11185000 	tstne	r8, r0
    80a8:	05000005 	streq	r0, [r0, #-5]
    80ac:	a01a0288 	andsge	r0, sl, r8, lsl #5
    80b0:	58000006 	stmdapl	r0, {r1, r2}
    80b4:	0003ca18 	andeq	ip, r3, r8, lsl sl
    80b8:	02890500 	addeq	r0, r9, #0, 10
    80bc:	0000fd16 	andeq	pc, r0, r6, lsl sp	; <UNPREDICTABLE>
    80c0:	16186800 	ldrne	r6, [r8], -r0, lsl #16
    80c4:	05000005 	streq	r0, [r0, #-5]
    80c8:	fd16028a 	ldc2	2, cr0, [r6, #-552]	; 0xfffffdd8
    80cc:	70000000 	andvc	r0, r0, r0
    80d0:	0002ce18 	andeq	ip, r2, r8, lsl lr
    80d4:	028b0500 	addeq	r0, fp, #0, 10
    80d8:	0000fd16 	andeq	pc, r0, r6, lsl sp	; <UNPREDICTABLE>
    80dc:	c6187800 	ldrgt	r7, [r8], -r0, lsl #16
    80e0:	05000004 	streq	r0, [r0, #-4]
    80e4:	0e10028c 	cdpeq	2, 1, cr0, cr0, cr12, {4}
    80e8:	80000008 	andhi	r0, r0, r8
    80ec:	00023e18 	andeq	r3, r2, r8, lsl lr
    80f0:	028d0500 	addeq	r0, sp, #0, 10
    80f4:	00081e10 	andeq	r1, r8, r0, lsl lr
    80f8:	70188800 	andsvc	r8, r8, r0, lsl #16
    80fc:	05000004 	streq	r0, [r0, #-4]
    8100:	250f028e 	strcs	r0, [pc, #-654]	; 7e7a <_start-0x186>
    8104:	a0000000 	andge	r0, r0, r0
    8108:	00017e18 	andeq	r7, r1, r8, lsl lr
    810c:	028f0500 	addeq	r0, pc, #0, 10
    8110:	0000fd16 	andeq	pc, r0, r6, lsl sp	; <UNPREDICTABLE>
    8114:	8f18a400 	svchi	0x0018a400
    8118:	05000000 	streq	r0, [r0, #-0]
    811c:	fd160290 	ldc2	2, cr0, [r6, #-576]	; 0xfffffdc0
    8120:	ac000000 	stcge	0, cr0, [r0], {-0}
    8124:	00016d18 	andeq	r6, r1, r8, lsl sp
    8128:	02910500 	addseq	r0, r1, #0, 10
    812c:	0000fd16 	andeq	pc, r0, r6, lsl sp	; <UNPREDICTABLE>
    8130:	3c18b400 	cfldrscc	mvf11, [r8], {-0}
    8134:	05000000 	streq	r0, [r0, #-0]
    8138:	fd160292 	ldc2	2, cr0, [r6, #-584]	; 0xfffffdb8
    813c:	bc000000 	stclt	0, cr0, [r0], {-0}
    8140:	00004b18 	andeq	r4, r0, r8, lsl fp
    8144:	02930500 	addseq	r0, r3, #0, 10
    8148:	0000fd16 	andeq	pc, r0, r6, lsl sp	; <UNPREDICTABLE>
    814c:	6e18c400 	cfmulsvs	mvf12, mvf8, mvf0
    8150:	05000003 	streq	r0, [r0, #-3]
    8154:	25080294 	strcs	r0, [r8, #-660]	; 0xfffffd6c
    8158:	cc000000 	stcgt	0, cr0, [r0], {-0}
    815c:	011d0a00 	tsteq	sp, r0, lsl #20
    8160:	080e0000 	stmdaeq	lr, {}	; <UNPREDICTABLE>
    8164:	2c0b0000 	stccs	0, cr0, [fp], {-0}
    8168:	19000000 	stmdbne	r0, {}	; <UNPREDICTABLE>
    816c:	011d0a00 	tsteq	sp, r0, lsl #20
    8170:	081e0000 	ldmdaeq	lr, {}	; <UNPREDICTABLE>
    8174:	2c0b0000 	stccs	0, cr0, [fp], {-0}
    8178:	07000000 	streq	r0, [r0, -r0]
    817c:	011d0a00 	tsteq	sp, r0, lsl #20
    8180:	082e0000 	stmdaeq	lr!, {}	; <UNPREDICTABLE>
    8184:	2c0b0000 	stccs	0, cr0, [fp], {-0}
    8188:	17000000 	strne	r0, [r0, -r0]
    818c:	05f01b00 	ldrbeq	r1, [r0, #2816]!	; 0xb00
    8190:	55070299 	strpl	r0, [r7, #-665]	; 0xfffffd67
    8194:	18000008 	stmdane	r0, {r3}
    8198:	0000029a 	muleq	r0, sl, r2
    819c:	1b029c05 	blne	af1b8 <__bss_end__+0xa5158>
    81a0:	00000855 	andeq	r0, r0, r5, asr r8
    81a4:	04bd1800 	ldrteq	r1, [sp], #2048	; 0x800
    81a8:	9d050000 	stcls	0, cr0, [r5, #-0]
    81ac:	08651802 	stmdaeq	r5!, {r1, fp, ip}^
    81b0:	00780000 	rsbseq	r0, r8, r0
    81b4:	0003050a 	andeq	r0, r3, sl, lsl #10
    81b8:	00086500 	andeq	r6, r8, r0, lsl #10
    81bc:	002c0b00 	eoreq	r0, ip, r0, lsl #22
    81c0:	001d0000 	andseq	r0, sp, r0
    81c4:	00002c0a 	andeq	r2, r0, sl, lsl #24
    81c8:	00087500 	andeq	r7, r8, r0, lsl #10
    81cc:	002c0b00 	eoreq	r0, ip, r0, lsl #22
    81d0:	001d0000 	andseq	r0, sp, r0
    81d4:	7e05f01c 	mcrvc	0, 0, pc, cr5, cr12, {0}	; <UNPREDICTABLE>
    81d8:	089a0302 	ldmeq	sl, {r1, r8, r9}
    81dc:	0c1d0000 	ldceq	0, cr0, [sp], {-0}
    81e0:	05000004 	streq	r0, [r0, #-4]
    81e4:	e90b0295 	stmdb	fp, {r0, r2, r4, r7, r9}
    81e8:	1d000006 	stcne	0, cr0, [r0, #-24]	; 0xffffffe8
    81ec:	000004e8 	andeq	r0, r0, r8, ror #9
    81f0:	0b029e05 	bleq	afa0c <__bss_end__+0xa59ac>
    81f4:	0000082e 	andeq	r0, r0, lr, lsr #16
    81f8:	011d0a00 	tsteq	sp, r0, lsl #20
    81fc:	08aa0000 	stmiaeq	sl!, {}	; <UNPREDICTABLE>
    8200:	2c0b0000 	stccs	0, cr0, [fp], {-0}
    8204:	18000000 	stmdane	r0, {}	; <UNPREDICTABLE>
    8208:	00840600 	addeq	r0, r4, r0, lsl #12
    820c:	04050000 	streq	r0, [r5], #-0
    8210:	000008aa 	andeq	r0, r0, sl, lsr #17
    8214:	0008c01e 	andeq	ip, r8, lr, lsl r0
    8218:	046c1600 	strbteq	r1, [ip], #-1536	; 0xfffffa00
    821c:	05000000 	streq	r0, [r0, #-0]
    8220:	0008b504 	andeq	fp, r8, r4, lsl #10
    8224:	8f040500 	svchi	0x00040500
    8228:	1e000001 	cdpne	0, 0, cr0, cr0, cr1, {0}
    822c:	000008d7 	ldrdeq	r0, [r0], -r7
    8230:	00002516 	andeq	r2, r0, r6, lsl r5
    8234:	04050000 	streq	r0, [r5], #-0
    8238:	000008dd 	ldrdeq	r0, [r0], -sp
    823c:	08cc0405 	stmiaeq	ip, {r0, r2, sl}^
    8240:	4e0a0000 	cdpmi	0, 0, cr0, cr10, cr0, {0}
    8244:	f3000006 	vhadd.u8	d0, d0, d6
    8248:	0b000008 	bleq	8270 <hdr_cksum+0x14>
    824c:	0000002c 	andeq	r0, r0, ip, lsr #32
    8250:	841f0002 	ldrhi	r0, [pc], #-2	; 8258 <mark_mem+0x10>
    8254:	05000004 	streq	r0, [r0, #-4]
    8258:	6c17032e 	ldcvs	3, cr0, [r7], {46}	; 0x2e
    825c:	1f000004 	svcne	0x00000004
    8260:	0000047d 	andeq	r0, r0, sp, ror r4
    8264:	1d032f05 	stcne	15, cr2, [r3, #-20]	; 0xffffffec
    8268:	00000472 	andeq	r0, r0, r2, ror r4
    826c:	00002515 	andeq	r2, r0, r5, lsl r5
    8270:	00091c00 	andeq	r1, r9, r0, lsl #24
    8274:	00251600 	eoreq	r1, r5, r0, lsl #12
    8278:	20000000 	andcs	r0, r0, r0
    827c:	000001d1 	ldrdeq	r0, [r0], -r1
    8280:	280e1d06 	stmdacs	lr, {r1, r2, r8, sl, fp, ip}
    8284:	05000009 	streq	r0, [r0, #-9]
    8288:	00090d04 	andeq	r0, r9, r4, lsl #26
    828c:	00251500 	eoreq	r1, r5, r0, lsl #10
    8290:	093d0000 	ldmdbeq	sp!, {}	; <UNPREDICTABLE>
    8294:	e4160000 	ldr	r0, [r6], #-0
    8298:	00000005 	andeq	r0, r0, r5
    829c:	00077320 	andeq	r7, r7, r0, lsr #6
    82a0:	0e220600 	cfmadda32eq	mvax0, mvax0, mvfx2, mvfx0
    82a4:	00000949 	andeq	r0, r0, r9, asr #18
    82a8:	092e0405 	stmdbeq	lr!, {r0, r2, sl}
    82ac:	48210000 	stmdami	r1!, {}	; <UNPREDICTABLE>
    82b0:	01000008 	tsteq	r0, r8
    82b4:	90d0060d 	sbcsls	r0, r0, sp, lsl #12
    82b8:	002c0000 	eoreq	r0, ip, r0
    82bc:	9c010000 	stcls	0, cr0, [r1], {-0}
    82c0:	000009b8 			; <UNDEFINED> instruction: 0x000009b8
    82c4:	00085820 	andeq	r5, r8, r0, lsr #16
    82c8:	100e0100 	andne	r0, lr, r0, lsl #2
    82cc:	00000025 	andeq	r0, r0, r5, lsr #32
    82d0:	00086620 	andeq	r6, r8, r0, lsr #12
    82d4:	1f0e0100 	svcne	0x000e0100
    82d8:	00000025 	andeq	r0, r0, r5, lsr #32
    82dc:	00003422 	andeq	r3, r0, r2, lsr #8
    82e0:	070f0100 	streq	r0, [pc, -r0, lsl #2]
    82e4:	73736223 	cmnvc	r3, #805306370	; 0x30000002
    82e8:	0a110100 	beq	4486f0 <__bss_end__+0x43e690>
    82ec:	000009b8 			; <UNDEFINED> instruction: 0x000009b8
    82f0:	000011aa 	andeq	r1, r0, sl, lsr #3
    82f4:	000011a4 	andeq	r1, r0, r4, lsr #3
    82f8:	00085024 	andeq	r5, r8, r4, lsr #32
    82fc:	0a120100 	beq	488704 <__bss_end__+0x47e6a4>
    8300:	000009b8 			; <UNDEFINED> instruction: 0x000009b8
    8304:	0090f025 	addseq	pc, r0, r5, lsr #32
    8308:	0009be00 	andeq	fp, r9, r0, lsl #28
    830c:	90f42500 	rscsls	r2, r4, r0, lsl #10
    8310:	09ca0000 	stmibeq	sl, {}^	; <UNPREDICTABLE>
    8314:	05000000 	streq	r0, [r0, #-0]
    8318:	00002504 	andeq	r2, r0, r4, lsl #10
    831c:	00342600 	eorseq	r2, r4, r0, lsl #12
    8320:	00340000 	eorseq	r0, r4, r0
    8324:	d7060000 	strle	r0, [r6, -r0]
    8328:	028d2606 	addeq	r2, sp, #6291456	; 0x600000
    832c:	028d0000 	addeq	r0, sp, #0
    8330:	65060000 	strvs	r0, [r6, #-0]
    8334:	0a9b0006 	beq	fe6c8354 <__bss_end__+0xfe6be2f4>
    8338:	00040000 	andeq	r0, r4, r0
    833c:	00001a2a 	andeq	r1, r0, sl, lsr #20
    8340:	02ef0104 	rsceq	r0, pc, #4, 2
    8344:	b20c0000 	andlt	r0, ip, #0
    8348:	cc000008 	stcgt	0, cr0, [r0], {8}
    834c:	68000006 	stmdavs	r0, {r1, r2}
    8350:	00000000 	andeq	r0, r0, r0
    8354:	ff000000 			; <UNDEFINED> instruction: 0xff000000
    8358:	02000016 	andeq	r0, r0, #22
    835c:	6e690504 	cdpvs	5, 6, cr0, cr9, cr4, {0}
    8360:	25030074 	strcs	r0, [r3, #-116]	; 0xffffff8c
    8364:	04000000 	streq	r0, [r0], #-0
    8368:	00660704 	rsbeq	r0, r6, r4, lsl #14
    836c:	01040000 	mrseq	r0, (UNDEF: 4)
    8370:	0002de06 	andeq	sp, r2, r6, lsl #28
    8374:	05020400 	streq	r0, [r2, #-1024]	; 0xfffffc00
    8378:	00000377 	andeq	r0, r0, r7, ror r3
    837c:	ac050404 	cfstrsge	mvf0, [r5], {4}
    8380:	04000000 	streq	r0, [r0], #-0
    8384:	00a70508 	adceq	r0, r7, r8, lsl #10
    8388:	01040000 	mrseq	r0, (UNDEF: 4)
    838c:	0002dc08 	andeq	sp, r2, r8, lsl #24
    8390:	07020400 	streq	r0, [r2, -r0, lsl #8]
    8394:	00000222 	andeq	r0, r0, r2, lsr #4
    8398:	61070404 	tstvs	r7, r4, lsl #8
    839c:	04000000 	streq	r0, [r0], #-0
    83a0:	005c0708 	subseq	r0, ip, r8, lsl #14
    83a4:	65050000 	strvs	r0, [r5, #-0]
    83a8:	02000002 	andeq	r0, r0, #2
    83ac:	007c1922 	rsbseq	r1, ip, r2, lsr #18
    83b0:	04060000 	streq	r0, [r6], #-0
    83b4:	00000082 	andeq	r0, r0, r2, lsl #1
    83b8:	00042107 	andeq	r2, r4, r7, lsl #2
    83bc:	02bd0500 	adcseq	r0, sp, #0, 10
    83c0:	2c030000 	stccs	0, cr0, [r3], {-0}
    83c4:	0000460e 	andeq	r4, r0, lr, lsl #12
    83c8:	04360500 	ldrteq	r0, [r6], #-1280	; 0xfffffb00
    83cc:	72030000 	andvc	r0, r3, #0
    83d0:	0000460e 	andeq	r4, r0, lr, lsl #12
    83d4:	026d0800 	rsbeq	r0, sp, #0, 16
    83d8:	5e040000 	cdppl	0, 0, cr0, cr4, cr0, {0}
    83dc:	00311701 	eorseq	r1, r1, r1, lsl #14
    83e0:	04090000 	streq	r0, [r9], #-0
    83e4:	ce03a603 	cfmadd32gt	mvax0, mvfx10, mvfx3, mvfx3
    83e8:	0a000000 	beq	83f0 <check_mem+0x88>
    83ec:	0000025f 	andeq	r0, r0, pc, asr r2
    83f0:	9f0ca803 	svcls	0x000ca803
    83f4:	0a000000 	beq	83fc <check_mem+0x94>
    83f8:	000001e2 	andeq	r0, r0, r2, ror #3
    83fc:	ce13a903 	vnmlsgt.f16	s20, s6, s6	; <UNPREDICTABLE>
    8400:	00000000 	andeq	r0, r0, r0
    8404:	0000540b 	andeq	r5, r0, fp, lsl #8
    8408:	0000de00 	andeq	sp, r0, r0, lsl #28
    840c:	00310c00 	eorseq	r0, r1, r0, lsl #24
    8410:	00030000 	andeq	r0, r3, r0
    8414:	a303080d 	movwge	r0, #14349	; 0x380d
    8418:	00010209 	andeq	r0, r1, r9, lsl #4
    841c:	04190e00 	ldreq	r0, [r9], #-3584	; 0xfffff200
    8420:	a5030000 	strge	r0, [r3, #-0]
    8424:	00002507 	andeq	r2, r0, r7, lsl #10
    8428:	280e0000 	stmdacs	lr, {}	; <UNPREDICTABLE>
    842c:	03000004 	movweq	r0, #4
    8430:	00ac05aa 	adceq	r0, ip, sl, lsr #11
    8434:	00040000 	andeq	r0, r4, r0
    8438:	0003a305 	andeq	sl, r3, r5, lsl #6
    843c:	03ab0300 			; <UNDEFINED> instruction: 0x03ab0300
    8440:	000000de 	ldrdeq	r0, [r0], -lr
    8444:	00019f05 	andeq	r9, r1, r5, lsl #30
    8448:	1baf0300 	blne	febc9050 <__bss_end__+0xfebbeff0>
    844c:	00000070 	andeq	r0, r0, r0, ror r0
    8450:	0406040f 	streq	r0, [r6], #-1039	; 0xfffffbf1
    8454:	00000122 	andeq	r0, r0, r2, lsr #2
    8458:	e5080104 	str	r0, [r8, #-260]	; 0xfffffefc
    845c:	03000002 	movweq	r0, #2
    8460:	00000122 	andeq	r0, r0, r2, lsr #2
    8464:	00046805 	andeq	r6, r4, r5, lsl #16
    8468:	19160500 	ldmdbne	r6, {r8, sl}
    846c:	00000062 	andeq	r0, r0, r2, rrx
    8470:	0001b010 	andeq	fp, r1, r0, lsl r0
    8474:	2f051800 	svccs	0x00051800
    8478:	00019408 	andeq	r9, r1, r8, lsl #8
    847c:	03c40e00 	biceq	r0, r4, #0, 28
    8480:	31050000 	mrscc	r0, (UNDEF: 5)
    8484:	00019413 	andeq	r9, r1, r3, lsl r4
    8488:	5f110000 	svcpl	0x00110000
    848c:	3205006b 	andcc	r0, r5, #107	; 0x6b
    8490:	00002507 	andeq	r2, r0, r7, lsl #10
    8494:	040e0400 	streq	r0, [lr], #-1024	; 0xfffffc00
    8498:	05000004 	streq	r0, [r0, #-4]
    849c:	00250b32 	eoreq	r0, r5, r2, lsr fp
    84a0:	0e080000 	cdpeq	0, 0, cr0, cr8, cr0, {0}
    84a4:	00000199 	muleq	r0, r9, r1
    84a8:	25143205 	ldrcs	r3, [r4, #-517]	; 0xfffffdfb
    84ac:	0c000000 	stceq	0, cr0, [r0], {-0}
    84b0:	0004a80e 	andeq	sl, r4, lr, lsl #16
    84b4:	1b320500 	blne	c898bc <__bss_end__+0xc7f85c>
    84b8:	00000025 	andeq	r0, r0, r5, lsr #32
    84bc:	785f1110 	ldmdavc	pc, {r4, r8, ip}^	; <UNPREDICTABLE>
    84c0:	0b330500 	bleq	cc98c8 <__bss_end__+0xcbf868>
    84c4:	0000019a 	muleq	r0, sl, r1
    84c8:	04060014 	streq	r0, [r6], #-20	; 0xffffffec
    84cc:	0000013a 	andeq	r0, r0, sl, lsr r1
    84d0:	00012e0b 	andeq	r2, r1, fp, lsl #28
    84d4:	0001aa00 	andeq	sl, r1, r0, lsl #20
    84d8:	00310c00 	eorseq	r0, r1, r0, lsl #24
    84dc:	00000000 	andeq	r0, r0, r0
    84e0:	0001dd10 	andeq	sp, r1, r0, lsl sp
    84e4:	37052400 	strcc	r2, [r5, -r0, lsl #8]
    84e8:	00022d08 	andeq	r2, r2, r8, lsl #26
    84ec:	009e0e00 	addseq	r0, lr, r0, lsl #28
    84f0:	39050000 	stmdbcc	r5, {}	; <UNPREDICTABLE>
    84f4:	00002509 	andeq	r2, r0, r9, lsl #10
    84f8:	3e0e0000 	cdpcc	0, 0, cr0, cr14, cr0, {0}
    84fc:	05000004 	streq	r0, [r0, #-4]
    8500:	0025093a 	eoreq	r0, r5, sl, lsr r9
    8504:	0e040000 	cdpeq	0, 0, cr0, cr4, cr0, {0}
    8508:	000000c1 	andeq	r0, r0, r1, asr #1
    850c:	25093b05 	strcs	r3, [r9, #-2821]	; 0xfffff4fb
    8510:	08000000 	stmdaeq	r0, {}	; <UNPREDICTABLE>
    8514:	0005330e 	andeq	r3, r5, lr, lsl #6
    8518:	093c0500 	ldmdbeq	ip!, {r8, sl}
    851c:	00000025 	andeq	r0, r0, r5, lsr #32
    8520:	02a10e0c 	adceq	r0, r1, #12, 28	; 0xc0
    8524:	3d050000 	stccc	0, cr0, [r5, #-0]
    8528:	00002509 	andeq	r2, r0, r9, lsl #10
    852c:	830e1000 	movwhi	r1, #57344	; 0xe000
    8530:	05000002 	streq	r0, [r0, #-2]
    8534:	0025093e 	eoreq	r0, r5, lr, lsr r9
    8538:	0e140000 	cdpeq	0, 1, cr0, cr4, cr0, {0}
    853c:	000004ad 	andeq	r0, r0, sp, lsr #9
    8540:	25093f05 	strcs	r3, [r9, #-3845]	; 0xfffff0fb
    8544:	18000000 	stmdane	r0, {}	; <UNPREDICTABLE>
    8548:	0005290e 	andeq	r2, r5, lr, lsl #18
    854c:	09400500 	stmdbeq	r0, {r8, sl}^
    8550:	00000025 	andeq	r0, r0, r5, lsr #32
    8554:	04f00e1c 	ldrbteq	r0, [r0], #3612	; 0xe1c
    8558:	41050000 	mrsmi	r0, (UNDEF: 5)
    855c:	00002509 	andeq	r2, r0, r9, lsl #10
    8560:	12002000 	andne	r2, r0, #0
    8564:	00000101 	andeq	r0, r0, r1, lsl #2
    8568:	4a050108 	bmi	148990 <__bss_end__+0x13e930>
    856c:	00027208 	andeq	r7, r2, r8, lsl #4
    8570:	018c0e00 	orreq	r0, ip, r0, lsl #28
    8574:	4b050000 	blmi	14857c <__bss_end__+0x13e51c>
    8578:	0002720a 	andeq	r7, r2, sl, lsl #4
    857c:	000e0000 	andeq	r0, lr, r0
    8580:	05000000 	streq	r0, [r0, #-0]
    8584:	0272094c 	rsbseq	r0, r2, #76, 18	; 0x130000
    8588:	13800000 	orrne	r0, r0, #0
    858c:	0000045a 	andeq	r0, r0, sl, asr r4
    8590:	2e0a4e05 	cdpcs	14, 0, cr4, cr10, cr5, {0}
    8594:	00000001 	andeq	r0, r0, r1
    8598:	01261301 			; <UNDEFINED> instruction: 0x01261301
    859c:	51050000 	mrspl	r0, (UNDEF: 5)
    85a0:	00012e0a 	andeq	r2, r1, sl, lsl #28
    85a4:	00010400 	andeq	r0, r1, r0, lsl #8
    85a8:	00011a0b 	andeq	r1, r1, fp, lsl #20
    85ac:	00028200 	andeq	r8, r2, r0, lsl #4
    85b0:	00310c00 	eorseq	r0, r1, r0, lsl #24
    85b4:	001f0000 	andseq	r0, pc, r0
    85b8:	0002aa12 	andeq	sl, r2, r2, lsl sl
    85bc:	05019000 	streq	r9, [r1, #-0]
    85c0:	02c5085d 	sbceq	r0, r5, #6094848	; 0x5d0000
    85c4:	c40e0000 	strgt	r0, [lr], #-0
    85c8:	05000003 	streq	r0, [r0, #-3]
    85cc:	02c5125e 	sbceq	r1, r5, #-536870907	; 0xe0000005
    85d0:	0e000000 	cdpeq	0, 0, cr0, cr0, cr0, {0}
    85d4:	000003dc 	ldrdeq	r0, [r0], -ip
    85d8:	25065f05 	strcs	r5, [r6, #-3845]	; 0xfffff0fb
    85dc:	04000000 	streq	r0, [r0], #-0
    85e0:	0001940e 	andeq	r9, r1, lr, lsl #8
    85e4:	09610500 	stmdbeq	r1!, {r8, sl}^
    85e8:	000002cb 	andeq	r0, r0, fp, asr #5
    85ec:	01010e08 	tsteq	r1, r8, lsl #28
    85f0:	62050000 	andvs	r0, r5, #0
    85f4:	00022d1e 	andeq	r2, r2, lr, lsl sp
    85f8:	06008800 	streq	r8, [r0], -r0, lsl #16
    85fc:	00028204 	andeq	r8, r2, r4, lsl #4
    8600:	02db0b00 	sbcseq	r0, fp, #0, 22
    8604:	02db0000 	sbcseq	r0, fp, #0
    8608:	310c0000 	mrscc	r0, (UNDEF: 12)
    860c:	1f000000 	svcne	0x00000000
    8610:	e1040600 	tst	r4, r0, lsl #12
    8614:	14000002 	strne	r0, [r0], #-2
    8618:	00038f10 	andeq	r8, r3, r0, lsl pc
    861c:	75050800 	strvc	r0, [r5, #-2048]	; 0xfffff800
    8620:	00030a08 	andeq	r0, r3, r8, lsl #20
    8624:	00bb0e00 	adcseq	r0, fp, r0, lsl #28
    8628:	76050000 	strvc	r0, [r5], -r0
    862c:	00030a11 	andeq	r0, r3, r1, lsl sl
    8630:	1b0e0000 	blne	388638 <__bss_end__+0x37e5d8>
    8634:	05000000 	streq	r0, [r0, #-0]
    8638:	00250677 	eoreq	r0, r5, r7, ror r6
    863c:	00040000 	andeq	r0, r4, r0
    8640:	00540406 	subseq	r0, r4, r6, lsl #8
    8644:	ae100000 	cdpge	0, 1, cr0, cr0, cr0, {0}
    8648:	68000003 	stmdavs	r0, {r0, r1}
    864c:	5308b505 	movwpl	fp, #34053	; 0x8505
    8650:	11000004 	tstne	r0, r4
    8654:	0500705f 	streq	r7, [r0, #-95]	; 0xffffffa1
    8658:	030a12b6 	movweq	r1, #41654	; 0xa2b6
    865c:	11000000 	mrsne	r0, (UNDEF: 0)
    8660:	0500725f 	streq	r7, [r0, #-607]	; 0xfffffda1
    8664:	002507b7 	strhteq	r0, [r5], -r7
    8668:	11040000 	mrsne	r0, (UNDEF: 4)
    866c:	0500775f 	streq	r7, [r0, #-1887]	; 0xfffff8a1
    8670:	002507b8 	strhteq	r0, [r5], -r8
    8674:	0e080000 	cdpeq	0, 0, cr0, cr8, cr0, {0}
    8678:	0000011f 	andeq	r0, r0, pc, lsl r1
    867c:	3f09b905 	svccc	0x0009b905
    8680:	0c000000 	stceq	0, cr0, [r0], {-0}
    8684:	0002080e 	andeq	r0, r2, lr, lsl #16
    8688:	09ba0500 	ldmibeq	sl!, {r8, sl}
    868c:	0000003f 	andeq	r0, r0, pc, lsr r0
    8690:	625f110e 	subsvs	r1, pc, #-2147483645	; 0x80000003
    8694:	bb050066 	bllt	148834 <__bss_end__+0x13e7d4>
    8698:	0002e211 	andeq	lr, r2, r1, lsl r2
    869c:	7b0e1000 	blvc	38c6a4 <__bss_end__+0x382644>
    86a0:	05000000 	streq	r0, [r0, #-0]
    86a4:	002507bc 	strhteq	r0, [r5], -ip
    86a8:	0e180000 	cdpeq	0, 1, cr0, cr8, cr0, {0}
    86ac:	0000010f 	andeq	r0, r0, pc, lsl #2
    86b0:	1a0ac305 	bne	2b92cc <__bss_end__+0x2af26c>
    86b4:	1c000001 	stcne	0, cr0, [r0], {1}
    86b8:	000b590e 	andeq	r5, fp, lr, lsl #18
    86bc:	1dc50500 	cfstr64ne	mvdx0, [r5]
    86c0:	000005c5 	andeq	r0, r0, r5, asr #11
    86c4:	061d0e20 	ldreq	r0, [sp], -r0, lsr #28
    86c8:	c7050000 	strgt	r0, [r5, -r0]
    86cc:	0005ef1d 	andeq	lr, r5, sp, lsl pc
    86d0:	300e2400 	andcc	r2, lr, r0, lsl #8
    86d4:	05000004 	streq	r0, [r0, #-4]
    86d8:	06130dca 	ldreq	r0, [r3], -sl, asr #27
    86dc:	0e280000 	cdpeq	0, 2, cr0, cr8, cr0, {0}
    86e0:	0000050a 	andeq	r0, r0, sl, lsl #10
    86e4:	2d09cb05 	vstrcs	d12, [r9, #-20]	; 0xffffffec
    86e8:	2c000006 	stccs	0, cr0, [r0], {6}
    86ec:	62755f11 	rsbsvs	r5, r5, #17, 30	; 0x44
    86f0:	11ce0500 	bicne	r0, lr, r0, lsl #10
    86f4:	000002e2 	andeq	r0, r0, r2, ror #5
    86f8:	755f1130 	ldrbvc	r1, [pc, #-304]	; 85d0 <ckfree+0x94>
    86fc:	cf050070 	svcgt	0x00050070
    8700:	00030a12 	andeq	r0, r3, r2, lsl sl
    8704:	5f113800 	svcpl	0x00113800
    8708:	05007275 	streq	r7, [r0, #-629]	; 0xfffffd8b
    870c:	002507d0 	ldrdeq	r0, [r5], -r0	; <UNPREDICTABLE>
    8710:	0e3c0000 	cdpeq	0, 3, cr0, cr12, cr0, {0}
    8714:	000000b5 	strheq	r0, [r0], -r5
    8718:	3311d305 	tstcc	r1, #335544320	; 0x14000000
    871c:	40000006 	andmi	r0, r0, r6
    8720:	0004e20e 	andeq	lr, r4, lr, lsl #4
    8724:	11d40500 	bicsne	r0, r4, r0, lsl #10
    8728:	00000643 	andeq	r0, r0, r3, asr #12
    872c:	6c5f1143 	ldfvse	f1, [pc], {67}	; 0x43
    8730:	d7050062 	strle	r0, [r5, -r2, rrx]
    8734:	0002e211 	andeq	lr, r2, r1, lsl r2
    8738:	3d0e4400 	cfstrscc	mvf4, [lr, #-0]
    873c:	05000001 	streq	r0, [r0, #-1]
    8740:	002507da 	ldrdeq	r0, [r5], -sl	; <UNPREDICTABLE>
    8744:	0e4c0000 	cdpeq	0, 4, cr0, cr12, cr0, {0}
    8748:	0000014e 	andeq	r0, r0, lr, asr #2
    874c:	870adb05 	strhi	sp, [sl, -r5, lsl #22]
    8750:	50000000 	andpl	r0, r0, r0
    8754:	000afa0e 	andeq	pc, sl, lr, lsl #20
    8758:	12de0500 	sbcsne	r0, lr, #0, 10
    875c:	00000471 	andeq	r0, r0, r1, ror r4
    8760:	04220e54 	strteq	r0, [r2], #-3668	; 0xfffff1ac
    8764:	e2050000 	and	r0, r5, #0
    8768:	00010e0c 	andeq	r0, r1, ip, lsl #28
    876c:	b60e5800 	strlt	r5, [lr], -r0, lsl #16
    8770:	05000003 	streq	r0, [r0, #-3]
    8774:	01020ee4 	smlatteq	r2, r4, lr, r0
    8778:	0e5c0000 	cdpeq	0, 5, cr0, cr12, cr0, {0}
    877c:	0000027b 	andeq	r0, r0, fp, ror r2
    8780:	2509e505 	strcs	lr, [r9, #-1285]	; 0xfffffafb
    8784:	64000000 	strvs	r0, [r0], #-0
    8788:	00251500 	eoreq	r1, r5, r0, lsl #10
    878c:	04710000 	ldrbteq	r0, [r1], #-0
    8790:	71160000 	tstvc	r6, r0
    8794:	16000004 	strne	r0, [r0], -r4
    8798:	0000011a 	andeq	r0, r0, sl, lsl r1
    879c:	00011c16 	andeq	r1, r1, r6, lsl ip
    87a0:	00251600 	eoreq	r1, r5, r0, lsl #12
    87a4:	06000000 	streq	r0, [r0], -r0
    87a8:	00047c04 	andeq	r7, r4, r4, lsl #24
    87ac:	04710300 	ldrbteq	r0, [r1], #-768	; 0xfffffd00
    87b0:	0c170000 	ldceq	0, cr0, [r7], {-0}
    87b4:	28000004 	stmdacs	r0, {r2}
    87b8:	02600504 	rsbeq	r0, r0, #4, 10	; 0x1000000
    87bc:	0005c508 	andeq	ip, r5, r8, lsl #10
    87c0:	03701800 	cmneq	r0, #0, 16
    87c4:	62050000 	andvs	r0, r5, #0
    87c8:	00250702 	eoreq	r0, r5, r2, lsl #14
    87cc:	18000000 	stmdane	r0, {}	; <UNPREDICTABLE>
    87d0:	0000012e 	andeq	r0, r0, lr, lsr #2
    87d4:	0b026705 	bleq	a23f0 <__bss_end__+0x98390>
    87d8:	0000069f 	muleq	r0, pc, r6	; <UNPREDICTABLE>
    87dc:	01f81804 	mvnseq	r1, r4, lsl #16
    87e0:	67050000 	strvs	r0, [r5, -r0]
    87e4:	069f1402 	ldreq	r1, [pc], r2, lsl #8
    87e8:	18080000 	stmdane	r8, {}	; <UNPREDICTABLE>
    87ec:	000001a8 	andeq	r0, r0, r8, lsr #3
    87f0:	1e026705 	cdpne	7, 0, cr6, cr2, cr5, {0}
    87f4:	0000069f 	muleq	r0, pc, r6	; <UNPREDICTABLE>
    87f8:	03d7180c 	bicseq	r1, r7, #12, 16	; 0xc0000
    87fc:	69050000 	stmdbvs	r5, {}	; <UNPREDICTABLE>
    8800:	00250802 	eoreq	r0, r5, r2, lsl #16
    8804:	18100000 	ldmdane	r0, {}	; <UNPREDICTABLE>
    8808:	00000029 	andeq	r0, r0, r9, lsr #32
    880c:	08026a05 	stmdaeq	r2, {r0, r2, r9, fp, sp, lr}
    8810:	0000089f 	muleq	r0, pc, r8	; <UNPREDICTABLE>
    8814:	03eb1814 	mvneq	r1, #20, 16	; 0x140000
    8818:	6d050000 	stcvs	0, cr0, [r5, #-0]
    881c:	00250702 	eoreq	r0, r5, r2, lsl #14
    8820:	18300000 	ldmdane	r0!, {}	; <UNPREDICTABLE>
    8824:	00000a36 	andeq	r0, r0, r6, lsr sl
    8828:	16026e05 	strne	r6, [r2], -r5, lsl #28
    882c:	000008b4 			; <UNDEFINED> instruction: 0x000008b4
    8830:	02b21834 	adcseq	r1, r2, #52, 16	; 0x340000
    8834:	70050000 	andvc	r0, r5, r0
    8838:	00250702 	eoreq	r0, r5, r2, lsl #14
    883c:	18380000 	ldmdane	r8!, {}	; <UNPREDICTABLE>
    8840:	000003e1 	andeq	r0, r0, r1, ror #7
    8844:	0a027205 	beq	a5060 <__bss_end__+0x9b000>
    8848:	000008c5 	andeq	r0, r0, r5, asr #17
    884c:	0257183c 	subseq	r1, r7, #60, 16	; 0x3c0000
    8850:	75050000 	strvc	r0, [r5, #-0]
    8854:	01941302 	orrseq	r1, r4, r2, lsl #6
    8858:	18400000 	stmdane	r0, {}^	; <UNPREDICTABLE>
    885c:	000001c7 	andeq	r0, r0, r7, asr #3
    8860:	07027605 	streq	r7, [r2, -r5, lsl #12]
    8864:	00000025 	andeq	r0, r0, r5, lsr #32
    8868:	05241844 	streq	r1, [r4, #-2116]!	; 0xfffff7bc
    886c:	77050000 	strvc	r0, [r5, -r0]
    8870:	01941302 	orrseq	r1, r4, r2, lsl #6
    8874:	18480000 	stmdane	r8, {}^	; <UNPREDICTABLE>
    8878:	000002c4 	andeq	r0, r0, r4, asr #5
    887c:	14027805 	strne	r7, [r2], #-2053	; 0xfffff7fb
    8880:	000008cb 	andeq	r0, r0, fp, asr #17
    8884:	0200184c 	andeq	r1, r0, #76, 16	; 0x4c0000
    8888:	7b050000 	blvc	148890 <__bss_end__+0x13e830>
    888c:	00250702 	eoreq	r0, r5, r2, lsl #14
    8890:	18500000 	ldmdane	r0, {}^	; <UNPREDICTABLE>
    8894:	00000146 	andeq	r0, r0, r6, asr #2
    8898:	09027c05 	stmdbeq	r2, {r0, r2, sl, fp, ip, sp, lr}
    889c:	0000011c 	andeq	r0, r0, ip, lsl r1
    88a0:	02ea1854 	rsceq	r1, sl, #84, 16	; 0x540000
    88a4:	9f050000 	svcls	0x00050000
    88a8:	087a0702 	ldmdaeq	sl!, {r1, r8, r9, sl}^
    88ac:	19580000 	ldmdbne	r8, {}^	; <UNPREDICTABLE>
    88b0:	000002aa 	andeq	r0, r0, sl, lsr #5
    88b4:	1302a305 	movwne	sl, #8965	; 0x2305
    88b8:	000002c5 	andeq	r0, r0, r5, asr #5
    88bc:	35190148 	ldrcc	r0, [r9, #-328]	; 0xfffffeb8
    88c0:	05000002 	streq	r0, [r0, #-2]
    88c4:	821202a4 	andshi	r0, r2, #164, 4	; 0x4000000a
    88c8:	4c000002 	stcmi	0, cr0, [r0], {2}
    88cc:	04d01901 	ldrbeq	r1, [r0], #2305	; 0x901
    88d0:	a8050000 	stmdage	r5, {}	; <UNPREDICTABLE>
    88d4:	08dc0c02 	ldmeq	ip, {r1, sl, fp}^
    88d8:	02dc0000 	sbcseq	r0, ip, #0
    88dc:	00011719 	andeq	r1, r1, r9, lsl r7
    88e0:	02ad0500 	adceq	r0, sp, #0, 10
    88e4:	00066010 	andeq	r6, r6, r0, lsl r0
    88e8:	1902e000 	stmdbne	r2, {sp, lr, pc}
    88ec:	000000fc 	strdeq	r0, [r0], -ip
    88f0:	0a02af05 	beq	b450c <__bss_end__+0xaa4ac>
    88f4:	000008e8 	andeq	r0, r0, r8, ror #17
    88f8:	060002ec 	streq	r0, [r0], -ip, ror #5
    88fc:	00045304 	andeq	r5, r4, r4, lsl #6
    8900:	00251500 	eoreq	r1, r5, r0, lsl #10
    8904:	05e90000 	strbeq	r0, [r9, #0]!
    8908:	71160000 	tstvc	r6, r0
    890c:	16000004 	strne	r0, [r0], -r4
    8910:	0000011a 	andeq	r0, r0, sl, lsl r1
    8914:	0005e916 	andeq	lr, r5, r6, lsl r9
    8918:	00251600 	eoreq	r1, r5, r0, lsl #12
    891c:	06000000 	streq	r0, [r0], -r0
    8920:	00012904 	andeq	r2, r1, r4, lsl #18
    8924:	cb040600 	blgt	10a12c <__bss_end__+0x1000cc>
    8928:	15000005 	strne	r0, [r0, #-5]
    892c:	00000093 	muleq	r0, r3, r0
    8930:	00000613 	andeq	r0, r0, r3, lsl r6
    8934:	00047116 	andeq	r7, r4, r6, lsl r1
    8938:	011a1600 	tsteq	sl, r0, lsl #12
    893c:	93160000 	tstls	r6, #0
    8940:	16000000 	strne	r0, [r0], -r0
    8944:	00000025 	andeq	r0, r0, r5, lsr #32
    8948:	f5040600 			; <UNDEFINED> instruction: 0xf5040600
    894c:	15000005 	strne	r0, [r0, #-5]
    8950:	00000025 	andeq	r0, r0, r5, lsr #32
    8954:	0000062d 	andeq	r0, r0, sp, lsr #12
    8958:	00047116 	andeq	r7, r4, r6, lsl r1
    895c:	011a1600 	tsteq	sl, r0, lsl #12
    8960:	06000000 	streq	r0, [r0], -r0
    8964:	00061904 	andeq	r1, r6, r4, lsl #18
    8968:	00540b00 	subseq	r0, r4, r0, lsl #22
    896c:	06430000 	strbeq	r0, [r3], -r0
    8970:	310c0000 	mrscc	r0, (UNDEF: 12)
    8974:	02000000 	andeq	r0, r0, #0
    8978:	00540b00 	subseq	r0, r4, r0, lsl #22
    897c:	06530000 	ldrbeq	r0, [r3], -r0
    8980:	310c0000 	mrscc	r0, (UNDEF: 12)
    8984:	00000000 	andeq	r0, r0, r0
    8988:	039c0800 	orrseq	r0, ip, #0, 16
    898c:	1f050000 	svcne	0x00050000
    8990:	03101a01 	tsteq	r0, #4096	; 0x1000
    8994:	b71a0000 	ldrlt	r0, [sl, -r0]
    8998:	0c000004 	stceq	0, cr0, [r0], {4}
    899c:	08012305 	stmdaeq	r1, {r0, r2, r8, r9, sp}
    89a0:	00000699 	muleq	r0, r9, r6
    89a4:	0003c418 	andeq	ip, r3, r8, lsl r4
    89a8:	01250500 			; <UNDEFINED> instruction: 0x01250500
    89ac:	00069911 	andeq	r9, r6, r1, lsl r9
    89b0:	1b180000 	blne	6089b8 <__bss_end__+0x5fe958>
    89b4:	05000002 	streq	r0, [r0, #-2]
    89b8:	25070126 	strcs	r0, [r7, #-294]	; 0xfffffeda
    89bc:	04000000 	streq	r0, [r0], #-0
    89c0:	00039618 	andeq	r9, r3, r8, lsl r6
    89c4:	01270500 			; <UNDEFINED> instruction: 0x01270500
    89c8:	00069f0b 	andeq	r9, r6, fp, lsl #30
    89cc:	06000800 	streq	r0, [r0], -r0, lsl #16
    89d0:	00066004 	andeq	r6, r6, r4
    89d4:	53040600 	movwpl	r0, #17920	; 0x4600
    89d8:	1a000006 	bne	89f8 <fast_hash+0x98>
    89dc:	00000021 	andeq	r0, r0, r1, lsr #32
    89e0:	013f050e 	teqeq	pc, lr, lsl #10
    89e4:	0006de08 	andeq	sp, r6, r8, lsl #28
    89e8:	04131800 	ldreq	r1, [r3], #-2048	; 0xfffff800
    89ec:	40050000 	andmi	r0, r5, r0
    89f0:	06de1201 	ldrbeq	r1, [lr], r1, lsl #4
    89f4:	18000000 	stmdane	r0, {}	; <UNPREDICTABLE>
    89f8:	00000447 	andeq	r0, r0, r7, asr #8
    89fc:	12014105 	andne	r4, r1, #1073741825	; 0x40000001
    8a00:	000006de 	ldrdeq	r0, [r0], -lr
    8a04:	04631806 	strbteq	r1, [r3], #-2054	; 0xfffff7fa
    8a08:	42050000 	andmi	r0, r5, #0
    8a0c:	005b1201 	subseq	r1, fp, r1, lsl #4
    8a10:	000c0000 	andeq	r0, ip, r0
    8a14:	00005b0b 	andeq	r5, r0, fp, lsl #22
    8a18:	0006ee00 	andeq	lr, r6, r0, lsl #28
    8a1c:	00310c00 	eorseq	r0, r1, r0, lsl #24
    8a20:	00020000 	andeq	r0, r2, r0
    8a24:	8005d01b 	andhi	sp, r5, fp, lsl r0
    8a28:	08030702 	stmdaeq	r3, {r1, r8, r9, sl}
    8a2c:	9b180000 	blls	608a34 <__bss_end__+0x5fe9d4>
    8a30:	05000004 	streq	r0, [r0, #-4]
    8a34:	31180282 	tstcc	r8, r2, lsl #5
    8a38:	00000000 	andeq	r0, r0, r0
    8a3c:	00044d18 	andeq	r4, r4, r8, lsl sp
    8a40:	02830500 	addeq	r0, r3, #0, 10
    8a44:	00011c12 	andeq	r1, r1, r2, lsl ip
    8a48:	4a180400 	bmi	609a50 <__bss_end__+0x5ff9f0>
    8a4c:	05000002 	streq	r0, [r0, #-2]
    8a50:	03100284 	tsteq	r0, #132, 4	; 0x40000008
    8a54:	08000008 	stmdaeq	r0, {r3}
    8a58:	0004fb18 	andeq	pc, r4, r8, lsl fp	; <UNPREDICTABLE>
    8a5c:	02850500 	addeq	r0, r5, #0, 10
    8a60:	0001aa17 	andeq	sl, r1, r7, lsl sl
    8a64:	b8182400 	ldmdalt	r8, {sl, sp}
    8a68:	05000001 	streq	r0, [r0, #-1]
    8a6c:	250f0286 	strcs	r0, [pc, #-646]	; 87ee <ckalloc+0x1fa>
    8a70:	48000000 	stmdami	r0, {}	; <UNPREDICTABLE>
    8a74:	0003bf18 	andeq	fp, r3, r8, lsl pc
    8a78:	02870500 	addeq	r0, r7, #0, 10
    8a7c:	0000692c 	andeq	r6, r0, ip, lsr #18
    8a80:	11185000 	tstne	r8, r0
    8a84:	05000005 	streq	r0, [r0, #-5]
    8a88:	a51a0288 	ldrge	r0, [sl, #-648]	; 0xfffffd78
    8a8c:	58000006 	stmdapl	r0, {r1, r2}
    8a90:	0003ca18 	andeq	ip, r3, r8, lsl sl
    8a94:	02890500 	addeq	r0, r9, #0, 10
    8a98:	00010216 	andeq	r0, r1, r6, lsl r2
    8a9c:	16186800 	ldrne	r6, [r8], -r0, lsl #16
    8aa0:	05000005 	streq	r0, [r0, #-5]
    8aa4:	0216028a 	andseq	r0, r6, #-1610612728	; 0xa0000008
    8aa8:	70000001 	andvc	r0, r0, r1
    8aac:	0002ce18 	andeq	ip, r2, r8, lsl lr
    8ab0:	028b0500 	addeq	r0, fp, #0, 10
    8ab4:	00010216 	andeq	r0, r1, r6, lsl r2
    8ab8:	c6187800 	ldrgt	r7, [r8], -r0, lsl #16
    8abc:	05000004 	streq	r0, [r0, #-4]
    8ac0:	1310028c 	tstne	r0, #140, 4	; 0xc0000008
    8ac4:	80000008 	andhi	r0, r0, r8
    8ac8:	00023e18 	andeq	r3, r2, r8, lsl lr
    8acc:	028d0500 	addeq	r0, sp, #0, 10
    8ad0:	00082310 	andeq	r2, r8, r0, lsl r3
    8ad4:	70188800 	andsvc	r8, r8, r0, lsl #16
    8ad8:	05000004 	streq	r0, [r0, #-4]
    8adc:	250f028e 	strcs	r0, [pc, #-654]	; 8856 <ck_heap_errors+0x46>
    8ae0:	a0000000 	andge	r0, r0, r0
    8ae4:	00017e18 	andeq	r7, r1, r8, lsl lr
    8ae8:	028f0500 	addeq	r0, pc, #0, 10
    8aec:	00010216 	andeq	r0, r1, r6, lsl r2
    8af0:	8f18a400 	svchi	0x0018a400
    8af4:	05000000 	streq	r0, [r0, #-0]
    8af8:	02160290 	andseq	r0, r6, #144, 4
    8afc:	ac000001 	stcge	0, cr0, [r0], {1}
    8b00:	00016d18 	andeq	r6, r1, r8, lsl sp
    8b04:	02910500 	addseq	r0, r1, #0, 10
    8b08:	00010216 	andeq	r0, r1, r6, lsl r2
    8b0c:	3c18b400 	cfldrscc	mvf11, [r8], {-0}
    8b10:	05000000 	streq	r0, [r0, #-0]
    8b14:	02160292 	andseq	r0, r6, #536870921	; 0x20000009
    8b18:	bc000001 	stclt	0, cr0, [r0], {1}
    8b1c:	00004b18 	andeq	r4, r0, r8, lsl fp
    8b20:	02930500 	addseq	r0, r3, #0, 10
    8b24:	00010216 	andeq	r0, r1, r6, lsl r2
    8b28:	6e18c400 	cfmulsvs	mvf12, mvf8, mvf0
    8b2c:	05000003 	streq	r0, [r0, #-3]
    8b30:	25080294 	strcs	r0, [r8, #-660]	; 0xfffffd6c
    8b34:	cc000000 	stcgt	0, cr0, [r0], {-0}
    8b38:	01220b00 			; <UNDEFINED> instruction: 0x01220b00
    8b3c:	08130000 	ldmdaeq	r3, {}	; <UNPREDICTABLE>
    8b40:	310c0000 	mrscc	r0, (UNDEF: 12)
    8b44:	19000000 	stmdbne	r0, {}	; <UNPREDICTABLE>
    8b48:	01220b00 			; <UNDEFINED> instruction: 0x01220b00
    8b4c:	08230000 	stmdaeq	r3!, {}	; <UNPREDICTABLE>
    8b50:	310c0000 	mrscc	r0, (UNDEF: 12)
    8b54:	07000000 	streq	r0, [r0, -r0]
    8b58:	01220b00 			; <UNDEFINED> instruction: 0x01220b00
    8b5c:	08330000 	ldmdaeq	r3!, {}	; <UNPREDICTABLE>
    8b60:	310c0000 	mrscc	r0, (UNDEF: 12)
    8b64:	17000000 	strne	r0, [r0, -r0]
    8b68:	05f01b00 	ldrbeq	r1, [r0, #2816]!	; 0xb00
    8b6c:	5a070299 	bpl	1c95d8 <__bss_end__+0x1bf578>
    8b70:	18000008 	stmdane	r0, {r3}
    8b74:	0000029a 	muleq	r0, sl, r2
    8b78:	1b029c05 	blne	afb94 <__bss_end__+0xa5b34>
    8b7c:	0000085a 	andeq	r0, r0, sl, asr r8
    8b80:	04bd1800 	ldrteq	r1, [sp], #2048	; 0x800
    8b84:	9d050000 	stcls	0, cr0, [r5, #-0]
    8b88:	086a1802 	stmdaeq	sl!, {r1, fp, ip}^
    8b8c:	00780000 	rsbseq	r0, r8, r0
    8b90:	00030a0b 	andeq	r0, r3, fp, lsl #20
    8b94:	00086a00 	andeq	r6, r8, r0, lsl #20
    8b98:	00310c00 	eorseq	r0, r1, r0, lsl #24
    8b9c:	001d0000 	andseq	r0, sp, r0
    8ba0:	0000310b 	andeq	r3, r0, fp, lsl #2
    8ba4:	00087a00 	andeq	r7, r8, r0, lsl #20
    8ba8:	00310c00 	eorseq	r0, r1, r0, lsl #24
    8bac:	001d0000 	andseq	r0, sp, r0
    8bb0:	7e05f01c 	mcrvc	0, 0, pc, cr5, cr12, {0}	; <UNPREDICTABLE>
    8bb4:	089f0302 	ldmeq	pc, {r1, r8, r9}	; <UNPREDICTABLE>
    8bb8:	0c1d0000 	ldceq	0, cr0, [sp], {-0}
    8bbc:	05000004 	streq	r0, [r0, #-4]
    8bc0:	ee0b0295 	mcr	2, 0, r0, cr11, cr5, {4}
    8bc4:	1d000006 	stcne	0, cr0, [r0, #-24]	; 0xffffffe8
    8bc8:	000004e8 	andeq	r0, r0, r8, ror #9
    8bcc:	0b029e05 	bleq	b03e8 <__bss_end__+0xa6388>
    8bd0:	00000833 	andeq	r0, r0, r3, lsr r8
    8bd4:	01220b00 			; <UNDEFINED> instruction: 0x01220b00
    8bd8:	08af0000 	stmiaeq	pc!, {}	; <UNPREDICTABLE>
    8bdc:	310c0000 	mrscc	r0, (UNDEF: 12)
    8be0:	18000000 	stmdane	r0, {}	; <UNPREDICTABLE>
    8be4:	00840700 	addeq	r0, r4, r0, lsl #14
    8be8:	04060000 	streq	r0, [r6], #-0
    8bec:	000008af 	andeq	r0, r0, pc, lsr #17
    8bf0:	0008c51e 	andeq	ip, r8, lr, lsl r5
    8bf4:	04711600 	ldrbteq	r1, [r1], #-1536	; 0xfffffa00
    8bf8:	06000000 	streq	r0, [r0], -r0
    8bfc:	0008ba04 	andeq	fp, r8, r4, lsl #20
    8c00:	94040600 	strls	r0, [r4], #-1536	; 0xfffffa00
    8c04:	1e000001 	cdpne	0, 0, cr0, cr0, cr1, {0}
    8c08:	000008dc 	ldrdeq	r0, [r0], -ip
    8c0c:	00002516 	andeq	r2, r0, r6, lsl r5
    8c10:	04060000 	streq	r0, [r6], #-0
    8c14:	000008e2 	andeq	r0, r0, r2, ror #17
    8c18:	08d10406 	ldmeq	r1, {r1, r2, sl}^
    8c1c:	530b0000 	movwpl	r0, #45056	; 0xb000
    8c20:	f8000006 			; <UNDEFINED> instruction: 0xf8000006
    8c24:	0c000008 	stceq	0, cr0, [r0], {8}
    8c28:	00000031 	andeq	r0, r0, r1, lsr r0
    8c2c:	841f0002 	ldrhi	r0, [pc], #-2	; 8c34 <emit+0x3c>
    8c30:	05000004 	streq	r0, [r0, #-4]
    8c34:	7117032e 	tstvc	r7, lr, lsr #6
    8c38:	1f000004 	svcne	0x00000004
    8c3c:	0000047d 	andeq	r0, r0, sp, ror r4
    8c40:	1d032f05 	stcne	15, cr2, [r3, #-20]	; 0xffffffec
    8c44:	00000477 	andeq	r0, r0, r7, ror r4
    8c48:	00002515 	andeq	r2, r0, r5, lsl r5
    8c4c:	00092100 	andeq	r2, r9, r0, lsl #2
    8c50:	00251600 	eoreq	r1, r5, r0, lsl #12
    8c54:	20000000 	andcs	r0, r0, r0
    8c58:	000001d1 	ldrdeq	r0, [r0], -r1
    8c5c:	2d0e1d06 	stccs	13, cr1, [lr, #-24]	; 0xffffffe8
    8c60:	06000009 	streq	r0, [r0], -r9
    8c64:	00091204 	andeq	r1, r9, r4, lsl #4
    8c68:	00251500 	eoreq	r1, r5, r0, lsl #10
    8c6c:	09420000 	stmdbeq	r2, {}^	; <UNPREDICTABLE>
    8c70:	e9160000 	ldmdb	r6, {}	; <UNPREDICTABLE>
    8c74:	00000005 	andeq	r0, r0, r5
    8c78:	00077320 	andeq	r7, r7, r0, lsr #6
    8c7c:	0e220600 	cfmadda32eq	mvax0, mvax0, mvfx2, mvfx0
    8c80:	0000094e 	andeq	r0, r0, lr, asr #18
    8c84:	09330406 	ldmdbeq	r3!, {r1, r2, sl}
    8c88:	d7210000 	strle	r0, [r1, -r0]!
    8c8c:	01000008 	tsteq	r0, r8
    8c90:	0031110d 	eorseq	r1, r1, sp, lsl #2
    8c94:	2a220000 	bcs	888c9c <__bss_end__+0x87ec3c>
    8c98:	01000008 	tsteq	r0, r8
    8c9c:	9128061f 			; <UNDEFINED> instruction: 0x9128061f
    8ca0:	004c0000 	subeq	r0, ip, r0
    8ca4:	9c010000 	stcls	0, cr0, [r1], {-0}
    8ca8:	00000a2c 	andeq	r0, r0, ip, lsr #20
    8cac:	00087223 	andeq	r7, r8, r3, lsr #4
    8cb0:	0f2a0100 	svceq	0x002a0100
    8cb4:	0000002c 	andeq	r0, r0, ip, lsr #32
    8cb8:	000011d7 	ldrdeq	r1, [r0], -r7
    8cbc:	000011d5 	ldrdeq	r1, [r0], -r5
    8cc0:	00089923 	andeq	r9, r8, r3, lsr #18
    8cc4:	0f2b0100 	svceq	0x002b0100
    8cc8:	0000002c 	andeq	r0, r0, ip, lsr #32
    8ccc:	000011f1 	strdeq	r1, [r0], -r1	; <UNPREDICTABLE>
    8cd0:	000011ef 	andeq	r1, r0, pc, ror #3
    8cd4:	0008a623 	andeq	sl, r8, r3, lsr #12
    8cd8:	0f2c0100 	svceq	0x002c0100
    8cdc:	0000002c 	andeq	r0, r0, ip, lsr #32
    8ce0:	0000120b 	andeq	r1, r0, fp, lsl #4
    8ce4:	00001209 	andeq	r1, r0, r9, lsl #4
    8ce8:	00088023 	andeq	r8, r8, r3, lsr #32
    8cec:	0f2d0100 	svceq	0x002d0100
    8cf0:	0000002c 	andeq	r0, r0, ip, lsr #32
    8cf4:	00001224 	andeq	r1, r0, r4, lsr #4
    8cf8:	00001222 	andeq	r1, r0, r2, lsr #4
    8cfc:	00913024 	addseq	r3, r1, r4, lsr #32
    8d00:	000a5700 	andeq	r5, sl, r0, lsl #14
    8d04:	91402500 	cmpls	r0, r0, lsl #10
    8d08:	0a860000 	beq	fe188d10 <__bss_end__+0xfe17ecb0>
    8d0c:	09e20000 	stmibeq	r2!, {}^	; <UNPREDICTABLE>
    8d10:	01260000 			; <UNDEFINED> instruction: 0x01260000
    8d14:	004e0150 	subeq	r0, lr, r0, asr r1
    8d18:	00914c25 	addseq	r4, r1, r5, lsr #24
    8d1c:	000a9200 	andeq	r9, sl, r0, lsl #4
    8d20:	000a0200 	andeq	r0, sl, r0, lsl #4
    8d24:	50012600 	andpl	r2, r1, r0, lsl #12
    8d28:	00240c05 	eoreq	r0, r4, r5, lsl #24
    8d2c:	01262010 			; <UNDEFINED> instruction: 0x01262010
    8d30:	010c0551 	tsteq	ip, r1, asr r5
    8d34:	005a0000 	subseq	r0, sl, r0
    8d38:	00915825 	addseq	r5, r1, r5, lsr #16
    8d3c:	000a9200 	andeq	r9, sl, r0, lsl #4
    8d40:	000a2200 	andeq	r2, sl, r0, lsl #4
    8d44:	50012600 	andpl	r2, r1, r0, lsl #12
    8d48:	001c0c05 	andseq	r0, ip, r5, lsl #24
    8d4c:	01262010 			; <UNDEFINED> instruction: 0x01262010
    8d50:	200c0551 	andcs	r0, ip, r1, asr r5
    8d54:	005a0000 	subseq	r0, sl, r0
    8d58:	00916024 	addseq	r6, r1, r4, lsr #32
    8d5c:	000a2c00 	andeq	r2, sl, r0, lsl #24
    8d60:	c5270000 	strgt	r0, [r7, #-0]!
    8d64:	01000008 	tsteq	r0, r8
    8d68:	91140617 	tstls	r4, r7, lsl r6
    8d6c:	00140000 	andseq	r0, r4, r0
    8d70:	9c010000 	stcls	0, cr0, [r1], {-0}
    8d74:	00000a57 	andeq	r0, r0, r7, asr sl
    8d78:	0008a123 	andeq	sl, r8, r3, lsr #2
    8d7c:	0e180100 	mufeqe	f0, f0, f0
    8d80:	00000031 	andeq	r0, r0, r1, lsr r0
    8d84:	0000123f 	andeq	r1, r0, pc, lsr r2
    8d88:	00001239 	andeq	r1, r0, r9, lsr r2
    8d8c:	08d42800 	ldmeq	r4, {fp, sp}^
    8d90:	0e010000 	cdpeq	0, 0, cr0, cr1, cr0, {0}
    8d94:	00002505 	andeq	r2, r0, r5, lsl #10
    8d98:	0090fc00 	addseq	pc, r0, r0, lsl #24
    8d9c:	00001800 	andeq	r1, r0, r0, lsl #16
    8da0:	869c0100 	ldrhi	r0, [ip], r0, lsl #2
    8da4:	2300000a 	movwcs	r0, #10
    8da8:	000008a1 	andeq	r0, r0, r1, lsr #17
    8dac:	310e0f01 	tstcc	lr, r1, lsl #30
    8db0:	6d000000 	stcvs	0, cr0, [r0, #-0]
    8db4:	69000012 	stmdbvs	r0, {r1, r4}
    8db8:	00000012 	andeq	r0, r0, r2, lsl r0
    8dbc:	00082129 	andeq	r2, r8, r9, lsr #2
    8dc0:	00082100 	andeq	r2, r8, r0, lsl #2
    8dc4:	064f0600 	strbeq	r0, [pc], -r0, lsl #12
    8dc8:	00087a29 	andeq	r7, r8, r9, lsr #20
    8dcc:	00087a00 	andeq	r7, r8, r0, lsl #20
    8dd0:	069b0600 	ldreq	r0, [fp], r0, lsl #12
    8dd4:	000aea00 	andeq	lr, sl, r0, lsl #20
    8dd8:	92000400 	andls	r0, r0, #0, 8
    8ddc:	0400001c 	streq	r0, [r0], #-28	; 0xffffffe4
    8de0:	0002ef01 	andeq	lr, r2, r1, lsl #30
    8de4:	09080c00 	stmdbeq	r8, {sl, fp}
    8de8:	06cc0000 	strbeq	r0, [ip], r0
    8dec:	91740000 	cmnls	r4, r0
    8df0:	008c0000 	addeq	r0, ip, r0
    8df4:	183b0000 	ldmdane	fp!, {}	; <UNPREDICTABLE>
    8df8:	04020000 	streq	r0, [r2], #-0
    8dfc:	746e6905 	strbtvc	r6, [lr], #-2309	; 0xfffff6fb
    8e00:	07040300 	streq	r0, [r4, -r0, lsl #6]
    8e04:	00000066 	andeq	r0, r0, r6, rrx
    8e08:	de060103 	adfles	f0, f6, f3
    8e0c:	03000002 	movweq	r0, #2
    8e10:	03770502 	cmneq	r7, #8388608	; 0x800000
    8e14:	04030000 	streq	r0, [r3], #-0
    8e18:	0000ac05 	andeq	sl, r0, r5, lsl #24
    8e1c:	05080300 	streq	r0, [r8, #-768]	; 0xfffffd00
    8e20:	000000a7 	andeq	r0, r0, r7, lsr #1
    8e24:	dc080103 	stfles	f0, [r8], {3}
    8e28:	03000002 	movweq	r0, #2
    8e2c:	02220702 	eoreq	r0, r2, #524288	; 0x80000
    8e30:	04030000 	streq	r0, [r3], #-0
    8e34:	00006107 	andeq	r6, r0, r7, lsl #2
    8e38:	07080300 	streq	r0, [r8, -r0, lsl #6]
    8e3c:	0000005c 	andeq	r0, r0, ip, asr r0
    8e40:	00026504 	andeq	r6, r2, r4, lsl #10
    8e44:	19220200 	stmdbne	r2!, {r9}
    8e48:	00000077 	andeq	r0, r0, r7, ror r0
    8e4c:	007d0405 	rsbseq	r0, sp, r5, lsl #8
    8e50:	21060000 	mrscs	r0, (UNDEF: 6)
    8e54:	04000004 	streq	r0, [r0], #-4
    8e58:	000002bd 			; <UNDEFINED> instruction: 0x000002bd
    8e5c:	410e2c03 	tstmi	lr, r3, lsl #24
    8e60:	04000000 	streq	r0, [r0], #-0
    8e64:	00000436 	andeq	r0, r0, r6, lsr r4
    8e68:	410e7203 	tstmi	lr, r3, lsl #4
    8e6c:	07000000 	streq	r0, [r0, -r0]
    8e70:	0000026d 	andeq	r0, r0, sp, ror #4
    8e74:	17015e04 	strne	r5, [r1, -r4, lsl #28]
    8e78:	0000002c 	andeq	r0, r0, ip, lsr #32
    8e7c:	a6030408 	strge	r0, [r3], -r8, lsl #8
    8e80:	0000c903 	andeq	ip, r0, r3, lsl #18
    8e84:	025f0900 	subseq	r0, pc, #0, 18
    8e88:	a8030000 	stmdage	r3, {}	; <UNPREDICTABLE>
    8e8c:	00009a0c 	andeq	r9, r0, ip, lsl #20
    8e90:	01e20900 	mvneq	r0, r0, lsl #18
    8e94:	a9030000 	stmdbge	r3, {}	; <UNPREDICTABLE>
    8e98:	0000c913 	andeq	ip, r0, r3, lsl r9
    8e9c:	4f0a0000 	svcmi	0x000a0000
    8ea0:	d9000000 	stmdble	r0, {}	; <UNPREDICTABLE>
    8ea4:	0b000000 	bleq	8eac <va_printk+0xb4>
    8ea8:	0000002c 	andeq	r0, r0, ip, lsr #32
    8eac:	080c0003 	stmdaeq	ip, {r0, r1}
    8eb0:	fd09a303 	stc2	3, cr10, [r9, #-12]
    8eb4:	0d000000 	stceq	0, cr0, [r0, #-0]
    8eb8:	00000419 	andeq	r0, r0, r9, lsl r4
    8ebc:	2507a503 	strcs	sl, [r7, #-1283]	; 0xfffffafd
    8ec0:	00000000 	andeq	r0, r0, r0
    8ec4:	0004280d 	andeq	r2, r4, sp, lsl #16
    8ec8:	05aa0300 	streq	r0, [sl, #768]!	; 0x300
    8ecc:	000000a7 	andeq	r0, r0, r7, lsr #1
    8ed0:	a3040004 	movwge	r0, #16388	; 0x4004
    8ed4:	03000003 	movweq	r0, #3
    8ed8:	00d903ab 	sbcseq	r0, r9, fp, lsr #7
    8edc:	9f040000 	svcls	0x00040000
    8ee0:	03000001 	movweq	r0, #1
    8ee4:	006b1baf 	rsbeq	r1, fp, pc, lsr #23
    8ee8:	040e0000 	streq	r0, [lr], #-0
    8eec:	011d0405 	tsteq	sp, r5, lsl #8
    8ef0:	01030000 	mrseq	r0, (UNDEF: 3)
    8ef4:	0002e508 	andeq	lr, r2, r8, lsl #10
    8ef8:	011d0f00 	tsteq	sp, r0, lsl #30
    8efc:	68040000 	stmdavs	r4, {}	; <UNPREDICTABLE>
    8f00:	05000004 	streq	r0, [r0, #-4]
    8f04:	005d1916 	subseq	r1, sp, r6, lsl r9
    8f08:	b0100000 	andslt	r0, r0, r0
    8f0c:	18000001 	stmdane	r0, {r0}
    8f10:	8f082f05 	svchi	0x00082f05
    8f14:	0d000001 	stceq	0, cr0, [r0, #-4]
    8f18:	000003c4 	andeq	r0, r0, r4, asr #7
    8f1c:	8f133105 	svchi	0x00133105
    8f20:	00000001 	andeq	r0, r0, r1
    8f24:	006b5f11 	rsbeq	r5, fp, r1, lsl pc
    8f28:	25073205 	strcs	r3, [r7, #-517]	; 0xfffffdfb
    8f2c:	04000000 	streq	r0, [r0], #-0
    8f30:	0004040d 	andeq	r0, r4, sp, lsl #8
    8f34:	0b320500 	bleq	c8a33c <__bss_end__+0xc802dc>
    8f38:	00000025 	andeq	r0, r0, r5, lsr #32
    8f3c:	01990d08 	orrseq	r0, r9, r8, lsl #26
    8f40:	32050000 	andcc	r0, r5, #0
    8f44:	00002514 	andeq	r2, r0, r4, lsl r5
    8f48:	a80d0c00 	stmdage	sp, {sl, fp}
    8f4c:	05000004 	streq	r0, [r0, #-4]
    8f50:	00251b32 	eoreq	r1, r5, r2, lsr fp
    8f54:	11100000 	tstne	r0, r0
    8f58:	0500785f 	streq	r7, [r0, #-2143]	; 0xfffff7a1
    8f5c:	01950b33 	orrseq	r0, r5, r3, lsr fp
    8f60:	00140000 	andseq	r0, r4, r0
    8f64:	01350405 	teqeq	r5, r5, lsl #8
    8f68:	290a0000 	stmdbcs	sl, {}	; <UNPREDICTABLE>
    8f6c:	a5000001 	strge	r0, [r0, #-1]
    8f70:	0b000001 	bleq	8f7c <va_printk+0x184>
    8f74:	0000002c 	andeq	r0, r0, ip, lsr #32
    8f78:	dd100000 	ldcle	0, cr0, [r0, #-0]
    8f7c:	24000001 	strcs	r0, [r0], #-1
    8f80:	28083705 	stmdacs	r8, {r0, r2, r8, r9, sl, ip, sp}
    8f84:	0d000002 	stceq	0, cr0, [r0, #-8]
    8f88:	0000009e 	muleq	r0, lr, r0
    8f8c:	25093905 	strcs	r3, [r9, #-2309]	; 0xfffff6fb
    8f90:	00000000 	andeq	r0, r0, r0
    8f94:	00043e0d 	andeq	r3, r4, sp, lsl #28
    8f98:	093a0500 	ldmdbeq	sl!, {r8, sl}
    8f9c:	00000025 	andeq	r0, r0, r5, lsr #32
    8fa0:	00c10d04 	sbceq	r0, r1, r4, lsl #26
    8fa4:	3b050000 	blcc	148fac <__bss_end__+0x13ef4c>
    8fa8:	00002509 	andeq	r2, r0, r9, lsl #10
    8fac:	330d0800 	movwcc	r0, #55296	; 0xd800
    8fb0:	05000005 	streq	r0, [r0, #-5]
    8fb4:	0025093c 	eoreq	r0, r5, ip, lsr r9
    8fb8:	0d0c0000 	stceq	0, cr0, [ip, #-0]
    8fbc:	000002a1 	andeq	r0, r0, r1, lsr #5
    8fc0:	25093d05 	strcs	r3, [r9, #-3333]	; 0xfffff2fb
    8fc4:	10000000 	andne	r0, r0, r0
    8fc8:	0002830d 	andeq	r8, r2, sp, lsl #6
    8fcc:	093e0500 	ldmdbeq	lr!, {r8, sl}
    8fd0:	00000025 	andeq	r0, r0, r5, lsr #32
    8fd4:	04ad0d14 	strteq	r0, [sp], #3348	; 0xd14
    8fd8:	3f050000 	svccc	0x00050000
    8fdc:	00002509 	andeq	r2, r0, r9, lsl #10
    8fe0:	290d1800 	stmdbcs	sp, {fp, ip}
    8fe4:	05000005 	streq	r0, [r0, #-5]
    8fe8:	00250940 	eoreq	r0, r5, r0, asr #18
    8fec:	0d1c0000 	ldceq	0, cr0, [ip, #-0]
    8ff0:	000004f0 	strdeq	r0, [r0], -r0	; <UNPREDICTABLE>
    8ff4:	25094105 	strcs	r4, [r9, #-261]	; 0xfffffefb
    8ff8:	20000000 	andcs	r0, r0, r0
    8ffc:	01011200 	mrseq	r1, R9_usr
    9000:	01080000 	mrseq	r0, (UNDEF: 8)
    9004:	6d084a05 	vstrvs	s8, [r8, #-20]	; 0xffffffec
    9008:	0d000002 	stceq	0, cr0, [r0, #-8]
    900c:	0000018c 	andeq	r0, r0, ip, lsl #3
    9010:	6d0a4b05 	vstrvs	d4, [sl, #-20]	; 0xffffffec
    9014:	00000002 	andeq	r0, r0, r2
    9018:	0000000d 	andeq	r0, r0, sp
    901c:	094c0500 	stmdbeq	ip, {r8, sl}^
    9020:	0000026d 	andeq	r0, r0, sp, ror #4
    9024:	045a1380 	ldrbeq	r1, [sl], #-896	; 0xfffffc80
    9028:	4e050000 	cdpmi	0, 0, cr0, cr5, cr0, {0}
    902c:	0001290a 	andeq	r2, r1, sl, lsl #18
    9030:	13010000 	movwne	r0, #4096	; 0x1000
    9034:	00000126 	andeq	r0, r0, r6, lsr #2
    9038:	290a5105 	stmdbcs	sl, {r0, r2, r8, ip, lr}
    903c:	04000001 	streq	r0, [r0], #-1
    9040:	150a0001 	strne	r0, [sl, #-1]
    9044:	7d000001 	stcvc	0, cr0, [r0, #-4]
    9048:	0b000002 	bleq	9058 <va_printk+0x260>
    904c:	0000002c 	andeq	r0, r0, ip, lsr #32
    9050:	aa12001f 	bge	4890d4 <__bss_end__+0x47f074>
    9054:	90000002 	andls	r0, r0, r2
    9058:	085d0501 	ldmdaeq	sp, {r0, r8, sl}^
    905c:	000002c0 	andeq	r0, r0, r0, asr #5
    9060:	0003c40d 	andeq	ip, r3, sp, lsl #8
    9064:	125e0500 	subsne	r0, lr, #0, 10
    9068:	000002c0 	andeq	r0, r0, r0, asr #5
    906c:	03dc0d00 	bicseq	r0, ip, #0, 26
    9070:	5f050000 	svcpl	0x00050000
    9074:	00002506 	andeq	r2, r0, r6, lsl #10
    9078:	940d0400 	strls	r0, [sp], #-1024	; 0xfffffc00
    907c:	05000001 	streq	r0, [r0, #-1]
    9080:	02c60961 	sbceq	r0, r6, #1589248	; 0x184000
    9084:	0d080000 	stceq	0, cr0, [r8, #-0]
    9088:	00000101 	andeq	r0, r0, r1, lsl #2
    908c:	281e6205 	ldmdacs	lr, {r0, r2, r9, sp, lr}
    9090:	88000002 	stmdahi	r0, {r1}
    9094:	7d040500 	cfstr32vc	mvfx0, [r4, #-0]
    9098:	0a000002 	beq	90a8 <clean_reboot>
    909c:	000002d6 	ldrdeq	r0, [r0], -r6
    90a0:	000002d6 	ldrdeq	r0, [r0], -r6
    90a4:	00002c0b 	andeq	r2, r0, fp, lsl #24
    90a8:	05001f00 	streq	r1, [r0, #-3840]	; 0xfffff100
    90ac:	0002dc04 	andeq	sp, r2, r4, lsl #24
    90b0:	8f101400 	svchi	0x00101400
    90b4:	08000003 	stmdaeq	r0, {r0, r1}
    90b8:	05087505 	streq	r7, [r8, #-1285]	; 0xfffffafb
    90bc:	0d000003 	stceq	0, cr0, [r0, #-12]
    90c0:	000000bb 	strheq	r0, [r0], -fp
    90c4:	05117605 	ldreq	r7, [r1, #-1541]	; 0xfffff9fb
    90c8:	00000003 	andeq	r0, r0, r3
    90cc:	00001b0d 	andeq	r1, r0, sp, lsl #22
    90d0:	06770500 	ldrbteq	r0, [r7], -r0, lsl #10
    90d4:	00000025 	andeq	r0, r0, r5, lsr #32
    90d8:	04050004 	streq	r0, [r5], #-4
    90dc:	0000004f 	andeq	r0, r0, pc, asr #32
    90e0:	0003ae10 	andeq	sl, r3, r0, lsl lr
    90e4:	b5056800 	strlt	r6, [r5, #-2048]	; 0xfffff800
    90e8:	00044e08 	andeq	r4, r4, r8, lsl #28
    90ec:	705f1100 	subsvc	r1, pc, r0, lsl #2
    90f0:	12b60500 	adcsne	r0, r6, #0, 10
    90f4:	00000305 	andeq	r0, r0, r5, lsl #6
    90f8:	725f1100 	subsvc	r1, pc, #0, 2
    90fc:	07b70500 	ldreq	r0, [r7, r0, lsl #10]!
    9100:	00000025 	andeq	r0, r0, r5, lsr #32
    9104:	775f1104 	ldrbvc	r1, [pc, -r4, lsl #2]
    9108:	07b80500 	ldreq	r0, [r8, r0, lsl #10]!
    910c:	00000025 	andeq	r0, r0, r5, lsr #32
    9110:	011f0d08 	tsteq	pc, r8, lsl #26
    9114:	b9050000 	stmdblt	r5, {}	; <UNPREDICTABLE>
    9118:	00003a09 	andeq	r3, r0, r9, lsl #20
    911c:	080d0c00 	stmdaeq	sp, {sl, fp}
    9120:	05000002 	streq	r0, [r0, #-2]
    9124:	003a09ba 	ldrhteq	r0, [sl], -sl
    9128:	110e0000 	mrsne	r0, (UNDEF: 14)
    912c:	0066625f 	rsbeq	r6, r6, pc, asr r2
    9130:	dd11bb05 	vldrle	d11, [r1, #-20]	; 0xffffffec
    9134:	10000002 	andne	r0, r0, r2
    9138:	00007b0d 	andeq	r7, r0, sp, lsl #22
    913c:	07bc0500 	ldreq	r0, [ip, r0, lsl #10]!
    9140:	00000025 	andeq	r0, r0, r5, lsr #32
    9144:	010f0d18 	tsteq	pc, r8, lsl sp	; <UNPREDICTABLE>
    9148:	c3050000 	movwgt	r0, #20480	; 0x5000
    914c:	0001150a 	andeq	r1, r1, sl, lsl #10
    9150:	590d1c00 	stmdbpl	sp, {sl, fp, ip}
    9154:	0500000b 	streq	r0, [r0, #-11]
    9158:	05c01dc5 	strbeq	r1, [r0, #3525]	; 0xdc5
    915c:	0d200000 	stceq	0, cr0, [r0, #-0]
    9160:	0000061d 	andeq	r0, r0, sp, lsl r6
    9164:	ea1dc705 	b	77ad80 <__bss_end__+0x770d20>
    9168:	24000005 	strcs	r0, [r0], #-5
    916c:	0004300d 	andeq	r3, r4, sp
    9170:	0dca0500 	cfstr64eq	mvdx0, [sl]
    9174:	0000060e 	andeq	r0, r0, lr, lsl #12
    9178:	050a0d28 	streq	r0, [sl, #-3368]	; 0xfffff2d8
    917c:	cb050000 	blgt	149184 <__bss_end__+0x13f124>
    9180:	00062809 	andeq	r2, r6, r9, lsl #16
    9184:	5f112c00 	svcpl	0x00112c00
    9188:	05006275 	streq	r6, [r0, #-629]	; 0xfffffd8b
    918c:	02dd11ce 	sbcseq	r1, sp, #-2147483597	; 0x80000033
    9190:	11300000 	teqne	r0, r0
    9194:	0070755f 	rsbseq	r7, r0, pc, asr r5
    9198:	0512cf05 	ldreq	ip, [r2, #-3845]	; 0xfffff0fb
    919c:	38000003 	stmdacc	r0, {r0, r1}
    91a0:	72755f11 	rsbsvc	r5, r5, #17, 30	; 0x44
    91a4:	07d00500 	ldrbeq	r0, [r0, r0, lsl #10]
    91a8:	00000025 	andeq	r0, r0, r5, lsr #32
    91ac:	00b50d3c 	adcseq	r0, r5, ip, lsr sp
    91b0:	d3050000 	movwle	r0, #20480	; 0x5000
    91b4:	00062e11 	andeq	r2, r6, r1, lsl lr
    91b8:	e20d4000 	and	r4, sp, #0
    91bc:	05000004 	streq	r0, [r0, #-4]
    91c0:	063e11d4 			; <UNDEFINED> instruction: 0x063e11d4
    91c4:	11430000 	mrsne	r0, (UNDEF: 67)
    91c8:	00626c5f 	rsbeq	r6, r2, pc, asr ip
    91cc:	dd11d705 	ldcle	7, cr13, [r1, #-20]	; 0xffffffec
    91d0:	44000002 	strmi	r0, [r0], #-2
    91d4:	00013d0d 	andeq	r3, r1, sp, lsl #26
    91d8:	07da0500 	ldrbeq	r0, [sl, r0, lsl #10]
    91dc:	00000025 	andeq	r0, r0, r5, lsr #32
    91e0:	014e0d4c 	cmpeq	lr, ip, asr #26
    91e4:	db050000 	blle	1491ec <__bss_end__+0x13f18c>
    91e8:	0000820a 	andeq	r8, r0, sl, lsl #4
    91ec:	fa0d5000 	blx	35d1f4 <__bss_end__+0x353194>
    91f0:	0500000a 	streq	r0, [r0, #-10]
    91f4:	046c12de 	strbteq	r1, [ip], #-734	; 0xfffffd22
    91f8:	0d540000 	ldcleq	0, cr0, [r4, #-0]
    91fc:	00000422 	andeq	r0, r0, r2, lsr #8
    9200:	090ce205 	stmdbeq	ip, {r0, r2, r9, sp, lr, pc}
    9204:	58000001 	stmdapl	r0, {r0}
    9208:	0003b60d 	andeq	fp, r3, sp, lsl #12
    920c:	0ee40500 	cdpeq	5, 14, cr0, cr4, cr0, {0}
    9210:	000000fd 	strdeq	r0, [r0], -sp
    9214:	027b0d5c 	rsbseq	r0, fp, #92, 26	; 0x1700
    9218:	e5050000 	str	r0, [r5, #-0]
    921c:	00002509 	andeq	r2, r0, r9, lsl #10
    9220:	15006400 	strne	r6, [r0, #-1024]	; 0xfffffc00
    9224:	00000025 	andeq	r0, r0, r5, lsr #32
    9228:	0000046c 	andeq	r0, r0, ip, ror #8
    922c:	00046c16 	andeq	r6, r4, r6, lsl ip
    9230:	01151600 	tsteq	r5, r0, lsl #12
    9234:	17160000 	ldrne	r0, [r6, -r0]
    9238:	16000001 	strne	r0, [r0], -r1
    923c:	00000025 	andeq	r0, r0, r5, lsr #32
    9240:	77040500 	strvc	r0, [r4, -r0, lsl #10]
    9244:	0f000004 	svceq	0x00000004
    9248:	0000046c 	andeq	r0, r0, ip, ror #8
    924c:	00040c17 	andeq	r0, r4, r7, lsl ip
    9250:	05042800 	streq	r2, [r4, #-2048]	; 0xfffff800
    9254:	c0080260 	andgt	r0, r8, r0, ror #4
    9258:	18000005 	stmdane	r0, {r0, r2}
    925c:	00000370 	andeq	r0, r0, r0, ror r3
    9260:	07026205 	streq	r6, [r2, -r5, lsl #4]
    9264:	00000025 	andeq	r0, r0, r5, lsr #32
    9268:	012e1800 			; <UNDEFINED> instruction: 0x012e1800
    926c:	67050000 	strvs	r0, [r5, -r0]
    9270:	069a0b02 	ldreq	r0, [sl], r2, lsl #22
    9274:	18040000 	stmdane	r4, {}	; <UNPREDICTABLE>
    9278:	000001f8 	strdeq	r0, [r0], -r8
    927c:	14026705 	strne	r6, [r2], #-1797	; 0xfffff8fb
    9280:	0000069a 	muleq	r0, sl, r6
    9284:	01a81808 			; <UNDEFINED> instruction: 0x01a81808
    9288:	67050000 	strvs	r0, [r5, -r0]
    928c:	069a1e02 	ldreq	r1, [sl], r2, lsl #28
    9290:	180c0000 	stmdane	ip, {}	; <UNPREDICTABLE>
    9294:	000003d7 	ldrdeq	r0, [r0], -r7
    9298:	08026905 	stmdaeq	r2, {r0, r2, r8, fp, sp, lr}
    929c:	00000025 	andeq	r0, r0, r5, lsr #32
    92a0:	00291810 	eoreq	r1, r9, r0, lsl r8
    92a4:	6a050000 	bvs	1492ac <__bss_end__+0x13f24c>
    92a8:	089a0802 	ldmeq	sl, {r1, fp}
    92ac:	18140000 	ldmdane	r4, {}	; <UNPREDICTABLE>
    92b0:	000003eb 	andeq	r0, r0, fp, ror #7
    92b4:	07026d05 	streq	r6, [r2, -r5, lsl #26]
    92b8:	00000025 	andeq	r0, r0, r5, lsr #32
    92bc:	0a361830 	beq	d8f384 <__bss_end__+0xd85324>
    92c0:	6e050000 	cdpvs	0, 0, cr0, cr5, cr0, {0}
    92c4:	08af1602 	stmiaeq	pc!, {r1, r9, sl, ip}	; <UNPREDICTABLE>
    92c8:	18340000 	ldmdane	r4!, {}	; <UNPREDICTABLE>
    92cc:	000002b2 			; <UNDEFINED> instruction: 0x000002b2
    92d0:	07027005 	streq	r7, [r2, -r5]
    92d4:	00000025 	andeq	r0, r0, r5, lsr #32
    92d8:	03e11838 	mvneq	r1, #56, 16	; 0x380000
    92dc:	72050000 	andvc	r0, r5, #0
    92e0:	08c00a02 	stmiaeq	r0, {r1, r9, fp}^
    92e4:	183c0000 	ldmdane	ip!, {}	; <UNPREDICTABLE>
    92e8:	00000257 	andeq	r0, r0, r7, asr r2
    92ec:	13027505 	movwne	r7, #9477	; 0x2505
    92f0:	0000018f 	andeq	r0, r0, pc, lsl #3
    92f4:	01c71840 	biceq	r1, r7, r0, asr #16
    92f8:	76050000 	strvc	r0, [r5], -r0
    92fc:	00250702 	eoreq	r0, r5, r2, lsl #14
    9300:	18440000 	stmdane	r4, {}^	; <UNPREDICTABLE>
    9304:	00000524 	andeq	r0, r0, r4, lsr #10
    9308:	13027705 	movwne	r7, #9989	; 0x2705
    930c:	0000018f 	andeq	r0, r0, pc, lsl #3
    9310:	02c41848 	sbceq	r1, r4, #72, 16	; 0x480000
    9314:	78050000 	stmdavc	r5, {}	; <UNPREDICTABLE>
    9318:	08c61402 	stmiaeq	r6, {r1, sl, ip}^
    931c:	184c0000 	stmdane	ip, {}^	; <UNPREDICTABLE>
    9320:	00000200 	andeq	r0, r0, r0, lsl #4
    9324:	07027b05 	streq	r7, [r2, -r5, lsl #22]
    9328:	00000025 	andeq	r0, r0, r5, lsr #32
    932c:	01461850 	cmpeq	r6, r0, asr r8
    9330:	7c050000 	stcvc	0, cr0, [r5], {-0}
    9334:	01170902 	tsteq	r7, r2, lsl #18
    9338:	18540000 	ldmdane	r4, {}^	; <UNPREDICTABLE>
    933c:	000002ea 	andeq	r0, r0, sl, ror #5
    9340:	07029f05 	streq	r9, [r2, -r5, lsl #30]
    9344:	00000875 	andeq	r0, r0, r5, ror r8
    9348:	02aa1958 	adceq	r1, sl, #88, 18	; 0x160000
    934c:	a3050000 	movwge	r0, #20480	; 0x5000
    9350:	02c01302 	sbceq	r1, r0, #134217728	; 0x8000000
    9354:	01480000 	mrseq	r0, (UNDEF: 72)
    9358:	00023519 	andeq	r3, r2, r9, lsl r5
    935c:	02a40500 	adceq	r0, r4, #0, 10
    9360:	00027d12 	andeq	r7, r2, r2, lsl sp
    9364:	19014c00 	stmdbne	r1, {sl, fp, lr}
    9368:	000004d0 	ldrdeq	r0, [r0], -r0	; <UNPREDICTABLE>
    936c:	0c02a805 	stceq	8, cr10, [r2], {5}
    9370:	000008d7 	ldrdeq	r0, [r0], -r7
    9374:	171902dc 			; <UNDEFINED> instruction: 0x171902dc
    9378:	05000001 	streq	r0, [r0, #-1]
    937c:	5b1002ad 	blpl	409e38 <__bss_end__+0x3ffdd8>
    9380:	e0000006 	and	r0, r0, r6
    9384:	00fc1902 	rscseq	r1, ip, r2, lsl #18
    9388:	af050000 	svcge	0x00050000
    938c:	08e30a02 	stmiaeq	r3!, {r1, r9, fp}^
    9390:	02ec0000 	rsceq	r0, ip, #0
    9394:	4e040500 	cfsh32mi	mvfx0, mvfx4, #0
    9398:	15000004 	strne	r0, [r0, #-4]
    939c:	00000025 	andeq	r0, r0, r5, lsr #32
    93a0:	000005e4 	andeq	r0, r0, r4, ror #11
    93a4:	00046c16 	andeq	r6, r4, r6, lsl ip
    93a8:	01151600 	tsteq	r5, r0, lsl #12
    93ac:	e4160000 	ldr	r0, [r6], #-0
    93b0:	16000005 	strne	r0, [r0], -r5
    93b4:	00000025 	andeq	r0, r0, r5, lsr #32
    93b8:	24040500 	strcs	r0, [r4], #-1280	; 0xfffffb00
    93bc:	05000001 	streq	r0, [r0, #-1]
    93c0:	0005c604 	andeq	ip, r5, r4, lsl #12
    93c4:	008e1500 	addeq	r1, lr, r0, lsl #10
    93c8:	060e0000 	streq	r0, [lr], -r0
    93cc:	6c160000 	ldcvs	0, cr0, [r6], {-0}
    93d0:	16000004 	strne	r0, [r0], -r4
    93d4:	00000115 	andeq	r0, r0, r5, lsl r1
    93d8:	00008e16 	andeq	r8, r0, r6, lsl lr
    93dc:	00251600 	eoreq	r1, r5, r0, lsl #12
    93e0:	05000000 	streq	r0, [r0, #-0]
    93e4:	0005f004 	andeq	pc, r5, r4
    93e8:	00251500 	eoreq	r1, r5, r0, lsl #10
    93ec:	06280000 	strteq	r0, [r8], -r0
    93f0:	6c160000 	ldcvs	0, cr0, [r6], {-0}
    93f4:	16000004 	strne	r0, [r0], -r4
    93f8:	00000115 	andeq	r0, r0, r5, lsl r1
    93fc:	14040500 	strne	r0, [r4], #-1280	; 0xfffffb00
    9400:	0a000006 	beq	9420 <gpio_set_function+0x5c>
    9404:	0000004f 	andeq	r0, r0, pc, asr #32
    9408:	0000063e 	andeq	r0, r0, lr, lsr r6
    940c:	00002c0b 	andeq	r2, r0, fp, lsl #24
    9410:	0a000200 	beq	9c18 <__FUNCTION__.4253+0xc8>
    9414:	0000004f 	andeq	r0, r0, pc, asr #32
    9418:	0000064e 	andeq	r0, r0, lr, asr #12
    941c:	00002c0b 	andeq	r2, r0, fp, lsl #24
    9420:	07000000 	streq	r0, [r0, -r0]
    9424:	0000039c 	muleq	r0, ip, r3
    9428:	1a011f05 	bne	51044 <__bss_end__+0x46fe4>
    942c:	0000030b 	andeq	r0, r0, fp, lsl #6
    9430:	0004b71a 	andeq	fp, r4, sl, lsl r7
    9434:	23050c00 	movwcs	r0, #23552	; 0x5c00
    9438:	06940801 	ldreq	r0, [r4], r1, lsl #16
    943c:	c4180000 	ldrgt	r0, [r8], #-0
    9440:	05000003 	streq	r0, [r0, #-3]
    9444:	94110125 	ldrls	r0, [r1], #-293	; 0xfffffedb
    9448:	00000006 	andeq	r0, r0, r6
    944c:	00021b18 	andeq	r1, r2, r8, lsl fp
    9450:	01260500 			; <UNDEFINED> instruction: 0x01260500
    9454:	00002507 	andeq	r2, r0, r7, lsl #10
    9458:	96180400 	ldrls	r0, [r8], -r0, lsl #8
    945c:	05000003 	streq	r0, [r0, #-3]
    9460:	9a0b0127 	bls	2c9904 <__bss_end__+0x2bf8a4>
    9464:	08000006 	stmdaeq	r0, {r1, r2}
    9468:	5b040500 	blpl	10a870 <__bss_end__+0x100810>
    946c:	05000006 	streq	r0, [r0, #-6]
    9470:	00064e04 	andeq	r4, r6, r4, lsl #28
    9474:	00211a00 	eoreq	r1, r1, r0, lsl #20
    9478:	050e0000 	streq	r0, [lr, #-0]
    947c:	d908013f 	stmdble	r8, {r0, r1, r2, r3, r4, r5, r8}
    9480:	18000006 	stmdane	r0, {r1, r2}
    9484:	00000413 	andeq	r0, r0, r3, lsl r4
    9488:	12014005 	andne	r4, r1, #5
    948c:	000006d9 	ldrdeq	r0, [r0], -r9
    9490:	04471800 	strbeq	r1, [r7], #-2048	; 0xfffff800
    9494:	41050000 	mrsmi	r0, (UNDEF: 5)
    9498:	06d91201 	ldrbeq	r1, [r9], r1, lsl #4
    949c:	18060000 	stmdane	r6, {}	; <UNPREDICTABLE>
    94a0:	00000463 	andeq	r0, r0, r3, ror #8
    94a4:	12014205 	andne	r4, r1, #1342177280	; 0x50000000
    94a8:	00000056 	andeq	r0, r0, r6, asr r0
    94ac:	560a000c 	strpl	r0, [sl], -ip
    94b0:	e9000000 	stmdb	r0, {}	; <UNPREDICTABLE>
    94b4:	0b000006 	bleq	94d4 <gpio_read+0x24>
    94b8:	0000002c 	andeq	r0, r0, ip, lsr #32
    94bc:	d01b0002 	andsle	r0, fp, r2
    94c0:	07028005 	streq	r8, [r2, -r5]
    94c4:	000007fe 	strdeq	r0, [r0], -lr
    94c8:	00049b18 	andeq	r9, r4, r8, lsl fp
    94cc:	02820500 	addeq	r0, r2, #0, 10
    94d0:	00002c18 	andeq	r2, r0, r8, lsl ip
    94d4:	4d180000 	ldcmi	0, cr0, [r8, #-0]
    94d8:	05000004 	streq	r0, [r0, #-4]
    94dc:	17120283 	ldrne	r0, [r2, -r3, lsl #5]
    94e0:	04000001 	streq	r0, [r0], #-1
    94e4:	00024a18 	andeq	r4, r2, r8, lsl sl
    94e8:	02840500 	addeq	r0, r4, #0, 10
    94ec:	0007fe10 	andeq	pc, r7, r0, lsl lr	; <UNPREDICTABLE>
    94f0:	fb180800 	blx	60b4fa <__bss_end__+0x60149a>
    94f4:	05000004 	streq	r0, [r0, #-4]
    94f8:	a5170285 	ldrge	r0, [r7, #-645]	; 0xfffffd7b
    94fc:	24000001 	strcs	r0, [r0], #-1
    9500:	0001b818 	andeq	fp, r1, r8, lsl r8
    9504:	02860500 	addeq	r0, r6, #0, 10
    9508:	0000250f 	andeq	r2, r0, pc, lsl #10
    950c:	bf184800 	svclt	0x00184800
    9510:	05000003 	streq	r0, [r0, #-3]
    9514:	642c0287 	strtvs	r0, [ip], #-647	; 0xfffffd79
    9518:	50000000 	andpl	r0, r0, r0
    951c:	00051118 	andeq	r1, r5, r8, lsl r1
    9520:	02880500 	addeq	r0, r8, #0, 10
    9524:	0006a01a 	andeq	sl, r6, sl, lsl r0
    9528:	ca185800 	bgt	61f530 <__bss_end__+0x6154d0>
    952c:	05000003 	streq	r0, [r0, #-3]
    9530:	fd160289 	ldc2	2, cr0, [r6, #-548]	; 0xfffffddc
    9534:	68000000 	stmdavs	r0, {}	; <UNPREDICTABLE>
    9538:	00051618 	andeq	r1, r5, r8, lsl r6
    953c:	028a0500 	addeq	r0, sl, #0, 10
    9540:	0000fd16 	andeq	pc, r0, r6, lsl sp	; <UNPREDICTABLE>
    9544:	ce187000 	cdpgt	0, 1, cr7, cr8, cr0, {0}
    9548:	05000002 	streq	r0, [r0, #-2]
    954c:	fd16028b 	ldc2	2, cr0, [r6, #-556]	; 0xfffffdd4
    9550:	78000000 	stmdavc	r0, {}	; <UNPREDICTABLE>
    9554:	0004c618 	andeq	ip, r4, r8, lsl r6
    9558:	028c0500 	addeq	r0, ip, #0, 10
    955c:	00080e10 	andeq	r0, r8, r0, lsl lr
    9560:	3e188000 	cdpcc	0, 1, cr8, cr8, cr0, {0}
    9564:	05000002 	streq	r0, [r0, #-2]
    9568:	1e10028d 	cdpne	2, 1, cr0, cr0, cr13, {4}
    956c:	88000008 	stmdahi	r0, {r3}
    9570:	00047018 	andeq	r7, r4, r8, lsl r0
    9574:	028e0500 	addeq	r0, lr, #0, 10
    9578:	0000250f 	andeq	r2, r0, pc, lsl #10
    957c:	7e18a000 	cdpvc	0, 1, cr10, cr8, cr0, {0}
    9580:	05000001 	streq	r0, [r0, #-1]
    9584:	fd16028f 	ldc2	2, cr0, [r6, #-572]	; 0xfffffdc4
    9588:	a4000000 	strge	r0, [r0], #-0
    958c:	00008f18 	andeq	r8, r0, r8, lsl pc
    9590:	02900500 	addseq	r0, r0, #0, 10
    9594:	0000fd16 	andeq	pc, r0, r6, lsl sp	; <UNPREDICTABLE>
    9598:	6d18ac00 	ldcvs	12, cr10, [r8, #-0]
    959c:	05000001 	streq	r0, [r0, #-1]
    95a0:	fd160291 	ldc2	2, cr0, [r6, #-580]	; 0xfffffdbc
    95a4:	b4000000 	strlt	r0, [r0], #-0
    95a8:	00003c18 	andeq	r3, r0, r8, lsl ip
    95ac:	02920500 	addseq	r0, r2, #0, 10
    95b0:	0000fd16 	andeq	pc, r0, r6, lsl sp	; <UNPREDICTABLE>
    95b4:	4b18bc00 	blmi	6385bc <__bss_end__+0x62e55c>
    95b8:	05000000 	streq	r0, [r0, #-0]
    95bc:	fd160293 	ldc2	2, cr0, [r6, #-588]	; 0xfffffdb4
    95c0:	c4000000 	strgt	r0, [r0], #-0
    95c4:	00036e18 	andeq	r6, r3, r8, lsl lr
    95c8:	02940500 	addseq	r0, r4, #0, 10
    95cc:	00002508 	andeq	r2, r0, r8, lsl #10
    95d0:	0a00cc00 	beq	3c5d8 <__bss_end__+0x32578>
    95d4:	0000011d 	andeq	r0, r0, sp, lsl r1
    95d8:	0000080e 	andeq	r0, r0, lr, lsl #16
    95dc:	00002c0b 	andeq	r2, r0, fp, lsl #24
    95e0:	0a001900 	beq	f9e8 <__bss_end__+0x5988>
    95e4:	0000011d 	andeq	r0, r0, sp, lsl r1
    95e8:	0000081e 	andeq	r0, r0, lr, lsl r8
    95ec:	00002c0b 	andeq	r2, r0, fp, lsl #24
    95f0:	0a000700 	beq	b1f8 <__bss_end__+0x1198>
    95f4:	0000011d 	andeq	r0, r0, sp, lsl r1
    95f8:	0000082e 	andeq	r0, r0, lr, lsr #16
    95fc:	00002c0b 	andeq	r2, r0, fp, lsl #24
    9600:	1b001700 	blne	f208 <__bss_end__+0x51a8>
    9604:	029905f0 	addseq	r0, r9, #240, 10	; 0x3c000000
    9608:	00085507 	andeq	r5, r8, r7, lsl #10
    960c:	029a1800 	addseq	r1, sl, #0, 16
    9610:	9c050000 	stcls	0, cr0, [r5], {-0}
    9614:	08551b02 	ldmdaeq	r5, {r1, r8, r9, fp, ip}^
    9618:	18000000 	stmdane	r0, {}	; <UNPREDICTABLE>
    961c:	000004bd 			; <UNDEFINED> instruction: 0x000004bd
    9620:	18029d05 	stmdane	r2, {r0, r2, r8, sl, fp, ip, pc}
    9624:	00000865 	andeq	r0, r0, r5, ror #16
    9628:	050a0078 	streq	r0, [sl, #-120]	; 0xffffff88
    962c:	65000003 	strvs	r0, [r0, #-3]
    9630:	0b000008 	bleq	9658 <kfree_all+0x4>
    9634:	0000002c 	andeq	r0, r0, ip, lsr #32
    9638:	2c0a001d 	stccs	0, cr0, [sl], {29}
    963c:	75000000 	strvc	r0, [r0, #-0]
    9640:	0b000008 	bleq	9668 <kfree_after>
    9644:	0000002c 	andeq	r0, r0, ip, lsr #32
    9648:	f01c001d 			; <UNDEFINED> instruction: 0xf01c001d
    964c:	03027e05 	movweq	r7, #11781	; 0x2e05
    9650:	0000089a 	muleq	r0, sl, r8
    9654:	00040c1d 	andeq	r0, r4, sp, lsl ip
    9658:	02950500 	addseq	r0, r5, #0, 10
    965c:	0006e90b 	andeq	lr, r6, fp, lsl #18
    9660:	04e81d00 	strbteq	r1, [r8], #3328	; 0xd00
    9664:	9e050000 	cdpls	0, 0, cr0, cr5, cr0, {0}
    9668:	082e0b02 	stmdaeq	lr!, {r1, r8, r9, fp}
    966c:	0a000000 	beq	9674 <kfree_after+0xc>
    9670:	0000011d 	andeq	r0, r0, sp, lsl r1
    9674:	000008aa 	andeq	r0, r0, sl, lsr #17
    9678:	00002c0b 	andeq	r2, r0, fp, lsl #24
    967c:	06001800 	streq	r1, [r0], -r0, lsl #16
    9680:	00000084 	andeq	r0, r0, r4, lsl #1
    9684:	08aa0405 	stmiaeq	sl!, {r0, r2, sl}
    9688:	c01e0000 	andsgt	r0, lr, r0
    968c:	16000008 	strne	r0, [r0], -r8
    9690:	0000046c 	andeq	r0, r0, ip, ror #8
    9694:	b5040500 	strlt	r0, [r4, #-1280]	; 0xfffffb00
    9698:	05000008 	streq	r0, [r0, #-8]
    969c:	00018f04 	andeq	r8, r1, r4, lsl #30
    96a0:	08d71e00 	ldmeq	r7, {r9, sl, fp, ip}^
    96a4:	25160000 	ldrcs	r0, [r6, #-0]
    96a8:	00000000 	andeq	r0, r0, r0
    96ac:	08dd0405 	ldmeq	sp, {r0, r2, sl}^
    96b0:	04050000 	streq	r0, [r5], #-0
    96b4:	000008cc 	andeq	r0, r0, ip, asr #17
    96b8:	00064e0a 	andeq	r4, r6, sl, lsl #28
    96bc:	0008f300 	andeq	pc, r8, r0, lsl #6
    96c0:	002c0b00 	eoreq	r0, ip, r0, lsl #22
    96c4:	00020000 	andeq	r0, r2, r0
    96c8:	0004841f 	andeq	r8, r4, pc, lsl r4
    96cc:	032e0500 			; <UNDEFINED> instruction: 0x032e0500
    96d0:	00046c17 	andeq	r6, r4, r7, lsl ip
    96d4:	047d1f00 	ldrbteq	r1, [sp], #-3840	; 0xfffff100
    96d8:	2f050000 	svccs	0x00050000
    96dc:	04721d03 	ldrbteq	r1, [r2], #-3331	; 0xfffff2fd
    96e0:	25150000 	ldrcs	r0, [r5, #-0]
    96e4:	1c000000 	stcne	0, cr0, [r0], {-0}
    96e8:	16000009 	strne	r0, [r0], -r9
    96ec:	00000025 	andeq	r0, r0, r5, lsr #32
    96f0:	01d12000 	bicseq	r2, r1, r0
    96f4:	1d060000 	stcne	0, cr0, [r6, #-0]
    96f8:	0009280e 	andeq	r2, r9, lr, lsl #16
    96fc:	0d040500 	cfstr32eq	mvfx0, [r4, #-0]
    9700:	15000009 	strne	r0, [r0, #-9]
    9704:	00000025 	andeq	r0, r0, r5, lsr #32
    9708:	0000093d 	andeq	r0, r0, sp, lsr r9
    970c:	0005e416 	andeq	lr, r5, r6, lsl r4
    9710:	73200000 	nopvc	{0}	; <UNPREDICTABLE>
    9714:	06000007 	streq	r0, [r0], -r7
    9718:	09490e22 	stmdbeq	r9, {r1, r5, r9, sl, fp}^
    971c:	04050000 	streq	r0, [r5], #-0
    9720:	0000092e 	andeq	r0, r0, lr, lsr #18
    9724:	0008f121 	andeq	pc, r8, r1, lsr #2
    9728:	062b0100 	strteq	r0, [fp], -r0, lsl #2
    972c:	000091e8 	andeq	r9, r0, r8, ror #3
    9730:	00000018 	andeq	r0, r0, r8, lsl r0
    9734:	09999c01 	ldmibeq	r9, {r0, sl, fp, ip, pc}
    9738:	73220000 			; <UNDEFINED> instruction: 0x73220000
    973c:	01006365 	tsteq	r0, r5, ror #6
    9740:	002c192b 	eoreq	r1, ip, fp, lsr #18
    9744:	12900000 	addsne	r0, r0, #0
    9748:	128c0000 	addne	r0, ip, #0
    974c:	fc230000 	stc2	0, cr0, [r3], #-0
    9750:	99000091 	stmdbls	r0, {r0, r4, r7}
    9754:	24000009 	strcs	r0, [r0], #-9
    9758:	f3115001 	vhadd.u16	d5, d1, d1
    975c:	24355001 	ldrtcs	r5, [r5], #-1
    9760:	1c5001f3 	ldfnee	f0, [r0], {243}	; 0xf3
    9764:	01f32432 	mvnseq	r2, r2, lsr r4
    9768:	24332250 	ldrtcs	r2, [r3], #-592	; 0xfffffdb0
    976c:	21210000 			; <UNDEFINED> instruction: 0x21210000
    9770:	01000008 	tsteq	r0, r8
    9774:	91d00628 	bicsls	r0, r0, r8, lsr #12
    9778:	00180000 	andseq	r0, r8, r0
    977c:	9c010000 	stcls	0, cr0, [r1], {-0}
    9780:	000009e2 	andeq	r0, r0, r2, ror #19
    9784:	00736d22 	rsbseq	r6, r3, r2, lsr #26
    9788:	2c182801 	ldccs	8, cr2, [r8], {1}
    978c:	b5000000 	strlt	r0, [r0, #-0]
    9790:	b1000012 	tstlt	r0, r2, lsl r0
    9794:	23000012 	movwcs	r0, #18
    9798:	000091e4 	andeq	r9, r0, r4, ror #3
    979c:	000009e2 	andeq	r0, r0, r2, ror #19
    97a0:	11500124 	cmpne	r0, r4, lsr #2
    97a4:	355001f3 	ldrbcc	r0, [r0, #-499]	; 0xfffffe0d
    97a8:	5001f324 	andpl	pc, r1, r4, lsr #6
    97ac:	f324321c 	vqsub.u32	d3, d4, d12
    97b0:	33225001 			; <UNDEFINED> instruction: 0x33225001
    97b4:	21000024 	tstcs	r0, r4, lsr #32
    97b8:	00000939 	andeq	r0, r0, r9, lsr r9
    97bc:	ac061f01 	stcge	15, cr1, [r6], {1}
    97c0:	24000091 	strcs	r0, [r0], #-145	; 0xffffff6f
    97c4:	01000000 	mrseq	r0, (UNDEF: 0)
    97c8:	000a529c 	muleq	sl, ip, r2
    97cc:	73752200 	cmnvc	r5, #0, 4
    97d0:	181f0100 	ldmdane	pc, {r8}	; <UNPREDICTABLE>
    97d4:	0000002c 	andeq	r0, r0, ip, lsr #32
    97d8:	000012da 	ldrdeq	r1, [r0], -sl
    97dc:	000012d6 	ldrdeq	r1, [r0], -r6
    97e0:	00627225 	rsbeq	r7, r2, r5, lsr #4
    97e4:	2c0e2001 	stccs	0, cr2, [lr], {1}
    97e8:	fa000000 	blx	97f0 <__FUNCTION__.4337+0xdc>
    97ec:	f8000012 			; <UNDEFINED> instruction: 0xf8000012
    97f0:	26000012 			; <UNDEFINED> instruction: 0x26000012
    97f4:	000091bc 			; <UNDEFINED> instruction: 0x000091bc
    97f8:	00000014 	andeq	r0, r0, r4, lsl r0
    97fc:	00000a48 	andeq	r0, r0, r8, asr #20
    9800:	00617225 	rsbeq	r7, r1, r5, lsr #4
    9804:	2c122201 	lfmcs	f2, 4, [r2], {1}
    9808:	0f000000 	svceq	0x00000000
    980c:	0d000013 	stceq	0, cr0, [r0, #-76]	; 0xffffffb4
    9810:	27000013 	smladcs	r0, r3, r0, r0
    9814:	000091c0 	andeq	r9, r0, r0, asr #3
    9818:	00000a52 	andeq	r0, r0, r2, asr sl
    981c:	91b82700 			; <UNDEFINED> instruction: 0x91b82700
    9820:	0a520000 	beq	1489828 <__bss_end__+0x147f7c8>
    9824:	28000000 	stmdacs	r0, {}	; <UNPREDICTABLE>
    9828:	000008e2 	andeq	r0, r0, r2, ror #17
    982c:	2c0a1601 	stccs	6, cr1, [sl], {1}
    9830:	a0000000 	andge	r0, r0, r0
    9834:	0c000091 	stceq	0, cr0, [r0], {145}	; 0x91
    9838:	01000000 	mrseq	r0, (UNDEF: 0)
    983c:	000a889c 	muleq	sl, ip, r8
    9840:	00752500 	rsbseq	r2, r5, r0, lsl #10
    9844:	2c0e1a01 			; <UNDEFINED> instruction: 0x2c0e1a01
    9848:	24000000 	strcs	r0, [r0], #-0
    984c:	22000013 	andcs	r0, r0, #19
    9850:	27000013 	smladcs	r0, r3, r0, r0
    9854:	000091a8 	andeq	r9, r0, r8, lsr #3
    9858:	00000a88 	andeq	r0, r0, r8, lsl #21
    985c:	09262800 	stmdbeq	r6!, {fp, sp}
    9860:	11010000 	mrsne	r0, (UNDEF: 1)
    9864:	00002c0a 	andeq	r2, r0, sl, lsl #24
    9868:	00918c00 	addseq	r8, r1, r0, lsl #24
    986c:	00001400 	andeq	r1, r0, r0, lsl #8
    9870:	b69c0100 	ldrlt	r0, [ip], r0, lsl #2
    9874:	2300000a 	movwcs	r0, #10
    9878:	00009198 	muleq	r0, r8, r1
    987c:	00000ae1 	andeq	r0, r0, r1, ror #21
    9880:	05500124 	ldrbeq	r0, [r0, #-292]	; 0xfffffedc
    9884:	0030040c 	eorseq	r0, r0, ip, lsl #8
    9888:	21000020 	tstcs	r0, r0, lsr #32
    988c:	000008fb 	strdeq	r0, [r0], -fp
    9890:	74060501 	strvc	r0, [r6], #-1281	; 0xfffffaff
    9894:	18000091 	stmdane	r0, {r0, r4, r7}
    9898:	01000000 	mrseq	r0, (UNDEF: 0)
    989c:	000ae19c 	muleq	sl, ip, r1
    98a0:	091a2900 	ldmdbeq	sl, {r8, fp, sp}
    98a4:	05010000 	streq	r0, [r1, #-0]
    98a8:	00002c1c 	andeq	r2, r0, ip, lsl ip
    98ac:	00133b00 	andseq	r3, r3, r0, lsl #22
    98b0:	00133700 	andseq	r3, r3, r0, lsl #14
    98b4:	202a0000 	eorcs	r0, sl, r0
    98b8:	20000009 	andcs	r0, r0, r9
    98bc:	06000009 	streq	r0, [r0], -r9
    98c0:	c5000aa7 	strgt	r0, [r0, #-2727]	; 0xfffff559
    98c4:	0400000c 	streq	r0, [r0], #-12
    98c8:	001efd00 	andseq	pc, lr, r0, lsl #26
    98cc:	51010400 	tstpl	r1, r0, lsl #8
    98d0:	0c00000a 	stceq	0, cr0, [r0], {10}
    98d4:	00000975 	andeq	r0, r0, r5, ror r9
    98d8:	00000988 	andeq	r0, r0, r8, lsl #19
    98dc:	0000924c 	andeq	r9, r0, ip, asr #4
    98e0:	00000178 	andeq	r0, r0, r8, ror r1
    98e4:	00001999 	muleq	r0, r9, r9
    98e8:	69050402 	stmdbvs	r5, {r1, sl}
    98ec:	0300746e 	movweq	r7, #1134	; 0x46e
    98f0:	00660704 	rsbeq	r0, r6, r4, lsl #14
    98f4:	2c040000 	stccs	0, cr0, [r4], {-0}
    98f8:	03000000 	movweq	r0, #0
    98fc:	02de0601 	sbcseq	r0, lr, #1048576	; 0x100000
    9900:	02030000 	andeq	r0, r3, #0
    9904:	00037705 	andeq	r7, r3, r5, lsl #14
    9908:	05040300 	streq	r0, [r4, #-768]	; 0xfffffd00
    990c:	000000ac 	andeq	r0, r0, ip, lsr #1
    9910:	a7050803 	strge	r0, [r5, -r3, lsl #16]
    9914:	03000000 	movweq	r0, #0
    9918:	02dc0801 	sbcseq	r0, ip, #65536	; 0x10000
    991c:	02030000 	andeq	r0, r3, #0
    9920:	00022207 	andeq	r2, r2, r7, lsl #4
    9924:	07040300 	streq	r0, [r4, -r0, lsl #6]
    9928:	00000061 	andeq	r0, r0, r1, rrx
    992c:	5c070803 	stcpl	8, cr0, [r7], {3}
    9930:	05000000 	streq	r0, [r0, #-0]
    9934:	00000a1c 	andeq	r0, r0, ip, lsl sl
    9938:	00250702 	eoreq	r0, r5, r2, lsl #14
    993c:	bd050000 	stclt	0, cr0, [r5, #-0]
    9940:	03000002 	movweq	r0, #2
    9944:	0000462c 	andeq	r4, r0, ip, lsr #12
    9948:	04360500 	ldrteq	r0, [r6], #-1280	; 0xfffffb00
    994c:	72030000 	andvc	r0, r3, #0
    9950:	00000046 	andeq	r0, r0, r6, asr #32
    9954:	00026d06 	andeq	r6, r2, r6, lsl #26
    9958:	01650400 	cmneq	r5, r0, lsl #8
    995c:	0000002c 	andeq	r0, r0, ip, lsr #32
    9960:	a6030407 	strge	r0, [r3], -r7, lsl #8
    9964:	000000bc 	strheq	r0, [r0], -ip
    9968:	00025f08 	andeq	r5, r2, r8, lsl #30
    996c:	91a80300 			; <UNDEFINED> instruction: 0x91a80300
    9970:	08000000 	stmdaeq	r0, {}	; <UNPREDICTABLE>
    9974:	000001e2 	andeq	r0, r0, r2, ror #3
    9978:	00bca903 	adcseq	sl, ip, r3, lsl #18
    997c:	09000000 	stmdbeq	r0, {}	; <UNPREDICTABLE>
    9980:	00000054 	andeq	r0, r0, r4, asr r0
    9984:	000000cc 	andeq	r0, r0, ip, asr #1
    9988:	0000cc0a 	andeq	ip, r0, sl, lsl #24
    998c:	03000300 	movweq	r0, #768	; 0x300
    9990:	09fc0704 	ldmibeq	ip!, {r2, r8, r9, sl}^
    9994:	080b0000 	stmdaeq	fp, {}	; <UNPREDICTABLE>
    9998:	00f4a303 	rscseq	sl, r4, r3, lsl #6
    999c:	190c0000 	stmdbne	ip, {}	; <UNPREDICTABLE>
    99a0:	03000004 	movweq	r0, #4
    99a4:	000025a5 	andeq	r2, r0, r5, lsr #11
    99a8:	280c0000 	stmdacs	ip, {}	; <UNPREDICTABLE>
    99ac:	03000004 	movweq	r0, #4
    99b0:	00009daa 	andeq	r9, r0, sl, lsr #27
    99b4:	05000400 	streq	r0, [r0, #-1024]	; 0xfffffc00
    99b8:	000003a3 	andeq	r0, r0, r3, lsr #7
    99bc:	00d3ab03 	sbcseq	sl, r3, r3, lsl #22
    99c0:	9f050000 	svcls	0x00050000
    99c4:	03000001 	movweq	r0, #1
    99c8:	000070af 	andeq	r7, r0, pc, lsr #1
    99cc:	0e040d00 	cdpeq	13, 0, cr0, cr4, cr0, {0}
    99d0:	00011204 	andeq	r1, r1, r4, lsl #4
    99d4:	08010300 	stmdaeq	r1, {r8, r9}
    99d8:	000002e5 	andeq	r0, r0, r5, ror #5
    99dc:	0001120f 	andeq	r1, r1, pc, lsl #4
    99e0:	04680500 	strbteq	r0, [r8], #-1280	; 0xfffffb00
    99e4:	16050000 	strne	r0, [r5], -r0
    99e8:	00000062 	andeq	r0, r0, r2, rrx
    99ec:	0001b010 	andeq	fp, r1, r0, lsl r0
    99f0:	2d051800 	stccs	8, cr1, [r5, #-0]
    99f4:	0000017c 	andeq	r0, r0, ip, ror r1
    99f8:	0003c40c 	andeq	ip, r3, ip, lsl #8
    99fc:	7c2f0500 	cfstr32vc	mvfx0, [pc], #-0	; 9a04 <__FUNCTION__.4337+0x2f0>
    9a00:	00000001 	andeq	r0, r0, r1
    9a04:	006b5f11 	rsbeq	r5, fp, r1, lsl pc
    9a08:	00253005 	eoreq	r3, r5, r5
    9a0c:	0c040000 	stceq	0, cr0, [r4], {-0}
    9a10:	00000404 	andeq	r0, r0, r4, lsl #8
    9a14:	00253005 	eoreq	r3, r5, r5
    9a18:	0c080000 	stceq	0, cr0, [r8], {-0}
    9a1c:	00000199 	muleq	r0, r9, r1
    9a20:	00253005 	eoreq	r3, r5, r5
    9a24:	0c0c0000 	stceq	0, cr0, [ip], {-0}
    9a28:	000004a8 	andeq	r0, r0, r8, lsr #9
    9a2c:	00253005 	eoreq	r3, r5, r5
    9a30:	11100000 	tstne	r0, r0
    9a34:	0500785f 	streq	r7, [r0, #-2143]	; 0xfffff7a1
    9a38:	00018231 	andeq	r8, r1, r1, lsr r2
    9a3c:	0e001400 	cfcpyseq	mvf1, mvf0
    9a40:	00012904 	andeq	r2, r1, r4, lsl #18
    9a44:	011e0900 	tsteq	lr, r0, lsl #18
    9a48:	01920000 	orrseq	r0, r2, r0
    9a4c:	cc0a0000 	stcgt	0, cr0, [sl], {-0}
    9a50:	00000000 	andeq	r0, r0, r0
    9a54:	01dd1000 	bicseq	r1, sp, r0
    9a58:	05240000 	streq	r0, [r4, #-0]!
    9a5c:	00020b35 	andeq	r0, r2, r5, lsr fp
    9a60:	009e0c00 	addseq	r0, lr, r0, lsl #24
    9a64:	37050000 	strcc	r0, [r5, -r0]
    9a68:	00000025 	andeq	r0, r0, r5, lsr #32
    9a6c:	043e0c00 	ldrteq	r0, [lr], #-3072	; 0xfffff400
    9a70:	38050000 	stmdacc	r5, {}	; <UNPREDICTABLE>
    9a74:	00000025 	andeq	r0, r0, r5, lsr #32
    9a78:	00c10c04 	sbceq	r0, r1, r4, lsl #24
    9a7c:	39050000 	stmdbcc	r5, {}	; <UNPREDICTABLE>
    9a80:	00000025 	andeq	r0, r0, r5, lsr #32
    9a84:	05330c08 	ldreq	r0, [r3, #-3080]!	; 0xfffff3f8
    9a88:	3a050000 	bcc	149a90 <__bss_end__+0x13fa30>
    9a8c:	00000025 	andeq	r0, r0, r5, lsr #32
    9a90:	02a10c0c 	adceq	r0, r1, #12, 24	; 0xc00
    9a94:	3b050000 	blcc	149a9c <__bss_end__+0x13fa3c>
    9a98:	00000025 	andeq	r0, r0, r5, lsr #32
    9a9c:	02830c10 	addeq	r0, r3, #16, 24	; 0x1000
    9aa0:	3c050000 	stccc	0, cr0, [r5], {-0}
    9aa4:	00000025 	andeq	r0, r0, r5, lsr #32
    9aa8:	04ad0c14 	strteq	r0, [sp], #3092	; 0xc14
    9aac:	3d050000 	stccc	0, cr0, [r5, #-0]
    9ab0:	00000025 	andeq	r0, r0, r5, lsr #32
    9ab4:	05290c18 	streq	r0, [r9, #-3096]!	; 0xfffff3e8
    9ab8:	3e050000 	cdpcc	0, 0, cr0, cr5, cr0, {0}
    9abc:	00000025 	andeq	r0, r0, r5, lsr #32
    9ac0:	04f00c1c 	ldrbteq	r0, [r0], #3100	; 0xc1c
    9ac4:	3f050000 	svccc	0x00050000
    9ac8:	00000025 	andeq	r0, r0, r5, lsr #32
    9acc:	01120020 	tsteq	r2, r0, lsr #32
    9ad0:	08000001 	stmdaeq	r0, {r0}
    9ad4:	4b480501 	blmi	120aee0 <__bss_end__+0x1200e80>
    9ad8:	0c000002 	stceq	0, cr0, [r0], {2}
    9adc:	0000018c 	andeq	r0, r0, ip, lsl #3
    9ae0:	024b4905 	subeq	r4, fp, #81920	; 0x14000
    9ae4:	0c000000 	stceq	0, cr0, [r0], {-0}
    9ae8:	00000000 	andeq	r0, r0, r0
    9aec:	024b4a05 	subeq	r4, fp, #20480	; 0x5000
    9af0:	13800000 	orrne	r0, r0, #0
    9af4:	0000045a 	andeq	r0, r0, sl, asr r4
    9af8:	011e4c05 	tsteq	lr, r5, lsl #24
    9afc:	01000000 	mrseq	r0, (UNDEF: 0)
    9b00:	00012613 	andeq	r2, r1, r3, lsl r6
    9b04:	1e4f0500 	cdpne	5, 4, cr0, cr15, cr0, {0}
    9b08:	04000001 	streq	r0, [r0], #-1
    9b0c:	0a090001 	beq	249b18 <__bss_end__+0x23fab8>
    9b10:	5b000001 	blpl	9b1c <__FUNCTION__.4371+0x4>
    9b14:	0a000002 	beq	9b24 <__FUNCTION__.4371+0xc>
    9b18:	000000cc 	andeq	r0, r0, ip, asr #1
    9b1c:	aa12001f 	bge	489ba0 <__bss_end__+0x47fb40>
    9b20:	90000002 	andls	r0, r0, r2
    9b24:	995b0501 	ldmdbls	fp, {r0, r8, sl}^
    9b28:	0c000002 	stceq	0, cr0, [r0], {2}
    9b2c:	000003c4 	andeq	r0, r0, r4, asr #7
    9b30:	02995c05 	addseq	r5, r9, #1280	; 0x500
    9b34:	0c000000 	stceq	0, cr0, [r0], {-0}
    9b38:	000003dc 	ldrdeq	r0, [r0], -ip
    9b3c:	00255d05 	eoreq	r5, r5, r5, lsl #26
    9b40:	0c040000 	stceq	0, cr0, [r4], {-0}
    9b44:	00000194 	muleq	r0, r4, r1
    9b48:	029f5f05 	addseq	r5, pc, #5, 30
    9b4c:	0c080000 	stceq	0, cr0, [r8], {-0}
    9b50:	00000101 	andeq	r0, r0, r1, lsl #2
    9b54:	020b6005 	andeq	r6, fp, #5
    9b58:	00880000 	addeq	r0, r8, r0
    9b5c:	025b040e 	subseq	r0, fp, #234881024	; 0xe000000
    9b60:	af090000 	svcge	0x00090000
    9b64:	af000002 	svcge	0x00000002
    9b68:	0a000002 	beq	9b78 <__FUNCTION__.4253+0x28>
    9b6c:	000000cc 	andeq	r0, r0, ip, asr #1
    9b70:	040e001f 	streq	r0, [lr], #-31	; 0xffffffe1
    9b74:	000002b5 			; <UNDEFINED> instruction: 0x000002b5
    9b78:	038f1014 	orreq	r1, pc, #20
    9b7c:	05080000 	streq	r0, [r8, #-0]
    9b80:	0002db73 	andeq	sp, r2, r3, ror fp
    9b84:	00bb0c00 	adcseq	r0, fp, r0, lsl #24
    9b88:	74050000 	strvc	r0, [r5], #-0
    9b8c:	000002db 	ldrdeq	r0, [r0], -fp
    9b90:	001b0c00 	andseq	r0, fp, r0, lsl #24
    9b94:	75050000 	strvc	r0, [r5, #-0]
    9b98:	00000025 	andeq	r0, r0, r5, lsr #32
    9b9c:	040e0004 	streq	r0, [lr], #-4
    9ba0:	00000054 	andeq	r0, r0, r4, asr r0
    9ba4:	0003ae10 	andeq	sl, r3, r0, lsl lr
    9ba8:	b3056800 	movwlt	r6, #22528	; 0x5800
    9bac:	0000040b 	andeq	r0, r0, fp, lsl #8
    9bb0:	00705f11 	rsbseq	r5, r0, r1, lsl pc
    9bb4:	02dbb405 	sbcseq	fp, fp, #83886080	; 0x5000000
    9bb8:	11000000 	mrsne	r0, (UNDEF: 0)
    9bbc:	0500725f 	streq	r7, [r0, #-607]	; 0xfffffda1
    9bc0:	000025b5 			; <UNDEFINED> instruction: 0x000025b5
    9bc4:	5f110400 	svcpl	0x00110400
    9bc8:	b6050077 			; <UNDEFINED> instruction: 0xb6050077
    9bcc:	00000025 	andeq	r0, r0, r5, lsr #32
    9bd0:	011f0c08 	tsteq	pc, r8, lsl #24
    9bd4:	b7050000 	strlt	r0, [r5, -r0]
    9bd8:	0000003f 	andeq	r0, r0, pc, lsr r0
    9bdc:	02080c0c 	andeq	r0, r8, #12, 24	; 0xc00
    9be0:	b8050000 	stmdalt	r5, {}	; <UNPREDICTABLE>
    9be4:	0000003f 	andeq	r0, r0, pc, lsr r0
    9be8:	625f110e 	subsvs	r1, pc, #-2147483645	; 0x80000003
    9bec:	b9050066 	stmdblt	r5, {r1, r2, r5, r6}
    9bf0:	000002b6 			; <UNDEFINED> instruction: 0x000002b6
    9bf4:	007b0c10 	rsbseq	r0, fp, r0, lsl ip
    9bf8:	ba050000 	blt	149c00 <__bss_end__+0x13fba0>
    9bfc:	00000025 	andeq	r0, r0, r5, lsr #32
    9c00:	010f0c18 	tsteq	pc, r8, lsl ip	; <UNPREDICTABLE>
    9c04:	c1050000 	mrsgt	r0, (UNDEF: 5)
    9c08:	0000010a 	andeq	r0, r0, sl, lsl #2
    9c0c:	0b590c1c 	bleq	164cc84 <__bss_end__+0x1642c24>
    9c10:	c3050000 	movwgt	r0, #20480	; 0x5000
    9c14:	00000566 	andeq	r0, r0, r6, ror #10
    9c18:	061d0c20 	ldreq	r0, [sp], -r0, lsr #24
    9c1c:	c5050000 	strgt	r0, [r5, #-0]
    9c20:	00000590 	muleq	r0, r0, r5
    9c24:	04300c24 	ldrteq	r0, [r0], #-3108	; 0xfffff3dc
    9c28:	c8050000 	stmdagt	r5, {}	; <UNPREDICTABLE>
    9c2c:	000005b4 			; <UNDEFINED> instruction: 0x000005b4
    9c30:	050a0c28 	streq	r0, [sl, #-3112]	; 0xfffff3d8
    9c34:	c9050000 	stmdbgt	r5, {}	; <UNPREDICTABLE>
    9c38:	000005ce 	andeq	r0, r0, lr, asr #11
    9c3c:	755f112c 	ldrbvc	r1, [pc, #-300]	; 9b18 <__FUNCTION__.4371>
    9c40:	cc050062 	stcgt	0, cr0, [r5], {98}	; 0x62
    9c44:	000002b6 			; <UNDEFINED> instruction: 0x000002b6
    9c48:	755f1130 	ldrbvc	r1, [pc, #-304]	; 9b20 <__FUNCTION__.4371+0x8>
    9c4c:	cd050070 	stcgt	0, cr0, [r5, #-448]	; 0xfffffe40
    9c50:	000002db 	ldrdeq	r0, [r0], -fp
    9c54:	755f1138 	ldrbvc	r1, [pc, #-312]	; 9b24 <__FUNCTION__.4371+0xc>
    9c58:	ce050072 	mcrgt	0, 0, r0, cr5, cr2, {3}
    9c5c:	00000025 	andeq	r0, r0, r5, lsr #32
    9c60:	00b50c3c 	adcseq	r0, r5, ip, lsr ip
    9c64:	d1050000 	mrsle	r0, (UNDEF: 5)
    9c68:	000005d4 	ldrdeq	r0, [r0], -r4
    9c6c:	04e20c40 	strbteq	r0, [r2], #3136	; 0xc40
    9c70:	d2050000 	andle	r0, r5, #0
    9c74:	000005e4 	andeq	r0, r0, r4, ror #11
    9c78:	6c5f1143 	ldfvse	f1, [pc], {67}	; 0x43
    9c7c:	d5050062 	strle	r0, [r5, #-98]	; 0xffffff9e
    9c80:	000002b6 			; <UNDEFINED> instruction: 0x000002b6
    9c84:	013d0c44 	teqeq	sp, r4, asr #24
    9c88:	d8050000 	stmdale	r5, {}	; <UNPREDICTABLE>
    9c8c:	00000025 	andeq	r0, r0, r5, lsr #32
    9c90:	014e0c4c 	cmpeq	lr, ip, asr #24
    9c94:	d9050000 	stmdble	r5, {}	; <UNPREDICTABLE>
    9c98:	0000007b 	andeq	r0, r0, fp, ror r0
    9c9c:	0afa0c50 	beq	ffe8cde4 <__bss_end__+0xffe82d84>
    9ca0:	dc050000 	stcle	0, cr0, [r5], {-0}
    9ca4:	00000429 	andeq	r0, r0, r9, lsr #8
    9ca8:	04220c54 	strteq	r0, [r2], #-3156	; 0xfffff3ac
    9cac:	e0050000 	and	r0, r5, r0
    9cb0:	000000ff 	strdeq	r0, [r0], -pc	; <UNPREDICTABLE>
    9cb4:	03b60c58 			; <UNDEFINED> instruction: 0x03b60c58
    9cb8:	e2050000 	and	r0, r5, #0
    9cbc:	000000f4 	strdeq	r0, [r0], -r4
    9cc0:	027b0c5c 	rsbseq	r0, fp, #92, 24	; 0x5c00
    9cc4:	e3050000 	movw	r0, #20480	; 0x5000
    9cc8:	00000025 	andeq	r0, r0, r5, lsr #32
    9ccc:	25150064 	ldrcs	r0, [r5, #-100]	; 0xffffff9c
    9cd0:	29000000 	stmdbcs	r0, {}	; <UNPREDICTABLE>
    9cd4:	16000004 	strne	r0, [r0], -r4
    9cd8:	00000429 	andeq	r0, r0, r9, lsr #8
    9cdc:	00010a16 	andeq	r0, r1, r6, lsl sl
    9ce0:	010c1600 	tsteq	ip, r0, lsl #12
    9ce4:	25160000 	ldrcs	r0, [r6, #-0]
    9ce8:	00000000 	andeq	r0, r0, r0
    9cec:	0434040e 	ldrteq	r0, [r4], #-1038	; 0xfffffbf2
    9cf0:	290f0000 	stmdbcs	pc, {}	; <UNPREDICTABLE>
    9cf4:	17000004 	strne	r0, [r0, -r4]
    9cf8:	0000040c 	andeq	r0, r0, ip, lsl #8
    9cfc:	38050428 	stmdacc	r5, {r3, r5, sl}
    9d00:	00056602 	andeq	r6, r5, r2, lsl #12
    9d04:	03701800 	cmneq	r0, #0, 16
    9d08:	3a050000 	bcc	149d10 <__bss_end__+0x13fcb0>
    9d0c:	00002502 	andeq	r2, r0, r2, lsl #10
    9d10:	2e180000 	cdpcs	0, 1, cr0, cr8, cr0, {0}
    9d14:	05000001 	streq	r0, [r0, #-1]
    9d18:	063b023f 			; <UNDEFINED> instruction: 0x063b023f
    9d1c:	18040000 	stmdane	r4, {}	; <UNPREDICTABLE>
    9d20:	000001f8 	strdeq	r0, [r0], -r8
    9d24:	3b023f05 	blcc	99940 <__bss_end__+0x8f8e0>
    9d28:	08000006 	stmdaeq	r0, {r1, r2}
    9d2c:	0001a818 	andeq	sl, r1, r8, lsl r8
    9d30:	023f0500 	eorseq	r0, pc, #0, 10
    9d34:	0000063b 	andeq	r0, r0, fp, lsr r6
    9d38:	03d7180c 	bicseq	r1, r7, #12, 16	; 0xc0000
    9d3c:	41050000 	mrsmi	r0, (UNDEF: 5)
    9d40:	00002502 	andeq	r2, r0, r2, lsl #10
    9d44:	29181000 	ldmdbcs	r8, {ip}
    9d48:	05000000 	streq	r0, [r0, #-0]
    9d4c:	081d0242 	ldmdaeq	sp, {r1, r6, r9}
    9d50:	18140000 	ldmdane	r4, {}	; <UNPREDICTABLE>
    9d54:	00000ab3 			; <UNDEFINED> instruction: 0x00000ab3
    9d58:	25024405 	strcs	r4, [r2, #-1029]	; 0xfffffbfb
    9d5c:	30000000 	andcc	r0, r0, r0
    9d60:	000a2e18 	andeq	r2, sl, r8, lsl lr
    9d64:	02450500 	subeq	r0, r5, #0, 10
    9d68:	0000058a 	andeq	r0, r0, sl, lsl #11
    9d6c:	02b21834 	adcseq	r1, r2, #52, 16	; 0x340000
    9d70:	47050000 	strmi	r0, [r5, -r0]
    9d74:	00002502 	andeq	r2, r0, r2, lsl #10
    9d78:	e1183800 	tst	r8, r0, lsl #16
    9d7c:	05000003 	streq	r0, [r0, #-3]
    9d80:	08380249 	ldmdaeq	r8!, {r0, r3, r6, r9}
    9d84:	183c0000 	ldmdane	ip!, {}	; <UNPREDICTABLE>
    9d88:	00000257 	andeq	r0, r0, r7, asr r2
    9d8c:	7c024c05 	stcvc	12, cr4, [r2], {5}
    9d90:	40000001 	andmi	r0, r0, r1
    9d94:	0001c718 	andeq	ip, r1, r8, lsl r7
    9d98:	024d0500 	subeq	r0, sp, #0, 10
    9d9c:	00000025 	andeq	r0, r0, r5, lsr #32
    9da0:	05241844 	streq	r1, [r4, #-2116]!	; 0xfffff7bc
    9da4:	4e050000 	cdpmi	0, 0, cr0, cr5, cr0, {0}
    9da8:	00017c02 	andeq	r7, r1, r2, lsl #24
    9dac:	c4184800 	ldrgt	r4, [r8], #-2048	; 0xfffff800
    9db0:	05000002 	streq	r0, [r0, #-2]
    9db4:	083e024f 	ldmdaeq	lr!, {r0, r1, r2, r3, r6, r9}
    9db8:	184c0000 	stmdane	ip, {}^	; <UNPREDICTABLE>
    9dbc:	00000200 	andeq	r0, r0, r0, lsl #4
    9dc0:	25025205 	strcs	r5, [r2, #-517]	; 0xfffffdfb
    9dc4:	50000000 	andpl	r0, r0, r0
    9dc8:	00014618 	andeq	r4, r1, r8, lsl r6
    9dcc:	02530500 	subseq	r0, r3, #0, 10
    9dd0:	0000010c 	andeq	r0, r0, ip, lsl #2
    9dd4:	02ea1854 	rsceq	r1, sl, #84, 16	; 0x540000
    9dd8:	76050000 	strvc	r0, [r5], -r0
    9ddc:	0007fb02 	andeq	pc, r7, r2, lsl #22
    9de0:	aa195800 	bge	65fde8 <__bss_end__+0x655d88>
    9de4:	05000002 	streq	r0, [r0, #-2]
    9de8:	0299027a 	addseq	r0, r9, #-1610612729	; 0xa0000007
    9dec:	01480000 	mrseq	r0, (UNDEF: 72)
    9df0:	00023519 	andeq	r3, r2, r9, lsl r5
    9df4:	027b0500 	rsbseq	r0, fp, #0, 10
    9df8:	0000025b 	andeq	r0, r0, fp, asr r2
    9dfc:	d019014c 	andsle	r0, r9, ip, asr #2
    9e00:	05000004 	streq	r0, [r0, #-4]
    9e04:	084f027f 	stmdaeq	pc, {r0, r1, r2, r3, r4, r5, r6, r9}^	; <UNPREDICTABLE>
    9e08:	02dc0000 	sbcseq	r0, ip, #0
    9e0c:	00011719 	andeq	r1, r1, r9, lsl r7
    9e10:	02840500 	addeq	r0, r4, #0, 10
    9e14:	00000600 	andeq	r0, r0, r0, lsl #12
    9e18:	fc1902e0 	ldc2	2, cr0, [r9], {224}	; 0xe0
    9e1c:	05000000 	streq	r0, [r0, #-0]
    9e20:	085b0285 	ldmdaeq	fp, {r0, r2, r7, r9}^
    9e24:	02ec0000 	rsceq	r0, ip, #0
    9e28:	0b040e00 	bleq	10d630 <__bss_end__+0x1035d0>
    9e2c:	15000004 	strne	r0, [r0, #-4]
    9e30:	00000025 	andeq	r0, r0, r5, lsr #32
    9e34:	0000058a 	andeq	r0, r0, sl, lsl #11
    9e38:	00042916 	andeq	r2, r4, r6, lsl r9
    9e3c:	010a1600 	tsteq	sl, r0, lsl #12
    9e40:	8a160000 	bhi	589e48 <__bss_end__+0x57fde8>
    9e44:	16000005 	strne	r0, [r0], -r5
    9e48:	00000025 	andeq	r0, r0, r5, lsr #32
    9e4c:	19040e00 	stmdbne	r4, {r9, sl, fp}
    9e50:	0e000001 	cdpeq	0, 0, cr0, cr0, cr1, {0}
    9e54:	00056c04 	andeq	r6, r5, r4, lsl #24
    9e58:	00861500 	addeq	r1, r6, r0, lsl #10
    9e5c:	05b40000 	ldreq	r0, [r4, #0]!
    9e60:	29160000 	ldmdbcs	r6, {}	; <UNPREDICTABLE>
    9e64:	16000004 	strne	r0, [r0], -r4
    9e68:	0000010a 	andeq	r0, r0, sl, lsl #2
    9e6c:	00008616 	andeq	r8, r0, r6, lsl r6
    9e70:	00251600 	eoreq	r1, r5, r0, lsl #12
    9e74:	0e000000 	cdpeq	0, 0, cr0, cr0, cr0, {0}
    9e78:	00059604 	andeq	r9, r5, r4, lsl #12
    9e7c:	00251500 	eoreq	r1, r5, r0, lsl #10
    9e80:	05ce0000 	strbeq	r0, [lr]
    9e84:	29160000 	ldmdbcs	r6, {}	; <UNPREDICTABLE>
    9e88:	16000004 	strne	r0, [r0], -r4
    9e8c:	0000010a 	andeq	r0, r0, sl, lsl #2
    9e90:	ba040e00 	blt	10d698 <__bss_end__+0x103638>
    9e94:	09000005 	stmdbeq	r0, {r0, r2}
    9e98:	00000054 	andeq	r0, r0, r4, asr r0
    9e9c:	000005e4 	andeq	r0, r0, r4, ror #11
    9ea0:	0000cc0a 	andeq	ip, r0, sl, lsl #24
    9ea4:	09000200 	stmdbeq	r0, {r9}
    9ea8:	00000054 	andeq	r0, r0, r4, asr r0
    9eac:	000005f4 	strdeq	r0, [r0], -r4
    9eb0:	0000cc0a 	andeq	ip, r0, sl, lsl #24
    9eb4:	06000000 	streq	r0, [r0], -r0
    9eb8:	0000039c 	muleq	r0, ip, r3
    9ebc:	e1011d05 	tst	r1, r5, lsl #26
    9ec0:	1a000002 	bne	9ed0 <buf.4297+0x274>
    9ec4:	000004b7 			; <UNDEFINED> instruction: 0x000004b7
    9ec8:	0121050c 			; <UNDEFINED> instruction: 0x0121050c
    9ecc:	00000635 	andeq	r0, r0, r5, lsr r6
    9ed0:	0003c418 	andeq	ip, r3, r8, lsl r4
    9ed4:	01230500 			; <UNDEFINED> instruction: 0x01230500
    9ed8:	00000635 	andeq	r0, r0, r5, lsr r6
    9edc:	021b1800 	andseq	r1, fp, #0, 16
    9ee0:	24050000 	strcs	r0, [r5], #-0
    9ee4:	00002501 	andeq	r2, r0, r1, lsl #10
    9ee8:	96180400 	ldrls	r0, [r8], -r0, lsl #8
    9eec:	05000003 	streq	r0, [r0, #-3]
    9ef0:	063b0125 	ldrteq	r0, [fp], -r5, lsr #2
    9ef4:	00080000 	andeq	r0, r8, r0
    9ef8:	0600040e 	streq	r0, [r0], -lr, lsl #8
    9efc:	040e0000 	streq	r0, [lr], #-0
    9f00:	000005f4 	strdeq	r0, [r0], -r4
    9f04:	0000211a 	andeq	r2, r0, sl, lsl r1
    9f08:	3d050e00 	stccc	14, cr0, [r5, #-0]
    9f0c:	00067601 	andeq	r7, r6, r1, lsl #12
    9f10:	04131800 	ldreq	r1, [r3], #-2048	; 0xfffff800
    9f14:	3e050000 	cdpcc	0, 0, cr0, cr5, cr0, {0}
    9f18:	00067601 	andeq	r7, r6, r1, lsl #12
    9f1c:	47180000 	ldrmi	r0, [r8, -r0]
    9f20:	05000004 	streq	r0, [r0, #-4]
    9f24:	0676013f 			; <UNDEFINED> instruction: 0x0676013f
    9f28:	18060000 	stmdane	r6, {}	; <UNPREDICTABLE>
    9f2c:	00000463 	andeq	r0, r0, r3, ror #8
    9f30:	5b014005 	blpl	59f4c <__bss_end__+0x4feec>
    9f34:	0c000000 	stceq	0, cr0, [r0], {-0}
    9f38:	005b0900 	subseq	r0, fp, r0, lsl #18
    9f3c:	06860000 	streq	r0, [r6], r0
    9f40:	cc0a0000 	stcgt	0, cr0, [sl], {-0}
    9f44:	02000000 	andeq	r0, r0, #0
    9f48:	05d01b00 	ldrbeq	r1, [r0, #2816]	; 0xb00
    9f4c:	07870257 			; <UNDEFINED> instruction: 0x07870257
    9f50:	9b180000 	blls	609f58 <__bss_end__+0x5ffef8>
    9f54:	05000004 	streq	r0, [r0, #-4]
    9f58:	002c0259 	eoreq	r0, ip, r9, asr r2
    9f5c:	18000000 	stmdane	r0, {}	; <UNPREDICTABLE>
    9f60:	0000044d 	andeq	r0, r0, sp, asr #8
    9f64:	0c025a05 			; <UNDEFINED> instruction: 0x0c025a05
    9f68:	04000001 	streq	r0, [r0], #-1
    9f6c:	00024a18 	andeq	r4, r2, r8, lsl sl
    9f70:	025b0500 	subseq	r0, fp, #0, 10
    9f74:	00000787 	andeq	r0, r0, r7, lsl #15
    9f78:	04fb1808 	ldrbteq	r1, [fp], #2056	; 0x808
    9f7c:	5c050000 	stcpl	0, cr0, [r5], {-0}
    9f80:	00019202 	andeq	r9, r1, r2, lsl #4
    9f84:	b8182400 	ldmdalt	r8, {sl, sp}
    9f88:	05000001 	streq	r0, [r0, #-1]
    9f8c:	0025025d 	eoreq	r0, r5, sp, asr r2
    9f90:	18480000 	stmdane	r8, {}^	; <UNPREDICTABLE>
    9f94:	000003bf 			; <UNDEFINED> instruction: 0x000003bf
    9f98:	69025e05 	stmdbvs	r2, {r0, r2, r9, sl, fp, ip, lr}
    9f9c:	50000000 	andpl	r0, r0, r0
    9fa0:	00051118 	andeq	r1, r5, r8, lsl r1
    9fa4:	025f0500 	subseq	r0, pc, #0, 10
    9fa8:	00000641 	andeq	r0, r0, r1, asr #12
    9fac:	03ca1858 	biceq	r1, sl, #88, 16	; 0x580000
    9fb0:	60050000 	andvs	r0, r5, r0
    9fb4:	0000f402 	andeq	pc, r0, r2, lsl #8
    9fb8:	16186800 	ldrne	r6, [r8], -r0, lsl #16
    9fbc:	05000005 	streq	r0, [r0, #-5]
    9fc0:	00f40261 	rscseq	r0, r4, r1, ror #4
    9fc4:	18700000 	ldmdane	r0!, {}^	; <UNPREDICTABLE>
    9fc8:	000002ce 	andeq	r0, r0, lr, asr #5
    9fcc:	f4026205 	vst1.8	{d6-d9}, [r2], r5
    9fd0:	78000000 	stmdavc	r0, {}	; <UNPREDICTABLE>
    9fd4:	0004c618 	andeq	ip, r4, r8, lsl r6
    9fd8:	02630500 	rsbeq	r0, r3, #0, 10
    9fdc:	00000797 	muleq	r0, r7, r7
    9fe0:	023e1880 	eorseq	r1, lr, #128, 16	; 0x800000
    9fe4:	64050000 	strvs	r0, [r5], #-0
    9fe8:	0007a702 	andeq	sl, r7, r2, lsl #14
    9fec:	70188800 	andsvc	r8, r8, r0, lsl #16
    9ff0:	05000004 	streq	r0, [r0, #-4]
    9ff4:	00250265 	eoreq	r0, r5, r5, ror #4
    9ff8:	18a00000 	stmiane	r0!, {}	; <UNPREDICTABLE>
    9ffc:	0000017e 	andeq	r0, r0, lr, ror r1
    a000:	f4026605 	vst1.8	{d6-d8}, [r2], r5
    a004:	a4000000 	strge	r0, [r0], #-0
    a008:	00008f18 	andeq	r8, r0, r8, lsl pc
    a00c:	02670500 	rsbeq	r0, r7, #0, 10
    a010:	000000f4 	strdeq	r0, [r0], -r4
    a014:	016d18ac 	cmneq	sp, ip, lsr #17
    a018:	68050000 	stmdavs	r5, {}	; <UNPREDICTABLE>
    a01c:	0000f402 	andeq	pc, r0, r2, lsl #8
    a020:	3c18b400 	cfldrscc	mvf11, [r8], {-0}
    a024:	05000000 	streq	r0, [r0, #-0]
    a028:	00f40269 	rscseq	r0, r4, r9, ror #4
    a02c:	18bc0000 	ldmne	ip!, {}	; <UNPREDICTABLE>
    a030:	0000004b 	andeq	r0, r0, fp, asr #32
    a034:	f4026a05 	vst1.8	{d6-d7}, [r2], r5
    a038:	c4000000 	strgt	r0, [r0], #-0
    a03c:	00036e18 	andeq	r6, r3, r8, lsl lr
    a040:	026b0500 	rsbeq	r0, fp, #0, 10
    a044:	00000025 	andeq	r0, r0, r5, lsr #32
    a048:	120900cc 	andne	r0, r9, #204	; 0xcc
    a04c:	97000001 	strls	r0, [r0, -r1]
    a050:	0a000007 	beq	a074 <__bss_end__+0x14>
    a054:	000000cc 	andeq	r0, r0, ip, asr #1
    a058:	12090019 	andne	r0, r9, #25
    a05c:	a7000001 	strge	r0, [r0, -r1]
    a060:	0a000007 	beq	a084 <__bss_end__+0x24>
    a064:	000000cc 	andeq	r0, r0, ip, asr #1
    a068:	12090007 	andne	r0, r9, #7
    a06c:	b7000001 	strlt	r0, [r0, -r1]
    a070:	0a000007 	beq	a094 <__bss_end__+0x34>
    a074:	000000cc 	andeq	r0, r0, ip, asr #1
    a078:	f01b0017 			; <UNDEFINED> instruction: 0xf01b0017
    a07c:	db027005 	blle	a6098 <__bss_end__+0x9c038>
    a080:	18000007 	stmdane	r0, {r0, r1, r2}
    a084:	0000029a 	muleq	r0, sl, r2
    a088:	db027305 	blle	a6ca4 <__bss_end__+0x9cc44>
    a08c:	00000007 	andeq	r0, r0, r7
    a090:	0004bd18 	andeq	fp, r4, r8, lsl sp
    a094:	02740500 	rsbseq	r0, r4, #0, 10
    a098:	000007eb 	andeq	r0, r0, fp, ror #15
    a09c:	db090078 	blle	24a284 <__bss_end__+0x240224>
    a0a0:	eb000002 	bl	a0b0 <__bss_end__+0x50>
    a0a4:	0a000007 	beq	a0c8 <__bss_end__+0x68>
    a0a8:	000000cc 	andeq	r0, r0, ip, asr #1
    a0ac:	2c09001d 	stccs	0, cr0, [r9], {29}
    a0b0:	fb000000 	blx	a0ba <__bss_end__+0x5a>
    a0b4:	0a000007 	beq	a0d8 <__bss_end__+0x78>
    a0b8:	000000cc 	andeq	r0, r0, ip, asr #1
    a0bc:	f01c001d 			; <UNDEFINED> instruction: 0xf01c001d
    a0c0:	1d025505 	cfstr32ne	mvfx5, [r2, #-20]	; 0xffffffec
    a0c4:	1d000008 	stcne	0, cr0, [r0, #-32]	; 0xffffffe0
    a0c8:	0000040c 	andeq	r0, r0, ip, lsl #8
    a0cc:	86026c05 	strhi	r6, [r2], -r5, lsl #24
    a0d0:	1d000006 	stcne	0, cr0, [r0, #-24]	; 0xffffffe8
    a0d4:	000004e8 	andeq	r0, r0, r8, ror #9
    a0d8:	b7027505 	strlt	r7, [r2, -r5, lsl #10]
    a0dc:	00000007 	andeq	r0, r0, r7
    a0e0:	00011209 	andeq	r1, r1, r9, lsl #4
    a0e4:	00082d00 	andeq	r2, r8, r0, lsl #26
    a0e8:	00cc0a00 	sbceq	r0, ip, r0, lsl #20
    a0ec:	00180000 	andseq	r0, r8, r0
    a0f0:	0008381e 	andeq	r3, r8, lr, lsl r8
    a0f4:	04291600 	strteq	r1, [r9], #-1536	; 0xfffffa00
    a0f8:	0e000000 	cdpeq	0, 0, cr0, cr0, cr0, {0}
    a0fc:	00082d04 	andeq	r2, r8, r4, lsl #26
    a100:	7c040e00 	stcvc	14, cr0, [r4], {-0}
    a104:	1e000001 	cdpne	0, 0, cr0, cr0, cr1, {0}
    a108:	0000084f 	andeq	r0, r0, pc, asr #16
    a10c:	00002516 	andeq	r2, r0, r6, lsl r5
    a110:	040e0000 	streq	r0, [lr], #-0
    a114:	00000855 	andeq	r0, r0, r5, asr r8
    a118:	0844040e 	stmdaeq	r4, {r1, r2, r3, sl}^
    a11c:	f4090000 	vst4.8	{d0-d3}, [r9], r0
    a120:	6b000005 	blvs	a13c <__bss_end__+0xdc>
    a124:	0a000008 	beq	a14c <__bss_end__+0xec>
    a128:	000000cc 	andeq	r0, r0, ip, asr #1
    a12c:	841f0002 	ldrhi	r0, [pc], #-2	; a134 <__bss_end__+0xd4>
    a130:	05000004 	streq	r0, [r0, #-4]
    a134:	042902fd 	strteq	r0, [r9], #-765	; 0xfffffd03
    a138:	7d1f0000 	ldcvc	0, cr0, [pc, #-0]	; a140 <__bss_end__+0xe0>
    a13c:	05000004 	streq	r0, [r0, #-4]
    a140:	042f02fe 	strteq	r0, [pc], #-766	; a148 <__bss_end__+0xe8>
    a144:	25150000 	ldrcs	r0, [r5, #-0]
    a148:	92000000 	andls	r0, r0, #0
    a14c:	16000008 	strne	r0, [r0], -r8
    a150:	00000025 	andeq	r0, r0, r5, lsr #32
    a154:	01d12000 	bicseq	r2, r1, r0
    a158:	1d060000 	stcne	0, cr0, [r6, #-0]
    a15c:	0000089d 	muleq	r0, sp, r8
    a160:	0883040e 	stmeq	r3, {r1, r2, r3, sl}
    a164:	25150000 	ldrcs	r0, [r5, #-0]
    a168:	b2000000 	andlt	r0, r0, #0
    a16c:	16000008 	strne	r0, [r0], -r8
    a170:	0000058a 	andeq	r0, r0, sl, lsl #11
    a174:	07732000 	ldrbeq	r2, [r3, -r0]!
    a178:	22060000 	andcs	r0, r6, #0
    a17c:	000008bd 			; <UNDEFINED> instruction: 0x000008bd
    a180:	08a3040e 	stmiaeq	r3!, {r1, r2, r3, sl}
    a184:	01210000 			; <UNDEFINED> instruction: 0x01210000
    a188:	00000054 	andeq	r0, r0, r4, asr r0
    a18c:	09000c08 	stmdbeq	r0, {r3, sl, fp}
    a190:	4c220000 	stcmi	0, cr0, [r2], #-0
    a194:	00000009 	andeq	r0, r0, r9
    a198:	000ac522 	andeq	ip, sl, r2, lsr #10
    a19c:	00220100 	eoreq	r0, r2, r0, lsl #2
    a1a0:	0400000b 	streq	r0, [r0], #-11
    a1a4:	00096122 	andeq	r6, r9, r2, lsr #2
    a1a8:	ed220500 	cfstr32	mvfx0, [r2, #-0]
    a1ac:	06000009 	streq	r0, [r0], -r9
    a1b0:	000b0f22 	andeq	r0, fp, r2, lsr #30
    a1b4:	1e220700 	cdpne	7, 2, cr0, cr2, cr0, {0}
    a1b8:	0300000b 	movweq	r0, #11
    a1bc:	000b2d22 	andeq	r2, fp, r2, lsr #26
    a1c0:	10000200 	andne	r0, r0, r0, lsl #4
    a1c4:	0000097c 	andeq	r0, r0, ip, ror r9
    a1c8:	9006072c 	andls	r0, r6, ip, lsr #14
    a1cc:	11000009 	tstne	r0, r9
    a1d0:	07006f69 	streq	r6, [r0, -r9, ror #30]
    a1d4:	00003309 	andeq	r3, r0, r9, lsl #6
    a1d8:	69110000 	ldmdbvs	r1, {}	; <UNPREDICTABLE>
    a1dc:	07007265 	streq	r7, [r0, -r5, ror #4]
    a1e0:	0000330a 	andeq	r3, r0, sl, lsl #6
    a1e4:	69110400 	ldmdbvs	r1, {sl}
    a1e8:	07007269 	streq	r7, [r0, -r9, ror #4]
    a1ec:	00003311 	andeq	r3, r0, r1, lsl r3
    a1f0:	6c110800 	ldcvs	8, cr0, [r1], {-0}
    a1f4:	07007263 	streq	r7, [r0, -r3, ror #4]
    a1f8:	00003313 	andeq	r3, r0, r3, lsl r3
    a1fc:	6d110c00 	ldcvs	12, cr0, [r1, #-0]
    a200:	07007263 	streq	r7, [r0, -r3, ror #4]
    a204:	00003314 	andeq	r3, r0, r4, lsl r3
    a208:	6c111000 	ldcvs	0, cr1, [r1], {-0}
    a20c:	07007273 	smlsdxeq	r0, r3, r2, r7
    a210:	00003315 	andeq	r3, r0, r5, lsl r3
    a214:	6d111400 	cfldrsvs	mvf1, [r1, #-0]
    a218:	07007273 	smlsdxeq	r0, r3, r2, r7
    a21c:	00003316 	andeq	r3, r0, r6, lsl r3
    a220:	430c1800 	movwmi	r1, #51200	; 0xc800
    a224:	0700000a 	streq	r0, [r0, -sl]
    a228:	00003317 	andeq	r3, r0, r7, lsl r3
    a22c:	700c1c00 	andvc	r1, ip, r0, lsl #24
    a230:	07000009 	streq	r0, [r0, -r9]
    a234:	0000331b 	andeq	r3, r0, fp, lsl r3
    a238:	5c0c2000 	stcpl	0, cr2, [ip], {-0}
    a23c:	07000009 	streq	r0, [r0, -r9]
    a240:	0000331d 	andeq	r3, r0, sp, lsl r3
    a244:	3e0c2400 	cfcpyscc	mvf2, mvf12
    a248:	0700000a 	streq	r0, [r0, -sl]
    a24c:	0000331e 	andeq	r3, r0, lr, lsl r3
    a250:	23002800 	movwcs	r2, #2048	; 0x800
    a254:	000009bd 			; <UNDEFINED> instruction: 0x000009bd
    a258:	09a50701 	stmibeq	r5!, {r0, r8, r9, sl}
    a25c:	50040000 	andpl	r0, r4, r0
    a260:	040e2021 	streq	r2, [lr], #-33	; 0xffffffdf
    a264:	00000033 	andeq	r0, r0, r3, lsr r0
    a268:	00099f0f 	andeq	r9, r9, pc, lsl #30
    a26c:	0a172300 	beq	5d2e74 <__bss_end__+0x5c8e14>
    a270:	28010000 	stmdacs	r1, {}	; <UNPREDICTABLE>
    a274:	000009bf 			; <UNDEFINED> instruction: 0x000009bf
    a278:	20215040 	eorcs	r5, r1, r0, asr #32
    a27c:	0900040e 	stmdbeq	r0, {r1, r2, r3, sl}
    a280:	b90f0000 	stmdblt	pc, {}	; <UNPREDICTABLE>
    a284:	24000009 	strcs	r0, [r0], #-9
    a288:	00000af2 	strdeq	r0, [r0], -r2
    a28c:	0025a701 	eoreq	sl, r5, r1, lsl #14
    a290:	93b40000 			; <UNDEFINED> instruction: 0x93b40000
    a294:	00100000 	andseq	r0, r0, r0
    a298:	9c010000 	stcls	0, cr0, [r1], {-0}
    a29c:	000009f0 	strdeq	r0, [r0], -r0	; <UNPREDICTABLE>
    a2a0:	0093bc25 	addseq	fp, r3, r5, lsr #24
    a2a4:	000c9c00 	andeq	r9, ip, r0, lsl #24
    a2a8:	93c02500 	bicls	r2, r0, #0, 10
    a2ac:	0ad20000 	beq	ff48a2b4 <__bss_end__+0xff480254>
    a2b0:	26000000 	strcs	r0, [r0], -r0
    a2b4:	00000740 	andeq	r0, r0, r0, asr #14
    a2b8:	93849f01 	orrls	r9, r4, #1, 30
    a2bc:	00300000 	eorseq	r0, r0, r0
    a2c0:	9c010000 	stcls	0, cr0, [r1], {-0}
    a2c4:	00000a4e 	andeq	r0, r0, lr, asr #20
    a2c8:	01006327 	tsteq	r0, r7, lsr #6
    a2cc:	00002c9f 	muleq	r0, pc, ip	; <UNPREDICTABLE>
    a2d0:	00135900 	andseq	r5, r3, r0, lsl #18
    a2d4:	93902500 	orrsls	r2, r0, #0, 10
    a2d8:	0c9c0000 	ldceq	0, cr0, [ip], {0}
    a2dc:	94250000 	strtls	r0, [r5], #-0
    a2e0:	a5000093 	strge	r0, [r0, #-147]	; 0xffffff6d
    a2e4:	2800000a 	stmdacs	r0, {r1, r3}
    a2e8:	000093a8 	andeq	r9, r0, r8, lsr #7
    a2ec:	00000ca7 	andeq	r0, r0, r7, lsr #25
    a2f0:	00000a44 	andeq	r0, r0, r4, asr #20
    a2f4:	05500129 	ldrbeq	r0, [r0, #-297]	; 0xfffffed7
    a2f8:	2150400c 	cmpcs	r0, ip
    a2fc:	51012920 	tstpl	r1, r0, lsr #18
    a300:	08007405 	stmdaeq	r0, {r0, r2, sl, ip, sp, lr}
    a304:	25001aff 	strcs	r1, [r0, #-2815]	; 0xfffff501
    a308:	000093ac 	andeq	r9, r0, ip, lsr #7
    a30c:	00000c9c 	muleq	r0, ip, ip
    a310:	09d72400 	ldmibeq	r7, {sl, sp}^
    a314:	97010000 	strls	r0, [r1, -r0]
    a318:	00000025 	andeq	r0, r0, r5, lsr #32
    a31c:	00009354 	andeq	r9, r0, r4, asr r3
    a320:	00000030 	andeq	r0, r0, r0, lsr r0
    a324:	0aa59c01 	beq	fe971330 <__bss_end__+0xfe9672d0>
    a328:	632a0000 			; <UNDEFINED> instruction: 0x632a0000
    a32c:	259b0100 	ldrcs	r0, [fp, #256]	; 0x100
    a330:	01000000 	mrseq	r0, (UNDEF: 0)
    a334:	935c2554 	cmpls	ip, #84, 10	; 0x15000000
    a338:	0c9c0000 	ldceq	0, cr0, [ip], {0}
    a33c:	60250000 	eorvs	r0, r5, r0
    a340:	d2000093 	andle	r0, r0, #147	; 0x93
    a344:	2800000a 	stmdacs	r0, {r1, r3}
    a348:	00009370 	andeq	r9, r0, r0, ror r3
    a34c:	00000cb2 			; <UNDEFINED> instruction: 0x00000cb2
    a350:	00000a9b 	muleq	r0, fp, sl
    a354:	05500129 	ldrbeq	r0, [r0, #-297]	; 0xfffffed7
    a358:	2150400c 	cmpcs	r0, ip
    a35c:	78250020 	stmdavc	r5!, {r5}
    a360:	9c000093 	stcls	0, cr0, [r0], {147}	; 0x93
    a364:	0000000c 	andeq	r0, r0, ip
    a368:	0009c924 	andeq	ip, r9, r4, lsr #18
    a36c:	25880100 	strcs	r0, [r8, #256]	; 0x100
    a370:	34000000 	strcc	r0, [r0], #-0
    a374:	20000093 	mulcs	r0, r3, r0
    a378:	01000000 	mrseq	r0, (UNDEF: 0)
    a37c:	000ad29c 	muleq	sl, ip, r2
    a380:	93402b00 	movtls	r2, #2816	; 0xb00
    a384:	0cb20000 	ldceq	0, cr0, [r2]
    a388:	01290000 			; <UNDEFINED> instruction: 0x01290000
    a38c:	640c0550 	strvs	r0, [ip], #-1360	; 0xfffffab0
    a390:	00202150 	eoreq	r2, r0, r0, asr r1
    a394:	0adc2400 	beq	ff71339c <__bss_end__+0xff70933c>
    a398:	7f010000 	svcvc	0x00010000
    a39c:	00000025 	andeq	r0, r0, r5, lsr #32
    a3a0:	0000931c 	andeq	r9, r0, ip, lsl r3
    a3a4:	00000018 	andeq	r0, r0, r8, lsl r0
    a3a8:	0aff9c01 	beq	ffff13b4 <__bss_end__+0xfffe7354>
    a3ac:	282b0000 	stmdacs	fp!, {}	; <UNPREDICTABLE>
    a3b0:	b2000093 	andlt	r0, r0, #147	; 0x93
    a3b4:	2900000c 	stmdbcs	r0, {r2, r3}
    a3b8:	0c055001 	stceq	0, cr5, [r5], {1}
    a3bc:	20215064 	eorcs	r5, r1, r4, rrx
    a3c0:	42260000 	eormi	r0, r6, #0
    a3c4:	01000009 	tsteq	r0, r9
    a3c8:	00926c3a 	addseq	r6, r2, sl, lsr ip
    a3cc:	0000b000 	andeq	fp, r0, r0
    a3d0:	3d9c0100 	ldfccs	f0, [ip]
    a3d4:	2800000c 	stmdacs	r0, {r2, r3}
    a3d8:	0000927c 	andeq	r9, r0, ip, ror r2
    a3dc:	00000cbd 			; <UNDEFINED> instruction: 0x00000cbd
    a3e0:	00000b2c 	andeq	r0, r0, ip, lsr #22
    a3e4:	01500129 	cmpeq	r0, r9, lsr #2
    a3e8:	5101293e 	tstpl	r1, lr, lsr r9
    a3ec:	28003201 	stmdacs	r0, {r0, r9, ip, sp}
    a3f0:	00009288 	andeq	r9, r0, r8, lsl #5
    a3f4:	00000cbd 			; <UNDEFINED> instruction: 0x00000cbd
    a3f8:	00000b44 	andeq	r0, r0, r4, asr #22
    a3fc:	01500129 	cmpeq	r0, r9, lsr #2
    a400:	5101293f 	tstpl	r1, pc, lsr r9
    a404:	25003201 	strcs	r3, [r0, #-513]	; 0xfffffdff
    a408:	0000928c 	andeq	r9, r0, ip, lsl #5
    a40c:	00000c9c 	muleq	r0, ip, ip
    a410:	00929828 	addseq	r9, r2, r8, lsr #16
    a414:	000c3d00 	andeq	r3, ip, r0, lsl #26
    a418:	000b6900 	andeq	r6, fp, r0, lsl #18
    a41c:	50012900 	andpl	r2, r1, r0, lsl #18
    a420:	50040c05 	andpl	r0, r4, r5, lsl #24
    a424:	01292021 			; <UNDEFINED> instruction: 0x01292021
    a428:	00310151 	eorseq	r0, r1, r1, asr r1
    a42c:	00929c25 	addseq	r9, r2, r5, lsr #24
    a430:	000c9c00 	andeq	r9, ip, r0, lsl #24
    a434:	92ac2800 	adcls	r2, ip, #0, 16
    a438:	0ca70000 	stceq	0, cr0, [r7]
    a43c:	0b8b0000 	bleq	fe2ca444 <__bss_end__+0xfe2c03e4>
    a440:	01290000 			; <UNDEFINED> instruction: 0x01290000
    a444:	00740250 	rsbseq	r0, r4, r0, asr r2
    a448:	01510129 	cmpeq	r1, r9, lsr #2
    a44c:	b8280030 	stmdalt	r8!, {r4, r5}
    a450:	a7000092 			; <UNDEFINED> instruction: 0xa7000092
    a454:	a700000c 	strge	r0, [r0, -ip]
    a458:	2900000b 	stmdbcs	r0, {r0, r1, r3}
    a45c:	0c055001 	stceq	0, cr5, [r5], {1}
    a460:	20215044 	eorcs	r5, r1, r4, asr #32
    a464:	01510129 	cmpeq	r1, r9, lsr #2
    a468:	c4280030 	strtgt	r0, [r8], #-48	; 0xffffffd0
    a46c:	a7000092 			; <UNDEFINED> instruction: 0xa7000092
    a470:	c300000c 	movwgt	r0, #12
    a474:	2900000b 	stmdbcs	r0, {r0, r1, r3}
    a478:	0c055001 	stceq	0, cr5, [r5], {1}
    a47c:	2021504c 	eorcs	r5, r1, ip, asr #32
    a480:	01510129 	cmpeq	r1, r9, lsr #2
    a484:	d0280033 	eorle	r0, r8, r3, lsr r0
    a488:	a7000092 			; <UNDEFINED> instruction: 0xa7000092
    a48c:	df00000c 	svcle	0x0000000c
    a490:	2900000b 	stmdbcs	r0, {r0, r1, r3}
    a494:	0c055001 	stceq	0, cr5, [r5], {1}
    a498:	20215050 	eorcs	r5, r1, r0, asr r0
    a49c:	01510129 	cmpeq	r1, r9, lsr #2
    a4a0:	dc280030 	stcle	0, cr0, [r8], #-192	; 0xffffff40
    a4a4:	a7000092 			; <UNDEFINED> instruction: 0xa7000092
    a4a8:	fc00000c 	stc2	0, cr0, [r0], {12}
    a4ac:	2900000b 	stmdbcs	r0, {r0, r1, r3}
    a4b0:	0c055001 	stceq	0, cr5, [r5], {1}
    a4b4:	20215048 	eorcs	r5, r1, r8, asr #32
    a4b8:	02510129 	subseq	r0, r1, #1073741834	; 0x4000000a
    a4bc:	2800c708 	stmdacs	r0, {r3, r8, r9, sl, lr, pc}
    a4c0:	000092e8 	andeq	r9, r0, r8, ror #5
    a4c4:	00000ca7 	andeq	r0, r0, r7, lsr #25
    a4c8:	00000c1a 	andeq	r0, r0, sl, lsl ip
    a4cc:	05500129 	ldrbeq	r0, [r0, #-297]	; 0xfffffed7
    a4d0:	2150680c 	cmpcs	r0, ip, lsl #16
    a4d4:	51012920 	tstpl	r1, r0, lsr #18
    a4d8:	010e0a03 	tsteq	lr, r3, lsl #20
    a4dc:	92f42800 	rscsls	r2, r4, #0, 16
    a4e0:	0ca70000 	stceq	0, cr0, [r7]
    a4e4:	0c330000 	ldceq	0, cr0, [r3], #-0
    a4e8:	01290000 			; <UNDEFINED> instruction: 0x01290000
    a4ec:	00740250 	rsbseq	r0, r4, r0, asr r2
    a4f0:	01510129 	cmpeq	r1, r9, lsr #2
    a4f4:	f8250033 			; <UNDEFINED> instruction: 0xf8250033
    a4f8:	9c000092 	stcls	0, cr0, [r0], {146}	; 0x92
    a4fc:	0000000c 	andeq	r0, r0, ip
    a500:	000aea2c 	andeq	lr, sl, ip, lsr #20
    a504:	4c2d0100 	stfmis	f0, [sp], #-0
    a508:	20000092 	mulcs	r0, r2, r0
    a50c:	01000000 	mrseq	r0, (UNDEF: 0)
    a510:	000c959c 	muleq	ip, ip, r5
    a514:	0c412d00 	mcrreq	13, 0, r2, r1, cr0
    a518:	2d010000 	stccs	0, cr0, [r1, #-0]
    a51c:	00000c95 	muleq	r0, r5, ip
    a520:	00001377 	andeq	r1, r0, r7, ror r3
    a524:	6c617627 	stclvs	6, cr7, [r1], #-156	; 0xffffff64
    a528:	2c2d0100 	stfcss	f0, [sp], #-0
    a52c:	95000000 	strls	r0, [r0, #-0]
    a530:	28000013 	stmdacs	r0, {r0, r1, r4}
    a534:	0000925c 	andeq	r9, r0, ip, asr r2
    a538:	00000cb2 			; <UNDEFINED> instruction: 0x00000cb2
    a53c:	00000c84 	andeq	r0, r0, r4, lsl #25
    a540:	02500129 	subseq	r0, r0, #1073741834	; 0x4000000a
    a544:	2b000074 	blcs	a71c <__bss_end__+0x6bc>
    a548:	00009268 	andeq	r9, r0, r8, ror #4
    a54c:	00000ca7 	andeq	r0, r0, r7, lsr #25
    a550:	02500129 	subseq	r0, r0, #1073741834	; 0x4000000a
    a554:	00000074 	andeq	r0, r0, r4, ror r0
    a558:	0c9b040e 	cfldrseq	mvf0, [fp], {14}
    a55c:	2f2e0000 	svccs	0x002e0000
    a560:	000009e1 	andeq	r0, r0, r1, ror #19
    a564:	000009e1 	andeq	r0, r0, r1, ror #19
    a568:	4b2f8906 	blmi	bec988 <__bss_end__+0xbe2928>
    a56c:	4b00000a 	blmi	a59c <__bss_end__+0x53c>
    a570:	0600000a 	streq	r0, [r0], -sl
    a574:	0ad62f9c 	beq	ff5963ec <__bss_end__+0xff58c38c>
    a578:	0ad60000 	beq	ff58a580 <__bss_end__+0xff580520>
    a57c:	a8060000 	stmdage	r6, {}	; <UNPREDICTABLE>
    a580:	000a052f 	andeq	r0, sl, pc, lsr #10
    a584:	000a0500 	andeq	r0, sl, r0, lsl #10
    a588:	00190800 	andseq	r0, r9, r0, lsl #16
    a58c:	00000b70 	andeq	r0, r0, r0, ror fp
    a590:	21710004 	cmncs	r1, r4
    a594:	01040000 	mrseq	r0, (UNDEF: 4)
    a598:	00000a51 	andeq	r0, r0, r1, asr sl
    a59c:	000b4e0c 	andeq	r4, fp, ip, lsl #28
    a5a0:	00098800 	andeq	r8, r9, r0, lsl #16
    a5a4:	0093c400 	addseq	ip, r3, r0, lsl #8
    a5a8:	00012000 	andeq	r2, r1, r0
    a5ac:	001ae500 	andseq	lr, sl, r0, lsl #10
    a5b0:	05040200 	streq	r0, [r4, #-512]	; 0xfffffe00
    a5b4:	00746e69 	rsbseq	r6, r4, r9, ror #28
    a5b8:	66070403 	strvs	r0, [r7], -r3, lsl #8
    a5bc:	04000000 	streq	r0, [r0], #-0
    a5c0:	0000002c 	andeq	r0, r0, ip, lsr #32
    a5c4:	de060103 	adfles	f0, f6, f3
    a5c8:	03000002 	movweq	r0, #2
    a5cc:	03770502 	cmneq	r7, #8388608	; 0x800000
    a5d0:	04030000 	streq	r0, [r3], #-0
    a5d4:	0000ac05 	andeq	sl, r0, r5, lsl #24
    a5d8:	05080300 	streq	r0, [r8, #-768]	; 0xfffffd00
    a5dc:	000000a7 	andeq	r0, r0, r7, lsr #1
    a5e0:	dc080103 	stfles	f0, [r8], {3}
    a5e4:	03000002 	movweq	r0, #2
    a5e8:	02220702 	eoreq	r0, r2, #524288	; 0x80000
    a5ec:	04030000 	streq	r0, [r3], #-0
    a5f0:	00006107 	andeq	r6, r0, r7, lsl #2
    a5f4:	07080300 	streq	r0, [r8, -r0, lsl #6]
    a5f8:	0000005c 	andeq	r0, r0, ip, asr r0
    a5fc:	000a1c05 	andeq	r1, sl, r5, lsl #24
    a600:	25070200 	strcs	r0, [r7, #-512]	; 0xfffffe00
    a604:	05000000 	streq	r0, [r0, #-0]
    a608:	000002bd 			; <UNDEFINED> instruction: 0x000002bd
    a60c:	00462c03 	subeq	r2, r6, r3, lsl #24
    a610:	36050000 	strcc	r0, [r5], -r0
    a614:	03000004 	movweq	r0, #4
    a618:	00004672 	andeq	r4, r0, r2, ror r6
    a61c:	026d0600 	rsbeq	r0, sp, #0, 12
    a620:	65040000 	strvs	r0, [r4, #-0]
    a624:	00002c01 	andeq	r2, r0, r1, lsl #24
    a628:	03040700 	movweq	r0, #18176	; 0x4700
    a62c:	0000bca6 	andeq	fp, r0, r6, lsr #25
    a630:	025f0800 	subseq	r0, pc, #0, 16
    a634:	a8030000 	stmdage	r3, {}	; <UNPREDICTABLE>
    a638:	00000091 	muleq	r0, r1, r0
    a63c:	0001e208 	andeq	lr, r1, r8, lsl #4
    a640:	bca90300 	stclt	3, cr0, [r9]
    a644:	00000000 	andeq	r0, r0, r0
    a648:	00005409 	andeq	r5, r0, r9, lsl #8
    a64c:	0000cc00 	andeq	ip, r0, r0, lsl #24
    a650:	00cc0a00 	sbceq	r0, ip, r0, lsl #20
    a654:	00030000 	andeq	r0, r3, r0
    a658:	fc070403 	stc2	4, cr0, [r7], {3}
    a65c:	0b000009 	bleq	a688 <__bss_end__+0x628>
    a660:	f4a30308 	vld4.8	{d0[0],d1[0],d2[0],d3[0]}, [r3], r8
    a664:	0c000000 	stceq	0, cr0, [r0], {-0}
    a668:	00000419 	andeq	r0, r0, r9, lsl r4
    a66c:	0025a503 	eoreq	sl, r5, r3, lsl #10
    a670:	0c000000 	stceq	0, cr0, [r0], {-0}
    a674:	00000428 	andeq	r0, r0, r8, lsr #8
    a678:	009daa03 	addseq	sl, sp, r3, lsl #20
    a67c:	00040000 	andeq	r0, r4, r0
    a680:	0003a305 	andeq	sl, r3, r5, lsl #6
    a684:	d3ab0300 			; <UNDEFINED> instruction: 0xd3ab0300
    a688:	05000000 	streq	r0, [r0, #-0]
    a68c:	0000019f 	muleq	r0, pc, r1	; <UNPREDICTABLE>
    a690:	0070af03 	rsbseq	sl, r0, r3, lsl #30
    a694:	040d0000 	streq	r0, [sp], #-0
    a698:	0112040e 	tsteq	r2, lr, lsl #8
    a69c:	01030000 	mrseq	r0, (UNDEF: 3)
    a6a0:	0002e508 	andeq	lr, r2, r8, lsl #10
    a6a4:	01120400 	tsteq	r2, r0, lsl #8
    a6a8:	68050000 	stmdavs	r5, {}	; <UNPREDICTABLE>
    a6ac:	05000004 	streq	r0, [r0, #-4]
    a6b0:	00006216 	andeq	r6, r0, r6, lsl r2
    a6b4:	01b00f00 	lslseq	r0, r0, #30
    a6b8:	05180000 	ldreq	r0, [r8, #-0]
    a6bc:	00017c2d 	andeq	r7, r1, sp, lsr #24
    a6c0:	03c40c00 	biceq	r0, r4, #0, 24
    a6c4:	2f050000 	svccs	0x00050000
    a6c8:	0000017c 	andeq	r0, r0, ip, ror r1
    a6cc:	6b5f1000 	blvs	17ce6d4 <__bss_end__+0x17c4674>
    a6d0:	25300500 	ldrcs	r0, [r0, #-1280]!	; 0xfffffb00
    a6d4:	04000000 	streq	r0, [r0], #-0
    a6d8:	0004040c 	andeq	r0, r4, ip, lsl #8
    a6dc:	25300500 	ldrcs	r0, [r0, #-1280]!	; 0xfffffb00
    a6e0:	08000000 	stmdaeq	r0, {}	; <UNPREDICTABLE>
    a6e4:	0001990c 	andeq	r9, r1, ip, lsl #18
    a6e8:	25300500 	ldrcs	r0, [r0, #-1280]!	; 0xfffffb00
    a6ec:	0c000000 	stceq	0, cr0, [r0], {-0}
    a6f0:	0004a80c 	andeq	sl, r4, ip, lsl #16
    a6f4:	25300500 	ldrcs	r0, [r0, #-1280]!	; 0xfffffb00
    a6f8:	10000000 	andne	r0, r0, r0
    a6fc:	00785f10 	rsbseq	r5, r8, r0, lsl pc
    a700:	01823105 	orreq	r3, r2, r5, lsl #2
    a704:	00140000 	andseq	r0, r4, r0
    a708:	0129040e 			; <UNDEFINED> instruction: 0x0129040e
    a70c:	1e090000 	cdpne	0, 0, cr0, cr9, cr0, {0}
    a710:	92000001 	andls	r0, r0, #1
    a714:	0a000001 	beq	a720 <__bss_end__+0x6c0>
    a718:	000000cc 	andeq	r0, r0, ip, asr #1
    a71c:	dd0f0000 	stcle	0, cr0, [pc, #-0]	; a724 <__bss_end__+0x6c4>
    a720:	24000001 	strcs	r0, [r0], #-1
    a724:	020b3505 	andeq	r3, fp, #20971520	; 0x1400000
    a728:	9e0c0000 	cdpls	0, 0, cr0, cr12, cr0, {0}
    a72c:	05000000 	streq	r0, [r0, #-0]
    a730:	00002537 	andeq	r2, r0, r7, lsr r5
    a734:	3e0c0000 	cdpcc	0, 0, cr0, cr12, cr0, {0}
    a738:	05000004 	streq	r0, [r0, #-4]
    a73c:	00002538 	andeq	r2, r0, r8, lsr r5
    a740:	c10c0400 	tstgt	ip, r0, lsl #8
    a744:	05000000 	streq	r0, [r0, #-0]
    a748:	00002539 	andeq	r2, r0, r9, lsr r5
    a74c:	330c0800 	movwcc	r0, #51200	; 0xc800
    a750:	05000005 	streq	r0, [r0, #-5]
    a754:	0000253a 	andeq	r2, r0, sl, lsr r5
    a758:	a10c0c00 	tstge	ip, r0, lsl #24
    a75c:	05000002 	streq	r0, [r0, #-2]
    a760:	0000253b 	andeq	r2, r0, fp, lsr r5
    a764:	830c1000 	movwhi	r1, #49152	; 0xc000
    a768:	05000002 	streq	r0, [r0, #-2]
    a76c:	0000253c 	andeq	r2, r0, ip, lsr r5
    a770:	ad0c1400 	cfstrsge	mvf1, [ip, #-0]
    a774:	05000004 	streq	r0, [r0, #-4]
    a778:	0000253d 	andeq	r2, r0, sp, lsr r5
    a77c:	290c1800 	stmdbcs	ip, {fp, ip}
    a780:	05000005 	streq	r0, [r0, #-5]
    a784:	0000253e 	andeq	r2, r0, lr, lsr r5
    a788:	f00c1c00 			; <UNDEFINED> instruction: 0xf00c1c00
    a78c:	05000004 	streq	r0, [r0, #-4]
    a790:	0000253f 	andeq	r2, r0, pc, lsr r5
    a794:	11002000 	mrsne	r2, (UNDEF: 0)
    a798:	00000101 	andeq	r0, r0, r1, lsl #2
    a79c:	48050108 	stmdami	r5, {r3, r8}
    a7a0:	0000024b 	andeq	r0, r0, fp, asr #4
    a7a4:	00018c0c 	andeq	r8, r1, ip, lsl #24
    a7a8:	4b490500 	blmi	124bbb0 <__bss_end__+0x1241b50>
    a7ac:	00000002 	andeq	r0, r0, r2
    a7b0:	0000000c 	andeq	r0, r0, ip
    a7b4:	4b4a0500 	blmi	128bbbc <__bss_end__+0x1281b5c>
    a7b8:	80000002 	andhi	r0, r0, r2
    a7bc:	00045a12 	andeq	r5, r4, r2, lsl sl
    a7c0:	1e4c0500 	cdpne	5, 4, cr0, cr12, cr0, {0}
    a7c4:	00000001 	andeq	r0, r0, r1
    a7c8:	01261201 			; <UNDEFINED> instruction: 0x01261201
    a7cc:	4f050000 	svcmi	0x00050000
    a7d0:	0000011e 	andeq	r0, r0, lr, lsl r1
    a7d4:	09000104 	stmdbeq	r0, {r2, r8}
    a7d8:	0000010a 	andeq	r0, r0, sl, lsl #2
    a7dc:	0000025b 	andeq	r0, r0, fp, asr r2
    a7e0:	0000cc0a 	andeq	ip, r0, sl, lsl #24
    a7e4:	11001f00 	tstne	r0, r0, lsl #30
    a7e8:	000002aa 	andeq	r0, r0, sl, lsr #5
    a7ec:	5b050190 	blpl	14ae34 <__bss_end__+0x140dd4>
    a7f0:	00000299 	muleq	r0, r9, r2
    a7f4:	0003c40c 	andeq	ip, r3, ip, lsl #8
    a7f8:	995c0500 	ldmdbls	ip, {r8, sl}^
    a7fc:	00000002 	andeq	r0, r0, r2
    a800:	0003dc0c 	andeq	sp, r3, ip, lsl #24
    a804:	255d0500 	ldrbcs	r0, [sp, #-1280]	; 0xfffffb00
    a808:	04000000 	streq	r0, [r0], #-0
    a80c:	0001940c 	andeq	r9, r1, ip, lsl #8
    a810:	9f5f0500 	svcls	0x005f0500
    a814:	08000002 	stmdaeq	r0, {r1}
    a818:	0001010c 	andeq	r0, r1, ip, lsl #2
    a81c:	0b600500 	bleq	180bc24 <__bss_end__+0x1801bc4>
    a820:	88000002 	stmdahi	r0, {r1}
    a824:	5b040e00 	blpl	10e02c <__bss_end__+0x103fcc>
    a828:	09000002 	stmdbeq	r0, {r1}
    a82c:	000002af 	andeq	r0, r0, pc, lsr #5
    a830:	000002af 	andeq	r0, r0, pc, lsr #5
    a834:	0000cc0a 	andeq	ip, r0, sl, lsl #24
    a838:	0e001f00 	cdpeq	15, 0, cr1, cr0, cr0, {0}
    a83c:	0002b504 	andeq	fp, r2, r4, lsl #10
    a840:	8f0f1300 	svchi	0x000f1300
    a844:	08000003 	stmdaeq	r0, {r0, r1}
    a848:	02db7305 	sbcseq	r7, fp, #335544320	; 0x14000000
    a84c:	bb0c0000 	bllt	30a854 <__bss_end__+0x3007f4>
    a850:	05000000 	streq	r0, [r0, #-0]
    a854:	0002db74 	andeq	sp, r2, r4, ror fp
    a858:	1b0c0000 	blne	30a860 <__bss_end__+0x300800>
    a85c:	05000000 	streq	r0, [r0, #-0]
    a860:	00002575 	andeq	r2, r0, r5, ror r5
    a864:	0e000400 	cfcpyseq	mvf0, mvf0
    a868:	00005404 	andeq	r5, r0, r4, lsl #8
    a86c:	03ae0f00 			; <UNDEFINED> instruction: 0x03ae0f00
    a870:	05680000 	strbeq	r0, [r8, #-0]!
    a874:	00040bb3 			; <UNDEFINED> instruction: 0x00040bb3
    a878:	705f1000 	subsvc	r1, pc, r0
    a87c:	dbb40500 	blle	fed0bc84 <__bss_end__+0xfed01c24>
    a880:	00000002 	andeq	r0, r0, r2
    a884:	00725f10 	rsbseq	r5, r2, r0, lsl pc
    a888:	0025b505 	eoreq	fp, r5, r5, lsl #10
    a88c:	10040000 	andne	r0, r4, r0
    a890:	0500775f 	streq	r7, [r0, #-1887]	; 0xfffff8a1
    a894:	000025b6 			; <UNDEFINED> instruction: 0x000025b6
    a898:	1f0c0800 	svcne	0x000c0800
    a89c:	05000001 	streq	r0, [r0, #-1]
    a8a0:	00003fb7 			; <UNDEFINED> instruction: 0x00003fb7
    a8a4:	080c0c00 	stmdaeq	ip, {sl, fp}
    a8a8:	05000002 	streq	r0, [r0, #-2]
    a8ac:	00003fb8 			; <UNDEFINED> instruction: 0x00003fb8
    a8b0:	5f100e00 	svcpl	0x00100e00
    a8b4:	05006662 	streq	r6, [r0, #-1634]	; 0xfffff99e
    a8b8:	0002b6b9 			; <UNDEFINED> instruction: 0x0002b6b9
    a8bc:	7b0c1000 	blvc	30e8c4 <__bss_end__+0x304864>
    a8c0:	05000000 	streq	r0, [r0, #-0]
    a8c4:	000025ba 			; <UNDEFINED> instruction: 0x000025ba
    a8c8:	0f0c1800 	svceq	0x000c1800
    a8cc:	05000001 	streq	r0, [r0, #-1]
    a8d0:	00010ac1 	andeq	r0, r1, r1, asr #21
    a8d4:	590c1c00 	stmdbpl	ip, {sl, fp, ip}
    a8d8:	0500000b 	streq	r0, [r0, #-11]
    a8dc:	000566c3 	andeq	r6, r5, r3, asr #13
    a8e0:	1d0c2000 	stcne	0, cr2, [ip, #-0]
    a8e4:	05000006 	streq	r0, [r0, #-6]
    a8e8:	000590c5 	andeq	r9, r5, r5, asr #1
    a8ec:	300c2400 	andcc	r2, ip, r0, lsl #8
    a8f0:	05000004 	streq	r0, [r0, #-4]
    a8f4:	0005b4c8 	andeq	fp, r5, r8, asr #9
    a8f8:	0a0c2800 	beq	314900 <__bss_end__+0x30a8a0>
    a8fc:	05000005 	streq	r0, [r0, #-5]
    a900:	0005cec9 	andeq	ip, r5, r9, asr #29
    a904:	5f102c00 	svcpl	0x00102c00
    a908:	05006275 	streq	r6, [r0, #-629]	; 0xfffffd8b
    a90c:	0002b6cc 	andeq	fp, r2, ip, asr #13
    a910:	5f103000 	svcpl	0x00103000
    a914:	05007075 	streq	r7, [r0, #-117]	; 0xffffff8b
    a918:	0002dbcd 	andeq	sp, r2, sp, asr #23
    a91c:	5f103800 	svcpl	0x00103800
    a920:	05007275 	streq	r7, [r0, #-629]	; 0xfffffd8b
    a924:	000025ce 	andeq	r2, r0, lr, asr #11
    a928:	b50c3c00 	strlt	r3, [ip, #-3072]	; 0xfffff400
    a92c:	05000000 	streq	r0, [r0, #-0]
    a930:	0005d4d1 	ldrdeq	sp, [r5], -r1
    a934:	e20c4000 	and	r4, ip, #0
    a938:	05000004 	streq	r0, [r0, #-4]
    a93c:	0005e4d2 	ldrdeq	lr, [r5], -r2
    a940:	5f104300 	svcpl	0x00104300
    a944:	0500626c 	streq	r6, [r0, #-620]	; 0xfffffd94
    a948:	0002b6d5 	ldrdeq	fp, [r2], -r5
    a94c:	3d0c4400 	cfstrscc	mvf4, [ip, #-0]
    a950:	05000001 	streq	r0, [r0, #-1]
    a954:	000025d8 	ldrdeq	r2, [r0], -r8
    a958:	4e0c4c00 	cdpmi	12, 0, cr4, cr12, cr0, {0}
    a95c:	05000001 	streq	r0, [r0, #-1]
    a960:	00007bd9 	ldrdeq	r7, [r0], -r9
    a964:	fa0c5000 	blx	31e96c <__bss_end__+0x31490c>
    a968:	0500000a 	streq	r0, [r0, #-10]
    a96c:	000429dc 	ldrdeq	r2, [r4], -ip
    a970:	220c5400 	andcs	r5, ip, #0, 8
    a974:	05000004 	streq	r0, [r0, #-4]
    a978:	0000ffe0 	andeq	pc, r0, r0, ror #31
    a97c:	b60c5800 	strlt	r5, [ip], -r0, lsl #16
    a980:	05000003 	streq	r0, [r0, #-3]
    a984:	0000f4e2 	andeq	pc, r0, r2, ror #9
    a988:	7b0c5c00 	blvc	321990 <__bss_end__+0x317930>
    a98c:	05000002 	streq	r0, [r0, #-2]
    a990:	000025e3 	andeq	r2, r0, r3, ror #11
    a994:	14006400 	strne	r6, [r0], #-1024	; 0xfffffc00
    a998:	00000025 	andeq	r0, r0, r5, lsr #32
    a99c:	00000429 	andeq	r0, r0, r9, lsr #8
    a9a0:	00042915 	andeq	r2, r4, r5, lsl r9
    a9a4:	010a1500 	tsteq	sl, r0, lsl #10
    a9a8:	0c150000 	ldceq	0, cr0, [r5], {-0}
    a9ac:	15000001 	strne	r0, [r0, #-1]
    a9b0:	00000025 	andeq	r0, r0, r5, lsr #32
    a9b4:	34040e00 	strcc	r0, [r4], #-3584	; 0xfffff200
    a9b8:	04000004 	streq	r0, [r0], #-4
    a9bc:	00000429 	andeq	r0, r0, r9, lsr #8
    a9c0:	00040c16 	andeq	r0, r4, r6, lsl ip
    a9c4:	05042800 	streq	r2, [r4, #-2048]	; 0xfffff800
    a9c8:	05660238 	strbeq	r0, [r6, #-568]!	; 0xfffffdc8
    a9cc:	70170000 	andsvc	r0, r7, r0
    a9d0:	05000003 	streq	r0, [r0, #-3]
    a9d4:	0025023a 	eoreq	r0, r5, sl, lsr r2
    a9d8:	17000000 	strne	r0, [r0, -r0]
    a9dc:	0000012e 	andeq	r0, r0, lr, lsr #2
    a9e0:	3b023f05 	blcc	9a5fc <__bss_end__+0x9059c>
    a9e4:	04000006 	streq	r0, [r0], #-6
    a9e8:	0001f817 	andeq	pc, r1, r7, lsl r8	; <UNPREDICTABLE>
    a9ec:	023f0500 	eorseq	r0, pc, #0, 10
    a9f0:	0000063b 	andeq	r0, r0, fp, lsr r6
    a9f4:	01a81708 			; <UNDEFINED> instruction: 0x01a81708
    a9f8:	3f050000 	svccc	0x00050000
    a9fc:	00063b02 	andeq	r3, r6, r2, lsl #22
    aa00:	d7170c00 	ldrle	r0, [r7, -r0, lsl #24]
    aa04:	05000003 	streq	r0, [r0, #-3]
    aa08:	00250241 	eoreq	r0, r5, r1, asr #4
    aa0c:	17100000 	ldrne	r0, [r0, -r0]
    aa10:	00000029 	andeq	r0, r0, r9, lsr #32
    aa14:	1d024205 	sfmne	f4, 4, [r2, #-20]	; 0xffffffec
    aa18:	14000008 	strne	r0, [r0], #-8
    aa1c:	000ab317 	andeq	fp, sl, r7, lsl r3
    aa20:	02440500 	subeq	r0, r4, #0, 10
    aa24:	00000025 	andeq	r0, r0, r5, lsr #32
    aa28:	0a2e1730 	beq	b906f0 <__bss_end__+0xb86690>
    aa2c:	45050000 	strmi	r0, [r5, #-0]
    aa30:	00058a02 	andeq	r8, r5, r2, lsl #20
    aa34:	b2173400 	andslt	r3, r7, #0, 8
    aa38:	05000002 	streq	r0, [r0, #-2]
    aa3c:	00250247 	eoreq	r0, r5, r7, asr #4
    aa40:	17380000 	ldrne	r0, [r8, -r0]!
    aa44:	000003e1 	andeq	r0, r0, r1, ror #7
    aa48:	38024905 	stmdacc	r2, {r0, r2, r8, fp, lr}
    aa4c:	3c000008 	stccc	0, cr0, [r0], {8}
    aa50:	00025717 	andeq	r5, r2, r7, lsl r7
    aa54:	024c0500 	subeq	r0, ip, #0, 10
    aa58:	0000017c 	andeq	r0, r0, ip, ror r1
    aa5c:	01c71740 	biceq	r1, r7, r0, asr #14
    aa60:	4d050000 	stcmi	0, cr0, [r5, #-0]
    aa64:	00002502 	andeq	r2, r0, r2, lsl #10
    aa68:	24174400 	ldrcs	r4, [r7], #-1024	; 0xfffffc00
    aa6c:	05000005 	streq	r0, [r0, #-5]
    aa70:	017c024e 	cmneq	ip, lr, asr #4
    aa74:	17480000 	strbne	r0, [r8, -r0]
    aa78:	000002c4 	andeq	r0, r0, r4, asr #5
    aa7c:	3e024f05 	cdpcc	15, 0, cr4, cr2, cr5, {0}
    aa80:	4c000008 	stcmi	0, cr0, [r0], {8}
    aa84:	00020017 	andeq	r0, r2, r7, lsl r0
    aa88:	02520500 	subseq	r0, r2, #0, 10
    aa8c:	00000025 	andeq	r0, r0, r5, lsr #32
    aa90:	01461750 	cmpeq	r6, r0, asr r7
    aa94:	53050000 	movwpl	r0, #20480	; 0x5000
    aa98:	00010c02 	andeq	r0, r1, r2, lsl #24
    aa9c:	ea175400 	b	5dfaa4 <__bss_end__+0x5d5a44>
    aaa0:	05000002 	streq	r0, [r0, #-2]
    aaa4:	07fb0276 			; <UNDEFINED> instruction: 0x07fb0276
    aaa8:	18580000 	ldmdane	r8, {}^	; <UNPREDICTABLE>
    aaac:	000002aa 	andeq	r0, r0, sl, lsr #5
    aab0:	99027a05 	stmdbls	r2, {r0, r2, r9, fp, ip, sp, lr}
    aab4:	48000002 	stmdami	r0, {r1}
    aab8:	02351801 	eorseq	r1, r5, #65536	; 0x10000
    aabc:	7b050000 	blvc	14aac4 <__bss_end__+0x140a64>
    aac0:	00025b02 	andeq	r5, r2, r2, lsl #22
    aac4:	18014c00 	stmdane	r1, {sl, fp, lr}
    aac8:	000004d0 	ldrdeq	r0, [r0], -r0	; <UNPREDICTABLE>
    aacc:	4f027f05 	svcmi	0x00027f05
    aad0:	dc000008 	stcle	0, cr0, [r0], {8}
    aad4:	01171802 	tsteq	r7, r2, lsl #16
    aad8:	84050000 	strhi	r0, [r5], #-0
    aadc:	00060002 	andeq	r0, r6, r2
    aae0:	1802e000 	stmdane	r2, {sp, lr, pc}
    aae4:	000000fc 	strdeq	r0, [r0], -ip
    aae8:	5b028505 	blpl	abf04 <__bss_end__+0xa1ea4>
    aaec:	ec000008 	stc	0, cr0, [r0], {8}
    aaf0:	040e0002 	streq	r0, [lr], #-2
    aaf4:	0000040b 	andeq	r0, r0, fp, lsl #8
    aaf8:	00002514 	andeq	r2, r0, r4, lsl r5
    aafc:	00058a00 	andeq	r8, r5, r0, lsl #20
    ab00:	04291500 	strteq	r1, [r9], #-1280	; 0xfffffb00
    ab04:	0a150000 	beq	54ab0c <__bss_end__+0x540aac>
    ab08:	15000001 	strne	r0, [r0, #-1]
    ab0c:	0000058a 	andeq	r0, r0, sl, lsl #11
    ab10:	00002515 	andeq	r2, r0, r5, lsl r5
    ab14:	040e0000 	streq	r0, [lr], #-0
    ab18:	00000119 	andeq	r0, r0, r9, lsl r1
    ab1c:	056c040e 	strbeq	r0, [ip, #-1038]!	; 0xfffffbf2
    ab20:	86140000 	ldrhi	r0, [r4], -r0
    ab24:	b4000000 	strlt	r0, [r0], #-0
    ab28:	15000005 	strne	r0, [r0, #-5]
    ab2c:	00000429 	andeq	r0, r0, r9, lsr #8
    ab30:	00010a15 	andeq	r0, r1, r5, lsl sl
    ab34:	00861500 	addeq	r1, r6, r0, lsl #10
    ab38:	25150000 	ldrcs	r0, [r5, #-0]
    ab3c:	00000000 	andeq	r0, r0, r0
    ab40:	0596040e 	ldreq	r0, [r6, #1038]	; 0x40e
    ab44:	25140000 	ldrcs	r0, [r4, #-0]
    ab48:	ce000000 	cdpgt	0, 0, cr0, cr0, cr0, {0}
    ab4c:	15000005 	strne	r0, [r0, #-5]
    ab50:	00000429 	andeq	r0, r0, r9, lsr #8
    ab54:	00010a15 	andeq	r0, r1, r5, lsl sl
    ab58:	040e0000 	streq	r0, [lr], #-0
    ab5c:	000005ba 			; <UNDEFINED> instruction: 0x000005ba
    ab60:	00005409 	andeq	r5, r0, r9, lsl #8
    ab64:	0005e400 	andeq	lr, r5, r0, lsl #8
    ab68:	00cc0a00 	sbceq	r0, ip, r0, lsl #20
    ab6c:	00020000 	andeq	r0, r2, r0
    ab70:	00005409 	andeq	r5, r0, r9, lsl #8
    ab74:	0005f400 	andeq	pc, r5, r0, lsl #8
    ab78:	00cc0a00 	sbceq	r0, ip, r0, lsl #20
    ab7c:	00000000 	andeq	r0, r0, r0
    ab80:	00039c06 	andeq	r9, r3, r6, lsl #24
    ab84:	011d0500 	tsteq	sp, r0, lsl #10
    ab88:	000002e1 	andeq	r0, r0, r1, ror #5
    ab8c:	0004b719 	andeq	fp, r4, r9, lsl r7
    ab90:	21050c00 	tstcs	r5, r0, lsl #24
    ab94:	00063501 	andeq	r3, r6, r1, lsl #10
    ab98:	03c41700 	biceq	r1, r4, #0, 14
    ab9c:	23050000 	movwcs	r0, #20480	; 0x5000
    aba0:	00063501 	andeq	r3, r6, r1, lsl #10
    aba4:	1b170000 	blne	5cabac <__bss_end__+0x5c0b4c>
    aba8:	05000002 	streq	r0, [r0, #-2]
    abac:	00250124 	eoreq	r0, r5, r4, lsr #2
    abb0:	17040000 	strne	r0, [r4, -r0]
    abb4:	00000396 	muleq	r0, r6, r3
    abb8:	3b012505 	blcc	53fd4 <__bss_end__+0x49f74>
    abbc:	08000006 	stmdaeq	r0, {r1, r2}
    abc0:	00040e00 	andeq	r0, r4, r0, lsl #28
    abc4:	0e000006 	cdpeq	0, 0, cr0, cr0, cr6, {0}
    abc8:	0005f404 	andeq	pc, r5, r4, lsl #8
    abcc:	00211900 	eoreq	r1, r1, r0, lsl #18
    abd0:	050e0000 	streq	r0, [lr, #-0]
    abd4:	0676013d 			; <UNDEFINED> instruction: 0x0676013d
    abd8:	13170000 	tstne	r7, #0
    abdc:	05000004 	streq	r0, [r0, #-4]
    abe0:	0676013e 			; <UNDEFINED> instruction: 0x0676013e
    abe4:	17000000 	strne	r0, [r0, -r0]
    abe8:	00000447 	andeq	r0, r0, r7, asr #8
    abec:	76013f05 	strvc	r3, [r1], -r5, lsl #30
    abf0:	06000006 	streq	r0, [r0], -r6
    abf4:	00046317 	andeq	r6, r4, r7, lsl r3
    abf8:	01400500 	cmpeq	r0, r0, lsl #10
    abfc:	0000005b 	andeq	r0, r0, fp, asr r0
    ac00:	5b09000c 	blpl	24ac38 <__bss_end__+0x240bd8>
    ac04:	86000000 	strhi	r0, [r0], -r0
    ac08:	0a000006 	beq	ac28 <__bss_end__+0xbc8>
    ac0c:	000000cc 	andeq	r0, r0, ip, asr #1
    ac10:	d01a0002 	andsle	r0, sl, r2
    ac14:	87025705 	strhi	r5, [r2, -r5, lsl #14]
    ac18:	17000007 	strne	r0, [r0, -r7]
    ac1c:	0000049b 	muleq	r0, fp, r4
    ac20:	2c025905 			; <UNDEFINED> instruction: 0x2c025905
    ac24:	00000000 	andeq	r0, r0, r0
    ac28:	00044d17 	andeq	r4, r4, r7, lsl sp
    ac2c:	025a0500 	subseq	r0, sl, #0, 10
    ac30:	0000010c 	andeq	r0, r0, ip, lsl #2
    ac34:	024a1704 	subeq	r1, sl, #4, 14	; 0x100000
    ac38:	5b050000 	blpl	14ac40 <__bss_end__+0x140be0>
    ac3c:	00078702 	andeq	r8, r7, r2, lsl #14
    ac40:	fb170800 	blx	5ccc4a <__bss_end__+0x5c2bea>
    ac44:	05000004 	streq	r0, [r0, #-4]
    ac48:	0192025c 	orrseq	r0, r2, ip, asr r2
    ac4c:	17240000 	strne	r0, [r4, -r0]!
    ac50:	000001b8 			; <UNDEFINED> instruction: 0x000001b8
    ac54:	25025d05 	strcs	r5, [r2, #-3333]	; 0xfffff2fb
    ac58:	48000000 	stmdami	r0, {}	; <UNPREDICTABLE>
    ac5c:	0003bf17 	andeq	fp, r3, r7, lsl pc
    ac60:	025e0500 	subseq	r0, lr, #0, 10
    ac64:	00000069 	andeq	r0, r0, r9, rrx
    ac68:	05111750 	ldreq	r1, [r1, #-1872]	; 0xfffff8b0
    ac6c:	5f050000 	svcpl	0x00050000
    ac70:	00064102 	andeq	r4, r6, r2, lsl #2
    ac74:	ca175800 	bgt	5e0c7c <__bss_end__+0x5d6c1c>
    ac78:	05000003 	streq	r0, [r0, #-3]
    ac7c:	00f40260 	rscseq	r0, r4, r0, ror #4
    ac80:	17680000 	strbne	r0, [r8, -r0]!
    ac84:	00000516 	andeq	r0, r0, r6, lsl r5
    ac88:	f4026105 	vst4.8	{d6,d8,d10,d12}, [r2], r5
    ac8c:	70000000 	andvc	r0, r0, r0
    ac90:	0002ce17 	andeq	ip, r2, r7, lsl lr
    ac94:	02620500 	rsbeq	r0, r2, #0, 10
    ac98:	000000f4 	strdeq	r0, [r0], -r4
    ac9c:	04c61778 	strbeq	r1, [r6], #1912	; 0x778
    aca0:	63050000 	movwvs	r0, #20480	; 0x5000
    aca4:	00079702 	andeq	r9, r7, r2, lsl #14
    aca8:	3e178000 	cdpcc	0, 1, cr8, cr7, cr0, {0}
    acac:	05000002 	streq	r0, [r0, #-2]
    acb0:	07a70264 	streq	r0, [r7, r4, ror #4]!
    acb4:	17880000 	strne	r0, [r8, r0]
    acb8:	00000470 	andeq	r0, r0, r0, ror r4
    acbc:	25026505 	strcs	r6, [r2, #-1285]	; 0xfffffafb
    acc0:	a0000000 	andge	r0, r0, r0
    acc4:	00017e17 	andeq	r7, r1, r7, lsl lr
    acc8:	02660500 	rsbeq	r0, r6, #0, 10
    accc:	000000f4 	strdeq	r0, [r0], -r4
    acd0:	008f17a4 	addeq	r1, pc, r4, lsr #15
    acd4:	67050000 	strvs	r0, [r5, -r0]
    acd8:	0000f402 	andeq	pc, r0, r2, lsl #8
    acdc:	6d17ac00 	ldcvs	12, cr10, [r7, #-0]
    ace0:	05000001 	streq	r0, [r0, #-1]
    ace4:	00f40268 	rscseq	r0, r4, r8, ror #4
    ace8:	17b40000 	ldrne	r0, [r4, r0]!
    acec:	0000003c 	andeq	r0, r0, ip, lsr r0
    acf0:	f4026905 	vst2.8	{d6,d8}, [r2], r5
    acf4:	bc000000 	stclt	0, cr0, [r0], {-0}
    acf8:	00004b17 	andeq	r4, r0, r7, lsl fp
    acfc:	026a0500 	rsbeq	r0, sl, #0, 10
    ad00:	000000f4 	strdeq	r0, [r0], -r4
    ad04:	036e17c4 	cmneq	lr, #196, 14	; 0x3100000
    ad08:	6b050000 	blvs	14ad10 <__bss_end__+0x140cb0>
    ad0c:	00002502 	andeq	r2, r0, r2, lsl #10
    ad10:	0900cc00 	stmdbeq	r0, {sl, fp, lr, pc}
    ad14:	00000112 	andeq	r0, r0, r2, lsl r1
    ad18:	00000797 	muleq	r0, r7, r7
    ad1c:	0000cc0a 	andeq	ip, r0, sl, lsl #24
    ad20:	09001900 	stmdbeq	r0, {r8, fp, ip}
    ad24:	00000112 	andeq	r0, r0, r2, lsl r1
    ad28:	000007a7 	andeq	r0, r0, r7, lsr #15
    ad2c:	0000cc0a 	andeq	ip, r0, sl, lsl #24
    ad30:	09000700 	stmdbeq	r0, {r8, r9, sl}
    ad34:	00000112 	andeq	r0, r0, r2, lsl r1
    ad38:	000007b7 			; <UNDEFINED> instruction: 0x000007b7
    ad3c:	0000cc0a 	andeq	ip, r0, sl, lsl #24
    ad40:	1a001700 	bne	10948 <__bss_end__+0x68e8>
    ad44:	027005f0 	rsbseq	r0, r0, #240, 10	; 0x3c000000
    ad48:	000007db 	ldrdeq	r0, [r0], -fp
    ad4c:	00029a17 	andeq	r9, r2, r7, lsl sl
    ad50:	02730500 	rsbseq	r0, r3, #0, 10
    ad54:	000007db 	ldrdeq	r0, [r0], -fp
    ad58:	04bd1700 	ldrteq	r1, [sp], #1792	; 0x700
    ad5c:	74050000 	strvc	r0, [r5], #-0
    ad60:	0007eb02 	andeq	lr, r7, r2, lsl #22
    ad64:	09007800 	stmdbeq	r0, {fp, ip, sp, lr}
    ad68:	000002db 	ldrdeq	r0, [r0], -fp
    ad6c:	000007eb 	andeq	r0, r0, fp, ror #15
    ad70:	0000cc0a 	andeq	ip, r0, sl, lsl #24
    ad74:	09001d00 	stmdbeq	r0, {r8, sl, fp, ip}
    ad78:	0000002c 	andeq	r0, r0, ip, lsr #32
    ad7c:	000007fb 	strdeq	r0, [r0], -fp
    ad80:	0000cc0a 	andeq	ip, r0, sl, lsl #24
    ad84:	1b001d00 	blne	1218c <__bss_end__+0x812c>
    ad88:	025505f0 	subseq	r0, r5, #240, 10	; 0x3c000000
    ad8c:	0000081d 	andeq	r0, r0, sp, lsl r8
    ad90:	00040c1c 	andeq	r0, r4, ip, lsl ip
    ad94:	026c0500 	rsbeq	r0, ip, #0, 10
    ad98:	00000686 	andeq	r0, r0, r6, lsl #13
    ad9c:	0004e81c 	andeq	lr, r4, ip, lsl r8
    ada0:	02750500 	rsbseq	r0, r5, #0, 10
    ada4:	000007b7 			; <UNDEFINED> instruction: 0x000007b7
    ada8:	01120900 	tsteq	r2, r0, lsl #18
    adac:	082d0000 	stmdaeq	sp!, {}	; <UNPREDICTABLE>
    adb0:	cc0a0000 	stcgt	0, cr0, [sl], {-0}
    adb4:	18000000 	stmdane	r0, {}	; <UNPREDICTABLE>
    adb8:	08381d00 	ldmdaeq	r8!, {r8, sl, fp, ip}
    adbc:	29150000 	ldmdbcs	r5, {}	; <UNPREDICTABLE>
    adc0:	00000004 	andeq	r0, r0, r4
    adc4:	082d040e 	stmdaeq	sp!, {r1, r2, r3, sl}
    adc8:	040e0000 	streq	r0, [lr], #-0
    adcc:	0000017c 	andeq	r0, r0, ip, ror r1
    add0:	00084f1d 	andeq	r4, r8, sp, lsl pc
    add4:	00251500 	eoreq	r1, r5, r0, lsl #10
    add8:	0e000000 	cdpeq	0, 0, cr0, cr0, cr0, {0}
    addc:	00085504 	andeq	r5, r8, r4, lsl #10
    ade0:	44040e00 	strmi	r0, [r4], #-3584	; 0xfffff200
    ade4:	09000008 	stmdbeq	r0, {r3}
    ade8:	000005f4 	strdeq	r0, [r0], -r4
    adec:	0000086b 	andeq	r0, r0, fp, ror #16
    adf0:	0000cc0a 	andeq	ip, r0, sl, lsl #24
    adf4:	1e000200 	cdpne	2, 0, cr0, cr0, cr0, {0}
    adf8:	00000484 	andeq	r0, r0, r4, lsl #9
    adfc:	2902fd05 	stmdbcs	r2, {r0, r2, r8, sl, fp, ip, sp, lr, pc}
    ae00:	1e000004 	cdpne	0, 0, cr0, cr0, cr4, {0}
    ae04:	0000047d 	andeq	r0, r0, sp, ror r4
    ae08:	2f02fe05 	svccs	0x0002fe05
    ae0c:	14000004 	strne	r0, [r0], #-4
    ae10:	00000025 	andeq	r0, r0, r5, lsr #32
    ae14:	00000892 	muleq	r0, r2, r8
    ae18:	00002515 	andeq	r2, r0, r5, lsl r5
    ae1c:	d11f0000 	tstle	pc, r0
    ae20:	06000001 	streq	r0, [r0], -r1
    ae24:	00089d1d 	andeq	r9, r8, sp, lsl sp
    ae28:	83040e00 	movwhi	r0, #19968	; 0x4e00
    ae2c:	14000008 	strne	r0, [r0], #-8
    ae30:	00000025 	andeq	r0, r0, r5, lsr #32
    ae34:	000008b2 			; <UNDEFINED> instruction: 0x000008b2
    ae38:	00058a15 	andeq	r8, r5, r5, lsl sl
    ae3c:	731f0000 	tstvc	pc, #0
    ae40:	06000007 	streq	r0, [r0], -r7
    ae44:	0008bd22 	andeq	fp, r8, r2, lsr #26
    ae48:	a3040e00 	movwge	r0, #19968	; 0x4e00
    ae4c:	20000008 	andcs	r0, r0, r8
    ae50:	00005401 	andeq	r5, r0, r1, lsl #8
    ae54:	000c0700 	andeq	r0, ip, r0, lsl #14
    ae58:	21000009 	tstcs	r0, r9
    ae5c:	0000094c 	andeq	r0, r0, ip, asr #18
    ae60:	0ac52100 	beq	ff153268 <__bss_end__+0xff149208>
    ae64:	21010000 	mrscs	r0, (UNDEF: 1)
    ae68:	00000b00 	andeq	r0, r0, r0, lsl #22
    ae6c:	09612104 	stmdbeq	r1!, {r2, r8, sp}^
    ae70:	21050000 	mrscs	r0, (UNDEF: 5)
    ae74:	000009ed 	andeq	r0, r0, sp, ror #19
    ae78:	0b0f2106 	bleq	3d3298 <__bss_end__+0x3c9238>
    ae7c:	21070000 	mrscs	r0, (UNDEF: 7)
    ae80:	00000b1e 	andeq	r0, r0, lr, lsl fp
    ae84:	0b2d2103 	bleq	b53298 <__bss_end__+0xb49238>
    ae88:	00020000 	andeq	r0, r2, r0
    ae8c:	000ba905 	andeq	sl, fp, r5, lsl #18
    ae90:	c3150700 	tstgt	r5, #0, 14
    ae94:	22000008 	andcs	r0, r0, #8
    ae98:	00000b7a 	andeq	r0, r0, sl, ror fp
    ae9c:	00331d01 	eorseq	r1, r3, r1, lsl #26
    aea0:	001c0000 	andseq	r0, ip, r0
    aea4:	b5222020 	strlt	r2, [r2, #-32]!	; 0xffffffe0
    aea8:	0100000b 	tsteq	r0, fp
    aeac:	0000331e 	andeq	r3, r0, lr, lsl r3
    aeb0:	20002800 	andcs	r2, r0, r0, lsl #16
    aeb4:	0b842220 	bleq	fe11373c <__bss_end__+0xfe1096dc>
    aeb8:	1f010000 	svcne	0x00010000
    aebc:	00000033 	andeq	r0, r0, r3, lsr r0
    aec0:	20200034 	eorcs	r0, r0, r4, lsr r0
    aec4:	000b5523 	andeq	r5, fp, r3, lsr #10
    aec8:	25560100 	ldrbcs	r0, [r6, #-256]	; 0xffffff00
    aecc:	b0000000 	andlt	r0, r0, r0
    aed0:	34000094 	strcc	r0, [r0], #-148	; 0xffffff6c
    aed4:	01000000 	mrseq	r0, (UNDEF: 0)
    aed8:	0009989c 	muleq	r9, ip, r8
    aedc:	69702400 	ldmdbvs	r0!, {sl, sp}^
    aee0:	5601006e 	strpl	r0, [r1], -lr, rrx
    aee4:	0000002c 	andeq	r0, r0, ip, lsr #32
    aee8:	000013b3 			; <UNDEFINED> instruction: 0x000013b3
    aeec:	000b4925 	andeq	r4, fp, r5, lsr #18
    aef0:	2c590100 	ldfcse	f0, [r9], {-0}
    aef4:	ed000000 	stc	0, cr0, [r0, #-0]
    aef8:	26000013 			; <UNDEFINED> instruction: 0x26000013
    aefc:	0066666f 	rsbeq	r6, r6, pc, ror #12
    af00:	002c5a01 	eoreq	r5, ip, r1, lsl #20
    af04:	142b0000 	strtne	r0, [fp], #-0
    af08:	cc270000 	stcgt	0, cr0, [r7], #-0
    af0c:	5d000094 	stcpl	0, cr0, [r0, #-592]	; 0xfffffdb0
    af10:	2800000b 	stmdacs	r0, {r0, r1, r3}
    af14:	f30b5001 	vhadd.u8	d5, d11, d1
    af18:	25355001 	ldrcs	r5, [r5, #-1]!
    af1c:	8080b423 	addhi	fp, r0, r3, lsr #8
    af20:	00000281 	andeq	r0, r0, r1, lsl #5
    af24:	000b6f29 	andeq	r6, fp, r9, lsr #30
    af28:	944f0100 	strbls	r0, [pc], #-256	; af30 <__bss_end__+0xed0>
    af2c:	1c000094 	stcne	0, cr0, [r0], {148}	; 0x94
    af30:	01000000 	mrseq	r0, (UNDEF: 0)
    af34:	0009e89c 	muleq	r9, ip, r8
    af38:	69702400 	ldmdbvs	r0!, {sl, sp}^
    af3c:	4f01006e 	svcmi	0x0001006e
    af40:	0000002c 	andeq	r0, r0, ip, lsr #32
    af44:	0000143e 	andeq	r1, r0, lr, lsr r4
    af48:	01007624 	tsteq	r0, r4, lsr #12
    af4c:	00002c4f 	andeq	r2, r0, pc, asr #24
    af50:	00147800 	andseq	r7, r4, r0, lsl #16
    af54:	94a42a00 	strtls	r2, [r4], #2560	; 0xa00
    af58:	0a230000 	beq	8caf60 <__bss_end__+0x8c0f00>
    af5c:	09de0000 	ldmibeq	lr, {}^	; <UNPREDICTABLE>
    af60:	01280000 			; <UNDEFINED> instruction: 0x01280000
    af64:	01f30350 	mvnseq	r0, r0, asr r3
    af68:	ac2b0050 	stcge	0, cr0, [fp], #-320	; 0xfffffec0
    af6c:	64000094 	strvs	r0, [r0], #-148	; 0xffffff6c
    af70:	0000000a 	andeq	r0, r0, sl
    af74:	000b8e29 	andeq	r8, fp, r9, lsr #28
    af78:	844a0100 	strbhi	r0, [sl], #-256	; 0xffffff00
    af7c:	10000094 	mulne	r0, r4, r0
    af80:	01000000 	mrseq	r0, (UNDEF: 0)
    af84:	000a239c 	muleq	sl, ip, r3
    af88:	69702400 	ldmdbvs	r0!, {sl, sp}^
    af8c:	4a01006e 	bmi	4b14c <__bss_end__+0x410ec>
    af90:	0000002c 	andeq	r0, r0, ip, lsr #32
    af94:	000014b2 			; <UNDEFINED> instruction: 0x000014b2
    af98:	00949027 	addseq	r9, r4, r7, lsr #32
    af9c:	000ae000 	andeq	lr, sl, r0
    afa0:	50012800 	andpl	r2, r1, r0, lsl #16
    afa4:	5001f303 	andpl	pc, r1, r3, lsl #6
    afa8:	01510128 	cmpeq	r1, r8, lsr #2
    afac:	29000030 	stmdbcs	r0, {r4, r5}
    afb0:	00000b3c 	andeq	r0, r0, ip, lsr fp
    afb4:	94604301 	strbtls	r4, [r0], #-769	; 0xfffffcff
    afb8:	00240000 	eoreq	r0, r4, r0
    afbc:	9c010000 	stcls	0, cr0, [r1], {-0}
    afc0:	00000a64 	andeq	r0, r0, r4, ror #20
    afc4:	6e697024 	cdpvs	0, 6, cr7, cr9, cr4, {1}
    afc8:	2c430100 	stfcse	f0, [r3], {-0}
    afcc:	d3000000 	movwle	r0, #0
    afd0:	27000014 	smladcs	r0, r4, r0, r0
    afd4:	0000947c 	andeq	r9, r0, ip, ror r4
    afd8:	00000b68 	andeq	r0, r0, r8, ror #22
    afdc:	05500128 	ldrbeq	r0, [r0, #-296]	; 0xfffffed8
    afe0:	2000280c 	andcs	r2, r0, ip, lsl #16
    afe4:	51012820 	tstpl	r1, r0, lsr #16
    afe8:	01f33105 	mvnseq	r3, r5, lsl #2
    afec:	00002450 	andeq	r2, r0, r0, asr r4
    aff0:	000b9d29 	andeq	r9, fp, r9, lsr #26
    aff4:	3c3c0100 	ldfccs	f0, [ip], #-0
    aff8:	24000094 	strcs	r0, [r0], #-148	; 0xffffff6c
    affc:	01000000 	mrseq	r0, (UNDEF: 0)
    b000:	000aa59c 	muleq	sl, ip, r5
    b004:	69702400 	ldmdbvs	r0!, {sl, sp}^
    b008:	3c01006e 	stccc	0, cr0, [r1], {110}	; 0x6e
    b00c:	0000002c 	andeq	r0, r0, ip, lsr #32
    b010:	000014f4 	strdeq	r1, [r0], -r4
    b014:	00945827 	addseq	r5, r4, r7, lsr #16
    b018:	000b6800 	andeq	r6, fp, r0, lsl #16
    b01c:	50012800 	andpl	r2, r1, r0, lsl #16
    b020:	001c0c05 	andseq	r0, ip, r5, lsl #24
    b024:	01282020 			; <UNDEFINED> instruction: 0x01282020
    b028:	f3310551 	vqrshl.u64	q0, <illegal reg q0.5>, <illegal reg q0.5>
    b02c:	00245001 	eoreq	r5, r4, r1
    b030:	0b5f2900 	bleq	17d5438 <__bss_end__+0x17cb3d8>
    b034:	37010000 	strcc	r0, [r1, -r0]
    b038:	0000942c 	andeq	r9, r0, ip, lsr #8
    b03c:	00000010 	andeq	r0, r0, r0, lsl r0
    b040:	0ae09c01 	beq	ff83204c <__bss_end__+0xff827fec>
    b044:	70240000 	eorvc	r0, r4, r0
    b048:	01006e69 	tsteq	r0, r9, ror #28
    b04c:	00002c37 	andeq	r2, r0, r7, lsr ip
    b050:	00151500 	andseq	r1, r5, r0, lsl #10
    b054:	94382700 	ldrtls	r2, [r8], #-1792	; 0xfffff900
    b058:	0ae00000 	beq	ff80b060 <__bss_end__+0xff801000>
    b05c:	01280000 			; <UNDEFINED> instruction: 0x01280000
    b060:	01f30350 	mvnseq	r0, r0, asr r3
    b064:	51012850 	tstpl	r1, r0, asr r8
    b068:	00003101 	andeq	r3, r0, r1, lsl #2
    b06c:	000a0529 	andeq	r0, sl, r9, lsr #10
    b070:	c4280100 	strtgt	r0, [r8], #-256	; 0xffffff00
    b074:	68000093 	stmdavs	r0, {r0, r1, r4, r7}
    b078:	01000000 	mrseq	r0, (UNDEF: 0)
    b07c:	000b5d9c 	muleq	fp, ip, sp
    b080:	69702400 	ldmdbvs	r0!, {sl, sp}^
    b084:	2801006e 	stmdacs	r1, {r1, r2, r3, r5, r6}
    b088:	0000002c 	andeq	r0, r0, ip, lsr #32
    b08c:	00001536 	andeq	r1, r0, r6, lsr r5
    b090:	0004d52c 	andeq	sp, r4, ip, lsr #10
    b094:	00280100 	eoreq	r0, r8, r0, lsl #2
    b098:	57000009 	strpl	r0, [r0, -r9]
    b09c:	2d000015 	stccs	0, cr0, [r0, #-84]	; 0xffffffac
    b0a0:	0066666f 	rsbeq	r6, r6, pc, ror #12
    b0a4:	002c2d01 	eoreq	r2, ip, r1, lsl #26
    b0a8:	54010000 	strpl	r0, [r1], #-0
    b0ac:	0100672d 	tsteq	r0, sp, lsr #14
    b0b0:	00002c2f 	andeq	r2, r0, pc, lsr #24
    b0b4:	26560100 	ldrbcs	r0, [r6], -r0, lsl #2
    b0b8:	31010076 	tstcc	r1, r6, ror r0
    b0bc:	0000002c 	andeq	r0, r0, ip, lsr #32
    b0c0:	00001578 	andeq	r1, r0, r8, ror r5
    b0c4:	0094102a 	addseq	r1, r4, sl, lsr #32
    b0c8:	000b5d00 	andeq	r5, fp, r0, lsl #26
    b0cc:	000b4c00 	andeq	r4, fp, r0, lsl #24
    b0d0:	50012800 	andpl	r2, r1, r0, lsl #16
    b0d4:	00007602 	andeq	r7, r0, r2, lsl #12
    b0d8:	00942427 	addseq	r2, r4, r7, lsr #8
    b0dc:	000b6800 	andeq	r6, fp, r0, lsl #16
    b0e0:	50012800 	andpl	r2, r1, r0, lsl #16
    b0e4:	00007602 	andeq	r7, r0, r2, lsl #12
    b0e8:	09202e00 	stmdbeq	r0!, {r9, sl, fp, sp}
    b0ec:	09200000 	stmdbeq	r0!, {}	; <UNPREDICTABLE>
    b0f0:	a7060000 	strge	r0, [r6, -r0]
    b0f4:	00087a2e 	andeq	r7, r8, lr, lsr #20
    b0f8:	00087a00 	andeq	r7, r8, r0, lsl #20
    b0fc:	009b0600 	addseq	r0, fp, r0, lsl #12
    b100:	00000c24 	andeq	r0, r0, r4, lsr #24
    b104:	23df0004 	bicscs	r0, pc, #4
    b108:	01040000 	mrseq	r0, (UNDEF: 4)
    b10c:	00000a51 	andeq	r0, r0, r1, asr sl
    b110:	000bbf0c 	andeq	fp, fp, ip, lsl #30
    b114:	00098800 	andeq	r8, r9, r0, lsl #16
    b118:	0094e400 	addseq	lr, r4, r0, lsl #8
    b11c:	00019400 	andeq	r9, r1, r0, lsl #8
    b120:	001c1400 	andseq	r1, ip, r0, lsl #8
    b124:	05040200 	streq	r0, [r4, #-512]	; 0xfffffe00
    b128:	00746e69 	rsbseq	r6, r4, r9, ror #28
    b12c:	66070403 	strvs	r0, [r7], -r3, lsl #8
    b130:	03000000 	movweq	r0, #0
    b134:	02de0601 	sbcseq	r0, lr, #1048576	; 0x100000
    b138:	02030000 	andeq	r0, r3, #0
    b13c:	00037705 	andeq	r7, r3, r5, lsl #14
    b140:	05040300 	streq	r0, [r4, #-768]	; 0xfffffd00
    b144:	000000ac 	andeq	r0, r0, ip, lsr #1
    b148:	a7050803 	strge	r0, [r5, -r3, lsl #16]
    b14c:	03000000 	movweq	r0, #0
    b150:	02dc0801 	sbcseq	r0, ip, #65536	; 0x10000
    b154:	02030000 	andeq	r0, r3, #0
    b158:	00022207 	andeq	r2, r2, r7, lsl #4
    b15c:	07040300 	streq	r0, [r4, -r0, lsl #6]
    b160:	00000061 	andeq	r0, r0, r1, rrx
    b164:	5c070803 	stcpl	8, cr0, [r7], {3}
    b168:	04000000 	streq	r0, [r0], #-0
    b16c:	00000a1c 	andeq	r0, r0, ip, lsl sl
    b170:	00250702 	eoreq	r0, r5, r2, lsl #14
    b174:	bd040000 	stclt	0, cr0, [r4, #-0]
    b178:	03000002 	movweq	r0, #2
    b17c:	0000412c 	andeq	r4, r0, ip, lsr #2
    b180:	04360400 	ldrteq	r0, [r6], #-1024	; 0xfffffc00
    b184:	72030000 	andvc	r0, r3, #0
    b188:	00000041 	andeq	r0, r0, r1, asr #32
    b18c:	00026d05 	andeq	r6, r2, r5, lsl #26
    b190:	01650400 	cmneq	r5, r0, lsl #8
    b194:	0000002c 	andeq	r0, r0, ip, lsr #32
    b198:	a6030406 	strge	r0, [r3], -r6, lsl #8
    b19c:	000000b7 	strheq	r0, [r0], -r7
    b1a0:	00025f07 	andeq	r5, r2, r7, lsl #30
    b1a4:	8ca80300 	stchi	3, cr0, [r8]
    b1a8:	07000000 	streq	r0, [r0, -r0]
    b1ac:	000001e2 	andeq	r0, r0, r2, ror #3
    b1b0:	00b7a903 	adcseq	sl, r7, r3, lsl #18
    b1b4:	08000000 	stmdaeq	r0, {}	; <UNPREDICTABLE>
    b1b8:	0000004f 	andeq	r0, r0, pc, asr #32
    b1bc:	000000c7 	andeq	r0, r0, r7, asr #1
    b1c0:	0000c709 	andeq	ip, r0, r9, lsl #14
    b1c4:	03000300 	movweq	r0, #768	; 0x300
    b1c8:	09fc0704 	ldmibeq	ip!, {r2, r8, r9, sl}^
    b1cc:	080a0000 	stmdaeq	sl, {}	; <UNPREDICTABLE>
    b1d0:	00efa303 	rsceq	sl, pc, r3, lsl #6
    b1d4:	190b0000 	stmdbne	fp, {}	; <UNPREDICTABLE>
    b1d8:	03000004 	movweq	r0, #4
    b1dc:	000025a5 	andeq	r2, r0, r5, lsr #11
    b1e0:	280b0000 	stmdacs	fp, {}	; <UNPREDICTABLE>
    b1e4:	03000004 	movweq	r0, #4
    b1e8:	000098aa 	andeq	r9, r0, sl, lsr #17
    b1ec:	04000400 	streq	r0, [r0], #-1024	; 0xfffffc00
    b1f0:	000003a3 	andeq	r0, r0, r3, lsr #7
    b1f4:	00ceab03 	sbceq	sl, lr, r3, lsl #22
    b1f8:	9f040000 	svcls	0x00040000
    b1fc:	03000001 	movweq	r0, #1
    b200:	00006baf 	andeq	r6, r0, pc, lsr #23
    b204:	0d040c00 	stceq	12, cr0, [r4, #-0]
    b208:	00010d04 	andeq	r0, r1, r4, lsl #26
    b20c:	08010300 	stmdaeq	r1, {r8, r9}
    b210:	000002e5 	andeq	r0, r0, r5, ror #5
    b214:	00010d0e 	andeq	r0, r1, lr, lsl #26
    b218:	04680400 	strbteq	r0, [r8], #-1024	; 0xfffffc00
    b21c:	16050000 	strne	r0, [r5], -r0
    b220:	0000005d 	andeq	r0, r0, sp, asr r0
    b224:	0001b00f 	andeq	fp, r1, pc
    b228:	2d051800 	stccs	8, cr1, [r5, #-0]
    b22c:	00000177 	andeq	r0, r0, r7, ror r1
    b230:	0003c40b 	andeq	ip, r3, fp, lsl #8
    b234:	772f0500 	strvc	r0, [pc, -r0, lsl #10]!
    b238:	00000001 	andeq	r0, r0, r1
    b23c:	006b5f10 	rsbeq	r5, fp, r0, lsl pc
    b240:	00253005 	eoreq	r3, r5, r5
    b244:	0b040000 	bleq	10b24c <__bss_end__+0x1011ec>
    b248:	00000404 	andeq	r0, r0, r4, lsl #8
    b24c:	00253005 	eoreq	r3, r5, r5
    b250:	0b080000 	bleq	20b258 <__bss_end__+0x2011f8>
    b254:	00000199 	muleq	r0, r9, r1
    b258:	00253005 	eoreq	r3, r5, r5
    b25c:	0b0c0000 	bleq	30b264 <__bss_end__+0x301204>
    b260:	000004a8 	andeq	r0, r0, r8, lsr #9
    b264:	00253005 	eoreq	r3, r5, r5
    b268:	10100000 	andsne	r0, r0, r0
    b26c:	0500785f 	streq	r7, [r0, #-2143]	; 0xfffff7a1
    b270:	00017d31 	andeq	r7, r1, r1, lsr sp
    b274:	0d001400 	cfstrseq	mvf1, [r0, #-0]
    b278:	00012404 	andeq	r2, r1, r4, lsl #8
    b27c:	01190800 	tsteq	r9, r0, lsl #16
    b280:	018d0000 	orreq	r0, sp, r0
    b284:	c7090000 	strgt	r0, [r9, -r0]
    b288:	00000000 	andeq	r0, r0, r0
    b28c:	01dd0f00 	bicseq	r0, sp, r0, lsl #30
    b290:	05240000 	streq	r0, [r4, #-0]!
    b294:	00020635 	andeq	r0, r2, r5, lsr r6
    b298:	009e0b00 	addseq	r0, lr, r0, lsl #22
    b29c:	37050000 	strcc	r0, [r5, -r0]
    b2a0:	00000025 	andeq	r0, r0, r5, lsr #32
    b2a4:	043e0b00 	ldrteq	r0, [lr], #-2816	; 0xfffff500
    b2a8:	38050000 	stmdacc	r5, {}	; <UNPREDICTABLE>
    b2ac:	00000025 	andeq	r0, r0, r5, lsr #32
    b2b0:	00c10b04 	sbceq	r0, r1, r4, lsl #22
    b2b4:	39050000 	stmdbcc	r5, {}	; <UNPREDICTABLE>
    b2b8:	00000025 	andeq	r0, r0, r5, lsr #32
    b2bc:	05330b08 	ldreq	r0, [r3, #-2824]!	; 0xfffff4f8
    b2c0:	3a050000 	bcc	14b2c8 <__bss_end__+0x141268>
    b2c4:	00000025 	andeq	r0, r0, r5, lsr #32
    b2c8:	02a10b0c 	adceq	r0, r1, #12, 22	; 0x3000
    b2cc:	3b050000 	blcc	14b2d4 <__bss_end__+0x141274>
    b2d0:	00000025 	andeq	r0, r0, r5, lsr #32
    b2d4:	02830b10 	addeq	r0, r3, #16, 22	; 0x4000
    b2d8:	3c050000 	stccc	0, cr0, [r5], {-0}
    b2dc:	00000025 	andeq	r0, r0, r5, lsr #32
    b2e0:	04ad0b14 	strteq	r0, [sp], #2836	; 0xb14
    b2e4:	3d050000 	stccc	0, cr0, [r5, #-0]
    b2e8:	00000025 	andeq	r0, r0, r5, lsr #32
    b2ec:	05290b18 	streq	r0, [r9, #-2840]!	; 0xfffff4e8
    b2f0:	3e050000 	cdpcc	0, 0, cr0, cr5, cr0, {0}
    b2f4:	00000025 	andeq	r0, r0, r5, lsr #32
    b2f8:	04f00b1c 	ldrbteq	r0, [r0], #2844	; 0xb1c
    b2fc:	3f050000 	svccc	0x00050000
    b300:	00000025 	andeq	r0, r0, r5, lsr #32
    b304:	01110020 	tsteq	r1, r0, lsr #32
    b308:	08000001 	stmdaeq	r0, {r0}
    b30c:	46480501 	strbmi	r0, [r8], -r1, lsl #10
    b310:	0b000002 	bleq	b320 <__bss_end__+0x12c0>
    b314:	0000018c 	andeq	r0, r0, ip, lsl #3
    b318:	02464905 	subeq	r4, r6, #81920	; 0x14000
    b31c:	0b000000 	bleq	b324 <__bss_end__+0x12c4>
    b320:	00000000 	andeq	r0, r0, r0
    b324:	02464a05 	subeq	r4, r6, #20480	; 0x5000
    b328:	12800000 	addne	r0, r0, #0
    b32c:	0000045a 	andeq	r0, r0, sl, asr r4
    b330:	01194c05 	tsteq	r9, r5, lsl #24
    b334:	01000000 	mrseq	r0, (UNDEF: 0)
    b338:	00012612 	andeq	r2, r1, r2, lsl r6
    b33c:	194f0500 	stmdbne	pc, {r8, sl}^	; <UNPREDICTABLE>
    b340:	04000001 	streq	r0, [r0], #-1
    b344:	05080001 	streq	r0, [r8, #-1]
    b348:	56000001 	strpl	r0, [r0], -r1
    b34c:	09000002 	stmdbeq	r0, {r1}
    b350:	000000c7 	andeq	r0, r0, r7, asr #1
    b354:	aa11001f 	bge	44b3d8 <__bss_end__+0x441378>
    b358:	90000002 	andls	r0, r0, r2
    b35c:	945b0501 	ldrbls	r0, [fp], #-1281	; 0xfffffaff
    b360:	0b000002 	bleq	b370 <__bss_end__+0x1310>
    b364:	000003c4 	andeq	r0, r0, r4, asr #7
    b368:	02945c05 	addseq	r5, r4, #1280	; 0x500
    b36c:	0b000000 	bleq	b374 <__bss_end__+0x1314>
    b370:	000003dc 	ldrdeq	r0, [r0], -ip
    b374:	00255d05 	eoreq	r5, r5, r5, lsl #26
    b378:	0b040000 	bleq	10b380 <__bss_end__+0x101320>
    b37c:	00000194 	muleq	r0, r4, r1
    b380:	029a5f05 	addseq	r5, sl, #5, 30
    b384:	0b080000 	bleq	20b38c <__bss_end__+0x20132c>
    b388:	00000101 	andeq	r0, r0, r1, lsl #2
    b38c:	02066005 	andeq	r6, r6, #5
    b390:	00880000 	addeq	r0, r8, r0
    b394:	0256040d 	subseq	r0, r6, #218103808	; 0xd000000
    b398:	aa080000 	bge	20b3a0 <__bss_end__+0x201340>
    b39c:	aa000002 	bge	b3ac <__bss_end__+0x134c>
    b3a0:	09000002 	stmdbeq	r0, {r1}
    b3a4:	000000c7 	andeq	r0, r0, r7, asr #1
    b3a8:	040d001f 	streq	r0, [sp], #-31	; 0xffffffe1
    b3ac:	000002b0 			; <UNDEFINED> instruction: 0x000002b0
    b3b0:	038f0f13 	orreq	r0, pc, #19, 30	; 0x4c
    b3b4:	05080000 	streq	r0, [r8, #-0]
    b3b8:	0002d673 	andeq	sp, r2, r3, ror r6
    b3bc:	00bb0b00 	adcseq	r0, fp, r0, lsl #22
    b3c0:	74050000 	strvc	r0, [r5], #-0
    b3c4:	000002d6 	ldrdeq	r0, [r0], -r6
    b3c8:	001b0b00 	andseq	r0, fp, r0, lsl #22
    b3cc:	75050000 	strvc	r0, [r5, #-0]
    b3d0:	00000025 	andeq	r0, r0, r5, lsr #32
    b3d4:	040d0004 	streq	r0, [sp], #-4
    b3d8:	0000004f 	andeq	r0, r0, pc, asr #32
    b3dc:	0003ae0f 	andeq	sl, r3, pc, lsl #28
    b3e0:	b3056800 	movwlt	r6, #22528	; 0x5800
    b3e4:	00000406 	andeq	r0, r0, r6, lsl #8
    b3e8:	00705f10 	rsbseq	r5, r0, r0, lsl pc
    b3ec:	02d6b405 	sbcseq	fp, r6, #83886080	; 0x5000000
    b3f0:	10000000 	andne	r0, r0, r0
    b3f4:	0500725f 	streq	r7, [r0, #-607]	; 0xfffffda1
    b3f8:	000025b5 			; <UNDEFINED> instruction: 0x000025b5
    b3fc:	5f100400 	svcpl	0x00100400
    b400:	b6050077 			; <UNDEFINED> instruction: 0xb6050077
    b404:	00000025 	andeq	r0, r0, r5, lsr #32
    b408:	011f0b08 	tsteq	pc, r8, lsl #22
    b40c:	b7050000 	strlt	r0, [r5, -r0]
    b410:	0000003a 	andeq	r0, r0, sl, lsr r0
    b414:	02080b0c 	andeq	r0, r8, #12, 22	; 0x3000
    b418:	b8050000 	stmdalt	r5, {}	; <UNPREDICTABLE>
    b41c:	0000003a 	andeq	r0, r0, sl, lsr r0
    b420:	625f100e 	subsvs	r1, pc, #14
    b424:	b9050066 	stmdblt	r5, {r1, r2, r5, r6}
    b428:	000002b1 			; <UNDEFINED> instruction: 0x000002b1
    b42c:	007b0b10 	rsbseq	r0, fp, r0, lsl fp
    b430:	ba050000 	blt	14b438 <__bss_end__+0x1413d8>
    b434:	00000025 	andeq	r0, r0, r5, lsr #32
    b438:	010f0b18 	tsteq	pc, r8, lsl fp	; <UNPREDICTABLE>
    b43c:	c1050000 	mrsgt	r0, (UNDEF: 5)
    b440:	00000105 	andeq	r0, r0, r5, lsl #2
    b444:	0b590b1c 	bleq	164e0bc <__bss_end__+0x164405c>
    b448:	c3050000 	movwgt	r0, #20480	; 0x5000
    b44c:	00000561 	andeq	r0, r0, r1, ror #10
    b450:	061d0b20 	ldreq	r0, [sp], -r0, lsr #22
    b454:	c5050000 	strgt	r0, [r5, #-0]
    b458:	0000058b 	andeq	r0, r0, fp, lsl #11
    b45c:	04300b24 	ldrteq	r0, [r0], #-2852	; 0xfffff4dc
    b460:	c8050000 	stmdagt	r5, {}	; <UNPREDICTABLE>
    b464:	000005af 	andeq	r0, r0, pc, lsr #11
    b468:	050a0b28 	streq	r0, [sl, #-2856]	; 0xfffff4d8
    b46c:	c9050000 	stmdbgt	r5, {}	; <UNPREDICTABLE>
    b470:	000005c9 	andeq	r0, r0, r9, asr #11
    b474:	755f102c 	ldrbvc	r1, [pc, #-44]	; b450 <__bss_end__+0x13f0>
    b478:	cc050062 	stcgt	0, cr0, [r5], {98}	; 0x62
    b47c:	000002b1 			; <UNDEFINED> instruction: 0x000002b1
    b480:	755f1030 	ldrbvc	r1, [pc, #-48]	; b458 <__bss_end__+0x13f8>
    b484:	cd050070 	stcgt	0, cr0, [r5, #-448]	; 0xfffffe40
    b488:	000002d6 	ldrdeq	r0, [r0], -r6
    b48c:	755f1038 	ldrbvc	r1, [pc, #-56]	; b45c <__bss_end__+0x13fc>
    b490:	ce050072 	mcrgt	0, 0, r0, cr5, cr2, {3}
    b494:	00000025 	andeq	r0, r0, r5, lsr #32
    b498:	00b50b3c 	adcseq	r0, r5, ip, lsr fp
    b49c:	d1050000 	mrsle	r0, (UNDEF: 5)
    b4a0:	000005cf 	andeq	r0, r0, pc, asr #11
    b4a4:	04e20b40 	strbteq	r0, [r2], #2880	; 0xb40
    b4a8:	d2050000 	andle	r0, r5, #0
    b4ac:	000005df 	ldrdeq	r0, [r0], -pc	; <UNPREDICTABLE>
    b4b0:	6c5f1043 	mrrcvs	0, 4, r1, pc, cr3	; <UNPREDICTABLE>
    b4b4:	d5050062 	strle	r0, [r5, #-98]	; 0xffffff9e
    b4b8:	000002b1 			; <UNDEFINED> instruction: 0x000002b1
    b4bc:	013d0b44 	teqeq	sp, r4, asr #22
    b4c0:	d8050000 	stmdale	r5, {}	; <UNPREDICTABLE>
    b4c4:	00000025 	andeq	r0, r0, r5, lsr #32
    b4c8:	014e0b4c 	cmpeq	lr, ip, asr #22
    b4cc:	d9050000 	stmdble	r5, {}	; <UNPREDICTABLE>
    b4d0:	00000076 	andeq	r0, r0, r6, ror r0
    b4d4:	0afa0b50 	beq	ffe8e21c <__bss_end__+0xffe841bc>
    b4d8:	dc050000 	stcle	0, cr0, [r5], {-0}
    b4dc:	00000424 	andeq	r0, r0, r4, lsr #8
    b4e0:	04220b54 	strteq	r0, [r2], #-2900	; 0xfffff4ac
    b4e4:	e0050000 	and	r0, r5, r0
    b4e8:	000000fa 	strdeq	r0, [r0], -sl
    b4ec:	03b60b58 			; <UNDEFINED> instruction: 0x03b60b58
    b4f0:	e2050000 	and	r0, r5, #0
    b4f4:	000000ef 	andeq	r0, r0, pc, ror #1
    b4f8:	027b0b5c 	rsbseq	r0, fp, #92, 22	; 0x17000
    b4fc:	e3050000 	movw	r0, #20480	; 0x5000
    b500:	00000025 	andeq	r0, r0, r5, lsr #32
    b504:	25140064 	ldrcs	r0, [r4, #-100]	; 0xffffff9c
    b508:	24000000 	strcs	r0, [r0], #-0
    b50c:	15000004 	strne	r0, [r0, #-4]
    b510:	00000424 	andeq	r0, r0, r4, lsr #8
    b514:	00010515 	andeq	r0, r1, r5, lsl r5
    b518:	01071500 	tsteq	r7, r0, lsl #10
    b51c:	25150000 	ldrcs	r0, [r5, #-0]
    b520:	00000000 	andeq	r0, r0, r0
    b524:	042f040d 	strteq	r0, [pc], #-1037	; b52c <__bss_end__+0x14cc>
    b528:	240e0000 	strcs	r0, [lr], #-0
    b52c:	16000004 	strne	r0, [r0], -r4
    b530:	0000040c 	andeq	r0, r0, ip, lsl #8
    b534:	38050428 	stmdacc	r5, {r3, r5, sl}
    b538:	00056102 	andeq	r6, r5, r2, lsl #2
    b53c:	03701700 	cmneq	r0, #0, 14
    b540:	3a050000 	bcc	14b548 <__bss_end__+0x1414e8>
    b544:	00002502 	andeq	r2, r0, r2, lsl #10
    b548:	2e170000 	cdpcs	0, 1, cr0, cr7, cr0, {0}
    b54c:	05000001 	streq	r0, [r0, #-1]
    b550:	0636023f 			; <UNDEFINED> instruction: 0x0636023f
    b554:	17040000 	strne	r0, [r4, -r0]
    b558:	000001f8 	strdeq	r0, [r0], -r8
    b55c:	36023f05 	strcc	r3, [r2], -r5, lsl #30
    b560:	08000006 	stmdaeq	r0, {r1, r2}
    b564:	0001a817 	andeq	sl, r1, r7, lsl r8
    b568:	023f0500 	eorseq	r0, pc, #0, 10
    b56c:	00000636 	andeq	r0, r0, r6, lsr r6
    b570:	03d7170c 	bicseq	r1, r7, #12, 14	; 0x300000
    b574:	41050000 	mrsmi	r0, (UNDEF: 5)
    b578:	00002502 	andeq	r2, r0, r2, lsl #10
    b57c:	29171000 	ldmdbcs	r7, {ip}
    b580:	05000000 	streq	r0, [r0, #-0]
    b584:	08180242 	ldmdaeq	r8, {r1, r6, r9}
    b588:	17140000 	ldrne	r0, [r4, -r0]
    b58c:	00000ab3 			; <UNDEFINED> instruction: 0x00000ab3
    b590:	25024405 	strcs	r4, [r2, #-1029]	; 0xfffffbfb
    b594:	30000000 	andcc	r0, r0, r0
    b598:	000a2e17 	andeq	r2, sl, r7, lsl lr
    b59c:	02450500 	subeq	r0, r5, #0, 10
    b5a0:	00000585 	andeq	r0, r0, r5, lsl #11
    b5a4:	02b21734 	adcseq	r1, r2, #52, 14	; 0xd00000
    b5a8:	47050000 	strmi	r0, [r5, -r0]
    b5ac:	00002502 	andeq	r2, r0, r2, lsl #10
    b5b0:	e1173800 	tst	r7, r0, lsl #16
    b5b4:	05000003 	streq	r0, [r0, #-3]
    b5b8:	08330249 	ldmdaeq	r3!, {r0, r3, r6, r9}
    b5bc:	173c0000 	ldrne	r0, [ip, -r0]!
    b5c0:	00000257 	andeq	r0, r0, r7, asr r2
    b5c4:	77024c05 	strvc	r4, [r2, -r5, lsl #24]
    b5c8:	40000001 	andmi	r0, r0, r1
    b5cc:	0001c717 	andeq	ip, r1, r7, lsl r7
    b5d0:	024d0500 	subeq	r0, sp, #0, 10
    b5d4:	00000025 	andeq	r0, r0, r5, lsr #32
    b5d8:	05241744 	streq	r1, [r4, #-1860]!	; 0xfffff8bc
    b5dc:	4e050000 	cdpmi	0, 0, cr0, cr5, cr0, {0}
    b5e0:	00017702 	andeq	r7, r1, r2, lsl #14
    b5e4:	c4174800 	ldrgt	r4, [r7], #-2048	; 0xfffff800
    b5e8:	05000002 	streq	r0, [r0, #-2]
    b5ec:	0839024f 	ldmdaeq	r9!, {r0, r1, r2, r3, r6, r9}
    b5f0:	174c0000 	strbne	r0, [ip, -r0]
    b5f4:	00000200 	andeq	r0, r0, r0, lsl #4
    b5f8:	25025205 	strcs	r5, [r2, #-517]	; 0xfffffdfb
    b5fc:	50000000 	andpl	r0, r0, r0
    b600:	00014617 	andeq	r4, r1, r7, lsl r6
    b604:	02530500 	subseq	r0, r3, #0, 10
    b608:	00000107 	andeq	r0, r0, r7, lsl #2
    b60c:	02ea1754 	rsceq	r1, sl, #84, 14	; 0x1500000
    b610:	76050000 	strvc	r0, [r5], -r0
    b614:	0007f602 	andeq	pc, r7, r2, lsl #12
    b618:	aa185800 	bge	621620 <__bss_end__+0x6175c0>
    b61c:	05000002 	streq	r0, [r0, #-2]
    b620:	0294027a 	addseq	r0, r4, #-1610612729	; 0xa0000007
    b624:	01480000 	mrseq	r0, (UNDEF: 72)
    b628:	00023518 	andeq	r3, r2, r8, lsl r5
    b62c:	027b0500 	rsbseq	r0, fp, #0, 10
    b630:	00000256 	andeq	r0, r0, r6, asr r2
    b634:	d018014c 	andsle	r0, r8, ip, asr #2
    b638:	05000004 	streq	r0, [r0, #-4]
    b63c:	084a027f 	stmdaeq	sl, {r0, r1, r2, r3, r4, r5, r6, r9}^
    b640:	02dc0000 	sbcseq	r0, ip, #0
    b644:	00011718 	andeq	r1, r1, r8, lsl r7
    b648:	02840500 	addeq	r0, r4, #0, 10
    b64c:	000005fb 	strdeq	r0, [r0], -fp
    b650:	fc1802e0 	ldc2	2, cr0, [r8], {224}	; 0xe0
    b654:	05000000 	streq	r0, [r0, #-0]
    b658:	08560285 	ldmdaeq	r6, {r0, r2, r7, r9}^
    b65c:	02ec0000 	rsceq	r0, ip, #0
    b660:	06040d00 	streq	r0, [r4], -r0, lsl #26
    b664:	14000004 	strne	r0, [r0], #-4
    b668:	00000025 	andeq	r0, r0, r5, lsr #32
    b66c:	00000585 	andeq	r0, r0, r5, lsl #11
    b670:	00042415 	andeq	r2, r4, r5, lsl r4
    b674:	01051500 	tsteq	r5, r0, lsl #10
    b678:	85150000 	ldrhi	r0, [r5, #-0]
    b67c:	15000005 	strne	r0, [r0, #-5]
    b680:	00000025 	andeq	r0, r0, r5, lsr #32
    b684:	14040d00 	strne	r0, [r4], #-3328	; 0xfffff300
    b688:	0d000001 	stceq	0, cr0, [r0, #-4]
    b68c:	00056704 	andeq	r6, r5, r4, lsl #14
    b690:	00811400 	addeq	r1, r1, r0, lsl #8
    b694:	05af0000 	streq	r0, [pc, #0]!	; b69c <__bss_end__+0x163c>
    b698:	24150000 	ldrcs	r0, [r5], #-0
    b69c:	15000004 	strne	r0, [r0, #-4]
    b6a0:	00000105 	andeq	r0, r0, r5, lsl #2
    b6a4:	00008115 	andeq	r8, r0, r5, lsl r1
    b6a8:	00251500 	eoreq	r1, r5, r0, lsl #10
    b6ac:	0d000000 	stceq	0, cr0, [r0, #-0]
    b6b0:	00059104 	andeq	r9, r5, r4, lsl #2
    b6b4:	00251400 	eoreq	r1, r5, r0, lsl #8
    b6b8:	05c90000 	strbeq	r0, [r9]
    b6bc:	24150000 	ldrcs	r0, [r5], #-0
    b6c0:	15000004 	strne	r0, [r0, #-4]
    b6c4:	00000105 	andeq	r0, r0, r5, lsl #2
    b6c8:	b5040d00 	strlt	r0, [r4, #-3328]	; 0xfffff300
    b6cc:	08000005 	stmdaeq	r0, {r0, r2}
    b6d0:	0000004f 	andeq	r0, r0, pc, asr #32
    b6d4:	000005df 	ldrdeq	r0, [r0], -pc	; <UNPREDICTABLE>
    b6d8:	0000c709 	andeq	ip, r0, r9, lsl #14
    b6dc:	08000200 	stmdaeq	r0, {r9}
    b6e0:	0000004f 	andeq	r0, r0, pc, asr #32
    b6e4:	000005ef 	andeq	r0, r0, pc, ror #11
    b6e8:	0000c709 	andeq	ip, r0, r9, lsl #14
    b6ec:	05000000 	streq	r0, [r0, #-0]
    b6f0:	0000039c 	muleq	r0, ip, r3
    b6f4:	dc011d05 	stcle	13, cr1, [r1], {5}
    b6f8:	19000002 	stmdbne	r0, {r1}
    b6fc:	000004b7 			; <UNDEFINED> instruction: 0x000004b7
    b700:	0121050c 			; <UNDEFINED> instruction: 0x0121050c
    b704:	00000630 	andeq	r0, r0, r0, lsr r6
    b708:	0003c417 	andeq	ip, r3, r7, lsl r4
    b70c:	01230500 			; <UNDEFINED> instruction: 0x01230500
    b710:	00000630 	andeq	r0, r0, r0, lsr r6
    b714:	021b1700 	andseq	r1, fp, #0, 14
    b718:	24050000 	strcs	r0, [r5], #-0
    b71c:	00002501 	andeq	r2, r0, r1, lsl #10
    b720:	96170400 	ldrls	r0, [r7], -r0, lsl #8
    b724:	05000003 	streq	r0, [r0, #-3]
    b728:	06360125 	ldrteq	r0, [r6], -r5, lsr #2
    b72c:	00080000 	andeq	r0, r8, r0
    b730:	05fb040d 	ldrbeq	r0, [fp, #1037]!	; 0x40d
    b734:	040d0000 	streq	r0, [sp], #-0
    b738:	000005ef 	andeq	r0, r0, pc, ror #11
    b73c:	00002119 	andeq	r2, r0, r9, lsl r1
    b740:	3d050e00 	stccc	14, cr0, [r5, #-0]
    b744:	00067101 	andeq	r7, r6, r1, lsl #2
    b748:	04131700 	ldreq	r1, [r3], #-1792	; 0xfffff900
    b74c:	3e050000 	cdpcc	0, 0, cr0, cr5, cr0, {0}
    b750:	00067101 	andeq	r7, r6, r1, lsl #2
    b754:	47170000 	ldrmi	r0, [r7, -r0]
    b758:	05000004 	streq	r0, [r0, #-4]
    b75c:	0671013f 			; <UNDEFINED> instruction: 0x0671013f
    b760:	17060000 	strne	r0, [r6, -r0]
    b764:	00000463 	andeq	r0, r0, r3, ror #8
    b768:	56014005 	strpl	r4, [r1], -r5
    b76c:	0c000000 	stceq	0, cr0, [r0], {-0}
    b770:	00560800 	subseq	r0, r6, r0, lsl #16
    b774:	06810000 	streq	r0, [r1], r0
    b778:	c7090000 	strgt	r0, [r9, -r0]
    b77c:	02000000 	andeq	r0, r0, #0
    b780:	05d01a00 	ldrbeq	r1, [r0, #2560]	; 0xa00
    b784:	07820257 			; <UNDEFINED> instruction: 0x07820257
    b788:	9b170000 	blls	5cb790 <__bss_end__+0x5c1730>
    b78c:	05000004 	streq	r0, [r0, #-4]
    b790:	002c0259 	eoreq	r0, ip, r9, asr r2
    b794:	17000000 	strne	r0, [r0, -r0]
    b798:	0000044d 	andeq	r0, r0, sp, asr #8
    b79c:	07025a05 	streq	r5, [r2, -r5, lsl #20]
    b7a0:	04000001 	streq	r0, [r0], #-1
    b7a4:	00024a17 	andeq	r4, r2, r7, lsl sl
    b7a8:	025b0500 	subseq	r0, fp, #0, 10
    b7ac:	00000782 	andeq	r0, r0, r2, lsl #15
    b7b0:	04fb1708 	ldrbteq	r1, [fp], #1800	; 0x708
    b7b4:	5c050000 	stcpl	0, cr0, [r5], {-0}
    b7b8:	00018d02 	andeq	r8, r1, r2, lsl #26
    b7bc:	b8172400 	ldmdalt	r7, {sl, sp}
    b7c0:	05000001 	streq	r0, [r0, #-1]
    b7c4:	0025025d 	eoreq	r0, r5, sp, asr r2
    b7c8:	17480000 	strbne	r0, [r8, -r0]
    b7cc:	000003bf 			; <UNDEFINED> instruction: 0x000003bf
    b7d0:	64025e05 	strvs	r5, [r2], #-3589	; 0xfffff1fb
    b7d4:	50000000 	andpl	r0, r0, r0
    b7d8:	00051117 	andeq	r1, r5, r7, lsl r1
    b7dc:	025f0500 	subseq	r0, pc, #0, 10
    b7e0:	0000063c 	andeq	r0, r0, ip, lsr r6
    b7e4:	03ca1758 	biceq	r1, sl, #88, 14	; 0x1600000
    b7e8:	60050000 	andvs	r0, r5, r0
    b7ec:	0000ef02 	andeq	lr, r0, r2, lsl #30
    b7f0:	16176800 	ldrne	r6, [r7], -r0, lsl #16
    b7f4:	05000005 	streq	r0, [r0, #-5]
    b7f8:	00ef0261 	rsceq	r0, pc, r1, ror #4
    b7fc:	17700000 	ldrbne	r0, [r0, -r0]!
    b800:	000002ce 	andeq	r0, r0, lr, asr #5
    b804:	ef026205 	svc	0x00026205
    b808:	78000000 	stmdavc	r0, {}	; <UNPREDICTABLE>
    b80c:	0004c617 	andeq	ip, r4, r7, lsl r6
    b810:	02630500 	rsbeq	r0, r3, #0, 10
    b814:	00000792 	muleq	r0, r2, r7
    b818:	023e1780 	eorseq	r1, lr, #128, 14	; 0x2000000
    b81c:	64050000 	strvs	r0, [r5], #-0
    b820:	0007a202 	andeq	sl, r7, r2, lsl #4
    b824:	70178800 	andsvc	r8, r7, r0, lsl #16
    b828:	05000004 	streq	r0, [r0, #-4]
    b82c:	00250265 	eoreq	r0, r5, r5, ror #4
    b830:	17a00000 	strne	r0, [r0, r0]!
    b834:	0000017e 	andeq	r0, r0, lr, ror r1
    b838:	ef026605 	svc	0x00026605
    b83c:	a4000000 	strge	r0, [r0], #-0
    b840:	00008f17 	andeq	r8, r0, r7, lsl pc
    b844:	02670500 	rsbeq	r0, r7, #0, 10
    b848:	000000ef 	andeq	r0, r0, pc, ror #1
    b84c:	016d17ac 	cmneq	sp, ip, lsr #15
    b850:	68050000 	stmdavs	r5, {}	; <UNPREDICTABLE>
    b854:	0000ef02 	andeq	lr, r0, r2, lsl #30
    b858:	3c17b400 	cfldrscc	mvf11, [r7], {-0}
    b85c:	05000000 	streq	r0, [r0, #-0]
    b860:	00ef0269 	rsceq	r0, pc, r9, ror #4
    b864:	17bc0000 	ldrne	r0, [ip, r0]!
    b868:	0000004b 	andeq	r0, r0, fp, asr #32
    b86c:	ef026a05 	svc	0x00026a05
    b870:	c4000000 	strgt	r0, [r0], #-0
    b874:	00036e17 	andeq	r6, r3, r7, lsl lr
    b878:	026b0500 	rsbeq	r0, fp, #0, 10
    b87c:	00000025 	andeq	r0, r0, r5, lsr #32
    b880:	0d0800cc 	stceq	0, cr0, [r8, #-816]	; 0xfffffcd0
    b884:	92000001 	andls	r0, r0, #1
    b888:	09000007 	stmdbeq	r0, {r0, r1, r2}
    b88c:	000000c7 	andeq	r0, r0, r7, asr #1
    b890:	0d080019 	stceq	0, cr0, [r8, #-100]	; 0xffffff9c
    b894:	a2000001 	andge	r0, r0, #1
    b898:	09000007 	stmdbeq	r0, {r0, r1, r2}
    b89c:	000000c7 	andeq	r0, r0, r7, asr #1
    b8a0:	0d080007 	stceq	0, cr0, [r8, #-28]	; 0xffffffe4
    b8a4:	b2000001 	andlt	r0, r0, #1
    b8a8:	09000007 	stmdbeq	r0, {r0, r1, r2}
    b8ac:	000000c7 	andeq	r0, r0, r7, asr #1
    b8b0:	f01a0017 			; <UNDEFINED> instruction: 0xf01a0017
    b8b4:	d6027005 	strle	r7, [r2], -r5
    b8b8:	17000007 	strne	r0, [r0, -r7]
    b8bc:	0000029a 	muleq	r0, sl, r2
    b8c0:	d6027305 	strle	r7, [r2], -r5, lsl #6
    b8c4:	00000007 	andeq	r0, r0, r7
    b8c8:	0004bd17 	andeq	fp, r4, r7, lsl sp
    b8cc:	02740500 	rsbseq	r0, r4, #0, 10
    b8d0:	000007e6 	andeq	r0, r0, r6, ror #15
    b8d4:	d6080078 			; <UNDEFINED> instruction: 0xd6080078
    b8d8:	e6000002 	str	r0, [r0], -r2
    b8dc:	09000007 	stmdbeq	r0, {r0, r1, r2}
    b8e0:	000000c7 	andeq	r0, r0, r7, asr #1
    b8e4:	2c08001d 	stccs	0, cr0, [r8], {29}
    b8e8:	f6000000 			; <UNDEFINED> instruction: 0xf6000000
    b8ec:	09000007 	stmdbeq	r0, {r0, r1, r2}
    b8f0:	000000c7 	andeq	r0, r0, r7, asr #1
    b8f4:	f01b001d 			; <UNDEFINED> instruction: 0xf01b001d
    b8f8:	18025505 	stmdane	r2, {r0, r2, r8, sl, ip, lr}
    b8fc:	1c000008 	stcne	0, cr0, [r0], {8}
    b900:	0000040c 	andeq	r0, r0, ip, lsl #8
    b904:	81026c05 	tsthi	r2, r5, lsl #24
    b908:	1c000006 	stcne	0, cr0, [r0], {6}
    b90c:	000004e8 	andeq	r0, r0, r8, ror #9
    b910:	b2027505 	andlt	r7, r2, #20971520	; 0x1400000
    b914:	00000007 	andeq	r0, r0, r7
    b918:	00010d08 	andeq	r0, r1, r8, lsl #26
    b91c:	00082800 	andeq	r2, r8, r0, lsl #16
    b920:	00c70900 	sbceq	r0, r7, r0, lsl #18
    b924:	00180000 	andseq	r0, r8, r0
    b928:	0008331d 	andeq	r3, r8, sp, lsl r3
    b92c:	04241500 	strteq	r1, [r4], #-1280	; 0xfffffb00
    b930:	0d000000 	stceq	0, cr0, [r0, #-0]
    b934:	00082804 	andeq	r2, r8, r4, lsl #16
    b938:	77040d00 	strvc	r0, [r4, -r0, lsl #26]
    b93c:	1d000001 	stcne	0, cr0, [r0, #-4]
    b940:	0000084a 	andeq	r0, r0, sl, asr #16
    b944:	00002515 	andeq	r2, r0, r5, lsl r5
    b948:	040d0000 	streq	r0, [sp], #-0
    b94c:	00000850 	andeq	r0, r0, r0, asr r8
    b950:	083f040d 	ldmdaeq	pc!, {r0, r2, r3, sl}	; <UNPREDICTABLE>
    b954:	ef080000 	svc	0x00080000
    b958:	66000005 	strvs	r0, [r0], -r5
    b95c:	09000008 	stmdbeq	r0, {r3}
    b960:	000000c7 	andeq	r0, r0, r7, asr #1
    b964:	841e0002 	ldrhi	r0, [lr], #-2
    b968:	05000004 	streq	r0, [r0, #-4]
    b96c:	042402fd 	strteq	r0, [r4], #-765	; 0xfffffd03
    b970:	7d1e0000 	ldcvc	0, cr0, [lr, #-0]
    b974:	05000004 	streq	r0, [r0, #-4]
    b978:	042a02fe 	strteq	r0, [sl], #-766	; 0xfffffd02
    b97c:	25140000 	ldrcs	r0, [r4, #-0]
    b980:	8d000000 	stchi	0, cr0, [r0, #-0]
    b984:	15000008 	strne	r0, [r0, #-8]
    b988:	00000025 	andeq	r0, r0, r5, lsr #32
    b98c:	01d11f00 	bicseq	r1, r1, r0, lsl #30
    b990:	1d060000 	stcne	0, cr0, [r6, #-0]
    b994:	00000898 	muleq	r0, r8, r8
    b998:	087e040d 	ldmdaeq	lr!, {r0, r2, r3, sl}^
    b99c:	25140000 	ldrcs	r0, [r4, #-0]
    b9a0:	ad000000 	stcge	0, cr0, [r0, #-0]
    b9a4:	15000008 	strne	r0, [r0, #-8]
    b9a8:	00000585 	andeq	r0, r0, r5, lsl #11
    b9ac:	07731f00 	ldrbeq	r1, [r3, -r0, lsl #30]!
    b9b0:	22060000 	andcs	r0, r6, #0
    b9b4:	000008b8 			; <UNDEFINED> instruction: 0x000008b8
    b9b8:	089e040d 	ldmeq	lr, {r0, r2, r3, sl}
    b9bc:	08030000 	stmdaeq	r3, {}	; <UNPREDICTABLE>
    b9c0:	000be604 	andeq	lr, fp, r4, lsl #12
    b9c4:	0c1e1f00 	ldceq	15, cr1, [lr], {-0}
    b9c8:	0d010000 	stceq	0, cr0, [r1, #-0]
    b9cc:	0000010d 	andeq	r0, r0, sp, lsl #2
    b9d0:	00066320 	andeq	r6, r6, r0, lsr #6
    b9d4:	070e0100 	streq	r0, [lr, -r0, lsl #2]
    b9d8:	05000001 	streq	r0, [r0, #-1]
    b9dc:	00969c03 	addseq	r9, r6, r3, lsl #24
    b9e0:	0c352000 	ldceq	0, cr2, [r5], #-0
    b9e4:	0f010000 	svceq	0x00010000
    b9e8:	00000107 	andeq	r0, r0, r7, lsl #2
    b9ec:	96a00305 	strtls	r0, [r0], r5, lsl #6
    b9f0:	f7210000 			; <UNDEFINED> instruction: 0xf7210000
    b9f4:	0100000b 	tsteq	r0, fp
    b9f8:	00966838 	addseq	r6, r6, r8, lsr r8
    b9fc:	00001000 	andeq	r1, r0, r0
    ba00:	139c0100 	orrsne	r0, ip, #0, 2
    ba04:	22000009 	andcs	r0, r0, #9
    ba08:	38010070 	stmdacc	r1, {r4, r5, r6}
    ba0c:	00000105 	andeq	r0, r0, r5, lsl #2
    ba10:	23005001 	movwcs	r5, #1
    ba14:	00000bed 	andeq	r0, r0, sp, ror #23
    ba18:	96543701 	ldrbls	r3, [r4], -r1, lsl #14
    ba1c:	00140000 	andseq	r0, r4, r0
    ba20:	9c010000 	stcls	0, cr0, [r1], {-0}
    ba24:	00027521 	andeq	r7, r2, r1, lsr #10
    ba28:	50360100 	eorspl	r0, r6, r0, lsl #2
    ba2c:	04000096 	streq	r0, [r0], #-150	; 0xffffff6a
    ba30:	01000000 	mrseq	r0, (UNDEF: 0)
    ba34:	0009459c 	muleq	r9, ip, r5
    ba38:	00702200 	rsbseq	r2, r0, r0, lsl #4
    ba3c:	01053601 	tsteq	r5, r1, lsl #12
    ba40:	50010000 	andpl	r0, r1, r0
    ba44:	0bd62400 	bleq	ff594a4c <__bss_end__+0xff58a9ec>
    ba48:	29010000 	stmdbcs	r1, {}	; <UNPREDICTABLE>
    ba4c:	00000105 	andeq	r0, r0, r5, lsl #2
    ba50:	000095c4 	andeq	r9, r0, r4, asr #11
    ba54:	0000008c 	andeq	r0, r0, ip, lsl #1
    ba58:	0a309c01 	beq	c32a64 <__bss_end__+0xc28a04>
    ba5c:	8a250000 	bhi	94ba64 <__bss_end__+0x941a04>
    ba60:	01000006 	tsteq	r0, r6
    ba64:	00002c29 	andeq	r2, r0, r9, lsr #24
    ba68:	0015a900 	andseq	sl, r5, r0, lsl #18
    ba6c:	0c142500 	cfldr32eq	mvfx2, [r4], {-0}
    ba70:	29010000 	stmdbcs	r1, {}	; <UNPREDICTABLE>
    ba74:	0000002c 	andeq	r0, r0, ip, lsr #32
    ba78:	000015fc 	strdeq	r1, [r0], -ip
    ba7c:	00020e26 	andeq	r0, r2, r6, lsr #28
    ba80:	000a4000 	andeq	r4, sl, r0
    ba84:	50030500 	andpl	r0, r3, r0, lsl #10
    ba88:	2700009b 			; <UNDEFINED> instruction: 0x2700009b
    ba8c:	2e010068 	cdpcs	0, 0, cr0, cr1, cr8, {3}
    ba90:	0000002c 	andeq	r0, r0, ip, lsr #32
    ba94:	00001643 	andeq	r1, r0, r3, asr #12
    ba98:	00960028 	addseq	r0, r6, r8, lsr #32
    ba9c:	000a7900 	andeq	r7, sl, r0, lsl #18
    baa0:	0009ad00 	andeq	sl, r9, r0, lsl #26
    baa4:	50012900 	andpl	r2, r1, r0, lsl #18
    baa8:	5001f303 	andpl	pc, r1, r3, lsl #6
    baac:	96082a00 	strls	r2, [r8], -r0, lsl #20
    bab0:	0bfb0000 	bleq	ffecbab8 <__bss_end__+0xffec1a58>
    bab4:	1c280000 	stcne	0, cr0, [r8], #-0
    bab8:	06000096 			; <UNDEFINED> instruction: 0x06000096
    babc:	e500000c 	str	r0, [r0, #-12]
    bac0:	29000009 	stmdbcs	r0, {r0, r3}
    bac4:	03055001 	movweq	r5, #20481	; 0x5001
    bac8:	00009b9c 	muleq	r0, ip, fp
    bacc:	05510129 	ldrbeq	r0, [r1, #-297]	; 0xfffffed7
    bad0:	009b6003 	addseq	r6, fp, r3
    bad4:	52012900 	andpl	r2, r1, #0, 18
    bad8:	9b500305 	blls	140c6f4 <__bss_end__+0x1402694>
    badc:	01290000 			; <UNDEFINED> instruction: 0x01290000
    bae0:	2a080253 	bcs	20c434 <__bss_end__+0x2023d4>
    bae4:	96202a00 	strtls	r2, [r0], -r0, lsl #20
    bae8:	0c110000 	ldceq	0, cr0, [r1], {-0}
    baec:	242a0000 	strtcs	r0, [sl], #-0
    baf0:	fb000096 	blx	bd52 <__bss_end__+0x1cf2>
    baf4:	2800000b 	stmdacs	r0, {r0, r1, r3}
    baf8:	00009638 	andeq	r9, r0, r8, lsr r6
    bafc:	00000c06 	andeq	r0, r0, r6, lsl #24
    bb00:	00000a26 	andeq	r0, r0, r6, lsr #20
    bb04:	05500129 	ldrbeq	r0, [r0, #-297]	; 0xfffffed7
    bb08:	009bfc03 	addseq	pc, fp, r3, lsl #24
    bb0c:	51012900 	tstpl	r1, r0, lsl #18
    bb10:	9b600305 	blls	180c72c <__bss_end__+0x18026cc>
    bb14:	01290000 			; <UNDEFINED> instruction: 0x01290000
    bb18:	50030552 	andpl	r0, r3, r2, asr r5
    bb1c:	2900009b 	stmdbcs	r0, {r0, r1, r3, r4, r7}
    bb20:	08025301 	stmdaeq	r2, {r0, r8, r9, ip, lr}
    bb24:	3c2a0030 	stccc	0, cr0, [sl], #-192	; 0xffffff40
    bb28:	11000096 	swpne	r0, r6, [r0]	; <UNPREDICTABLE>
    bb2c:	0000000c 	andeq	r0, r0, ip
    bb30:	00011408 	andeq	r1, r1, r8, lsl #8
    bb34:	000a4000 	andeq	r4, sl, r0
    bb38:	00c70900 	sbceq	r0, r7, r0, lsl #18
    bb3c:	000f0000 	andeq	r0, pc, r0
    bb40:	000a300e 	andeq	r3, sl, lr
    bb44:	0c032400 	cfstrseq	mvf2, [r3], {-0}
    bb48:	25010000 	strcs	r0, [r1, #-0]
    bb4c:	00000105 	andeq	r0, r0, r5, lsl #2
    bb50:	000095b8 			; <UNDEFINED> instruction: 0x000095b8
    bb54:	0000000c 	andeq	r0, r0, ip
    bb58:	0a689c01 	beq	1a32b64 <__bss_end__+0x1a28b04>
    bb5c:	c02a0000 	eorgt	r0, sl, r0
    bb60:	d1000095 	swple	r0, r5, [r0]	; <UNPREDICTABLE>
    bb64:	0000000b 	andeq	r0, r0, fp
    bb68:	000bc923 	andeq	ip, fp, r3, lsr #18
    bb6c:	b4240100 	strtlt	r0, [r4], #-256	; 0xffffff00
    bb70:	04000095 	streq	r0, [r0], #-149	; 0xffffff6b
    bb74:	01000000 	mrseq	r0, (UNDEF: 0)
    bb78:	04da249c 	ldrbeq	r2, [sl], #1180	; 0x49c
    bb7c:	1a010000 	bne	4bb84 <__bss_end__+0x41b24>
    bb80:	00000105 	andeq	r0, r0, r5, lsl #2
    bb84:	00009550 	andeq	r9, r0, r0, asr r5
    bb88:	00000064 	andeq	r0, r0, r4, rrx
    bb8c:	0b249c01 	bleq	932b98 <__bss_end__+0x928b38>
    bb90:	732b0000 			; <UNDEFINED> instruction: 0x732b0000
    bb94:	1a01007a 	bne	4bd84 <__bss_end__+0x41d24>
    bb98:	0000002c 	andeq	r0, r0, ip, lsr #32
    bb9c:	0000167b 	andeq	r1, r0, fp, ror r6
    bba0:	00020e26 	andeq	r0, r2, r6, lsr #28
    bba4:	000b3400 	andeq	r3, fp, r0, lsl #8
    bba8:	48030500 	stmdami	r3, {r8, sl}
    bbac:	2c00009b 	stccs	0, cr0, [r0], {155}	; 0x9b
    bbb0:	00000c41 	andeq	r0, r0, r1, asr #24
    bbb4:	01051e01 	tsteq	r5, r1, lsl #28
    bbb8:	16c50000 	strbne	r0, [r5], r0
    bbbc:	80280000 	eorhi	r0, r8, r0
    bbc0:	1c000095 	stcne	0, cr0, [r0], {149}	; 0x95
    bbc4:	e300000c 	movw	r0, #12
    bbc8:	2900000a 	stmdbcs	r0, {r1, r3}
    bbcc:	74025001 	strvc	r5, [r2], #-1
    bbd0:	51012900 	tstpl	r1, r0, lsl #18
    bbd4:	01293001 			; <UNDEFINED> instruction: 0x01293001
    bbd8:	01f30852 	mvnseq	r0, r2, asr r8
    bbdc:	09072350 	stmdbeq	r7, {r4, r6, r8, r9, sp}
    bbe0:	2a001af8 	bcs	127c8 <__bss_end__+0x8768>
    bbe4:	0000958c 	andeq	r9, r0, ip, lsl #11
    bbe8:	00000bfb 	strdeq	r0, [r0], -fp
    bbec:	0095a028 	addseq	sl, r5, r8, lsr #32
    bbf0:	000c0600 	andeq	r0, ip, r0, lsl #12
    bbf4:	000b1a00 	andeq	r1, fp, r0, lsl #20
    bbf8:	50012900 	andpl	r2, r1, r0, lsl #18
    bbfc:	9b880305 	blls	fe20c818 <__bss_end__+0xfe2027b8>
    bc00:	01290000 			; <UNDEFINED> instruction: 0x01290000
    bc04:	60030551 	andvs	r0, r3, r1, asr r5
    bc08:	2900009b 	stmdbcs	r0, {r0, r1, r3, r4, r7}
    bc0c:	03055201 	movweq	r5, #20993	; 0x5201
    bc10:	00009b48 	andeq	r9, r0, r8, asr #22
    bc14:	01530129 	cmpeq	r3, r9, lsr #2
    bc18:	a42a004b 	strtge	r0, [sl], #-75	; 0xffffffb5
    bc1c:	11000095 	swpne	r0, r5, [r0]	; <UNPREDICTABLE>
    bc20:	0000000c 	andeq	r0, r0, ip
    bc24:	00011408 	andeq	r1, r1, r8, lsl #8
    bc28:	000b3400 	andeq	r3, fp, r0, lsl #8
    bc2c:	00c70900 	sbceq	r0, r7, r0, lsl #18
    bc30:	00070000 	andeq	r0, r7, r0
    bc34:	000b240e 	andeq	r2, fp, lr, lsl #8
    bc38:	01562100 	cmpeq	r6, r0, lsl #2
    bc3c:	14010000 	strne	r0, [r1], #-0
    bc40:	00009500 	andeq	r9, r0, r0, lsl #10
    bc44:	00000050 	andeq	r0, r0, r0, asr r0
    bc48:	0bbc9c01 	bleq	fef32c54 <__bss_end__+0xfef28bf4>
    bc4c:	40250000 	eormi	r0, r5, r0
    bc50:	0100000c 	tsteq	r0, ip
    bc54:	00002c14 	andeq	r2, r0, r4, lsl ip
    bc58:	0016d800 	andseq	sp, r6, r0, lsl #16
    bc5c:	0c412c00 	mcrreq	12, 0, r2, r1, cr0
    bc60:	15010000 	strne	r0, [r1, #-0]
    bc64:	00000107 	andeq	r0, r0, r7, lsl #2
    bc68:	000016f9 	strdeq	r1, [r0], -r9
    bc6c:	00020e26 	andeq	r0, r2, r6, lsr #28
    bc70:	000bcc00 	andeq	ip, fp, r0, lsl #24
    bc74:	30030500 	andcc	r0, r3, r0, lsl #10
    bc78:	2a00009b 	bcs	beec <__bss_end__+0x1e8c>
    bc7c:	00009528 	andeq	r9, r0, r8, lsr #10
    bc80:	00000bfb 	strdeq	r0, [r0], -fp
    bc84:	00953c28 	addseq	r3, r5, r8, lsr #24
    bc88:	000c0600 	andeq	r0, ip, r0, lsl #12
    bc8c:	000bb200 	andeq	fp, fp, r0, lsl #4
    bc90:	50012900 	andpl	r2, r1, r0, lsl #18
    bc94:	9b6c0305 	blls	1b0c8b0 <__bss_end__+0x1b02850>
    bc98:	01290000 			; <UNDEFINED> instruction: 0x01290000
    bc9c:	60030551 	andvs	r0, r3, r1, asr r5
    bca0:	2900009b 	stmdbcs	r0, {r0, r1, r3, r4, r7}
    bca4:	03055201 	movweq	r5, #20993	; 0x5201
    bca8:	00009b30 	andeq	r9, r0, r0, lsr fp
    bcac:	01530129 	cmpeq	r3, r9, lsr #2
    bcb0:	402a0046 	eormi	r0, sl, r6, asr #32
    bcb4:	11000095 	swpne	r0, r5, [r0]	; <UNPREDICTABLE>
    bcb8:	0000000c 	andeq	r0, r0, ip
    bcbc:	00011408 	andeq	r1, r1, r8, lsl #8
    bcc0:	000bcc00 	andeq	ip, fp, r0, lsl #24
    bcc4:	00c70900 	sbceq	r0, r7, r0, lsl #18
    bcc8:	00160000 	andseq	r0, r6, r0
    bccc:	000bbc0e 	andeq	fp, fp, lr, lsl #24
    bcd0:	0c2d2d00 	stceq	13, cr2, [sp], #-0
    bcd4:	12010000 	andne	r0, r1, #0
    bcd8:	00000105 	andeq	r0, r0, r5, lsl #2
    bcdc:	000094f4 	strdeq	r9, [r0], -r4
    bce0:	0000000c 	andeq	r0, r0, ip
    bce4:	462d9c01 	strtmi	r9, [sp], -r1, lsl #24
    bce8:	0100000c 	tsteq	r0, ip
    bcec:	00010511 	andeq	r0, r1, r1, lsl r5
    bcf0:	0094e400 	addseq	lr, r4, r0, lsl #8
    bcf4:	00001000 	andeq	r1, r0, r0
    bcf8:	2e9c0100 	fmlcse	f0, f4, f0
    bcfc:	000001e9 	andeq	r0, r0, r9, ror #3
    bd00:	000001e9 	andeq	r0, r0, r9, ror #3
    bd04:	0a2e1e06 	beq	b93524 <__bss_end__+0xb894c4>
    bd08:	0a000007 	beq	bd2c <__bss_end__+0x1ccc>
    bd0c:	06000007 	streq	r0, [r0], -r7
    bd10:	028d2e29 	addeq	r2, sp, #656	; 0x290
    bd14:	028d0000 	addeq	r0, sp, #0
    bd18:	65060000 	strvs	r0, [r6, #-0]
    bd1c:	00067d2e 	andeq	r7, r6, lr, lsr #26
    bd20:	00067d00 	andeq	r7, r6, r0, lsl #26
    bd24:	00190700 	andseq	r0, r9, r0, lsl #14

Disassembly of section .debug_abbrev:

00000000 <.debug_abbrev>:
       0:	25011101 	strcs	r1, [r1, #-257]	; 0xfffffeff
       4:	030b130e 	movweq	r1, #45838	; 0xb30e
       8:	110e1b0e 	tstne	lr, lr, lsl #22
       c:	10061201 	andne	r1, r6, r1, lsl #4
      10:	02000017 	andeq	r0, r0, #23
      14:	0b0b0024 	bleq	2c00ac <__bss_end__+0x2b604c>
      18:	08030b3e 	stmdaeq	r3, {r1, r2, r3, r4, r5, r8, r9, fp}
      1c:	24030000 	strcs	r0, [r3], #-0
      20:	3e0b0b00 	vmlacc.f64	d0, d11, d0
      24:	000e030b 	andeq	r0, lr, fp, lsl #6
      28:	00160400 	andseq	r0, r6, r0, lsl #8
      2c:	0b3a0e03 	bleq	e83840 <__bss_end__+0xe797e0>
      30:	0b390b3b 	bleq	e42d24 <__bss_end__+0xe38cc4>
      34:	00001349 	andeq	r1, r0, r9, asr #6
      38:	0b000f05 	bleq	3c54 <_start-0x43ac>
      3c:	0013490b 	andseq	r4, r3, fp, lsl #18
      40:	00130600 	andseq	r0, r3, r0, lsl #12
      44:	193c0e03 	ldmdbne	ip!, {r0, r1, r9, sl, fp}
      48:	16070000 	strne	r0, [r7], -r0
      4c:	3a0e0300 	bcc	380c54 <__bss_end__+0x376bf4>
      50:	39053b0b 	stmdbcc	r5, {r0, r1, r3, r8, r9, fp, ip, sp}
      54:	0013490b 	andseq	r4, r3, fp, lsl #18
      58:	01170800 	tsteq	r7, r0, lsl #16
      5c:	0b3a0b0b 	bleq	e82c90 <__bss_end__+0xe78c30>
      60:	0b390b3b 	bleq	e42d54 <__bss_end__+0xe38cf4>
      64:	00001301 	andeq	r1, r0, r1, lsl #6
      68:	03000d09 	movweq	r0, #3337	; 0xd09
      6c:	3b0b3a0e 	blcc	2ce8ac <__bss_end__+0x2c484c>
      70:	490b390b 	stmdbmi	fp, {r0, r1, r3, r8, fp, ip, sp}
      74:	0a000013 	beq	c8 <_start-0x7f38>
      78:	13490101 	movtne	r0, #37121	; 0x9101
      7c:	00001301 	andeq	r1, r0, r1, lsl #6
      80:	4900210b 	stmdbmi	r0, {r0, r1, r3, r8, sp}
      84:	000b2f13 	andeq	r2, fp, r3, lsl pc
      88:	01130c00 	tsteq	r3, r0, lsl #24
      8c:	0b3a0b0b 	bleq	e82cc0 <__bss_end__+0xe78c60>
      90:	0b390b3b 	bleq	e42d84 <__bss_end__+0xe38d24>
      94:	00001301 	andeq	r1, r0, r1, lsl #6
      98:	03000d0d 	movweq	r0, #3341	; 0xd0d
      9c:	3b0b3a0e 	blcc	2ce8dc <__bss_end__+0x2c487c>
      a0:	490b390b 	stmdbmi	fp, {r0, r1, r3, r8, fp, ip, sp}
      a4:	000b3813 	andeq	r3, fp, r3, lsl r8
      a8:	000f0e00 	andeq	r0, pc, r0, lsl #28
      ac:	00000b0b 	andeq	r0, r0, fp, lsl #22
      b0:	4900260f 	stmdbmi	r0, {r0, r1, r2, r3, r9, sl, sp}
      b4:	10000013 	andne	r0, r0, r3, lsl r0
      b8:	0e030113 	mcreq	1, 0, r0, cr3, cr3, {0}
      bc:	0b3a0b0b 	bleq	e82cf0 <__bss_end__+0xe78c90>
      c0:	0b390b3b 	bleq	e42db4 <__bss_end__+0xe38d54>
      c4:	00001301 	andeq	r1, r0, r1, lsl #6
      c8:	03000d11 	movweq	r0, #3345	; 0xd11
      cc:	3b0b3a08 	blcc	2ce8f4 <__bss_end__+0x2c4894>
      d0:	490b390b 	stmdbmi	fp, {r0, r1, r3, r8, fp, ip, sp}
      d4:	000b3813 	andeq	r3, fp, r3, lsl r8
      d8:	01131200 	tsteq	r3, r0, lsl #4
      dc:	050b0e03 	streq	r0, [fp, #-3587]	; 0xfffff1fd
      e0:	0b3b0b3a 	bleq	ec2dd0 <__bss_end__+0xeb8d70>
      e4:	13010b39 	movwne	r0, #6969	; 0x1b39
      e8:	0d130000 	ldceq	0, cr0, [r3, #-0]
      ec:	3a0e0300 	bcc	380cf4 <__bss_end__+0x376c94>
      f0:	390b3b0b 	stmdbcc	fp, {r0, r1, r3, r8, r9, fp, ip, sp}
      f4:	3813490b 	ldmdacc	r3, {r0, r1, r3, r8, fp, lr}
      f8:	14000005 	strne	r0, [r0], #-5
      fc:	19270015 	stmdbne	r7!, {r0, r2, r4}
     100:	15150000 	ldrne	r0, [r5, #-0]
     104:	49192701 	ldmdbmi	r9, {r0, r8, r9, sl, sp}
     108:	00130113 	andseq	r0, r3, r3, lsl r1
     10c:	00051600 	andeq	r1, r5, r0, lsl #12
     110:	00001349 	andeq	r1, r0, r9, asr #6
     114:	03011317 	movweq	r1, #4887	; 0x1317
     118:	3a050b0e 	bcc	142d58 <__bss_end__+0x138cf8>
     11c:	39053b0b 	stmdbcc	r5, {r0, r1, r3, r8, r9, fp, ip, sp}
     120:	0013010b 	andseq	r0, r3, fp, lsl #2
     124:	000d1800 	andeq	r1, sp, r0, lsl #16
     128:	0b3a0e03 	bleq	e8393c <__bss_end__+0xe798dc>
     12c:	0b39053b 	bleq	e41620 <__bss_end__+0xe375c0>
     130:	0b381349 	bleq	e04e5c <__bss_end__+0xdfadfc>
     134:	0d190000 	ldceq	0, cr0, [r9, #-0]
     138:	3a0e0300 	bcc	380d40 <__bss_end__+0x376ce0>
     13c:	39053b0b 	stmdbcc	r5, {r0, r1, r3, r8, r9, fp, ip, sp}
     140:	3813490b 	ldmdacc	r3, {r0, r1, r3, r8, fp, lr}
     144:	1a000005 	bne	160 <_start-0x7ea0>
     148:	0e030113 	mcreq	1, 0, r0, cr3, cr3, {0}
     14c:	0b3a0b0b 	bleq	e82d80 <__bss_end__+0xe78d20>
     150:	0b39053b 	bleq	e41644 <__bss_end__+0xe375e4>
     154:	00001301 	andeq	r1, r0, r1, lsl #6
     158:	0b01131b 	bleq	44dcc <__bss_end__+0x3ad6c>
     15c:	3b0b3a0b 	blcc	2ce990 <__bss_end__+0x2c4930>
     160:	010b3905 	tsteq	fp, r5, lsl #18
     164:	1c000013 	stcne	0, cr0, [r0], {19}
     168:	0b0b0117 	bleq	2c05cc <__bss_end__+0x2b656c>
     16c:	053b0b3a 	ldreq	r0, [fp, #-2874]!	; 0xfffff4c6
     170:	13010b39 	movwne	r0, #6969	; 0x1b39
     174:	0d1d0000 	ldceq	0, cr0, [sp, #-0]
     178:	3a0e0300 	bcc	380d80 <__bss_end__+0x376d20>
     17c:	39053b0b 	stmdbcc	r5, {r0, r1, r3, r8, r9, fp, ip, sp}
     180:	0013490b 	andseq	r4, r3, fp, lsl #18
     184:	01151e00 	tsteq	r5, r0, lsl #28
     188:	13011927 	movwne	r1, #6439	; 0x1927
     18c:	341f0000 	ldrcc	r0, [pc], #-0	; 194 <_start-0x7e6c>
     190:	3a0e0300 	bcc	380d98 <__bss_end__+0x376d38>
     194:	39053b0b 	stmdbcc	r5, {r0, r1, r3, r8, r9, fp, ip, sp}
     198:	3f13490b 	svccc	0x0013490b
     19c:	00193c19 	andseq	r3, r9, r9, lsl ip
     1a0:	00342000 	eorseq	r2, r4, r0
     1a4:	0b3a0e03 	bleq	e839b8 <__bss_end__+0xe79958>
     1a8:	0b390b3b 	bleq	e42e9c <__bss_end__+0xe38e3c>
     1ac:	193f1349 	ldmdbne	pc!, {r0, r3, r6, r8, r9, ip}	; <UNPREDICTABLE>
     1b0:	0000193c 	andeq	r1, r0, ip, lsr r9
     1b4:	3f012e21 	svccc	0x00012e21
     1b8:	3a0e0319 	bcc	380e24 <__bss_end__+0x376dc4>
     1bc:	390b3b0b 	stmdbcc	fp, {r0, r1, r3, r8, r9, fp, ip, sp}
     1c0:	1119270b 	tstne	r9, fp, lsl #14
     1c4:	40061201 	andmi	r1, r6, r1, lsl #4
     1c8:	19429718 	stmdbne	r2, {r3, r4, r8, r9, sl, ip, pc}^
     1cc:	00001301 	andeq	r1, r0, r1, lsl #6
     1d0:	03003422 	movweq	r3, #1058	; 0x422
     1d4:	3b0b3a08 	blcc	2ce9fc <__bss_end__+0x2c499c>
     1d8:	490b390b 	stmdbmi	fp, {r0, r1, r3, r8, fp, ip, sp}
     1dc:	00061c13 	andeq	r1, r6, r3, lsl ip
     1e0:	00342300 	eorseq	r2, r4, r0, lsl #6
     1e4:	0b3a0803 	bleq	e821f8 <__bss_end__+0xe78198>
     1e8:	0b390b3b 	bleq	e42edc <__bss_end__+0xe38e7c>
     1ec:	17021349 	strne	r1, [r2, -r9, asr #6]
     1f0:	001742b7 			; <UNDEFINED> instruction: 0x001742b7
     1f4:	00342400 	eorseq	r2, r4, r0, lsl #8
     1f8:	13490e03 	movtne	r0, #40451	; 0x9e03
     1fc:	18021934 	stmdane	r2, {r2, r4, r5, r8, fp, ip}
     200:	89250000 	stmdbhi	r5!, {}	; <UNPREDICTABLE>
     204:	11010182 	smlabbne	r1, r2, r1, r0
     208:	01133101 	tsteq	r3, r1, lsl #2
     20c:	26000013 			; <UNDEFINED> instruction: 0x26000013
     210:	0001828a 	andeq	r8, r1, sl, lsl #5
     214:	42911802 	addsmi	r1, r1, #131072	; 0x20000
     218:	27000018 	smladcs	r0, r8, r0, r0
     21c:	00018289 	andeq	r8, r1, r9, lsl #5
     220:	13310111 	teqne	r1, #1073741828	; 0x40000004
     224:	2e280000 	cdpcs	0, 2, cr0, cr8, cr0, {0}
     228:	3c193f00 	ldccc	15, cr3, [r9], {-0}
     22c:	030e6e19 	movweq	r6, #60953	; 0xee19
     230:	3b0b3a0e 	blcc	2cea70 <__bss_end__+0x2c4a10>
     234:	000b390b 	andeq	r3, fp, fp, lsl #18
     238:	11010000 	mrsne	r0, (UNDEF: 1)
     23c:	130e2501 	movwne	r2, #58625	; 0xe501
     240:	1b0e030b 	blne	380e74 <__bss_end__+0x376e14>
     244:	1201110e 	andne	r1, r1, #-2147483645	; 0x80000003
     248:	00171006 	andseq	r1, r7, r6
     24c:	00240200 	eoreq	r0, r4, r0, lsl #4
     250:	0b3e0b0b 	bleq	f82e84 <__bss_end__+0xf78e24>
     254:	00000803 	andeq	r0, r0, r3, lsl #16
     258:	0b002403 	bleq	926c <uart_init>
     25c:	030b3e0b 	movweq	r3, #48651	; 0xbe0b
     260:	0400000e 	streq	r0, [r0], #-14
     264:	0e030016 	mcreq	0, 0, r0, cr3, cr6, {0}
     268:	0b3b0b3a 	bleq	ec2f58 <__bss_end__+0xeb8ef8>
     26c:	13490b39 	movtne	r0, #39737	; 0x9b39
     270:	0f050000 	svceq	0x00050000
     274:	490b0b00 	stmdbmi	fp, {r8, r9, fp}
     278:	06000013 			; <UNDEFINED> instruction: 0x06000013
     27c:	0e030013 	mcreq	0, 0, r0, cr3, cr3, {0}
     280:	0000193c 	andeq	r1, r0, ip, lsr r9
     284:	03001607 	movweq	r1, #1543	; 0x607
     288:	3b0b3a0e 	blcc	2ceac8 <__bss_end__+0x2c4a68>
     28c:	490b3905 	stmdbmi	fp, {r0, r2, r8, fp, ip, sp}
     290:	08000013 	stmdaeq	r0, {r0, r1, r4}
     294:	0b0b0117 	bleq	2c06f8 <__bss_end__+0x2b6698>
     298:	0b3b0b3a 	bleq	ec2f88 <__bss_end__+0xeb8f28>
     29c:	13010b39 	movwne	r0, #6969	; 0x1b39
     2a0:	0d090000 	stceq	0, cr0, [r9, #-0]
     2a4:	3a0e0300 	bcc	380eac <__bss_end__+0x376e4c>
     2a8:	390b3b0b 	stmdbcc	fp, {r0, r1, r3, r8, r9, fp, ip, sp}
     2ac:	0013490b 	andseq	r4, r3, fp, lsl #18
     2b0:	01010a00 	tsteq	r1, r0, lsl #20
     2b4:	13011349 	movwne	r1, #4937	; 0x1349
     2b8:	210b0000 	mrscs	r0, (UNDEF: 11)
     2bc:	2f134900 	svccs	0x00134900
     2c0:	0c00000b 	stceq	0, cr0, [r0], {11}
     2c4:	0b0b0113 	bleq	2c0718 <__bss_end__+0x2b66b8>
     2c8:	0b3b0b3a 	bleq	ec2fb8 <__bss_end__+0xeb8f58>
     2cc:	13010b39 	movwne	r0, #6969	; 0x1b39
     2d0:	0d0d0000 	stceq	0, cr0, [sp, #-0]
     2d4:	3a0e0300 	bcc	380edc <__bss_end__+0x376e7c>
     2d8:	390b3b0b 	stmdbcc	fp, {r0, r1, r3, r8, r9, fp, ip, sp}
     2dc:	3813490b 	ldmdacc	r3, {r0, r1, r3, r8, fp, lr}
     2e0:	0e00000b 	cdpeq	0, 0, cr0, cr0, cr11, {0}
     2e4:	0b0b000f 	bleq	2c0328 <__bss_end__+0x2b62c8>
     2e8:	260f0000 	strcs	r0, [pc], -r0
     2ec:	00134900 	andseq	r4, r3, r0, lsl #18
     2f0:	01131000 	tsteq	r3, r0
     2f4:	0b0b0e03 	bleq	2c3b08 <__bss_end__+0x2b9aa8>
     2f8:	0b3b0b3a 	bleq	ec2fe8 <__bss_end__+0xeb8f88>
     2fc:	13010b39 	movwne	r0, #6969	; 0x1b39
     300:	0d110000 	ldceq	0, cr0, [r1, #-0]
     304:	3a080300 	bcc	200f0c <__bss_end__+0x1f6eac>
     308:	390b3b0b 	stmdbcc	fp, {r0, r1, r3, r8, r9, fp, ip, sp}
     30c:	3813490b 	ldmdacc	r3, {r0, r1, r3, r8, fp, lr}
     310:	1200000b 	andne	r0, r0, #11
     314:	0e030113 	mcreq	1, 0, r0, cr3, cr3, {0}
     318:	0b3a050b 	bleq	e8174c <__bss_end__+0xe776ec>
     31c:	0b390b3b 	bleq	e43010 <__bss_end__+0xe38fb0>
     320:	00001301 	andeq	r1, r0, r1, lsl #6
     324:	03000d13 	movweq	r0, #3347	; 0xd13
     328:	3b0b3a0e 	blcc	2ceb68 <__bss_end__+0x2c4b08>
     32c:	490b390b 	stmdbmi	fp, {r0, r1, r3, r8, fp, ip, sp}
     330:	00053813 	andeq	r3, r5, r3, lsl r8
     334:	00151400 	andseq	r1, r5, r0, lsl #8
     338:	00001927 	andeq	r1, r0, r7, lsr #18
     33c:	27011515 	smladcs	r1, r5, r5, r1
     340:	01134919 	tsteq	r3, r9, lsl r9
     344:	16000013 			; <UNDEFINED> instruction: 0x16000013
     348:	13490005 	movtne	r0, #36869	; 0x9005
     34c:	13170000 	tstne	r7, #0
     350:	0b0e0301 	bleq	380f5c <__bss_end__+0x376efc>
     354:	3b0b3a05 	blcc	2ceb70 <__bss_end__+0x2c4b10>
     358:	010b3905 	tsteq	fp, r5, lsl #18
     35c:	18000013 	stmdane	r0, {r0, r1, r4}
     360:	0e03000d 	cdpeq	0, 0, cr0, cr3, cr13, {0}
     364:	053b0b3a 	ldreq	r0, [fp, #-2874]!	; 0xfffff4c6
     368:	13490b39 	movtne	r0, #39737	; 0x9b39
     36c:	00000b38 	andeq	r0, r0, r8, lsr fp
     370:	03000d19 	movweq	r0, #3353	; 0xd19
     374:	3b0b3a0e 	blcc	2cebb4 <__bss_end__+0x2c4b54>
     378:	490b3905 	stmdbmi	fp, {r0, r2, r8, fp, ip, sp}
     37c:	00053813 	andeq	r3, r5, r3, lsl r8
     380:	01131a00 	tsteq	r3, r0, lsl #20
     384:	0b0b0e03 	bleq	2c3b98 <__bss_end__+0x2b9b38>
     388:	053b0b3a 	ldreq	r0, [fp, #-2874]!	; 0xfffff4c6
     38c:	13010b39 	movwne	r0, #6969	; 0x1b39
     390:	131b0000 	tstne	fp, #0
     394:	3a0b0b01 	bcc	2c2fa0 <__bss_end__+0x2b8f40>
     398:	39053b0b 	stmdbcc	r5, {r0, r1, r3, r8, r9, fp, ip, sp}
     39c:	0013010b 	andseq	r0, r3, fp, lsl #2
     3a0:	01171c00 	tsteq	r7, r0, lsl #24
     3a4:	0b3a0b0b 	bleq	e82fd8 <__bss_end__+0xe78f78>
     3a8:	0b39053b 	bleq	e4189c <__bss_end__+0xe3783c>
     3ac:	00001301 	andeq	r1, r0, r1, lsl #6
     3b0:	03000d1d 	movweq	r0, #3357	; 0xd1d
     3b4:	3b0b3a0e 	blcc	2cebf4 <__bss_end__+0x2c4b94>
     3b8:	490b3905 	stmdbmi	fp, {r0, r2, r8, fp, ip, sp}
     3bc:	1e000013 	mcrne	0, 0, r0, cr0, cr3, {0}
     3c0:	19270115 	stmdbne	r7!, {r0, r2, r4, r8}
     3c4:	00001301 	andeq	r1, r0, r1, lsl #6
     3c8:	0300341f 	movweq	r3, #1055	; 0x41f
     3cc:	3b0b3a0e 	blcc	2cec0c <__bss_end__+0x2c4bac>
     3d0:	490b3905 	stmdbmi	fp, {r0, r2, r8, fp, ip, sp}
     3d4:	3c193f13 	ldccc	15, cr3, [r9], {19}
     3d8:	20000019 	andcs	r0, r0, r9, lsl r0
     3dc:	0e030034 	mcreq	0, 0, r0, cr3, cr4, {1}
     3e0:	0b3b0b3a 	bleq	ec30d0 <__bss_end__+0xeb9070>
     3e4:	13490b39 	movtne	r0, #39737	; 0x9b39
     3e8:	193c193f 	ldmdbne	ip!, {r0, r1, r2, r3, r4, r5, r8, fp, ip}
     3ec:	04210000 	strteq	r0, [r1], #-0
     3f0:	0b0b3e01 	bleq	2cfbfc <__bss_end__+0x2c5b9c>
     3f4:	3a13490b 	bcc	4d2828 <__bss_end__+0x4c87c8>
     3f8:	390b3b0b 	stmdbcc	fp, {r0, r1, r3, r8, r9, fp, ip, sp}
     3fc:	0013010b 	andseq	r0, r3, fp, lsl #2
     400:	00282200 	eoreq	r2, r8, r0, lsl #4
     404:	0b1c0e03 	bleq	703c18 <__bss_end__+0x6f9bb8>
     408:	28230000 	stmdacs	r3!, {}	; <UNPREDICTABLE>
     40c:	1c0e0300 	stcne	3, cr0, [lr], {-0}
     410:	24000005 	strcs	r0, [r0], #-5
     414:	0e030034 	mcreq	0, 0, r0, cr3, cr4, {1}
     418:	0b3b0b3a 	bleq	ec3108 <__bss_end__+0xeb90a8>
     41c:	13490b39 	movtne	r0, #39737	; 0x9b39
     420:	00001802 	andeq	r1, r0, r2, lsl #16
     424:	3f012e25 	svccc	0x00012e25
     428:	3a0e0319 	bcc	381094 <__bss_end__+0x377034>
     42c:	390b3b0b 	stmdbcc	fp, {r0, r1, r3, r8, r9, fp, ip, sp}
     430:	4919270b 	ldmdbmi	r9, {r0, r1, r3, r8, r9, sl, sp}
     434:	12011113 	andne	r1, r1, #-1073741820	; 0xc0000004
     438:	97184006 	ldrls	r4, [r8, -r6]
     43c:	13011942 	movwne	r1, #6466	; 0x1942
     440:	34260000 	strtcc	r0, [r6], #-0
     444:	3a0e0300 	bcc	38104c <__bss_end__+0x376fec>
     448:	390b3b0b 	stmdbcc	fp, {r0, r1, r3, r8, r9, fp, ip, sp}
     44c:	0213490b 	andseq	r4, r3, #180224	; 0x2c000
     450:	1742b717 	smlaldne	fp, r2, r7, r7
     454:	0b270000 	bleq	9c045c <__bss_end__+0x9b63fc>
     458:	01175501 	tsteq	r7, r1, lsl #10
     45c:	28000013 	stmdacs	r0, {r0, r1, r4}
     460:	01018289 	smlabbeq	r1, r9, r2, r8
     464:	13310111 	teqne	r1, #1073741828	; 0x40000004
     468:	00001301 	andeq	r1, r0, r1, lsl #6
     46c:	01828a29 	orreq	r8, r2, r9, lsr #20
     470:	91180200 	tstls	r8, r0, lsl #4
     474:	00001842 	andeq	r1, r0, r2, asr #16
     478:	0182892a 	orreq	r8, r2, sl, lsr #18
     47c:	31011101 	tstcc	r1, r1, lsl #2
     480:	2b000013 	blcs	4d4 <_start-0x7b2c>
     484:	0e030005 	cdpeq	0, 0, cr0, cr3, cr5, {0}
     488:	0b3b0b3a 	bleq	ec3178 <__bss_end__+0xeb9118>
     48c:	13490b39 	movtne	r0, #39737	; 0x9b39
     490:	42b71702 	adcsmi	r1, r7, #524288	; 0x80000
     494:	2c000017 	stccs	0, cr0, [r0], {23}
     498:	08030034 	stmdaeq	r3, {r2, r4, r5}
     49c:	0b3b0b3a 	bleq	ec318c <__bss_end__+0xeb912c>
     4a0:	13490b39 	movtne	r0, #39737	; 0x9b39
     4a4:	42b71702 	adcsmi	r1, r7, #524288	; 0x80000
     4a8:	2d000017 	stccs	0, cr0, [r0, #-92]	; 0xffffffa4
     4ac:	0e030034 	mcreq	0, 0, r0, cr3, cr4, {1}
     4b0:	19341349 	ldmdbne	r4!, {r0, r3, r6, r8, r9, ip}
     4b4:	00001802 	andeq	r1, r0, r2, lsl #16
     4b8:	0182892e 	orreq	r8, r2, lr, lsr #18
     4bc:	31011100 	mrscc	r1, (UNDEF: 17)
     4c0:	2f000013 	svccs	0x00000013
     4c4:	193f012e 	ldmdbne	pc!, {r1, r2, r3, r5, r8}	; <UNPREDICTABLE>
     4c8:	0b3a0e03 	bleq	e83cdc <__bss_end__+0xe79c7c>
     4cc:	0b390b3b 	bleq	e431c0 <__bss_end__+0xe39160>
     4d0:	01111927 	tsteq	r1, r7, lsr #18
     4d4:	18400612 	stmdane	r0, {r1, r4, r9, sl}^
     4d8:	01194297 			; <UNDEFINED> instruction: 0x01194297
     4dc:	30000013 	andcc	r0, r0, r3, lsl r0
     4e0:	0e03012e 	adfeqsp	f0, f3, #0.5
     4e4:	0b3b0b3a 	bleq	ec31d4 <__bss_end__+0xeb9174>
     4e8:	19270b39 	stmdbne	r7!, {r0, r3, r4, r5, r8, r9, fp}
     4ec:	01111349 	tsteq	r1, r9, asr #6
     4f0:	18400612 	stmdane	r0, {r1, r4, r9, sl}^
     4f4:	01194297 			; <UNDEFINED> instruction: 0x01194297
     4f8:	31000013 	tstcc	r0, r3, lsl r0
     4fc:	08030005 	stmdaeq	r3, {r0, r2}
     500:	0b3b0b3a 	bleq	ec31f0 <__bss_end__+0xeb9190>
     504:	13490b39 	movtne	r0, #39737	; 0x9b39
     508:	42b71702 	adcsmi	r1, r7, #524288	; 0x80000
     50c:	32000017 	andcc	r0, r0, #23
     510:	0e03012e 	adfeqsp	f0, f3, #0.5
     514:	0b3b0b3a 	bleq	ec3204 <__bss_end__+0xeb91a4>
     518:	19270b39 	stmdbne	r7!, {r0, r3, r4, r5, r8, r9, fp}
     51c:	06120111 			; <UNDEFINED> instruction: 0x06120111
     520:	42971840 	addsmi	r1, r7, #64, 16	; 0x400000
     524:	00130119 	andseq	r0, r3, r9, lsl r1
     528:	010b3300 	mrseq	r3, (UNDEF: 59)
     52c:	06120111 			; <UNDEFINED> instruction: 0x06120111
     530:	1d340000 	ldcne	0, cr0, [r4, #-0]
     534:	52133101 	andspl	r3, r3, #1073741824	; 0x40000000
     538:	0b42b801 	bleq	10ae544 <__bss_end__+0x10a44e4>
     53c:	0b581755 	bleq	1606298 <__bss_end__+0x15fc238>
     540:	0b570b59 	bleq	15c32ac <__bss_end__+0x15b924c>
     544:	00001301 	andeq	r1, r0, r1, lsl #6
     548:	31000535 	tstcc	r0, r5, lsr r5
     54c:	b7170213 			; <UNDEFINED> instruction: 0xb7170213
     550:	00001742 	andeq	r1, r0, r2, asr #14
     554:	55010b36 	strpl	r0, [r1, #-2870]	; 0xfffff4ca
     558:	37000017 	smladcc	r0, r7, r0, r0
     55c:	13310034 	teqne	r1, #52	; 0x34
     560:	42b71702 	adcsmi	r1, r7, #524288	; 0x80000
     564:	38000017 	stmdacc	r0, {r0, r1, r2, r4}
     568:	0e03012e 	adfeqsp	f0, f3, #0.5
     56c:	0b3b0b3a 	bleq	ec325c <__bss_end__+0xeb91fc>
     570:	19270b39 	stmdbne	r7!, {r0, r3, r4, r5, r8, r9, fp}
     574:	13010b20 	movwne	r0, #6944	; 0x1b20
     578:	05390000 	ldreq	r0, [r9, #-0]!
     57c:	3a080300 	bcc	201184 <__bss_end__+0x1f7124>
     580:	390b3b0b 	stmdbcc	fp, {r0, r1, r3, r8, r9, fp, ip, sp}
     584:	0013490b 	andseq	r4, r3, fp, lsl #18
     588:	00343a00 	eorseq	r3, r4, r0, lsl #20
     58c:	0b3a0803 	bleq	e825a0 <__bss_end__+0xe78540>
     590:	0b390b3b 	bleq	e43284 <__bss_end__+0xe39224>
     594:	00001349 	andeq	r1, r0, r9, asr #6
     598:	3f002e3b 	svccc	0x00002e3b
     59c:	6e193c19 	mrcvs	12, 0, r3, cr9, cr9, {0}
     5a0:	3a0e030e 	bcc	3811e0 <__bss_end__+0x377180>
     5a4:	390b3b0b 	stmdbcc	fp, {r0, r1, r3, r8, r9, fp, ip, sp}
     5a8:	0000000b 	andeq	r0, r0, fp
     5ac:	25011101 	strcs	r1, [r1, #-257]	; 0xfffffeff
     5b0:	030b130e 	movweq	r1, #45838	; 0xb30e
     5b4:	110e1b0e 	tstne	lr, lr, lsl #22
     5b8:	10061201 	andne	r1, r6, r1, lsl #4
     5bc:	02000017 	andeq	r0, r0, #23
     5c0:	0b0b0024 	bleq	2c0658 <__bss_end__+0x2b65f8>
     5c4:	08030b3e 	stmdaeq	r3, {r1, r2, r3, r4, r5, r8, r9, fp}
     5c8:	24030000 	strcs	r0, [r3], #-0
     5cc:	3e0b0b00 	vmlacc.f64	d0, d11, d0
     5d0:	000e030b 	andeq	r0, lr, fp, lsl #6
     5d4:	00160400 	andseq	r0, r6, r0, lsl #8
     5d8:	0b3a0e03 	bleq	e83dec <__bss_end__+0xe79d8c>
     5dc:	0b390b3b 	bleq	e432d0 <__bss_end__+0xe39270>
     5e0:	00001349 	andeq	r1, r0, r9, asr #6
     5e4:	0b000f05 	bleq	4200 <_start-0x3e00>
     5e8:	0013490b 	andseq	r4, r3, fp, lsl #18
     5ec:	00130600 	andseq	r0, r3, r0, lsl #12
     5f0:	193c0e03 	ldmdbne	ip!, {r0, r1, r9, sl, fp}
     5f4:	16070000 	strne	r0, [r7], -r0
     5f8:	3a0e0300 	bcc	381200 <__bss_end__+0x3771a0>
     5fc:	39053b0b 	stmdbcc	r5, {r0, r1, r3, r8, r9, fp, ip, sp}
     600:	0013490b 	andseq	r4, r3, fp, lsl #18
     604:	01170800 	tsteq	r7, r0, lsl #16
     608:	0b3a0b0b 	bleq	e8323c <__bss_end__+0xe791dc>
     60c:	0b390b3b 	bleq	e43300 <__bss_end__+0xe392a0>
     610:	00001301 	andeq	r1, r0, r1, lsl #6
     614:	03000d09 	movweq	r0, #3337	; 0xd09
     618:	3b0b3a0e 	blcc	2cee58 <__bss_end__+0x2c4df8>
     61c:	490b390b 	stmdbmi	fp, {r0, r1, r3, r8, fp, ip, sp}
     620:	0a000013 	beq	674 <_start-0x798c>
     624:	13490101 	movtne	r0, #37121	; 0x9101
     628:	00001301 	andeq	r1, r0, r1, lsl #6
     62c:	4900210b 	stmdbmi	r0, {r0, r1, r3, r8, sp}
     630:	000b2f13 	andeq	r2, fp, r3, lsl pc
     634:	01130c00 	tsteq	r3, r0, lsl #24
     638:	0b3a0b0b 	bleq	e8326c <__bss_end__+0xe7920c>
     63c:	0b390b3b 	bleq	e43330 <__bss_end__+0xe392d0>
     640:	00001301 	andeq	r1, r0, r1, lsl #6
     644:	03000d0d 	movweq	r0, #3341	; 0xd0d
     648:	3b0b3a0e 	blcc	2cee88 <__bss_end__+0x2c4e28>
     64c:	490b390b 	stmdbmi	fp, {r0, r1, r3, r8, fp, ip, sp}
     650:	000b3813 	andeq	r3, fp, r3, lsl r8
     654:	000f0e00 	andeq	r0, pc, r0, lsl #28
     658:	00000b0b 	andeq	r0, r0, fp, lsl #22
     65c:	4900260f 	stmdbmi	r0, {r0, r1, r2, r3, r9, sl, sp}
     660:	10000013 	andne	r0, r0, r3, lsl r0
     664:	0e030113 	mcreq	1, 0, r0, cr3, cr3, {0}
     668:	0b3a0b0b 	bleq	e8329c <__bss_end__+0xe7923c>
     66c:	0b390b3b 	bleq	e43360 <__bss_end__+0xe39300>
     670:	00001301 	andeq	r1, r0, r1, lsl #6
     674:	03000d11 	movweq	r0, #3345	; 0xd11
     678:	3b0b3a08 	blcc	2ceea0 <__bss_end__+0x2c4e40>
     67c:	490b390b 	stmdbmi	fp, {r0, r1, r3, r8, fp, ip, sp}
     680:	000b3813 	andeq	r3, fp, r3, lsl r8
     684:	01131200 	tsteq	r3, r0, lsl #4
     688:	050b0e03 	streq	r0, [fp, #-3587]	; 0xfffff1fd
     68c:	0b3b0b3a 	bleq	ec337c <__bss_end__+0xeb931c>
     690:	13010b39 	movwne	r0, #6969	; 0x1b39
     694:	0d130000 	ldceq	0, cr0, [r3, #-0]
     698:	3a0e0300 	bcc	3812a0 <__bss_end__+0x377240>
     69c:	390b3b0b 	stmdbcc	fp, {r0, r1, r3, r8, r9, fp, ip, sp}
     6a0:	3813490b 	ldmdacc	r3, {r0, r1, r3, r8, fp, lr}
     6a4:	14000005 	strne	r0, [r0], #-5
     6a8:	19270015 	stmdbne	r7!, {r0, r2, r4}
     6ac:	15150000 	ldrne	r0, [r5, #-0]
     6b0:	49192701 	ldmdbmi	r9, {r0, r8, r9, sl, sp}
     6b4:	00130113 	andseq	r0, r3, r3, lsl r1
     6b8:	00051600 	andeq	r1, r5, r0, lsl #12
     6bc:	00001349 	andeq	r1, r0, r9, asr #6
     6c0:	03011317 	movweq	r1, #4887	; 0x1317
     6c4:	3a050b0e 	bcc	143304 <__bss_end__+0x1392a4>
     6c8:	39053b0b 	stmdbcc	r5, {r0, r1, r3, r8, r9, fp, ip, sp}
     6cc:	0013010b 	andseq	r0, r3, fp, lsl #2
     6d0:	000d1800 	andeq	r1, sp, r0, lsl #16
     6d4:	0b3a0e03 	bleq	e83ee8 <__bss_end__+0xe79e88>
     6d8:	0b39053b 	bleq	e41bcc <__bss_end__+0xe37b6c>
     6dc:	0b381349 	bleq	e05408 <__bss_end__+0xdfb3a8>
     6e0:	0d190000 	ldceq	0, cr0, [r9, #-0]
     6e4:	3a0e0300 	bcc	3812ec <__bss_end__+0x37728c>
     6e8:	39053b0b 	stmdbcc	r5, {r0, r1, r3, r8, r9, fp, ip, sp}
     6ec:	3813490b 	ldmdacc	r3, {r0, r1, r3, r8, fp, lr}
     6f0:	1a000005 	bne	70c <_start-0x78f4>
     6f4:	0e030113 	mcreq	1, 0, r0, cr3, cr3, {0}
     6f8:	0b3a0b0b 	bleq	e8332c <__bss_end__+0xe792cc>
     6fc:	0b39053b 	bleq	e41bf0 <__bss_end__+0xe37b90>
     700:	00001301 	andeq	r1, r0, r1, lsl #6
     704:	0b01131b 	bleq	45378 <__bss_end__+0x3b318>
     708:	3b0b3a0b 	blcc	2cef3c <__bss_end__+0x2c4edc>
     70c:	010b3905 	tsteq	fp, r5, lsl #18
     710:	1c000013 	stcne	0, cr0, [r0], {19}
     714:	0b0b0117 	bleq	2c0b78 <__bss_end__+0x2b6b18>
     718:	053b0b3a 	ldreq	r0, [fp, #-2874]!	; 0xfffff4c6
     71c:	13010b39 	movwne	r0, #6969	; 0x1b39
     720:	0d1d0000 	ldceq	0, cr0, [sp, #-0]
     724:	3a0e0300 	bcc	38132c <__bss_end__+0x3772cc>
     728:	39053b0b 	stmdbcc	r5, {r0, r1, r3, r8, r9, fp, ip, sp}
     72c:	0013490b 	andseq	r4, r3, fp, lsl #18
     730:	01151e00 	tsteq	r5, r0, lsl #28
     734:	13011927 	movwne	r1, #6439	; 0x1927
     738:	341f0000 	ldrcc	r0, [pc], #-0	; 740 <_start-0x78c0>
     73c:	3a0e0300 	bcc	381344 <__bss_end__+0x3772e4>
     740:	39053b0b 	stmdbcc	r5, {r0, r1, r3, r8, r9, fp, ip, sp}
     744:	3f13490b 	svccc	0x0013490b
     748:	00193c19 	andseq	r3, r9, r9, lsl ip
     74c:	00342000 	eorseq	r2, r4, r0
     750:	0b3a0e03 	bleq	e83f64 <__bss_end__+0xe79f04>
     754:	0b390b3b 	bleq	e43448 <__bss_end__+0xe393e8>
     758:	193f1349 	ldmdbne	pc!, {r0, r3, r6, r8, r9, ip}	; <UNPREDICTABLE>
     75c:	0000193c 	andeq	r1, r0, ip, lsr r9
     760:	3f012e21 	svccc	0x00012e21
     764:	3a0e0319 	bcc	3813d0 <__bss_end__+0x377370>
     768:	390b3b0b 	stmdbcc	fp, {r0, r1, r3, r8, r9, fp, ip, sp}
     76c:	4919270b 	ldmdbmi	r9, {r0, r1, r3, r8, r9, sl, sp}
     770:	12011113 	andne	r1, r1, #-1073741820	; 0xc0000004
     774:	97184006 	ldrls	r4, [r8, -r6]
     778:	13011942 	movwne	r1, #6466	; 0x1942
     77c:	05220000 	streq	r0, [r2, #-0]!
     780:	3a0e0300 	bcc	381388 <__bss_end__+0x377328>
     784:	390b3b0b 	stmdbcc	fp, {r0, r1, r3, r8, r9, fp, ip, sp}
     788:	0213490b 	andseq	r4, r3, #180224	; 0x2c000
     78c:	1742b717 	smlaldne	fp, r2, r7, r7
     790:	05230000 	streq	r0, [r3, #-0]!
     794:	3a080300 	bcc	20139c <__bss_end__+0x1f733c>
     798:	390b3b0b 	stmdbcc	fp, {r0, r1, r3, r8, r9, fp, ip, sp}
     79c:	0213490b 	andseq	r4, r3, #180224	; 0x2c000
     7a0:	1742b717 	smlaldne	fp, r2, r7, r7
     7a4:	34240000 	strtcc	r0, [r4], #-0
     7a8:	3a0e0300 	bcc	3813b0 <__bss_end__+0x377350>
     7ac:	390b3b0b 	stmdbcc	fp, {r0, r1, r3, r8, r9, fp, ip, sp}
     7b0:	0213490b 	andseq	r4, r3, #180224	; 0x2c000
     7b4:	1742b717 	smlaldne	fp, r2, r7, r7
     7b8:	34250000 	strtcc	r0, [r5], #-0
     7bc:	3a080300 	bcc	2013c4 <__bss_end__+0x1f7364>
     7c0:	390b3b0b 	stmdbcc	fp, {r0, r1, r3, r8, r9, fp, ip, sp}
     7c4:	0213490b 	andseq	r4, r3, #180224	; 0x2c000
     7c8:	1742b717 	smlaldne	fp, r2, r7, r7
     7cc:	26260000 	strtcs	r0, [r6], -r0
     7d0:	00000000 	andeq	r0, r0, r0
     7d4:	25011101 	strcs	r1, [r1, #-257]	; 0xfffffeff
     7d8:	030b130e 	movweq	r1, #45838	; 0xb30e
     7dc:	110e1b0e 	tstne	lr, lr, lsl #22
     7e0:	10061201 	andne	r1, r6, r1, lsl #4
     7e4:	02000017 	andeq	r0, r0, #23
     7e8:	0b0b0024 	bleq	2c0880 <__bss_end__+0x2b6820>
     7ec:	08030b3e 	stmdaeq	r3, {r1, r2, r3, r4, r5, r8, r9, fp}
     7f0:	16030000 	strne	r0, [r3], -r0
     7f4:	3a0e0300 	bcc	3813fc <__bss_end__+0x37739c>
     7f8:	390b3b0b 	stmdbcc	fp, {r0, r1, r3, r8, r9, fp, ip, sp}
     7fc:	0013490b 	andseq	r4, r3, fp, lsl #18
     800:	00240400 	eoreq	r0, r4, r0, lsl #8
     804:	0b3e0b0b 	bleq	f83438 <__bss_end__+0xf793d8>
     808:	00000e03 	andeq	r0, r0, r3, lsl #28
     80c:	0b000f05 	bleq	4428 <_start-0x3bd8>
     810:	0013490b 	andseq	r4, r3, fp, lsl #18
     814:	00130600 	andseq	r0, r3, r0, lsl #12
     818:	193c0e03 	ldmdbne	ip!, {r0, r1, r9, sl, fp}
     81c:	16070000 	strne	r0, [r7], -r0
     820:	3a0e0300 	bcc	381428 <__bss_end__+0x3773c8>
     824:	39053b0b 	stmdbcc	r5, {r0, r1, r3, r8, r9, fp, ip, sp}
     828:	0013490b 	andseq	r4, r3, fp, lsl #18
     82c:	01170800 	tsteq	r7, r0, lsl #16
     830:	0b3a0b0b 	bleq	e83464 <__bss_end__+0xe79404>
     834:	0b390b3b 	bleq	e43528 <__bss_end__+0xe394c8>
     838:	00001301 	andeq	r1, r0, r1, lsl #6
     83c:	03000d09 	movweq	r0, #3337	; 0xd09
     840:	3b0b3a0e 	blcc	2cf080 <__bss_end__+0x2c5020>
     844:	490b390b 	stmdbmi	fp, {r0, r1, r3, r8, fp, ip, sp}
     848:	0a000013 	beq	89c <_start-0x7764>
     84c:	13490101 	movtne	r0, #37121	; 0x9101
     850:	00001301 	andeq	r1, r0, r1, lsl #6
     854:	4900210b 	stmdbmi	r0, {r0, r1, r3, r8, sp}
     858:	000b2f13 	andeq	r2, fp, r3, lsl pc
     85c:	01130c00 	tsteq	r3, r0, lsl #24
     860:	0b3a0b0b 	bleq	e83494 <__bss_end__+0xe79434>
     864:	0b390b3b 	bleq	e43558 <__bss_end__+0xe394f8>
     868:	00001301 	andeq	r1, r0, r1, lsl #6
     86c:	03000d0d 	movweq	r0, #3341	; 0xd0d
     870:	3b0b3a0e 	blcc	2cf0b0 <__bss_end__+0x2c5050>
     874:	490b390b 	stmdbmi	fp, {r0, r1, r3, r8, fp, ip, sp}
     878:	000b3813 	andeq	r3, fp, r3, lsl r8
     87c:	000f0e00 	andeq	r0, pc, r0, lsl #28
     880:	00000b0b 	andeq	r0, r0, fp, lsl #22
     884:	4900260f 	stmdbmi	r0, {r0, r1, r2, r3, r9, sl, sp}
     888:	10000013 	andne	r0, r0, r3, lsl r0
     88c:	0e030113 	mcreq	1, 0, r0, cr3, cr3, {0}
     890:	0b3a0b0b 	bleq	e834c4 <__bss_end__+0xe79464>
     894:	0b390b3b 	bleq	e43588 <__bss_end__+0xe39528>
     898:	00001301 	andeq	r1, r0, r1, lsl #6
     89c:	03000d11 	movweq	r0, #3345	; 0xd11
     8a0:	3b0b3a08 	blcc	2cf0c8 <__bss_end__+0x2c5068>
     8a4:	490b390b 	stmdbmi	fp, {r0, r1, r3, r8, fp, ip, sp}
     8a8:	000b3813 	andeq	r3, fp, r3, lsl r8
     8ac:	01131200 	tsteq	r3, r0, lsl #4
     8b0:	050b0e03 	streq	r0, [fp, #-3587]	; 0xfffff1fd
     8b4:	0b3b0b3a 	bleq	ec35a4 <__bss_end__+0xeb9544>
     8b8:	13010b39 	movwne	r0, #6969	; 0x1b39
     8bc:	0d130000 	ldceq	0, cr0, [r3, #-0]
     8c0:	3a0e0300 	bcc	3814c8 <__bss_end__+0x377468>
     8c4:	390b3b0b 	stmdbcc	fp, {r0, r1, r3, r8, r9, fp, ip, sp}
     8c8:	3813490b 	ldmdacc	r3, {r0, r1, r3, r8, fp, lr}
     8cc:	14000005 	strne	r0, [r0], #-5
     8d0:	19270015 	stmdbne	r7!, {r0, r2, r4}
     8d4:	15150000 	ldrne	r0, [r5, #-0]
     8d8:	49192701 	ldmdbmi	r9, {r0, r8, r9, sl, sp}
     8dc:	00130113 	andseq	r0, r3, r3, lsl r1
     8e0:	00051600 	andeq	r1, r5, r0, lsl #12
     8e4:	00001349 	andeq	r1, r0, r9, asr #6
     8e8:	03011317 	movweq	r1, #4887	; 0x1317
     8ec:	3a050b0e 	bcc	14352c <__bss_end__+0x1394cc>
     8f0:	39053b0b 	stmdbcc	r5, {r0, r1, r3, r8, r9, fp, ip, sp}
     8f4:	0013010b 	andseq	r0, r3, fp, lsl #2
     8f8:	000d1800 	andeq	r1, sp, r0, lsl #16
     8fc:	0b3a0e03 	bleq	e84110 <__bss_end__+0xe7a0b0>
     900:	0b39053b 	bleq	e41df4 <__bss_end__+0xe37d94>
     904:	0b381349 	bleq	e05630 <__bss_end__+0xdfb5d0>
     908:	0d190000 	ldceq	0, cr0, [r9, #-0]
     90c:	3a0e0300 	bcc	381514 <__bss_end__+0x3774b4>
     910:	39053b0b 	stmdbcc	r5, {r0, r1, r3, r8, r9, fp, ip, sp}
     914:	3813490b 	ldmdacc	r3, {r0, r1, r3, r8, fp, lr}
     918:	1a000005 	bne	934 <_start-0x76cc>
     91c:	0e030113 	mcreq	1, 0, r0, cr3, cr3, {0}
     920:	0b3a0b0b 	bleq	e83554 <__bss_end__+0xe794f4>
     924:	0b39053b 	bleq	e41e18 <__bss_end__+0xe37db8>
     928:	00001301 	andeq	r1, r0, r1, lsl #6
     92c:	0b01131b 	bleq	455a0 <__bss_end__+0x3b540>
     930:	3b0b3a0b 	blcc	2cf164 <__bss_end__+0x2c5104>
     934:	010b3905 	tsteq	fp, r5, lsl #18
     938:	1c000013 	stcne	0, cr0, [r0], {19}
     93c:	0b0b0117 	bleq	2c0da0 <__bss_end__+0x2b6d40>
     940:	053b0b3a 	ldreq	r0, [fp, #-2874]!	; 0xfffff4c6
     944:	13010b39 	movwne	r0, #6969	; 0x1b39
     948:	0d1d0000 	ldceq	0, cr0, [sp, #-0]
     94c:	3a0e0300 	bcc	381554 <__bss_end__+0x3774f4>
     950:	39053b0b 	stmdbcc	r5, {r0, r1, r3, r8, r9, fp, ip, sp}
     954:	0013490b 	andseq	r4, r3, fp, lsl #18
     958:	01151e00 	tsteq	r5, r0, lsl #28
     95c:	13011927 	movwne	r1, #6439	; 0x1927
     960:	341f0000 	ldrcc	r0, [pc], #-0	; 968 <_start-0x7698>
     964:	3a0e0300 	bcc	38156c <__bss_end__+0x37750c>
     968:	39053b0b 	stmdbcc	r5, {r0, r1, r3, r8, r9, fp, ip, sp}
     96c:	3f13490b 	svccc	0x0013490b
     970:	00193c19 	andseq	r3, r9, r9, lsl ip
     974:	012e2000 			; <UNDEFINED> instruction: 0x012e2000
     978:	0e03193f 			; <UNDEFINED> instruction: 0x0e03193f
     97c:	0b3b0b3a 	bleq	ec366c <__bss_end__+0xeb960c>
     980:	19270b39 	stmdbne	r7!, {r0, r3, r4, r5, r8, r9, fp}
     984:	01111349 	tsteq	r1, r9, asr #6
     988:	18400612 	stmdane	r0, {r1, r4, r9, sl}^
     98c:	00194297 	mulseq	r9, r7, r2
     990:	00052100 	andeq	r2, r5, r0, lsl #2
     994:	0b3a0803 	bleq	e829a8 <__bss_end__+0xe78948>
     998:	0b390b3b 	bleq	e4368c <__bss_end__+0xe3962c>
     99c:	18021349 	stmdane	r2, {r0, r3, r6, r8, r9, ip}
     9a0:	05220000 	streq	r0, [r2, #-0]!
     9a4:	3a080300 	bcc	2015ac <__bss_end__+0x1f754c>
     9a8:	390b3b0b 	stmdbcc	fp, {r0, r1, r3, r8, r9, fp, ip, sp}
     9ac:	0213490b 	andseq	r4, r3, #180224	; 0x2c000
     9b0:	1742b717 	smlaldne	fp, r2, r7, r7
     9b4:	34230000 	strtcc	r0, [r3], #-0
     9b8:	3a080300 	bcc	2015c0 <__bss_end__+0x1f7560>
     9bc:	390b3b0b 	stmdbcc	fp, {r0, r1, r3, r8, r9, fp, ip, sp}
     9c0:	0213490b 	andseq	r4, r3, #180224	; 0x2c000
     9c4:	1742b717 	smlaldne	fp, r2, r7, r7
     9c8:	01000000 	mrseq	r0, (UNDEF: 0)
     9cc:	0e250111 	mcreq	1, 1, r0, cr5, cr1, {0}
     9d0:	0e030b13 	vmoveq.32	d3[0], r0
     9d4:	01110e1b 	tsteq	r1, fp, lsl lr
     9d8:	17100612 			; <UNDEFINED> instruction: 0x17100612
     9dc:	16020000 	strne	r0, [r2], -r0
     9e0:	3a0e0300 	bcc	3815e8 <__bss_end__+0x377588>
     9e4:	390b3b0b 	stmdbcc	fp, {r0, r1, r3, r8, r9, fp, ip, sp}
     9e8:	0013490b 	andseq	r4, r3, fp, lsl #18
     9ec:	01130300 	tsteq	r3, r0, lsl #6
     9f0:	0b0b0e03 	bleq	2c4204 <__bss_end__+0x2ba1a4>
     9f4:	0b3b0b3a 	bleq	ec36e4 <__bss_end__+0xeb9684>
     9f8:	00001301 	andeq	r1, r0, r1, lsl #6
     9fc:	03000d04 	movweq	r0, #3332	; 0xd04
     a00:	3813490e 	ldmdacc	r3, {r1, r2, r3, r8, fp, lr}
     a04:	0019340b 	andseq	r3, r9, fp, lsl #8
     a08:	000f0500 	andeq	r0, pc, r0, lsl #10
     a0c:	00000b0b 	andeq	r0, r0, fp, lsl #22
     a10:	0b002406 	bleq	9a30 <__FUNCTION__.4407+0x18>
     a14:	030b3e0b 	movweq	r3, #48651	; 0xbe0b
     a18:	07000008 	streq	r0, [r0, -r8]
     a1c:	0b0b0024 	bleq	2c0ab4 <__bss_end__+0x2b6a54>
     a20:	0e030b3e 	vmoveq.16	d3[0], r0
     a24:	0f080000 	svceq	0x00080000
     a28:	490b0b00 	stmdbmi	fp, {r8, r9, fp}
     a2c:	09000013 	stmdbeq	r0, {r0, r1, r4}
     a30:	0e030013 	mcreq	0, 0, r0, cr3, cr3, {0}
     a34:	0000193c 	andeq	r1, r0, ip, lsr r9
     a38:	0300160a 	movweq	r1, #1546	; 0x60a
     a3c:	3b0b3a0e 	blcc	2cf27c <__bss_end__+0x2c521c>
     a40:	490b3905 	stmdbmi	fp, {r0, r2, r8, fp, ip, sp}
     a44:	0b000013 	bleq	a98 <_start-0x7568>
     a48:	0b0b0117 	bleq	2c0eac <__bss_end__+0x2b6e4c>
     a4c:	0b3b0b3a 	bleq	ec373c <__bss_end__+0xeb96dc>
     a50:	13010b39 	movwne	r0, #6969	; 0x1b39
     a54:	0d0c0000 	stceq	0, cr0, [ip, #-0]
     a58:	3a0e0300 	bcc	381660 <__bss_end__+0x377600>
     a5c:	390b3b0b 	stmdbcc	fp, {r0, r1, r3, r8, r9, fp, ip, sp}
     a60:	0013490b 	andseq	r4, r3, fp, lsl #18
     a64:	01010d00 	tsteq	r1, r0, lsl #26
     a68:	13011349 	movwne	r1, #4937	; 0x1349
     a6c:	210e0000 	mrscs	r0, (UNDEF: 14)
     a70:	2f134900 	svccs	0x00134900
     a74:	0f00000b 	svceq	0x0000000b
     a78:	0b0b0113 	bleq	2c0ecc <__bss_end__+0x2b6e6c>
     a7c:	0b3b0b3a 	bleq	ec376c <__bss_end__+0xeb970c>
     a80:	13010b39 	movwne	r0, #6969	; 0x1b39
     a84:	0d100000 	ldceq	0, cr0, [r0, #-0]
     a88:	3a0e0300 	bcc	381690 <__bss_end__+0x377630>
     a8c:	390b3b0b 	stmdbcc	fp, {r0, r1, r3, r8, r9, fp, ip, sp}
     a90:	3813490b 	ldmdacc	r3, {r0, r1, r3, r8, fp, lr}
     a94:	1100000b 	tstne	r0, fp
     a98:	13490026 	movtne	r0, #36902	; 0x9026
     a9c:	13120000 	tstne	r2, #0
     aa0:	0b0e0301 	bleq	3816ac <__bss_end__+0x37764c>
     aa4:	3b0b3a0b 	blcc	2cf2d8 <__bss_end__+0x2c5278>
     aa8:	010b390b 	tsteq	fp, fp, lsl #18
     aac:	13000013 	movwne	r0, #19
     ab0:	0803000d 	stmdaeq	r3, {r0, r2, r3}
     ab4:	0b3b0b3a 	bleq	ec37a4 <__bss_end__+0xeb9744>
     ab8:	13490b39 	movtne	r0, #39737	; 0x9b39
     abc:	00000b38 	andeq	r0, r0, r8, lsr fp
     ac0:	03011314 	movweq	r1, #4884	; 0x1314
     ac4:	3a050b0e 	bcc	143704 <__bss_end__+0x1396a4>
     ac8:	390b3b0b 	stmdbcc	fp, {r0, r1, r3, r8, r9, fp, ip, sp}
     acc:	0013010b 	andseq	r0, r3, fp, lsl #2
     ad0:	000d1500 	andeq	r1, sp, r0, lsl #10
     ad4:	0b3a0e03 	bleq	e842e8 <__bss_end__+0xe7a288>
     ad8:	0b390b3b 	bleq	e437cc <__bss_end__+0xe3976c>
     adc:	05381349 	ldreq	r1, [r8, #-841]!	; 0xfffffcb7
     ae0:	15160000 	ldrne	r0, [r6, #-0]
     ae4:	00192700 	andseq	r2, r9, r0, lsl #14
     ae8:	01151700 	tsteq	r5, r0, lsl #14
     aec:	13491927 	movtne	r1, #39207	; 0x9927
     af0:	00001301 	andeq	r1, r0, r1, lsl #6
     af4:	49000518 	stmdbmi	r0, {r3, r4, r8, sl}
     af8:	19000013 	stmdbne	r0, {r0, r1, r4}
     afc:	0e030113 	mcreq	1, 0, r0, cr3, cr3, {0}
     b00:	0b3a050b 	bleq	e81f34 <__bss_end__+0xe77ed4>
     b04:	0b39053b 	bleq	e41ff8 <__bss_end__+0xe37f98>
     b08:	00001301 	andeq	r1, r0, r1, lsl #6
     b0c:	03000d1a 	movweq	r0, #3354	; 0xd1a
     b10:	3b0b3a0e 	blcc	2cf350 <__bss_end__+0x2c52f0>
     b14:	490b3905 	stmdbmi	fp, {r0, r2, r8, fp, ip, sp}
     b18:	000b3813 	andeq	r3, fp, r3, lsl r8
     b1c:	000d1b00 	andeq	r1, sp, r0, lsl #22
     b20:	0b3a0e03 	bleq	e84334 <__bss_end__+0xe7a2d4>
     b24:	0b39053b 	bleq	e42018 <__bss_end__+0xe37fb8>
     b28:	05381349 	ldreq	r1, [r8, #-841]!	; 0xfffffcb7
     b2c:	131c0000 	tstne	ip, #0
     b30:	0b0e0301 	bleq	38173c <__bss_end__+0x3776dc>
     b34:	3b0b3a0b 	blcc	2cf368 <__bss_end__+0x2c5308>
     b38:	010b3905 	tsteq	fp, r5, lsl #18
     b3c:	1d000013 	stcne	0, cr0, [r0, #-76]	; 0xffffffb4
     b40:	0b0b0113 	bleq	2c0f94 <__bss_end__+0x2b6f34>
     b44:	053b0b3a 	ldreq	r0, [fp, #-2874]!	; 0xfffff4c6
     b48:	13010b39 	movwne	r0, #6969	; 0x1b39
     b4c:	171e0000 	ldrne	r0, [lr, -r0]
     b50:	3a0b0b01 	bcc	2c375c <__bss_end__+0x2b96fc>
     b54:	39053b0b 	stmdbcc	r5, {r0, r1, r3, r8, r9, fp, ip, sp}
     b58:	0013010b 	andseq	r0, r3, fp, lsl #2
     b5c:	000d1f00 	andeq	r1, sp, r0, lsl #30
     b60:	0b3a0e03 	bleq	e84374 <__bss_end__+0xe7a314>
     b64:	0b39053b 	bleq	e42058 <__bss_end__+0xe37ff8>
     b68:	00001349 	andeq	r1, r0, r9, asr #6
     b6c:	27011520 	strcs	r1, [r1, -r0, lsr #10]
     b70:	00130119 	andseq	r0, r3, r9, lsl r1
     b74:	00342100 	eorseq	r2, r4, r0, lsl #2
     b78:	0b3a0e03 	bleq	e8438c <__bss_end__+0xe7a32c>
     b7c:	0b39053b 	bleq	e42070 <__bss_end__+0xe38010>
     b80:	193f1349 	ldmdbne	pc!, {r0, r3, r6, r8, r9, ip}	; <UNPREDICTABLE>
     b84:	0000193c 	andeq	r1, r0, ip, lsr r9
     b88:	03003422 	movweq	r3, #1058	; 0x422
     b8c:	3b0b3a0e 	blcc	2cf3cc <__bss_end__+0x2c536c>
     b90:	490b390b 	stmdbmi	fp, {r0, r1, r3, r8, fp, ip, sp}
     b94:	3c193f13 	ldccc	15, cr3, [r9], {19}
     b98:	23000019 	movwcs	r0, #25
     b9c:	193f012e 	ldmdbne	pc!, {r1, r2, r3, r5, r8}	; <UNPREDICTABLE>
     ba0:	0b3a0e03 	bleq	e843b4 <__bss_end__+0xe7a354>
     ba4:	0b390b3b 	bleq	e43898 <__bss_end__+0xe39838>
     ba8:	13491927 	movtne	r1, #39207	; 0x9927
     bac:	06120111 			; <UNDEFINED> instruction: 0x06120111
     bb0:	42971840 	addsmi	r1, r7, #64, 16	; 0x400000
     bb4:	00130119 	andseq	r0, r3, r9, lsl r1
     bb8:	00052400 	andeq	r2, r5, r0, lsl #8
     bbc:	0b3a0803 	bleq	e82bd0 <__bss_end__+0xe78b70>
     bc0:	0b390b3b 	bleq	e438b4 <__bss_end__+0xe39854>
     bc4:	18021349 	stmdane	r2, {r0, r3, r6, r8, r9, ip}
     bc8:	18250000 	stmdane	r5!, {}	; <UNPREDICTABLE>
     bcc:	26000000 	strcs	r0, [r0], -r0
     bd0:	08030034 	stmdaeq	r3, {r2, r4, r5}
     bd4:	0b3b0b3a 	bleq	ec38c4 <__bss_end__+0xeb9864>
     bd8:	13490b39 	movtne	r0, #39737	; 0x9b39
     bdc:	00001802 	andeq	r1, r0, r2, lsl #16
     be0:	03003427 	movweq	r3, #1063	; 0x427
     be4:	3b0b3a0e 	blcc	2cf424 <__bss_end__+0x2c53c4>
     be8:	490b390b 	stmdbmi	fp, {r0, r1, r3, r8, fp, ip, sp}
     bec:	00180213 	andseq	r0, r8, r3, lsl r2
     bf0:	00342800 	eorseq	r2, r4, r0, lsl #16
     bf4:	0b3a0803 	bleq	e82c08 <__bss_end__+0xe78ba8>
     bf8:	0b390b3b 	bleq	e438ec <__bss_end__+0xe3988c>
     bfc:	17021349 	strne	r1, [r2, -r9, asr #6]
     c00:	001742b7 			; <UNDEFINED> instruction: 0x001742b7
     c04:	82892900 	addhi	r2, r9, #0, 18
     c08:	01110101 	tsteq	r1, r1, lsl #2
     c0c:	13011331 	movwne	r1, #4913	; 0x1331
     c10:	8a2a0000 	bhi	a80c18 <__bss_end__+0xa76bb8>
     c14:	02000182 	andeq	r0, r0, #-2147483616	; 0x80000020
     c18:	18429118 	stmdane	r2, {r3, r4, r8, ip, pc}^
     c1c:	892b0000 	stmdbhi	fp!, {}	; <UNPREDICTABLE>
     c20:	11010182 	smlabbne	r1, r2, r1, r0
     c24:	2c000001 	stccs	0, cr0, [r0], {1}
     c28:	13490021 	movtne	r0, #36897	; 0x9021
     c2c:	0000052f 	andeq	r0, r0, pc, lsr #10
     c30:	3f002e2d 	svccc	0x00002e2d
     c34:	6e193c19 	mrcvs	12, 0, r3, cr9, cr9, {0}
     c38:	3a0e030e 	bcc	381878 <__bss_end__+0x377818>
     c3c:	390b3b0b 	stmdbcc	fp, {r0, r1, r3, r8, r9, fp, ip, sp}
     c40:	0000000b 	andeq	r0, r0, fp
     c44:	25011101 	strcs	r1, [r1, #-257]	; 0xfffffeff
     c48:	030b130e 	movweq	r1, #45838	; 0xb30e
     c4c:	110e1b0e 	tstne	lr, lr, lsl #22
     c50:	10061201 	andne	r1, r6, r1, lsl #4
     c54:	02000017 	andeq	r0, r0, #23
     c58:	0b0b0024 	bleq	2c0cf0 <__bss_end__+0x2b6c90>
     c5c:	08030b3e 	stmdaeq	r3, {r1, r2, r3, r4, r5, r8, r9, fp}
     c60:	24030000 	strcs	r0, [r3], #-0
     c64:	3e0b0b00 	vmlacc.f64	d0, d11, d0
     c68:	000e030b 	andeq	r0, lr, fp, lsl #6
     c6c:	00160400 	andseq	r0, r6, r0, lsl #8
     c70:	0b3a0e03 	bleq	e84484 <__bss_end__+0xe7a424>
     c74:	0b390b3b 	bleq	e43968 <__bss_end__+0xe39908>
     c78:	00001349 	andeq	r1, r0, r9, asr #6
     c7c:	0b000f05 	bleq	4898 <_start-0x3768>
     c80:	0013490b 	andseq	r4, r3, fp, lsl #18
     c84:	00130600 	andseq	r0, r3, r0, lsl #12
     c88:	193c0e03 	ldmdbne	ip!, {r0, r1, r9, sl, fp}
     c8c:	16070000 	strne	r0, [r7], -r0
     c90:	3a0e0300 	bcc	381898 <__bss_end__+0x377838>
     c94:	39053b0b 	stmdbcc	r5, {r0, r1, r3, r8, r9, fp, ip, sp}
     c98:	0013490b 	andseq	r4, r3, fp, lsl #18
     c9c:	01170800 	tsteq	r7, r0, lsl #16
     ca0:	0b3a0b0b 	bleq	e838d4 <__bss_end__+0xe79874>
     ca4:	0b390b3b 	bleq	e43998 <__bss_end__+0xe39938>
     ca8:	00001301 	andeq	r1, r0, r1, lsl #6
     cac:	03000d09 	movweq	r0, #3337	; 0xd09
     cb0:	3b0b3a0e 	blcc	2cf4f0 <__bss_end__+0x2c5490>
     cb4:	490b390b 	stmdbmi	fp, {r0, r1, r3, r8, fp, ip, sp}
     cb8:	0a000013 	beq	d0c <_start-0x72f4>
     cbc:	13490101 	movtne	r0, #37121	; 0x9101
     cc0:	00001301 	andeq	r1, r0, r1, lsl #6
     cc4:	4900210b 	stmdbmi	r0, {r0, r1, r3, r8, sp}
     cc8:	000b2f13 	andeq	r2, fp, r3, lsl pc
     ccc:	01130c00 	tsteq	r3, r0, lsl #24
     cd0:	0b3a0b0b 	bleq	e83904 <__bss_end__+0xe798a4>
     cd4:	0b390b3b 	bleq	e439c8 <__bss_end__+0xe39968>
     cd8:	00001301 	andeq	r1, r0, r1, lsl #6
     cdc:	03000d0d 	movweq	r0, #3341	; 0xd0d
     ce0:	3b0b3a0e 	blcc	2cf520 <__bss_end__+0x2c54c0>
     ce4:	490b390b 	stmdbmi	fp, {r0, r1, r3, r8, fp, ip, sp}
     ce8:	000b3813 	andeq	r3, fp, r3, lsl r8
     cec:	000f0e00 	andeq	r0, pc, r0, lsl #28
     cf0:	00000b0b 	andeq	r0, r0, fp, lsl #22
     cf4:	4900260f 	stmdbmi	r0, {r0, r1, r2, r3, r9, sl, sp}
     cf8:	10000013 	andne	r0, r0, r3, lsl r0
     cfc:	0e030113 	mcreq	1, 0, r0, cr3, cr3, {0}
     d00:	0b3a0b0b 	bleq	e83934 <__bss_end__+0xe798d4>
     d04:	0b390b3b 	bleq	e439f8 <__bss_end__+0xe39998>
     d08:	00001301 	andeq	r1, r0, r1, lsl #6
     d0c:	03000d11 	movweq	r0, #3345	; 0xd11
     d10:	3b0b3a08 	blcc	2cf538 <__bss_end__+0x2c54d8>
     d14:	490b390b 	stmdbmi	fp, {r0, r1, r3, r8, fp, ip, sp}
     d18:	000b3813 	andeq	r3, fp, r3, lsl r8
     d1c:	01131200 	tsteq	r3, r0, lsl #4
     d20:	050b0e03 	streq	r0, [fp, #-3587]	; 0xfffff1fd
     d24:	0b3b0b3a 	bleq	ec3a14 <__bss_end__+0xeb99b4>
     d28:	13010b39 	movwne	r0, #6969	; 0x1b39
     d2c:	0d130000 	ldceq	0, cr0, [r3, #-0]
     d30:	3a0e0300 	bcc	381938 <__bss_end__+0x3778d8>
     d34:	390b3b0b 	stmdbcc	fp, {r0, r1, r3, r8, r9, fp, ip, sp}
     d38:	3813490b 	ldmdacc	r3, {r0, r1, r3, r8, fp, lr}
     d3c:	14000005 	strne	r0, [r0], #-5
     d40:	19270015 	stmdbne	r7!, {r0, r2, r4}
     d44:	15150000 	ldrne	r0, [r5, #-0]
     d48:	49192701 	ldmdbmi	r9, {r0, r8, r9, sl, sp}
     d4c:	00130113 	andseq	r0, r3, r3, lsl r1
     d50:	00051600 	andeq	r1, r5, r0, lsl #12
     d54:	00001349 	andeq	r1, r0, r9, asr #6
     d58:	03011317 	movweq	r1, #4887	; 0x1317
     d5c:	3a050b0e 	bcc	14399c <__bss_end__+0x13993c>
     d60:	39053b0b 	stmdbcc	r5, {r0, r1, r3, r8, r9, fp, ip, sp}
     d64:	0013010b 	andseq	r0, r3, fp, lsl #2
     d68:	000d1800 	andeq	r1, sp, r0, lsl #16
     d6c:	0b3a0e03 	bleq	e84580 <__bss_end__+0xe7a520>
     d70:	0b39053b 	bleq	e42264 <__bss_end__+0xe38204>
     d74:	0b381349 	bleq	e05aa0 <__bss_end__+0xdfba40>
     d78:	0d190000 	ldceq	0, cr0, [r9, #-0]
     d7c:	3a0e0300 	bcc	381984 <__bss_end__+0x377924>
     d80:	39053b0b 	stmdbcc	r5, {r0, r1, r3, r8, r9, fp, ip, sp}
     d84:	3813490b 	ldmdacc	r3, {r0, r1, r3, r8, fp, lr}
     d88:	1a000005 	bne	da4 <_start-0x725c>
     d8c:	0e030113 	mcreq	1, 0, r0, cr3, cr3, {0}
     d90:	0b3a0b0b 	bleq	e839c4 <__bss_end__+0xe79964>
     d94:	0b39053b 	bleq	e42288 <__bss_end__+0xe38228>
     d98:	00001301 	andeq	r1, r0, r1, lsl #6
     d9c:	0b01131b 	bleq	45a10 <__bss_end__+0x3b9b0>
     da0:	3b0b3a0b 	blcc	2cf5d4 <__bss_end__+0x2c5574>
     da4:	010b3905 	tsteq	fp, r5, lsl #18
     da8:	1c000013 	stcne	0, cr0, [r0], {19}
     dac:	0b0b0117 	bleq	2c1210 <__bss_end__+0x2b71b0>
     db0:	053b0b3a 	ldreq	r0, [fp, #-2874]!	; 0xfffff4c6
     db4:	13010b39 	movwne	r0, #6969	; 0x1b39
     db8:	0d1d0000 	ldceq	0, cr0, [sp, #-0]
     dbc:	3a0e0300 	bcc	3819c4 <__bss_end__+0x377964>
     dc0:	39053b0b 	stmdbcc	r5, {r0, r1, r3, r8, r9, fp, ip, sp}
     dc4:	0013490b 	andseq	r4, r3, fp, lsl #18
     dc8:	01151e00 	tsteq	r5, r0, lsl #28
     dcc:	13011927 	movwne	r1, #6439	; 0x1927
     dd0:	341f0000 	ldrcc	r0, [pc], #-0	; dd8 <_start-0x7228>
     dd4:	3a0e0300 	bcc	3819dc <__bss_end__+0x37797c>
     dd8:	39053b0b 	stmdbcc	r5, {r0, r1, r3, r8, r9, fp, ip, sp}
     ddc:	3f13490b 	svccc	0x0013490b
     de0:	00193c19 	andseq	r3, r9, r9, lsl ip
     de4:	00342000 	eorseq	r2, r4, r0
     de8:	0b3a0e03 	bleq	e845fc <__bss_end__+0xe7a59c>
     dec:	0b390b3b 	bleq	e43ae0 <__bss_end__+0xe39a80>
     df0:	193f1349 	ldmdbne	pc!, {r0, r3, r6, r8, r9, ip}	; <UNPREDICTABLE>
     df4:	0000193c 	andeq	r1, r0, ip, lsr r9
     df8:	47003421 	strmi	r3, [r0, -r1, lsr #8]
     dfc:	3b0b3a13 	blcc	2cf650 <__bss_end__+0x2c55f0>
     e00:	020b390b 	andeq	r3, fp, #180224	; 0x2c000
     e04:	22000018 	andcs	r0, r0, #24
     e08:	193f012e 	ldmdbne	pc!, {r1, r2, r3, r5, r8}	; <UNPREDICTABLE>
     e0c:	0b3a0e03 	bleq	e84620 <__bss_end__+0xe7a5c0>
     e10:	0b390b3b 	bleq	e43b04 <__bss_end__+0xe39aa4>
     e14:	01111927 	tsteq	r1, r7, lsr #18
     e18:	18400612 	stmdane	r0, {r1, r4, r9, sl}^
     e1c:	01194297 			; <UNDEFINED> instruction: 0x01194297
     e20:	23000013 	movwcs	r0, #19
     e24:	08030005 	stmdaeq	r3, {r0, r2}
     e28:	0b3b0b3a 	bleq	ec3b18 <__bss_end__+0xeb9ab8>
     e2c:	13490b39 	movtne	r0, #39737	; 0x9b39
     e30:	00001802 	andeq	r1, r0, r2, lsl #16
     e34:	3f002e24 	svccc	0x00002e24
     e38:	3a0e0319 	bcc	381aa4 <__bss_end__+0x377a44>
     e3c:	390b3b0b 	stmdbcc	fp, {r0, r1, r3, r8, r9, fp, ip, sp}
     e40:	1119270b 	tstne	r9, fp, lsl #14
     e44:	40061201 	andmi	r1, r6, r1, lsl #4
     e48:	19429718 	stmdbne	r2, {r3, r4, r8, r9, sl, ip, pc}^
     e4c:	2e250000 	cdpcs	0, 2, cr0, cr5, cr0, {0}
     e50:	3a0e0301 	bcc	381a5c <__bss_end__+0x3779fc>
     e54:	390b3b0b 	stmdbcc	fp, {r0, r1, r3, r8, r9, fp, ip, sp}
     e58:	4919270b 	ldmdbmi	r9, {r0, r1, r3, r8, r9, sl, sp}
     e5c:	12011113 	andne	r1, r1, #-1073741820	; 0xc0000004
     e60:	97184006 	ldrls	r4, [r8, -r6]
     e64:	13011942 	movwne	r1, #6466	; 0x1942
     e68:	05260000 	streq	r0, [r6, #-0]!
     e6c:	3a080300 	bcc	201a74 <__bss_end__+0x1f7a14>
     e70:	390b3b0b 	stmdbcc	fp, {r0, r1, r3, r8, r9, fp, ip, sp}
     e74:	0213490b 	andseq	r4, r3, #180224	; 0x2c000
     e78:	1742b717 	smlaldne	fp, r2, r7, r7
     e7c:	89270000 	stmdbhi	r7!, {}	; <UNPREDICTABLE>
     e80:	11010182 	smlabbne	r1, r2, r1, r0
     e84:	00133101 	andseq	r3, r3, r1, lsl #2
     e88:	828a2800 	addhi	r2, sl, #0, 16
     e8c:	18020001 	stmdane	r2, {r0}
     e90:	00184291 	mulseq	r8, r1, r2
     e94:	002e2900 	eoreq	r2, lr, r0, lsl #18
     e98:	193c193f 	ldmdbne	ip!, {r0, r1, r2, r3, r4, r5, r8, fp, ip}
     e9c:	0e030e6e 	cdpeq	14, 0, cr0, cr3, cr14, {3}
     ea0:	0b3b0b3a 	bleq	ec3b90 <__bss_end__+0xeb9b30>
     ea4:	00000b39 	andeq	r0, r0, r9, lsr fp
     ea8:	01110100 	tsteq	r1, r0, lsl #2
     eac:	0b130e25 	bleq	4c4748 <__bss_end__+0x4ba6e8>
     eb0:	0e1b0e03 	cdpeq	14, 1, cr0, cr11, cr3, {0}
     eb4:	06120111 			; <UNDEFINED> instruction: 0x06120111
     eb8:	00001710 	andeq	r1, r0, r0, lsl r7
     ebc:	0b002402 	bleq	9ecc <buf.4297+0x270>
     ec0:	030b3e0b 	movweq	r3, #48651	; 0xbe0b
     ec4:	03000008 	movweq	r0, #8
     ec8:	0b0b0024 	bleq	2c0f60 <__bss_end__+0x2b6f00>
     ecc:	0e030b3e 	vmoveq.16	d3[0], r0
     ed0:	16040000 	strne	r0, [r4], -r0
     ed4:	3a0e0300 	bcc	381adc <__bss_end__+0x377a7c>
     ed8:	390b3b0b 	stmdbcc	fp, {r0, r1, r3, r8, r9, fp, ip, sp}
     edc:	0013490b 	andseq	r4, r3, fp, lsl #18
     ee0:	000f0500 	andeq	r0, pc, r0, lsl #10
     ee4:	13490b0b 	movtne	r0, #39691	; 0x9b0b
     ee8:	13060000 	movwne	r0, #24576	; 0x6000
     eec:	3c0e0300 	stccc	3, cr0, [lr], {-0}
     ef0:	07000019 	smladeq	r0, r9, r0, r0
     ef4:	0e030016 	mcreq	0, 0, r0, cr3, cr6, {0}
     ef8:	053b0b3a 	ldreq	r0, [fp, #-2874]!	; 0xfffff4c6
     efc:	13490b39 	movtne	r0, #39737	; 0x9b39
     f00:	17080000 	strne	r0, [r8, -r0]
     f04:	3a0b0b01 	bcc	2c3b10 <__bss_end__+0x2b9ab0>
     f08:	390b3b0b 	stmdbcc	fp, {r0, r1, r3, r8, r9, fp, ip, sp}
     f0c:	0013010b 	andseq	r0, r3, fp, lsl #2
     f10:	000d0900 	andeq	r0, sp, r0, lsl #18
     f14:	0b3a0e03 	bleq	e84728 <__bss_end__+0xe7a6c8>
     f18:	0b390b3b 	bleq	e43c0c <__bss_end__+0xe39bac>
     f1c:	00001349 	andeq	r1, r0, r9, asr #6
     f20:	4901010a 	stmdbmi	r1, {r1, r3, r8}
     f24:	00130113 	andseq	r0, r3, r3, lsl r1
     f28:	00210b00 	eoreq	r0, r1, r0, lsl #22
     f2c:	0b2f1349 	bleq	bc5c58 <__bss_end__+0xbbbbf8>
     f30:	130c0000 	movwne	r0, #49152	; 0xc000
     f34:	3a0b0b01 	bcc	2c3b40 <__bss_end__+0x2b9ae0>
     f38:	390b3b0b 	stmdbcc	fp, {r0, r1, r3, r8, r9, fp, ip, sp}
     f3c:	0013010b 	andseq	r0, r3, fp, lsl #2
     f40:	000d0d00 	andeq	r0, sp, r0, lsl #26
     f44:	0b3a0e03 	bleq	e84758 <__bss_end__+0xe7a6f8>
     f48:	0b390b3b 	bleq	e43c3c <__bss_end__+0xe39bdc>
     f4c:	0b381349 	bleq	e05c78 <__bss_end__+0xdfbc18>
     f50:	0f0e0000 	svceq	0x000e0000
     f54:	000b0b00 	andeq	r0, fp, r0, lsl #22
     f58:	00260f00 	eoreq	r0, r6, r0, lsl #30
     f5c:	00001349 	andeq	r1, r0, r9, asr #6
     f60:	03011310 	movweq	r1, #4880	; 0x1310
     f64:	3a0b0b0e 	bcc	2c3ba4 <__bss_end__+0x2b9b44>
     f68:	390b3b0b 	stmdbcc	fp, {r0, r1, r3, r8, r9, fp, ip, sp}
     f6c:	0013010b 	andseq	r0, r3, fp, lsl #2
     f70:	000d1100 	andeq	r1, sp, r0, lsl #2
     f74:	0b3a0803 	bleq	e82f88 <__bss_end__+0xe78f28>
     f78:	0b390b3b 	bleq	e43c6c <__bss_end__+0xe39c0c>
     f7c:	0b381349 	bleq	e05ca8 <__bss_end__+0xdfbc48>
     f80:	13120000 	tstne	r2, #0
     f84:	0b0e0301 	bleq	381b90 <__bss_end__+0x377b30>
     f88:	3b0b3a05 	blcc	2cf7a4 <__bss_end__+0x2c5744>
     f8c:	010b390b 	tsteq	fp, fp, lsl #18
     f90:	13000013 	movwne	r0, #19
     f94:	0e03000d 	cdpeq	0, 0, cr0, cr3, cr13, {0}
     f98:	0b3b0b3a 	bleq	ec3c88 <__bss_end__+0xeb9c28>
     f9c:	13490b39 	movtne	r0, #39737	; 0x9b39
     fa0:	00000538 	andeq	r0, r0, r8, lsr r5
     fa4:	27001514 	smladcs	r0, r4, r5, r1
     fa8:	15000019 	strne	r0, [r0, #-25]	; 0xffffffe7
     fac:	19270115 	stmdbne	r7!, {r0, r2, r4, r8}
     fb0:	13011349 	movwne	r1, #4937	; 0x1349
     fb4:	05160000 	ldreq	r0, [r6, #-0]
     fb8:	00134900 	andseq	r4, r3, r0, lsl #18
     fbc:	01131700 	tsteq	r3, r0, lsl #14
     fc0:	050b0e03 	streq	r0, [fp, #-3587]	; 0xfffff1fd
     fc4:	053b0b3a 	ldreq	r0, [fp, #-2874]!	; 0xfffff4c6
     fc8:	13010b39 	movwne	r0, #6969	; 0x1b39
     fcc:	0d180000 	ldceq	0, cr0, [r8, #-0]
     fd0:	3a0e0300 	bcc	381bd8 <__bss_end__+0x377b78>
     fd4:	39053b0b 	stmdbcc	r5, {r0, r1, r3, r8, r9, fp, ip, sp}
     fd8:	3813490b 	ldmdacc	r3, {r0, r1, r3, r8, fp, lr}
     fdc:	1900000b 	stmdbne	r0, {r0, r1, r3}
     fe0:	0e03000d 	cdpeq	0, 0, cr0, cr3, cr13, {0}
     fe4:	053b0b3a 	ldreq	r0, [fp, #-2874]!	; 0xfffff4c6
     fe8:	13490b39 	movtne	r0, #39737	; 0x9b39
     fec:	00000538 	andeq	r0, r0, r8, lsr r5
     ff0:	0301131a 	movweq	r1, #4890	; 0x131a
     ff4:	3a0b0b0e 	bcc	2c3c34 <__bss_end__+0x2b9bd4>
     ff8:	39053b0b 	stmdbcc	r5, {r0, r1, r3, r8, r9, fp, ip, sp}
     ffc:	0013010b 	andseq	r0, r3, fp, lsl #2
    1000:	01131b00 	tsteq	r3, r0, lsl #22
    1004:	0b3a0b0b 	bleq	e83c38 <__bss_end__+0xe79bd8>
    1008:	0b39053b 	bleq	e424fc <__bss_end__+0xe3849c>
    100c:	00001301 	andeq	r1, r0, r1, lsl #6
    1010:	0b01171c 	bleq	46c88 <__bss_end__+0x3cc28>
    1014:	3b0b3a0b 	blcc	2cf848 <__bss_end__+0x2c57e8>
    1018:	010b3905 	tsteq	fp, r5, lsl #18
    101c:	1d000013 	stcne	0, cr0, [r0, #-76]	; 0xffffffb4
    1020:	0e03000d 	cdpeq	0, 0, cr0, cr3, cr13, {0}
    1024:	053b0b3a 	ldreq	r0, [fp, #-2874]!	; 0xfffff4c6
    1028:	13490b39 	movtne	r0, #39737	; 0x9b39
    102c:	151e0000 	ldrne	r0, [lr, #-0]
    1030:	01192701 	tsteq	r9, r1, lsl #14
    1034:	1f000013 	svcne	0x00000013
    1038:	0e030034 	mcreq	0, 0, r0, cr3, cr4, {1}
    103c:	053b0b3a 	ldreq	r0, [fp, #-2874]!	; 0xfffff4c6
    1040:	13490b39 	movtne	r0, #39737	; 0x9b39
    1044:	193c193f 	ldmdbne	ip!, {r0, r1, r2, r3, r4, r5, r8, fp, ip}
    1048:	34200000 	strtcc	r0, [r0], #-0
    104c:	3a0e0300 	bcc	381c54 <__bss_end__+0x377bf4>
    1050:	390b3b0b 	stmdbcc	fp, {r0, r1, r3, r8, r9, fp, ip, sp}
    1054:	3f13490b 	svccc	0x0013490b
    1058:	00193c19 	andseq	r3, r9, r9, lsl ip
    105c:	00342100 	eorseq	r2, r4, r0, lsl #2
    1060:	0b3a1347 	bleq	e85d84 <__bss_end__+0xe7bd24>
    1064:	0b390b3b 	bleq	e43d58 <__bss_end__+0xe39cf8>
    1068:	00001802 	andeq	r1, r0, r2, lsl #16
    106c:	3f012e22 	svccc	0x00012e22
    1070:	3a0e0319 	bcc	381cdc <__bss_end__+0x377c7c>
    1074:	390b3b0b 	stmdbcc	fp, {r0, r1, r3, r8, r9, fp, ip, sp}
    1078:	4919270b 	ldmdbmi	r9, {r0, r1, r3, r8, r9, sl, sp}
    107c:	12011113 	andne	r1, r1, #-1073741820	; 0xc0000004
    1080:	96184006 	ldrls	r4, [r8], -r6
    1084:	00001942 	andeq	r1, r0, r2, asr #18
    1088:	03000523 	movweq	r0, #1315	; 0x523
    108c:	3b0b3a08 	blcc	2cf8b4 <__bss_end__+0x2c5854>
    1090:	490b390b 	stmdbmi	fp, {r0, r1, r3, r8, fp, ip, sp}
    1094:	b7170213 			; <UNDEFINED> instruction: 0xb7170213
    1098:	00001742 	andeq	r1, r0, r2, asr #14
    109c:	01110100 	tsteq	r1, r0, lsl #2
    10a0:	0b130e25 	bleq	4c493c <__bss_end__+0x4ba8dc>
    10a4:	0e1b0e03 	cdpeq	14, 1, cr0, cr11, cr3, {0}
    10a8:	06120111 			; <UNDEFINED> instruction: 0x06120111
    10ac:	00001710 	andeq	r1, r0, r0, lsl r7
    10b0:	0b002402 	bleq	a0c0 <__bss_end__+0x60>
    10b4:	030b3e0b 	movweq	r3, #48651	; 0xbe0b
    10b8:	03000008 	movweq	r0, #8
    10bc:	0b0b0024 	bleq	2c1154 <__bss_end__+0x2b70f4>
    10c0:	0e030b3e 	vmoveq.16	d3[0], r0
    10c4:	16040000 	strne	r0, [r4], -r0
    10c8:	3a0e0300 	bcc	381cd0 <__bss_end__+0x377c70>
    10cc:	390b3b0b 	stmdbcc	fp, {r0, r1, r3, r8, r9, fp, ip, sp}
    10d0:	0013490b 	andseq	r4, r3, fp, lsl #18
    10d4:	000f0500 	andeq	r0, pc, r0, lsl #10
    10d8:	13490b0b 	movtne	r0, #39691	; 0x9b0b
    10dc:	13060000 	movwne	r0, #24576	; 0x6000
    10e0:	3c0e0300 	stccc	3, cr0, [lr], {-0}
    10e4:	07000019 	smladeq	r0, r9, r0, r0
    10e8:	0e030016 	mcreq	0, 0, r0, cr3, cr6, {0}
    10ec:	053b0b3a 	ldreq	r0, [fp, #-2874]!	; 0xfffff4c6
    10f0:	13490b39 	movtne	r0, #39737	; 0x9b39
    10f4:	17080000 	strne	r0, [r8, -r0]
    10f8:	3a0b0b01 	bcc	2c3d04 <__bss_end__+0x2b9ca4>
    10fc:	390b3b0b 	stmdbcc	fp, {r0, r1, r3, r8, r9, fp, ip, sp}
    1100:	0013010b 	andseq	r0, r3, fp, lsl #2
    1104:	000d0900 	andeq	r0, sp, r0, lsl #18
    1108:	0b3a0e03 	bleq	e8491c <__bss_end__+0xe7a8bc>
    110c:	0b390b3b 	bleq	e43e00 <__bss_end__+0xe39da0>
    1110:	00001349 	andeq	r1, r0, r9, asr #6
    1114:	4901010a 	stmdbmi	r1, {r1, r3, r8}
    1118:	00130113 	andseq	r0, r3, r3, lsl r1
    111c:	00210b00 	eoreq	r0, r1, r0, lsl #22
    1120:	0b2f1349 	bleq	bc5e4c <__bss_end__+0xbbbdec>
    1124:	130c0000 	movwne	r0, #49152	; 0xc000
    1128:	3a0b0b01 	bcc	2c3d34 <__bss_end__+0x2b9cd4>
    112c:	390b3b0b 	stmdbcc	fp, {r0, r1, r3, r8, r9, fp, ip, sp}
    1130:	0013010b 	andseq	r0, r3, fp, lsl #2
    1134:	000d0d00 	andeq	r0, sp, r0, lsl #26
    1138:	0b3a0e03 	bleq	e8494c <__bss_end__+0xe7a8ec>
    113c:	0b390b3b 	bleq	e43e30 <__bss_end__+0xe39dd0>
    1140:	0b381349 	bleq	e05e6c <__bss_end__+0xdfbe0c>
    1144:	0f0e0000 	svceq	0x000e0000
    1148:	000b0b00 	andeq	r0, fp, r0, lsl #22
    114c:	00260f00 	eoreq	r0, r6, r0, lsl #30
    1150:	00001349 	andeq	r1, r0, r9, asr #6
    1154:	03011310 	movweq	r1, #4880	; 0x1310
    1158:	3a0b0b0e 	bcc	2c3d98 <__bss_end__+0x2b9d38>
    115c:	390b3b0b 	stmdbcc	fp, {r0, r1, r3, r8, r9, fp, ip, sp}
    1160:	0013010b 	andseq	r0, r3, fp, lsl #2
    1164:	000d1100 	andeq	r1, sp, r0, lsl #2
    1168:	0b3a0803 	bleq	e8317c <__bss_end__+0xe7911c>
    116c:	0b390b3b 	bleq	e43e60 <__bss_end__+0xe39e00>
    1170:	0b381349 	bleq	e05e9c <__bss_end__+0xdfbe3c>
    1174:	13120000 	tstne	r2, #0
    1178:	0b0e0301 	bleq	381d84 <__bss_end__+0x377d24>
    117c:	3b0b3a05 	blcc	2cf998 <__bss_end__+0x2c5938>
    1180:	010b390b 	tsteq	fp, fp, lsl #18
    1184:	13000013 	movwne	r0, #19
    1188:	0e03000d 	cdpeq	0, 0, cr0, cr3, cr13, {0}
    118c:	0b3b0b3a 	bleq	ec3e7c <__bss_end__+0xeb9e1c>
    1190:	13490b39 	movtne	r0, #39737	; 0x9b39
    1194:	00000538 	andeq	r0, r0, r8, lsr r5
    1198:	27001514 	smladcs	r0, r4, r5, r1
    119c:	15000019 	strne	r0, [r0, #-25]	; 0xffffffe7
    11a0:	19270115 	stmdbne	r7!, {r0, r2, r4, r8}
    11a4:	13011349 	movwne	r1, #4937	; 0x1349
    11a8:	05160000 	ldreq	r0, [r6, #-0]
    11ac:	00134900 	andseq	r4, r3, r0, lsl #18
    11b0:	01131700 	tsteq	r3, r0, lsl #14
    11b4:	050b0e03 	streq	r0, [fp, #-3587]	; 0xfffff1fd
    11b8:	053b0b3a 	ldreq	r0, [fp, #-2874]!	; 0xfffff4c6
    11bc:	13010b39 	movwne	r0, #6969	; 0x1b39
    11c0:	0d180000 	ldceq	0, cr0, [r8, #-0]
    11c4:	3a0e0300 	bcc	381dcc <__bss_end__+0x377d6c>
    11c8:	39053b0b 	stmdbcc	r5, {r0, r1, r3, r8, r9, fp, ip, sp}
    11cc:	3813490b 	ldmdacc	r3, {r0, r1, r3, r8, fp, lr}
    11d0:	1900000b 	stmdbne	r0, {r0, r1, r3}
    11d4:	0e03000d 	cdpeq	0, 0, cr0, cr3, cr13, {0}
    11d8:	053b0b3a 	ldreq	r0, [fp, #-2874]!	; 0xfffff4c6
    11dc:	13490b39 	movtne	r0, #39737	; 0x9b39
    11e0:	00000538 	andeq	r0, r0, r8, lsr r5
    11e4:	0301131a 	movweq	r1, #4890	; 0x131a
    11e8:	3a0b0b0e 	bcc	2c3e28 <__bss_end__+0x2b9dc8>
    11ec:	39053b0b 	stmdbcc	r5, {r0, r1, r3, r8, r9, fp, ip, sp}
    11f0:	0013010b 	andseq	r0, r3, fp, lsl #2
    11f4:	01131b00 	tsteq	r3, r0, lsl #22
    11f8:	0b3a0b0b 	bleq	e83e2c <__bss_end__+0xe79dcc>
    11fc:	0b39053b 	bleq	e426f0 <__bss_end__+0xe38690>
    1200:	00001301 	andeq	r1, r0, r1, lsl #6
    1204:	0b01171c 	bleq	46e7c <__bss_end__+0x3ce1c>
    1208:	3b0b3a0b 	blcc	2cfa3c <__bss_end__+0x2c59dc>
    120c:	010b3905 	tsteq	fp, r5, lsl #18
    1210:	1d000013 	stcne	0, cr0, [r0, #-76]	; 0xffffffb4
    1214:	0e03000d 	cdpeq	0, 0, cr0, cr3, cr13, {0}
    1218:	053b0b3a 	ldreq	r0, [fp, #-2874]!	; 0xfffff4c6
    121c:	13490b39 	movtne	r0, #39737	; 0x9b39
    1220:	151e0000 	ldrne	r0, [lr, #-0]
    1224:	01192701 	tsteq	r9, r1, lsl #14
    1228:	1f000013 	svcne	0x00000013
    122c:	0e030034 	mcreq	0, 0, r0, cr3, cr4, {1}
    1230:	053b0b3a 	ldreq	r0, [fp, #-2874]!	; 0xfffff4c6
    1234:	13490b39 	movtne	r0, #39737	; 0x9b39
    1238:	193c193f 	ldmdbne	ip!, {r0, r1, r2, r3, r4, r5, r8, fp, ip}
    123c:	34200000 	strtcc	r0, [r0], #-0
    1240:	3a0e0300 	bcc	381e48 <__bss_end__+0x377de8>
    1244:	390b3b0b 	stmdbcc	fp, {r0, r1, r3, r8, r9, fp, ip, sp}
    1248:	3f13490b 	svccc	0x0013490b
    124c:	00193c19 	andseq	r3, r9, r9, lsl ip
    1250:	00342100 	eorseq	r2, r4, r0, lsl #2
    1254:	0b3a0e03 	bleq	e84a68 <__bss_end__+0xe7aa08>
    1258:	0b390b3b 	bleq	e43f4c <__bss_end__+0xe39eec>
    125c:	18021349 	stmdane	r2, {r0, r3, r6, r8, r9, ip}
    1260:	34220000 	strtcc	r0, [r2], #-0
    1264:	3a080300 	bcc	201e6c <__bss_end__+0x1f7e0c>
    1268:	390b3b0b 	stmdbcc	fp, {r0, r1, r3, r8, r9, fp, ip, sp}
    126c:	0013490b 	andseq	r4, r3, fp, lsl #18
    1270:	012e2300 			; <UNDEFINED> instruction: 0x012e2300
    1274:	0e03193f 			; <UNDEFINED> instruction: 0x0e03193f
    1278:	0b3b0b3a 	bleq	ec3f68 <__bss_end__+0xeb9f08>
    127c:	19270b39 	stmdbne	r7!, {r0, r3, r4, r5, r8, r9, fp}
    1280:	06120111 			; <UNDEFINED> instruction: 0x06120111
    1284:	42971840 	addsmi	r1, r7, #64, 16	; 0x400000
    1288:	00130119 	andseq	r0, r3, r9, lsl r1
    128c:	00052400 	andeq	r2, r5, r0, lsl #8
    1290:	0b3a0e03 	bleq	e84aa4 <__bss_end__+0xe7aa44>
    1294:	0b390b3b 	bleq	e43f88 <__bss_end__+0xe39f28>
    1298:	18021349 	stmdane	r2, {r0, r3, r6, r8, r9, ip}
    129c:	2e250000 	cdpcs	0, 2, cr0, cr5, cr0, {0}
    12a0:	03193f01 	tsteq	r9, #1, 30
    12a4:	3b0b3a0e 	blcc	2cfae4 <__bss_end__+0x2c5a84>
    12a8:	270b390b 	strcs	r3, [fp, -fp, lsl #18]
    12ac:	11134919 	tstne	r3, r9, lsl r9
    12b0:	40061201 	andmi	r1, r6, r1, lsl #4
    12b4:	19429718 	stmdbne	r2, {r3, r4, r8, r9, sl, ip, pc}^
    12b8:	00001301 	andeq	r1, r0, r1, lsl #6
    12bc:	01828926 	orreq	r8, r2, r6, lsr #18
    12c0:	31011100 	mrscc	r1, (UNDEF: 17)
    12c4:	27000013 	smladcs	r0, r3, r0, r0
    12c8:	193f002e 	ldmdbne	pc!, {r1, r2, r3, r5}	; <UNPREDICTABLE>
    12cc:	0b3a0e03 	bleq	e84ae0 <__bss_end__+0xe7aa80>
    12d0:	0b390b3b 	bleq	e43fc4 <__bss_end__+0xe39f64>
    12d4:	13491927 	movtne	r1, #39207	; 0x9927
    12d8:	06120111 			; <UNDEFINED> instruction: 0x06120111
    12dc:	42971840 	addsmi	r1, r7, #64, 16	; 0x400000
    12e0:	00000019 	andeq	r0, r0, r9, lsl r0
    12e4:	25011101 	strcs	r1, [r1, #-257]	; 0xfffffeff
    12e8:	030b130e 	movweq	r1, #45838	; 0xb30e
    12ec:	110e1b0e 	tstne	lr, lr, lsl #22
    12f0:	10061201 	andne	r1, r6, r1, lsl #4
    12f4:	02000017 	andeq	r0, r0, #23
    12f8:	0b0b0024 	bleq	2c1390 <__bss_end__+0x2b7330>
    12fc:	08030b3e 	stmdaeq	r3, {r1, r2, r3, r4, r5, r8, r9, fp}
    1300:	24030000 	strcs	r0, [r3], #-0
    1304:	3e0b0b00 	vmlacc.f64	d0, d11, d0
    1308:	000e030b 	andeq	r0, lr, fp, lsl #6
    130c:	00160400 	andseq	r0, r6, r0, lsl #8
    1310:	0b3a0e03 	bleq	e84b24 <__bss_end__+0xe7aac4>
    1314:	0b390b3b 	bleq	e44008 <__bss_end__+0xe39fa8>
    1318:	00001349 	andeq	r1, r0, r9, asr #6
    131c:	0b000f05 	bleq	4f38 <_start-0x30c8>
    1320:	0013490b 	andseq	r4, r3, fp, lsl #18
    1324:	00130600 	andseq	r0, r3, r0, lsl #12
    1328:	193c0e03 	ldmdbne	ip!, {r0, r1, r9, sl, fp}
    132c:	16070000 	strne	r0, [r7], -r0
    1330:	3a0e0300 	bcc	381f38 <__bss_end__+0x377ed8>
    1334:	39053b0b 	stmdbcc	r5, {r0, r1, r3, r8, r9, fp, ip, sp}
    1338:	0013490b 	andseq	r4, r3, fp, lsl #18
    133c:	01170800 	tsteq	r7, r0, lsl #16
    1340:	0b3a0b0b 	bleq	e83f74 <__bss_end__+0xe79f14>
    1344:	0b390b3b 	bleq	e44038 <__bss_end__+0xe39fd8>
    1348:	00001301 	andeq	r1, r0, r1, lsl #6
    134c:	03000d09 	movweq	r0, #3337	; 0xd09
    1350:	3b0b3a0e 	blcc	2cfb90 <__bss_end__+0x2c5b30>
    1354:	490b390b 	stmdbmi	fp, {r0, r1, r3, r8, fp, ip, sp}
    1358:	0a000013 	beq	13ac <_start-0x6c54>
    135c:	13490101 	movtne	r0, #37121	; 0x9101
    1360:	00001301 	andeq	r1, r0, r1, lsl #6
    1364:	4900210b 	stmdbmi	r0, {r0, r1, r3, r8, sp}
    1368:	000b2f13 	andeq	r2, fp, r3, lsl pc
    136c:	01130c00 	tsteq	r3, r0, lsl #24
    1370:	0b3a0b0b 	bleq	e83fa4 <__bss_end__+0xe79f44>
    1374:	0b390b3b 	bleq	e44068 <__bss_end__+0xe3a008>
    1378:	00001301 	andeq	r1, r0, r1, lsl #6
    137c:	03000d0d 	movweq	r0, #3341	; 0xd0d
    1380:	3b0b3a0e 	blcc	2cfbc0 <__bss_end__+0x2c5b60>
    1384:	490b390b 	stmdbmi	fp, {r0, r1, r3, r8, fp, ip, sp}
    1388:	000b3813 	andeq	r3, fp, r3, lsl r8
    138c:	000f0e00 	andeq	r0, pc, r0, lsl #28
    1390:	00000b0b 	andeq	r0, r0, fp, lsl #22
    1394:	4900260f 	stmdbmi	r0, {r0, r1, r2, r3, r9, sl, sp}
    1398:	10000013 	andne	r0, r0, r3, lsl r0
    139c:	0e030113 	mcreq	1, 0, r0, cr3, cr3, {0}
    13a0:	0b3a0b0b 	bleq	e83fd4 <__bss_end__+0xe79f74>
    13a4:	0b390b3b 	bleq	e44098 <__bss_end__+0xe3a038>
    13a8:	00001301 	andeq	r1, r0, r1, lsl #6
    13ac:	03000d11 	movweq	r0, #3345	; 0xd11
    13b0:	3b0b3a08 	blcc	2cfbd8 <__bss_end__+0x2c5b78>
    13b4:	490b390b 	stmdbmi	fp, {r0, r1, r3, r8, fp, ip, sp}
    13b8:	000b3813 	andeq	r3, fp, r3, lsl r8
    13bc:	01131200 	tsteq	r3, r0, lsl #4
    13c0:	050b0e03 	streq	r0, [fp, #-3587]	; 0xfffff1fd
    13c4:	0b3b0b3a 	bleq	ec40b4 <__bss_end__+0xeba054>
    13c8:	13010b39 	movwne	r0, #6969	; 0x1b39
    13cc:	0d130000 	ldceq	0, cr0, [r3, #-0]
    13d0:	3a0e0300 	bcc	381fd8 <__bss_end__+0x377f78>
    13d4:	390b3b0b 	stmdbcc	fp, {r0, r1, r3, r8, r9, fp, ip, sp}
    13d8:	3813490b 	ldmdacc	r3, {r0, r1, r3, r8, fp, lr}
    13dc:	14000005 	strne	r0, [r0], #-5
    13e0:	19270015 	stmdbne	r7!, {r0, r2, r4}
    13e4:	15150000 	ldrne	r0, [r5, #-0]
    13e8:	49192701 	ldmdbmi	r9, {r0, r8, r9, sl, sp}
    13ec:	00130113 	andseq	r0, r3, r3, lsl r1
    13f0:	00051600 	andeq	r1, r5, r0, lsl #12
    13f4:	00001349 	andeq	r1, r0, r9, asr #6
    13f8:	03011317 	movweq	r1, #4887	; 0x1317
    13fc:	3a050b0e 	bcc	14403c <__bss_end__+0x139fdc>
    1400:	39053b0b 	stmdbcc	r5, {r0, r1, r3, r8, r9, fp, ip, sp}
    1404:	0013010b 	andseq	r0, r3, fp, lsl #2
    1408:	000d1800 	andeq	r1, sp, r0, lsl #16
    140c:	0b3a0e03 	bleq	e84c20 <__bss_end__+0xe7abc0>
    1410:	0b39053b 	bleq	e42904 <__bss_end__+0xe388a4>
    1414:	0b381349 	bleq	e06140 <__bss_end__+0xdfc0e0>
    1418:	0d190000 	ldceq	0, cr0, [r9, #-0]
    141c:	3a0e0300 	bcc	382024 <__bss_end__+0x377fc4>
    1420:	39053b0b 	stmdbcc	r5, {r0, r1, r3, r8, r9, fp, ip, sp}
    1424:	3813490b 	ldmdacc	r3, {r0, r1, r3, r8, fp, lr}
    1428:	1a000005 	bne	1444 <_start-0x6bbc>
    142c:	0e030113 	mcreq	1, 0, r0, cr3, cr3, {0}
    1430:	0b3a0b0b 	bleq	e84064 <__bss_end__+0xe7a004>
    1434:	0b39053b 	bleq	e42928 <__bss_end__+0xe388c8>
    1438:	00001301 	andeq	r1, r0, r1, lsl #6
    143c:	0b01131b 	bleq	460b0 <__bss_end__+0x3c050>
    1440:	3b0b3a0b 	blcc	2cfc74 <__bss_end__+0x2c5c14>
    1444:	010b3905 	tsteq	fp, r5, lsl #18
    1448:	1c000013 	stcne	0, cr0, [r0], {19}
    144c:	0b0b0117 	bleq	2c18b0 <__bss_end__+0x2b7850>
    1450:	053b0b3a 	ldreq	r0, [fp, #-2874]!	; 0xfffff4c6
    1454:	13010b39 	movwne	r0, #6969	; 0x1b39
    1458:	0d1d0000 	ldceq	0, cr0, [sp, #-0]
    145c:	3a0e0300 	bcc	382064 <__bss_end__+0x378004>
    1460:	39053b0b 	stmdbcc	r5, {r0, r1, r3, r8, r9, fp, ip, sp}
    1464:	0013490b 	andseq	r4, r3, fp, lsl #18
    1468:	01151e00 	tsteq	r5, r0, lsl #28
    146c:	13011927 	movwne	r1, #6439	; 0x1927
    1470:	341f0000 	ldrcc	r0, [pc], #-0	; 1478 <_start-0x6b88>
    1474:	3a0e0300 	bcc	38207c <__bss_end__+0x37801c>
    1478:	39053b0b 	stmdbcc	r5, {r0, r1, r3, r8, r9, fp, ip, sp}
    147c:	3f13490b 	svccc	0x0013490b
    1480:	00193c19 	andseq	r3, r9, r9, lsl ip
    1484:	00342000 	eorseq	r2, r4, r0
    1488:	0b3a0e03 	bleq	e84c9c <__bss_end__+0xe7ac3c>
    148c:	0b390b3b 	bleq	e44180 <__bss_end__+0xe3a120>
    1490:	193f1349 	ldmdbne	pc!, {r0, r3, r6, r8, r9, ip}	; <UNPREDICTABLE>
    1494:	0000193c 	andeq	r1, r0, ip, lsr r9
    1498:	03011321 	movweq	r1, #4897	; 0x1321
    149c:	3a0b0b0e 	bcc	2c40dc <__bss_end__+0x2ba07c>
    14a0:	010b3b0b 	tsteq	fp, fp, lsl #22
    14a4:	22000013 	andcs	r0, r0, #19
    14a8:	0e03000d 	cdpeq	0, 0, cr0, cr3, cr13, {0}
    14ac:	0b381349 	bleq	e061d8 <__bss_end__+0xdfc178>
    14b0:	00001934 	andeq	r1, r0, r4, lsr r9
    14b4:	3f012e23 	svccc	0x00012e23
    14b8:	3a0e0319 	bcc	382124 <__bss_end__+0x3780c4>
    14bc:	390b3b0b 	stmdbcc	fp, {r0, r1, r3, r8, r9, fp, ip, sp}
    14c0:	4919270b 	ldmdbmi	r9, {r0, r1, r3, r8, r9, sl, sp}
    14c4:	12011113 	andne	r1, r1, #-1073741820	; 0xc0000004
    14c8:	97184006 	ldrls	r4, [r8, -r6]
    14cc:	13011942 	movwne	r1, #6466	; 0x1942
    14d0:	05240000 	streq	r0, [r4, #-0]!
    14d4:	3a080300 	bcc	2020dc <__bss_end__+0x1f807c>
    14d8:	390b3b0b 	stmdbcc	fp, {r0, r1, r3, r8, r9, fp, ip, sp}
    14dc:	0213490b 	andseq	r4, r3, #180224	; 0x2c000
    14e0:	1742b717 	smlaldne	fp, r2, r7, r7
    14e4:	05250000 	streq	r0, [r5, #-0]!
    14e8:	3a0e0300 	bcc	3820f0 <__bss_end__+0x378090>
    14ec:	390b3b0b 	stmdbcc	fp, {r0, r1, r3, r8, r9, fp, ip, sp}
    14f0:	0213490b 	andseq	r4, r3, #180224	; 0x2c000
    14f4:	26000018 			; <UNDEFINED> instruction: 0x26000018
    14f8:	08030034 	stmdaeq	r3, {r2, r4, r5}
    14fc:	0b3b0b3a 	bleq	ec41ec <__bss_end__+0xeba18c>
    1500:	13490b39 	movtne	r0, #39737	; 0x9b39
    1504:	42b71702 	adcsmi	r1, r7, #524288	; 0x80000
    1508:	27000017 	smladcs	r0, r7, r0, r0
    150c:	0e030034 	mcreq	0, 0, r0, cr3, cr4, {1}
    1510:	19341349 	ldmdbne	r4!, {r0, r3, r6, r8, r9, ip}
    1514:	00001802 	andeq	r1, r0, r2, lsl #16
    1518:	11010b28 	tstne	r1, r8, lsr #22
    151c:	00061201 	andeq	r1, r6, r1, lsl #4
    1520:	00342900 	eorseq	r2, r4, r0, lsl #18
    1524:	0b3a0803 	bleq	e83538 <__bss_end__+0xe794d8>
    1528:	0b390b3b 	bleq	e4421c <__bss_end__+0xe3a1bc>
    152c:	18021349 	stmdane	r2, {r0, r3, r6, r8, r9, ip}
    1530:	342a0000 	strtcc	r0, [sl], #-0
    1534:	3a0e0300 	bcc	38213c <__bss_end__+0x3780dc>
    1538:	390b3b0b 	stmdbcc	fp, {r0, r1, r3, r8, r9, fp, ip, sp}
    153c:	0213490b 	andseq	r4, r3, #180224	; 0x2c000
    1540:	1742b717 	smlaldne	fp, r2, r7, r7
    1544:	892b0000 	stmdbhi	fp!, {}	; <UNPREDICTABLE>
    1548:	11010182 	smlabbne	r1, r2, r1, r0
    154c:	01133101 	tsteq	r3, r1, lsl #2
    1550:	2c000013 	stccs	0, cr0, [r0], {19}
    1554:	0001828a 	andeq	r8, r1, sl, lsl #5
    1558:	42911802 	addsmi	r1, r1, #131072	; 0x20000
    155c:	2d000018 	stccs	0, cr0, [r0, #-96]	; 0xffffffa0
    1560:	00018289 	andeq	r8, r1, r9, lsl #5
    1564:	13310111 	teqne	r1, #1073741828	; 0x40000004
    1568:	2e2e0000 	cdpcs	0, 2, cr0, cr14, cr0, {0}
    156c:	3a0e0301 	bcc	382178 <__bss_end__+0x378118>
    1570:	390b3b0b 	stmdbcc	fp, {r0, r1, r3, r8, r9, fp, ip, sp}
    1574:	4919270b 	ldmdbmi	r9, {r0, r1, r3, r8, r9, sl, sp}
    1578:	12011113 	andne	r1, r1, #-1073741820	; 0xc0000004
    157c:	97184006 	ldrls	r4, [r8, -r6]
    1580:	13011942 	movwne	r1, #6466	; 0x1942
    1584:	052f0000 	streq	r0, [pc, #-0]!	; 158c <_start-0x6a74>
    1588:	3a0e0300 	bcc	382190 <__bss_end__+0x378130>
    158c:	390b3b0b 	stmdbcc	fp, {r0, r1, r3, r8, r9, fp, ip, sp}
    1590:	0213490b 	andseq	r4, r3, #180224	; 0x2c000
    1594:	1742b717 	smlaldne	fp, r2, r7, r7
    1598:	0b300000 	bleq	c015a0 <__bss_end__+0xbf7540>
    159c:	12011101 	andne	r1, r1, #1073741824	; 0x40000000
    15a0:	00130106 	andseq	r0, r3, r6, lsl #2
    15a4:	012e3100 			; <UNDEFINED> instruction: 0x012e3100
    15a8:	0b3a0803 	bleq	e835bc <__bss_end__+0xe7955c>
    15ac:	0b390b3b 	bleq	e442a0 <__bss_end__+0xe3a240>
    15b0:	13491927 	movtne	r1, #39207	; 0x9927
    15b4:	06120111 			; <UNDEFINED> instruction: 0x06120111
    15b8:	42971840 	addsmi	r1, r7, #64, 16	; 0x400000
    15bc:	00130119 	andseq	r0, r3, r9, lsl r1
    15c0:	012e3200 			; <UNDEFINED> instruction: 0x012e3200
    15c4:	0e03193f 			; <UNDEFINED> instruction: 0x0e03193f
    15c8:	0b3b0b3a 	bleq	ec42b8 <__bss_end__+0xeba258>
    15cc:	19270b39 	stmdbne	r7!, {r0, r3, r4, r5, r8, r9, fp}
    15d0:	06120111 			; <UNDEFINED> instruction: 0x06120111
    15d4:	42971840 	addsmi	r1, r7, #64, 16	; 0x400000
    15d8:	00130119 	andseq	r0, r3, r9, lsl r1
    15dc:	002e3300 	eoreq	r3, lr, r0, lsl #6
    15e0:	193c193f 	ldmdbne	ip!, {r0, r1, r2, r3, r4, r5, r8, fp, ip}
    15e4:	0e030e6e 	cdpeq	14, 0, cr0, cr3, cr14, {3}
    15e8:	0b3b0b3a 	bleq	ec42d8 <__bss_end__+0xeba278>
    15ec:	00000b39 	andeq	r0, r0, r9, lsr fp
    15f0:	01110100 	tsteq	r1, r0, lsl #2
    15f4:	0b130e25 	bleq	4c4e90 <__bss_end__+0x4bae30>
    15f8:	0e1b0e03 	cdpeq	14, 1, cr0, cr11, cr3, {0}
    15fc:	06120111 			; <UNDEFINED> instruction: 0x06120111
    1600:	00001710 	andeq	r1, r0, r0, lsl r7
    1604:	0b002402 	bleq	a614 <__bss_end__+0x5b4>
    1608:	030b3e0b 	movweq	r3, #48651	; 0xbe0b
    160c:	03000008 	movweq	r0, #8
    1610:	0b0b0024 	bleq	2c16a8 <__bss_end__+0x2b7648>
    1614:	0e030b3e 	vmoveq.16	d3[0], r0
    1618:	16040000 	strne	r0, [r4], -r0
    161c:	3a0e0300 	bcc	382224 <__bss_end__+0x3781c4>
    1620:	390b3b0b 	stmdbcc	fp, {r0, r1, r3, r8, r9, fp, ip, sp}
    1624:	0013490b 	andseq	r4, r3, fp, lsl #18
    1628:	000f0500 	andeq	r0, pc, r0, lsl #10
    162c:	13490b0b 	movtne	r0, #39691	; 0x9b0b
    1630:	13060000 	movwne	r0, #24576	; 0x6000
    1634:	3c0e0300 	stccc	3, cr0, [lr], {-0}
    1638:	07000019 	smladeq	r0, r9, r0, r0
    163c:	0e030016 	mcreq	0, 0, r0, cr3, cr6, {0}
    1640:	053b0b3a 	ldreq	r0, [fp, #-2874]!	; 0xfffff4c6
    1644:	13490b39 	movtne	r0, #39737	; 0x9b39
    1648:	17080000 	strne	r0, [r8, -r0]
    164c:	3a0b0b01 	bcc	2c4258 <__bss_end__+0x2ba1f8>
    1650:	390b3b0b 	stmdbcc	fp, {r0, r1, r3, r8, r9, fp, ip, sp}
    1654:	0013010b 	andseq	r0, r3, fp, lsl #2
    1658:	000d0900 	andeq	r0, sp, r0, lsl #18
    165c:	0b3a0e03 	bleq	e84e70 <__bss_end__+0xe7ae10>
    1660:	0b390b3b 	bleq	e44354 <__bss_end__+0xe3a2f4>
    1664:	00001349 	andeq	r1, r0, r9, asr #6
    1668:	4901010a 	stmdbmi	r1, {r1, r3, r8}
    166c:	00130113 	andseq	r0, r3, r3, lsl r1
    1670:	00210b00 	eoreq	r0, r1, r0, lsl #22
    1674:	0b2f1349 	bleq	bc63a0 <__bss_end__+0xbbc340>
    1678:	130c0000 	movwne	r0, #49152	; 0xc000
    167c:	3a0b0b01 	bcc	2c4288 <__bss_end__+0x2ba228>
    1680:	390b3b0b 	stmdbcc	fp, {r0, r1, r3, r8, r9, fp, ip, sp}
    1684:	0013010b 	andseq	r0, r3, fp, lsl #2
    1688:	000d0d00 	andeq	r0, sp, r0, lsl #26
    168c:	0b3a0e03 	bleq	e84ea0 <__bss_end__+0xe7ae40>
    1690:	0b390b3b 	bleq	e44384 <__bss_end__+0xe3a324>
    1694:	0b381349 	bleq	e063c0 <__bss_end__+0xdfc360>
    1698:	0f0e0000 	svceq	0x000e0000
    169c:	000b0b00 	andeq	r0, fp, r0, lsl #22
    16a0:	00260f00 	eoreq	r0, r6, r0, lsl #30
    16a4:	00001349 	andeq	r1, r0, r9, asr #6
    16a8:	03011310 	movweq	r1, #4880	; 0x1310
    16ac:	3a0b0b0e 	bcc	2c42ec <__bss_end__+0x2ba28c>
    16b0:	390b3b0b 	stmdbcc	fp, {r0, r1, r3, r8, r9, fp, ip, sp}
    16b4:	0013010b 	andseq	r0, r3, fp, lsl #2
    16b8:	000d1100 	andeq	r1, sp, r0, lsl #2
    16bc:	0b3a0803 	bleq	e836d0 <__bss_end__+0xe79670>
    16c0:	0b390b3b 	bleq	e443b4 <__bss_end__+0xe3a354>
    16c4:	0b381349 	bleq	e063f0 <__bss_end__+0xdfc390>
    16c8:	13120000 	tstne	r2, #0
    16cc:	0b0e0301 	bleq	3822d8 <__bss_end__+0x378278>
    16d0:	3b0b3a05 	blcc	2cfeec <__bss_end__+0x2c5e8c>
    16d4:	010b390b 	tsteq	fp, fp, lsl #18
    16d8:	13000013 	movwne	r0, #19
    16dc:	0e03000d 	cdpeq	0, 0, cr0, cr3, cr13, {0}
    16e0:	0b3b0b3a 	bleq	ec43d0 <__bss_end__+0xeba370>
    16e4:	13490b39 	movtne	r0, #39737	; 0x9b39
    16e8:	00000538 	andeq	r0, r0, r8, lsr r5
    16ec:	27001514 	smladcs	r0, r4, r5, r1
    16f0:	15000019 	strne	r0, [r0, #-25]	; 0xffffffe7
    16f4:	19270115 	stmdbne	r7!, {r0, r2, r4, r8}
    16f8:	13011349 	movwne	r1, #4937	; 0x1349
    16fc:	05160000 	ldreq	r0, [r6, #-0]
    1700:	00134900 	andseq	r4, r3, r0, lsl #18
    1704:	01131700 	tsteq	r3, r0, lsl #14
    1708:	050b0e03 	streq	r0, [fp, #-3587]	; 0xfffff1fd
    170c:	053b0b3a 	ldreq	r0, [fp, #-2874]!	; 0xfffff4c6
    1710:	13010b39 	movwne	r0, #6969	; 0x1b39
    1714:	0d180000 	ldceq	0, cr0, [r8, #-0]
    1718:	3a0e0300 	bcc	382320 <__bss_end__+0x3782c0>
    171c:	39053b0b 	stmdbcc	r5, {r0, r1, r3, r8, r9, fp, ip, sp}
    1720:	3813490b 	ldmdacc	r3, {r0, r1, r3, r8, fp, lr}
    1724:	1900000b 	stmdbne	r0, {r0, r1, r3}
    1728:	0e03000d 	cdpeq	0, 0, cr0, cr3, cr13, {0}
    172c:	053b0b3a 	ldreq	r0, [fp, #-2874]!	; 0xfffff4c6
    1730:	13490b39 	movtne	r0, #39737	; 0x9b39
    1734:	00000538 	andeq	r0, r0, r8, lsr r5
    1738:	0301131a 	movweq	r1, #4890	; 0x131a
    173c:	3a0b0b0e 	bcc	2c437c <__bss_end__+0x2ba31c>
    1740:	39053b0b 	stmdbcc	r5, {r0, r1, r3, r8, r9, fp, ip, sp}
    1744:	0013010b 	andseq	r0, r3, fp, lsl #2
    1748:	01131b00 	tsteq	r3, r0, lsl #22
    174c:	0b3a0b0b 	bleq	e84380 <__bss_end__+0xe7a320>
    1750:	0b39053b 	bleq	e42c44 <__bss_end__+0xe38be4>
    1754:	00001301 	andeq	r1, r0, r1, lsl #6
    1758:	0b01171c 	bleq	473d0 <__bss_end__+0x3d370>
    175c:	3b0b3a0b 	blcc	2cff90 <__bss_end__+0x2c5f30>
    1760:	010b3905 	tsteq	fp, r5, lsl #18
    1764:	1d000013 	stcne	0, cr0, [r0, #-76]	; 0xffffffb4
    1768:	0e03000d 	cdpeq	0, 0, cr0, cr3, cr13, {0}
    176c:	053b0b3a 	ldreq	r0, [fp, #-2874]!	; 0xfffff4c6
    1770:	13490b39 	movtne	r0, #39737	; 0x9b39
    1774:	151e0000 	ldrne	r0, [lr, #-0]
    1778:	01192701 	tsteq	r9, r1, lsl #14
    177c:	1f000013 	svcne	0x00000013
    1780:	0e030034 	mcreq	0, 0, r0, cr3, cr4, {1}
    1784:	053b0b3a 	ldreq	r0, [fp, #-2874]!	; 0xfffff4c6
    1788:	13490b39 	movtne	r0, #39737	; 0x9b39
    178c:	193c193f 	ldmdbne	ip!, {r0, r1, r2, r3, r4, r5, r8, fp, ip}
    1790:	34200000 	strtcc	r0, [r0], #-0
    1794:	3a0e0300 	bcc	38239c <__bss_end__+0x37833c>
    1798:	390b3b0b 	stmdbcc	fp, {r0, r1, r3, r8, r9, fp, ip, sp}
    179c:	3f13490b 	svccc	0x0013490b
    17a0:	00193c19 	andseq	r3, r9, r9, lsl ip
    17a4:	012e2100 			; <UNDEFINED> instruction: 0x012e2100
    17a8:	0e03193f 			; <UNDEFINED> instruction: 0x0e03193f
    17ac:	0b3b0b3a 	bleq	ec449c <__bss_end__+0xeba43c>
    17b0:	19270b39 	stmdbne	r7!, {r0, r3, r4, r5, r8, r9, fp}
    17b4:	11190187 	tstne	r9, r7, lsl #3
    17b8:	40061201 	andmi	r1, r6, r1, lsl #4
    17bc:	19429718 	stmdbne	r2, {r3, r4, r8, r9, sl, ip, pc}^
    17c0:	00001301 	andeq	r1, r0, r1, lsl #6
    17c4:	01828922 	orreq	r8, r2, r2, lsr #18
    17c8:	01011101 	tsteq	r1, r1, lsl #2
    17cc:	23000013 	movwcs	r0, #19
    17d0:	0001828a 	andeq	r8, r1, sl, lsl #5
    17d4:	42911802 	addsmi	r1, r1, #131072	; 0x20000
    17d8:	24000018 	strcs	r0, [r0], #-24	; 0xffffffe8
    17dc:	01018289 	smlabbeq	r1, r9, r2, r8
    17e0:	13310111 	teqne	r1, #1073741828	; 0x40000004
    17e4:	00001301 	andeq	r1, r0, r1, lsl #6
    17e8:	01828925 	orreq	r8, r2, r5, lsr #18
    17ec:	31011100 	mrscc	r1, (UNDEF: 17)
    17f0:	26000013 			; <UNDEFINED> instruction: 0x26000013
    17f4:	193f002e 	ldmdbne	pc!, {r1, r2, r3, r5}	; <UNPREDICTABLE>
    17f8:	0e6e193c 			; <UNDEFINED> instruction: 0x0e6e193c
    17fc:	0b3a0e03 	bleq	e85010 <__bss_end__+0xe7afb0>
    1800:	0b390b3b 	bleq	e444f4 <__bss_end__+0xe3a494>
    1804:	01000000 	mrseq	r0, (UNDEF: 0)
    1808:	0e250111 	mcreq	1, 1, r0, cr5, cr1, {0}
    180c:	0e030b13 	vmoveq.32	d3[0], r0
    1810:	01110e1b 	tsteq	r1, fp, lsl lr
    1814:	17100612 			; <UNDEFINED> instruction: 0x17100612
    1818:	24020000 	strcs	r0, [r2], #-0
    181c:	3e0b0b00 	vmlacc.f64	d0, d11, d0
    1820:	0008030b 	andeq	r0, r8, fp, lsl #6
    1824:	00240300 	eoreq	r0, r4, r0, lsl #6
    1828:	0b3e0b0b 	bleq	f8445c <__bss_end__+0xf7a3fc>
    182c:	00000e03 	andeq	r0, r0, r3, lsl #28
    1830:	03001604 	movweq	r1, #1540	; 0x604
    1834:	3b0b3a0e 	blcc	2d0074 <__bss_end__+0x2c6014>
    1838:	490b390b 	stmdbmi	fp, {r0, r1, r3, r8, fp, ip, sp}
    183c:	05000013 	streq	r0, [r0, #-19]	; 0xffffffed
    1840:	0b0b000f 	bleq	2c1884 <__bss_end__+0x2b7824>
    1844:	00001349 	andeq	r1, r0, r9, asr #6
    1848:	03001306 	movweq	r1, #774	; 0x306
    184c:	00193c0e 	andseq	r3, r9, lr, lsl #24
    1850:	00160700 	andseq	r0, r6, r0, lsl #14
    1854:	0b3a0e03 	bleq	e85068 <__bss_end__+0xe7b008>
    1858:	0b39053b 	bleq	e42d4c <__bss_end__+0xe38cec>
    185c:	00001349 	andeq	r1, r0, r9, asr #6
    1860:	0b011708 	bleq	47488 <__bss_end__+0x3d428>
    1864:	3b0b3a0b 	blcc	2d0098 <__bss_end__+0x2c6038>
    1868:	010b390b 	tsteq	fp, fp, lsl #18
    186c:	09000013 	stmdbeq	r0, {r0, r1, r4}
    1870:	0e03000d 	cdpeq	0, 0, cr0, cr3, cr13, {0}
    1874:	0b3b0b3a 	bleq	ec4564 <__bss_end__+0xeba504>
    1878:	13490b39 	movtne	r0, #39737	; 0x9b39
    187c:	010a0000 	mrseq	r0, (UNDEF: 10)
    1880:	01134901 	tsteq	r3, r1, lsl #18
    1884:	0b000013 	bleq	18d8 <_start-0x6728>
    1888:	13490021 	movtne	r0, #36897	; 0x9021
    188c:	00000b2f 	andeq	r0, r0, pc, lsr #22
    1890:	0b01130c 	bleq	464c8 <__bss_end__+0x3c468>
    1894:	3b0b3a0b 	blcc	2d00c8 <__bss_end__+0x2c6068>
    1898:	010b390b 	tsteq	fp, fp, lsl #18
    189c:	0d000013 	stceq	0, cr0, [r0, #-76]	; 0xffffffb4
    18a0:	0e03000d 	cdpeq	0, 0, cr0, cr3, cr13, {0}
    18a4:	0b3b0b3a 	bleq	ec4594 <__bss_end__+0xeba534>
    18a8:	13490b39 	movtne	r0, #39737	; 0x9b39
    18ac:	00000b38 	andeq	r0, r0, r8, lsr fp
    18b0:	0b000f0e 	bleq	54f0 <_start-0x2b10>
    18b4:	0f00000b 	svceq	0x0000000b
    18b8:	13490026 	movtne	r0, #36902	; 0x9026
    18bc:	13100000 	tstne	r0, #0
    18c0:	0b0e0301 	bleq	3824cc <__bss_end__+0x37846c>
    18c4:	3b0b3a0b 	blcc	2d00f8 <__bss_end__+0x2c6098>
    18c8:	010b390b 	tsteq	fp, fp, lsl #18
    18cc:	11000013 	tstne	r0, r3, lsl r0
    18d0:	0803000d 	stmdaeq	r3, {r0, r2, r3}
    18d4:	0b3b0b3a 	bleq	ec45c4 <__bss_end__+0xeba564>
    18d8:	13490b39 	movtne	r0, #39737	; 0x9b39
    18dc:	00000b38 	andeq	r0, r0, r8, lsr fp
    18e0:	03011312 	movweq	r1, #4882	; 0x1312
    18e4:	3a050b0e 	bcc	144524 <__bss_end__+0x13a4c4>
    18e8:	390b3b0b 	stmdbcc	fp, {r0, r1, r3, r8, r9, fp, ip, sp}
    18ec:	0013010b 	andseq	r0, r3, fp, lsl #2
    18f0:	000d1300 	andeq	r1, sp, r0, lsl #6
    18f4:	0b3a0e03 	bleq	e85108 <__bss_end__+0xe7b0a8>
    18f8:	0b390b3b 	bleq	e445ec <__bss_end__+0xe3a58c>
    18fc:	05381349 	ldreq	r1, [r8, #-841]!	; 0xfffffcb7
    1900:	15140000 	ldrne	r0, [r4, #-0]
    1904:	00192700 	andseq	r2, r9, r0, lsl #14
    1908:	01151500 	tsteq	r5, r0, lsl #10
    190c:	13491927 	movtne	r1, #39207	; 0x9927
    1910:	00001301 	andeq	r1, r0, r1, lsl #6
    1914:	49000516 	stmdbmi	r0, {r1, r2, r4, r8, sl}
    1918:	17000013 	smladne	r0, r3, r0, r0
    191c:	0e030113 	mcreq	1, 0, r0, cr3, cr3, {0}
    1920:	0b3a050b 	bleq	e82d54 <__bss_end__+0xe78cf4>
    1924:	0b39053b 	bleq	e42e18 <__bss_end__+0xe38db8>
    1928:	00001301 	andeq	r1, r0, r1, lsl #6
    192c:	03000d18 	movweq	r0, #3352	; 0xd18
    1930:	3b0b3a0e 	blcc	2d0170 <__bss_end__+0x2c6110>
    1934:	490b3905 	stmdbmi	fp, {r0, r2, r8, fp, ip, sp}
    1938:	000b3813 	andeq	r3, fp, r3, lsl r8
    193c:	000d1900 	andeq	r1, sp, r0, lsl #18
    1940:	0b3a0e03 	bleq	e85154 <__bss_end__+0xe7b0f4>
    1944:	0b39053b 	bleq	e42e38 <__bss_end__+0xe38dd8>
    1948:	05381349 	ldreq	r1, [r8, #-841]!	; 0xfffffcb7
    194c:	131a0000 	tstne	sl, #0
    1950:	0b0e0301 	bleq	38255c <__bss_end__+0x3784fc>
    1954:	3b0b3a0b 	blcc	2d0188 <__bss_end__+0x2c6128>
    1958:	010b3905 	tsteq	fp, r5, lsl #18
    195c:	1b000013 	blne	19b0 <_start-0x6650>
    1960:	0b0b0113 	bleq	2c1db4 <__bss_end__+0x2b7d54>
    1964:	053b0b3a 	ldreq	r0, [fp, #-2874]!	; 0xfffff4c6
    1968:	13010b39 	movwne	r0, #6969	; 0x1b39
    196c:	171c0000 	ldrne	r0, [ip, -r0]
    1970:	3a0b0b01 	bcc	2c457c <__bss_end__+0x2ba51c>
    1974:	39053b0b 	stmdbcc	r5, {r0, r1, r3, r8, r9, fp, ip, sp}
    1978:	0013010b 	andseq	r0, r3, fp, lsl #2
    197c:	000d1d00 	andeq	r1, sp, r0, lsl #26
    1980:	0b3a0e03 	bleq	e85194 <__bss_end__+0xe7b134>
    1984:	0b39053b 	bleq	e42e78 <__bss_end__+0xe38e18>
    1988:	00001349 	andeq	r1, r0, r9, asr #6
    198c:	2701151e 	smladcs	r1, lr, r5, r1
    1990:	00130119 	andseq	r0, r3, r9, lsl r1
    1994:	00341f00 	eorseq	r1, r4, r0, lsl #30
    1998:	0b3a0e03 	bleq	e851ac <__bss_end__+0xe7b14c>
    199c:	0b39053b 	bleq	e42e90 <__bss_end__+0xe38e30>
    19a0:	193f1349 	ldmdbne	pc!, {r0, r3, r6, r8, r9, ip}	; <UNPREDICTABLE>
    19a4:	0000193c 	andeq	r1, r0, ip, lsr r9
    19a8:	03003420 	movweq	r3, #1056	; 0x420
    19ac:	3b0b3a0e 	blcc	2d01ec <__bss_end__+0x2c618c>
    19b0:	490b390b 	stmdbmi	fp, {r0, r1, r3, r8, fp, ip, sp}
    19b4:	3c193f13 	ldccc	15, cr3, [r9], {19}
    19b8:	21000019 	tstcs	r0, r9, lsl r0
    19bc:	193f012e 	ldmdbne	pc!, {r1, r2, r3, r5, r8}	; <UNPREDICTABLE>
    19c0:	0b3a0e03 	bleq	e851d4 <__bss_end__+0xe7b174>
    19c4:	0b390b3b 	bleq	e446b8 <__bss_end__+0xe3a658>
    19c8:	06120111 			; <UNDEFINED> instruction: 0x06120111
    19cc:	42971840 	addsmi	r1, r7, #64, 16	; 0x400000
    19d0:	00130119 	andseq	r0, r3, r9, lsl r1
    19d4:	002e2200 	eoreq	r2, lr, r0, lsl #4
    19d8:	0e03193f 			; <UNDEFINED> instruction: 0x0e03193f
    19dc:	0b3b0b3a 	bleq	ec46cc <__bss_end__+0xeba66c>
    19e0:	19270b39 	stmdbne	r7!, {r0, r3, r4, r5, r8, r9, fp}
    19e4:	0000193c 	andeq	r1, r0, ip, lsr r9
    19e8:	03003423 	movweq	r3, #1059	; 0x423
    19ec:	3b0b3a08 	blcc	2d0214 <__bss_end__+0x2c61b4>
    19f0:	490b390b 	stmdbmi	fp, {r0, r1, r3, r8, fp, ip, sp}
    19f4:	b7170213 			; <UNDEFINED> instruction: 0xb7170213
    19f8:	00001742 	andeq	r1, r0, r2, asr #14
    19fc:	03003424 	movweq	r3, #1060	; 0x424
    1a00:	3b0b3a0e 	blcc	2d0240 <__bss_end__+0x2c61e0>
    1a04:	490b390b 	stmdbmi	fp, {r0, r1, r3, r8, fp, ip, sp}
    1a08:	25000013 	strcs	r0, [r0, #-19]	; 0xffffffed
    1a0c:	00018289 	andeq	r8, r1, r9, lsl #5
    1a10:	13310111 	teqne	r1, #1073741828	; 0x40000004
    1a14:	2e260000 	cdpcs	0, 2, cr0, cr6, cr0, {0}
    1a18:	3c193f00 	ldccc	15, cr3, [r9], {-0}
    1a1c:	030e6e19 	movweq	r6, #60953	; 0xee19
    1a20:	3b0b3a0e 	blcc	2d0260 <__bss_end__+0x2c6200>
    1a24:	000b390b 	andeq	r3, fp, fp, lsl #18
    1a28:	11010000 	mrsne	r0, (UNDEF: 1)
    1a2c:	130e2501 	movwne	r2, #58625	; 0xe501
    1a30:	1b0e030b 	blne	382664 <__bss_end__+0x378604>
    1a34:	1117550e 	tstne	r7, lr, lsl #10
    1a38:	00171001 	andseq	r1, r7, r1
    1a3c:	00240200 	eoreq	r0, r4, r0, lsl #4
    1a40:	0b3e0b0b 	bleq	f84674 <__bss_end__+0xf7a614>
    1a44:	00000803 	andeq	r0, r0, r3, lsl #16
    1a48:	49002603 	stmdbmi	r0, {r0, r1, r9, sl, sp}
    1a4c:	04000013 	streq	r0, [r0], #-19	; 0xffffffed
    1a50:	0b0b0024 	bleq	2c1ae8 <__bss_end__+0x2b7a88>
    1a54:	0e030b3e 	vmoveq.16	d3[0], r0
    1a58:	16050000 	strne	r0, [r5], -r0
    1a5c:	3a0e0300 	bcc	382664 <__bss_end__+0x378604>
    1a60:	390b3b0b 	stmdbcc	fp, {r0, r1, r3, r8, r9, fp, ip, sp}
    1a64:	0013490b 	andseq	r4, r3, fp, lsl #18
    1a68:	000f0600 	andeq	r0, pc, r0, lsl #12
    1a6c:	13490b0b 	movtne	r0, #39691	; 0x9b0b
    1a70:	13070000 	movwne	r0, #28672	; 0x7000
    1a74:	3c0e0300 	stccc	3, cr0, [lr], {-0}
    1a78:	08000019 	stmdaeq	r0, {r0, r3, r4}
    1a7c:	0e030016 	mcreq	0, 0, r0, cr3, cr6, {0}
    1a80:	053b0b3a 	ldreq	r0, [fp, #-2874]!	; 0xfffff4c6
    1a84:	13490b39 	movtne	r0, #39737	; 0x9b39
    1a88:	17090000 	strne	r0, [r9, -r0]
    1a8c:	3a0b0b01 	bcc	2c4698 <__bss_end__+0x2ba638>
    1a90:	390b3b0b 	stmdbcc	fp, {r0, r1, r3, r8, r9, fp, ip, sp}
    1a94:	0013010b 	andseq	r0, r3, fp, lsl #2
    1a98:	000d0a00 	andeq	r0, sp, r0, lsl #20
    1a9c:	0b3a0e03 	bleq	e852b0 <__bss_end__+0xe7b250>
    1aa0:	0b390b3b 	bleq	e44794 <__bss_end__+0xe3a734>
    1aa4:	00001349 	andeq	r1, r0, r9, asr #6
    1aa8:	4901010b 	stmdbmi	r1, {r0, r1, r3, r8}
    1aac:	00130113 	andseq	r0, r3, r3, lsl r1
    1ab0:	00210c00 	eoreq	r0, r1, r0, lsl #24
    1ab4:	0b2f1349 	bleq	bc67e0 <__bss_end__+0xbbc780>
    1ab8:	130d0000 	movwne	r0, #53248	; 0xd000
    1abc:	3a0b0b01 	bcc	2c46c8 <__bss_end__+0x2ba668>
    1ac0:	390b3b0b 	stmdbcc	fp, {r0, r1, r3, r8, r9, fp, ip, sp}
    1ac4:	0013010b 	andseq	r0, r3, fp, lsl #2
    1ac8:	000d0e00 	andeq	r0, sp, r0, lsl #28
    1acc:	0b3a0e03 	bleq	e852e0 <__bss_end__+0xe7b280>
    1ad0:	0b390b3b 	bleq	e447c4 <__bss_end__+0xe3a764>
    1ad4:	0b381349 	bleq	e06800 <__bss_end__+0xdfc7a0>
    1ad8:	0f0f0000 	svceq	0x000f0000
    1adc:	000b0b00 	andeq	r0, fp, r0, lsl #22
    1ae0:	01131000 	tsteq	r3, r0
    1ae4:	0b0b0e03 	bleq	2c52f8 <__bss_end__+0x2bb298>
    1ae8:	0b3b0b3a 	bleq	ec47d8 <__bss_end__+0xeba778>
    1aec:	13010b39 	movwne	r0, #6969	; 0x1b39
    1af0:	0d110000 	ldceq	0, cr0, [r1, #-0]
    1af4:	3a080300 	bcc	2026fc <__bss_end__+0x1f869c>
    1af8:	390b3b0b 	stmdbcc	fp, {r0, r1, r3, r8, r9, fp, ip, sp}
    1afc:	3813490b 	ldmdacc	r3, {r0, r1, r3, r8, fp, lr}
    1b00:	1200000b 	andne	r0, r0, #11
    1b04:	0e030113 	mcreq	1, 0, r0, cr3, cr3, {0}
    1b08:	0b3a050b 	bleq	e82f3c <__bss_end__+0xe78edc>
    1b0c:	0b390b3b 	bleq	e44800 <__bss_end__+0xe3a7a0>
    1b10:	00001301 	andeq	r1, r0, r1, lsl #6
    1b14:	03000d13 	movweq	r0, #3347	; 0xd13
    1b18:	3b0b3a0e 	blcc	2d0358 <__bss_end__+0x2c62f8>
    1b1c:	490b390b 	stmdbmi	fp, {r0, r1, r3, r8, fp, ip, sp}
    1b20:	00053813 	andeq	r3, r5, r3, lsl r8
    1b24:	00151400 	andseq	r1, r5, r0, lsl #8
    1b28:	00001927 	andeq	r1, r0, r7, lsr #18
    1b2c:	27011515 	smladcs	r1, r5, r5, r1
    1b30:	01134919 	tsteq	r3, r9, lsl r9
    1b34:	16000013 			; <UNDEFINED> instruction: 0x16000013
    1b38:	13490005 	movtne	r0, #36869	; 0x9005
    1b3c:	13170000 	tstne	r7, #0
    1b40:	0b0e0301 	bleq	38274c <__bss_end__+0x3786ec>
    1b44:	3b0b3a05 	blcc	2d0360 <__bss_end__+0x2c6300>
    1b48:	010b3905 	tsteq	fp, r5, lsl #18
    1b4c:	18000013 	stmdane	r0, {r0, r1, r4}
    1b50:	0e03000d 	cdpeq	0, 0, cr0, cr3, cr13, {0}
    1b54:	053b0b3a 	ldreq	r0, [fp, #-2874]!	; 0xfffff4c6
    1b58:	13490b39 	movtne	r0, #39737	; 0x9b39
    1b5c:	00000b38 	andeq	r0, r0, r8, lsr fp
    1b60:	03000d19 	movweq	r0, #3353	; 0xd19
    1b64:	3b0b3a0e 	blcc	2d03a4 <__bss_end__+0x2c6344>
    1b68:	490b3905 	stmdbmi	fp, {r0, r2, r8, fp, ip, sp}
    1b6c:	00053813 	andeq	r3, r5, r3, lsl r8
    1b70:	01131a00 	tsteq	r3, r0, lsl #20
    1b74:	0b0b0e03 	bleq	2c5388 <__bss_end__+0x2bb328>
    1b78:	053b0b3a 	ldreq	r0, [fp, #-2874]!	; 0xfffff4c6
    1b7c:	13010b39 	movwne	r0, #6969	; 0x1b39
    1b80:	131b0000 	tstne	fp, #0
    1b84:	3a0b0b01 	bcc	2c4790 <__bss_end__+0x2ba730>
    1b88:	39053b0b 	stmdbcc	r5, {r0, r1, r3, r8, r9, fp, ip, sp}
    1b8c:	0013010b 	andseq	r0, r3, fp, lsl #2
    1b90:	01171c00 	tsteq	r7, r0, lsl #24
    1b94:	0b3a0b0b 	bleq	e847c8 <__bss_end__+0xe7a768>
    1b98:	0b39053b 	bleq	e4308c <__bss_end__+0xe3902c>
    1b9c:	00001301 	andeq	r1, r0, r1, lsl #6
    1ba0:	03000d1d 	movweq	r0, #3357	; 0xd1d
    1ba4:	3b0b3a0e 	blcc	2d03e4 <__bss_end__+0x2c6384>
    1ba8:	490b3905 	stmdbmi	fp, {r0, r2, r8, fp, ip, sp}
    1bac:	1e000013 	mcrne	0, 0, r0, cr0, cr3, {0}
    1bb0:	19270115 	stmdbne	r7!, {r0, r2, r4, r8}
    1bb4:	00001301 	andeq	r1, r0, r1, lsl #6
    1bb8:	0300341f 	movweq	r3, #1055	; 0x41f
    1bbc:	3b0b3a0e 	blcc	2d03fc <__bss_end__+0x2c639c>
    1bc0:	490b3905 	stmdbmi	fp, {r0, r2, r8, fp, ip, sp}
    1bc4:	3c193f13 	ldccc	15, cr3, [r9], {19}
    1bc8:	20000019 	andcs	r0, r0, r9, lsl r0
    1bcc:	0e030034 	mcreq	0, 0, r0, cr3, cr4, {1}
    1bd0:	0b3b0b3a 	bleq	ec48c0 <__bss_end__+0xeba860>
    1bd4:	13490b39 	movtne	r0, #39737	; 0x9b39
    1bd8:	193c193f 	ldmdbne	ip!, {r0, r1, r2, r3, r4, r5, r8, fp, ip}
    1bdc:	34210000 	strtcc	r0, [r1], #-0
    1be0:	3a0e0300 	bcc	3827e8 <__bss_end__+0x378788>
    1be4:	390b3b0b 	stmdbcc	fp, {r0, r1, r3, r8, r9, fp, ip, sp}
    1be8:	0013490b 	andseq	r4, r3, fp, lsl #18
    1bec:	012e2200 			; <UNDEFINED> instruction: 0x012e2200
    1bf0:	0e03193f 			; <UNDEFINED> instruction: 0x0e03193f
    1bf4:	0b3b0b3a 	bleq	ec48e4 <__bss_end__+0xeba884>
    1bf8:	19270b39 	stmdbne	r7!, {r0, r3, r4, r5, r8, r9, fp}
    1bfc:	11190187 	tstne	r9, r7, lsl #3
    1c00:	40061201 	andmi	r1, r6, r1, lsl #4
    1c04:	19429718 	stmdbne	r2, {r3, r4, r8, r9, sl, ip, pc}^
    1c08:	00001301 	andeq	r1, r0, r1, lsl #6
    1c0c:	03003423 	movweq	r3, #1059	; 0x423
    1c10:	3b0b3a0e 	blcc	2d0450 <__bss_end__+0x2c63f0>
    1c14:	490b390b 	stmdbmi	fp, {r0, r1, r3, r8, fp, ip, sp}
    1c18:	b7170213 			; <UNDEFINED> instruction: 0xb7170213
    1c1c:	00001742 	andeq	r1, r0, r2, asr #14
    1c20:	01828924 	orreq	r8, r2, r4, lsr #18
    1c24:	31011100 	mrscc	r1, (UNDEF: 17)
    1c28:	25000013 	strcs	r0, [r0, #-19]	; 0xffffffed
    1c2c:	01018289 	smlabbeq	r1, r9, r2, r8
    1c30:	13310111 	teqne	r1, #1073741828	; 0x40000004
    1c34:	00001301 	andeq	r1, r0, r1, lsl #6
    1c38:	01828a26 	orreq	r8, r2, r6, lsr #20
    1c3c:	91180200 	tstls	r8, r0, lsl #4
    1c40:	00001842 	andeq	r1, r0, r2, asr #16
    1c44:	3f012e27 	svccc	0x00012e27
    1c48:	3a0e0319 	bcc	3828b4 <__bss_end__+0x378854>
    1c4c:	390b3b0b 	stmdbcc	fp, {r0, r1, r3, r8, r9, fp, ip, sp}
    1c50:	1119270b 	tstne	r9, fp, lsl #14
    1c54:	40061201 	andmi	r1, r6, r1, lsl #4
    1c58:	19429718 	stmdbne	r2, {r3, r4, r8, r9, sl, ip, pc}^
    1c5c:	00001301 	andeq	r1, r0, r1, lsl #6
    1c60:	3f012e28 	svccc	0x00012e28
    1c64:	3a0e0319 	bcc	3828d0 <__bss_end__+0x378870>
    1c68:	390b3b0b 	stmdbcc	fp, {r0, r1, r3, r8, r9, fp, ip, sp}
    1c6c:	4919270b 	ldmdbmi	r9, {r0, r1, r3, r8, r9, sl, sp}
    1c70:	12011113 	andne	r1, r1, #-1073741820	; 0xc0000004
    1c74:	97184006 	ldrls	r4, [r8, -r6]
    1c78:	13011942 	movwne	r1, #6466	; 0x1942
    1c7c:	2e290000 	cdpcs	0, 2, cr0, cr9, cr0, {0}
    1c80:	3c193f00 	ldccc	15, cr3, [r9], {-0}
    1c84:	030e6e19 	movweq	r6, #60953	; 0xee19
    1c88:	3b0b3a0e 	blcc	2d04c8 <__bss_end__+0x2c6468>
    1c8c:	000b390b 	andeq	r3, fp, fp, lsl #18
    1c90:	11010000 	mrsne	r0, (UNDEF: 1)
    1c94:	130e2501 	movwne	r2, #58625	; 0xe501
    1c98:	1b0e030b 	blne	3828cc <__bss_end__+0x37886c>
    1c9c:	1201110e 	andne	r1, r1, #-2147483645	; 0x80000003
    1ca0:	00171006 	andseq	r1, r7, r6
    1ca4:	00240200 	eoreq	r0, r4, r0, lsl #4
    1ca8:	0b3e0b0b 	bleq	f848dc <__bss_end__+0xf7a87c>
    1cac:	00000803 	andeq	r0, r0, r3, lsl #16
    1cb0:	0b002403 	bleq	acc4 <__bss_end__+0xc64>
    1cb4:	030b3e0b 	movweq	r3, #48651	; 0xbe0b
    1cb8:	0400000e 	streq	r0, [r0], #-14
    1cbc:	0e030016 	mcreq	0, 0, r0, cr3, cr6, {0}
    1cc0:	0b3b0b3a 	bleq	ec49b0 <__bss_end__+0xeba950>
    1cc4:	13490b39 	movtne	r0, #39737	; 0x9b39
    1cc8:	0f050000 	svceq	0x00050000
    1ccc:	490b0b00 	stmdbmi	fp, {r8, r9, fp}
    1cd0:	06000013 			; <UNDEFINED> instruction: 0x06000013
    1cd4:	0e030013 	mcreq	0, 0, r0, cr3, cr3, {0}
    1cd8:	0000193c 	andeq	r1, r0, ip, lsr r9
    1cdc:	03001607 	movweq	r1, #1543	; 0x607
    1ce0:	3b0b3a0e 	blcc	2d0520 <__bss_end__+0x2c64c0>
    1ce4:	490b3905 	stmdbmi	fp, {r0, r2, r8, fp, ip, sp}
    1ce8:	08000013 	stmdaeq	r0, {r0, r1, r4}
    1cec:	0b0b0117 	bleq	2c2150 <__bss_end__+0x2b80f0>
    1cf0:	0b3b0b3a 	bleq	ec49e0 <__bss_end__+0xeba980>
    1cf4:	13010b39 	movwne	r0, #6969	; 0x1b39
    1cf8:	0d090000 	stceq	0, cr0, [r9, #-0]
    1cfc:	3a0e0300 	bcc	382904 <__bss_end__+0x3788a4>
    1d00:	390b3b0b 	stmdbcc	fp, {r0, r1, r3, r8, r9, fp, ip, sp}
    1d04:	0013490b 	andseq	r4, r3, fp, lsl #18
    1d08:	01010a00 	tsteq	r1, r0, lsl #20
    1d0c:	13011349 	movwne	r1, #4937	; 0x1349
    1d10:	210b0000 	mrscs	r0, (UNDEF: 11)
    1d14:	2f134900 	svccs	0x00134900
    1d18:	0c00000b 	stceq	0, cr0, [r0], {11}
    1d1c:	0b0b0113 	bleq	2c2170 <__bss_end__+0x2b8110>
    1d20:	0b3b0b3a 	bleq	ec4a10 <__bss_end__+0xeba9b0>
    1d24:	13010b39 	movwne	r0, #6969	; 0x1b39
    1d28:	0d0d0000 	stceq	0, cr0, [sp, #-0]
    1d2c:	3a0e0300 	bcc	382934 <__bss_end__+0x3788d4>
    1d30:	390b3b0b 	stmdbcc	fp, {r0, r1, r3, r8, r9, fp, ip, sp}
    1d34:	3813490b 	ldmdacc	r3, {r0, r1, r3, r8, fp, lr}
    1d38:	0e00000b 	cdpeq	0, 0, cr0, cr0, cr11, {0}
    1d3c:	0b0b000f 	bleq	2c1d80 <__bss_end__+0x2b7d20>
    1d40:	260f0000 	strcs	r0, [pc], -r0
    1d44:	00134900 	andseq	r4, r3, r0, lsl #18
    1d48:	01131000 	tsteq	r3, r0
    1d4c:	0b0b0e03 	bleq	2c5560 <__bss_end__+0x2bb500>
    1d50:	0b3b0b3a 	bleq	ec4a40 <__bss_end__+0xeba9e0>
    1d54:	13010b39 	movwne	r0, #6969	; 0x1b39
    1d58:	0d110000 	ldceq	0, cr0, [r1, #-0]
    1d5c:	3a080300 	bcc	202964 <__bss_end__+0x1f8904>
    1d60:	390b3b0b 	stmdbcc	fp, {r0, r1, r3, r8, r9, fp, ip, sp}
    1d64:	3813490b 	ldmdacc	r3, {r0, r1, r3, r8, fp, lr}
    1d68:	1200000b 	andne	r0, r0, #11
    1d6c:	0e030113 	mcreq	1, 0, r0, cr3, cr3, {0}
    1d70:	0b3a050b 	bleq	e831a4 <__bss_end__+0xe79144>
    1d74:	0b390b3b 	bleq	e44a68 <__bss_end__+0xe3aa08>
    1d78:	00001301 	andeq	r1, r0, r1, lsl #6
    1d7c:	03000d13 	movweq	r0, #3347	; 0xd13
    1d80:	3b0b3a0e 	blcc	2d05c0 <__bss_end__+0x2c6560>
    1d84:	490b390b 	stmdbmi	fp, {r0, r1, r3, r8, fp, ip, sp}
    1d88:	00053813 	andeq	r3, r5, r3, lsl r8
    1d8c:	00151400 	andseq	r1, r5, r0, lsl #8
    1d90:	00001927 	andeq	r1, r0, r7, lsr #18
    1d94:	27011515 	smladcs	r1, r5, r5, r1
    1d98:	01134919 	tsteq	r3, r9, lsl r9
    1d9c:	16000013 			; <UNDEFINED> instruction: 0x16000013
    1da0:	13490005 	movtne	r0, #36869	; 0x9005
    1da4:	13170000 	tstne	r7, #0
    1da8:	0b0e0301 	bleq	3829b4 <__bss_end__+0x378954>
    1dac:	3b0b3a05 	blcc	2d05c8 <__bss_end__+0x2c6568>
    1db0:	010b3905 	tsteq	fp, r5, lsl #18
    1db4:	18000013 	stmdane	r0, {r0, r1, r4}
    1db8:	0e03000d 	cdpeq	0, 0, cr0, cr3, cr13, {0}
    1dbc:	053b0b3a 	ldreq	r0, [fp, #-2874]!	; 0xfffff4c6
    1dc0:	13490b39 	movtne	r0, #39737	; 0x9b39
    1dc4:	00000b38 	andeq	r0, r0, r8, lsr fp
    1dc8:	03000d19 	movweq	r0, #3353	; 0xd19
    1dcc:	3b0b3a0e 	blcc	2d060c <__bss_end__+0x2c65ac>
    1dd0:	490b3905 	stmdbmi	fp, {r0, r2, r8, fp, ip, sp}
    1dd4:	00053813 	andeq	r3, r5, r3, lsl r8
    1dd8:	01131a00 	tsteq	r3, r0, lsl #20
    1ddc:	0b0b0e03 	bleq	2c55f0 <__bss_end__+0x2bb590>
    1de0:	053b0b3a 	ldreq	r0, [fp, #-2874]!	; 0xfffff4c6
    1de4:	13010b39 	movwne	r0, #6969	; 0x1b39
    1de8:	131b0000 	tstne	fp, #0
    1dec:	3a0b0b01 	bcc	2c49f8 <__bss_end__+0x2ba998>
    1df0:	39053b0b 	stmdbcc	r5, {r0, r1, r3, r8, r9, fp, ip, sp}
    1df4:	0013010b 	andseq	r0, r3, fp, lsl #2
    1df8:	01171c00 	tsteq	r7, r0, lsl #24
    1dfc:	0b3a0b0b 	bleq	e84a30 <__bss_end__+0xe7a9d0>
    1e00:	0b39053b 	bleq	e432f4 <__bss_end__+0xe39294>
    1e04:	00001301 	andeq	r1, r0, r1, lsl #6
    1e08:	03000d1d 	movweq	r0, #3357	; 0xd1d
    1e0c:	3b0b3a0e 	blcc	2d064c <__bss_end__+0x2c65ec>
    1e10:	490b3905 	stmdbmi	fp, {r0, r2, r8, fp, ip, sp}
    1e14:	1e000013 	mcrne	0, 0, r0, cr0, cr3, {0}
    1e18:	19270115 	stmdbne	r7!, {r0, r2, r4, r8}
    1e1c:	00001301 	andeq	r1, r0, r1, lsl #6
    1e20:	0300341f 	movweq	r3, #1055	; 0x41f
    1e24:	3b0b3a0e 	blcc	2d0664 <__bss_end__+0x2c6604>
    1e28:	490b3905 	stmdbmi	fp, {r0, r2, r8, fp, ip, sp}
    1e2c:	3c193f13 	ldccc	15, cr3, [r9], {19}
    1e30:	20000019 	andcs	r0, r0, r9, lsl r0
    1e34:	0e030034 	mcreq	0, 0, r0, cr3, cr4, {1}
    1e38:	0b3b0b3a 	bleq	ec4b28 <__bss_end__+0xebaac8>
    1e3c:	13490b39 	movtne	r0, #39737	; 0x9b39
    1e40:	193c193f 	ldmdbne	ip!, {r0, r1, r2, r3, r4, r5, r8, fp, ip}
    1e44:	2e210000 	cdpcs	0, 2, cr0, cr1, cr0, {0}
    1e48:	03193f01 	tsteq	r9, #1, 30
    1e4c:	3b0b3a0e 	blcc	2d068c <__bss_end__+0x2c662c>
    1e50:	270b390b 	strcs	r3, [fp, -fp, lsl #18]
    1e54:	12011119 	andne	r1, r1, #1073741830	; 0x40000006
    1e58:	97184006 	ldrls	r4, [r8, -r6]
    1e5c:	13011942 	movwne	r1, #6466	; 0x1942
    1e60:	05220000 	streq	r0, [r2, #-0]!
    1e64:	3a080300 	bcc	202a6c <__bss_end__+0x1f8a0c>
    1e68:	390b3b0b 	stmdbcc	fp, {r0, r1, r3, r8, r9, fp, ip, sp}
    1e6c:	0213490b 	andseq	r4, r3, #180224	; 0x2c000
    1e70:	1742b717 	smlaldne	fp, r2, r7, r7
    1e74:	89230000 	stmdbhi	r3!, {}	; <UNPREDICTABLE>
    1e78:	11010182 	smlabbne	r1, r2, r1, r0
    1e7c:	00133101 	andseq	r3, r3, r1, lsl #2
    1e80:	828a2400 	addhi	r2, sl, #0, 8
    1e84:	18020001 	stmdane	r2, {r0}
    1e88:	00184291 	mulseq	r8, r1, r2
    1e8c:	00342500 	eorseq	r2, r4, r0, lsl #10
    1e90:	0b3a0803 	bleq	e83ea4 <__bss_end__+0xe79e44>
    1e94:	0b390b3b 	bleq	e44b88 <__bss_end__+0xe3ab28>
    1e98:	17021349 	strne	r1, [r2, -r9, asr #6]
    1e9c:	001742b7 			; <UNDEFINED> instruction: 0x001742b7
    1ea0:	010b2600 	tsteq	fp, r0, lsl #12
    1ea4:	06120111 			; <UNDEFINED> instruction: 0x06120111
    1ea8:	00001301 	andeq	r1, r0, r1, lsl #6
    1eac:	01828927 	orreq	r8, r2, r7, lsr #18
    1eb0:	31011100 	mrscc	r1, (UNDEF: 17)
    1eb4:	28000013 	stmdacs	r0, {r0, r1, r4}
    1eb8:	193f012e 	ldmdbne	pc!, {r1, r2, r3, r5, r8}	; <UNPREDICTABLE>
    1ebc:	0b3a0e03 	bleq	e856d0 <__bss_end__+0xe7b670>
    1ec0:	0b390b3b 	bleq	e44bb4 <__bss_end__+0xe3ab54>
    1ec4:	13491927 	movtne	r1, #39207	; 0x9927
    1ec8:	06120111 			; <UNDEFINED> instruction: 0x06120111
    1ecc:	42971840 	addsmi	r1, r7, #64, 16	; 0x400000
    1ed0:	00130119 	andseq	r0, r3, r9, lsl r1
    1ed4:	00052900 	andeq	r2, r5, r0, lsl #18
    1ed8:	0b3a0e03 	bleq	e856ec <__bss_end__+0xe7b68c>
    1edc:	0b390b3b 	bleq	e44bd0 <__bss_end__+0xe3ab70>
    1ee0:	17021349 	strne	r1, [r2, -r9, asr #6]
    1ee4:	001742b7 			; <UNDEFINED> instruction: 0x001742b7
    1ee8:	002e2a00 	eoreq	r2, lr, r0, lsl #20
    1eec:	193c193f 	ldmdbne	ip!, {r0, r1, r2, r3, r4, r5, r8, fp, ip}
    1ef0:	0e030e6e 	cdpeq	14, 0, cr0, cr3, cr14, {3}
    1ef4:	0b3b0b3a 	bleq	ec4be4 <__bss_end__+0xebab84>
    1ef8:	00000b39 	andeq	r0, r0, r9, lsr fp
    1efc:	01110100 	tsteq	r1, r0, lsl #2
    1f00:	0b130e25 	bleq	4c579c <__bss_end__+0x4bb73c>
    1f04:	0e1b0e03 	cdpeq	14, 1, cr0, cr11, cr3, {0}
    1f08:	06120111 			; <UNDEFINED> instruction: 0x06120111
    1f0c:	00001710 	andeq	r1, r0, r0, lsl r7
    1f10:	0b002402 	bleq	af20 <__bss_end__+0xec0>
    1f14:	030b3e0b 	movweq	r3, #48651	; 0xbe0b
    1f18:	03000008 	movweq	r0, #8
    1f1c:	0b0b0024 	bleq	2c1fb4 <__bss_end__+0x2b7f54>
    1f20:	0e030b3e 	vmoveq.16	d3[0], r0
    1f24:	35040000 	strcc	r0, [r4, #-0]
    1f28:	00134900 	andseq	r4, r3, r0, lsl #18
    1f2c:	00160500 	andseq	r0, r6, r0, lsl #10
    1f30:	0b3a0e03 	bleq	e85744 <__bss_end__+0xe7b6e4>
    1f34:	13490b3b 	movtne	r0, #39739	; 0x9b3b
    1f38:	16060000 	strne	r0, [r6], -r0
    1f3c:	3a0e0300 	bcc	382b44 <__bss_end__+0x378ae4>
    1f40:	49053b0b 	stmdbmi	r5, {r0, r1, r3, r8, r9, fp, ip, sp}
    1f44:	07000013 	smladeq	r0, r3, r0, r0
    1f48:	0b0b0117 	bleq	2c23ac <__bss_end__+0x2b834c>
    1f4c:	0b3b0b3a 	bleq	ec4c3c <__bss_end__+0xebabdc>
    1f50:	00001301 	andeq	r1, r0, r1, lsl #6
    1f54:	03000d08 	movweq	r0, #3336	; 0xd08
    1f58:	3b0b3a0e 	blcc	2d0798 <__bss_end__+0x2c6738>
    1f5c:	0013490b 	andseq	r4, r3, fp, lsl #18
    1f60:	01010900 	tsteq	r1, r0, lsl #18
    1f64:	13011349 	movwne	r1, #4937	; 0x1349
    1f68:	210a0000 	mrscs	r0, (UNDEF: 10)
    1f6c:	2f134900 	svccs	0x00134900
    1f70:	0b00000b 	bleq	1fa4 <_start-0x605c>
    1f74:	0b0b0113 	bleq	2c23c8 <__bss_end__+0x2b8368>
    1f78:	0b3b0b3a 	bleq	ec4c68 <__bss_end__+0xebac08>
    1f7c:	00001301 	andeq	r1, r0, r1, lsl #6
    1f80:	03000d0c 	movweq	r0, #3340	; 0xd0c
    1f84:	3b0b3a0e 	blcc	2d07c4 <__bss_end__+0x2c6764>
    1f88:	3813490b 	ldmdacc	r3, {r0, r1, r3, r8, fp, lr}
    1f8c:	0d00000b 	stceq	0, cr0, [r0, #-44]	; 0xffffffd4
    1f90:	0b0b000f 	bleq	2c1fd4 <__bss_end__+0x2b7f74>
    1f94:	0f0e0000 	svceq	0x000e0000
    1f98:	490b0b00 	stmdbmi	fp, {r8, r9, fp}
    1f9c:	0f000013 	svceq	0x00000013
    1fa0:	13490026 	movtne	r0, #36902	; 0x9026
    1fa4:	13100000 	tstne	r0, #0
    1fa8:	0b0e0301 	bleq	382bb4 <__bss_end__+0x378b54>
    1fac:	3b0b3a0b 	blcc	2d07e0 <__bss_end__+0x2c6780>
    1fb0:	0013010b 	andseq	r0, r3, fp, lsl #2
    1fb4:	000d1100 	andeq	r1, sp, r0, lsl #2
    1fb8:	0b3a0803 	bleq	e83fcc <__bss_end__+0xe79f6c>
    1fbc:	13490b3b 	movtne	r0, #39739	; 0x9b3b
    1fc0:	00000b38 	andeq	r0, r0, r8, lsr fp
    1fc4:	03011312 	movweq	r1, #4882	; 0x1312
    1fc8:	3a050b0e 	bcc	144c08 <__bss_end__+0x13aba8>
    1fcc:	010b3b0b 	tsteq	fp, fp, lsl #22
    1fd0:	13000013 	movwne	r0, #19
    1fd4:	0e03000d 	cdpeq	0, 0, cr0, cr3, cr13, {0}
    1fd8:	0b3b0b3a 	bleq	ec4cc8 <__bss_end__+0xebac68>
    1fdc:	05381349 	ldreq	r1, [r8, #-841]!	; 0xfffffcb7
    1fe0:	15140000 	ldrne	r0, [r4, #-0]
    1fe4:	00192700 	andseq	r2, r9, r0, lsl #14
    1fe8:	01151500 	tsteq	r5, r0, lsl #10
    1fec:	13491927 	movtne	r1, #39207	; 0x9927
    1ff0:	00001301 	andeq	r1, r0, r1, lsl #6
    1ff4:	49000516 	stmdbmi	r0, {r1, r2, r4, r8, sl}
    1ff8:	17000013 	smladne	r0, r3, r0, r0
    1ffc:	0e030113 	mcreq	1, 0, r0, cr3, cr3, {0}
    2000:	0b3a050b 	bleq	e83434 <__bss_end__+0xe793d4>
    2004:	1301053b 	movwne	r0, #5435	; 0x153b
    2008:	0d180000 	ldceq	0, cr0, [r8, #-0]
    200c:	3a0e0300 	bcc	382c14 <__bss_end__+0x378bb4>
    2010:	49053b0b 	stmdbmi	r5, {r0, r1, r3, r8, r9, fp, ip, sp}
    2014:	000b3813 	andeq	r3, fp, r3, lsl r8
    2018:	000d1900 	andeq	r1, sp, r0, lsl #18
    201c:	0b3a0e03 	bleq	e85830 <__bss_end__+0xe7b7d0>
    2020:	1349053b 	movtne	r0, #38203	; 0x953b
    2024:	00000538 	andeq	r0, r0, r8, lsr r5
    2028:	0301131a 	movweq	r1, #4890	; 0x131a
    202c:	3a0b0b0e 	bcc	2c4c6c <__bss_end__+0x2bac0c>
    2030:	01053b0b 	tsteq	r5, fp, lsl #22
    2034:	1b000013 	blne	2088 <_start-0x5f78>
    2038:	0b0b0113 	bleq	2c248c <__bss_end__+0x2b842c>
    203c:	053b0b3a 	ldreq	r0, [fp, #-2874]!	; 0xfffff4c6
    2040:	00001301 	andeq	r1, r0, r1, lsl #6
    2044:	0b01171c 	bleq	47cbc <__bss_end__+0x3dc5c>
    2048:	3b0b3a0b 	blcc	2d087c <__bss_end__+0x2c681c>
    204c:	00130105 	andseq	r0, r3, r5, lsl #2
    2050:	000d1d00 	andeq	r1, sp, r0, lsl #26
    2054:	0b3a0e03 	bleq	e85868 <__bss_end__+0xe7b808>
    2058:	1349053b 	movtne	r0, #38203	; 0x953b
    205c:	151e0000 	ldrne	r0, [lr, #-0]
    2060:	01192701 	tsteq	r9, r1, lsl #14
    2064:	1f000013 	svcne	0x00000013
    2068:	0e030034 	mcreq	0, 0, r0, cr3, cr4, {1}
    206c:	053b0b3a 	ldreq	r0, [fp, #-2874]!	; 0xfffff4c6
    2070:	193f1349 	ldmdbne	pc!, {r0, r3, r6, r8, r9, ip}	; <UNPREDICTABLE>
    2074:	0000193c 	andeq	r1, r0, ip, lsr r9
    2078:	03003420 	movweq	r3, #1056	; 0x420
    207c:	3b0b3a0e 	blcc	2d08bc <__bss_end__+0x2c685c>
    2080:	3f13490b 	svccc	0x0013490b
    2084:	00193c19 	andseq	r3, r9, r9, lsl ip
    2088:	01042100 	mrseq	r2, (UNDEF: 20)
    208c:	13490b0b 	movtne	r0, #39691	; 0x9b0b
    2090:	0b3b0b3a 	bleq	ec4d80 <__bss_end__+0xebad20>
    2094:	00001301 	andeq	r1, r0, r1, lsl #6
    2098:	03002822 	movweq	r2, #2082	; 0x822
    209c:	000b1c0e 	andeq	r1, fp, lr, lsl #24
    20a0:	00342300 	eorseq	r2, r4, r0, lsl #6
    20a4:	0b3a0e03 	bleq	e858b8 <__bss_end__+0xe7b858>
    20a8:	13490b3b 	movtne	r0, #39739	; 0x9b3b
    20ac:	0000061c 	andeq	r0, r0, ip, lsl r6
    20b0:	3f012e24 	svccc	0x00012e24
    20b4:	3a0e0319 	bcc	382d20 <__bss_end__+0x378cc0>
    20b8:	270b3b0b 	strcs	r3, [fp, -fp, lsl #22]
    20bc:	11134919 	tstne	r3, r9, lsl r9
    20c0:	40061201 	andmi	r1, r6, r1, lsl #4
    20c4:	19429718 	stmdbne	r2, {r3, r4, r8, r9, sl, ip, pc}^
    20c8:	00001301 	andeq	r1, r0, r1, lsl #6
    20cc:	01828925 	orreq	r8, r2, r5, lsr #18
    20d0:	31011100 	mrscc	r1, (UNDEF: 17)
    20d4:	26000013 			; <UNDEFINED> instruction: 0x26000013
    20d8:	193f012e 	ldmdbne	pc!, {r1, r2, r3, r5, r8}	; <UNPREDICTABLE>
    20dc:	0b3a0e03 	bleq	e858f0 <__bss_end__+0xe7b890>
    20e0:	19270b3b 	stmdbne	r7!, {r0, r1, r3, r4, r5, r8, r9, fp}
    20e4:	06120111 			; <UNDEFINED> instruction: 0x06120111
    20e8:	42971840 	addsmi	r1, r7, #64, 16	; 0x400000
    20ec:	00130119 	andseq	r0, r3, r9, lsl r1
    20f0:	00052700 	andeq	r2, r5, r0, lsl #14
    20f4:	0b3a0803 	bleq	e84108 <__bss_end__+0xe7a0a8>
    20f8:	13490b3b 	movtne	r0, #39739	; 0x9b3b
    20fc:	00001702 	andeq	r1, r0, r2, lsl #14
    2100:	01828928 	orreq	r8, r2, r8, lsr #18
    2104:	31011101 	tstcc	r1, r1, lsl #2
    2108:	00130113 	andseq	r0, r3, r3, lsl r1
    210c:	828a2900 	addhi	r2, sl, #0, 18
    2110:	18020001 	stmdane	r2, {r0}
    2114:	00184291 	mulseq	r8, r1, r2
    2118:	00342a00 	eorseq	r2, r4, r0, lsl #20
    211c:	0b3a0803 	bleq	e84130 <__bss_end__+0xe7a0d0>
    2120:	13490b3b 	movtne	r0, #39739	; 0x9b3b
    2124:	00001802 	andeq	r1, r0, r2, lsl #16
    2128:	0182892b 	orreq	r8, r2, fp, lsr #18
    212c:	31011101 	tstcc	r1, r1, lsl #2
    2130:	2c000013 	stccs	0, cr0, [r0], {19}
    2134:	0e03012e 	adfeqsp	f0, f3, #0.5
    2138:	0b3b0b3a 	bleq	ec4e28 <__bss_end__+0xebadc8>
    213c:	01111927 	tsteq	r1, r7, lsr #18
    2140:	18400612 	stmdane	r0, {r1, r4, r9, sl}^
    2144:	01194297 			; <UNDEFINED> instruction: 0x01194297
    2148:	2d000013 	stccs	0, cr0, [r0, #-76]	; 0xffffffb4
    214c:	0e030005 	cdpeq	0, 0, cr0, cr3, cr5, {0}
    2150:	0b3b0b3a 	bleq	ec4e40 <__bss_end__+0xebade0>
    2154:	17021349 	strne	r1, [r2, -r9, asr #6]
    2158:	352e0000 	strcc	r0, [lr, #-0]!
    215c:	2f000000 	svccs	0x00000000
    2160:	193f002e 	ldmdbne	pc!, {r1, r2, r3, r5}	; <UNPREDICTABLE>
    2164:	0e6e193c 			; <UNDEFINED> instruction: 0x0e6e193c
    2168:	0b3a0e03 	bleq	e8597c <__bss_end__+0xe7b91c>
    216c:	00000b3b 	andeq	r0, r0, fp, lsr fp
    2170:	01110100 	tsteq	r1, r0, lsl #2
    2174:	0b130e25 	bleq	4c5a10 <__bss_end__+0x4bb9b0>
    2178:	0e1b0e03 	cdpeq	14, 1, cr0, cr11, cr3, {0}
    217c:	06120111 			; <UNDEFINED> instruction: 0x06120111
    2180:	00001710 	andeq	r1, r0, r0, lsl r7
    2184:	0b002402 	bleq	b194 <__bss_end__+0x1134>
    2188:	030b3e0b 	movweq	r3, #48651	; 0xbe0b
    218c:	03000008 	movweq	r0, #8
    2190:	0b0b0024 	bleq	2c2228 <__bss_end__+0x2b81c8>
    2194:	0e030b3e 	vmoveq.16	d3[0], r0
    2198:	26040000 	strcs	r0, [r4], -r0
    219c:	00134900 	andseq	r4, r3, r0, lsl #18
    21a0:	00160500 	andseq	r0, r6, r0, lsl #10
    21a4:	0b3a0e03 	bleq	e859b8 <__bss_end__+0xe7b958>
    21a8:	13490b3b 	movtne	r0, #39739	; 0x9b3b
    21ac:	16060000 	strne	r0, [r6], -r0
    21b0:	3a0e0300 	bcc	382db8 <__bss_end__+0x378d58>
    21b4:	49053b0b 	stmdbmi	r5, {r0, r1, r3, r8, r9, fp, ip, sp}
    21b8:	07000013 	smladeq	r0, r3, r0, r0
    21bc:	0b0b0117 	bleq	2c2620 <__bss_end__+0x2b85c0>
    21c0:	0b3b0b3a 	bleq	ec4eb0 <__bss_end__+0xebae50>
    21c4:	00001301 	andeq	r1, r0, r1, lsl #6
    21c8:	03000d08 	movweq	r0, #3336	; 0xd08
    21cc:	3b0b3a0e 	blcc	2d0a0c <__bss_end__+0x2c69ac>
    21d0:	0013490b 	andseq	r4, r3, fp, lsl #18
    21d4:	01010900 	tsteq	r1, r0, lsl #18
    21d8:	13011349 	movwne	r1, #4937	; 0x1349
    21dc:	210a0000 	mrscs	r0, (UNDEF: 10)
    21e0:	2f134900 	svccs	0x00134900
    21e4:	0b00000b 	bleq	2218 <_start-0x5de8>
    21e8:	0b0b0113 	bleq	2c263c <__bss_end__+0x2b85dc>
    21ec:	0b3b0b3a 	bleq	ec4edc <__bss_end__+0xebae7c>
    21f0:	00001301 	andeq	r1, r0, r1, lsl #6
    21f4:	03000d0c 	movweq	r0, #3340	; 0xd0c
    21f8:	3b0b3a0e 	blcc	2d0a38 <__bss_end__+0x2c69d8>
    21fc:	3813490b 	ldmdacc	r3, {r0, r1, r3, r8, fp, lr}
    2200:	0d00000b 	stceq	0, cr0, [r0, #-44]	; 0xffffffd4
    2204:	0b0b000f 	bleq	2c2248 <__bss_end__+0x2b81e8>
    2208:	0f0e0000 	svceq	0x000e0000
    220c:	490b0b00 	stmdbmi	fp, {r8, r9, fp}
    2210:	0f000013 	svceq	0x00000013
    2214:	0e030113 	mcreq	1, 0, r0, cr3, cr3, {0}
    2218:	0b3a0b0b 	bleq	e84e4c <__bss_end__+0xe7adec>
    221c:	13010b3b 	movwne	r0, #6971	; 0x1b3b
    2220:	0d100000 	ldceq	0, cr0, [r0, #-0]
    2224:	3a080300 	bcc	202e2c <__bss_end__+0x1f8dcc>
    2228:	490b3b0b 	stmdbmi	fp, {r0, r1, r3, r8, r9, fp, ip, sp}
    222c:	000b3813 	andeq	r3, fp, r3, lsl r8
    2230:	01131100 	tsteq	r3, r0, lsl #2
    2234:	050b0e03 	streq	r0, [fp, #-3587]	; 0xfffff1fd
    2238:	0b3b0b3a 	bleq	ec4f28 <__bss_end__+0xebaec8>
    223c:	00001301 	andeq	r1, r0, r1, lsl #6
    2240:	03000d12 	movweq	r0, #3346	; 0xd12
    2244:	3b0b3a0e 	blcc	2d0a84 <__bss_end__+0x2c6a24>
    2248:	3813490b 	ldmdacc	r3, {r0, r1, r3, r8, fp, lr}
    224c:	13000005 	movwne	r0, #5
    2250:	19270015 	stmdbne	r7!, {r0, r2, r4}
    2254:	15140000 	ldrne	r0, [r4, #-0]
    2258:	49192701 	ldmdbmi	r9, {r0, r8, r9, sl, sp}
    225c:	00130113 	andseq	r0, r3, r3, lsl r1
    2260:	00051500 	andeq	r1, r5, r0, lsl #10
    2264:	00001349 	andeq	r1, r0, r9, asr #6
    2268:	03011316 	movweq	r1, #4886	; 0x1316
    226c:	3a050b0e 	bcc	144eac <__bss_end__+0x13ae4c>
    2270:	01053b0b 	tsteq	r5, fp, lsl #22
    2274:	17000013 	smladne	r0, r3, r0, r0
    2278:	0e03000d 	cdpeq	0, 0, cr0, cr3, cr13, {0}
    227c:	053b0b3a 	ldreq	r0, [fp, #-2874]!	; 0xfffff4c6
    2280:	0b381349 	bleq	e06fac <__bss_end__+0xdfcf4c>
    2284:	0d180000 	ldceq	0, cr0, [r8, #-0]
    2288:	3a0e0300 	bcc	382e90 <__bss_end__+0x378e30>
    228c:	49053b0b 	stmdbmi	r5, {r0, r1, r3, r8, r9, fp, ip, sp}
    2290:	00053813 	andeq	r3, r5, r3, lsl r8
    2294:	01131900 	tsteq	r3, r0, lsl #18
    2298:	0b0b0e03 	bleq	2c5aac <__bss_end__+0x2bba4c>
    229c:	053b0b3a 	ldreq	r0, [fp, #-2874]!	; 0xfffff4c6
    22a0:	00001301 	andeq	r1, r0, r1, lsl #6
    22a4:	0b01131a 	bleq	46f14 <__bss_end__+0x3ceb4>
    22a8:	3b0b3a0b 	blcc	2d0adc <__bss_end__+0x2c6a7c>
    22ac:	00130105 	andseq	r0, r3, r5, lsl #2
    22b0:	01171b00 	tsteq	r7, r0, lsl #22
    22b4:	0b3a0b0b 	bleq	e84ee8 <__bss_end__+0xe7ae88>
    22b8:	1301053b 	movwne	r0, #5435	; 0x153b
    22bc:	0d1c0000 	ldceq	0, cr0, [ip, #-0]
    22c0:	3a0e0300 	bcc	382ec8 <__bss_end__+0x378e68>
    22c4:	49053b0b 	stmdbmi	r5, {r0, r1, r3, r8, r9, fp, ip, sp}
    22c8:	1d000013 	stcne	0, cr0, [r0, #-76]	; 0xffffffb4
    22cc:	19270115 	stmdbne	r7!, {r0, r2, r4, r8}
    22d0:	00001301 	andeq	r1, r0, r1, lsl #6
    22d4:	0300341e 	movweq	r3, #1054	; 0x41e
    22d8:	3b0b3a0e 	blcc	2d0b18 <__bss_end__+0x2c6ab8>
    22dc:	3f134905 	svccc	0x00134905
    22e0:	00193c19 	andseq	r3, r9, r9, lsl ip
    22e4:	00341f00 	eorseq	r1, r4, r0, lsl #30
    22e8:	0b3a0e03 	bleq	e85afc <__bss_end__+0xe7ba9c>
    22ec:	13490b3b 	movtne	r0, #39739	; 0x9b3b
    22f0:	193c193f 	ldmdbne	ip!, {r0, r1, r2, r3, r4, r5, r8, fp, ip}
    22f4:	04200000 	strteq	r0, [r0], #-0
    22f8:	490b0b01 	stmdbmi	fp, {r0, r8, r9, fp}
    22fc:	3b0b3a13 	blcc	2d0b50 <__bss_end__+0x2c6af0>
    2300:	0013010b 	andseq	r0, r3, fp, lsl #2
    2304:	00282100 	eoreq	r2, r8, r0, lsl #2
    2308:	0b1c0e03 	bleq	705b1c <__bss_end__+0x6fbabc>
    230c:	34220000 	strtcc	r0, [r2], #-0
    2310:	3a0e0300 	bcc	382f18 <__bss_end__+0x378eb8>
    2314:	490b3b0b 	stmdbmi	fp, {r0, r1, r3, r8, r9, fp, ip, sp}
    2318:	00061c13 	andeq	r1, r6, r3, lsl ip
    231c:	012e2300 			; <UNDEFINED> instruction: 0x012e2300
    2320:	0e03193f 			; <UNDEFINED> instruction: 0x0e03193f
    2324:	0b3b0b3a 	bleq	ec5014 <__bss_end__+0xebafb4>
    2328:	13491927 	movtne	r1, #39207	; 0x9927
    232c:	06120111 			; <UNDEFINED> instruction: 0x06120111
    2330:	42971840 	addsmi	r1, r7, #64, 16	; 0x400000
    2334:	00130119 	andseq	r0, r3, r9, lsl r1
    2338:	00052400 	andeq	r2, r5, r0, lsl #8
    233c:	0b3a0803 	bleq	e84350 <__bss_end__+0xe7a2f0>
    2340:	13490b3b 	movtne	r0, #39739	; 0x9b3b
    2344:	00001702 	andeq	r1, r0, r2, lsl #14
    2348:	03003425 	movweq	r3, #1061	; 0x425
    234c:	3b0b3a0e 	blcc	2d0b8c <__bss_end__+0x2c6b2c>
    2350:	0213490b 	andseq	r4, r3, #180224	; 0x2c000
    2354:	26000017 			; <UNDEFINED> instruction: 0x26000017
    2358:	08030034 	stmdaeq	r3, {r2, r4, r5}
    235c:	0b3b0b3a 	bleq	ec504c <__bss_end__+0xebafec>
    2360:	17021349 	strne	r1, [r2, -r9, asr #6]
    2364:	89270000 	stmdbhi	r7!, {}	; <UNPREDICTABLE>
    2368:	11010182 	smlabbne	r1, r2, r1, r0
    236c:	00133101 	andseq	r3, r3, r1, lsl #2
    2370:	828a2800 	addhi	r2, sl, #0, 16
    2374:	18020001 	stmdane	r2, {r0}
    2378:	00184291 	mulseq	r8, r1, r2
    237c:	012e2900 			; <UNDEFINED> instruction: 0x012e2900
    2380:	0e03193f 			; <UNDEFINED> instruction: 0x0e03193f
    2384:	0b3b0b3a 	bleq	ec5074 <__bss_end__+0xebb014>
    2388:	01111927 	tsteq	r1, r7, lsr #18
    238c:	18400612 	stmdane	r0, {r1, r4, r9, sl}^
    2390:	01194297 			; <UNDEFINED> instruction: 0x01194297
    2394:	2a000013 	bcs	23e8 <_start-0x5c18>
    2398:	01018289 	smlabbeq	r1, r9, r2, r8
    239c:	13310111 	teqne	r1, #1073741828	; 0x40000004
    23a0:	00001301 	andeq	r1, r0, r1, lsl #6
    23a4:	0182892b 	orreq	r8, r2, fp, lsr #18
    23a8:	31011100 	mrscc	r1, (UNDEF: 17)
    23ac:	2c000013 	stccs	0, cr0, [r0], {19}
    23b0:	0e030005 	cdpeq	0, 0, cr0, cr3, cr5, {0}
    23b4:	0b3b0b3a 	bleq	ec50a4 <__bss_end__+0xebb044>
    23b8:	17021349 	strne	r1, [r2, -r9, asr #6]
    23bc:	342d0000 	strtcc	r0, [sp], #-0
    23c0:	3a080300 	bcc	202fc8 <__bss_end__+0x1f8f68>
    23c4:	490b3b0b 	stmdbmi	fp, {r0, r1, r3, r8, r9, fp, ip, sp}
    23c8:	00180213 	andseq	r0, r8, r3, lsl r2
    23cc:	002e2e00 	eoreq	r2, lr, r0, lsl #28
    23d0:	193c193f 	ldmdbne	ip!, {r0, r1, r2, r3, r4, r5, r8, fp, ip}
    23d4:	0e030e6e 	cdpeq	14, 0, cr0, cr3, cr14, {3}
    23d8:	0b3b0b3a 	bleq	ec50c8 <__bss_end__+0xebb068>
    23dc:	01000000 	mrseq	r0, (UNDEF: 0)
    23e0:	0e250111 	mcreq	1, 1, r0, cr5, cr1, {0}
    23e4:	0e030b13 	vmoveq.32	d3[0], r0
    23e8:	01110e1b 	tsteq	r1, fp, lsl lr
    23ec:	17100612 			; <UNDEFINED> instruction: 0x17100612
    23f0:	24020000 	strcs	r0, [r2], #-0
    23f4:	3e0b0b00 	vmlacc.f64	d0, d11, d0
    23f8:	0008030b 	andeq	r0, r8, fp, lsl #6
    23fc:	00240300 	eoreq	r0, r4, r0, lsl #6
    2400:	0b3e0b0b 	bleq	f85034 <__bss_end__+0xf7afd4>
    2404:	00000e03 	andeq	r0, r0, r3, lsl #28
    2408:	03001604 	movweq	r1, #1540	; 0x604
    240c:	3b0b3a0e 	blcc	2d0c4c <__bss_end__+0x2c6bec>
    2410:	0013490b 	andseq	r4, r3, fp, lsl #18
    2414:	00160500 	andseq	r0, r6, r0, lsl #10
    2418:	0b3a0e03 	bleq	e85c2c <__bss_end__+0xe7bbcc>
    241c:	1349053b 	movtne	r0, #38203	; 0x953b
    2420:	17060000 	strne	r0, [r6, -r0]
    2424:	3a0b0b01 	bcc	2c5030 <__bss_end__+0x2bafd0>
    2428:	010b3b0b 	tsteq	fp, fp, lsl #22
    242c:	07000013 	smladeq	r0, r3, r0, r0
    2430:	0e03000d 	cdpeq	0, 0, cr0, cr3, cr13, {0}
    2434:	0b3b0b3a 	bleq	ec5124 <__bss_end__+0xebb0c4>
    2438:	00001349 	andeq	r1, r0, r9, asr #6
    243c:	49010108 	stmdbmi	r1, {r3, r8}
    2440:	00130113 	andseq	r0, r3, r3, lsl r1
    2444:	00210900 	eoreq	r0, r1, r0, lsl #18
    2448:	0b2f1349 	bleq	bc7174 <__bss_end__+0xbbd114>
    244c:	130a0000 	movwne	r0, #40960	; 0xa000
    2450:	3a0b0b01 	bcc	2c505c <__bss_end__+0x2baffc>
    2454:	010b3b0b 	tsteq	fp, fp, lsl #22
    2458:	0b000013 	bleq	24ac <_start-0x5b54>
    245c:	0e03000d 	cdpeq	0, 0, cr0, cr3, cr13, {0}
    2460:	0b3b0b3a 	bleq	ec5150 <__bss_end__+0xebb0f0>
    2464:	0b381349 	bleq	e07190 <__bss_end__+0xdfd130>
    2468:	0f0c0000 	svceq	0x000c0000
    246c:	000b0b00 	andeq	r0, fp, r0, lsl #22
    2470:	000f0d00 	andeq	r0, pc, r0, lsl #26
    2474:	13490b0b 	movtne	r0, #39691	; 0x9b0b
    2478:	260e0000 	strcs	r0, [lr], -r0
    247c:	00134900 	andseq	r4, r3, r0, lsl #18
    2480:	01130f00 	tsteq	r3, r0, lsl #30
    2484:	0b0b0e03 	bleq	2c5c98 <__bss_end__+0x2bbc38>
    2488:	0b3b0b3a 	bleq	ec5178 <__bss_end__+0xebb118>
    248c:	00001301 	andeq	r1, r0, r1, lsl #6
    2490:	03000d10 	movweq	r0, #3344	; 0xd10
    2494:	3b0b3a08 	blcc	2d0cbc <__bss_end__+0x2c6c5c>
    2498:	3813490b 	ldmdacc	r3, {r0, r1, r3, r8, fp, lr}
    249c:	1100000b 	tstne	r0, fp
    24a0:	0e030113 	mcreq	1, 0, r0, cr3, cr3, {0}
    24a4:	0b3a050b 	bleq	e838d8 <__bss_end__+0xe79878>
    24a8:	13010b3b 	movwne	r0, #6971	; 0x1b3b
    24ac:	0d120000 	ldceq	0, cr0, [r2, #-0]
    24b0:	3a0e0300 	bcc	3830b8 <__bss_end__+0x379058>
    24b4:	490b3b0b 	stmdbmi	fp, {r0, r1, r3, r8, r9, fp, ip, sp}
    24b8:	00053813 	andeq	r3, r5, r3, lsl r8
    24bc:	00151300 	andseq	r1, r5, r0, lsl #6
    24c0:	00001927 	andeq	r1, r0, r7, lsr #18
    24c4:	27011514 	smladcs	r1, r4, r5, r1
    24c8:	01134919 	tsteq	r3, r9, lsl r9
    24cc:	15000013 	strne	r0, [r0, #-19]	; 0xffffffed
    24d0:	13490005 	movtne	r0, #36869	; 0x9005
    24d4:	13160000 	tstne	r6, #0
    24d8:	0b0e0301 	bleq	3830e4 <__bss_end__+0x379084>
    24dc:	3b0b3a05 	blcc	2d0cf8 <__bss_end__+0x2c6c98>
    24e0:	00130105 	andseq	r0, r3, r5, lsl #2
    24e4:	000d1700 	andeq	r1, sp, r0, lsl #14
    24e8:	0b3a0e03 	bleq	e85cfc <__bss_end__+0xe7bc9c>
    24ec:	1349053b 	movtne	r0, #38203	; 0x953b
    24f0:	00000b38 	andeq	r0, r0, r8, lsr fp
    24f4:	03000d18 	movweq	r0, #3352	; 0xd18
    24f8:	3b0b3a0e 	blcc	2d0d38 <__bss_end__+0x2c6cd8>
    24fc:	38134905 	ldmdacc	r3, {r0, r2, r8, fp, lr}
    2500:	19000005 	stmdbne	r0, {r0, r2}
    2504:	0e030113 	mcreq	1, 0, r0, cr3, cr3, {0}
    2508:	0b3a0b0b 	bleq	e8513c <__bss_end__+0xe7b0dc>
    250c:	1301053b 	movwne	r0, #5435	; 0x153b
    2510:	131a0000 	tstne	sl, #0
    2514:	3a0b0b01 	bcc	2c5120 <__bss_end__+0x2bb0c0>
    2518:	01053b0b 	tsteq	r5, fp, lsl #22
    251c:	1b000013 	blne	2570 <_start-0x5a90>
    2520:	0b0b0117 	bleq	2c2984 <__bss_end__+0x2b8924>
    2524:	053b0b3a 	ldreq	r0, [fp, #-2874]!	; 0xfffff4c6
    2528:	00001301 	andeq	r1, r0, r1, lsl #6
    252c:	03000d1c 	movweq	r0, #3356	; 0xd1c
    2530:	3b0b3a0e 	blcc	2d0d70 <__bss_end__+0x2c6d10>
    2534:	00134905 	andseq	r4, r3, r5, lsl #18
    2538:	01151d00 	tsteq	r5, r0, lsl #26
    253c:	13011927 	movwne	r1, #6439	; 0x1927
    2540:	341e0000 	ldrcc	r0, [lr], #-0
    2544:	3a0e0300 	bcc	38314c <__bss_end__+0x3790ec>
    2548:	49053b0b 	stmdbmi	r5, {r0, r1, r3, r8, r9, fp, ip, sp}
    254c:	3c193f13 	ldccc	15, cr3, [r9], {19}
    2550:	1f000019 	svcne	0x00000019
    2554:	0e030034 	mcreq	0, 0, r0, cr3, cr4, {1}
    2558:	0b3b0b3a 	bleq	ec5248 <__bss_end__+0xebb1e8>
    255c:	193f1349 	ldmdbne	pc!, {r0, r3, r6, r8, r9, ip}	; <UNPREDICTABLE>
    2560:	0000193c 	andeq	r1, r0, ip, lsr r9
    2564:	03003420 	movweq	r3, #1056	; 0x420
    2568:	3b0b3a0e 	blcc	2d0da8 <__bss_end__+0x2c6d48>
    256c:	0213490b 	andseq	r4, r3, #180224	; 0x2c000
    2570:	21000018 	tstcs	r0, r8, lsl r0
    2574:	193f012e 	ldmdbne	pc!, {r1, r2, r3, r5, r8}	; <UNPREDICTABLE>
    2578:	0b3a0e03 	bleq	e85d8c <__bss_end__+0xe7bd2c>
    257c:	19270b3b 	stmdbne	r7!, {r0, r1, r3, r4, r5, r8, r9, fp}
    2580:	06120111 			; <UNDEFINED> instruction: 0x06120111
    2584:	42971840 	addsmi	r1, r7, #64, 16	; 0x400000
    2588:	00130119 	andseq	r0, r3, r9, lsl r1
    258c:	00052200 	andeq	r2, r5, r0, lsl #4
    2590:	0b3a0803 	bleq	e845a4 <__bss_end__+0xe7a544>
    2594:	13490b3b 	movtne	r0, #39739	; 0x9b3b
    2598:	00001802 	andeq	r1, r0, r2, lsl #16
    259c:	3f002e23 	svccc	0x00002e23
    25a0:	3a0e0319 	bcc	38320c <__bss_end__+0x3791ac>
    25a4:	270b3b0b 	strcs	r3, [fp, -fp, lsl #22]
    25a8:	12011119 	andne	r1, r1, #1073741830	; 0x40000006
    25ac:	97184006 	ldrls	r4, [r8, -r6]
    25b0:	00001942 	andeq	r1, r0, r2, asr #18
    25b4:	3f012e24 	svccc	0x00012e24
    25b8:	3a0e0319 	bcc	383224 <__bss_end__+0x3791c4>
    25bc:	270b3b0b 	strcs	r3, [fp, -fp, lsl #22]
    25c0:	11134919 	tstne	r3, r9, lsl r9
    25c4:	40061201 	andmi	r1, r6, r1, lsl #4
    25c8:	19429718 	stmdbne	r2, {r3, r4, r8, r9, sl, ip, pc}^
    25cc:	00001301 	andeq	r1, r0, r1, lsl #6
    25d0:	03000525 	movweq	r0, #1317	; 0x525
    25d4:	3b0b3a0e 	blcc	2d0e14 <__bss_end__+0x2c6db4>
    25d8:	0213490b 	andseq	r4, r3, #180224	; 0x2c000
    25dc:	26000017 			; <UNDEFINED> instruction: 0x26000017
    25e0:	0e030034 	mcreq	0, 0, r0, cr3, cr4, {1}
    25e4:	19341349 	ldmdbne	r4!, {r0, r3, r6, r8, r9, ip}
    25e8:	00001802 	andeq	r1, r0, r2, lsl #16
    25ec:	03003427 	movweq	r3, #1063	; 0x427
    25f0:	3b0b3a08 	blcc	2d0e18 <__bss_end__+0x2c6db8>
    25f4:	0213490b 	andseq	r4, r3, #180224	; 0x2c000
    25f8:	28000017 	stmdacs	r0, {r0, r1, r2, r4}
    25fc:	01018289 	smlabbeq	r1, r9, r2, r8
    2600:	13310111 	teqne	r1, #1073741828	; 0x40000004
    2604:	00001301 	andeq	r1, r0, r1, lsl #6
    2608:	01828a29 	orreq	r8, r2, r9, lsr #20
    260c:	91180200 	tstls	r8, r0, lsl #4
    2610:	00001842 	andeq	r1, r0, r2, asr #16
    2614:	0182892a 	orreq	r8, r2, sl, lsr #18
    2618:	31011100 	mrscc	r1, (UNDEF: 17)
    261c:	2b000013 	blcs	2670 <_start-0x5990>
    2620:	08030005 	stmdaeq	r3, {r0, r2}
    2624:	0b3b0b3a 	bleq	ec5314 <__bss_end__+0xebb2b4>
    2628:	17021349 	strne	r1, [r2, -r9, asr #6]
    262c:	342c0000 	strtcc	r0, [ip], #-0
    2630:	3a0e0300 	bcc	383238 <__bss_end__+0x3791d8>
    2634:	490b3b0b 	stmdbmi	fp, {r0, r1, r3, r8, r9, fp, ip, sp}
    2638:	00170213 	andseq	r0, r7, r3, lsl r2
    263c:	002e2d00 	eoreq	r2, lr, r0, lsl #26
    2640:	0e03193f 			; <UNDEFINED> instruction: 0x0e03193f
    2644:	0b3b0b3a 	bleq	ec5334 <__bss_end__+0xebb2d4>
    2648:	13491927 	movtne	r1, #39207	; 0x9927
    264c:	06120111 			; <UNDEFINED> instruction: 0x06120111
    2650:	42971840 	addsmi	r1, r7, #64, 16	; 0x400000
    2654:	2e000019 	mcrcs	0, 0, r0, cr0, cr9, {0}
    2658:	193f002e 	ldmdbne	pc!, {r1, r2, r3, r5}	; <UNPREDICTABLE>
    265c:	0e6e193c 			; <UNDEFINED> instruction: 0x0e6e193c
    2660:	0b3a0e03 	bleq	e85e74 <__bss_end__+0xe7be14>
    2664:	00000b3b 	andeq	r0, r0, fp, lsr fp
	...

Disassembly of section .debug_loc:

00000000 <.debug_loc>:
       0:	00000000 	andeq	r0, r0, r0
       4:	0000004c 	andeq	r0, r0, ip, asr #32
       8:	0000004f 	andeq	r0, r0, pc, asr #32
       c:	4f500001 	svcmi	0x00500001
      10:	e8000000 	stmda	r0, {}	; <UNPREDICTABLE>
      14:	01000000 	mrseq	r0, (UNDEF: 0)
      18:	00005700 	andeq	r5, r0, r0, lsl #14
	...
      24:	006c0000 	rsbeq	r0, ip, r0
      28:	007c0000 	rsbseq	r0, ip, r0
      2c:	00010000 	andeq	r0, r1, r0
      30:	00007c50 	andeq	r7, r0, r0, asr ip
      34:	0000e800 	andeq	lr, r0, r0, lsl #16
      38:	56000100 	strpl	r0, [r0], -r0, lsl #2
	...
      44:	072c0000 	streq	r0, [ip, -r0]!
      48:	07540000 	ldrbeq	r0, [r4, -r0]
      4c:	00010000 	andeq	r0, r1, r0
      50:	00000055 	andeq	r0, r0, r5, asr r0
      54:	00000000 	andeq	r0, r0, r0
      58:	34000000 	strcc	r0, [r0], #-0
      5c:	58000007 	stmdapl	r0, {r0, r1, r2}
      60:	01000007 	tsteq	r0, r7
      64:	00005600 	andeq	r5, r0, r0, lsl #12
      68:	00000000 	andeq	r0, r0, r0
      6c:	00020000 	andeq	r0, r2, r0
      70:	074c0000 	strbeq	r0, [ip, -r0]
      74:	075c0000 	ldrbeq	r0, [ip, -r0]
      78:	00020000 	andeq	r0, r2, r0
      7c:	075c9f30 	smmlareq	ip, r0, pc, r9	; <UNPREDICTABLE>
      80:	08680000 	stmdaeq	r8!, {}^	; <UNPREDICTABLE>
      84:	00010000 	andeq	r0, r1, r0
      88:	00000056 	andeq	r0, r0, r6, asr r0
      8c:	00000000 	andeq	r0, r0, r0
      90:	00000300 	andeq	r0, r0, r0, lsl #6
      94:	00074c00 	andeq	r4, r7, r0, lsl #24
      98:	00075c00 	andeq	r5, r7, r0, lsl #24
      9c:	30000200 	andcc	r0, r0, r0, lsl #4
      a0:	00075c9f 	muleq	r7, pc, ip	; <UNPREDICTABLE>
      a4:	00086800 	andeq	r6, r8, r0, lsl #16
      a8:	55000100 	strpl	r0, [r0, #-256]	; 0xffffff00
	...
      b4:	07500000 	ldrbeq	r0, [r0, -r0]
      b8:	08680000 	stmdaeq	r8!, {}^	; <UNPREDICTABLE>
      bc:	00010000 	andeq	r0, r1, r0
      c0:	00000054 	andeq	r0, r0, r4, asr r0
	...
      d0:	fc000000 	stc2	0, cr0, [r0], {-0}
      d4:	28000004 	stmdacs	r0, {r2}
      d8:	01000005 	tsteq	r0, r5
      dc:	05285000 	streq	r5, [r8, #-0]!
      e0:	06240000 	strteq	r0, [r4], -r0
      e4:	00010000 	andeq	r0, r1, r0
      e8:	00062455 	andeq	r2, r6, r5, asr r4
      ec:	00062700 	andeq	r2, r6, r0, lsl #14
      f0:	50000100 	andpl	r0, r0, r0, lsl #2
      f4:	00000627 	andeq	r0, r0, r7, lsr #12
      f8:	00000640 	andeq	r0, r0, r0, asr #12
      fc:	01f30004 	mvnseq	r0, r4
     100:	06409f50 			; <UNDEFINED> instruction: 0x06409f50
     104:	07180000 	ldreq	r0, [r8, -r0]
     108:	00010000 	andeq	r0, r1, r0
     10c:	00000055 	andeq	r0, r0, r5, asr r0
	...
     11c:	fc000000 	stc2	0, cr0, [r0], {-0}
     120:	2b000004 	blcs	138 <_start-0x7ec8>
     124:	01000005 	tsteq	r0, r5
     128:	052b5100 	streq	r5, [fp, #-256]!	; 0xffffff00
     12c:	06240000 	strteq	r0, [r4], -r0
     130:	00010000 	andeq	r0, r1, r0
     134:	00062458 	andeq	r2, r6, r8, asr r4
     138:	00062700 	andeq	r2, r6, r0, lsl #14
     13c:	51000100 	mrspl	r0, (UNDEF: 16)
     140:	00000627 	andeq	r0, r0, r7, lsr #12
     144:	00000640 	andeq	r0, r0, r0, asr #12
     148:	01f30004 	mvnseq	r0, r4
     14c:	06409f51 			; <UNDEFINED> instruction: 0x06409f51
     150:	07180000 	ldreq	r0, [r8, -r0]
     154:	00010000 	andeq	r0, r1, r0
     158:	00000058 	andeq	r0, r0, r8, asr r0
	...
     168:	fc000000 	stc2	0, cr0, [r0], {-0}
     16c:	2b000004 	blcs	184 <_start-0x7e7c>
     170:	01000005 	tsteq	r0, r5
     174:	052b5200 	streq	r5, [fp, #-512]!	; 0xfffffe00
     178:	06240000 	strteq	r0, [r4], -r0
     17c:	00010000 	andeq	r0, r1, r0
     180:	00062457 	andeq	r2, r6, r7, asr r4
     184:	00062700 	andeq	r2, r6, r0, lsl #14
     188:	52000100 	andpl	r0, r0, #0, 2
     18c:	00000627 	andeq	r0, r0, r7, lsr #12
     190:	00000640 	andeq	r0, r0, r0, asr #12
     194:	01f30004 	mvnseq	r0, r4
     198:	06409f52 			; <UNDEFINED> instruction: 0x06409f52
     19c:	07180000 	ldreq	r0, [r8, -r0]
     1a0:	00010000 	andeq	r0, r1, r0
     1a4:	00000057 	andeq	r0, r0, r7, asr r0
	...
     1b4:	fc000000 	stc2	0, cr0, [r0], {-0}
     1b8:	0c000004 	stceq	0, cr0, [r0], {4}
     1bc:	01000005 	tsteq	r0, r5
     1c0:	050c5300 	streq	r5, [ip, #-768]	; 0xfffffd00
     1c4:	05b00000 	ldreq	r0, [r0, #0]!
     1c8:	00010000 	andeq	r0, r1, r0
     1cc:	0005b056 	andeq	fp, r5, r6, asr r0
     1d0:	00062400 	andeq	r2, r6, r0, lsl #8
     1d4:	f3000400 	vshl.u8	d0, d0, d0
     1d8:	249f5301 	ldrcs	r5, [pc], #769	; 1e0 <_start-0x7e20>
     1dc:	c8000006 	stmdagt	r0, {r1, r2}
     1e0:	01000006 	tsteq	r0, r6
     1e4:	06c85600 	strbeq	r5, [r8], r0, lsl #12
     1e8:	07180000 	ldreq	r0, [r8, -r0]
     1ec:	00040000 	andeq	r0, r4, r0
     1f0:	9f5301f3 	svcls	0x005301f3
	...
     1fc:	00030301 	andeq	r0, r3, r1, lsl #6
     200:	00000000 	andeq	r0, r0, r0
     204:	00000508 	andeq	r0, r0, r8, lsl #10
     208:	00000564 	andeq	r0, r0, r4, ror #10
     20c:	9f300002 	svcls	0x00300002
     210:	00000564 	andeq	r0, r0, r4, ror #10
     214:	000005fc 	strdeq	r0, [r0], -ip
     218:	24540001 	ldrbcs	r0, [r4], #-1
     21c:	c8000006 	stmdagt	r0, {r1, r2}
     220:	02000006 	andeq	r0, r0, #6
     224:	c89f3000 	ldmgt	pc, {ip, sp}	; <UNPREDICTABLE>
     228:	18000006 	stmdane	r0, {r1, r2}
     22c:	01000007 	tsteq	r0, r7
     230:	00005400 	andeq	r5, r0, r0, lsl #8
     234:	00000000 	andeq	r0, r0, r0
     238:	00020000 	andeq	r0, r2, r0
     23c:	00000000 	andeq	r0, r0, r0
     240:	05080000 	streq	r0, [r8, #-0]
     244:	05fc0000 	ldrbeq	r0, [ip, #0]!
     248:	00020000 	andeq	r0, r2, r0
     24c:	05fc9f30 	ldrbeq	r9, [ip, #3888]!	; 0xf30
     250:	06000000 	streq	r0, [r0], -r0
     254:	00010000 	andeq	r0, r1, r0
     258:	00060050 	andeq	r0, r6, r0, asr r0
     25c:	00062400 	andeq	r2, r6, r0, lsl #8
     260:	54000100 	strpl	r0, [r0], #-256	; 0xffffff00
     264:	00000624 	andeq	r0, r0, r4, lsr #12
     268:	00000718 	andeq	r0, r0, r8, lsl r7
     26c:	9f300002 	svcls	0x00300002
	...
     284:	00000540 	andeq	r0, r0, r0, asr #10
     288:	0000056c 	andeq	r0, r0, ip, ror #10
     28c:	6c500001 	mrrcvs	0, 0, r0, r0, cr1	; <UNPREDICTABLE>
     290:	24000005 	strcs	r0, [r0], #-5
     294:	04000006 	streq	r0, [r0], #-6
     298:	7dc87900 	vstrvc.16	s15, [r8]	; <UNPREDICTABLE>
     29c:	0006409f 	muleq	r6, pc, r0	; <UNPREDICTABLE>
     2a0:	00064400 	andeq	r4, r6, r0, lsl #8
     2a4:	50000100 	andpl	r0, r0, r0, lsl #2
     2a8:	00000644 	andeq	r0, r0, r4, asr #12
     2ac:	00000674 	andeq	r0, r0, r4, ror r6
     2b0:	c8790004 	ldmdagt	r9!, {r2}^
     2b4:	06749f7d 	uhsub16eq	r9, r4, sp
     2b8:	06780000 	ldrbteq	r0, [r8], -r0
     2bc:	00010000 	andeq	r0, r1, r0
     2c0:	00067850 	andeq	r7, r6, r0, asr r8
     2c4:	00071800 	andeq	r1, r7, r0, lsl #16
     2c8:	79000400 	stmdbvc	r0, {sl}
     2cc:	009f7dc8 	addseq	r7, pc, r8, asr #27
	...
     2d8:	44000000 	strmi	r0, [r0], #-0
     2dc:	24000005 	strcs	r0, [r0], #-5
     2e0:	01000006 	tsteq	r0, r6
     2e4:	06405900 	strbeq	r5, [r0], -r0, lsl #18
     2e8:	07180000 	ldreq	r0, [r8, -r0]
     2ec:	00010000 	andeq	r0, r1, r0
     2f0:	00000059 	andeq	r0, r0, r9, asr r0
	...
     2fc:	00044400 	andeq	r4, r4, r0, lsl #8
     300:	00045b00 	andeq	r5, r4, r0, lsl #22
     304:	50000100 	andpl	r0, r0, r0, lsl #2
     308:	0000045b 	andeq	r0, r0, fp, asr r4
     30c:	000004fc 	strdeq	r0, [r0], -ip
     310:	00550001 	subseq	r0, r5, r1
	...
     31c:	44000000 	strmi	r0, [r0], #-0
     320:	5b000004 	blpl	338 <_start-0x7cc8>
     324:	01000004 	tsteq	r0, r4
     328:	045b5100 	ldrbeq	r5, [fp], #-256	; 0xffffff00
     32c:	04fc0000 	ldrbteq	r0, [ip], #0
     330:	00010000 	andeq	r0, r1, r0
     334:	00000057 	andeq	r0, r0, r7, asr r0
	...
     340:	00044400 	andeq	r4, r4, r0, lsl #8
     344:	00045b00 	andeq	r5, r4, r0, lsl #22
     348:	52000100 	andpl	r0, r0, #0, 2
     34c:	0000045b 	andeq	r0, r0, fp, asr r4
     350:	000004fc 	strdeq	r0, [r0], -ip
     354:	00560001 	subseq	r0, r6, r1
	...
     360:	44000000 	strmi	r0, [r0], #-0
     364:	5b000004 	blpl	37c <_start-0x7c84>
     368:	01000004 	tsteq	r0, r4
     36c:	045b5300 	ldrbeq	r5, [fp], #-768	; 0xfffffd00
     370:	04fc0000 	ldrbteq	r0, [ip], #0
     374:	00010000 	andeq	r0, r1, r0
     378:	00000058 	andeq	r0, r0, r8, asr r0
	...
     384:	5c000000 	stcpl	0, cr0, [r0], {-0}
     388:	74000004 	strvc	r0, [r0], #-4
     38c:	01000004 	tsteq	r0, r4
     390:	04745000 	ldrbteq	r5, [r4], #-0
     394:	04c80000 	strbeq	r0, [r8], #0
     398:	00010000 	andeq	r0, r1, r0
     39c:	0004c854 	andeq	ip, r4, r4, asr r8
     3a0:	0004cb00 	andeq	ip, r4, r0, lsl #22
     3a4:	50000100 	andpl	r0, r0, r0, lsl #2
	...
     3b4:	0000036c 	andeq	r0, r0, ip, ror #6
     3b8:	00000377 	andeq	r0, r0, r7, ror r3
     3bc:	77500001 	ldrbvc	r0, [r0, -r1]
     3c0:	d0000003 	andle	r0, r0, r3
     3c4:	01000003 	tsteq	r0, r3
     3c8:	00005400 	andeq	r5, r0, r0, lsl #8
	...
     3d4:	01500000 	cmpeq	r0, r0
     3d8:	015f0000 	cmpeq	pc, r0
     3dc:	00010000 	andeq	r0, r1, r0
     3e0:	00015f50 	andeq	r5, r1, r0, asr pc
     3e4:	00016400 	andeq	r6, r1, r0, lsl #8
     3e8:	f3000400 	vshl.u8	d0, d0, d0
     3ec:	009f5001 	addseq	r5, pc, r1
	...
     3fc:	00015000 	andeq	r5, r1, r0
     400:	00015c00 	andeq	r5, r1, r0, lsl #24
     404:	51000100 	mrspl	r0, (UNDEF: 16)
     408:	0000015c 	andeq	r0, r0, ip, asr r1
     40c:	0000015f 	andeq	r0, r0, pc, asr r1
     410:	5f520001 	svcpl	0x00520001
     414:	64000001 	strvs	r0, [r0], #-1
     418:	04000001 	streq	r0, [r0], #-1
     41c:	5101f300 	mrspl	pc, SP_irq	; <UNPREDICTABLE>
     420:	0000009f 	muleq	r0, pc, r0	; <UNPREDICTABLE>
	...
     430:	00004400 	andeq	r4, r0, r0, lsl #8
     434:	00007000 	andeq	r7, r0, r0
     438:	50000100 	andpl	r0, r0, r0, lsl #2
     43c:	00000070 	andeq	r0, r0, r0, ror r0
     440:	0000012c 	andeq	r0, r0, ip, lsr #2
     444:	2c550001 	mrrccs	0, 0, r0, r5, cr1
     448:	30000001 	andcc	r0, r0, r1
     44c:	01000001 	tsteq	r0, r1
     450:	01305000 	teqeq	r0, r0
     454:	01500000 	cmpeq	r0, r0
     458:	00010000 	andeq	r0, r1, r0
     45c:	00000055 	andeq	r0, r0, r5, asr r0
	...
     468:	44000000 	strmi	r0, [r0], #-0
     46c:	73000000 	movwvc	r0, #0
     470:	01000000 	mrseq	r0, (UNDEF: 0)
     474:	00735100 	rsbseq	r5, r3, r0, lsl #2
     478:	012c0000 			; <UNDEFINED> instruction: 0x012c0000
     47c:	00040000 	andeq	r0, r4, r0
     480:	9f5101f3 	svcls	0x005101f3
     484:	0000012c 	andeq	r0, r0, ip, lsr #2
     488:	00000150 	andeq	r0, r0, r0, asr r1
     48c:	00510001 	subseq	r0, r1, r1
	...
     49c:	00004400 	andeq	r4, r0, r0, lsl #8
     4a0:	00007300 	andeq	r7, r0, r0, lsl #6
     4a4:	52000100 	andpl	r0, r0, #0, 2
     4a8:	00000073 	andeq	r0, r0, r3, ror r0
     4ac:	0000012c 	andeq	r0, r0, ip, lsr #2
     4b0:	2c560001 	mrrccs	0, 0, r0, r6, cr1
     4b4:	50000001 	andpl	r0, r0, r1
     4b8:	01000001 	tsteq	r0, r1
     4bc:	00005200 	andeq	r5, r0, r0, lsl #4
     4c0:	00000000 	andeq	r0, r0, r0
     4c4:	00020000 	andeq	r0, r2, r0
     4c8:	00000000 	andeq	r0, r0, r0
     4cc:	00000050 	andeq	r0, r0, r0, asr r0
     4d0:	00000054 	andeq	r0, r0, r4, asr r0
     4d4:	9f300002 	svcls	0x00300002
     4d8:	00000054 	andeq	r0, r0, r4, asr r0
     4dc:	0000007c 	andeq	r0, r0, ip, ror r0
     4e0:	2c540001 	mrrccs	0, 0, r0, r4, cr1
     4e4:	50000001 	andpl	r0, r0, r1
     4e8:	01000001 	tsteq	r0, r1
     4ec:	00005400 	andeq	r5, r0, r0, lsl #8
	...
     4f8:	0000007c 	andeq	r0, r0, ip, ror r0
     4fc:	0000012c 	andeq	r0, r0, ip, lsr #2
     500:	00540001 	subseq	r0, r4, r1
     504:	00000000 	andeq	r0, r0, r0
     508:	01000000 	mrseq	r0, (UNDEF: 0)
     50c:	a0000001 	andge	r0, r0, r1
     510:	e8000000 	stmda	r0, {}	; <UNPREDICTABLE>
     514:	01000000 	mrseq	r0, (UNDEF: 0)
     518:	01005600 	tsteq	r0, r0, lsl #12
     51c:	012c0000 			; <UNDEFINED> instruction: 0x012c0000
     520:	00010000 	andeq	r0, r1, r0
     524:	00000056 	andeq	r0, r0, r6, asr r0
     528:	00000000 	andeq	r0, r0, r0
     52c:	02020200 	andeq	r0, r2, #0, 4
     530:	0000b400 	andeq	fp, r0, r0, lsl #8
     534:	0000dc00 	andeq	sp, r0, r0, lsl #24
     538:	76000300 	strvc	r0, [r0], -r0, lsl #6
     53c:	00dc9f10 	sbcseq	r9, ip, r0, lsl pc
     540:	012c0000 			; <UNDEFINED> instruction: 0x012c0000
     544:	00030000 	andeq	r0, r3, r0
     548:	009f1c76 	addseq	r1, pc, r6, ror ip	; <UNPREDICTABLE>
	...
     558:	70000000 	andvc	r0, r0, r0
     55c:	9c000002 	stcls	0, cr0, [r0], {2}
     560:	01000002 	tsteq	r0, r2
     564:	029c5000 	addseq	r5, ip, #0
     568:	034c0000 	movteq	r0, #49152	; 0xc000
     56c:	00010000 	andeq	r0, r1, r0
     570:	00034c55 	andeq	r4, r3, r5, asr ip
     574:	00035000 	andeq	r5, r3, r0
     578:	50000100 	andpl	r0, r0, r0, lsl #2
     57c:	00000350 	andeq	r0, r0, r0, asr r3
     580:	0000036c 	andeq	r0, r0, ip, ror #6
     584:	00550001 	subseq	r0, r5, r1
	...
     594:	00027000 	andeq	r7, r2, r0
     598:	00029f00 	andeq	r9, r2, r0, lsl #30
     59c:	51000100 	mrspl	r0, (UNDEF: 16)
     5a0:	0000029f 	muleq	r0, pc, r2	; <UNPREDICTABLE>
     5a4:	0000034c 	andeq	r0, r0, ip, asr #6
     5a8:	01f30004 	mvnseq	r0, r4
     5ac:	034c9f51 	movteq	r9, #53073	; 0xcf51
     5b0:	036c0000 	cmneq	ip, #0
     5b4:	00010000 	andeq	r0, r1, r0
     5b8:	00000051 	andeq	r0, r0, r1, asr r0
	...
     5c4:	70000000 	andvc	r0, r0, r0
     5c8:	9f000002 	svcls	0x00000002
     5cc:	01000002 	tsteq	r0, r2
     5d0:	029f5200 	addseq	r5, pc, #0, 4
     5d4:	034c0000 	movteq	r0, #49152	; 0xc000
     5d8:	00010000 	andeq	r0, r1, r0
     5dc:	00034c56 	andeq	r4, r3, r6, asr ip
     5e0:	00036c00 	andeq	r6, r3, r0, lsl #24
     5e4:	52000100 	andpl	r0, r0, #0, 2
	...
     5f0:	00000002 	andeq	r0, r0, r2
     5f4:	027c0000 	rsbseq	r0, ip, #0
     5f8:	02800000 	addeq	r0, r0, #0
     5fc:	00020000 	andeq	r0, r2, r0
     600:	02809f30 	addeq	r9, r0, #48, 30	; 0xc0
     604:	02a80000 	adceq	r0, r8, #0
     608:	00010000 	andeq	r0, r1, r0
     60c:	00034c54 	andeq	r4, r3, r4, asr ip
     610:	00036c00 	andeq	r6, r3, r0, lsl #24
     614:	54000100 	strpl	r0, [r0], #-256	; 0xffffff00
	...
     620:	02a80000 	adceq	r0, r8, #0
     624:	034c0000 	movteq	r0, #49152	; 0xc000
     628:	00010000 	andeq	r0, r1, r0
     62c:	00000054 	andeq	r0, r0, r4, asr r0
     630:	00000000 	andeq	r0, r0, r0
     634:	d0000100 	andle	r0, r0, r0, lsl #2
     638:	4c000002 	stcmi	0, cr0, [r0], {2}
     63c:	01000003 	tsteq	r0, r3
     640:	00005600 	andeq	r5, r0, r0, lsl #12
     644:	00000000 	andeq	r0, r0, r0
     648:	02020000 	andeq	r0, r2, #0
     64c:	02e40002 	rsceq	r0, r4, #2
     650:	030c0000 	movweq	r0, #49152	; 0xc000
     654:	00030000 	andeq	r0, r3, r0
     658:	0c9f1076 	ldceq	0, cr1, [pc], {118}	; 0x76
     65c:	4c000003 	stcmi	0, cr0, [r0], {3}
     660:	03000003 	movweq	r0, #3
     664:	9f1c7600 	svcls	0x001c7600
	...
     674:	00000188 	andeq	r0, r0, r8, lsl #3
     678:	000001a7 	andeq	r0, r0, r7, lsr #3
     67c:	a7500001 	ldrbge	r0, [r0, -r1]
     680:	70000001 	andvc	r0, r0, r1
     684:	01000002 	tsteq	r0, r2
     688:	00005400 	andeq	r5, r0, r0, lsl #8
     68c:	00000000 	andeq	r0, r0, r0
     690:	00010000 	andeq	r0, r1, r0
     694:	000001d4 	ldrdeq	r0, [r0], -r4
     698:	00000250 	andeq	r0, r0, r0, asr r2
     69c:	00540001 	subseq	r0, r4, r1
     6a0:	00000000 	andeq	r0, r0, r0
     6a4:	02000000 	andeq	r0, r0, #0
     6a8:	e8000202 	stmda	r0, {r1, r9}
     6ac:	10000001 	andne	r0, r0, r1
     6b0:	03000002 	movweq	r0, #2
     6b4:	9f107400 	svcls	0x00107400
     6b8:	00000210 	andeq	r0, r0, r0, lsl r2
     6bc:	00000250 	andeq	r0, r0, r0, asr r2
     6c0:	1c740003 	ldclne	0, cr0, [r4], #-12
     6c4:	0000009f 	muleq	r0, pc, r0	; <UNPREDICTABLE>
	...
     6d0:	00016400 	andeq	r6, r1, r0, lsl #8
     6d4:	00017f00 	andeq	r7, r1, r0, lsl #30
     6d8:	50000100 	andpl	r0, r0, r0, lsl #2
     6dc:	0000017f 	andeq	r0, r0, pc, ror r1
     6e0:	00000188 	andeq	r0, r0, r8, lsl #3
     6e4:	00540001 	subseq	r0, r4, r1
	...
     6f0:	00017000 	andeq	r7, r1, r0
     6f4:	00018800 	andeq	r8, r1, r0, lsl #16
     6f8:	55000100 	strpl	r0, [r0, #-256]	; 0xffffff00
	...
     704:	01800000 	orreq	r0, r0, r0
     708:	01880000 	orreq	r0, r8, r0
     70c:	00010000 	andeq	r0, r1, r0
     710:	00000050 	andeq	r0, r0, r0, asr r0
	...
     71c:	00003c00 	andeq	r3, r0, r0, lsl #24
     720:	00004000 	andeq	r4, r0, r0
     724:	50000100 	andpl	r0, r0, r0, lsl #2
     728:	00000040 	andeq	r0, r0, r0, asr #32
     72c:	00000044 	andeq	r0, r0, r4, asr #32
     730:	b8700004 	ldmdalt	r0!, {r2}^
     734:	00009f01 	andeq	r9, r0, r1, lsl #30
	...
     740:	00300000 	eorseq	r0, r0, r0
     744:	00340000 	eorseq	r0, r4, r0
     748:	00010000 	andeq	r0, r1, r0
     74c:	00003450 	andeq	r3, r0, r0, asr r4
     750:	00003c00 	andeq	r3, r0, r0, lsl #24
     754:	f3000400 	vshl.u8	d0, d0, d0
     758:	009f5001 	addseq	r5, pc, r1
	...
     764:	18000000 	stmdane	r0, {}	; <UNPREDICTABLE>
     768:	23000000 	movwcs	r0, #0
     76c:	01000000 	mrseq	r0, (UNDEF: 0)
     770:	00235000 	eoreq	r5, r3, r0
     774:	00300000 	eorseq	r0, r0, r0
     778:	00010000 	andeq	r0, r1, r0
     77c:	00000054 	andeq	r0, r0, r4, asr r0
	...
     788:	00000800 	andeq	r0, r0, r0, lsl #16
     78c:	00000f00 	andeq	r0, r0, r0, lsl #30
     790:	50000100 	andpl	r0, r0, r0, lsl #2
     794:	0000000f 	andeq	r0, r0, pc
     798:	00000018 	andeq	r0, r0, r8, lsl r0
     79c:	01f30004 	mvnseq	r0, r4
     7a0:	00009f50 	andeq	r9, r0, r0, asr pc
	...
     7b0:	00040000 	andeq	r0, r4, r0
     7b4:	00010000 	andeq	r0, r1, r0
     7b8:	00000450 	andeq	r0, r0, r0, asr r4
     7bc:	00000800 	andeq	r0, r0, r0, lsl #16
     7c0:	70000300 	andvc	r0, r0, r0, lsl #6
     7c4:	00009f48 	andeq	r9, r0, r8, asr #30
	...
     7d8:	000003d0 	ldrdeq	r0, [r0], -r0	; <UNPREDICTABLE>
     7dc:	000003f8 	strdeq	r0, [r0], -r8
     7e0:	f8500001 			; <UNDEFINED> instruction: 0xf8500001
     7e4:	0c000003 	stceq	0, cr0, [r0], {3}
     7e8:	01000004 	tsteq	r0, r4
     7ec:	040c5400 	streq	r5, [ip], #-1024	; 0xfffffc00
     7f0:	04140000 	ldreq	r0, [r4], #-0
     7f4:	00050000 	andeq	r0, r5, r0
     7f8:	009c5003 	addseq	r5, ip, r3
     7fc:	00041400 	andeq	r1, r4, r0, lsl #8
     800:	00041700 	andeq	r1, r4, r0, lsl #14
     804:	50000100 	andpl	r0, r0, r0, lsl #2
     808:	00000417 	andeq	r0, r0, r7, lsl r4
     80c:	00000444 	andeq	r0, r0, r4, asr #8
     810:	01f30004 	mvnseq	r0, r4
     814:	00009f50 	andeq	r9, r0, r0, asr pc
	...
     824:	03d00000 	bicseq	r0, r0, #0
     828:	03f40000 	mvnseq	r0, #0
     82c:	00010000 	andeq	r0, r1, r0
     830:	0003f451 	andeq	pc, r3, r1, asr r4	; <UNPREDICTABLE>
     834:	00041400 	andeq	r1, r4, r0, lsl #8
     838:	55000100 	strpl	r0, [r0, #-256]	; 0xffffff00
     83c:	00000414 	andeq	r0, r0, r4, lsl r4
     840:	00000417 	andeq	r0, r0, r7, lsl r4
     844:	17510001 	ldrbne	r0, [r1, -r1]
     848:	44000004 	strmi	r0, [r0], #-4
     84c:	04000004 	streq	r0, [r0], #-4
     850:	5101f300 	mrspl	pc, SP_irq	; <UNPREDICTABLE>
     854:	0000009f 	muleq	r0, pc, r0	; <UNPREDICTABLE>
     858:	00000000 	andeq	r0, r0, r0
     85c:	01010000 	mrseq	r0, (UNDEF: 1)
	...
     868:	00002000 	andeq	r2, r0, r0
     86c:	50000100 	andpl	r0, r0, r0, lsl #2
     870:	00000020 	andeq	r0, r0, r0, lsr #32
     874:	000000e4 	andeq	r0, r0, r4, ror #1
     878:	01f30004 	mvnseq	r0, r4
     87c:	00e49f50 	rsceq	r9, r4, r0, asr pc
     880:	00e80000 	rsceq	r0, r8, r0
     884:	00010000 	andeq	r0, r1, r0
     888:	0000e850 	andeq	lr, r0, r0, asr r8
     88c:	0000ec00 	andeq	lr, r0, r0, lsl #24
     890:	f3000400 	vshl.u8	d0, d0, d0
     894:	009f5001 	addseq	r5, pc, r1
	...
     8ac:	00002000 	andeq	r2, r0, r0
     8b0:	51000100 	mrspl	r0, (UNDEF: 16)
     8b4:	00000020 	andeq	r0, r0, r0, lsr #32
     8b8:	00000074 	andeq	r0, r0, r4, ror r0
     8bc:	90510001 	subsls	r0, r1, r1
     8c0:	94000000 	strls	r0, [r0], #-0
     8c4:	01000000 	mrseq	r0, (UNDEF: 0)
     8c8:	00b45100 	adcseq	r5, r4, r0, lsl #2
     8cc:	00b80000 	adcseq	r0, r8, r0
     8d0:	00010000 	andeq	r0, r1, r0
     8d4:	0000d051 	andeq	sp, r0, r1, asr r0
     8d8:	0000ec00 	andeq	lr, r0, r0, lsl #24
     8dc:	51000100 	mrspl	r0, (UNDEF: 16)
	...
     8e8:	00010102 	andeq	r0, r1, r2, lsl #2
	...
     8f4:	00000020 	andeq	r0, r0, r0, lsr #32
     8f8:	20500001 	subscs	r0, r0, r1
     8fc:	e4000000 	str	r0, [r0], #-0
     900:	01000000 	mrseq	r0, (UNDEF: 0)
     904:	00e45c00 	rsceq	r5, r4, r0, lsl #24
     908:	00e80000 	rsceq	r0, r8, r0
     90c:	00010000 	andeq	r0, r1, r0
     910:	0000e850 	andeq	lr, r0, r0, asr r8
     914:	0000ec00 	andeq	lr, r0, r0, lsl #24
     918:	f3000400 	vshl.u8	d0, d0, d0
     91c:	009f5001 	addseq	r5, pc, r1
     920:	00000000 	andeq	r0, r0, r0
     924:	03000000 	movweq	r0, #0
	...
     938:	00002000 	andeq	r2, r0, r0
     93c:	51000100 	mrspl	r0, (UNDEF: 16)
     940:	00000020 	andeq	r0, r0, r0, lsr #32
     944:	00000038 	andeq	r0, r0, r8, lsr r0
     948:	38530001 	ldmdacc	r3, {r0}^
     94c:	4c000000 	stcmi	0, cr0, [r0], {-0}
     950:	01000000 	mrseq	r0, (UNDEF: 0)
     954:	004c5200 	subeq	r5, ip, r0, lsl #4
     958:	00780000 	rsbseq	r0, r8, r0
     95c:	00010000 	andeq	r0, r1, r0
     960:	00007853 	andeq	r7, r0, r3, asr r8
     964:	00009000 	andeq	r9, r0, r0
     968:	50000100 	andpl	r0, r0, r0, lsl #2
     96c:	00000090 	muleq	r0, r0, r0
     970:	000000e4 	andeq	r0, r0, r4, ror #1
     974:	e4530001 	ldrb	r0, [r3], #-1
     978:	ec000000 	stc	0, cr0, [r0], {-0}
     97c:	01000000 	mrseq	r0, (UNDEF: 0)
     980:	00005100 	andeq	r5, r0, r0, lsl #2
	...
     990:	00000048 	andeq	r0, r0, r8, asr #32
     994:	0000004c 	andeq	r0, r0, ip, asr #32
     998:	4c530001 	mrrcmi	0, 0, r0, r3, cr1
     99c:	50000000 	andpl	r0, r0, r0
     9a0:	12000000 	andne	r0, r0, #0
     9a4:	38007000 	stmdacc	r0, {ip, sp, lr}
     9a8:	94027c24 	strls	r7, [r2], #-3108	; 0xfffff3dc
     9ac:	1aff0801 	bne	fffc29b8 <__bss_end__+0xfffb8958>
     9b0:	72243b22 	eorvc	r3, r4, #34816	; 0x8800
     9b4:	509f2700 	addspl	r2, pc, r0, lsl #14
     9b8:	5c000000 	stcpl	0, cr0, [r0], {-0}
     9bc:	12000000 	andne	r0, r0, #0
     9c0:	38007000 	stmdacc	r0, {ip, sp, lr}
     9c4:	947e7c24 	ldrbtls	r7, [lr], #-3108	; 0xfffff3dc
     9c8:	1aff0801 	bne	fffc29d4 <__bss_end__+0xfffb8974>
     9cc:	72243b22 	eorvc	r3, r4, #34816	; 0x8800
     9d0:	009f2700 	addseq	r2, pc, r0, lsl #14
	...
     9dc:	00001c00 	andeq	r1, r0, r0, lsl #24
     9e0:	0000e400 	andeq	lr, r0, r0, lsl #8
     9e4:	5e000100 	adfpls	f0, f0, f0
	...
     9f8:	00000004 	andeq	r0, r0, r4
     9fc:	04520001 	ldrbeq	r0, [r2], #-1
     a00:	18000000 	stmdane	r0, {}	; <UNPREDICTABLE>
     a04:	04000000 	streq	r0, [r0], #-0
     a08:	5201f300 	andpl	pc, r1, #0, 6
     a0c:	0000009f 	muleq	r0, pc, r0	; <UNPREDICTABLE>
     a10:	00000000 	andeq	r0, r0, r0
     a14:	00000200 	andeq	r0, r0, r0, lsl #4
     a18:	00000101 	andeq	r0, r0, r1, lsl #2
     a1c:	00000000 	andeq	r0, r0, r0
     a20:	00000800 	andeq	r0, r0, r0, lsl #16
     a24:	50000100 	andpl	r0, r0, r0, lsl #2
     a28:	00000008 	andeq	r0, r0, r8
     a2c:	00000010 	andeq	r0, r0, r0, lsl r0
     a30:	10530001 	subsne	r0, r3, r1
     a34:	14000000 	strne	r0, [r0], #-0
     a38:	03000000 	movweq	r0, #0
     a3c:	9f017300 	svcls	0x00017300
     a40:	00000014 	andeq	r0, r0, r4, lsl r0
     a44:	00000018 	andeq	r0, r0, r8, lsl r0
     a48:	00530001 	subseq	r0, r3, r1
	...
     a54:	00000400 	andeq	r0, r0, r0, lsl #8
     a58:	00001800 	andeq	r1, r0, r0, lsl #16
     a5c:	52000100 	andpl	r0, r0, #0, 2
	...
     a6c:	002c0000 	eoreq	r0, ip, r0
     a70:	00380000 	eorseq	r0, r8, r0
     a74:	00010000 	andeq	r0, r1, r0
     a78:	00003850 	andeq	r3, r0, r0, asr r8
     a7c:	00004800 	andeq	r4, r0, r0, lsl #16
     a80:	54000100 	strpl	r0, [r0], #-256	; 0xffffff00
     a84:	00000048 	andeq	r0, r0, r8, asr #32
     a88:	00000058 	andeq	r0, r0, r8, asr r0
     a8c:	00500001 	subseq	r0, r0, r1
	...
     a9c:	0b000000 	bleq	aa4 <_start-0x755c>
     aa0:	01000000 	mrseq	r0, (UNDEF: 0)
     aa4:	000b5000 	andeq	r5, fp, r0
     aa8:	00140000 	andseq	r0, r4, r0
     aac:	00010000 	andeq	r0, r1, r0
     ab0:	00000054 	andeq	r0, r0, r4, asr r0
     ab4:	00000000 	andeq	r0, r0, r0
     ab8:	01010000 	mrseq	r0, (UNDEF: 1)
     abc:	00000000 	andeq	r0, r0, r0
     ac0:	00000800 	andeq	r0, r0, r0, lsl #16
     ac4:	50000100 	andpl	r0, r0, r0, lsl #2
     ac8:	00000008 	andeq	r0, r0, r8
     acc:	00000034 	andeq	r0, r0, r4, lsr r0
     ad0:	00540001 	subseq	r0, r4, r1
	...
     ae0:	00027000 	andeq	r7, r2, r0
     ae4:	00029c00 	andeq	r9, r2, r0, lsl #24
     ae8:	50000100 	andpl	r0, r0, r0, lsl #2
     aec:	0000029c 	muleq	r0, ip, r2
     af0:	0000050c 	andeq	r0, r0, ip, lsl #10
     af4:	0c570001 	mrrceq	0, 0, r0, r7, cr1
     af8:	20000005 	andcs	r0, r0, r5
     afc:	04000005 	streq	r0, [r0], #-5
     b00:	5001f300 	andpl	pc, r1, r0, lsl #6
     b04:	0000009f 	muleq	r0, pc, r0	; <UNPREDICTABLE>
	...
     b10:	70000000 	andvc	r0, r0, r0
     b14:	88000002 	stmdahi	r0, {r1}
     b18:	01000002 	tsteq	r0, r2
     b1c:	02885100 	addeq	r5, r8, #0, 2
     b20:	029c0000 	addseq	r0, ip, #0
     b24:	00030000 	andeq	r0, r3, r0
     b28:	9c9f0171 	ldflss	f0, [pc], {113}	; 0x71
     b2c:	20000002 	andcs	r0, r0, r2
     b30:	04000005 	streq	r0, [r0], #-5
     b34:	5101f300 	mrspl	pc, SP_irq	; <UNPREDICTABLE>
     b38:	0000009f 	muleq	r0, pc, r0	; <UNPREDICTABLE>
	...
     b44:	00027000 	andeq	r7, r2, r0
     b48:	00029c00 	andeq	r9, r2, r0, lsl #24
     b4c:	52000100 	andpl	r0, r0, #0, 2
     b50:	0000029c 	muleq	r0, ip, r2
     b54:	0000050c 	andeq	r0, r0, ip, lsl #10
     b58:	00590001 	subseq	r0, r9, r1
     b5c:	00000000 	andeq	r0, r0, r0
     b60:	01000000 	mrseq	r0, (UNDEF: 0)
     b64:	00000000 	andeq	r0, r0, r0
     b68:	01010000 	mrseq	r0, (UNDEF: 1)
     b6c:	00000000 	andeq	r0, r0, r0
     b70:	02020000 	andeq	r0, r2, #0
     b74:	84000000 	strhi	r0, [r0], #-0
     b78:	9c000002 	stcls	0, cr0, [r0], {2}
     b7c:	01000002 	tsteq	r0, r2
     b80:	029c5000 	addseq	r5, ip, #0
     b84:	02a00000 	adceq	r0, r0, #0
     b88:	00010000 	andeq	r0, r1, r0
     b8c:	0002a054 	andeq	sl, r2, r4, asr r0
     b90:	0002a400 	andeq	sl, r2, r0, lsl #8
     b94:	74000300 	strvc	r0, [r0], #-768	; 0xfffffd00
     b98:	02a49f01 	adceq	r9, r4, #1, 30
     b9c:	02c80000 	sbceq	r0, r8, #0
     ba0:	00010000 	andeq	r0, r1, r0
     ba4:	0002c854 	andeq	ip, r2, r4, asr r8
     ba8:	0002cc00 	andeq	ip, r2, r0, lsl #24
     bac:	74000300 	strvc	r0, [r0], #-768	; 0xfffffd00
     bb0:	02cc9f01 	sbceq	r9, ip, #1, 30
     bb4:	03f80000 	mvnseq	r0, #0
     bb8:	00010000 	andeq	r0, r1, r0
     bbc:	0003f854 	andeq	pc, r3, r4, asr r8	; <UNPREDICTABLE>
     bc0:	0003fc00 	andeq	pc, r3, r0, lsl #24
     bc4:	74000300 	strvc	r0, [r0], #-768	; 0xfffffd00
     bc8:	03fc9f01 	mvnseq	r9, #1, 30
     bcc:	04f80000 	ldrbteq	r0, [r8], #0
     bd0:	00010000 	andeq	r0, r1, r0
     bd4:	0004f854 	andeq	pc, r4, r4, asr r8	; <UNPREDICTABLE>
     bd8:	00050000 	andeq	r0, r5, r0
     bdc:	74000300 	strvc	r0, [r0], #-768	; 0xfffffd00
     be0:	05009f01 	streq	r9, [r0, #-3841]	; 0xfffff0ff
     be4:	050c0000 	streq	r0, [ip, #-0]
     be8:	00010000 	andeq	r0, r1, r0
     bec:	00000054 	andeq	r0, r0, r4, asr r0
	...
     bf8:	00028c00 	andeq	r8, r2, r0, lsl #24
     bfc:	00050c00 	andeq	r0, r5, r0, lsl #24
     c00:	58000100 	stmdapl	r0, {r8}
     c04:	0000050c 	andeq	r0, r0, ip, lsl #10
     c08:	00000520 	andeq	r0, r0, r0, lsr #10
     c0c:	01f3000a 	mvnseq	r0, sl
     c10:	5001f351 	andpl	pc, r1, r1, asr r3	; <UNPREDICTABLE>
     c14:	9f1c3122 	svcls	0x001c3122
	...
     c28:	03dc0000 	bicseq	r0, ip, #0
     c2c:	04000000 	streq	r0, [r0], #-0
     c30:	00010000 	andeq	r0, r1, r0
     c34:	00042c50 	andeq	r2, r4, r0, asr ip
     c38:	00043000 	andeq	r3, r4, r0
     c3c:	50000100 	andpl	r0, r0, r0, lsl #2
     c40:	0000045c 	andeq	r0, r0, ip, asr r4
     c44:	00000460 	andeq	r0, r0, r0, ror #8
     c48:	8c500001 	mrrchi	0, 0, r0, r0, cr1	; <UNPREDICTABLE>
     c4c:	90000004 	andls	r0, r0, r4
     c50:	01000004 	tsteq	r0, r4
     c54:	04d05000 	ldrbeq	r5, [r0], #0
     c58:	04d40000 	ldrbeq	r0, [r4], #0
     c5c:	00010000 	andeq	r0, r1, r0
     c60:	00000050 	andeq	r0, r0, r0, asr r0
     c64:	00000000 	andeq	r0, r0, r0
     c68:	00000200 	andeq	r0, r0, r0, lsl #4
     c6c:	d8000000 	stmdale	r0, {}	; <UNPREDICTABLE>
     c70:	e0000002 	and	r0, r0, r2
     c74:	02000002 	andeq	r0, r0, #2
     c78:	e09f3000 	adds	r3, pc, r0
     c7c:	e4000002 	str	r0, [r0], #-2
     c80:	01000002 	tsteq	r0, r2
     c84:	02ec5600 	rsceq	r5, ip, #0, 12
     c88:	04f80000 	ldrbteq	r0, [r8], #0
     c8c:	00010000 	andeq	r0, r1, r0
     c90:	00000056 	andeq	r0, r0, r6, asr r0
	...
     c9c:	70000000 	andvc	r0, r0, r0
     ca0:	94000000 	strls	r0, [r0], #-0
     ca4:	01000000 	mrseq	r0, (UNDEF: 0)
     ca8:	00945000 	addseq	r5, r4, r0
     cac:	00fc0000 	rscseq	r0, ip, r0
     cb0:	00030000 	andeq	r0, r3, r0
     cb4:	fc9f0270 	ldc2	2, cr0, [pc], {112}	; 0x70
     cb8:	1c000000 	stcne	0, cr0, [r0], {-0}
     cbc:	04000002 	streq	r0, [r0], #-2
     cc0:	5001f300 	andpl	pc, r1, r0, lsl #6
     cc4:	0000009f 	muleq	r0, pc, r0	; <UNPREDICTABLE>
	...
     cdc:	00007000 	andeq	r7, r0, r0
     ce0:	0000e000 	andeq	lr, r0, r0
     ce4:	51000100 	mrspl	r0, (UNDEF: 16)
     ce8:	000000e0 	andeq	r0, r0, r0, ror #1
     cec:	00000154 	andeq	r0, r0, r4, asr r1
     cf0:	54550001 	ldrbpl	r0, [r5], #-1
     cf4:	58000001 	stmdapl	r0, {r0}
     cf8:	01000001 	tsteq	r0, r1
     cfc:	01585100 	cmpeq	r8, r0, lsl #2
     d00:	01b00000 	movseq	r0, r0
     d04:	00010000 	andeq	r0, r1, r0
     d08:	0001b055 	andeq	fp, r1, r5, asr r0
     d0c:	0001c000 	andeq	ip, r1, r0
     d10:	51000100 	mrspl	r0, (UNDEF: 16)
     d14:	000001c0 	andeq	r0, r0, r0, asr #3
     d18:	000001e4 	andeq	r0, r0, r4, ror #3
     d1c:	e4550001 	ldrb	r0, [r5], #-1
     d20:	e7000001 	str	r0, [r0, -r1]
     d24:	01000001 	tsteq	r0, r1
     d28:	01e75100 	mvneq	r5, r0, lsl #2
     d2c:	021c0000 	andseq	r0, ip, #0
     d30:	00010000 	andeq	r0, r1, r0
     d34:	00000055 	andeq	r0, r0, r5, asr r0
	...
     d40:	00007000 	andeq	r7, r0, r0
     d44:	00008400 	andeq	r8, r0, r0, lsl #8
     d48:	52000100 	andpl	r0, r0, #0, 2
     d4c:	00000084 	andeq	r0, r0, r4, lsl #1
     d50:	0000021c 	andeq	r0, r0, ip, lsl r2
     d54:	00540001 	subseq	r0, r4, r1
	...
     d64:	00000001 	andeq	r0, r0, r1
     d68:	00007000 	andeq	r7, r0, r0
     d6c:	0000f400 	andeq	pc, r0, r0, lsl #8
     d70:	53000100 	movwpl	r0, #256	; 0x100
     d74:	0000014c 	andeq	r0, r0, ip, asr #2
     d78:	00000180 	andeq	r0, r0, r0, lsl #3
     d7c:	80530001 	subshi	r0, r3, r1
     d80:	8c000001 	stchi	0, cr0, [r0], {1}
     d84:	04000001 	streq	r0, [r0], #-1
     d88:	5301f300 	movwpl	pc, #4864	; 0x1300	; <UNPREDICTABLE>
     d8c:	0001b09f 	muleq	r1, pc, r0	; <UNPREDICTABLE>
     d90:	0001e700 	andeq	lr, r1, r0, lsl #14
     d94:	53000100 	movwpl	r0, #256	; 0x100
     d98:	000001e7 	andeq	r0, r0, r7, ror #3
     d9c:	0000021c 	andeq	r0, r0, ip, lsl r2
     da0:	01f30004 	mvnseq	r0, r4
     da4:	00009f53 	andeq	r9, r0, r3, asr pc
	...
     db4:	00000070 	andeq	r0, r0, r0, ror r0
     db8:	0000008c 	andeq	r0, r0, ip, lsl #1
     dbc:	00910002 	addseq	r0, r1, r2
     dc0:	0000008c 	andeq	r0, r0, ip, lsl #1
     dc4:	00000193 	muleq	r0, r3, r1
     dc8:	b0520001 	subslt	r0, r2, r1
     dcc:	e7000001 	str	r0, [r0, -r1]
     dd0:	01000001 	tsteq	r0, r1
     dd4:	00005200 	andeq	r5, r0, r0, lsl #4
     dd8:	00000000 	andeq	r0, r0, r0
     ddc:	00010000 	andeq	r0, r1, r0
     de0:	00010100 	andeq	r0, r1, r0, lsl #2
     de4:	00000000 	andeq	r0, r0, r0
     de8:	01000000 	mrseq	r0, (UNDEF: 0)
     dec:	00010101 	andeq	r0, r1, r1, lsl #2
     df0:	00010100 	andeq	r0, r1, r0, lsl #2
	...
     dfc:	008c0000 	addeq	r0, ip, r0
     e00:	00fc0000 	rscseq	r0, ip, r0
     e04:	00010000 	andeq	r0, r1, r0
     e08:	0000fc5d 	andeq	pc, r0, sp, asr ip	; <UNPREDICTABLE>
     e0c:	00013c00 	andeq	r3, r1, r0, lsl #24
     e10:	50000100 	andpl	r0, r0, r0, lsl #2
     e14:	0000013c 	andeq	r0, r0, ip, lsr r1
     e18:	00000148 	andeq	r0, r0, r8, asr #2
     e1c:	02710003 	rsbseq	r0, r1, #3
     e20:	0001489f 	muleq	r1, pc, r8	; <UNPREDICTABLE>
     e24:	00014c00 	andeq	r4, r1, r0, lsl #24
     e28:	50000100 	andpl	r0, r0, r0, lsl #2
     e2c:	0000014c 	andeq	r0, r0, ip, asr #2
     e30:	00000158 	andeq	r0, r0, r8, asr r1
     e34:	585d0001 	ldmdapl	sp, {r0}^
     e38:	6c000001 	stcvs	0, cr0, [r0], {1}
     e3c:	01000001 	tsteq	r0, r1
     e40:	016c5100 	cmneq	ip, r0, lsl #2
     e44:	01780000 	cmneq	r8, r0
     e48:	00030000 	andeq	r0, r3, r0
     e4c:	789f7f71 	ldmvc	pc, {r0, r4, r5, r6, r8, r9, sl, fp, ip, sp, lr}	; <UNPREDICTABLE>
     e50:	84000001 	strhi	r0, [r0], #-1
     e54:	03000001 	movweq	r0, #1
     e58:	9f017100 	svcls	0x00017100
     e5c:	00000184 	andeq	r0, r0, r4, lsl #3
     e60:	00000193 	muleq	r0, r3, r1
     e64:	b0500001 	subslt	r0, r0, r1
     e68:	b0000001 	andlt	r0, r0, r1
     e6c:	01000001 	tsteq	r0, r1
     e70:	01b05d00 	lslseq	r5, r0, #26
     e74:	01b80000 			; <UNDEFINED> instruction: 0x01b80000
     e78:	00040000 	andeq	r0, r4, r0
     e7c:	9f7fa191 	svcls	0x007fa191
     e80:	000001b8 			; <UNDEFINED> instruction: 0x000001b8
     e84:	000001bc 			; <UNDEFINED> instruction: 0x000001bc
     e88:	bc500001 	mrrclt	0, 0, r0, r0, cr1	; <UNPREDICTABLE>
     e8c:	c0000001 	andgt	r0, r0, r1
     e90:	01000001 	tsteq	r0, r1
     e94:	01c05d00 	biceq	r5, r0, r0, lsl #26
     e98:	01d40000 	bicseq	r0, r4, r0
     e9c:	00010000 	andeq	r0, r1, r0
     ea0:	0001d450 	andeq	sp, r1, r0, asr r4
     ea4:	0001e400 	andeq	lr, r1, r0, lsl #8
     ea8:	70000300 	andvc	r0, r0, r0, lsl #6
     eac:	01e49f7f 	mvneq	r9, pc, ror pc
     eb0:	021c0000 	andseq	r0, ip, #0
     eb4:	00010000 	andeq	r0, r1, r0
     eb8:	0000005d 	andeq	r0, r0, sp, asr r0
	...
     ec4:	00000101 	andeq	r0, r0, r1, lsl #2
	...
     ed0:	90000000 	andls	r0, r0, r0
     ed4:	dc000000 	stcle	0, cr0, [r0], {-0}
     ed8:	01000000 	mrseq	r0, (UNDEF: 0)
     edc:	00dc5c00 	sbcseq	r5, ip, r0, lsl #24
     ee0:	00f40000 	rscseq	r0, r4, r0
     ee4:	00010000 	andeq	r0, r1, r0
     ee8:	0000f453 	andeq	pc, r0, r3, asr r4	; <UNPREDICTABLE>
     eec:	00014c00 	andeq	r4, r1, r0, lsl #24
     ef0:	5c000100 	stfpls	f0, [r0], {-0}
     ef4:	0000014c 	andeq	r0, r0, ip, asr #2
     ef8:	00000158 	andeq	r0, r0, r8, asr r1
     efc:	58530001 	ldmdapl	r3, {r0}^
     f00:	74000001 	strvc	r0, [r0], #-1
     f04:	01000001 	tsteq	r0, r1
     f08:	01b05c00 	lslseq	r5, r0, #24
     f0c:	01c00000 	biceq	r0, r0, r0
     f10:	00010000 	andeq	r0, r1, r0
     f14:	0001c053 	andeq	ip, r1, r3, asr r0
     f18:	0001dc00 	andeq	sp, r1, r0, lsl #24
     f1c:	5c000100 	stfpls	f0, [r0], {-0}
     f20:	000001e4 	andeq	r0, r0, r4, ror #3
     f24:	000001e7 	andeq	r0, r0, r7, ror #3
     f28:	e7530001 	ldrb	r0, [r3, -r1]
     f2c:	1c000001 	stcne	0, cr0, [r0], {1}
     f30:	04000002 	streq	r0, [r0], #-2
     f34:	5301f300 	movwpl	pc, #4864	; 0x1300	; <UNPREDICTABLE>
     f38:	0000009f 	muleq	r0, pc, r0	; <UNPREDICTABLE>
     f3c:	00000000 	andeq	r0, r0, r0
     f40:	01010100 	mrseq	r0, (UNDEF: 17)
     f44:	00000000 	andeq	r0, r0, r0
     f48:	0000dc00 	andeq	sp, r0, r0, lsl #24
     f4c:	0000f000 	andeq	pc, r0, r0
     f50:	30000200 	andcc	r0, r0, r0, lsl #4
     f54:	0000f09f 	muleq	r0, pc, r0	; <UNPREDICTABLE>
     f58:	0000f800 	andeq	pc, r0, r0, lsl #16
     f5c:	31000200 	mrscc	r0, R8_usr
     f60:	0000fc9f 	muleq	r0, pc, ip	; <UNPREDICTABLE>
     f64:	00014c00 	andeq	r4, r1, r0, lsl #24
     f68:	56000100 	strpl	r0, [r0], -r0, lsl #2
     f6c:	0000014c 	andeq	r0, r0, ip, asr #2
     f70:	00000154 	andeq	r0, r0, r4, asr r1
     f74:	9f300002 	svcls	0x00300002
	...
     f80:	01000000 	mrseq	r0, (UNDEF: 0)
     f84:	01000001 	tsteq	r0, r1
     f88:	00380001 	eorseq	r0, r8, r1
     f8c:	00540000 	subseq	r0, r4, r0
     f90:	00010000 	andeq	r0, r1, r0
     f94:	00005450 	andeq	r5, r0, r0, asr r4
     f98:	00005800 	andeq	r5, r0, r0, lsl #16
     f9c:	52000100 	andpl	r0, r0, #0, 2
     fa0:	00000058 	andeq	r0, r0, r8, asr r0
     fa4:	00000060 	andeq	r0, r0, r0, rrx
     fa8:	01720003 	cmneq	r2, r3
     fac:	0000609f 	muleq	r0, pc, r0	; <UNPREDICTABLE>
     fb0:	00006400 	andeq	r6, r0, r0, lsl #8
     fb4:	52000100 	andpl	r0, r0, #0, 2
     fb8:	00000064 	andeq	r0, r0, r4, rrx
     fbc:	00000070 	andeq	r0, r0, r0, ror r0
     fc0:	01720003 	cmneq	r2, r3
     fc4:	0000009f 	muleq	r0, pc, r0	; <UNPREDICTABLE>
	...
     fd0:	00003800 	andeq	r3, r0, r0, lsl #16
     fd4:	00005000 	andeq	r5, r0, r0
     fd8:	51000100 	mrspl	r0, (UNDEF: 16)
     fdc:	00000050 	andeq	r0, r0, r0, asr r0
     fe0:	00000070 	andeq	r0, r0, r0, ror r0
     fe4:	01f30004 	mvnseq	r0, r4
     fe8:	00009f51 	andeq	r9, r0, r1, asr pc
	...
     ff4:	01000000 	mrseq	r0, (UNDEF: 0)
     ff8:	00380001 	eorseq	r0, r8, r1
     ffc:	00500000 	subseq	r0, r0, r0
    1000:	00010000 	andeq	r0, r1, r0
    1004:	00005052 	andeq	r5, r0, r2, asr r0
    1008:	00005c00 	andeq	r5, r0, r0, lsl #24
    100c:	51000100 	mrspl	r0, (UNDEF: 16)
    1010:	0000005c 	andeq	r0, r0, ip, asr r0
    1014:	00000060 	andeq	r0, r0, r0, rrx
    1018:	01710003 	cmneq	r1, r3
    101c:	0000609f 	muleq	r0, pc, r0	; <UNPREDICTABLE>
    1020:	00007000 	andeq	r7, r0, r0
    1024:	51000100 	mrspl	r0, (UNDEF: 16)
	...
    1034:	00000038 	andeq	r0, r0, r8, lsr r0
    1038:	0000004c 	andeq	r0, r0, ip, asr #32
    103c:	4c530001 	mrrcmi	0, 0, r0, r3, cr1
    1040:	68000000 	stmdavs	r0, {}	; <UNPREDICTABLE>
    1044:	01000000 	mrseq	r0, (UNDEF: 0)
    1048:	00005300 	andeq	r5, r0, r0, lsl #6
	...
    1058:	00400000 	subeq	r0, r0, r0
    105c:	00480000 	subeq	r0, r8, r0
    1060:	00010000 	andeq	r0, r1, r0
    1064:	0000485c 	andeq	r4, r0, ip, asr r8
    1068:	00004c00 	andeq	r4, r0, r0, lsl #24
    106c:	72000800 	andvc	r0, r0, #0, 16
    1070:	1c007300 	stcne	3, cr7, [r0], {-0}
    1074:	4c9f0123 	ldfmis	f0, [pc], {35}	; 0x23
    1078:	54000000 	strpl	r0, [r0], #-0
    107c:	09000000 	stmdbeq	r0, {}	; <UNPREDICTABLE>
    1080:	f3007200 	vhsub.u8	d7, d0, d0
    1084:	231c5301 	tstcs	ip, #67108864	; 0x4000000
    1088:	00549f01 	subseq	r9, r4, r1, lsl #30
    108c:	00700000 	rsbseq	r0, r0, r0
    1090:	000a0000 	andeq	r0, sl, r0
    1094:	f35201f3 	vbsl	q8, q9, <illegal reg q9.5>
    1098:	231c5301 	tstcs	ip, #67108864	; 0x4000000
    109c:	00009f01 	andeq	r9, r0, r1, lsl #30
    10a0:	00000000 	andeq	r0, r0, r0
    10a4:	00010000 	andeq	r0, r1, r0
    10a8:	0000004c 	andeq	r0, r0, ip, asr #32
    10ac:	00000070 	andeq	r0, r0, r0, ror r0
    10b0:	00500001 	subseq	r0, r0, r1
	...
    10bc:	00000101 	andeq	r0, r0, r1, lsl #2
    10c0:	00001400 	andeq	r1, r0, r0, lsl #8
    10c4:	00001c00 	andeq	r1, r0, r0, lsl #24
    10c8:	50000100 	andpl	r0, r0, r0, lsl #2
    10cc:	0000001c 	andeq	r0, r0, ip, lsl r0
    10d0:	00000024 	andeq	r0, r0, r4, lsr #32
    10d4:	01700003 	cmneq	r0, r3
    10d8:	0000249f 	muleq	r0, pc, r4	; <UNPREDICTABLE>
    10dc:	00003800 	andeq	r3, r0, r0, lsl #16
    10e0:	50000100 	andpl	r0, r0, r0, lsl #2
	...
    10f0:	00000014 	andeq	r0, r0, r4, lsl r0
    10f4:	00000018 	andeq	r0, r0, r8, lsl r0
    10f8:	18510001 	ldmdane	r1, {r0}^
    10fc:	38000000 	stmdacc	r0, {}	; <UNPREDICTABLE>
    1100:	04000000 	streq	r0, [r0], #-0
    1104:	5101f300 	mrspl	pc, SP_irq	; <UNPREDICTABLE>
    1108:	0000009f 	muleq	r0, pc, r0	; <UNPREDICTABLE>
    110c:	00000000 	andeq	r0, r0, r0
    1110:	18000000 	stmdane	r0, {}	; <UNPREDICTABLE>
    1114:	38000000 	stmdacc	r0, {}	; <UNPREDICTABLE>
    1118:	01000000 	mrseq	r0, (UNDEF: 0)
    111c:	00005100 	andeq	r5, r0, r0, lsl #2
	...
    1130:	00000004 	andeq	r0, r0, r4
    1134:	04500001 	ldrbeq	r0, [r0], #-1
    1138:	0c000000 	stceq	0, cr0, [r0], {-0}
    113c:	03000000 	movweq	r0, #0
    1140:	9f307000 	svcls	0x00307000
    1144:	0000000c 	andeq	r0, r0, ip
    1148:	00000014 	andeq	r0, r0, r4, lsl r0
    114c:	01f30004 	mvnseq	r0, r4
    1150:	00009f50 	andeq	r9, r0, r0, asr pc
	...
    115c:	021c0000 	andseq	r0, ip, #0
    1160:	02430000 	subeq	r0, r3, #0
    1164:	00010000 	andeq	r0, r1, r0
    1168:	00024350 	andeq	r4, r2, r0, asr r3
    116c:	00027000 	andeq	r7, r2, r0
    1170:	f3000400 	vshl.u8	d0, d0, d0
    1174:	009f5001 	addseq	r5, pc, r1
	...
    1180:	1c000000 	stcne	0, cr0, [r0], {-0}
    1184:	43000002 	movwmi	r0, #2
    1188:	01000002 	tsteq	r0, r2
    118c:	02435100 	subeq	r5, r3, #0, 2
    1190:	02700000 	rsbseq	r0, r0, #0
    1194:	00040000 	andeq	r0, r4, r0
    1198:	9f5101f3 	svcls	0x005101f3
	...
    11a4:	00010100 	andeq	r0, r1, r0, lsl #2
    11a8:	00080000 	andeq	r0, r8, r0
    11ac:	00100000 	andseq	r0, r0, r0
    11b0:	00010000 	andeq	r0, r1, r0
    11b4:	00001053 	andeq	r1, r0, r3, asr r0
    11b8:	00001800 	andeq	r1, r0, r0, lsl #16
    11bc:	73000300 	movwvc	r0, #768	; 0x300
    11c0:	00189f04 	andseq	r9, r8, r4, lsl #30
    11c4:	001f0000 	andseq	r0, pc, r0
    11c8:	00010000 	andeq	r0, r1, r0
    11cc:	00000053 	andeq	r0, r0, r3, asr r0
    11d0:	00000000 	andeq	r0, r0, r0
    11d4:	40000100 	andmi	r0, r0, r0, lsl #2
    11d8:	5c000091 	stcpl	0, cr0, [r0], {145}	; 0x91
    11dc:	06000091 			; <UNDEFINED> instruction: 0x06000091
    11e0:	001c0c00 	andseq	r0, ip, r0, lsl #24
    11e4:	009f2010 	addseq	r2, pc, r0, lsl r0	; <UNPREDICTABLE>
    11e8:	00000000 	andeq	r0, r0, r0
    11ec:	02000000 	andeq	r0, r0, #0
    11f0:	00914000 	addseq	r4, r1, r0
    11f4:	00915c00 	addseq	r5, r1, r0, lsl #24
    11f8:	0c000600 	stceq	6, cr0, [r0], {-0}
    11fc:	20100024 	andscs	r0, r0, r4, lsr #32
    1200:	0000009f 	muleq	r0, pc, r0	; <UNPREDICTABLE>
    1204:	00000000 	andeq	r0, r0, r0
    1208:	40000300 	andmi	r0, r0, r0, lsl #6
    120c:	5c000091 	stcpl	0, cr0, [r0], {145}	; 0x91
    1210:	05000091 	streq	r0, [r0, #-145]	; 0xffffff6f
    1214:	47b40800 	ldrmi	r0, [r4, r0, lsl #16]!
    1218:	00009f24 	andeq	r9, r0, r4, lsr #30
    121c:	00000000 	andeq	r0, r0, r0
    1220:	00040000 	andeq	r0, r4, r0
    1224:	00009140 	andeq	r9, r0, r0, asr #2
    1228:	0000915c 	andeq	r9, r0, ip, asr r1
    122c:	20080003 	andcs	r0, r8, r3
    1230:	0000009f 	muleq	r0, pc, r0	; <UNPREDICTABLE>
    1234:	00000000 	andeq	r0, r0, r0
    1238:	00000200 	andeq	r0, r0, r0, lsl #4
    123c:	14000000 	strne	r0, [r0], #-0
    1240:	18000091 	stmdane	r0, {r0, r4, r7}
    1244:	02000091 	andeq	r0, r0, #145	; 0x91
    1248:	189f3000 	ldmne	pc, {ip, sp}	; <UNPREDICTABLE>
    124c:	1c000091 	stcne	0, cr0, [r0], {145}	; 0x91
    1250:	01000091 	swpeq	r0, r1, [r0]	; <UNPREDICTABLE>
    1254:	91205300 			; <UNDEFINED> instruction: 0x91205300
    1258:	91280000 			; <UNDEFINED> instruction: 0x91280000
    125c:	00010000 	andeq	r0, r1, r0
    1260:	00000053 	andeq	r0, r0, r3, asr r0
    1264:	00000000 	andeq	r0, r0, r0
    1268:	00000200 	andeq	r0, r0, r0, lsl #4
    126c:	0090fc00 	addseq	pc, r0, r0, lsl #24
    1270:	00910000 	addseq	r0, r1, r0
    1274:	30000200 	andcc	r0, r0, r0, lsl #4
    1278:	0091009f 	umullseq	r0, r1, pc, r0	; <UNPREDICTABLE>
    127c:	00910400 	addseq	r0, r1, r0, lsl #8
    1280:	50000100 	andpl	r0, r0, r0, lsl #2
	...
    1290:	00000074 	andeq	r0, r0, r4, ror r0
    1294:	00000080 	andeq	r0, r0, r0, lsl #1
    1298:	80500001 	subshi	r0, r0, r1
    129c:	8c000000 	stchi	0, cr0, [r0], {-0}
    12a0:	04000000 	streq	r0, [r0], #-0
    12a4:	5001f300 	andpl	pc, r1, r0, lsl #6
    12a8:	0000009f 	muleq	r0, pc, r0	; <UNPREDICTABLE>
	...
    12b4:	00005c00 	andeq	r5, r0, r0, lsl #24
    12b8:	00006800 	andeq	r6, r0, r0, lsl #16
    12bc:	50000100 	andpl	r0, r0, r0, lsl #2
    12c0:	00000068 	andeq	r0, r0, r8, rrx
    12c4:	00000074 	andeq	r0, r0, r4, ror r0
    12c8:	01f30004 	mvnseq	r0, r4
    12cc:	00009f50 	andeq	r9, r0, r0, asr pc
	...
    12d8:	00380000 	eorseq	r0, r8, r0
    12dc:	00430000 	subeq	r0, r3, r0
    12e0:	00010000 	andeq	r0, r1, r0
    12e4:	00004350 	andeq	r4, r0, r0, asr r3
    12e8:	00005c00 	andeq	r5, r0, r0, lsl #24
    12ec:	55000100 	strpl	r0, [r0, #-256]	; 0xffffff00
	...
    12f8:	00480000 	subeq	r0, r8, r0
    12fc:	005c0000 	subseq	r0, ip, r0
    1300:	00010000 	andeq	r0, r1, r0
    1304:	00000054 	andeq	r0, r0, r4, asr r0
    1308:	00000000 	andeq	r0, r0, r0
    130c:	4c000000 	stcmi	0, cr0, [r0], {-0}
    1310:	50000000 	andpl	r0, r0, r0
    1314:	01000000 	mrseq	r0, (UNDEF: 0)
    1318:	00005000 	andeq	r5, r0, r0
	...
    1324:	00000034 	andeq	r0, r0, r4, lsr r0
    1328:	00000038 	andeq	r0, r0, r8, lsr r0
    132c:	00500001 	subseq	r0, r0, r1
	...
    133c:	04000000 	streq	r0, [r0], #-0
    1340:	01000000 	mrseq	r0, (UNDEF: 0)
    1344:	00045000 	andeq	r5, r4, r0
    1348:	00180000 	andseq	r0, r8, r0
    134c:	00010000 	andeq	r0, r1, r0
    1350:	00000053 	andeq	r0, r0, r3, asr r0
    1354:	00000000 	andeq	r0, r0, r0
    1358:	00013800 	andeq	r3, r1, r0, lsl #16
    135c:	00014300 	andeq	r4, r1, r0, lsl #6
    1360:	50000100 	andpl	r0, r0, r0, lsl #2
    1364:	00000143 	andeq	r0, r0, r3, asr #2
    1368:	00000168 	andeq	r0, r0, r8, ror #2
    136c:	00540001 	subseq	r0, r4, r1
	...
    1378:	0f000000 	svceq	0x00000000
    137c:	01000000 	mrseq	r0, (UNDEF: 0)
    1380:	000f5000 	andeq	r5, pc, r0
    1384:	00200000 	eoreq	r0, r0, r0
    1388:	00010000 	andeq	r0, r1, r0
    138c:	00000054 	andeq	r0, r0, r4, asr r0
	...
    1398:	00000f00 	andeq	r0, r0, r0, lsl #30
    139c:	51000100 	mrspl	r0, (UNDEF: 16)
    13a0:	0000000f 	andeq	r0, r0, pc
    13a4:	00000020 	andeq	r0, r0, r0, lsr #32
    13a8:	00550001 	subseq	r0, r5, r1
    13ac:	00000000 	andeq	r0, r0, r0
    13b0:	ec000000 	stc	0, cr0, [r0], {-0}
    13b4:	04000000 	streq	r0, [r0], #-0
    13b8:	01000001 	tsteq	r0, r1
    13bc:	01045000 	mrseq	r5, (UNDEF: 4)
    13c0:	01140000 	tsteq	r4, r0
    13c4:	00040000 	andeq	r0, r4, r0
    13c8:	9f5001f3 	svcls	0x005001f3
    13cc:	00000114 	andeq	r0, r0, r4, lsl r1
    13d0:	00000118 	andeq	r0, r0, r8, lsl r1
    13d4:	18500001 	ldmdane	r0, {r0}^
    13d8:	20000001 	andcs	r0, r0, r1
    13dc:	04000001 	streq	r0, [r0], #-1
    13e0:	5001f300 	andpl	pc, r1, r0, lsl #6
    13e4:	0000009f 	muleq	r0, pc, r0	; <UNPREDICTABLE>
    13e8:	00000000 	andeq	r0, r0, r0
    13ec:	0000f800 	andeq	pc, r0, r0, lsl #16
    13f0:	00010400 	andeq	r0, r1, r0, lsl #8
    13f4:	70000b00 	andvc	r0, r0, r0, lsl #22
    13f8:	23253500 			; <UNDEFINED> instruction: 0x23253500
    13fc:	818080b4 	strhhi	r8, [r0, r4]
    1400:	01049f02 	tsteq	r4, r2, lsl #30
    1404:	01070000 	mrseq	r0, (UNDEF: 7)
    1408:	00010000 	andeq	r0, r1, r0
    140c:	00010750 	andeq	r0, r1, r0, asr r7
    1410:	00011400 	andeq	r1, r1, r0, lsl #8
    1414:	f3000c00 			; <UNDEFINED> instruction: 0xf3000c00
    1418:	25355001 	ldrcs	r5, [r5, #-1]!
    141c:	8080b423 	addhi	fp, r0, r3, lsr #8
    1420:	009f0281 	addseq	r0, pc, r1, lsl #5
    1424:	00000000 	andeq	r0, r0, r0
    1428:	fc000000 	stc2	0, cr0, [r0], {-0}
    142c:	14000000 	strne	r0, [r0], #-0
    1430:	01000001 	tsteq	r0, r1
    1434:	00005400 	andeq	r5, r0, r0, lsl #8
    1438:	00000000 	andeq	r0, r0, r0
    143c:	00d00000 	sbcseq	r0, r0, r0
    1440:	00df0000 	sbcseq	r0, pc, r0
    1444:	00010000 	andeq	r0, r1, r0
    1448:	0000df50 	andeq	sp, r0, r0, asr pc
    144c:	0000e400 	andeq	lr, r0, r0, lsl #8
    1450:	f3000400 	vshl.u8	d0, d0, d0
    1454:	e49f5001 	ldr	r5, [pc], #1	; 145c <_start-0x6ba4>
    1458:	e7000000 	str	r0, [r0, -r0]
    145c:	01000000 	mrseq	r0, (UNDEF: 0)
    1460:	00e75000 	rsceq	r5, r7, r0
    1464:	00ec0000 	rsceq	r0, ip, r0
    1468:	00040000 	andeq	r0, r4, r0
    146c:	9f5001f3 	svcls	0x005001f3
	...
    1478:	000000d0 	ldrdeq	r0, [r0], -r0	; <UNPREDICTABLE>
    147c:	000000df 	ldrdeq	r0, [r0], -pc	; <UNPREDICTABLE>
    1480:	df510001 	svcle	0x00510001
    1484:	e4000000 	str	r0, [r0], #-0
    1488:	04000000 	streq	r0, [r0], #-0
    148c:	5101f300 	mrspl	pc, SP_irq	; <UNPREDICTABLE>
    1490:	0000e49f 	muleq	r0, pc, r4	; <UNPREDICTABLE>
    1494:	0000e700 	andeq	lr, r0, r0, lsl #14
    1498:	51000100 	mrspl	r0, (UNDEF: 16)
    149c:	000000e7 	andeq	r0, r0, r7, ror #1
    14a0:	000000ec 	andeq	r0, r0, ip, ror #1
    14a4:	01f30004 	mvnseq	r0, r4
    14a8:	00009f51 	andeq	r9, r0, r1, asr pc
    14ac:	00000000 	andeq	r0, r0, r0
    14b0:	00c00000 	sbceq	r0, r0, r0
    14b4:	00cb0000 	sbceq	r0, fp, r0
    14b8:	00010000 	andeq	r0, r1, r0
    14bc:	0000cb50 	andeq	ip, r0, r0, asr fp
    14c0:	0000d000 	andeq	sp, r0, r0
    14c4:	f3000400 	vshl.u8	d0, d0, d0
    14c8:	009f5001 	addseq	r5, pc, r1
    14cc:	00000000 	andeq	r0, r0, r0
    14d0:	9c000000 	stcls	0, cr0, [r0], {-0}
    14d4:	b4000000 	strlt	r0, [r0], #-0
    14d8:	01000000 	mrseq	r0, (UNDEF: 0)
    14dc:	00b45000 	adcseq	r5, r4, r0
    14e0:	00c00000 	sbceq	r0, r0, r0
    14e4:	00040000 	andeq	r0, r4, r0
    14e8:	9f5001f3 	svcls	0x005001f3
	...
    14f4:	00000078 	andeq	r0, r0, r8, ror r0
    14f8:	00000090 	muleq	r0, r0, r0
    14fc:	90500001 	subsls	r0, r0, r1
    1500:	9c000000 	stcls	0, cr0, [r0], {-0}
    1504:	04000000 	streq	r0, [r0], #-0
    1508:	5001f300 	andpl	pc, r1, r0, lsl #6
    150c:	0000009f 	muleq	r0, pc, r0	; <UNPREDICTABLE>
    1510:	00000000 	andeq	r0, r0, r0
    1514:	00006800 	andeq	r6, r0, r0, lsl #16
    1518:	00007300 	andeq	r7, r0, r0, lsl #6
    151c:	50000100 	andpl	r0, r0, r0, lsl #2
    1520:	00000073 	andeq	r0, r0, r3, ror r0
    1524:	00000078 	andeq	r0, r0, r8, ror r0
    1528:	01f30004 	mvnseq	r0, r4
    152c:	00009f50 	andeq	r9, r0, r0, asr pc
	...
    1538:	00480000 	subeq	r0, r8, r0
    153c:	00010000 	andeq	r0, r1, r0
    1540:	00004850 	andeq	r4, r0, r0, asr r8
    1544:	00006800 	andeq	r6, r0, r0, lsl #16
    1548:	f3000400 	vshl.u8	d0, d0, d0
    154c:	009f5001 	addseq	r5, pc, r1
	...
    1558:	4b000000 	blmi	1560 <_start-0x6aa0>
    155c:	01000000 	mrseq	r0, (UNDEF: 0)
    1560:	004b5100 	subeq	r5, fp, r0, lsl #2
    1564:	00680000 	rsbeq	r0, r8, r0
    1568:	00040000 	andeq	r0, r4, r0
    156c:	9f5101f3 	svcls	0x005101f3
	...
    1578:	0000004c 	andeq	r0, r0, ip, asr #32
    157c:	00000054 	andeq	r0, r0, r4, asr r0
    1580:	54500001 	ldrbpl	r0, [r0], #-1
    1584:	58000000 	stmdapl	r0, {}	; <UNPREDICTABLE>
    1588:	09000000 	stmdbeq	r0, {}	; <UNPREDICTABLE>
    158c:	74007500 	strvc	r7, [r0], #-1280	; 0xfffffb00
    1590:	00712400 	rsbseq	r2, r1, r0, lsl #8
    1594:	00589f21 	subseq	r9, r8, r1, lsr #30
    1598:	005f0000 	subseq	r0, pc, r0
    159c:	00010000 	andeq	r0, r1, r0
    15a0:	00000051 	andeq	r0, r0, r1, asr r0
    15a4:	00000000 	andeq	r0, r0, r0
    15a8:	0000e000 	andeq	lr, r0, r0
    15ac:	00011b00 	andeq	r1, r1, r0, lsl #22
    15b0:	50000100 	andpl	r0, r0, r0, lsl #2
    15b4:	0000011b 	andeq	r0, r0, fp, lsl r1
    15b8:	00000120 	andeq	r0, r0, r0, lsr #2
    15bc:	01f30004 	mvnseq	r0, r4
    15c0:	01209f50 			; <UNDEFINED> instruction: 0x01209f50
    15c4:	01230000 			; <UNDEFINED> instruction: 0x01230000
    15c8:	00010000 	andeq	r0, r1, r0
    15cc:	00012350 	andeq	r2, r1, r0, asr r3
    15d0:	00013c00 	andeq	r3, r1, r0, lsl #24
    15d4:	f3000400 	vshl.u8	d0, d0, d0
    15d8:	3c9f5001 	ldccc	0, cr5, [pc], {1}
    15dc:	3f000001 	svccc	0x00000001
    15e0:	01000001 	tsteq	r0, r1
    15e4:	013f5000 	teqeq	pc, r0
    15e8:	016c0000 	cmneq	ip, r0
    15ec:	00040000 	andeq	r0, r4, r0
    15f0:	9f5001f3 	svcls	0x005001f3
	...
    15fc:	000000e0 	andeq	r0, r0, r0, ror #1
    1600:	00000108 	andeq	r0, r0, r8, lsl #2
    1604:	08510001 	ldmdaeq	r1, {r0}^
    1608:	1b000001 	blne	1614 <_start-0x69ec>
    160c:	03000001 	movweq	r0, #1
    1610:	9f017100 	svcls	0x00017100
    1614:	0000011b 	andeq	r0, r0, fp, lsl r1
    1618:	00000120 	andeq	r0, r0, r0, lsr #2
    161c:	01f30004 	mvnseq	r0, r4
    1620:	01209f51 			; <UNDEFINED> instruction: 0x01209f51
    1624:	01230000 			; <UNDEFINED> instruction: 0x01230000
    1628:	00010000 	andeq	r0, r1, r0
    162c:	00012351 	andeq	r2, r1, r1, asr r3
    1630:	00016c00 	andeq	r6, r1, r0, lsl #24
    1634:	f3000400 	vshl.u8	d0, d0, d0
    1638:	009f5101 	addseq	r5, pc, r1, lsl #2
    163c:	00000000 	andeq	r0, r0, r0
    1640:	f8000000 			; <UNDEFINED> instruction: 0xf8000000
    1644:	fc000000 	stc2	0, cr0, [r0], {-0}
    1648:	01000000 	mrseq	r0, (UNDEF: 0)
    164c:	00fc5200 	rscseq	r5, ip, r0, lsl #4
    1650:	01040000 	mrseq	r0, (UNDEF: 4)
    1654:	00050000 	andeq	r0, r5, r0
    1658:	00969c03 	addseq	r9, r6, r3, lsl #24
    165c:	00010400 	andeq	r0, r1, r0, lsl #8
    1660:	00011b00 	andeq	r1, r1, r0, lsl #22
    1664:	53000100 	movwpl	r0, #256	; 0x100
    1668:	0000013c 	andeq	r0, r0, ip, lsr r1
    166c:	0000013f 	andeq	r0, r0, pc, lsr r1
    1670:	00530001 	subseq	r0, r3, r1
    1674:	00000000 	andeq	r0, r0, r0
    1678:	6c000000 	stcvs	0, cr0, [r0], {-0}
    167c:	80000000 	andhi	r0, r0, r0
    1680:	01000000 	mrseq	r0, (UNDEF: 0)
    1684:	00805000 	addeq	r5, r0, r0
    1688:	009b0000 	addseq	r0, fp, r0
    168c:	00010000 	andeq	r0, r1, r0
    1690:	00009b52 	andeq	r9, r0, r2, asr fp
    1694:	0000a400 	andeq	sl, r0, r0, lsl #8
    1698:	f3000900 	vmls.i8	d0, d0, d0
    169c:	07235001 	streq	r5, [r3, -r1]!
    16a0:	9f1af809 	svcls	0x001af809
    16a4:	000000a4 	andeq	r0, r0, r4, lsr #1
    16a8:	000000a7 	andeq	r0, r0, r7, lsr #1
    16ac:	a7500001 	ldrbge	r0, [r0, -r1]
    16b0:	d0000000 	andle	r0, r0, r0
    16b4:	04000000 	streq	r0, [r0], #-0
    16b8:	5001f300 	andpl	pc, r1, r0, lsl #6
    16bc:	0000009f 	muleq	r0, pc, r0	; <UNPREDICTABLE>
    16c0:	00000000 	andeq	r0, r0, r0
    16c4:	00008800 	andeq	r8, r0, r0, lsl #16
    16c8:	0000a400 	andeq	sl, r0, r0, lsl #8
    16cc:	54000100 	strpl	r0, [r0], #-256	; 0xffffff00
	...
    16d8:	0000001c 	andeq	r0, r0, ip, lsl r0
    16dc:	00000043 	andeq	r0, r0, r3, asr #32
    16e0:	43500001 	cmpmi	r0, #1
    16e4:	6c000000 	stcvs	0, cr0, [r0], {-0}
    16e8:	04000000 	streq	r0, [r0], #-0
    16ec:	5001f300 	andpl	pc, r1, r0, lsl #6
    16f0:	0000009f 	muleq	r0, pc, r0	; <UNPREDICTABLE>
    16f4:	00000000 	andeq	r0, r0, r0
    16f8:	00001c00 	andeq	r1, r0, r0, lsl #24
    16fc:	00004300 	andeq	r4, r0, r0, lsl #6
    1700:	50000100 	andpl	r0, r0, r0, lsl #2
    1704:	00000043 	andeq	r0, r0, r3, asr #32
    1708:	0000006c 	andeq	r0, r0, ip, rrx
    170c:	01f30004 	mvnseq	r0, r4
    1710:	00009f50 	andeq	r9, r0, r0, asr pc
    1714:	00000000 	andeq	r0, r0, r0
	...

Disassembly of section .debug_aranges:

00000000 <.debug_aranges>:
   0:	0000001c 	andeq	r0, r0, ip, lsl r0
   4:	00000002 	andeq	r0, r0, r2
   8:	00040000 	andeq	r0, r4, r0
   c:	00000000 	andeq	r0, r0, r0
  10:	00008010 	andeq	r8, r0, r0, lsl r0
  14:	000000e8 	andeq	r0, r0, r8, ror #1
	...
  20:	0000001c 	andeq	r0, r0, ip, lsl r0
  24:	0b980002 	bleq	fe600034 <__bss_end__+0xfe5f5fd4>
  28:	00040000 	andeq	r0, r4, r0
  2c:	00000000 	andeq	r0, r0, r0
  30:	000080f8 	strdeq	r8, [r0], -r8	; <UNPREDICTABLE>
  34:	00000868 	andeq	r0, r0, r8, ror #16
	...
  40:	0000001c 	andeq	r0, r0, ip, lsl r0
  44:	25210002 	strcs	r0, [r1, #-2]!
  48:	00040000 	andeq	r0, r4, r0
  4c:	00000000 	andeq	r0, r0, r0
  50:	00008960 	andeq	r8, r0, r0, ror #18
  54:	000000ec 	andeq	r0, r0, ip, ror #1
	...
  60:	0000001c 	andeq	r0, r0, ip, lsl r0
  64:	2f230002 	svccs	0x00230002
  68:	00040000 	andeq	r0, r4, r0
  6c:	00000000 	andeq	r0, r0, r0
  70:	00008a4c 	andeq	r8, r0, ip, asr #20
  74:	00000018 	andeq	r0, r0, r8, lsl r0
	...
  80:	0000001c 	andeq	r0, r0, ip, lsl r0
  84:	38a30002 	stmiacc	r3!, {r1}
  88:	00040000 	andeq	r0, r4, r0
  8c:	00000000 	andeq	r0, r0, r0
  90:	00008a64 	andeq	r8, r0, r4, ror #20
  94:	00000058 	andeq	r0, r0, r8, asr r0
	...
  a0:	0000001c 	andeq	r0, r0, ip, lsl r0
  a4:	42d20002 	sbcsmi	r0, r2, #2
  a8:	00040000 	andeq	r0, r4, r0
  ac:	00000000 	andeq	r0, r0, r0
  b0:	00008abc 			; <UNDEFINED> instruction: 0x00008abc
  b4:	0000003c 	andeq	r0, r0, ip, lsr r0
	...
  c0:	0000001c 	andeq	r0, r0, ip, lsl r0
  c4:	4caf0002 	stcmi	0, cr0, [pc], #8	; d4 <_start-0x7f2c>
  c8:	00040000 	andeq	r0, r4, r0
  cc:	00000000 	andeq	r0, r0, r0
  d0:	00008af8 	strdeq	r8, [r0], -r8	; <UNPREDICTABLE>
  d4:	00000034 	andeq	r0, r0, r4, lsr r0
	...
  e0:	0000001c 	andeq	r0, r0, ip, lsl r0
  e4:	56360002 	ldrtpl	r0, [r6], -r2
  e8:	00040000 	andeq	r0, r4, r0
  ec:	00000000 	andeq	r0, r0, r0
  f0:	00008b2c 	andeq	r8, r0, ip, lsr #22
  f4:	0000005c 	andeq	r0, r0, ip, asr r0
	...
 100:	0000001c 	andeq	r0, r0, ip, lsl r0
 104:	600c0002 	andvs	r0, ip, r2
 108:	00040000 	andeq	r0, r4, r0
 10c:	00000000 	andeq	r0, r0, r0
 110:	00008b88 	andeq	r8, r0, r8, lsl #23
 114:	00000520 	andeq	r0, r0, r0, lsr #10
	...
 120:	0000001c 	andeq	r0, r0, ip, lsl r0
 124:	6fb00002 	svcvs	0x00b00002
 128:	00040000 	andeq	r0, r4, r0
 12c:	00000000 	andeq	r0, r0, r0
 130:	000090a8 	andeq	r9, r0, r8, lsr #1
 134:	00000028 	andeq	r0, r0, r8, lsr #32
	...
 140:	0000001c 	andeq	r0, r0, ip, lsl r0
 144:	795f0002 	ldmdbvc	pc, {r1}^	; <UNPREDICTABLE>
 148:	00040000 	andeq	r0, r4, r0
 14c:	00000000 	andeq	r0, r0, r0
 150:	000090d0 	ldrdeq	r9, [r0], -r0
 154:	0000002c 	andeq	r0, r0, ip, lsr #32
	...
 160:	0000001c 	andeq	r0, r0, ip, lsl r0
 164:	83360002 	teqhi	r6, #2
 168:	00040000 	andeq	r0, r4, r0
 16c:	00000000 	andeq	r0, r0, r0
 170:	000090fc 	strdeq	r9, [r0], -ip
 174:	00000078 	andeq	r0, r0, r8, ror r0
	...
 180:	0000001c 	andeq	r0, r0, ip, lsl r0
 184:	8dd50002 	ldclhi	0, cr0, [r5, #8]
 188:	00040000 	andeq	r0, r4, r0
 18c:	00000000 	andeq	r0, r0, r0
 190:	00009174 	andeq	r9, r0, r4, ror r1
 194:	0000008c 	andeq	r0, r0, ip, lsl #1
	...
 1a0:	0000001c 	andeq	r0, r0, ip, lsl r0
 1a4:	98c30002 	stmials	r3, {r1}^
 1a8:	00040000 	andeq	r0, r4, r0
 1ac:	00000000 	andeq	r0, r0, r0
 1b0:	0000924c 	andeq	r9, r0, ip, asr #4
 1b4:	00000178 	andeq	r0, r0, r8, ror r1
	...
 1c0:	0000001c 	andeq	r0, r0, ip, lsl r0
 1c4:	a58c0002 	strge	r0, [ip, #2]
 1c8:	00040000 	andeq	r0, r4, r0
 1cc:	00000000 	andeq	r0, r0, r0
 1d0:	000093c4 	andeq	r9, r0, r4, asr #7
 1d4:	00000120 	andeq	r0, r0, r0, lsr #2
	...
 1e0:	0000001c 	andeq	r0, r0, ip, lsl r0
 1e4:	b1000002 	tstlt	r0, r2
 1e8:	00040000 	andeq	r0, r4, r0
 1ec:	00000000 	andeq	r0, r0, r0
 1f0:	000094e4 	andeq	r9, r0, r4, ror #9
 1f4:	00000194 	muleq	r0, r4, r1
	...

Disassembly of section .debug_line:

00000000 <.debug_line>:
       0:	00000120 	andeq	r0, r0, r0, lsr #2
       4:	00d30003 	sbcseq	r0, r3, r3
       8:	01020000 	mrseq	r0, (UNDEF: 2)
       c:	000d0efb 	strdeq	r0, [sp], -fp
      10:	01010101 	tsteq	r1, r1, lsl #2
      14:	01000000 	mrseq	r0, (UNDEF: 0)
      18:	2f010000 	svccs	0x00010000
      1c:	2f727375 	svccs	0x00727375
      20:	2d6d7261 	sfmcs	f7, 2, [sp, #-388]!	; 0xfffffe7c
      24:	656e6f6e 	strbvs	r6, [lr, #-3950]!	; 0xfffff092
      28:	6261652d 	rsbvs	r6, r1, #188743680	; 0xb400000
      2c:	6e692f69 	cdpvs	15, 6, cr2, cr9, cr9, {3}
      30:	64756c63 	ldrbtvs	r6, [r5], #-3171	; 0xfffff39d
      34:	79732f65 	ldmdbvc	r3!, {r0, r2, r5, r6, r8, r9, sl, fp, sp}^
      38:	752f0073 	strvc	r0, [pc, #-115]!	; ffffffcd <__bss_end__+0xffff5f6d>
      3c:	6c2f7273 	sfmvs	f7, 4, [pc], #-460	; fffffe78 <__bss_end__+0xffff5e18>
      40:	672f6269 	strvs	r6, [pc, -r9, ror #4]!
      44:	612f6363 			; <UNDEFINED> instruction: 0x612f6363
      48:	6e2d6d72 	mcrvs	13, 1, r6, cr13, cr2, {3}
      4c:	2d656e6f 	stclcs	14, cr6, [r5, #-444]!	; 0xfffffe44
      50:	69626165 	stmdbvs	r2!, {r0, r2, r5, r6, r8, sp, lr}^
      54:	322e392f 	eorcc	r3, lr, #770048	; 0xbc000
      58:	692f302e 	stmdbvs	pc!, {r1, r2, r3, r5, ip, sp}	; <UNPREDICTABLE>
      5c:	756c636e 	strbvc	r6, [ip, #-878]!	; 0xfffffc92
      60:	2f006564 	svccs	0x00006564
      64:	656d6f68 	strbvs	r6, [sp, #-3944]!	; 0xfffff098
      68:	6573752f 	ldrbvs	r7, [r3, #-1327]!	; 0xfffffad1
      6c:	65442f72 	strbvs	r2, [r4, #-3954]	; 0xfffff08e
      70:	53432f76 	movtpl	r2, #16246	; 0x3f76
      74:	58303432 	ldmdapl	r0!, {r1, r4, r5, sl, ip, sp}
      78:	62696c2f 	rsbvs	r6, r9, #12032	; 0x2f00
      7c:	692f6970 	stmdbvs	pc!, {r4, r5, r6, r8, fp, sp, lr}	; <UNPREDICTABLE>
      80:	756c636e 	strbvc	r6, [ip, #-878]!	; 0xfffffc92
      84:	00006564 	andeq	r6, r0, r4, ror #10
      88:	74726170 	ldrbtvc	r6, [r2], #-368	; 0xfffffe90
      8c:	65742d31 	ldrbvs	r2, [r4, #-3377]!	; 0xfffff2cf
      90:	2e357473 	mrccs	4, 1, r7, cr5, cr3, {3}
      94:	00000063 	andeq	r0, r0, r3, rrx
      98:	636f6c00 	cmnvs	pc, #0, 24
      9c:	00682e6b 	rsbeq	r2, r8, fp, ror #28
      a0:	5f000001 	svcpl	0x00000001
      a4:	65707974 	ldrbvs	r7, [r0, #-2420]!	; 0xfffff68c
      a8:	00682e73 	rsbeq	r2, r8, r3, ror lr
      ac:	73000001 	movwvc	r0, #1
      b0:	65646474 	strbvs	r6, [r4, #-1140]!	; 0xfffffb8c
      b4:	00682e66 	rsbeq	r2, r8, r6, ror #28
      b8:	72000002 	andvc	r0, r0, #2
      bc:	746e6565 	strbtvc	r6, [lr], #-1381	; 0xfffffa9b
      c0:	0100682e 	tsteq	r0, lr, lsr #16
      c4:	70720000 	rsbsvc	r0, r2, r0
      c8:	00682e69 	rsbeq	r2, r8, r9, ror #28
      cc:	63000003 	movwvs	r0, #3
      d0:	6c6c616b 	stfvse	f6, [ip], #-428	; 0xfffffe54
      d4:	682e636f 	stmdavs	lr!, {r0, r1, r2, r3, r5, r6, r8, r9, sp, lr}
      d8:	00000000 	andeq	r0, r0, r0
      dc:	00140500 	andseq	r0, r4, r0, lsl #10
      e0:	80100205 	andshi	r0, r0, r5, lsl #4
      e4:	05160000 	ldreq	r0, [r6, #-0]
      e8:	4b4d2f05 	blmi	134bd04 <__bss_end__+0x1341ca4>
      ec:	10058513 	andne	r8, r5, r3, lsl r5
      f0:	05050106 	streq	r0, [r5, #-262]	; 0xfffffefa
      f4:	053d0806 	ldreq	r0, [sp, #-2054]!	; 0xfffff7fa
      f8:	2e010610 	mcrcs	6, 0, r0, cr1, cr0, {0}
      fc:	d8060505 	stmdale	r6, {r0, r2, r8, sl}
     100:	2f068206 	svccs	0x00068206
     104:	060805a0 	streq	r0, [r8], -r0, lsr #11
     108:	2e070501 	cfsh32cs	mvfx0, mvfx7, #1
     10c:	4b060905 	blmi	182528 <__bss_end__+0x1784c8>
     110:	4a4a0114 	bmi	1280568 <__bss_end__+0x1276508>
     114:	13060105 	movwne	r0, #24837	; 0x6105
     118:	2b060905 	blcs	182534 <__bss_end__+0x1784d4>
     11c:	029e2e01 	addseq	r2, lr, #1, 28
     120:	0101000e 	tsteq	r1, lr
     124:	0000072f 	andeq	r0, r0, pc, lsr #14
     128:	01370003 	teqeq	r7, r3
     12c:	01020000 	mrseq	r0, (UNDEF: 2)
     130:	000d0efb 	strdeq	r0, [sp], -fp
     134:	01010101 	tsteq	r1, r1, lsl #2
     138:	01000000 	mrseq	r0, (UNDEF: 0)
     13c:	2f010000 	svccs	0x00010000
     140:	2f727375 	svccs	0x00727375
     144:	2f62696c 	svccs	0x0062696c
     148:	2f636367 	svccs	0x00636367
     14c:	2d6d7261 	sfmcs	f7, 2, [sp, #-388]!	; 0xfffffe7c
     150:	656e6f6e 	strbvs	r6, [lr, #-3950]!	; 0xfffff092
     154:	6261652d 	rsbvs	r6, r1, #188743680	; 0xb400000
     158:	2e392f69 	cdpcs	15, 3, cr2, cr9, cr9, {3}
     15c:	2f302e32 	svccs	0x00302e32
     160:	6c636e69 	stclvs	14, cr6, [r3], #-420	; 0xfffffe5c
     164:	00656475 	rsbeq	r6, r5, r5, ror r4
     168:	7273752f 	rsbsvc	r7, r3, #197132288	; 0xbc00000
     16c:	6d72612f 	ldfvse	f6, [r2, #-188]!	; 0xffffff44
     170:	6e6f6e2d 	cdpvs	14, 6, cr6, cr15, cr13, {1}
     174:	61652d65 	cmnvs	r5, r5, ror #26
     178:	692f6962 	stmdbvs	pc!, {r1, r5, r6, r8, fp, sp, lr}	; <UNPREDICTABLE>
     17c:	756c636e 	strbvc	r6, [ip, #-878]!	; 0xfffffc92
     180:	732f6564 			; <UNDEFINED> instruction: 0x732f6564
     184:	2f007379 	svccs	0x00007379
     188:	656d6f68 	strbvs	r6, [sp, #-3944]!	; 0xfffff098
     18c:	6573752f 	ldrbvs	r7, [r3, #-1327]!	; 0xfffffad1
     190:	65442f72 	strbvs	r2, [r4, #-3954]	; 0xfffff08e
     194:	53432f76 	movtpl	r2, #16246	; 0x3f76
     198:	58303432 	ldmdapl	r0!, {r1, r4, r5, sl, ip, sp}
     19c:	62696c2f 	rsbvs	r6, r9, #12032	; 0x2f00
     1a0:	692f6970 	stmdbvs	pc!, {r4, r5, r6, r8, fp, sp, lr}	; <UNPREDICTABLE>
     1a4:	756c636e 	strbvc	r6, [ip, #-878]!	; 0xfffffc92
     1a8:	2f006564 	svccs	0x00006564
     1ac:	2f727375 	svccs	0x00727375
     1b0:	2d6d7261 	sfmcs	f7, 2, [sp, #-388]!	; 0xfffffe7c
     1b4:	656e6f6e 	strbvs	r6, [lr, #-3950]!	; 0xfffff092
     1b8:	6261652d 	rsbvs	r6, r1, #188743680	; 0xb400000
     1bc:	6e692f69 	cdpvs	15, 6, cr2, cr9, cr9, {3}
     1c0:	64756c63 	ldrbtvs	r6, [r5], #-3171	; 0xfffff39d
     1c4:	682f0065 	stmdavs	pc!, {r0, r2, r5, r6}	; <UNPREDICTABLE>
     1c8:	2f656d6f 	svccs	0x00656d6f
     1cc:	72657375 	rsbvc	r7, r5, #-738197503	; 0xd4000001
     1d0:	7665442f 	strbtvc	r4, [r5], -pc, lsr #8
     1d4:	3253432f 	subscc	r4, r3, #-1140850688	; 0xbc000000
     1d8:	2f583034 	svccs	0x00583034
     1dc:	7062696c 	rsbvc	r6, r2, ip, ror #18
     1e0:	696c2f69 	stmdbvs	ip!, {r0, r3, r5, r6, r8, r9, sl, fp, sp}^
     1e4:	00006362 	andeq	r6, r0, r2, ror #6
     1e8:	6c616b63 			; <UNDEFINED> instruction: 0x6c616b63
     1ec:	2e636f6c 	cdpcs	15, 6, cr6, cr3, cr12, {3}
     1f0:	00000063 	andeq	r0, r0, r3, rrx
     1f4:	616b6300 	cmnvs	fp, r0, lsl #6
     1f8:	636f6c6c 	cmnvs	pc, #108, 24	; 0x6c00
     1fc:	0000682e 	andeq	r6, r0, lr, lsr #16
     200:	74730000 	ldrbtvc	r0, [r3], #-0
     204:	746e6964 	strbtvc	r6, [lr], #-2404	; 0xfffff69c
     208:	6363672d 	cmnvs	r3, #11796480	; 0xb40000
     20c:	0100682e 	tsteq	r0, lr, lsr #16
     210:	6f6c0000 	svcvs	0x006c0000
     214:	682e6b63 	stmdavs	lr!, {r0, r1, r5, r6, r8, r9, fp, sp, lr}
     218:	00000200 	andeq	r0, r0, r0, lsl #4
     21c:	7079745f 	rsbsvc	r7, r9, pc, asr r4
     220:	682e7365 	stmdavs	lr!, {r0, r2, r5, r6, r8, r9, ip, sp, lr}
     224:	00000200 	andeq	r0, r0, r0, lsl #4
     228:	64647473 	strbtvs	r7, [r4], #-1139	; 0xfffffb8d
     22c:	682e6665 	stmdavs	lr!, {r0, r2, r5, r6, r9, sl, sp, lr}
     230:	00000100 	andeq	r0, r0, r0, lsl #2
     234:	6e656572 	mcrvs	5, 3, r6, cr5, cr2, {3}
     238:	00682e74 	rsbeq	r2, r8, r4, ror lr
     23c:	72000002 	andvc	r0, r0, #2
     240:	682e6970 	stmdavs	lr!, {r4, r5, r6, r8, fp, sp, lr}
     244:	00000300 	andeq	r0, r0, r0, lsl #6
     248:	69727473 	ldmdbvs	r2!, {r0, r1, r4, r5, r6, sl, ip, sp, lr}^
     24c:	682e676e 	stmdavs	lr!, {r1, r2, r3, r5, r6, r8, r9, sl, sp, lr}
     250:	00000400 	andeq	r0, r0, r0, lsl #8
     254:	6362696c 	cmnvs	r2, #108, 18	; 0x1b0000
     258:	7478652d 	ldrbtvc	r6, [r8], #-1325	; 0xfffffad3
     25c:	682e6172 	stmdavs	lr!, {r1, r4, r5, r6, r8, sp, lr}
     260:	00000500 	andeq	r0, r0, r0, lsl #10
     264:	00220500 	eoreq	r0, r2, r0, lsl #10
     268:	80f80205 	rscshi	r0, r8, r5, lsl #4
     26c:	12030000 	andne	r0, r3, #0
     270:	01240501 			; <UNDEFINED> instruction: 0x01240501
     274:	01060105 	tsteq	r6, r5, lsl #2
     278:	0624052e 	strteq	r0, [r4], -lr, lsr #10
     27c:	05010630 	streq	r0, [r1, #-1584]	; 0xfffff9d0
     280:	052e0626 	streq	r0, [lr, #-1574]!	; 0xfffff9da
     284:	0501062d 	streq	r0, [r1, #-1581]	; 0xfffff9d3
     288:	22052e01 	andcs	r2, r5, #1, 28
     28c:	01064c06 	tsteq	r6, r6, lsl #24
     290:	4a062405 	bmi	1892ac <__bss_end__+0x17f24c>
     294:	01062b05 	tsteq	r6, r5, lsl #22
     298:	052e3d05 	streq	r3, [lr, #-3333]!	; 0xfffff2fb
     29c:	28052e01 	stmdacs	r5, {r0, r9, sl, fp, sp}
     2a0:	2a054c06 	bcs	1532c0 <__bss_end__+0x149260>
     2a4:	063c0501 	ldrteq	r0, [ip], -r1, lsl #10
     2a8:	2e010501 	cfsh32cs	mvfx0, mvfx1, #1
     2ac:	4d062905 	vstrmi.16	s4, [r6, #-10]	; <UNPREDICTABLE>
     2b0:	05130505 	ldreq	r0, [r3, #-1285]	; 0xfffffafb
     2b4:	2e130601 	cfmsub32cs	mvax0, mvfx0, mvfx3, mvfx1
     2b8:	03064205 	movweq	r4, #25093	; 0x6205
     2bc:	01062e23 	tsteq	r6, r3, lsr #28
     2c0:	67060505 	strvs	r0, [r6, -r5, lsl #10]
     2c4:	060b0513 			; <UNDEFINED> instruction: 0x060b0513
     2c8:	00100501 	andseq	r0, r0, r1, lsl #10
     2cc:	06010402 	streq	r0, [r1], -r2, lsl #8
     2d0:	0005052e 	andeq	r0, r5, lr, lsr #10
     2d4:	06010402 	streq	r0, [r1], -r2, lsl #8
     2d8:	06090501 	streq	r0, [r9], -r1, lsl #10
     2dc:	060d054b 	streq	r0, [sp], -fp, asr #10
     2e0:	2e0b0501 	cfsh32cs	mvfx0, mvfx11, #1
     2e4:	02001c05 	andeq	r1, r0, #1280	; 0x500
     2e8:	2d060204 	sfmcs	f0, 4, [r6, #-16]
     2ec:	02001d05 	andeq	r1, r0, #320	; 0x140
     2f0:	01060204 	tsteq	r6, r4, lsl #4
     2f4:	02040200 	andeq	r0, r4, #0, 4
     2f8:	060d052e 	streq	r0, [sp], -lr, lsr #10
     2fc:	06240530 			; <UNDEFINED> instruction: 0x06240530
     300:	1a052e01 	bne	14bb0c <__bss_end__+0x141aac>
     304:	2e11052e 	cfmul64cs	mvdx0, mvdx1, mvdx14
     308:	2f060d05 	svccs	0x00060d05
     30c:	4a660101 	bmi	1980718 <__bss_end__+0x19766b8>
     310:	02048201 	andeq	r8, r4, #268435456	; 0x10000000
     314:	0f031405 	svceq	0x00031405
     318:	13050501 	movwne	r0, #21761	; 0x5501
     31c:	13664a01 	cmnne	r6, #4096	; 0x1000
     320:	06090513 			; <UNDEFINED> instruction: 0x06090513
     324:	2e070501 	cfsh32cs	mvfx0, mvfx7, #1
     328:	4b060905 	blmi	182744 <__bss_end__+0x1786e4>
     32c:	059e4a01 	ldreq	r4, [lr, #2561]	; 0xa01
     330:	05131405 	ldreq	r1, [r3, #-1029]	; 0xfffffbfb
     334:	05010609 	streq	r0, [r1, #-1545]	; 0xfffff9f7
     338:	09052e07 	stmdbeq	r5, {r0, r1, r2, r9, sl, fp, sp}
     33c:	01064b06 	tsteq	r6, r6, lsl #22
     340:	0d050104 	stfeqs	f0, [r5, #-16]
     344:	01690306 	cmneq	r9, r6, lsl #6
     348:	4a4a0113 	bmi	128079c <__bss_end__+0x127673c>
     34c:	06140513 			; <UNDEFINED> instruction: 0x06140513
     350:	05020401 	streq	r0, [r2, #-1025]	; 0xfffffbff
     354:	4a14031e 	bmi	500fd4 <__bss_end__+0x4f6f74>
     358:	052e1a05 	streq	r1, [lr, #-2565]!	; 0xfffff5fb
     35c:	014b0609 	cmpeq	fp, r9, lsl #12
     360:	04ba064a 	ldrteq	r0, [sl], #1610	; 0x64a
     364:	030c0501 	movweq	r0, #50433	; 0xc501
     368:	0105016f 	tsteq	r5, pc, ror #2
     36c:	0630052f 	ldrteq	r0, [r0], -pc, lsr #10
     370:	050106f4 	streq	r0, [r1, #-1780]	; 0xfffff90c
     374:	064b0605 	strbeq	r0, [fp], -r5, lsl #12
     378:	2f01052e 	svccs	0x0001052e
     37c:	03062505 	movweq	r2, #25861	; 0x6505
     380:	01062e50 	tsteq	r6, r0, asr lr
     384:	4b060505 	blmi	1817a0 <__bss_end__+0x177740>
     388:	01060e05 	tsteq	r6, r5, lsl #28
     38c:	2f060505 	svccs	0x00060505
     390:	01060e05 	tsteq	r6, r5, lsl #28
     394:	4b060505 	blmi	1817b0 <__bss_end__+0x177750>
     398:	01061605 	tsteq	r6, r5, lsl #12
     39c:	4b060505 	blmi	1817b8 <__bss_end__+0x177758>
     3a0:	01060e05 	tsteq	r6, r5, lsl #28
     3a4:	2f060505 	svccs	0x00060505
     3a8:	13060105 	movwne	r0, #24837	; 0x6105
     3ac:	31062005 	tstcc	r6, r5
     3b0:	05050106 	streq	r0, [r5, #-262]	; 0xfffffefa
     3b4:	0c054b06 			; <UNDEFINED> instruction: 0x0c054b06
     3b8:	1f050106 	svcne	0x00050106
     3bc:	2e09052e 	cfsh32cs	mvfx0, mvfx9, #30
     3c0:	02003905 	andeq	r3, r0, #81920	; 0x14000
     3c4:	054a0104 	strbeq	r0, [sl, #-260]	; 0xfffffefc
     3c8:	04020044 	streq	r0, [r2], #-68	; 0xffffffbc
     3cc:	35052e01 	strcc	r2, [r5, #-3585]	; 0xfffff1ff
     3d0:	01040200 	mrseq	r0, R12_usr
     3d4:	0609052e 	streq	r0, [r9], -lr, lsr #10
     3d8:	6601014c 	strvs	r0, [r1], -ip, asr #2
     3dc:	0482014a 	streq	r0, [r2], #330	; 0x14a
     3e0:	03140502 	tsteq	r4, #8388608	; 0x800000
     3e4:	05050128 	streq	r0, [r5, #-296]	; 0xfffffed8
     3e8:	664a0113 			; <UNDEFINED> instruction: 0x664a0113
     3ec:	09051313 	stmdbeq	r5, {r0, r1, r4, r8, r9, ip}
     3f0:	07050106 	streq	r0, [r5, -r6, lsl #2]
     3f4:	0609052e 	streq	r0, [r9], -lr, lsr #10
     3f8:	9e4a014b 	dvflsem	f0, f2, #3.0
     3fc:	13140505 	tstne	r4, #20971520	; 0x1400000
     400:	01060905 	tsteq	r6, r5, lsl #18
     404:	052e0705 	streq	r0, [lr, #-1797]!	; 0xfffff8fb
     408:	044b0609 	strbeq	r0, [fp], #-1545	; 0xfffff9f7
     40c:	06100501 	ldreq	r0, [r0], -r1, lsl #10
     410:	04015103 	streq	r5, [r1], #-259	; 0xfffffefd
     414:	03010502 	movweq	r0, #5378	; 0x1502
     418:	1e052e30 	mcrne	14, 0, r2, cr5, cr0, {1}
     41c:	2e1a052c 	cfmul64cs	mvdx0, mvdx10, mvdx12
     420:	4b060905 	blmi	18283c <__bss_end__+0x1787dc>
     424:	ba064a01 	blt	192c30 <__bss_end__+0x188bd0>
     428:	0c050104 	stfeqs	f0, [r5], {4}
     42c:	05015403 	streq	r5, [r1, #-1027]	; 0xfffffbfd
     430:	3a052f01 	bcc	14c03c <__bss_end__+0x141fdc>
     434:	0106d806 	tsteq	r6, r6, lsl #16
     438:	67060505 	strvs	r0, [r6, -r5, lsl #10]
     43c:	060b0513 			; <UNDEFINED> instruction: 0x060b0513
     440:	00100501 	andseq	r0, r0, r1, lsl #10
     444:	06010402 	streq	r0, [r1], -r2, lsl #8
     448:	0005052e 	andeq	r0, r5, lr, lsr #10
     44c:	06010402 	streq	r0, [r1], -r2, lsl #8
     450:	06090501 	streq	r0, [r9], -r1, lsl #10
     454:	060d054b 	streq	r0, [sp], -fp, asr #10
     458:	2e0b0501 	cfsh32cs	mvfx0, mvfx11, #1
     45c:	02001c05 	andeq	r1, r0, #1280	; 0x500
     460:	2d060204 	sfmcs	f0, 4, [r6, #-16]
     464:	02001d05 	andeq	r1, r0, #320	; 0x140
     468:	01060204 	tsteq	r6, r4, lsl #4
     46c:	02040200 	andeq	r0, r4, #0, 4
     470:	060d052e 	streq	r0, [sp], -lr, lsr #10
     474:	06240530 			; <UNDEFINED> instruction: 0x06240530
     478:	1a052e01 	bne	14bc84 <__bss_end__+0x141c24>
     47c:	2e11052e 	cfmul64cs	mvdx0, mvdx1, mvdx14
     480:	2f060d05 	svccs	0x00060d05
     484:	4a660101 	bmi	1980890 <__bss_end__+0x1976830>
     488:	02049e01 	andeq	r9, r4, #1, 28
     48c:	1c031405 	cfstrsne	mvf1, [r3], {5}
     490:	13050501 	movwne	r0, #21761	; 0x5501
     494:	13664a01 	cmnne	r6, #4096	; 0x1000
     498:	06090513 			; <UNDEFINED> instruction: 0x06090513
     49c:	2e070501 	cfsh32cs	mvfx0, mvfx7, #1
     4a0:	4b060905 	blmi	1828bc <__bss_end__+0x17885c>
     4a4:	059e4a01 	ldreq	r4, [lr, #2561]	; 0xa01
     4a8:	05131405 	ldreq	r1, [r3, #-1029]	; 0xfffffbfb
     4ac:	05010609 	streq	r0, [r1, #-1545]	; 0xfffff9f7
     4b0:	09052e07 	stmdbeq	r5, {r0, r1, r2, r9, sl, fp, sp}
     4b4:	01044b06 	tsteq	r4, r6, lsl #22
     4b8:	03061405 	movweq	r1, #25605	; 0x6405
     4bc:	0204015d 	andeq	r0, r4, #1073741847	; 0x40000017
     4c0:	24030105 	strcs	r0, [r3], #-261	; 0xfffffefb
     4c4:	2c1e052e 	cfldr32cs	mvfx0, [lr], {46}	; 0x2e
     4c8:	052e1a05 	streq	r1, [lr, #-2565]!	; 0xfffff5fb
     4cc:	014b0609 	cmpeq	fp, r9, lsl #12
     4d0:	04ba064a 	ldrteq	r0, [sl], #1610	; 0x64a
     4d4:	030c0501 	movweq	r0, #50433	; 0xc501
     4d8:	01050161 	tsteq	r5, r1, ror #2
     4dc:	0622052f 	strteq	r0, [r2], -pc, lsr #10
     4e0:	06d61a03 	ldrbeq	r1, [r6], r3, lsl #20
     4e4:	06050501 	streq	r0, [r5], -r1, lsl #10
     4e8:	060c054c 	streq	r0, [ip], -ip, asr #10
     4ec:	30090501 	andcc	r0, r9, r1, lsl #10
     4f0:	05491605 	strbeq	r1, [r9, #-1541]	; 0xfffff9fb
     4f4:	09054a0c 	stmdbeq	r5, {r2, r3, r9, fp, lr}
     4f8:	00160566 	andseq	r0, r6, r6, ror #10
     4fc:	4b030402 	blmi	c150c <__bss_end__+0xb74ac>
     500:	02000c05 	andeq	r0, r0, #1280	; 0x500
     504:	05660304 	strbeq	r0, [r6, #-772]!	; 0xfffffcfc
     508:	04020009 	streq	r0, [r2], #-9
     50c:	054aba03 	strbeq	fp, [sl, #-2563]	; 0xfffff5fd
     510:	27052f01 	strcs	r2, [r5, -r1, lsl #30]
     514:	7fab0306 	svcvc	0x00ab0306
     518:	0501062e 	streq	r0, [r1, #-1582]	; 0xfffff9d2
     51c:	012f0605 			; <UNDEFINED> instruction: 0x012f0605
     520:	02040200 	andeq	r0, r4, #0, 4
     524:	040200ba 	streq	r0, [r2], #-186	; 0xffffff46
     528:	02000102 	andeq	r0, r0, #-2147483648	; 0x80000000
     52c:	00130204 	andseq	r0, r3, r4, lsl #4
     530:	06020402 	streq	r0, [r2], -r2, lsl #8
     534:	0402004a 	streq	r0, [r2], #-74	; 0xffffffb6
     538:	02002e02 	andeq	r2, r0, #2, 28
     53c:	2f060204 	svccs	0x00060204
     540:	02001705 	andeq	r1, r0, #1310720	; 0x140000
     544:	01060204 	tsteq	r6, r4, lsl #4
     548:	02000a05 	andeq	r0, r0, #20480	; 0x5000
     54c:	054a0204 	strbeq	r0, [sl, #-516]	; 0xfffffdfc
     550:	04020005 	streq	r0, [r2], #-5
     554:	052f0602 	streq	r0, [pc, #-1538]!	; ffffff5a <__bss_end__+0xffff5efa>
     558:	04020015 	streq	r0, [r2], #-21	; 0xffffffeb
     55c:	05010602 	streq	r0, [r1, #-1538]	; 0xfffff9fe
     560:	0402000e 	streq	r0, [r2], #-14
     564:	01052e02 	tsteq	r5, r2, lsl #28
     568:	02040200 	andeq	r0, r4, #0, 4
     56c:	0005052f 	andeq	r0, r5, pc, lsr #10
     570:	06010402 	streq	r0, [r1], -r2, lsl #8
     574:	0402002a 	streq	r0, [r2], #-42	; 0xffffffd6
     578:	02000101 	andeq	r0, r0, #1073741824	; 0x40000000
     57c:	002e0104 	eoreq	r0, lr, r4, lsl #2
     580:	9e010402 	cdpls	4, 0, cr0, cr1, cr2, {0}
     584:	e7035005 	str	r5, [r3, -r5]
     588:	0106ba00 	tsteq	r6, r0, lsl #20
     58c:	9f060505 	svcls	0x00060505
     590:	01061005 	tsteq	r6, r5
     594:	30060505 	andcc	r0, r6, r5, lsl #10
     598:	04020001 	streq	r0, [r2], #-1
     59c:	02009e02 	andeq	r9, r0, #2, 28
     5a0:	00130204 	andseq	r0, r3, r4, lsl #4
     5a4:	01020402 	tsteq	r2, r2, lsl #8
     5a8:	02040200 	andeq	r0, r4, #0, 4
     5ac:	02002e06 	andeq	r2, r0, #6, 28	; 0x60
     5b0:	2e060204 	cdpcs	2, 0, cr0, cr6, cr4, {0}
     5b4:	02040200 	andeq	r0, r4, #0, 4
     5b8:	04020066 	streq	r0, [r2], #-102	; 0xffffff9a
     5bc:	0a051302 	beq	1451cc <__bss_end__+0x13b16c>
     5c0:	02040200 	andeq	r0, r4, #0, 4
     5c4:	08050106 	stmdaeq	r5, {r1, r2, r8}
     5c8:	02040200 	andeq	r0, r4, #0, 4
     5cc:	0605054a 	streq	r0, [r5], -sl, asr #10
     5d0:	0611054c 	ldreq	r0, [r1], -ip, asr #10
     5d4:	06050501 	streq	r0, [r5], -r1, lsl #10
     5d8:	060e056b 	streq	r0, [lr], -fp, ror #10
     5dc:	06050501 	streq	r0, [r5], -r1, lsl #10
     5e0:	1005834b 	andne	r8, r5, fp, asr #6
     5e4:	0e050106 	adfeqs	f0, f5, f6
     5e8:	2f01054a 	svccs	0x0001054a
     5ec:	02000505 	andeq	r0, r0, #20971520	; 0x1400000
     5f0:	03060104 	movweq	r0, #24836	; 0x6104
     5f4:	02002e74 	andeq	r2, r0, #116, 28	; 0x740
     5f8:	002e0104 	eoreq	r0, lr, r4, lsl #2
     5fc:	9e010402 	cdpls	4, 0, cr0, cr1, cr2, {0}
     600:	0f035705 	svceq	0x00035705
     604:	050106d6 	streq	r0, [r1, #-1750]	; 0xfffff92a
     608:	13670605 	cmnne	r7, #5242880	; 0x500000
     60c:	2e060114 	mcrcs	1, 0, r0, cr6, cr4, {0}
     610:	02040200 	andeq	r0, r4, #0, 4
     614:	0200ba06 	andeq	fp, r0, #24576	; 0x6000
     618:	00130204 	andseq	r0, r3, r4, lsl #4
     61c:	01020402 	tsteq	r2, r2, lsl #8
     620:	02040200 	andeq	r0, r4, #0, 4
     624:	02002e06 	andeq	r2, r0, #6, 28	; 0x60
     628:	2e060204 	cdpcs	2, 0, cr0, cr6, cr4, {0}
     62c:	02040200 	andeq	r0, r4, #0, 4
     630:	04020066 	streq	r0, [r2], #-102	; 0xffffff9a
     634:	14051402 	strne	r1, [r5], #-1026	; 0xfffffbfe
     638:	02040200 	andeq	r0, r4, #0, 4
     63c:	0e050106 	adfeqs	f0, f5, f6
     640:	02040200 	andeq	r0, r4, #0, 4
     644:	0005052e 	andeq	r0, r5, lr, lsr #10
     648:	06020402 	streq	r0, [r2], -r2, lsl #8
     64c:	000e052f 	andeq	r0, lr, pc, lsr #10
     650:	06020402 	streq	r0, [r2], -r2, lsl #8
     654:	00050501 	andeq	r0, r5, r1, lsl #10
     658:	06020402 	streq	r0, [r2], -r2, lsl #8
     65c:	00070531 	andeq	r0, r7, r1, lsr r5
     660:	06020402 	streq	r0, [r2], -r2, lsl #8
     664:	06090501 	streq	r0, [r9], -r1, lsl #10
     668:	0505014b 	streq	r0, [r5, #-331]	; 0xfffffeb5
     66c:	060e0514 			; <UNDEFINED> instruction: 0x060e0514
     670:	66130501 	ldrvs	r0, [r3], -r1, lsl #10
     674:	052e0705 	streq	r0, [lr, #-1797]!	; 0xfffff8fb
     678:	014b0609 	cmpeq	fp, r9, lsl #12
     67c:	13150505 	tstne	r5, #20971520	; 0x1400000
     680:	01061505 	tsteq	r6, r5, lsl #10
     684:	2f060505 	svccs	0x00060505
     688:	01061905 	tsteq	r6, r5, lsl #18
     68c:	052e1305 	streq	r1, [lr, #-773]!	; 0xfffffcfb
     690:	052f0605 	streq	r0, [pc, #-1541]!	; 93 <_start-0x7f6d>
     694:	0501060e 	streq	r0, [r1, #-1550]	; 0xfffff9f2
     698:	054b0605 	strbeq	r0, [fp, #-1541]	; 0xfffff9fb
     69c:	05010612 	streq	r0, [r1, #-1554]	; 0xfffff9ee
     6a0:	05670605 	strbeq	r0, [r7, #-1541]!	; 0xfffff9fb
     6a4:	05010613 	streq	r0, [r1, #-1555]	; 0xfffff9ed
     6a8:	054b0605 	strbeq	r0, [fp, #-1541]	; 0xfffff9fb
     6ac:	05010614 	streq	r0, [r1, #-1556]	; 0xfffff9ec
     6b0:	834b0605 	movthi	r0, #46597	; 0xb605
     6b4:	9f066606 	svcls	0x00066606
     6b8:	01061005 	tsteq	r6, r5
     6bc:	054a0e05 	strbeq	r0, [sl, #-3589]	; 0xfffff1fb
     6c0:	05300605 	ldreq	r0, [r0, #-1541]!	; 0xfffff9fb
     6c4:	0501060a 	streq	r0, [r1, #-1546]	; 0xfffff9f6
     6c8:	01830605 	orreq	r0, r3, r5, lsl #12
     6cc:	02040200 	andeq	r0, r4, #0, 4
     6d0:	04020082 	streq	r0, [r2], #-130	; 0xffffff7e
     6d4:	02000102 	andeq	r0, r0, #-2147483648	; 0x80000000
     6d8:	05130204 	ldreq	r0, [r3, #-516]	; 0xfffffdfc
     6dc:	0402000b 	streq	r0, [r2], #-11
     6e0:	05010602 	streq	r0, [r1, #-1538]	; 0xfffff9fe
     6e4:	04020005 	streq	r0, [r2], #-5
     6e8:	00670602 	rsbeq	r0, r7, r2, lsl #12
     6ec:	01020402 	tsteq	r2, r2, lsl #8
     6f0:	02040200 	andeq	r0, r4, #0, 4
     6f4:	02002e06 	andeq	r2, r0, #6, 28	; 0x60
     6f8:	2e060204 	cdpcs	2, 0, cr0, cr6, cr4, {0}
     6fc:	02040200 	andeq	r0, r4, #0, 4
     700:	0402009e 	streq	r0, [r2], #-158	; 0xffffff62
     704:	01051302 	tsteq	r5, r2, lsl #6
     708:	02040200 	andeq	r0, r4, #0, 4
     70c:	05051306 	streq	r1, [r5, #-774]	; 0xfffffcfa
     710:	01040200 	mrseq	r0, R12_usr
     714:	66620306 	strbtvs	r0, [r2], -r6, lsl #6
     718:	01040200 	mrseq	r0, R12_usr
     71c:	0402002e 	streq	r0, [r2], #-46	; 0xffffffd2
     720:	09059e01 	stmdbeq	r5, {r0, r9, sl, fp, ip, pc}
     724:	2e060136 	mcrcs	1, 0, r0, cr6, cr6, {1}
     728:	01662e06 	cmneq	r6, r6, lsl #28
     72c:	0131ba2e 	teqeq	r1, lr, lsr #20
     730:	2e062e06 	cdpcs	14, 0, cr2, cr6, cr6, {0}
     734:	082e01d6 	stmdaeq	lr!, {r1, r2, r4, r6, r7, r8}
     738:	0005053c 	andeq	r0, r5, ip, lsr r5
     73c:	03010402 	movweq	r0, #5122	; 0x1402
     740:	02002e0f 	andeq	r2, r0, #15, 28	; 0xf0
     744:	00010104 	andeq	r0, r1, r4, lsl #2
     748:	2e010402 	cdpcs	4, 0, cr0, cr1, cr2, {0}
     74c:	01040200 	mrseq	r0, R12_usr
     750:	031a059e 	tsteq	sl, #662700032	; 0x27800000
     754:	05ac0809 	streq	r0, [ip, #2057]!	; 0x809
     758:	1d052f05 	stcne	15, cr2, [r5, #-20]	; 0xffffffec
     75c:	05050106 	streq	r0, [r5, #-262]	; 0xfffffefa
     760:	1e058306 	cdpne	3, 0, cr8, cr5, cr6, {0}
     764:	05050106 	streq	r0, [r5, #-262]	; 0xfffffefa
     768:	4a014c06 	bmi	53788 <__bss_end__+0x49728>
     76c:	15131482 	ldrne	r1, [r3, #-1154]	; 0xfffffb7e
     770:	05010a05 	streq	r0, [r1, #-2565]	; 0xfffff5fb
     774:	2e010611 	mcrcs	6, 0, r0, cr1, cr1, {0}
     778:	2d0f0e05 	stccs	14, cr0, [pc, #-20]	; 76c <_start-0x7894>
     77c:	05320505 	ldreq	r0, [r2, #-1285]!	; 0xfffffafb
     780:	0533060d 	ldreq	r0, [r3, #-1549]!	; 0xfffff9f3
     784:	05010614 	streq	r0, [r1, #-1556]	; 0xfffff9ec
     788:	052f060d 	streq	r0, [pc, #-1549]!	; 183 <_start-0x7e7d>
     78c:	05010612 	streq	r0, [r1, #-1554]	; 0xfffff9ee
     790:	062f060d 	strteq	r0, [pc], -sp, lsl #12
     794:	06050501 	streq	r0, [r5], -r1, lsl #10
     798:	05010f03 	streq	r0, [r1, #-3843]	; 0xfffff0fd
     79c:	05010607 	streq	r0, [r1, #-1543]	; 0xfffff9f9
     7a0:	014b0609 	cmpeq	fp, r9, lsl #12
     7a4:	0200824a 	andeq	r8, r0, #-1610612732	; 0xa0000004
     7a8:	05140104 	ldreq	r0, [r4, #-260]	; 0xfffffefc
     7ac:	04020005 	streq	r0, [r2], #-5
     7b0:	01051301 	tsteq	r5, r1, lsl #6
     7b4:	01040200 	mrseq	r0, R12_usr
     7b8:	0d051306 	stceq	3, cr1, [r5, #-24]	; 0xffffffe8
     7bc:	4a700306 	bmi	1c013dc <__bss_end__+0x1bf737c>
     7c0:	01061405 	tsteq	r6, r5, lsl #8
     7c4:	35060905 	strcc	r0, [r6, #-2309]	; 0xfffff6fb
     7c8:	01060e05 	tsteq	r6, r5, lsl #28
     7cc:	03060a05 	movweq	r0, #27141	; 0x6a05
     7d0:	33052e6f 	movwcc	r2, #24175	; 0x5e6f
     7d4:	49050106 	stmdbmi	r5, {r1, r2, r8}
     7d8:	2e42052e 	cdpcs	5, 4, cr0, cr2, cr14, {1}
     7dc:	052e5605 	streq	r5, [lr, #-1541]!	; 0xfffff9fb
     7e0:	2f052e10 	svccs	0x00052e10
     7e4:	01040200 	mrseq	r0, R12_usr
     7e8:	37052d06 	strcc	r2, [r5, -r6, lsl #26]
     7ec:	01040200 	mrseq	r0, R12_usr
     7f0:	05050106 	streq	r0, [r5, #-262]	; 0xfffffefa
     7f4:	01040200 	mrseq	r0, R12_usr
     7f8:	0609054a 	streq	r0, [r9], -sl, asr #10
     7fc:	060e054d 	streq	r0, [lr], -sp, asr #10
     800:	4a0c0501 	bmi	301c0c <__bss_end__+0x2f7bac>
     804:	51060905 	tstpl	r6, r5, lsl #18
     808:	01061805 	tsteq	r6, r5, lsl #16
     80c:	054a0e05 	strbeq	r0, [sl, #-3589]	; 0xfffff1fb
     810:	4805660c 	stmdami	r5, {r2, r3, r9, sl, sp, lr}
     814:	01040200 	mrseq	r0, R12_usr
     818:	003e054a 	eorseq	r0, lr, sl, asr #10
     81c:	66010402 	strvs	r0, [r1], -r2, lsl #8
     820:	02003a05 	andeq	r3, r0, #20480	; 0x5000
     824:	05ba0104 	ldreq	r0, [sl, #260]!	; 0x104
     828:	054c060e 	strbeq	r0, [ip, #-1550]	; 0xfffff9f2
     82c:	05010617 	streq	r0, [r1, #-1559]	; 0xfffff9e9
     830:	0d052e11 	stceq	14, cr2, [r5, #-68]	; 0xffffffbc
     834:	24054c06 	strcs	r4, [r5], #-3078	; 0xfffff3fa
     838:	12050106 	andne	r0, r5, #-2147483647	; 0x80000001
     83c:	6610054a 	ldrvs	r0, [r0], -sl, asr #10
     840:	2f061105 	svccs	0x00061105
     844:	01061805 	tsteq	r6, r5, lsl #16
     848:	09052e2e 	stmdbeq	r5, {r1, r2, r3, r5, r9, sl, fp, sp}
     84c:	010a0306 	tsteq	sl, r6, lsl #6
     850:	12024a01 	andne	r4, r2, #4096	; 0x1000
     854:	3c010100 	stfccs	f0, [r1], {-0}
     858:	03000002 	movweq	r0, #2
     85c:	0000d400 	andeq	sp, r0, r0, lsl #8
     860:	fb010200 	blx	4106a <__bss_end__+0x3700a>
     864:	01000d0e 	tsteq	r0, lr, lsl #26
     868:	00010101 	andeq	r0, r1, r1, lsl #2
     86c:	00010000 	andeq	r0, r1, r0
     870:	696c0100 	stmdbvs	ip!, {r8}^
     874:	2f006362 	svccs	0x00006362
     878:	2f727375 	svccs	0x00727375
     87c:	2f62696c 	svccs	0x0062696c
     880:	2f636367 	svccs	0x00636367
     884:	2d6d7261 	sfmcs	f7, 2, [sp, #-388]!	; 0xfffffe7c
     888:	656e6f6e 	strbvs	r6, [lr, #-3950]!	; 0xfffff092
     88c:	6261652d 	rsbvs	r6, r1, #188743680	; 0xb400000
     890:	2e392f69 	cdpcs	15, 3, cr2, cr9, cr9, {3}
     894:	2f302e32 	svccs	0x00302e32
     898:	6c636e69 	stclvs	14, cr6, [r3], #-420	; 0xfffffe5c
     89c:	00656475 	rsbeq	r6, r5, r5, ror r4
     8a0:	7273752f 	rsbsvc	r7, r3, #197132288	; 0xbc00000
     8a4:	6d72612f 	ldfvse	f6, [r2, #-188]!	; 0xffffff44
     8a8:	6e6f6e2d 	cdpvs	14, 6, cr6, cr15, cr13, {1}
     8ac:	61652d65 	cmnvs	r5, r5, ror #26
     8b0:	692f6962 	stmdbvs	pc!, {r1, r5, r6, r8, fp, sp, lr}	; <UNPREDICTABLE>
     8b4:	756c636e 	strbvc	r6, [ip, #-878]!	; 0xfffffc92
     8b8:	732f6564 			; <UNDEFINED> instruction: 0x732f6564
     8bc:	2f007379 	svccs	0x00007379
     8c0:	656d6f68 	strbvs	r6, [sp, #-3944]!	; 0xfffff098
     8c4:	6573752f 	ldrbvs	r7, [r3, #-1327]!	; 0xfffffad1
     8c8:	65442f72 	strbvs	r2, [r4, #-3954]	; 0xfffff08e
     8cc:	53432f76 	movtpl	r2, #16246	; 0x3f76
     8d0:	58303432 	ldmdapl	r0!, {r1, r4, r5, sl, ip, sp}
     8d4:	62696c2f 	rsbvs	r6, r9, #12032	; 0x2f00
     8d8:	692f6970 	stmdbvs	pc!, {r4, r5, r6, r8, fp, sp, lr}	; <UNPREDICTABLE>
     8dc:	756c636e 	strbvc	r6, [ip, #-878]!	; 0xfffffc92
     8e0:	00006564 	andeq	r6, r0, r4, ror #10
     8e4:	68736168 	ldmdavs	r3!, {r3, r5, r6, r8, sp, lr}^
     8e8:	0100632e 	tsteq	r0, lr, lsr #6
     8ec:	74730000 	ldrbtvc	r0, [r3], #-0
     8f0:	746e6964 	strbtvc	r6, [lr], #-2404	; 0xfffff69c
     8f4:	6363672d 	cmnvs	r3, #11796480	; 0xb40000
     8f8:	0200682e 	andeq	r6, r0, #3014656	; 0x2e0000
     8fc:	6f6c0000 	svcvs	0x006c0000
     900:	682e6b63 	stmdavs	lr!, {r0, r1, r5, r6, r8, r9, fp, sp, lr}
     904:	00000300 	andeq	r0, r0, r0, lsl #6
     908:	7079745f 	rsbsvc	r7, r9, pc, asr r4
     90c:	682e7365 	stmdavs	lr!, {r0, r2, r5, r6, r8, r9, ip, sp, lr}
     910:	00000300 	andeq	r0, r0, r0, lsl #6
     914:	64647473 	strbtvs	r7, [r4], #-1139	; 0xfffffb8d
     918:	682e6665 	stmdavs	lr!, {r0, r2, r5, r6, r9, sl, sp, lr}
     91c:	00000200 	andeq	r0, r0, r0, lsl #4
     920:	6e656572 	mcrvs	5, 3, r6, cr5, cr2, {3}
     924:	00682e74 	rsbeq	r2, r8, r4, ror lr
     928:	72000003 	andvc	r0, r0, #3
     92c:	682e6970 	stmdavs	lr!, {r4, r5, r6, r8, fp, sp, lr}
     930:	00000400 	andeq	r0, r0, r0, lsl #8
     934:	00310500 	eorseq	r0, r1, r0, lsl #10
     938:	89600205 	stmdbhi	r0!, {r0, r2, r9}^
     93c:	0e030000 	cdpeq	0, 0, cr0, cr3, cr0, {0}
     940:	13050501 	movwne	r0, #21761	; 0x5501
     944:	13130105 	tstne	r3, #1073741825	; 0x40000001
     948:	05140505 	ldreq	r0, [r4, #-1285]	; 0xfffffafb
     94c:	05010608 	streq	r0, [r1, #-1544]	; 0xfffff9f8
     950:	05056131 	streq	r6, [r5, #-305]	; 0xfffffecf
     954:	09056d06 	stmdbeq	r5, {r1, r2, r8, sl, fp, sp, lr}
     958:	05050106 	streq	r0, [r5, #-262]	; 0xfffffefa
     95c:	09052f06 	stmdbeq	r5, {r1, r2, r8, r9, sl, fp, sp}
     960:	05050106 	streq	r0, [r5, #-262]	; 0xfffffefa
     964:	0b053106 	bleq	14cd84 <__bss_end__+0x142d24>
     968:	01040200 	mrseq	r0, R12_usr
     96c:	00050501 	andeq	r0, r5, r1, lsl #10
     970:	06010402 	streq	r0, [r1], -r2, lsl #8
     974:	00090501 	andeq	r0, r9, r1, lsl #10
     978:	06020402 	streq	r0, [r2], -r2, lsl #8
     97c:	0012054b 	andseq	r0, r2, fp, asr #10
     980:	06020402 	streq	r0, [r2], -r2, lsl #8
     984:	000f0501 	andeq	r0, pc, r1, lsl #10
     988:	66020402 	strvs	r0, [r2], -r2, lsl #8
     98c:	02000905 	andeq	r0, r0, #81920	; 0x14000
     990:	2f060204 	svccs	0x00060204
     994:	02001305 	andeq	r1, r0, #335544320	; 0x14000000
     998:	01060204 	tsteq	r6, r4, lsl #4
     99c:	02001005 	andeq	r1, r0, #5
     9a0:	05660204 	strbeq	r0, [r6, #-516]!	; 0xfffffdfc
     9a4:	04020009 	streq	r0, [r2], #-9
     9a8:	052f0602 	streq	r0, [pc, #-1538]!	; 3ae <_start-0x7c52>
     9ac:	04020010 	streq	r0, [r2], #-16
     9b0:	05010602 	streq	r0, [r1, #-1538]	; 0xfffff9fe
     9b4:	04020009 	streq	r0, [r2], #-9
     9b8:	052f0602 	streq	r0, [pc, #-1538]!	; 3be <_start-0x7c42>
     9bc:	0402000f 	streq	r0, [r2], #-15
     9c0:	05010602 	streq	r0, [r1, #-1538]	; 0xfffff9fe
     9c4:	04020009 	streq	r0, [r2], #-9
     9c8:	052f0602 	streq	r0, [pc, #-1538]!	; 3ce <_start-0x7c32>
     9cc:	0402000f 	streq	r0, [r2], #-15
     9d0:	05010602 	streq	r0, [r1, #-1538]	; 0xfffff9fe
     9d4:	04020014 	streq	r0, [r2], #-20	; 0xffffffec
     9d8:	05290602 	streq	r0, [r9, #-1538]!	; 0xfffff9fe
     9dc:	04020017 	streq	r0, [r2], #-23	; 0xffffffe9
     9e0:	00010602 	andeq	r0, r1, r2, lsl #12
     9e4:	2e020402 	cdpcs	4, 0, cr0, cr2, cr2, {0}
     9e8:	03060505 	movweq	r0, #25861	; 0x6505
     9ec:	10032e09 	andne	r2, r3, r9, lsl #28
     9f0:	060a05ba 			; <UNDEFINED> instruction: 0x060a05ba
     9f4:	06050501 	streq	r0, [r5], -r1, lsl #10
     9f8:	060a052f 	streq	r0, [sl], -pc, lsr #10
     9fc:	06050501 	streq	r0, [r5], -r1, lsl #10
     a00:	060a052f 	streq	r0, [sl], -pc, lsr #10
     a04:	06050501 	streq	r0, [r5], -r1, lsl #10
     a08:	060a052f 	streq	r0, [sl], -pc, lsr #10
     a0c:	06050501 	streq	r0, [r5], -r1, lsl #10
     a10:	060a052f 	streq	r0, [sl], -pc, lsr #10
     a14:	06050501 	streq	r0, [r5], -r1, lsl #10
     a18:	060a052f 	streq	r0, [sl], -pc, lsr #10
     a1c:	06050501 	streq	r0, [r5], -r1, lsl #10
     a20:	06010530 			; <UNDEFINED> instruction: 0x06010530
     a24:	06110513 			; <UNDEFINED> instruction: 0x06110513
     a28:	052e6903 	streq	r6, [lr, #-2307]!	; 0xfffff6fd
     a2c:	2e010619 	mcrcs	6, 0, r0, cr1, cr9, {0}
     a30:	054a1605 	strbeq	r1, [sl, #-1541]	; 0xfffff9fb
     a34:	052f0611 	streq	r0, [pc, #-1553]!	; 42b <_start-0x7bd5>
     a38:	05010616 	streq	r0, [r1, #-1558]	; 0xfffff9ea
     a3c:	052f0611 	streq	r0, [pc, #-1553]!	; 433 <_start-0x7bcd>
     a40:	0501061a 	streq	r0, [r1, #-1562]	; 0xfffff9e6
     a44:	11052e16 	tstne	r5, r6, lsl lr
     a48:	16052f06 	strne	r2, [r5], -r6, lsl #30
     a4c:	11050106 	tstne	r5, r6, lsl #2
     a50:	052f2f06 	streq	r2, [pc, #-3846]!	; fffffb52 <__bss_end__+0xffff5af2>
     a54:	2e010619 	mcrcs	6, 0, r0, cr1, cr9, {0}
     a58:	054a1605 	strbeq	r1, [sl, #-1541]	; 0xfffff9fb
     a5c:	052f0611 	streq	r0, [pc, #-1553]!	; 453 <_start-0x7bad>
     a60:	05010616 	streq	r0, [r1, #-1558]	; 0xfffff9ea
     a64:	052f0611 	streq	r0, [pc, #-1553]!	; 45b <_start-0x7ba5>
     a68:	05010616 	streq	r0, [r1, #-1558]	; 0xfffff9ea
     a6c:	2f2f0611 	svccs	0x002f0611
     a70:	01061905 	tsteq	r6, r5, lsl #18
     a74:	052e1605 	streq	r1, [lr, #-1541]!	; 0xfffff9fb
     a78:	052f0611 	streq	r0, [pc, #-1553]!	; 46f <_start-0x7b91>
     a7c:	05010616 	streq	r0, [r1, #-1558]	; 0xfffff9ea
     a80:	052f0611 	streq	r0, [pc, #-1553]!	; 477 <_start-0x7b89>
     a84:	2e010616 	mcrcs	6, 0, r0, cr1, cr6, {0}
     a88:	65032a05 	strvs	r2, [r3, #-2565]	; 0xfffff5fb
     a8c:	0301052e 	movweq	r0, #5422	; 0x152e
     a90:	02022e27 	andeq	r2, r2, #624	; 0x270
     a94:	f0010100 			; <UNDEFINED> instruction: 0xf0010100
     a98:	03000000 	movweq	r0, #0
     a9c:	0000c000 	andeq	ip, r0, r0
     aa0:	fb010200 	blx	412aa <__bss_end__+0x3724a>
     aa4:	01000d0e 	tsteq	r0, lr, lsl #26
     aa8:	00010101 	andeq	r0, r1, r1, lsl #2
     aac:	00010000 	andeq	r0, r1, r0
     ab0:	696c0100 	stmdbvs	ip!, {r8}^
     ab4:	2f006362 	svccs	0x00006362
     ab8:	2f727375 	svccs	0x00727375
     abc:	2f62696c 	svccs	0x0062696c
     ac0:	2f636367 	svccs	0x00636367
     ac4:	2d6d7261 	sfmcs	f7, 2, [sp, #-388]!	; 0xfffffe7c
     ac8:	656e6f6e 	strbvs	r6, [lr, #-3950]!	; 0xfffff092
     acc:	6261652d 	rsbvs	r6, r1, #188743680	; 0xb400000
     ad0:	2e392f69 	cdpcs	15, 3, cr2, cr9, cr9, {3}
     ad4:	2f302e32 	svccs	0x00302e32
     ad8:	6c636e69 	stclvs	14, cr6, [r3], #-420	; 0xfffffe5c
     adc:	00656475 	rsbeq	r6, r5, r5, ror r4
     ae0:	7273752f 	rsbsvc	r7, r3, #197132288	; 0xbc00000
     ae4:	6d72612f 	ldfvse	f6, [r2, #-188]!	; 0xffffff44
     ae8:	6e6f6e2d 	cdpvs	14, 6, cr6, cr15, cr13, {1}
     aec:	61652d65 	cmnvs	r5, r5, ror #26
     af0:	692f6962 	stmdbvs	pc!, {r1, r5, r6, r8, fp, sp, lr}	; <UNPREDICTABLE>
     af4:	756c636e 	strbvc	r6, [ip, #-878]!	; 0xfffffc92
     af8:	732f6564 			; <UNDEFINED> instruction: 0x732f6564
     afc:	2f007379 	svccs	0x00007379
     b00:	2f727375 	svccs	0x00727375
     b04:	2d6d7261 	sfmcs	f7, 2, [sp, #-388]!	; 0xfffffe7c
     b08:	656e6f6e 	strbvs	r6, [lr, #-3950]!	; 0xfffff092
     b0c:	6261652d 	rsbvs	r6, r1, #188743680	; 0xb400000
     b10:	6e692f69 	cdpvs	15, 6, cr2, cr9, cr9, {3}
     b14:	64756c63 	ldrbtvs	r6, [r5], #-3171	; 0xfffff39d
     b18:	6d000065 	stcvs	0, cr0, [r0, #-404]	; 0xfffffe6c
     b1c:	65736d65 	ldrbvs	r6, [r3, #-3429]!	; 0xfffff29b
     b20:	00632e74 	rsbeq	r2, r3, r4, ror lr
     b24:	73000001 	movwvc	r0, #1
     b28:	65646474 	strbvs	r6, [r4, #-1140]!	; 0xfffffb8c
     b2c:	00682e66 	rsbeq	r2, r8, r6, ror #28
     b30:	6c000002 	stcvs	0, cr0, [r0], {2}
     b34:	2e6b636f 	cdpcs	3, 6, cr6, cr11, cr15, {3}
     b38:	00030068 	andeq	r0, r3, r8, rrx
     b3c:	79745f00 	ldmdbvc	r4!, {r8, r9, sl, fp, ip, lr}^
     b40:	2e736570 	mrccs	5, 3, r6, cr3, cr0, {3}
     b44:	00030068 	andeq	r0, r3, r8, rrx
     b48:	65657200 	strbvs	r7, [r5, #-512]!	; 0xfffffe00
     b4c:	682e746e 	stmdavs	lr!, {r1, r2, r3, r5, r6, sl, ip, sp, lr}
     b50:	00000300 	andeq	r0, r0, r0, lsl #6
     b54:	69727473 	ldmdbvs	r2!, {r0, r1, r4, r5, r6, sl, ip, sp, lr}^
     b58:	682e676e 	stmdavs	lr!, {r1, r2, r3, r5, r6, r8, r9, sl, sp, lr}
     b5c:	00000400 	andeq	r0, r0, r0, lsl #8
     b60:	00290500 	eoreq	r0, r9, r0, lsl #10
     b64:	8a4c0205 	bhi	1301380 <__bss_end__+0x12f7320>
     b68:	05140000 	ldreq	r0, [r4, #-0]
     b6c:	14051305 	strne	r1, [r5], #-773	; 0xfffffcfb
     b70:	05050106 	streq	r0, [r5, #-262]	; 0xfffffefa
     b74:	0b053006 	bleq	14cb94 <__bss_end__+0x142b34>
     b78:	0a051006 	beq	144b98 <__bss_end__+0x13ab38>
     b7c:	09053006 	stmdbeq	r5, {r1, r2, ip, sp}
     b80:	060e054b 	streq	r0, [lr], -fp, asr #10
     b84:	02022e01 	andeq	r2, r2, #1, 28
     b88:	21010100 	mrscs	r0, (UNDEF: 17)
     b8c:	03000001 	movweq	r0, #1
     b90:	0000ef00 	andeq	lr, r0, r0, lsl #30
     b94:	fb010200 	blx	4139e <__bss_end__+0x3733e>
     b98:	01000d0e 	tsteq	r0, lr, lsl #26
     b9c:	00010101 	andeq	r0, r1, r1, lsl #2
     ba0:	00010000 	andeq	r0, r1, r0
     ba4:	696c0100 	stmdbvs	ip!, {r8}^
     ba8:	2f006362 	svccs	0x00006362
     bac:	2f727375 	svccs	0x00727375
     bb0:	2f62696c 	svccs	0x0062696c
     bb4:	2f636367 	svccs	0x00636367
     bb8:	2d6d7261 	sfmcs	f7, 2, [sp, #-388]!	; 0xfffffe7c
     bbc:	656e6f6e 	strbvs	r6, [lr, #-3950]!	; 0xfffff092
     bc0:	6261652d 	rsbvs	r6, r1, #188743680	; 0xb400000
     bc4:	2e392f69 	cdpcs	15, 3, cr2, cr9, cr9, {3}
     bc8:	2f302e32 	svccs	0x00302e32
     bcc:	6c636e69 	stclvs	14, cr6, [r3], #-420	; 0xfffffe5c
     bd0:	00656475 	rsbeq	r6, r5, r5, ror r4
     bd4:	7273752f 	rsbsvc	r7, r3, #197132288	; 0xbc00000
     bd8:	6d72612f 	ldfvse	f6, [r2, #-188]!	; 0xffffff44
     bdc:	6e6f6e2d 	cdpvs	14, 6, cr6, cr15, cr13, {1}
     be0:	61652d65 	cmnvs	r5, r5, ror #26
     be4:	692f6962 	stmdbvs	pc!, {r1, r5, r6, r8, fp, sp, lr}	; <UNPREDICTABLE>
     be8:	756c636e 	strbvc	r6, [ip, #-878]!	; 0xfffffc92
     bec:	732f6564 			; <UNDEFINED> instruction: 0x732f6564
     bf0:	2f007379 	svccs	0x00007379
     bf4:	656d6f68 	strbvs	r6, [sp, #-3944]!	; 0xfffff098
     bf8:	6573752f 	ldrbvs	r7, [r3, #-1327]!	; 0xfffffad1
     bfc:	65442f72 	strbvs	r2, [r4, #-3954]	; 0xfffff08e
     c00:	53432f76 	movtpl	r2, #16246	; 0x3f76
     c04:	58303432 	ldmdapl	r0!, {r1, r4, r5, sl, ip, sp}
     c08:	62696c2f 	rsbvs	r6, r9, #12032	; 0x2f00
     c0c:	692f6970 	stmdbvs	pc!, {r4, r5, r6, r8, fp, sp, lr}	; <UNPREDICTABLE>
     c10:	756c636e 	strbvc	r6, [ip, #-878]!	; 0xfffffc92
     c14:	00006564 	andeq	r6, r0, r4, ror #10
     c18:	6e697270 	mcrvs	2, 3, r7, cr9, cr0, {3}
     c1c:	632e6b74 			; <UNDEFINED> instruction: 0x632e6b74
     c20:	00000100 	andeq	r0, r0, r0, lsl #2
     c24:	61647473 	smcvs	18243	; 0x4743
     c28:	682e6772 	stmdavs	lr!, {r1, r4, r5, r6, r8, r9, sl, sp, lr}
     c2c:	00000200 	andeq	r0, r0, r0, lsl #4
     c30:	6b636f6c 	blvs	18dc9e8 <__bss_end__+0x18d2988>
     c34:	0300682e 	movweq	r6, #2094	; 0x82e
     c38:	745f0000 	ldrbvc	r0, [pc], #-0	; c40 <_start-0x73c0>
     c3c:	73657079 	cmnvc	r5, #121	; 0x79
     c40:	0300682e 	movweq	r6, #2094	; 0x82e
     c44:	74730000 	ldrbtvc	r0, [r3], #-0
     c48:	66656464 	strbtvs	r6, [r5], -r4, ror #8
     c4c:	0200682e 	andeq	r6, r0, #3014656	; 0x2e0000
     c50:	65720000 	ldrbvs	r0, [r2, #-0]!
     c54:	2e746e65 	cdpcs	14, 7, cr6, cr4, cr5, {3}
     c58:	00030068 	andeq	r0, r3, r8, rrx
     c5c:	69707200 	ldmdbvs	r0!, {r9, ip, sp, lr}^
     c60:	0400682e 	streq	r6, [r0], #-2094	; 0xfffff7d2
     c64:	623c0000 	eorsvs	r0, ip, #0
     c68:	746c6975 	strbtvc	r6, [ip], #-2421	; 0xfffff68b
     c6c:	3e6e692d 	vmulcc.f16	s13, s28, s27	; <UNPREDICTABLE>
     c70:	00000000 	andeq	r0, r0, r0
     c74:	702d6176 	eorvc	r6, sp, r6, ror r1
     c78:	746e6972 	strbtvc	r6, [lr], #-2418	; 0xfffff68e
     c7c:	00682e6b 	rsbeq	r2, r8, fp, ror #28
     c80:	00000001 	andeq	r0, r0, r1
     c84:	05002205 	streq	r2, [r0, #-517]	; 0xfffffdfb
     c88:	008a6402 	addeq	r6, sl, r2, lsl #8
     c8c:	01061700 	tsteq	r6, r0, lsl #14
     c90:	68060505 	stmdavs	r6, {r0, r2, r8, sl}
     c94:	09051413 	stmdbeq	r5, {r0, r1, r4, sl, ip}
     c98:	0612054b 	ldreq	r0, [r2], -fp, asr #10
     c9c:	06050501 	streq	r0, [r5], -r1, lsl #10
     ca0:	660616bb 			; <UNDEFINED> instruction: 0x660616bb
     ca4:	01053406 	tsteq	r5, r6, lsl #8
     ca8:	02661306 	rsbeq	r1, r6, #402653184	; 0x18000000
     cac:	01010008 	tsteq	r1, r8
     cb0:	00000105 	andeq	r0, r0, r5, lsl #2
     cb4:	00c70003 	sbceq	r0, r7, r3
     cb8:	01020000 	mrseq	r0, (UNDEF: 2)
     cbc:	000d0efb 	strdeq	r0, [sp], -fp
     cc0:	01010101 	tsteq	r1, r1, lsl #2
     cc4:	01000000 	mrseq	r0, (UNDEF: 0)
     cc8:	6c010000 	stcvs	0, cr0, [r1], {-0}
     ccc:	00636269 	rsbeq	r6, r3, r9, ror #4
     cd0:	7273752f 	rsbsvc	r7, r3, #197132288	; 0xbc00000
     cd4:	6d72612f 	ldfvse	f6, [r2, #-188]!	; 0xffffff44
     cd8:	6e6f6e2d 	cdpvs	14, 6, cr6, cr15, cr13, {1}
     cdc:	61652d65 	cmnvs	r5, r5, ror #26
     ce0:	692f6962 	stmdbvs	pc!, {r1, r5, r6, r8, fp, sp, lr}	; <UNPREDICTABLE>
     ce4:	756c636e 	strbvc	r6, [ip, #-878]!	; 0xfffffc92
     ce8:	732f6564 			; <UNDEFINED> instruction: 0x732f6564
     cec:	2f007379 	svccs	0x00007379
     cf0:	2f727375 	svccs	0x00727375
     cf4:	2f62696c 	svccs	0x0062696c
     cf8:	2f636367 	svccs	0x00636367
     cfc:	2d6d7261 	sfmcs	f7, 2, [sp, #-388]!	; 0xfffffe7c
     d00:	656e6f6e 	strbvs	r6, [lr, #-3950]!	; 0xfffff092
     d04:	6261652d 	rsbvs	r6, r1, #188743680	; 0xb400000
     d08:	2e392f69 	cdpcs	15, 3, cr2, cr9, cr9, {3}
     d0c:	2f302e32 	svccs	0x00302e32
     d10:	6c636e69 	stclvs	14, cr6, [r3], #-420	; 0xfffffe5c
     d14:	00656475 	rsbeq	r6, r5, r5, ror r4
     d18:	6d6f682f 	stclvs	8, cr6, [pc, #-188]!	; c64 <_start-0x739c>
     d1c:	73752f65 	cmnvc	r5, #404	; 0x194
     d20:	442f7265 	strtmi	r7, [pc], #-613	; d28 <_start-0x72d8>
     d24:	432f7665 			; <UNDEFINED> instruction: 0x432f7665
     d28:	30343253 	eorscc	r3, r4, r3, asr r2
     d2c:	696c2f58 	stmdbvs	ip!, {r3, r4, r6, r8, r9, sl, fp, sp}^
     d30:	2f697062 	svccs	0x00697062
     d34:	6c636e69 	stclvs	14, cr6, [r3], #-420	; 0xfffffe5c
     d38:	00656475 	rsbeq	r6, r5, r5, ror r4
     d3c:	74757000 	ldrbtvc	r7, [r5], #-0
     d40:	72616863 	rsbvc	r6, r1, #6488064	; 0x630000
     d44:	0100632e 	tsteq	r0, lr, lsr #6
     d48:	6f6c0000 	svcvs	0x006c0000
     d4c:	682e6b63 	stmdavs	lr!, {r0, r1, r5, r6, r8, r9, fp, sp, lr}
     d50:	00000200 	andeq	r0, r0, r0, lsl #4
     d54:	7079745f 	rsbsvc	r7, r9, pc, asr r4
     d58:	682e7365 	stmdavs	lr!, {r0, r2, r5, r6, r8, r9, ip, sp, lr}
     d5c:	00000200 	andeq	r0, r0, r0, lsl #4
     d60:	64647473 	strbtvs	r7, [r4], #-1139	; 0xfffffb8d
     d64:	682e6665 	stmdavs	lr!, {r0, r2, r5, r6, r9, sl, sp, lr}
     d68:	00000300 	andeq	r0, r0, r0, lsl #6
     d6c:	6e656572 	mcrvs	5, 3, r6, cr5, cr2, {3}
     d70:	00682e74 	rsbeq	r2, r8, r4, ror lr
     d74:	72000002 	andvc	r0, r0, #2
     d78:	682e6970 	stmdavs	lr!, {r4, r5, r6, r8, fp, sp, lr}
     d7c:	00000400 	andeq	r0, r0, r0, lsl #8
     d80:	00240500 	eoreq	r0, r4, r0, lsl #10
     d84:	8abc0205 	bhi	fef015a0 <__bss_end__+0xfeef7540>
     d88:	06140000 	ldreq	r0, [r4], -r0
     d8c:	06260501 	strteq	r0, [r6], -r1, lsl #10
     d90:	2e34054a 	cdpcs	5, 3, cr0, cr4, cr10, {2}
     d94:	01060105 	tsteq	r6, r5, lsl #2
     d98:	4f061b05 	svcmi	0x00061b05
     d9c:	05130505 	ldreq	r0, [r3, #-1285]	; 0xfffffafb
     da0:	05010611 	streq	r0, [r1, #-1553]	; 0xfffff9ef
     da4:	23056701 	movwcs	r6, #22273	; 0x5701
     da8:	05056706 	streq	r6, [r5, #-1798]	; 0xfffff8fa
     dac:	06110513 			; <UNDEFINED> instruction: 0x06110513
     db0:	4b010501 	blmi	421bc <__bss_end__+0x3815c>
     db4:	01000402 	tsteq	r0, r2, lsl #8
     db8:	00011201 	andeq	r1, r1, r1, lsl #4
     dbc:	c4000300 	strgt	r0, [r0], #-768	; 0xfffffd00
     dc0:	02000000 	andeq	r0, r0, #0
     dc4:	0d0efb01 	vstreq	d15, [lr, #-4]
     dc8:	01010100 	mrseq	r0, (UNDEF: 17)
     dcc:	00000001 	andeq	r0, r0, r1
     dd0:	01000001 	tsteq	r0, r1
     dd4:	6362696c 	cmnvs	r2, #108, 18	; 0x1b0000
     dd8:	73752f00 	cmnvc	r5, #0, 30
     ddc:	72612f72 	rsbvc	r2, r1, #456	; 0x1c8
     de0:	6f6e2d6d 	svcvs	0x006e2d6d
     de4:	652d656e 	strvs	r6, [sp, #-1390]!	; 0xfffffa92
     de8:	2f696261 	svccs	0x00696261
     dec:	6c636e69 	stclvs	14, cr6, [r3], #-420	; 0xfffffe5c
     df0:	2f656475 	svccs	0x00656475
     df4:	00737973 	rsbseq	r7, r3, r3, ror r9
     df8:	7273752f 	rsbsvc	r7, r3, #197132288	; 0xbc00000
     dfc:	62696c2f 	rsbvs	r6, r9, #12032	; 0x2f00
     e00:	6363672f 	cmnvs	r3, #12320768	; 0xbc0000
     e04:	6d72612f 	ldfvse	f6, [r2, #-188]!	; 0xffffff44
     e08:	6e6f6e2d 	cdpvs	14, 6, cr6, cr15, cr13, {1}
     e0c:	61652d65 	cmnvs	r5, r5, ror #26
     e10:	392f6962 	stmdbcc	pc!, {r1, r5, r6, r8, fp, sp, lr}	; <UNPREDICTABLE>
     e14:	302e322e 	eorcc	r3, lr, lr, lsr #4
     e18:	636e692f 	cmnvs	lr, #770048	; 0xbc000
     e1c:	6564756c 	strbvs	r7, [r4, #-1388]!	; 0xfffffa94
     e20:	6f682f00 	svcvs	0x00682f00
     e24:	752f656d 	strvc	r6, [pc, #-1389]!	; 8bf <_start-0x7741>
     e28:	2f726573 	svccs	0x00726573
     e2c:	2f766544 	svccs	0x00766544
     e30:	34325343 	ldrtcc	r5, [r2], #-835	; 0xfffffcbd
     e34:	6c2f5830 	stcvs	8, cr5, [pc], #-192	; d7c <_start-0x7284>
     e38:	69706269 	ldmdbvs	r0!, {r0, r3, r5, r6, r9, sp, lr}^
     e3c:	636e692f 	cmnvs	lr, #770048	; 0xbc000
     e40:	6564756c 	strbvs	r7, [r4, #-1388]!	; 0xfffffa94
     e44:	75700000 	ldrbvc	r0, [r0, #-0]!
     e48:	632e6b74 			; <UNDEFINED> instruction: 0x632e6b74
     e4c:	00000100 	andeq	r0, r0, r0, lsl #2
     e50:	6b636f6c 	blvs	18dcc08 <__bss_end__+0x18d2ba8>
     e54:	0200682e 	andeq	r6, r0, #3014656	; 0x2e0000
     e58:	745f0000 	ldrbvc	r0, [pc], #-0	; e60 <_start-0x71a0>
     e5c:	73657079 	cmnvc	r5, #121	; 0x79
     e60:	0200682e 	andeq	r6, r0, #3014656	; 0x2e0000
     e64:	74730000 	ldrbtvc	r0, [r3], #-0
     e68:	66656464 	strbtvs	r6, [r5], -r4, ror #8
     e6c:	0300682e 	movweq	r6, #2094	; 0x82e
     e70:	65720000 	ldrbvs	r0, [r2, #-0]!
     e74:	2e746e65 	cdpcs	14, 7, cr6, cr4, cr5, {3}
     e78:	00020068 	andeq	r0, r2, r8, rrx
     e7c:	69707200 	ldmdbvs	r0!, {r9, ip, sp, lr}^
     e80:	0400682e 	streq	r6, [r0], #-2094	; 0xfffff7d2
     e84:	05000000 	streq	r0, [r0, #-0]
     e88:	02050022 	andeq	r0, r5, #34	; 0x22
     e8c:	00008af8 	strdeq	r8, [r0], -r8	; <UNPREDICTABLE>
     e90:	05010615 	streq	r0, [r1, #-1557]	; 0xfffff9eb
     e94:	054b0605 	strbeq	r0, [fp, #-1541]	; 0xfffff9fb
     e98:	0402000b 	streq	r0, [r2], #-11
     e9c:	05050101 	streq	r0, [r5, #-257]	; 0xfffffeff
     ea0:	01040200 	mrseq	r0, R12_usr
     ea4:	09052e06 	stmdbeq	r5, {r1, r2, r9, sl, fp, sp}
     ea8:	02040200 	andeq	r0, r4, #0, 4
     eac:	0f054b06 	svceq	0x00054b06
     eb0:	02040200 	andeq	r0, r4, #0, 4
     eb4:	00100565 	andseq	r0, r0, r5, ror #10
     eb8:	06020402 	streq	r0, [r2], -r2, lsl #8
     ebc:	04020001 	streq	r0, [r2], #-1
     ec0:	05052e02 	streq	r2, [r5, #-3586]	; 0xfffff1fe
     ec4:	01053206 	tsteq	r5, r6, lsl #4
     ec8:	06021306 	streq	r1, [r2], -r6, lsl #6
     ecc:	24010100 	strcs	r0, [r1], #-256	; 0xffffff00
     ed0:	03000001 	movweq	r0, #1
     ed4:	0000c800 	andeq	ip, r0, r0, lsl #16
     ed8:	fb010200 	blx	416e2 <__bss_end__+0x37682>
     edc:	01000d0e 	tsteq	r0, lr, lsl #26
     ee0:	00010101 	andeq	r0, r1, r1, lsl #2
     ee4:	00010000 	andeq	r0, r1, r0
     ee8:	696c0100 	stmdbvs	ip!, {r8}^
     eec:	2f006362 	svccs	0x00006362
     ef0:	2f727375 	svccs	0x00727375
     ef4:	2d6d7261 	sfmcs	f7, 2, [sp, #-388]!	; 0xfffffe7c
     ef8:	656e6f6e 	strbvs	r6, [lr, #-3950]!	; 0xfffff092
     efc:	6261652d 	rsbvs	r6, r1, #188743680	; 0xb400000
     f00:	6e692f69 	cdpvs	15, 6, cr2, cr9, cr9, {3}
     f04:	64756c63 	ldrbtvs	r6, [r5], #-3171	; 0xfffff39d
     f08:	79732f65 	ldmdbvc	r3!, {r0, r2, r5, r6, r8, r9, sl, fp, sp}^
     f0c:	752f0073 	strvc	r0, [pc, #-115]!	; ea1 <_start-0x715f>
     f10:	6c2f7273 	sfmvs	f7, 4, [pc], #-460	; d4c <_start-0x72b4>
     f14:	672f6269 	strvs	r6, [pc, -r9, ror #4]!
     f18:	612f6363 			; <UNDEFINED> instruction: 0x612f6363
     f1c:	6e2d6d72 	mcrvs	13, 1, r6, cr13, cr2, {3}
     f20:	2d656e6f 	stclcs	14, cr6, [r5, #-444]!	; 0xfffffe44
     f24:	69626165 	stmdbvs	r2!, {r0, r2, r5, r6, r8, sp, lr}^
     f28:	322e392f 	eorcc	r3, lr, #770048	; 0xbc000
     f2c:	692f302e 	stmdbvs	pc!, {r1, r2, r3, r5, ip, sp}	; <UNPREDICTABLE>
     f30:	756c636e 	strbvc	r6, [ip, #-878]!	; 0xfffffc92
     f34:	2f006564 	svccs	0x00006564
     f38:	656d6f68 	strbvs	r6, [sp, #-3944]!	; 0xfffff098
     f3c:	6573752f 	ldrbvs	r7, [r3, #-1327]!	; 0xfffffad1
     f40:	65442f72 	strbvs	r2, [r4, #-3954]	; 0xfffff08e
     f44:	53432f76 	movtpl	r2, #16246	; 0x3f76
     f48:	58303432 	ldmdapl	r0!, {r1, r4, r5, sl, ip, sp}
     f4c:	62696c2f 	rsbvs	r6, r9, #12032	; 0x2f00
     f50:	692f6970 	stmdbvs	pc!, {r4, r5, r6, r8, fp, sp, lr}	; <UNPREDICTABLE>
     f54:	756c636e 	strbvc	r6, [ip, #-878]!	; 0xfffffc92
     f58:	00006564 	andeq	r6, r0, r4, ror #10
     f5c:	2d697072 	stclcs	0, cr7, [r9, #-456]!	; 0xfffffe38
     f60:	646e6172 	strbtvs	r6, [lr], #-370	; 0xfffffe8e
     f64:	0100632e 	tsteq	r0, lr, lsr #6
     f68:	6f6c0000 	svcvs	0x006c0000
     f6c:	682e6b63 	stmdavs	lr!, {r0, r1, r5, r6, r8, r9, fp, sp, lr}
     f70:	00000200 	andeq	r0, r0, r0, lsl #4
     f74:	7079745f 	rsbsvc	r7, r9, pc, asr r4
     f78:	682e7365 	stmdavs	lr!, {r0, r2, r5, r6, r8, r9, ip, sp, lr}
     f7c:	00000200 	andeq	r0, r0, r0, lsl #4
     f80:	64647473 	strbtvs	r7, [r4], #-1139	; 0xfffffb8d
     f84:	682e6665 	stmdavs	lr!, {r0, r2, r5, r6, r9, sl, sp, lr}
     f88:	00000300 	andeq	r0, r0, r0, lsl #6
     f8c:	6e656572 	mcrvs	5, 3, r6, cr5, cr2, {3}
     f90:	00682e74 	rsbeq	r2, r8, r4, ror lr
     f94:	72000002 	andvc	r0, r0, #2
     f98:	682e6970 	stmdavs	lr!, {r4, r5, r6, r8, fp, sp, lr}
     f9c:	00000400 	andeq	r0, r0, r0, lsl #8
     fa0:	00210500 	eoreq	r0, r1, r0, lsl #10
     fa4:	8b2c0205 	blhi	b017c0 <__bss_end__+0xaf7760>
     fa8:	0a030000 	beq	c0fb0 <__bss_end__+0xb6f50>
     fac:	13050501 	movwne	r0, #21761	; 0x5501
     fb0:	01061905 	tsteq	r6, r5, lsl #18
     fb4:	05662705 	strbeq	r2, [r6, #-1797]!	; 0xfffff8fb
     fb8:	05052e35 	streq	r2, [r5, #-3637]	; 0xfffff1cb
     fbc:	20052f06 	andcs	r2, r5, r6, lsl #30
     fc0:	19050106 	stmdbne	r5, {r1, r2, r8}
     fc4:	4a0a052e 	bmi	282484 <__bss_end__+0x278424>
     fc8:	2f060505 	svccs	0x00060505
     fcc:	13060105 	movwne	r0, #24837	; 0x6105
     fd0:	4c062005 	stcmi	0, cr2, [r6], {5}
     fd4:	052f0505 	streq	r0, [pc, #-1285]!	; ad7 <_start-0x7529>
     fd8:	0501060d 	streq	r0, [r1, #-1549]	; 0xfffff9f3
     fdc:	23052e1a 	movwcs	r2, #24090	; 0x5e1a
     fe0:	2f01052e 	svccs	0x0001052e
     fe4:	4d061f05 	stcmi	15, cr1, [r6, #-20]	; 0xffffffec
     fe8:	05130505 	ldreq	r0, [r3, #-1285]	; 0xfffffafb
     fec:	0501060a 	streq	r0, [r1, #-1546]	; 0xfffff9f6
     ff0:	06026701 	streq	r6, [r2], -r1, lsl #14
     ff4:	0d010100 	stfeqs	f0, [r1, #-0]
     ff8:	03000005 	movweq	r0, #5
     ffc:	0000e300 	andeq	lr, r0, r0, lsl #6
    1000:	fb010200 	blx	4180a <__bss_end__+0x377aa>
    1004:	01000d0e 	tsteq	r0, lr, lsl #26
    1008:	00010101 	andeq	r0, r1, r1, lsl #2
    100c:	00010000 	andeq	r0, r1, r0
    1010:	696c0100 	stmdbvs	ip!, {r8}^
    1014:	2f006362 	svccs	0x00006362
    1018:	2f727375 	svccs	0x00727375
    101c:	2d6d7261 	sfmcs	f7, 2, [sp, #-388]!	; 0xfffffe7c
    1020:	656e6f6e 	strbvs	r6, [lr, #-3950]!	; 0xfffff092
    1024:	6261652d 	rsbvs	r6, r1, #188743680	; 0xb400000
    1028:	6e692f69 	cdpvs	15, 6, cr2, cr9, cr9, {3}
    102c:	64756c63 	ldrbtvs	r6, [r5], #-3171	; 0xfffff39d
    1030:	79732f65 	ldmdbvc	r3!, {r0, r2, r5, r6, r8, r9, sl, fp, sp}^
    1034:	752f0073 	strvc	r0, [pc, #-115]!	; fc9 <_start-0x7037>
    1038:	6c2f7273 	sfmvs	f7, 4, [pc], #-460	; e74 <_start-0x718c>
    103c:	672f6269 	strvs	r6, [pc, -r9, ror #4]!
    1040:	612f6363 			; <UNDEFINED> instruction: 0x612f6363
    1044:	6e2d6d72 	mcrvs	13, 1, r6, cr13, cr2, {3}
    1048:	2d656e6f 	stclcs	14, cr6, [r5, #-444]!	; 0xfffffe44
    104c:	69626165 	stmdbvs	r2!, {r0, r2, r5, r6, r8, sp, lr}^
    1050:	322e392f 	eorcc	r3, lr, #770048	; 0xbc000
    1054:	692f302e 	stmdbvs	pc!, {r1, r2, r3, r5, ip, sp}	; <UNPREDICTABLE>
    1058:	756c636e 	strbvc	r6, [ip, #-878]!	; 0xfffffc92
    105c:	2f006564 	svccs	0x00006564
    1060:	656d6f68 	strbvs	r6, [sp, #-3944]!	; 0xfffff098
    1064:	6573752f 	ldrbvs	r7, [r3, #-1327]!	; 0xfffffad1
    1068:	65442f72 	strbvs	r2, [r4, #-3954]	; 0xfffff08e
    106c:	53432f76 	movtpl	r2, #16246	; 0x3f76
    1070:	58303432 	ldmdapl	r0!, {r1, r4, r5, sl, ip, sp}
    1074:	62696c2f 	rsbvs	r6, r9, #12032	; 0x2f00
    1078:	692f6970 	stmdbvs	pc!, {r4, r5, r6, r8, fp, sp, lr}	; <UNPREDICTABLE>
    107c:	756c636e 	strbvc	r6, [ip, #-878]!	; 0xfffffc92
    1080:	00006564 	andeq	r6, r0, r4, ror #10
    1084:	702d6176 	eorvc	r6, sp, r6, ror r1
    1088:	746e6972 	strbtvc	r6, [lr], #-2418	; 0xfffff68e
    108c:	00632e6b 	rsbeq	r2, r3, fp, ror #28
    1090:	6c000001 	stcvs	0, cr0, [r0], {1}
    1094:	2e6b636f 	cdpcs	3, 6, cr6, cr11, cr15, {3}
    1098:	00020068 	andeq	r0, r2, r8, rrx
    109c:	79745f00 	ldmdbvc	r4!, {r8, r9, sl, fp, ip, lr}^
    10a0:	2e736570 	mrccs	5, 3, r6, cr3, cr0, {3}
    10a4:	00020068 	andeq	r0, r2, r8, rrx
    10a8:	64747300 	ldrbtvs	r7, [r4], #-768	; 0xfffffd00
    10ac:	2e666564 	cdpcs	5, 6, cr6, cr6, cr4, {3}
    10b0:	00030068 	andeq	r0, r3, r8, rrx
    10b4:	65657200 	strbvs	r7, [r5, #-512]!	; 0xfffffe00
    10b8:	682e746e 	stmdavs	lr!, {r1, r2, r3, r5, r6, sl, ip, sp, lr}
    10bc:	00000200 	andeq	r0, r0, r0, lsl #4
    10c0:	2e697072 	mcrcs	0, 3, r7, cr9, cr2, {3}
    10c4:	00040068 	andeq	r0, r4, r8, rrx
    10c8:	64747300 	ldrbtvs	r7, [r4], #-768	; 0xfffffd00
    10cc:	2e677261 	cdpcs	2, 6, cr7, cr7, cr1, {3}
    10d0:	00030068 	andeq	r0, r3, r8, rrx
    10d4:	75623c00 	strbvc	r3, [r2, #-3072]!	; 0xfffff400
    10d8:	2d746c69 	ldclcs	12, cr6, [r4, #-420]!	; 0xfffffe5c
    10dc:	003e6e69 	eorseq	r6, lr, r9, ror #28
    10e0:	00000000 	andeq	r0, r0, r0
    10e4:	05001b05 	streq	r1, [r0, #-2821]	; 0xfffff4fb
    10e8:	008b8802 	addeq	r8, fp, r2, lsl #16
    10ec:	01260300 			; <UNDEFINED> instruction: 0x01260300
    10f0:	05011d05 	streq	r1, [r1, #-3333]	; 0xfffff2fb
    10f4:	0501062d 	streq	r0, [r1, #-1581]	; 0xfffff9d3
    10f8:	054a2e01 	strbeq	r2, [sl, #-3585]	; 0xfffff1ff
    10fc:	05510633 	ldrbeq	r0, [r1, #-1587]	; 0xfffff9cd
    1100:	06051302 	streq	r1, [r5], -r2, lsl #6
    1104:	02050106 	andeq	r0, r5, #-2147483647	; 0x80000001
    1108:	08053006 	stmdaeq	r5, {r1, r2, ip, sp}
    110c:	01040200 	mrseq	r0, R12_usr
    1110:	00020501 	andeq	r0, r2, r1, lsl #10
    1114:	06010402 	streq	r0, [r1], -r2, lsl #8
    1118:	00030501 	andeq	r0, r3, r1, lsl #10
    111c:	06020402 	streq	r0, [r2], -r2, lsl #8
    1120:	0008052f 	andeq	r0, r8, pc, lsr #10
    1124:	06020402 	streq	r0, [r2], -r2, lsl #8
    1128:	00150501 	andseq	r0, r5, r1, lsl #10
    112c:	06020402 	streq	r0, [r2], -r2, lsl #8
    1130:	00180549 	andseq	r0, r8, r9, asr #10
    1134:	06020402 	streq	r0, [r2], -r2, lsl #8
    1138:	04020001 	streq	r0, [r2], #-1
    113c:	02052e02 	andeq	r2, r5, #2, 28
    1140:	05053006 	streq	r3, [r5, #-6]
    1144:	02050106 	andeq	r0, r5, #-2147483647	; 0x80000001
    1148:	01054b06 	tsteq	r5, r6, lsl #22
    114c:	3e051306 	cdpcc	3, 0, cr1, cr5, cr6, {0}
    1150:	02053006 	andeq	r3, r5, #6
    1154:	060e0514 			; <UNDEFINED> instruction: 0x060e0514
    1158:	2e060501 	cfsh32cs	mvfx0, mvfx6, #1
    115c:	2f060205 	svccs	0x00060205
    1160:	01060405 	tsteq	r6, r5, lsl #8
    1164:	2f060305 	svccs	0x00060305
    1168:	01061105 	tsteq	r6, r5, lsl #2
    116c:	052e0905 	streq	r0, [lr, #-2309]!	; 0xfffff6fb
    1170:	15300602 	ldrne	r0, [r0, #-1538]!	; 0xfffff9fe
    1174:	01060705 	tsteq	r6, r5, lsl #14
    1178:	052e0205 	streq	r0, [lr, #-517]!	; 0xfffffdfb
    117c:	0402000b 	streq	r0, [r2], #-11
    1180:	052e0601 	streq	r0, [lr, #-1537]!	; 0xfffff9ff
    1184:	04020002 	streq	r0, [r2], #-2
    1188:	05010601 	streq	r0, [r1, #-1537]	; 0xfffff9ff
    118c:	04020003 	streq	r0, [r2], #-3
    1190:	052f0603 	streq	r0, [pc, #-1539]!	; b95 <_start-0x746b>
    1194:	0402000c 	streq	r0, [r2], #-12
    1198:	05010603 	streq	r0, [r1, #-1539]	; 0xfffff9fd
    119c:	0402000a 	streq	r0, [r2], #-10
    11a0:	17052e03 	strne	r2, [r5, -r3, lsl #28]
    11a4:	03040200 	movweq	r0, #16896	; 0x4200
    11a8:	02002d06 	andeq	r2, r0, #384	; 0x180
    11ac:	01060304 	tsteq	r6, r4, lsl #6
    11b0:	30060205 	andcc	r0, r6, r5, lsl #4
    11b4:	01060905 	tsteq	r6, r5, lsl #18
    11b8:	0602052e 	streq	r0, [r2], -lr, lsr #10
    11bc:	06010530 			; <UNDEFINED> instruction: 0x06010530
    11c0:	06560513 			; <UNDEFINED> instruction: 0x06560513
    11c4:	05010630 	streq	r0, [r1, #-1584]	; 0xfffff9d0
    11c8:	05a00602 	streq	r0, [r0, #1538]!	; 0x602
    11cc:	05010604 	streq	r0, [r1, #-1540]	; 0xfffff9fc
    11d0:	052f0603 	streq	r0, [pc, #-1539]!	; bd5 <_start-0x742b>
    11d4:	05010609 	streq	r0, [r1, #-1545]	; 0xfffff9f7
    11d8:	13300602 	teqne	r0, #2097152	; 0x200000
    11dc:	01060b05 	tsteq	r6, r5, lsl #22
    11e0:	30060205 	andcc	r0, r6, r5, lsl #4
    11e4:	04052e06 	streq	r2, [r5], #-3590	; 0xfffff1fa
    11e8:	15240206 	strne	r0, [r4, #-518]!	; 0xfffffdfa
    11ec:	060f0513 			; <UNDEFINED> instruction: 0x060f0513
    11f0:	06052e01 	streq	r2, [r5], -r1, lsl #28
    11f4:	0605054a 	streq	r0, [r5], -sl, asr #10
    11f8:	0905134b 	stmdbeq	r5, {r0, r1, r3, r6, r8, r9, ip}
    11fc:	05050106 	streq	r0, [r5, #-262]	; 0xfffffefa
    1200:	0b052f06 	bleq	14ce20 <__bss_end__+0x142dc0>
    1204:	0d051006 	stceq	0, cr1, [r5, #-24]	; 0xffffffe8
    1208:	01040200 	mrseq	r0, R12_usr
    120c:	0004052c 	andeq	r0, r4, ip, lsr #10
    1210:	06010402 	streq	r0, [r1], -r2, lsl #8
    1214:	00050534 	andeq	r0, r5, r4, lsr r5
    1218:	13010402 	movwne	r0, #5122	; 0x1402
    121c:	02001b05 	andeq	r1, r0, #5120	; 0x1400
    1220:	01060104 	tsteq	r6, r4, lsl #2
    1224:	02000705 	andeq	r0, r0, #1310720	; 0x140000
    1228:	05d60104 	ldrbeq	r0, [r6, #260]	; 0x104
    122c:	04020018 	streq	r0, [r2], #-24	; 0xffffffe8
    1230:	0a052e01 	beq	14ca3c <__bss_end__+0x1429dc>
    1234:	01040200 	mrseq	r0, R12_usr
    1238:	000b054a 	andeq	r0, fp, sl, asr #10
    123c:	06010402 	streq	r0, [r1], -r2, lsl #8
    1240:	000e052f 	andeq	r0, lr, pc, lsr #10
    1244:	06010402 	streq	r0, [r1], -r2, lsl #8
    1248:	0004052e 	andeq	r0, r4, lr, lsr #10
    124c:	2e010402 	cdpcs	4, 0, cr0, cr1, cr2, {0}
    1250:	06054b06 	streq	r4, [r5], -r6, lsl #22
    1254:	05050106 	streq	r0, [r5, #-262]	; 0xfffffefa
    1258:	0a052f06 	beq	14ce78 <__bss_end__+0x142e18>
    125c:	07050106 	streq	r0, [r5, -r6, lsl #2]
    1260:	0d052e4a 	stceq	14, cr2, [r5, #-296]	; 0xfffffed8
    1264:	4a2e7603 	bmi	b9ea78 <__bss_end__+0xb94a18>
    1268:	050d0b05 	streq	r0, [sp, #-2821]	; 0xfffff4fb
    126c:	0402000d 	streq	r0, [r2], #-13
    1270:	14030601 	strne	r0, [r3], #-1537	; 0xfffff9ff
    1274:	0011052e 	andseq	r0, r1, lr, lsr #10
    1278:	13010402 	movwne	r0, #5122	; 0x1402
    127c:	02002d05 	andeq	r2, r0, #320	; 0x140
    1280:	01060104 	tsteq	r6, r4, lsl #2
    1284:	02002a05 	andeq	r2, r0, #20480	; 0x5000
    1288:	052e0104 	streq	r0, [lr, #-260]!	; 0xfffffefc
    128c:	04020016 	streq	r0, [r2], #-22	; 0xffffffea
    1290:	14054a01 	strne	r4, [r5], #-2561	; 0xfffff5ff
    1294:	01040200 	mrseq	r0, R12_usr
    1298:	0d054b06 	vstreq	d4, [r5, #-24]	; 0xffffffe8
    129c:	01040200 	mrseq	r0, R12_usr
    12a0:	02000106 	andeq	r0, r0, #-2147483647	; 0x80000001
    12a4:	064a0104 	strbeq	r0, [sl], -r4, lsl #2
    12a8:	0612052f 	ldreq	r0, [r2], -pc, lsr #10
    12ac:	0d054a01 	vstreq	s8, [r5, #-4]
    12b0:	12052f06 	andne	r2, r5, #6, 30
    12b4:	19050106 	stmdbne	r5, {r1, r2, r8}
    12b8:	04054b06 	streq	r4, [r5], #-2822	; 0xfffff4fa
    12bc:	02040200 	andeq	r0, r4, #0, 4
    12c0:	00011103 	andeq	r1, r1, r3, lsl #2
    12c4:	01020402 	tsteq	r2, r2, lsl #8
    12c8:	02000205 	andeq	r0, r0, #1342177280	; 0x50000000
    12cc:	05150204 	ldreq	r0, [r5, #-516]	; 0xfffffdfc
    12d0:	04020009 	streq	r0, [r2], #-9
    12d4:	00010602 	andeq	r0, r1, r2, lsl #12
    12d8:	4a020402 	bmi	822e8 <__bss_end__+0x78288>
    12dc:	02000105 	andeq	r0, r0, #1073741825	; 0x40000001
    12e0:	059f0204 	ldreq	r0, [pc, #516]	; 14ec <_start-0x6b14>
    12e4:	6e030604 	cfmadd32vs	mvax0, mvfx0, mvfx3, mvfx4
    12e8:	0609054a 	streq	r0, [r9], -sl, asr #10
    12ec:	06040501 	streq	r0, [r4], -r1, lsl #10
    12f0:	0606052f 	streq	r0, [r6], -pc, lsr #10
    12f4:	2f040511 	svccs	0x00040511
    12f8:	63030b05 	movwvs	r0, #15109	; 0x3b05
    12fc:	0019052e 	andseq	r0, r9, lr, lsr #10
    1300:	06010402 	streq	r0, [r1], -r2, lsl #8
    1304:	052e2403 	streq	r2, [lr, #-1027]!	; 0xfffffbfd
    1308:	0402001a 	streq	r0, [r2], #-26	; 0xffffffe6
    130c:	28051301 	stmdacs	r5, {r0, r8, r9, ip}
    1310:	01040200 	mrseq	r0, R12_usr
    1314:	25050106 	strcs	r0, [r5, #-262]	; 0xfffffefa
    1318:	01040200 	mrseq	r0, R12_usr
    131c:	001f052e 	andseq	r0, pc, lr, lsr #10
    1320:	4a010402 	bmi	42330 <__bss_end__+0x382d0>
    1324:	02000b05 	andeq	r0, r0, #5120	; 0x1400
    1328:	4b060104 	blmi	181740 <__bss_end__+0x1776e0>
    132c:	02000405 	andeq	r0, r0, #83886080	; 0x5000000
    1330:	01060104 	tsteq	r6, r4, lsl #2
    1334:	01040200 	mrseq	r0, R12_usr
    1338:	0402004a 	streq	r0, [r2], #-74	; 0xffffffb6
    133c:	004e0601 	subeq	r0, lr, r1, lsl #12
    1340:	01010402 	tsteq	r1, r2, lsl #8
    1344:	01040200 	mrseq	r0, R12_usr
    1348:	04020001 	streq	r0, [r2], #-1
    134c:	02000101 	andeq	r0, r0, #1073741824	; 0x40000000
    1350:	002e0104 	eoreq	r0, lr, r4, lsl #2
    1354:	9e010402 	cdpls	4, 0, cr0, cr1, cr2, {0}
    1358:	a8034805 	stmdage	r3, {r0, r2, fp, lr}
    135c:	0505f27f 	streq	pc, [r5, #-639]	; 0xfffffd81
    1360:	2e060113 	mcrcs	1, 0, r0, cr6, cr3, {0}
    1364:	02040200 	andeq	r0, r4, #0, 4
    1368:	02002e06 	andeq	r2, r0, #6, 28	; 0x60
    136c:	00010204 	andeq	r0, r1, r4, lsl #4
    1370:	13020402 	movwne	r0, #9218	; 0x2402
    1374:	02001105 	andeq	r1, r0, #1073741825	; 0x40000001
    1378:	01060204 	tsteq	r6, r4, lsl #4
    137c:	02000505 	andeq	r0, r0, #20971520	; 0x1400000
    1380:	4b060204 	blmi	181b98 <__bss_end__+0x177b38>
    1384:	02000705 	andeq	r0, r0, #1310720	; 0x140000
    1388:	01060204 	tsteq	r6, r4, lsl #4
    138c:	2f060905 	svccs	0x00060905
    1390:	01060e05 	tsteq	r6, r5, lsl #28
    1394:	02004805 	andeq	r4, r0, #327680	; 0x50000
    1398:	05620104 	strbeq	r0, [r2, #-260]!	; 0xfffffefc
    139c:	04020005 	streq	r0, [r2], #-5
    13a0:	002f0601 	eoreq	r0, pc, r1, lsl #12
    13a4:	01010402 	tsteq	r1, r2, lsl #8
    13a8:	01040200 	mrseq	r0, R12_usr
    13ac:	0402002e 	streq	r0, [r2], #-46	; 0xffffffd2
    13b0:	40059e01 	andmi	r9, r5, r1, lsl #28
    13b4:	ba00df03 	blt	38fc8 <__bss_end__+0x2ef68>
    13b8:	02050106 	andeq	r0, r5, #-2147483647	; 0x80000001
    13bc:	1e059f06 	cdpne	15, 0, cr9, cr5, cr6, {0}
    13c0:	12050106 	andne	r0, r5, #-2147483647	; 0x80000001
    13c4:	0602052e 	streq	r0, [r2], -lr, lsr #10
    13c8:	06090530 			; <UNDEFINED> instruction: 0x06090530
    13cc:	06020501 	streq	r0, [r2], -r1, lsl #10
    13d0:	0608054b 	streq	r0, [r8], -fp, asr #10
    13d4:	3102050f 	tstcc	r2, pc, lsl #10
    13d8:	30060405 	andcc	r0, r6, r5, lsl #8
    13dc:	01060f05 	tsteq	r6, r5, lsl #30
    13e0:	052e0905 	streq	r0, [lr, #-2309]!	; 0xfffff6fb
    13e4:	052c0608 	streq	r0, [ip, #-1544]!	; 0xfffff9f8
    13e8:	052e0602 	streq	r0, [lr, #-1538]!	; 0xfffff9fe
    13ec:	0402000d 	streq	r0, [r2], #-13
    13f0:	03054a01 	movweq	r4, #23041	; 0x5a01
    13f4:	05054b06 	streq	r4, [r5, #-2822]	; 0xfffff4fa
    13f8:	08050106 	stmdaeq	r5, {r1, r2, r8}
    13fc:	0e054d06 	cdpeq	13, 0, cr4, cr5, cr6, {0}
    1400:	0a050106 	beq	141820 <__bss_end__+0x1377c0>
    1404:	0604052e 	streq	r0, [r4], -lr, lsr #10
    1408:	0609052f 	streq	r0, [r9], -pc, lsr #10
    140c:	06040501 	streq	r0, [r4], -r1, lsl #10
    1410:	0607052f 	streq	r0, [r7], -pc, lsr #10
    1414:	04052e01 	streq	r2, [r5], #-3585	; 0xfffff1ff
    1418:	07053006 	streq	r3, [r5, -r6]
    141c:	04050106 	streq	r0, [r5], #-262	; 0xfffffefa
    1420:	14133006 	ldrne	r3, [r3], #-6
    1424:	10060d05 	andne	r0, r6, r5, lsl #26
    1428:	05300905 	ldreq	r0, [r0, #-2309]!	; 0xfffff6fb
    142c:	052f0605 	streq	r0, [pc, #-1541]!	; e2f <_start-0x71d1>
    1430:	05010612 	streq	r0, [r1, #-1554]	; 0xfffff9ee
    1434:	0b052e16 	bleq	14cc94 <__bss_end__+0x142c34>
    1438:	0605052e 	streq	r0, [r5], -lr, lsr #10
    143c:	0608052f 	streq	r0, [r8], -pc, lsr #10
    1440:	06090501 	streq	r0, [r9], -r1, lsl #10
    1444:	0612052c 	ldreq	r0, [r2], -ip, lsr #10
    1448:	2e0a0501 	cfsh32cs	mvfx0, mvfx10, #1
    144c:	054a0905 	strbeq	r0, [sl, #-2309]	; 0xfffff6fb
    1450:	014e0604 	cmpeq	lr, r4, lsl #12
    1454:	0014014a 	andseq	r0, r4, sl, asr #2
    1458:	02010402 	andeq	r0, r1, #33554432	; 0x2000000
    145c:	02001036 	andeq	r1, r0, #54	; 0x36
    1460:	00010104 	andeq	r0, r1, r4, lsl #2
    1464:	2e010402 	cdpcs	4, 0, cr0, cr1, cr2, {0}
    1468:	01040200 	mrseq	r0, R12_usr
    146c:	3405059e 	strcc	r0, [r5], #-1438	; 0xfffffa62
    1470:	2e9e2e01 	cdpcs	14, 9, cr2, cr14, cr1, {0}
    1474:	05010e03 	streq	r0, [r1, #-3587]	; 0xfffff1fd
    1478:	05010609 	streq	r0, [r1, #-1545]	; 0xfffff9f7
    147c:	59080605 	stmdbpl	r8, {r0, r2, r9, sl}
    1480:	15030405 	strne	r0, [r3, #-1029]	; 0xfffffbfb
    1484:	06070501 	streq	r0, [r7], -r1, lsl #10
    1488:	06040501 	streq	r0, [r4], -r1, lsl #10
    148c:	010a0531 	tsteq	sl, r1, lsr r5
    1490:	01060405 	tsteq	r6, r5, lsl #8
    1494:	02001305 	andeq	r1, r0, #335544320	; 0x14000000
    1498:	054a0104 	strbeq	r0, [sl, #-260]	; 0xfffffefc
    149c:	04020010 	streq	r0, [r2], #-16
    14a0:	05052e01 	streq	r2, [r5, #-3585]	; 0xfffff1ff
    14a4:	0e054b06 	vmlaeq.f64	d4, d5, d6
    14a8:	0a050106 	beq	1418c8 <__bss_end__+0x137868>
    14ac:	05052e2e 	streq	r2, [r5, #-3630]	; 0xfffff1d2
    14b0:	2e690306 	cdpcs	3, 6, cr0, cr9, cr6, {0}
    14b4:	01061c05 	tsteq	r6, r5, lsl #24
    14b8:	05820905 	streq	r0, [r2, #2309]	; 0x905
    14bc:	31d70605 	bicscc	r0, r7, r5, lsl #12
    14c0:	01061c05 	tsteq	r6, r5, lsl #24
    14c4:	05820905 	streq	r0, [r2, #2309]	; 0x905
    14c8:	30d70605 	sbcscc	r0, r7, r5, lsl #12
    14cc:	01061b05 	tsteq	r6, r5, lsl #22
    14d0:	05820905 	streq	r0, [r2, #2309]	; 0x905
    14d4:	30d70605 	sbcscc	r0, r7, r5, lsl #12
    14d8:	01060705 	tsteq	r6, r5, lsl #14
    14dc:	83060505 	movwhi	r0, #25861	; 0x6505
    14e0:	06090530 			; <UNDEFINED> instruction: 0x06090530
    14e4:	06050501 	streq	r0, [r5], -r1, lsl #10
    14e8:	01305908 	teqeq	r0, r8, lsl #18
    14ec:	2e06d62e 	cfmadd32cs	mvax1, mvfx13, mvfx6, mvfx14
    14f0:	03060205 	movweq	r0, #25093	; 0x6205
    14f4:	0705010a 	streq	r0, [r5, -sl, lsl #2]
    14f8:	02050106 	andeq	r0, r5, #-2147483647	; 0x80000001
    14fc:	01054b06 	tsteq	r5, r6, lsl #22
    1500:	02661306 	rsbeq	r1, r6, #402653184	; 0x18000000
    1504:	0101000a 	tsteq	r1, sl
    1508:	000000eb 	andeq	r0, r0, fp, ror #1
    150c:	00d10003 	sbcseq	r0, r1, r3
    1510:	01020000 	mrseq	r0, (UNDEF: 2)
    1514:	000d0efb 	strdeq	r0, [sp], -fp
    1518:	01010101 	tsteq	r1, r1, lsl #2
    151c:	01000000 	mrseq	r0, (UNDEF: 0)
    1520:	73010000 	movwvc	r0, #4096	; 0x1000
    1524:	66666174 			; <UNDEFINED> instruction: 0x66666174
    1528:	6372732d 	cmnvs	r2, #-1275068416	; 0xb4000000
    152c:	73752f00 	cmnvc	r5, #0, 30
    1530:	72612f72 	rsbvc	r2, r1, #456	; 0x1c8
    1534:	6f6e2d6d 	svcvs	0x006e2d6d
    1538:	652d656e 	strvs	r6, [sp, #-1390]!	; 0xfffffa92
    153c:	2f696261 	svccs	0x00696261
    1540:	6c636e69 	stclvs	14, cr6, [r3], #-420	; 0xfffffe5c
    1544:	2f656475 	svccs	0x00656475
    1548:	00737973 	rsbseq	r7, r3, r3, ror r9
    154c:	7273752f 	rsbsvc	r7, r3, #197132288	; 0xbc00000
    1550:	62696c2f 	rsbvs	r6, r9, #12032	; 0x2f00
    1554:	6363672f 	cmnvs	r3, #12320768	; 0xbc0000
    1558:	6d72612f 	ldfvse	f6, [r2, #-188]!	; 0xffffff44
    155c:	6e6f6e2d 	cdpvs	14, 6, cr6, cr15, cr13, {1}
    1560:	61652d65 	cmnvs	r5, r5, ror #26
    1564:	392f6962 	stmdbcc	pc!, {r1, r5, r6, r8, fp, sp, lr}	; <UNPREDICTABLE>
    1568:	302e322e 	eorcc	r3, lr, lr, lsr #4
    156c:	636e692f 	cmnvs	lr, #770048	; 0xbc000
    1570:	6564756c 	strbvs	r7, [r4, #-1388]!	; 0xfffffa94
    1574:	6f682f00 	svcvs	0x00682f00
    1578:	752f656d 	strvc	r6, [pc, #-1389]!	; 1013 <_start-0x6fed>
    157c:	2f726573 	svccs	0x00726573
    1580:	2f766544 	svccs	0x00766544
    1584:	34325343 	ldrtcc	r5, [r2], #-835	; 0xfffffcbd
    1588:	6c2f5830 	stcvs	8, cr5, [pc], #-192	; 14d0 <_start-0x6b30>
    158c:	69706269 	ldmdbvs	r0!, {r0, r3, r5, r6, r9, sp, lr}^
    1590:	636e692f 	cmnvs	lr, #770048	; 0xbc000
    1594:	6564756c 	strbvs	r7, [r4, #-1388]!	; 0xfffffa94
    1598:	6c630000 	stclvs	0, cr0, [r3], #-0
    159c:	2d6e6165 	stfcse	f6, [lr, #-404]!	; 0xfffffe6c
    15a0:	6f626572 	svcvs	0x00626572
    15a4:	632e746f 			; <UNDEFINED> instruction: 0x632e746f
    15a8:	00000100 	andeq	r0, r0, r0, lsl #2
    15ac:	6b636f6c 	blvs	18dd364 <__bss_end__+0x18d3304>
    15b0:	0200682e 	andeq	r6, r0, #3014656	; 0x2e0000
    15b4:	745f0000 	ldrbvc	r0, [pc], #-0	; 15bc <_start-0x6a44>
    15b8:	73657079 	cmnvc	r5, #121	; 0x79
    15bc:	0200682e 	andeq	r6, r0, #3014656	; 0x2e0000
    15c0:	74730000 	ldrbtvc	r0, [r3], #-0
    15c4:	66656464 	strbtvs	r6, [r5], -r4, ror #8
    15c8:	0300682e 	movweq	r6, #2094	; 0x82e
    15cc:	65720000 	ldrbvs	r0, [r2, #-0]!
    15d0:	2e746e65 	cdpcs	14, 7, cr6, cr4, cr5, {3}
    15d4:	00020068 	andeq	r0, r2, r8, rrx
    15d8:	69707200 	ldmdbvs	r0!, {r9, ip, sp, lr}^
    15dc:	0400682e 	streq	r6, [r0], #-2094	; 0xfffff7d2
    15e0:	05000000 	streq	r0, [r0, #-0]
    15e4:	02050019 	andeq	r0, r5, #25
    15e8:	000090a8 	andeq	r9, r0, r8, lsr #1
    15ec:	2f050515 	svccs	0x00050515
    15f0:	06024b83 	streq	r4, [r2], -r3, lsl #23
    15f4:	04010100 	streq	r0, [r1], #-256	; 0xffffff00
    15f8:	03000001 	movweq	r0, #1
    15fc:	0000cb00 	andeq	ip, r0, r0, lsl #22
    1600:	fb010200 	blx	41e0a <__bss_end__+0x37daa>
    1604:	01000d0e 	tsteq	r0, lr, lsl #26
    1608:	00010101 	andeq	r0, r1, r1, lsl #2
    160c:	00010000 	andeq	r0, r1, r0
    1610:	74730100 	ldrbtvc	r0, [r3], #-256	; 0xffffff00
    1614:	2d666661 	stclcs	6, cr6, [r6, #-388]!	; 0xfffffe7c
    1618:	00637273 	rsbeq	r7, r3, r3, ror r2
    161c:	7273752f 	rsbsvc	r7, r3, #197132288	; 0xbc00000
    1620:	6d72612f 	ldfvse	f6, [r2, #-188]!	; 0xffffff44
    1624:	6e6f6e2d 	cdpvs	14, 6, cr6, cr15, cr13, {1}
    1628:	61652d65 	cmnvs	r5, r5, ror #26
    162c:	692f6962 	stmdbvs	pc!, {r1, r5, r6, r8, fp, sp, lr}	; <UNPREDICTABLE>
    1630:	756c636e 	strbvc	r6, [ip, #-878]!	; 0xfffffc92
    1634:	732f6564 			; <UNDEFINED> instruction: 0x732f6564
    1638:	2f007379 	svccs	0x00007379
    163c:	2f727375 	svccs	0x00727375
    1640:	2f62696c 	svccs	0x0062696c
    1644:	2f636367 	svccs	0x00636367
    1648:	2d6d7261 	sfmcs	f7, 2, [sp, #-388]!	; 0xfffffe7c
    164c:	656e6f6e 	strbvs	r6, [lr, #-3950]!	; 0xfffff092
    1650:	6261652d 	rsbvs	r6, r1, #188743680	; 0xb400000
    1654:	2e392f69 	cdpcs	15, 3, cr2, cr9, cr9, {3}
    1658:	2f302e32 	svccs	0x00302e32
    165c:	6c636e69 	stclvs	14, cr6, [r3], #-420	; 0xfffffe5c
    1660:	00656475 	rsbeq	r6, r5, r5, ror r4
    1664:	6d6f682f 	stclvs	8, cr6, [pc, #-188]!	; 15b0 <_start-0x6a50>
    1668:	73752f65 	cmnvc	r5, #404	; 0x194
    166c:	442f7265 	strtmi	r7, [pc], #-613	; 1674 <_start-0x698c>
    1670:	432f7665 			; <UNDEFINED> instruction: 0x432f7665
    1674:	30343253 	eorscc	r3, r4, r3, asr r2
    1678:	696c2f58 	stmdbvs	ip!, {r3, r4, r6, r8, r9, sl, fp, sp}^
    167c:	2f697062 	svccs	0x00697062
    1680:	6c636e69 	stclvs	14, cr6, [r3], #-420	; 0xfffffe5c
    1684:	00656475 	rsbeq	r6, r5, r5, ror r4
    1688:	74736300 	ldrbtvc	r6, [r3], #-768	; 0xfffffd00
    168c:	2e747261 	cdpcs	2, 7, cr7, cr4, cr1, {3}
    1690:	00010063 	andeq	r0, r1, r3, rrx
    1694:	636f6c00 	cmnvs	pc, #0, 24
    1698:	00682e6b 	rsbeq	r2, r8, fp, ror #28
    169c:	5f000002 	svcpl	0x00000002
    16a0:	65707974 	ldrbvs	r7, [r0, #-2420]!	; 0xfffff68c
    16a4:	00682e73 	rsbeq	r2, r8, r3, ror lr
    16a8:	73000002 	movwvc	r0, #2
    16ac:	65646474 	strbvs	r6, [r4, #-1140]!	; 0xfffffb8c
    16b0:	00682e66 	rsbeq	r2, r8, r6, ror #28
    16b4:	72000003 	andvc	r0, r0, #3
    16b8:	746e6565 	strbtvc	r6, [lr], #-1381	; 0xfffffa9b
    16bc:	0200682e 	andeq	r6, r0, #3014656	; 0x2e0000
    16c0:	70720000 	rsbsvc	r0, r2, r0
    16c4:	00682e69 	rsbeq	r2, r8, r9, ror #28
    16c8:	00000004 	andeq	r0, r0, r4
    16cc:	05001005 	streq	r1, [r0, #-5]
    16d0:	0090d002 	addseq	sp, r0, r2
    16d4:	010c0300 	mrseq	r0, LR_mon
    16d8:	052f0505 	streq	r0, [pc, #-1285]!	; 11db <_start-0x6e25>
    16dc:	05051302 	streq	r1, [r5, #-770]	; 0xfffffcfe
    16e0:	05141314 	ldreq	r1, [r4, #-788]	; 0xfffffcec
    16e4:	060f060a 	streq	r0, [pc], -sl, lsl #12
    16e8:	4b090531 	blmi	242bb4 <__bss_end__+0x238b54>
    16ec:	01061005 	tsteq	r6, r5
    16f0:	0605054a 	streq	r0, [r5], -sl, asr #10
    16f4:	052e1403 	streq	r1, [lr, #-1027]!	; 0xfffffbfd
    16f8:	06022f02 	streq	r2, [r2], -r2, lsl #30
    16fc:	38010100 	stmdacc	r1, {r8}
    1700:	03000001 	movweq	r0, #1
    1704:	0000cb00 	andeq	ip, r0, r0, lsl #22
    1708:	fb010200 	blx	41f12 <__bss_end__+0x37eb2>
    170c:	01000d0e 	tsteq	r0, lr, lsl #26
    1710:	00010101 	andeq	r0, r1, r1, lsl #2
    1714:	00010000 	andeq	r0, r1, r0
    1718:	74730100 	ldrbtvc	r0, [r3], #-256	; 0xffffff00
    171c:	2d666661 	stclcs	6, cr6, [r6, #-388]!	; 0xfffffe7c
    1720:	00637273 	rsbeq	r7, r3, r3, ror r2
    1724:	7273752f 	rsbsvc	r7, r3, #197132288	; 0xbc00000
    1728:	6d72612f 	ldfvse	f6, [r2, #-188]!	; 0xffffff44
    172c:	6e6f6e2d 	cdpvs	14, 6, cr6, cr15, cr13, {1}
    1730:	61652d65 	cmnvs	r5, r5, ror #26
    1734:	692f6962 	stmdbvs	pc!, {r1, r5, r6, r8, fp, sp, lr}	; <UNPREDICTABLE>
    1738:	756c636e 	strbvc	r6, [ip, #-878]!	; 0xfffffc92
    173c:	732f6564 			; <UNDEFINED> instruction: 0x732f6564
    1740:	2f007379 	svccs	0x00007379
    1744:	2f727375 	svccs	0x00727375
    1748:	2f62696c 	svccs	0x0062696c
    174c:	2f636367 	svccs	0x00636367
    1750:	2d6d7261 	sfmcs	f7, 2, [sp, #-388]!	; 0xfffffe7c
    1754:	656e6f6e 	strbvs	r6, [lr, #-3950]!	; 0xfffff092
    1758:	6261652d 	rsbvs	r6, r1, #188743680	; 0xb400000
    175c:	2e392f69 	cdpcs	15, 3, cr2, cr9, cr9, {3}
    1760:	2f302e32 	svccs	0x00302e32
    1764:	6c636e69 	stclvs	14, cr6, [r3], #-420	; 0xfffffe5c
    1768:	00656475 	rsbeq	r6, r5, r5, ror r4
    176c:	6d6f682f 	stclvs	8, cr6, [pc, #-188]!	; 16b8 <_start-0x6948>
    1770:	73752f65 	cmnvc	r5, #404	; 0x194
    1774:	442f7265 	strtmi	r7, [pc], #-613	; 177c <_start-0x6884>
    1778:	432f7665 			; <UNDEFINED> instruction: 0x432f7665
    177c:	30343253 	eorscc	r3, r4, r3, asr r2
    1780:	696c2f58 	stmdbvs	ip!, {r3, r4, r6, r8, r9, sl, fp, sp}^
    1784:	2f697062 	svccs	0x00697062
    1788:	6c636e69 	stclvs	14, cr6, [r3], #-420	; 0xfffffe5c
    178c:	00656475 	rsbeq	r6, r5, r5, ror r4
    1790:	62657200 	rsbvs	r7, r5, #0, 4
    1794:	2e746f6f 	cdpcs	15, 7, cr6, cr4, cr15, {3}
    1798:	00010063 	andeq	r0, r1, r3, rrx
    179c:	636f6c00 	cmnvs	pc, #0, 24
    17a0:	00682e6b 	rsbeq	r2, r8, fp, ror #28
    17a4:	5f000002 	svcpl	0x00000002
    17a8:	65707974 	ldrbvs	r7, [r0, #-2420]!	; 0xfffff68c
    17ac:	00682e73 	rsbeq	r2, r8, r3, ror lr
    17b0:	73000002 	movwvc	r0, #2
    17b4:	65646474 	strbvs	r6, [r4, #-1140]!	; 0xfffffb8c
    17b8:	00682e66 	rsbeq	r2, r8, r6, ror #28
    17bc:	72000003 	andvc	r0, r0, #3
    17c0:	746e6565 	strbtvc	r6, [lr], #-1381	; 0xfffffa9b
    17c4:	0200682e 	andeq	r6, r0, #3014656	; 0x2e0000
    17c8:	70720000 	rsbsvc	r0, r2, r0
    17cc:	00682e69 	rsbeq	r2, r8, r9, ror #28
    17d0:	00000004 	andeq	r0, r0, r4
    17d4:	05001905 	streq	r1, [r0, #-2309]	; 0xfffff6fb
    17d8:	0090fc02 	addseq	pc, r0, r2, lsl #24
    17dc:	010d0300 	mrseq	r0, SP_mon
    17e0:	13130505 	tstne	r3, #20971520	; 0x1400000
    17e4:	06130531 			; <UNDEFINED> instruction: 0x06130531
    17e8:	2f010501 	svccs	0x00010501
    17ec:	85061b05 	strhi	r1, [r6, #-2821]	; 0xfffff4fb
    17f0:	14130505 	ldrne	r0, [r3], #-1285	; 0xfffffafb
    17f4:	052f0905 	streq	r0, [pc, #-2309]!	; ef7 <_start-0x7109>
    17f8:	05010616 	streq	r0, [r1, #-1558]	; 0xfffff9ea
    17fc:	05052e0e 	streq	r2, [r5, #-3598]	; 0xfffff1f2
    1800:	01052f06 	tsteq	r5, r6, lsl #30
    1804:	17052f06 	strne	r2, [r5, -r6, lsl #30]
    1808:	05053006 	streq	r3, [r5, #-6]
    180c:	0608052f 	streq	r0, [r8], -pc, lsr #10
    1810:	2e070501 	cfsh32cs	mvfx0, mvfx7, #1
    1814:	52060505 	andpl	r0, r6, #20971520	; 0x1400000
    1818:	1313134c 	tstne	r3, #76, 6	; 0x30000001
    181c:	02006715 	andeq	r6, r0, #5505024	; 0x540000
    1820:	05670104 	strbeq	r0, [r7, #-260]!	; 0xfffffefc
    1824:	0402000d 	streq	r0, [r2], #-13
    1828:	0a050101 	beq	141c34 <__bss_end__+0x137bd4>
    182c:	01040200 	mrseq	r0, R12_usr
    1830:	03090501 	movweq	r0, #38145	; 0x9501
    1834:	0c022e6f 	stceq	14, cr2, [r2], {111}	; 0x6f
    1838:	5a010100 	bpl	41c40 <__bss_end__+0x37be0>
    183c:	03000001 	movweq	r0, #1
    1840:	0000ca00 	andeq	ip, r0, r0, lsl #20
    1844:	fb010200 	blx	4204e <__bss_end__+0x37fee>
    1848:	01000d0e 	tsteq	r0, lr, lsl #26
    184c:	00010101 	andeq	r0, r1, r1, lsl #2
    1850:	00010000 	andeq	r0, r1, r0
    1854:	74730100 	ldrbtvc	r0, [r3], #-256	; 0xffffff00
    1858:	2d666661 	stclcs	6, cr6, [r6, #-388]!	; 0xfffffe7c
    185c:	00637273 	rsbeq	r7, r3, r3, ror r2
    1860:	7273752f 	rsbsvc	r7, r3, #197132288	; 0xbc00000
    1864:	6d72612f 	ldfvse	f6, [r2, #-188]!	; 0xffffff44
    1868:	6e6f6e2d 	cdpvs	14, 6, cr6, cr15, cr13, {1}
    186c:	61652d65 	cmnvs	r5, r5, ror #26
    1870:	692f6962 	stmdbvs	pc!, {r1, r5, r6, r8, fp, sp, lr}	; <UNPREDICTABLE>
    1874:	756c636e 	strbvc	r6, [ip, #-878]!	; 0xfffffc92
    1878:	732f6564 			; <UNDEFINED> instruction: 0x732f6564
    187c:	2f007379 	svccs	0x00007379
    1880:	2f727375 	svccs	0x00727375
    1884:	2f62696c 	svccs	0x0062696c
    1888:	2f636367 	svccs	0x00636367
    188c:	2d6d7261 	sfmcs	f7, 2, [sp, #-388]!	; 0xfffffe7c
    1890:	656e6f6e 	strbvs	r6, [lr, #-3950]!	; 0xfffff092
    1894:	6261652d 	rsbvs	r6, r1, #188743680	; 0xb400000
    1898:	2e392f69 	cdpcs	15, 3, cr2, cr9, cr9, {3}
    189c:	2f302e32 	svccs	0x00302e32
    18a0:	6c636e69 	stclvs	14, cr6, [r3], #-420	; 0xfffffe5c
    18a4:	00656475 	rsbeq	r6, r5, r5, ror r4
    18a8:	6d6f682f 	stclvs	8, cr6, [pc, #-188]!	; 17f4 <_start-0x680c>
    18ac:	73752f65 	cmnvc	r5, #404	; 0x194
    18b0:	442f7265 	strtmi	r7, [pc], #-613	; 18b8 <_start-0x6748>
    18b4:	432f7665 			; <UNDEFINED> instruction: 0x432f7665
    18b8:	30343253 	eorscc	r3, r4, r3, asr r2
    18bc:	696c2f58 	stmdbvs	ip!, {r3, r4, r6, r8, r9, sl, fp, sp}^
    18c0:	2f697062 	svccs	0x00697062
    18c4:	6c636e69 	stclvs	14, cr6, [r3], #-420	; 0xfffffe5c
    18c8:	00656475 	rsbeq	r6, r5, r5, ror r4
    18cc:	6d697400 	cfstrdvs	mvd7, [r9, #-0]
    18d0:	632e7265 			; <UNDEFINED> instruction: 0x632e7265
    18d4:	00000100 	andeq	r0, r0, r0, lsl #2
    18d8:	6b636f6c 	blvs	18dd690 <__bss_end__+0x18d3630>
    18dc:	0200682e 	andeq	r6, r0, #3014656	; 0x2e0000
    18e0:	745f0000 	ldrbvc	r0, [pc], #-0	; 18e8 <_start-0x6718>
    18e4:	73657079 	cmnvc	r5, #121	; 0x79
    18e8:	0200682e 	andeq	r6, r0, #3014656	; 0x2e0000
    18ec:	74730000 	ldrbtvc	r0, [r3], #-0
    18f0:	66656464 	strbtvs	r6, [r5], -r4, ror #8
    18f4:	0300682e 	movweq	r6, #2094	; 0x82e
    18f8:	65720000 	ldrbvs	r0, [r2, #-0]!
    18fc:	2e746e65 	cdpcs	14, 7, cr6, cr4, cr5, {3}
    1900:	00020068 	andeq	r0, r2, r8, rrx
    1904:	69707200 	ldmdbvs	r0!, {r9, ip, sp, lr}^
    1908:	0400682e 	streq	r6, [r0], #-2094	; 0xfffff7d2
    190c:	05000000 	streq	r0, [r0, #-0]
    1910:	02050023 	andeq	r0, r5, #35	; 0x23
    1914:	00009174 	andeq	r9, r0, r4, ror r1
    1918:	14050516 	strne	r0, [r5], #-1302	; 0xfffffaea
    191c:	05010a05 	streq	r0, [r1, #-2565]	; 0xfffff5fb
    1920:	05010610 	streq	r0, [r1, #-1552]	; 0xfffff9f0
    1924:	09052e0a 	stmdbeq	r5, {r1, r3, r9, sl, fp, sp}
    1928:	10054b06 	andne	r4, r5, r6, lsl #22
    192c:	23052d06 	movwcs	r2, #23814	; 0x5d06
    1930:	4a0a0306 	bmi	282550 <__bss_end__+0x2784f0>
    1934:	052f0505 	streq	r0, [pc, #-1285]!	; 1437 <_start-0x6bc9>
    1938:	0501060c 	streq	r0, [r1, #-1548]	; 0xfffff9f4
    193c:	1f054b01 	svcne	0x00054b01
    1940:	05054d06 	streq	r4, [r5, #-3334]	; 0xfffff2fa
    1944:	06120532 			; <UNDEFINED> instruction: 0x06120532
    1948:	06050501 	streq	r0, [r5], -r1, lsl #10
    194c:	06010530 			; <UNDEFINED> instruction: 0x06010530
    1950:	061c0513 			; <UNDEFINED> instruction: 0x061c0513
    1954:	05010630 	streq	r0, [r1, #-1584]	; 0xfffff9d0
    1958:	054b0605 	strbeq	r0, [fp, #-1541]	; 0xfffff9fb
    195c:	2e010613 	mcrcs	6, 0, r0, cr1, cr3, {0}
    1960:	2f060505 	svccs	0x00060505
    1964:	05130905 	ldreq	r0, [r3, #-2309]	; 0xfffff6fb
    1968:	05010617 	streq	r0, [r1, #-1559]	; 0xfffff9e9
    196c:	052f0609 	streq	r0, [pc, #-1545]!	; 136b <_start-0x6c95>
    1970:	05010611 	streq	r0, [r1, #-1553]	; 0xfffff9ef
    1974:	1c052e0c 	stcne	14, cr2, [r5], {12}
    1978:	01066b06 	tsteq	r6, r6, lsl #22
    197c:	2f060505 	svccs	0x00060505
    1980:	01054a06 	tsteq	r5, r6, lsl #20
    1984:	061e054b 	ldreq	r0, [lr], -fp, asr #10
    1988:	0501062f 	streq	r0, [r1, #-1583]	; 0xfffff9d1
    198c:	062f0605 	strteq	r0, [pc], -r5, lsl #12
    1990:	4b01054a 	blmi	42ec0 <__bss_end__+0x38e60>
    1994:	01000202 	tsteq	r0, r2, lsl #4
    1998:	00014801 	andeq	r4, r1, r1, lsl #16
    199c:	02000200 	andeq	r0, r0, #0, 4
    19a0:	02000001 	andeq	r0, r0, #1
    19a4:	0d0efb01 	vstreq	d15, [lr, #-4]
    19a8:	01010100 	mrseq	r0, (UNDEF: 17)
    19ac:	00000001 	andeq	r0, r0, r1
    19b0:	01000001 	tsteq	r0, r1
    19b4:	7273752f 	rsbsvc	r7, r3, #197132288	; 0xbc00000
    19b8:	636e692f 	cmnvs	lr, #770048	; 0xbc000
    19bc:	6564756c 	strbvs	r7, [r4, #-1388]!	; 0xfffffa94
    19c0:	77656e2f 	strbvc	r6, [r5, -pc, lsr #28]!
    19c4:	2f62696c 	svccs	0x0062696c
    19c8:	00737973 	rsbseq	r7, r3, r3, ror r9
    19cc:	7273752f 	rsbsvc	r7, r3, #197132288	; 0xbc00000
    19d0:	62696c2f 	rsbvs	r6, r9, #12032	; 0x2f00
    19d4:	6363672f 	cmnvs	r3, #12320768	; 0xbc0000
    19d8:	6d72612f 	ldfvse	f6, [r2, #-188]!	; 0xffffff44
    19dc:	6e6f6e2d 	cdpvs	14, 6, cr6, cr15, cr13, {1}
    19e0:	61652d65 	cmnvs	r5, r5, ror #26
    19e4:	362f6962 	strtcc	r6, [pc], -r2, ror #18
    19e8:	312e332e 			; <UNDEFINED> instruction: 0x312e332e
    19ec:	636e692f 	cmnvs	lr, #770048	; 0xbc000
    19f0:	6564756c 	strbvs	r7, [r4, #-1388]!	; 0xfffffa94
    19f4:	6f682f00 	svcvs	0x00682f00
    19f8:	652f656d 	strvs	r6, [pc, #-1389]!	; 1493 <_start-0x6b6d>
    19fc:	656c676e 	strbvs	r6, [ip, #-1902]!	; 0xfffff892
    1a00:	6c632f72 	stclvs	15, cr2, [r3], #-456	; 0xfffffe38
    1a04:	2f737361 	svccs	0x00737361
    1a08:	34327363 	ldrtcc	r7, [r2], #-867	; 0xfffffc9d
    1a0c:	2d786c30 	ldclcs	12, cr6, [r8, #-192]!	; 0xffffff40
    1a10:	70733032 	rsbsvc	r3, r3, r2, lsr r0
    1a14:	6c2f2f72 	stcvs	15, cr2, [pc], #-456	; 1854 <_start-0x67ac>
    1a18:	69706269 	ldmdbvs	r0!, {r0, r3, r5, r6, r9, sp, lr}^
    1a1c:	6f682f00 	svcvs	0x00682f00
    1a20:	652f656d 	strvs	r6, [pc, #-1389]!	; 14bb <_start-0x6b45>
    1a24:	656c676e 	strbvs	r6, [ip, #-1902]!	; 0xfffff892
    1a28:	6c632f72 	stclvs	15, cr2, [r3], #-456	; 0xfffffe38
    1a2c:	2f737361 	svccs	0x00737361
    1a30:	34327363 	ldrtcc	r7, [r2], #-867	; 0xfffffc9d
    1a34:	2d786c30 	ldclcs	12, cr6, [r8, #-192]!	; 0xffffff40
    1a38:	70733032 	rsbsvc	r3, r3, r2, lsr r0
    1a3c:	6c2f2f72 	stcvs	15, cr2, [pc], #-456	; 187c <_start-0x6784>
    1a40:	69706269 	ldmdbvs	r0!, {r0, r3, r5, r6, r9, sp, lr}^
    1a44:	6174732f 	cmnvs	r4, pc, lsr #6
    1a48:	732d6666 			; <UNDEFINED> instruction: 0x732d6666
    1a4c:	00006372 	andeq	r6, r0, r2, ror r3
    1a50:	74726175 	ldrbtvc	r6, [r2], #-373	; 0xfffffe8b
    1a54:	0000632e 	andeq	r6, r0, lr, lsr #6
    1a58:	6f6c0000 	svcvs	0x006c0000
    1a5c:	682e6b63 	stmdavs	lr!, {r0, r1, r5, r6, r8, r9, fp, sp, lr}
    1a60:	00000100 	andeq	r0, r0, r0, lsl #2
    1a64:	7079745f 	rsbsvc	r7, r9, pc, asr r4
    1a68:	682e7365 	stmdavs	lr!, {r0, r2, r5, r6, r8, r9, ip, sp, lr}
    1a6c:	00000100 	andeq	r0, r0, r0, lsl #2
    1a70:	64647473 	strbtvs	r7, [r4], #-1139	; 0xfffffb8d
    1a74:	682e6665 	stmdavs	lr!, {r0, r2, r5, r6, r9, sl, sp, lr}
    1a78:	00000200 	andeq	r0, r0, r0, lsl #4
    1a7c:	6e656572 	mcrvs	5, 3, r6, cr5, cr2, {3}
    1a80:	00682e74 	rsbeq	r2, r8, r4, ror lr
    1a84:	72000001 	andvc	r0, r0, #1
    1a88:	682e6970 	stmdavs	lr!, {r4, r5, r6, r8, fp, sp, lr}
    1a8c:	00000300 	andeq	r0, r0, r0, lsl #6
    1a90:	74726175 	ldrbtvc	r6, [r2], #-373	; 0xfffffe8b
    1a94:	0400682e 	streq	r6, [r0], #-2094	; 0xfffff7d2
    1a98:	70670000 	rsbvc	r0, r7, r0
    1a9c:	682e6f69 	stmdavs	lr!, {r0, r3, r5, r6, r8, r9, sl, fp, sp, lr}
    1aa0:	00000400 	andeq	r0, r0, r0, lsl #8
    1aa4:	02050000 	andeq	r0, r5, #0
    1aa8:	0000924c 	andeq	r9, r0, ip, asr #4
    1aac:	67012c03 	strvs	r2, [r1, -r3, lsl #24]
    1ab0:	359e0c03 	ldrcc	r0, [lr, #3075]	; 0xc03
    1ab4:	68356867 	ldmdavs	r5!, {r0, r1, r2, r5, r6, fp, sp, lr}
    1ab8:	852e0c03 	strhi	r0, [lr, #-3075]!	; 0xfffff3fd
    1abc:	0369696b 	cmneq	r9, #1753088	; 0x1ac000
    1ac0:	676b660c 	strbvs	r6, [fp, -ip, lsl #12]!
    1ac4:	68344208 	ldmdavs	r4!, {r3, r9, lr}
    1ac8:	8768364b 	strbhi	r3, [r8, -fp, asr #12]!
    1acc:	0402002f 	streq	r0, [r2], #-47	; 0xffffffd1
    1ad0:	67682f01 	strbvs	r2, [r8, -r1, lsl #30]!
    1ad4:	004b6730 	subeq	r6, fp, r0, lsr r7
    1ad8:	2f010402 	svccs	0x00010402
    1adc:	2e696768 	cdpcs	7, 6, cr6, cr9, cr8, {3}
    1ae0:	01000602 	tsteq	r0, r2, lsl #12
    1ae4:	00012b01 	andeq	r2, r1, r1, lsl #22
    1ae8:	f8000200 			; <UNDEFINED> instruction: 0xf8000200
    1aec:	02000000 	andeq	r0, r0, #0
    1af0:	0d0efb01 	vstreq	d15, [lr, #-4]
    1af4:	01010100 	mrseq	r0, (UNDEF: 17)
    1af8:	00000001 	andeq	r0, r0, r1
    1afc:	01000001 	tsteq	r0, r1
    1b00:	7273752f 	rsbsvc	r7, r3, #197132288	; 0xbc00000
    1b04:	636e692f 	cmnvs	lr, #770048	; 0xbc000
    1b08:	6564756c 	strbvs	r7, [r4, #-1388]!	; 0xfffffa94
    1b0c:	77656e2f 	strbvc	r6, [r5, -pc, lsr #28]!
    1b10:	2f62696c 	svccs	0x0062696c
    1b14:	00737973 	rsbseq	r7, r3, r3, ror r9
    1b18:	7273752f 	rsbsvc	r7, r3, #197132288	; 0xbc00000
    1b1c:	62696c2f 	rsbvs	r6, r9, #12032	; 0x2f00
    1b20:	6363672f 	cmnvs	r3, #12320768	; 0xbc0000
    1b24:	6d72612f 	ldfvse	f6, [r2, #-188]!	; 0xffffff44
    1b28:	6e6f6e2d 	cdpvs	14, 6, cr6, cr15, cr13, {1}
    1b2c:	61652d65 	cmnvs	r5, r5, ror #26
    1b30:	362f6962 	strtcc	r6, [pc], -r2, ror #18
    1b34:	312e332e 			; <UNDEFINED> instruction: 0x312e332e
    1b38:	636e692f 	cmnvs	lr, #770048	; 0xbc000
    1b3c:	6564756c 	strbvs	r7, [r4, #-1388]!	; 0xfffffa94
    1b40:	6f682f00 	svcvs	0x00682f00
    1b44:	652f656d 	strvs	r6, [pc, #-1389]!	; 15df <_start-0x6a21>
    1b48:	656c676e 	strbvs	r6, [ip, #-1902]!	; 0xfffff892
    1b4c:	6c632f72 	stclvs	15, cr2, [r3], #-456	; 0xfffffe38
    1b50:	2f737361 	svccs	0x00737361
    1b54:	34327363 	ldrtcc	r7, [r2], #-867	; 0xfffffc9d
    1b58:	2d786c30 	ldclcs	12, cr6, [r8, #-192]!	; 0xffffff40
    1b5c:	70733032 	rsbsvc	r3, r3, r2, lsr r0
    1b60:	6c2f2f72 	stcvs	15, cr2, [pc], #-456	; 19a0 <_start-0x6660>
    1b64:	69706269 	ldmdbvs	r0!, {r0, r3, r5, r6, r9, sp, lr}^
    1b68:	6f682f00 	svcvs	0x00682f00
    1b6c:	652f656d 	strvs	r6, [pc, #-1389]!	; 1607 <_start-0x69f9>
    1b70:	656c676e 	strbvs	r6, [ip, #-1902]!	; 0xfffff892
    1b74:	6c632f72 	stclvs	15, cr2, [r3], #-456	; 0xfffffe38
    1b78:	2f737361 	svccs	0x00737361
    1b7c:	34327363 	ldrtcc	r7, [r2], #-867	; 0xfffffc9d
    1b80:	2d786c30 	ldclcs	12, cr6, [r8, #-192]!	; 0xffffff40
    1b84:	70733032 	rsbsvc	r3, r3, r2, lsr r0
    1b88:	6c2f2f72 	stcvs	15, cr2, [pc], #-456	; 19c8 <_start-0x6638>
    1b8c:	69706269 	ldmdbvs	r0!, {r0, r3, r5, r6, r9, sp, lr}^
    1b90:	6174732f 	cmnvs	r4, pc, lsr #6
    1b94:	732d6666 			; <UNDEFINED> instruction: 0x732d6666
    1b98:	00006372 	andeq	r6, r0, r2, ror r3
    1b9c:	6f697067 	svcvs	0x00697067
    1ba0:	0000632e 	andeq	r6, r0, lr, lsr #6
    1ba4:	6f6c0000 	svcvs	0x006c0000
    1ba8:	682e6b63 	stmdavs	lr!, {r0, r1, r5, r6, r8, r9, fp, sp, lr}
    1bac:	00000100 	andeq	r0, r0, r0, lsl #2
    1bb0:	7079745f 	rsbsvc	r7, r9, pc, asr r4
    1bb4:	682e7365 	stmdavs	lr!, {r0, r2, r5, r6, r8, r9, ip, sp, lr}
    1bb8:	00000100 	andeq	r0, r0, r0, lsl #2
    1bbc:	64647473 	strbtvs	r7, [r4], #-1139	; 0xfffffb8d
    1bc0:	682e6665 	stmdavs	lr!, {r0, r2, r5, r6, r9, sl, sp, lr}
    1bc4:	00000200 	andeq	r0, r0, r0, lsl #4
    1bc8:	6e656572 	mcrvs	5, 3, r6, cr5, cr2, {3}
    1bcc:	00682e74 	rsbeq	r2, r8, r4, ror lr
    1bd0:	72000001 	andvc	r0, r0, #1
    1bd4:	682e6970 	stmdavs	lr!, {r4, r5, r6, r8, fp, sp, lr}
    1bd8:	00000300 	andeq	r0, r0, r0, lsl #6
    1bdc:	6f697067 	svcvs	0x00697067
    1be0:	0400682e 	streq	r6, [r0], #-2094	; 0xfffff7d2
    1be4:	00000000 	andeq	r0, r0, r0
    1be8:	93c40205 	bicls	r0, r4, #1342177280	; 0x50000000
    1bec:	27030000 	strcs	r0, [r3, -r0]
    1bf0:	474c1301 	strbmi	r1, [ip, -r1, lsl #6]
    1bf4:	4b68f44f 	blmi	1a3ed38 <__bss_end__+0x1a34cd8>
    1bf8:	6a2fa14c 	bvs	bea130 <__bss_end__+0xbe00d0>
    1bfc:	be314913 			; <UNDEFINED> instruction: 0xbe314913
    1c00:	be314913 			; <UNDEFINED> instruction: 0xbe314913
    1c04:	4d2f6a2f 	vstmdbmi	pc!, {s12-s58}
    1c08:	49134f48 	ldmdbmi	r3, {r3, r6, r8, r9, sl, fp, lr}
    1c0c:	02b72f32 	adcseq	r2, r7, #50, 30	; 0xc8
    1c10:	01010006 	tsteq	r1, r6
    1c14:	00000134 	andeq	r0, r0, r4, lsr r1
    1c18:	00df0002 	sbcseq	r0, pc, r2
    1c1c:	01020000 	mrseq	r0, (UNDEF: 2)
    1c20:	000d0efb 	strdeq	r0, [sp], -fp
    1c24:	01010101 	tsteq	r1, r1, lsl #2
    1c28:	01000000 	mrseq	r0, (UNDEF: 0)
    1c2c:	2f010000 	svccs	0x00010000
    1c30:	2f727375 	svccs	0x00727375
    1c34:	6c636e69 	stclvs	14, cr6, [r3], #-420	; 0xfffffe5c
    1c38:	2f656475 	svccs	0x00656475
    1c3c:	6c77656e 	cfldr64vs	mvdx6, [r7], #-440	; 0xfffffe48
    1c40:	732f6269 			; <UNDEFINED> instruction: 0x732f6269
    1c44:	2f007379 	svccs	0x00007379
    1c48:	2f727375 	svccs	0x00727375
    1c4c:	2f62696c 	svccs	0x0062696c
    1c50:	2f636367 	svccs	0x00636367
    1c54:	2d6d7261 	sfmcs	f7, 2, [sp, #-388]!	; 0xfffffe7c
    1c58:	656e6f6e 	strbvs	r6, [lr, #-3950]!	; 0xfffff092
    1c5c:	6261652d 	rsbvs	r6, r1, #188743680	; 0xb400000
    1c60:	2e362f69 	cdpcs	15, 3, cr2, cr6, cr9, {3}
    1c64:	2f312e33 	svccs	0x00312e33
    1c68:	6c636e69 	stclvs	14, cr6, [r3], #-420	; 0xfffffe5c
    1c6c:	00656475 	rsbeq	r6, r5, r5, ror r4
    1c70:	6d6f682f 	stclvs	8, cr6, [pc, #-188]!	; 1bbc <_start-0x6444>
    1c74:	6e652f65 	cdpvs	15, 6, cr2, cr5, cr5, {3}
    1c78:	72656c67 	rsbvc	r6, r5, #26368	; 0x6700
    1c7c:	616c632f 	cmnvs	ip, pc, lsr #6
    1c80:	632f7373 			; <UNDEFINED> instruction: 0x632f7373
    1c84:	30343273 	eorscc	r3, r4, r3, ror r2
    1c88:	322d786c 	eorcc	r7, sp, #108, 16	; 0x6c0000
    1c8c:	72707330 	rsbsvc	r7, r0, #48, 6	; 0xc0000000
    1c90:	696c2f2f 	stmdbvs	ip!, {r0, r1, r2, r3, r5, r8, r9, sl, fp, sp}^
    1c94:	00697062 	rsbeq	r7, r9, r2, rrx
    1c98:	7273752f 	rsbsvc	r7, r3, #197132288	; 0xbc00000
    1c9c:	636e692f 	cmnvs	lr, #770048	; 0xbc000
    1ca0:	6564756c 	strbvs	r7, [r4, #-1388]!	; 0xfffffa94
    1ca4:	77656e2f 	strbvc	r6, [r5, -pc, lsr #28]!
    1ca8:	0062696c 	rsbeq	r6, r2, ip, ror #18
    1cac:	616d6b00 	cmnvs	sp, r0, lsl #22
    1cb0:	636f6c6c 	cmnvs	pc, #108, 24	; 0x6c00
    1cb4:	0000632e 	andeq	r6, r0, lr, lsr #6
    1cb8:	6f6c0000 	svcvs	0x006c0000
    1cbc:	682e6b63 	stmdavs	lr!, {r0, r1, r5, r6, r8, r9, fp, sp, lr}
    1cc0:	00000100 	andeq	r0, r0, r0, lsl #2
    1cc4:	7079745f 	rsbsvc	r7, r9, pc, asr r4
    1cc8:	682e7365 	stmdavs	lr!, {r0, r2, r5, r6, r8, r9, ip, sp, lr}
    1ccc:	00000100 	andeq	r0, r0, r0, lsl #2
    1cd0:	64647473 	strbtvs	r7, [r4], #-1139	; 0xfffffb8d
    1cd4:	682e6665 	stmdavs	lr!, {r0, r2, r5, r6, r9, sl, sp, lr}
    1cd8:	00000200 	andeq	r0, r0, r0, lsl #4
    1cdc:	6e656572 	mcrvs	5, 3, r6, cr5, cr2, {3}
    1ce0:	00682e74 	rsbeq	r2, r8, r4, ror lr
    1ce4:	72000001 	andvc	r0, r0, #1
    1ce8:	682e6970 	stmdavs	lr!, {r4, r5, r6, r8, fp, sp, lr}
    1cec:	00000300 	andeq	r0, r0, r0, lsl #6
    1cf0:	69727473 	ldmdbvs	r2!, {r0, r1, r4, r5, r6, sl, ip, sp, lr}^
    1cf4:	682e676e 	stmdavs	lr!, {r1, r2, r3, r5, r6, r8, r9, sl, sp, lr}
    1cf8:	00000400 	andeq	r0, r0, r0, lsl #8
    1cfc:	02050000 	andeq	r0, r5, #0
    1d00:	000094e4 	andeq	r9, r0, r4, ror #9
    1d04:	01011003 	tsteq	r1, r3
    1d08:	14680183 	strbtne	r0, [r8], #-387	; 0xfffffe7d
    1d0c:	04020083 	streq	r0, [r2], #-131	; 0xffffff7d
    1d10:	02007f01 	andeq	r7, r0, #1, 30
    1d14:	08300104 	ldmdaeq	r0!, {r2, r8}
    1d18:	4c4b2f5c 	mcrrmi	15, 5, r2, fp, cr12
    1d1c:	00684b4b 	rsbeq	r4, r8, fp, asr #22
    1d20:	03010402 	movweq	r0, #5122	; 0x1402
    1d24:	09034a79 	stmdbeq	r3, {r0, r3, r4, r5, r6, r9, fp, lr}
    1d28:	012f5808 			; <UNDEFINED> instruction: 0x012f5808
    1d2c:	6a2f4e2e 	bvs	bd55ec <__bss_end__+0xbcb58c>
    1d30:	4c67674b 	stclmi	7, cr6, [r7], #-300	; 0xfffffed4
    1d34:	0402002f 	streq	r0, [r2], #-47	; 0xffffffd1
    1d38:	2e760301 	cdpcs	3, 7, cr0, cr6, cr1, {0}
    1d3c:	01040200 	mrseq	r0, R12_usr
    1d40:	2f7a08dc 	svccs	0x007a08dc
    1d44:	02019f01 	andeq	r9, r1, #1, 30
    1d48:	01010008 	tsteq	r1, r8

Disassembly of section .debug_str:

00000000 <.debug_str>:
   0:	6f73645f 	svcvs	0x0073645f
   4:	6e61685f 	mcrvs	8, 3, r6, cr1, cr15, {2}
   8:	00656c64 	rsbeq	r6, r5, r4, ror #24
   c:	685f6b63 	ldmdavs	pc, {r0, r1, r5, r6, r8, r9, fp, sp, lr}^	; <UNPREDICTABLE>
  10:	5f706165 	svcpl	0x00706165
  14:	6f727265 	svcvs	0x00727265
  18:	5f007372 	svcpl	0x00007372
  1c:	657a6973 	ldrbvs	r6, [sl, #-2419]!	; 0xfffff68d
  20:	61725f00 	cmnvs	r2, r0, lsl #30
  24:	3834646e 	ldmdacc	r4!, {r1, r2, r3, r5, r6, sl, sp, lr}
  28:	6d655f00 	stclvs	15, cr5, [r5, #-0]
  2c:	65677265 	strbvs	r7, [r7, #-613]!	; 0xfffffd9b
  30:	0079636e 	rsbseq	r6, r9, lr, ror #6
  34:	6d746f6e 	ldclvs	15, cr6, [r4, #-440]!	; 0xfffffe48
  38:	006e6961 	rsbeq	r6, lr, r1, ror #18
  3c:	7263775f 	rsbvc	r7, r3, #24903680	; 0x17c0000
  40:	626d6f74 	rsbvs	r6, sp, #116, 30	; 0x1d0
  44:	6174735f 	cmnvs	r4, pc, asr r3
  48:	5f006574 	svcpl	0x00006574
  4c:	72736377 	rsbsvc	r6, r3, #-603979775	; 0xdc000001
  50:	626d6f74 	rsbvs	r6, sp, #116, 30	; 0x1d0
  54:	74735f73 	ldrbtvc	r5, [r3], #-3955	; 0xfffff08d
  58:	00657461 	rsbeq	r7, r5, r1, ror #8
  5c:	676e6f6c 	strbvs	r6, [lr, -ip, ror #30]!
  60:	6e6f6c20 	cdpvs	12, 6, cr6, cr15, cr0, {1}
  64:	6e752067 	cdpvs	0, 7, cr2, cr5, cr7, {3}
  68:	6e676973 			; <UNDEFINED> instruction: 0x6e676973
  6c:	69206465 	stmdbvs	r0!, {r0, r2, r5, r6, sl, sp, lr}
  70:	6300746e 	movwvs	r7, #1134	; 0x46e
  74:	6c6c616b 	stfvse	f6, [ip], #-428	; 0xfffffe54
  78:	5f00636f 	svcpl	0x0000636f
  7c:	7366626c 	cmnvc	r6, #108, 4	; 0xc0000006
  80:	00657a69 	rsbeq	r7, r5, r9, ror #20
  84:	6f6c5f5f 	svcvs	0x006c5f5f
  88:	656c6163 	strbvs	r6, [ip, #-355]!	; 0xfffffe9d
  8c:	5f00745f 	svcpl	0x0000745f
  90:	7472626d 	ldrbtvc	r6, [r2], #-621	; 0xfffffd93
  94:	5f63776f 	svcpl	0x0063776f
  98:	74617473 	strbtvc	r7, [r1], #-1139	; 0xfffffb8d
  9c:	5f5f0065 	svcpl	0x005f0065
  a0:	735f6d74 	cmpvc	pc, #116, 26	; 0x1d00
  a4:	6c006365 	stcvs	3, cr6, [r0], {101}	; 0x65
  a8:	20676e6f 	rsbcs	r6, r7, pc, ror #28
  ac:	676e6f6c 	strbvs	r6, [lr, -ip, ror #30]!
  b0:	746e6920 	strbtvc	r6, [lr], #-2336	; 0xfffff6e0
  b4:	62755f00 	rsbsvs	r5, r5, #0, 30
  b8:	5f006675 	svcpl	0x00006675
  bc:	65736162 	ldrbvs	r6, [r3, #-354]!	; 0xfffffe9e
  c0:	745f5f00 	ldrbvc	r5, [pc], #-3840	; c8 <_start-0x7f38>
  c4:	6f685f6d 	svcvs	0x00685f6d
  c8:	2f007275 	svccs	0x00007275
  cc:	656d6f68 	strbvs	r6, [sp, #-3944]!	; 0xfffff098
  d0:	6573752f 	ldrbvs	r7, [r3, #-1327]!	; 0xfffffad1
  d4:	65442f72 	strbvs	r2, [r4, #-3954]	; 0xfffff08e
  d8:	53432f76 	movtpl	r2, #16246	; 0x3f76
  dc:	58303432 	ldmdapl	r0!, {r1, r4, r5, sl, ip, sp}
  e0:	62616c2f 	rsbvs	r6, r1, #12032	; 0x2f00
  e4:	30312f73 	eorscc	r2, r1, r3, ror pc
  e8:	6d656d2d 	stclvs	13, cr6, [r5, #-180]!	; 0xffffff4c
  ec:	63656863 	cmnvs	r5, #6488064	; 0x630000
  f0:	74732d6b 	ldrbtvc	r2, [r3], #-3435	; 0xfffff295
  f4:	632f7461 			; <UNDEFINED> instruction: 0x632f7461
  f8:	0065646f 	rsbeq	r6, r5, pc, ror #8
  fc:	66735f5f 	uhsaxvs	r5, r3, pc	; <UNPREDICTABLE>
 100:	6e6f5f00 	cdpvs	15, 6, cr5, cr15, cr0, {0}
 104:	6978655f 	ldmdbvs	r8!, {r0, r1, r2, r3, r4, r6, r8, sl, sp, lr}^
 108:	72615f74 	rsbvc	r5, r1, #116, 30	; 0x1d0
 10c:	5f007367 	svcpl	0x00007367
 110:	6b6f6f63 	blvs	1bdbea4 <__bss_end__+0x1bd1e44>
 114:	5f006569 	svcpl	0x00006569
 118:	6c67735f 	stclvs	3, cr7, [r7], #-380	; 0xfffffe84
 11c:	5f006575 	svcpl	0x00006575
 120:	67616c66 	strbvs	r6, [r1, -r6, ror #24]!
 124:	695f0073 	ldmdbvs	pc, {r0, r1, r4, r5, r6}^	; <UNPREDICTABLE>
 128:	78635f73 	stmdavc	r3!, {r0, r1, r4, r5, r6, r8, r9, sl, fp, ip, lr}^
 12c:	735f0061 	cmpvc	pc, #97	; 0x61
 130:	6e696474 	mcrvs	4, 3, r6, cr9, cr4, {3}
 134:	5f6b6300 	svcpl	0x006b6300
 138:	74696e69 	strbtvc	r6, [r9], #-3689	; 0xfffff197
 13c:	6c625f00 	stclvs	15, cr5, [r2], #-0
 140:	7a69736b 	bvc	1a5cef4 <__bss_end__+0x1a52e94>
 144:	635f0065 	cmpvs	pc, #101	; 0x65
 148:	75627476 	strbvc	r7, [r2, #-1142]!	; 0xfffffb8a
 14c:	6f5f0066 	svcvs	0x005f0066
 150:	65736666 	ldrbvs	r6, [r3, #-1638]!	; 0xfffff99a
 154:	6d6b0074 	stclvs	0, cr0, [fp, #-464]!	; 0xfffffe30
 158:	6f6c6c61 	svcvs	0x006c6c61
 15c:	6e695f63 	cdpvs	15, 6, cr5, cr9, cr3, {3}
 160:	735f7469 	cmpvc	pc, #1761607680	; 0x69000000
 164:	735f7465 	cmpvc	pc, #1694498816	; 0x65000000
 168:	74726174 	ldrbtvc	r6, [r2], #-372	; 0xfffffe8c
 16c:	626d5f00 	rsbvs	r5, sp, #0, 30
 170:	6f747273 	svcvs	0x00747273
 174:	5f736377 	svcpl	0x00736377
 178:	74617473 	strbtvc	r7, [r1], #-1139	; 0xfffffb8d
 17c:	6d5f0065 	ldclvs	0, cr0, [pc, #-404]	; fffffff0 <__bss_end__+0xffff5f90>
 180:	656c7262 	strbvs	r7, [ip, #-610]!	; 0xfffffd9e
 184:	74735f6e 	ldrbtvc	r5, [r3], #-3950	; 0xfffff092
 188:	00657461 	rsbeq	r7, r5, r1, ror #8
 18c:	616e665f 	cmnvs	lr, pc, asr r6
 190:	00736772 	rsbseq	r6, r3, r2, ror r7
 194:	736e665f 	cmnvc	lr, #99614720	; 0x5f00000
 198:	69735f00 	ldmdbvs	r3!, {r8, r9, sl, fp, ip, lr}^
 19c:	5f006e67 	svcpl	0x00006e67
 1a0:	636f6c66 	cmnvs	pc, #26112	; 0x6600
 1a4:	00745f6b 	rsbseq	r5, r4, fp, ror #30
 1a8:	6474735f 	ldrbtvs	r7, [r4], #-863	; 0xfffffca1
 1ac:	00727265 	rsbseq	r7, r2, r5, ror #4
 1b0:	6769425f 			; <UNDEFINED> instruction: 0x6769425f
 1b4:	00746e69 	rsbseq	r6, r4, r9, ror #28
 1b8:	6d61675f 	stclvs	7, cr6, [r1, #-380]!	; 0xfffffe84
 1bc:	735f616d 	cmpvc	pc, #1073741851	; 0x4000001b
 1c0:	676e6769 	strbvs	r6, [lr, -r9, ror #14]!
 1c4:	5f006d61 	svcpl	0x00006d61
 1c8:	75736572 	ldrbvc	r6, [r3, #-1394]!	; 0xfffffa8e
 1cc:	6b5f746c 	blvs	17dd384 <__bss_end__+0x17d3324>
 1d0:	69707200 	ldmdbvs	r0!, {r9, ip, sp, lr}^
 1d4:	7475705f 	ldrbtvc	r7, [r5], #-95	; 0xffffffa1
 1d8:	72616863 	rsbvc	r6, r1, #6488064	; 0x630000
 1dc:	745f5f00 	ldrbvc	r5, [pc], #-3840	; 1e4 <_start-0x7e1c>
 1e0:	5f5f006d 	svcpl	0x005f006d
 1e4:	62686377 	rsbvs	r6, r8, #-603979775	; 0xdc000001
 1e8:	69707200 	ldmdbvs	r0!, {r9, ip, sp, lr}^
 1ec:	7365725f 	cmnvc	r5, #-268435451	; 0xf0000005
 1f0:	705f7465 	subsvc	r7, pc, r5, ror #8
 1f4:	00637475 	rsbeq	r7, r3, r5, ror r4
 1f8:	6474735f 	ldrbtvs	r7, [r4], #-863	; 0xfffffca1
 1fc:	0074756f 	rsbseq	r7, r4, pc, ror #10
 200:	7476635f 	ldrbtvc	r6, [r6], #-863	; 0xfffffca1
 204:	006e656c 	rsbeq	r6, lr, ip, ror #10
 208:	6c69665f 	stclvs	6, cr6, [r9], #-380	; 0xfffffe84
 20c:	5f5f0065 	svcpl	0x005f0065
 210:	434e5546 	movtmi	r5, #58694	; 0xe546
 214:	4e4f4954 			; <UNDEFINED> instruction: 0x4e4f4954
 218:	5f005f5f 	svcpl	0x00005f5f
 21c:	626f696e 	rsbvs	r6, pc, #1802240	; 0x1b8000
 220:	68730073 	ldmdavs	r3!, {r0, r1, r4, r5, r6}^
 224:	2074726f 	rsbscs	r7, r4, pc, ror #4
 228:	69736e75 	ldmdbvs	r3!, {r0, r2, r4, r5, r6, r9, sl, fp, sp, lr}^
 22c:	64656e67 	strbtvs	r6, [r5], #-3687	; 0xfffff199
 230:	746e6920 	strbtvc	r6, [lr], #-2336	; 0xfffff6e0
 234:	74615f00 	strbtvc	r5, [r1], #-3840	; 0xfffff100
 238:	74697865 	strbtvc	r7, [r9], #-2149	; 0xfffff79b
 23c:	735f0030 	cmpvc	pc, #48	; 0x30
 240:	616e6769 	cmnvs	lr, r9, ror #14
 244:	75625f6c 	strbvc	r5, [r2, #-3948]!	; 0xfffff094
 248:	615f0066 	cmpvs	pc, r6, rrx
 24c:	69746373 	ldmdbvs	r4!, {r0, r1, r4, r5, r6, r8, r9, sp, lr}^
 250:	625f656d 	subsvs	r6, pc, #457179136	; 0x1b400000
 254:	5f006675 	svcpl	0x00006675
 258:	75736572 	ldrbvc	r6, [r3, #-1394]!	; 0xfffffa8e
 25c:	5f00746c 	svcpl	0x0000746c
 260:	6863775f 	stmdavs	r3!, {r0, r1, r2, r3, r4, r6, r8, r9, sl, ip, sp, lr}^
 264:	4f4c5f00 	svcmi	0x004c5f00
 268:	545f4b43 	ldrbpl	r4, [pc], #-2883	; 270 <_start-0x7d90>
 26c:	6e697700 	cdpvs	7, 6, cr7, cr9, cr0, {0}
 270:	00745f74 	rsbseq	r5, r4, r4, ror pc
 274:	72666b63 	rsbvc	r6, r6, #101376	; 0x18c00
 278:	5f006565 	svcpl	0x00006565
 27c:	67616c66 	strbvs	r6, [r1, -r6, ror #24]!
 280:	5f003273 	svcpl	0x00003273
 284:	5f6d745f 	svcpl	0x006d745f
 288:	72616579 	rsbvc	r6, r1, #507510784	; 0x1e400000
 28c:	656c6300 	strbvs	r6, [ip, #-768]!	; 0xfffffd00
 290:	725f6e61 	subsvc	r6, pc, #1552	; 0x610
 294:	6f6f6265 	svcvs	0x006f6265
 298:	6e5f0074 	mrcvs	0, 2, r0, cr15, cr4, {3}
 29c:	66747865 	ldrbtvs	r7, [r4], -r5, ror #16
 2a0:	745f5f00 	ldrbvc	r5, [pc], #-3840	; 2a8 <_start-0x7d58>
 2a4:	6f6d5f6d 	svcvs	0x006d5f6d
 2a8:	615f006e 	cmpvs	pc, lr, rrx
 2ac:	69786574 	ldmdbvs	r8!, {r2, r4, r5, r6, r8, sl, sp, lr}^
 2b0:	5f5f0074 	svcpl	0x005f0074
 2b4:	64696473 	strbtvs	r6, [r9], #-1139	; 0xfffffb8d
 2b8:	74696e69 	strbtvc	r6, [r9], #-3689	; 0xfffff197
 2bc:	666f5f00 	strbtvs	r5, [pc], -r0, lsl #30
 2c0:	00745f66 	rsbseq	r5, r4, r6, ror #30
 2c4:	6572665f 	ldrbvs	r6, [r2, #-1631]!	; 0xfffff9a1
 2c8:	73696c65 	cmnvc	r9, #25856	; 0x6500
 2cc:	775f0074 			; <UNDEFINED> instruction: 0x775f0074
 2d0:	6d6f7463 	cfstrdvs	mvd7, [pc, #-396]!	; 14c <_start-0x7eb4>
 2d4:	74735f62 	ldrbtvc	r5, [r3], #-3938	; 0xfffff09e
 2d8:	00657461 	rsbeq	r7, r5, r1, ror #8
 2dc:	69736e75 	ldmdbvs	r3!, {r0, r2, r4, r5, r6, r9, sl, fp, sp, lr}^
 2e0:	64656e67 	strbtvs	r6, [r5], #-3687	; 0xfffff199
 2e4:	61686320 	cmnvs	r8, r0, lsr #6
 2e8:	6e5f0072 	mrcvs	0, 2, r0, cr15, cr2, {3}
 2ec:	47007765 	strmi	r7, [r0, -r5, ror #14]
 2f0:	4320554e 			; <UNDEFINED> instruction: 0x4320554e
 2f4:	39203939 	stmdbcc	r0!, {r0, r3, r4, r5, r8, fp, ip, sp}
 2f8:	302e322e 	eorcc	r3, lr, lr, lsr #4
 2fc:	636d2d20 	cmnvs	sp, #32, 26	; 0x800
 300:	613d7570 	teqvs	sp, r0, ror r5
 304:	31316d72 	teqcc	r1, r2, ror sp
 308:	7a6a3637 	bvc	1a8dbec <__bss_end__+0x1a83b8c>
 30c:	20732d66 	rsbscs	r2, r3, r6, ror #26
 310:	75746d2d 	ldrbvc	r6, [r4, #-3373]!	; 0xfffff2d3
 314:	613d656e 	teqvs	sp, lr, ror #10
 318:	31316d72 	teqcc	r1, r2, ror sp
 31c:	7a6a3637 	bvc	1a8dc00 <__bss_end__+0x1a83ba0>
 320:	20732d66 	rsbscs	r2, r3, r6, ror #26
 324:	6c666d2d 	stclvs	13, cr6, [r6], #-180	; 0xffffff4c
 328:	2d74616f 	ldfcse	f6, [r4, #-444]!	; 0xfffffe44
 32c:	3d696261 	sfmcc	f6, 2, [r9, #-388]!	; 0xfffffe7c
 330:	74666f73 	strbtvc	r6, [r6], #-3955	; 0xfffff08d
 334:	616d2d20 	cmnvs	sp, r0, lsr #26
 338:	2d206d72 	stccs	13, cr6, [r0, #-456]!	; 0xfffffe38
 33c:	6372616d 	cmnvs	r2, #1073741851	; 0x4000001b
 340:	72613d68 	rsbvc	r3, r1, #104, 26	; 0x1a00
 344:	6b36766d 	blvs	d9dd00 <__bss_end__+0xd93ca0>
 348:	672d207a 			; <UNDEFINED> instruction: 0x672d207a
 34c:	20626467 	rsbcs	r6, r2, r7, ror #8
 350:	20674f2d 	rsbcs	r4, r7, sp, lsr #30
 354:	6474732d 	ldrbtvs	r7, [r4], #-813	; 0xfffffcd3
 358:	756e673d 	strbvc	r6, [lr, #-1853]!	; 0xfffff8c3
 35c:	2d203939 			; <UNDEFINED> instruction: 0x2d203939
 360:	65726666 	ldrbvs	r6, [r2, #-1638]!	; 0xfffff99a
 364:	61747365 	cmnvs	r4, r5, ror #6
 368:	6e69646e 	cdpvs	4, 6, cr6, cr9, cr14, {3}
 36c:	685f0067 	ldmdavs	pc, {r0, r1, r2, r5, r6}^	; <UNPREDICTABLE>
 370:	7272655f 	rsbsvc	r6, r2, #398458880	; 0x17c00000
 374:	73006f6e 	movwvc	r6, #3950	; 0xf6e
 378:	74726f68 	ldrbtvc	r6, [r2], #-3944	; 0xfffff098
 37c:	746e6920 	strbtvc	r6, [lr], #-2336	; 0xfffff6e0
 380:	72617000 	rsbvc	r7, r1, #0
 384:	742d3174 	strtvc	r3, [sp], #-372	; 0xfffffe8c
 388:	35747365 	ldrbcc	r7, [r4, #-869]!	; 0xfffffc9b
 38c:	5f00632e 	svcpl	0x0000632e
 390:	7562735f 	strbvc	r7, [r2, #-863]!	; 0xfffffca1
 394:	695f0066 	ldmdbvs	pc, {r1, r2, r5, r6}^	; <UNPREDICTABLE>
 398:	0073626f 	rsbseq	r6, r3, pc, ror #4
 39c:	49465f5f 	stmdbmi	r6, {r0, r1, r2, r3, r4, r6, r8, r9, sl, fp, ip, lr}^
 3a0:	5f00454c 	svcpl	0x0000454c
 3a4:	7473626d 	ldrbtvc	r6, [r3], #-621	; 0xfffffd93
 3a8:	5f657461 	svcpl	0x00657461
 3ac:	5f5f0074 	svcpl	0x005f0074
 3b0:	4c494673 	mcrrmi	6, 7, r4, r9, cr3
 3b4:	6d5f0045 	ldclvs	0, cr0, [pc, #-276]	; 2a8 <_start-0x7d58>
 3b8:	61747362 	cmnvs	r4, r2, ror #6
 3bc:	5f006574 	svcpl	0x00006574
 3c0:	646e6172 	strbtvs	r6, [lr], #-370	; 0xfffffe8e
 3c4:	78656e5f 	stmdavc	r5!, {r0, r1, r2, r3, r4, r6, r9, sl, fp, sp, lr}^
 3c8:	6d5f0074 	ldclvs	0, cr0, [pc, #-464]	; 200 <_start-0x7e00>
 3cc:	6e656c62 	cdpvs	12, 6, cr6, cr5, cr2, {3}
 3d0:	6174735f 	cmnvs	r4, pc, asr r3
 3d4:	5f006574 	svcpl	0x00006574
 3d8:	00636e69 	rsbeq	r6, r3, r9, ror #28
 3dc:	646e695f 	strbtvs	r6, [lr], #-2399	; 0xfffff6a1
 3e0:	635f5f00 	cmpvs	pc, #0, 30
 3e4:	6e61656c 	cdpvs	5, 6, cr6, cr1, cr12, {3}
 3e8:	5f007075 	svcpl	0x00007075
 3ec:	70736e75 	rsbsvc	r6, r3, r5, ror lr
 3f0:	66696365 	strbtvs	r6, [r9], -r5, ror #6
 3f4:	5f646569 	svcpl	0x00646569
 3f8:	61636f6c 	cmnvs	r3, ip, ror #30
 3fc:	695f656c 	ldmdbvs	pc, {r2, r3, r5, r6, r8, sl, sp, lr}^	; <UNPREDICTABLE>
 400:	006f666e 	rsbeq	r6, pc, lr, ror #12
 404:	78616d5f 	stmdavc	r1!, {r0, r1, r2, r3, r4, r6, r8, sl, fp, sp, lr}^
 408:	00736477 	rsbseq	r6, r3, r7, ror r4
 40c:	6565725f 	strbvs	r7, [r5, #-607]!	; 0xfffffda1
 410:	5f00746e 	svcpl	0x0000746e
 414:	64656573 	strbtvs	r6, [r5], #-1395	; 0xfffffa8d
 418:	635f5f00 	cmpvs	pc, #0, 30
 41c:	746e756f 	strbtvc	r7, [lr], #-1391	; 0xfffffa91
 420:	6c5f5f00 	mrrcvs	15, 0, r5, pc, cr0	; <UNPREDICTABLE>
 424:	006b636f 	rsbeq	r6, fp, pc, ror #6
 428:	61765f5f 	cmnvs	r6, pc, asr pc
 42c:	0065756c 	rsbeq	r7, r5, ip, ror #10
 430:	6565735f 	strbvs	r7, [r5, #-863]!	; 0xfffffca1
 434:	665f006b 	ldrbvs	r0, [pc], -fp, rrx
 438:	5f736f70 	svcpl	0x00736f70
 43c:	5f5f0074 	svcpl	0x005f0074
 440:	6d5f6d74 	ldclvs	13, cr6, [pc, #-464]	; 278 <_start-0x7d88>
 444:	5f006e69 	svcpl	0x00006e69
 448:	746c756d 	strbtvc	r7, [ip], #-1389	; 0xfffffa93
 44c:	74735f00 	ldrbtvc	r5, [r3], #-3840	; 0xfffff100
 450:	6b6f7472 	blvs	1bdd620 <__bss_end__+0x1bd35c0>
 454:	73616c5f 	cmnvc	r1, #24320	; 0x5f00
 458:	665f0074 			; <UNDEFINED> instruction: 0x665f0074
 45c:	7079746e 	rsbsvc	r7, r9, lr, ror #8
 460:	5f007365 	svcpl	0x00007365
 464:	00646461 	rsbeq	r6, r4, r1, ror #8
 468:	4c555f5f 	mrrcmi	15, 5, r5, r5, cr15	; <UNPREDICTABLE>
 46c:	00676e6f 	rsbeq	r6, r7, pc, ror #28
 470:	7465675f 	strbtvc	r6, [r5], #-1887	; 0xfffff8a1
 474:	65746164 	ldrbvs	r6, [r4, #-356]!	; 0xfffffe9c
 478:	7272655f 	rsbsvc	r6, r2, #398458880	; 0x17c00000
 47c:	6c675f00 	stclvs	15, cr5, [r7], #-0
 480:	6c61626f 	sfmvs	f6, 2, [r1], #-444	; 0xfffffe44
 484:	706d695f 	rsbvc	r6, sp, pc, asr r9
 488:	5f657275 	svcpl	0x00657275
 48c:	00727470 	rsbseq	r7, r2, r0, ror r4
 490:	5f697072 	svcpl	0x00697072
 494:	646e6172 	strbtvs	r6, [lr], #-370	; 0xfffffe8e
 498:	5f003233 	svcpl	0x00003233
 49c:	73756e75 	cmnvc	r5, #1872	; 0x750
 4a0:	725f6465 	subsvc	r6, pc, #1694498816	; 0x65000000
 4a4:	00646e61 	rsbeq	r6, r4, r1, ror #28
 4a8:	7364775f 	cmnvc	r4, #24903680	; 0x17c0000
 4ac:	745f5f00 	ldrbvc	r5, [pc], #-3840	; 4b4 <_start-0x7b4c>
 4b0:	64775f6d 	ldrbtvs	r5, [r7], #-3949	; 0xfffff093
 4b4:	5f007961 	svcpl	0x00007961
 4b8:	65756c67 	ldrbvs	r6, [r5, #-3175]!	; 0xfffff399
 4bc:	6d6e5f00 	stclvs	15, cr5, [lr, #-0]
 4c0:	6f6c6c61 	svcvs	0x006c6c61
 4c4:	6c5f0063 	mrrcvs	0, 6, r0, pc, cr3	; <UNPREDICTABLE>
 4c8:	5f613436 	svcpl	0x00613436
 4cc:	00667562 	rsbeq	r7, r6, r2, ror #10
 4d0:	6769735f 			; <UNDEFINED> instruction: 0x6769735f
 4d4:	6e75665f 	mrcvs	6, 3, r6, cr5, cr15, {2}
 4d8:	6d6b0063 	stclvs	0, cr0, [fp, #-396]!	; 0xfffffe74
 4dc:	6f6c6c61 	svcvs	0x006c6c61
 4e0:	6e5f0063 	cdpvs	0, 5, cr0, cr15, cr3, {3}
 4e4:	00667562 	rsbeq	r7, r6, r2, ror #10
 4e8:	756e755f 	strbvc	r7, [lr, #-1375]!	; 0xfffffaa1
 4ec:	00646573 	rsbeq	r6, r4, r3, ror r5
 4f0:	6d745f5f 	ldclvs	15, cr5, [r4, #-380]!	; 0xfffffe84
 4f4:	6473695f 	ldrbtvs	r6, [r3], #-2399	; 0xfffff6a1
 4f8:	5f007473 	svcpl	0x00007473
 4fc:	61636f6c 	cmnvs	r3, ip, ror #30
 500:	6d69746c 	cfstrdvs	mvd7, [r9, #-432]!	; 0xfffffe50
 504:	75625f65 	strbvc	r5, [r2, #-3941]!	; 0xfffff09b
 508:	635f0066 	cmpvs	pc, #102	; 0x66
 50c:	65736f6c 	ldrbvs	r6, [r3, #-3948]!	; 0xfffff094
 510:	34725f00 	ldrbtcc	r5, [r2], #-3840	; 0xfffff100
 514:	6d5f0038 	ldclvs	0, cr0, [pc, #-224]	; 43c <_start-0x7bc4>
 518:	776f7462 	strbvc	r7, [pc, -r2, ror #8]!
 51c:	74735f63 	ldrbtvc	r5, [r3], #-3939	; 0xfffff09d
 520:	00657461 	rsbeq	r7, r5, r1, ror #8
 524:	7335705f 	teqvc	r5, #95	; 0x5f
 528:	745f5f00 	ldrbvc	r5, [pc], #-3840	; 530 <_start-0x7ad0>
 52c:	64795f6d 	ldrbtvs	r5, [r9], #-3949	; 0xfffff093
 530:	5f007961 	svcpl	0x00007961
 534:	5f6d745f 	svcpl	0x006d745f
 538:	7961646d 	stmdbvc	r1!, {r0, r2, r3, r5, r6, sl, sp, lr}^
 53c:	64617000 	strbtvs	r7, [r1], #-0
 540:	676e6964 	strbvs	r6, [lr, -r4, ror #18]!
 544:	6e696c00 	cdpvs	12, 6, cr6, cr9, cr0, {0}
 548:	006f6e65 	rsbeq	r6, pc, r5, ror #28
 54c:	76657270 			; <UNDEFINED> instruction: 0x76657270
 550:	73616600 	cmnvc	r1, #0, 12
 554:	61685f74 	smcvs	34292	; 0x85f4
 558:	66006873 			; <UNDEFINED> instruction: 0x66006873
 55c:	5f656572 	svcpl	0x00656572
 560:	00636f6c 	rsbeq	r6, r3, ip, ror #30
 564:	7a725f62 	bvc	1c982f4 <__bss_end__+0x1c8e294>
 568:	74705f31 	ldrbtvc	r5, [r0], #-3889	; 0xfffff0cf
 56c:	52460072 	subpl	r0, r6, #114	; 0x72
 570:	00444545 	subeq	r4, r4, r5, asr #10
 574:	4f4c4c41 	svcmi	0x004c4c41
 578:	00444543 	subeq	r4, r4, r3, asr #10
 57c:	73666572 	cmnvc	r6, #478150656	; 0x1c800000
 580:	64696d5f 	strbtvs	r6, [r9], #-3423	; 0xfffff2a1
 584:	00656c64 	rsbeq	r6, r5, r4, ror #24
 588:	73666572 	cmnvc	r6, #478150656	; 0x1c800000
 58c:	6174735f 	cmnvs	r4, pc, asr r3
 590:	61007472 	tstvs	r0, r2, ror r4
 594:	636f6c6c 	cmnvs	pc, #108, 24	; 0x6c00
 598:	4f006465 	svcmi	0x00006465
 59c:	48524556 	ldmdami	r2, {r1, r2, r4, r6, r8, sl, lr}^
 5a0:	5f444145 	svcpl	0x00444145
 5a4:	5459424e 	ldrbpl	r4, [r9], #-590	; 0xfffffdb2
 5a8:	52005345 	andpl	r5, r0, #335544321	; 0x14000001
 5ac:	4f5a4445 	svcmi	0x005a4445
 5b0:	4100454e 	tstmi	r0, lr, asr #10
 5b4:	434f4c4c 	movtmi	r4, #64588	; 0xfc4c
 5b8:	46464f5f 			; <UNDEFINED> instruction: 0x46464f5f
 5bc:	00544553 	subseq	r4, r4, r3, asr r5
 5c0:	6b72616d 	blvs	1c98b7c <__bss_end__+0x1c8eb1c>
 5c4:	6d656d5f 	stclvs	13, cr6, [r5, #-380]!	; 0xfffffe84
 5c8:	615f6200 	cmpvs	pc, r0, lsl #4
 5cc:	5f726464 	svcpl	0x00726464
 5d0:	685f6f74 	ldmdavs	pc, {r2, r4, r5, r6, r8, r9, sl, fp, sp, lr}^	; <UNPREDICTABLE>
 5d4:	63007264 	movwvs	r7, #612	; 0x264
 5d8:	6c6c616b 	stfvse	f6, [ip], #-428	; 0xfffffe54
 5dc:	632e636f 			; <UNDEFINED> instruction: 0x632e636f
 5e0:	66666f00 	strbtvs	r6, [r6], -r0, lsl #30
 5e4:	6c610073 	stclvs	0, cr0, [r1], #-460	; 0xfffffe34
 5e8:	5f636f6c 	svcpl	0x00636f6c
 5ec:	00636f6c 	rsbeq	r6, r3, ip, ror #30
 5f0:	5f726468 	svcpl	0x00726468
 5f4:	75736b63 	ldrbvc	r6, [r3, #-2915]!	; 0xfffff49d
 5f8:	626e006d 	rsbvs	r0, lr, #109	; 0x6d
 5fc:	73657479 	cmnvc	r5, #2030043136	; 0x79000000
 600:	6c6c615f 	stfvse	f6, [ip], #-380	; 0xfffffe84
 604:	6200636f 	andvs	r6, r0, #-1140850687	; 0xbc000001
 608:	6c6c615f 	stfvse	f6, [ip], #-380	; 0xfffffe84
 60c:	705f636f 	subsvc	r6, pc, pc, ror #6
 610:	63007274 	movwvs	r7, #628	; 0x274
 614:	6b636568 	blvs	18d9bbc <__bss_end__+0x18cfb5c>
 618:	6572665f 	ldrbvs	r6, [r2, #-1631]!	; 0xfffff9a1
 61c:	72775f65 	rsbsvc	r5, r7, #404	; 0x194
 620:	00657469 	rsbeq	r7, r5, r9, ror #8
 624:	63656863 	cmnvs	r5, #6488064	; 0x630000
 628:	64685f6b 	strbtvs	r5, [r8], #-3947	; 0xfffff095
 62c:	5f620072 	svcpl	0x00620072
 630:	5f327a72 	svcpl	0x00327a72
 634:	00727470 	rsbseq	r7, r2, r0, ror r4
 638:	6b6c626e 	blvs	1b18ff8 <__bss_end__+0x1b0ef98>
 63c:	72730073 	rsbsvc	r0, r3, #115	; 0x73
 640:	6f6c5f63 	svcvs	0x006c5f63
 644:	00745f63 	rsbseq	r5, r4, r3, ror #30
 648:	746e6975 	strbtvc	r6, [lr], #-2421	; 0xfffff68b
 64c:	745f3233 	ldrbvc	r3, [pc], #-563	; 654 <_start-0x79ac>
 650:	72656e00 	rsbvc	r6, r5, #0, 28
 654:	73726f72 	cmnvc	r2, #456	; 0x1c8
 658:	72646800 	rsbvc	r6, r4, #0, 16
 65c:	6972705f 	ldmdbvs	r2!, {r0, r1, r2, r3, r4, r6, ip, sp, lr}^
 660:	6800746e 	stmdavs	r0, {r1, r2, r3, r5, r6, sl, ip, sp, lr}
 664:	00706165 	rsbseq	r6, r0, r5, ror #2
 668:	544e4553 	strbpl	r4, [lr], #-1363	; 0xfffffaad
 66c:	4c414e49 	mcrrmi	14, 4, r4, r1, cr9
 670:	65686300 	strbvs	r6, [r8, #-768]!	; 0xfffffd00
 674:	625f6b63 	subsvs	r6, pc, #101376	; 0x18c00
 678:	6b636f6c 	blvs	18dc430 <__bss_end__+0x18d23d0>
 67c:	6d656d00 	stclvs	13, cr6, [r5, #-0]
 680:	00746573 	rsbseq	r6, r4, r3, ror r5
 684:	7a725f62 	bvc	1c98414 <__bss_end__+0x1c8e3b4>
 688:	626e5f32 	rsbvs	r5, lr, #50, 30	; 0xc8
 68c:	73657479 	cmnvc	r5, #2030043136	; 0x79000000
 690:	6e697500 	cdpvs	5, 6, cr7, cr9, cr0, {0}
 694:	745f3874 	ldrbvc	r3, [pc], #-2164	; 69c <_start-0x7964>
 698:	72646800 	rsbvc	r6, r4, #0, 16
 69c:	6e00745f 	cfmvsrvs	mvf0, r7
 6a0:	65747962 	ldrbvs	r7, [r4, #-2402]!	; 0xfffff69e
 6a4:	65725f73 	ldrbvs	r5, [r2, #-3955]!	; 0xfffff08d
 6a8:	656c006d 	strbvs	r0, [ip, #-109]!	; 0xffffff93
 6ac:	63007466 	movwvs	r7, #1126	; 0x466
 6b0:	6b636568 	blvs	18d9c58 <__bss_end__+0x18cfbf8>
 6b4:	6d656d5f 	stclvs	13, cr6, [r5, #-380]!	; 0xfffffe84
 6b8:	61656800 	cmnvs	r5, r0, lsl #16
 6bc:	00726564 	rsbseq	r6, r2, r4, ror #10
 6c0:	6362696c 	cmnvs	r2, #108, 18	; 0x1b0000
 6c4:	7361682f 	cmnvc	r1, #3080192	; 0x2f0000
 6c8:	00632e68 	rsbeq	r2, r3, r8, ror #28
 6cc:	6d6f682f 	stclvs	8, cr6, [pc, #-188]!	; 618 <_start-0x79e8>
 6d0:	73752f65 	cmnvc	r5, #404	; 0x194
 6d4:	442f7265 	strtmi	r7, [pc], #-613	; 6dc <_start-0x7924>
 6d8:	432f7665 			; <UNDEFINED> instruction: 0x432f7665
 6dc:	30343253 	eorscc	r3, r4, r3, asr r2
 6e0:	696c2f58 	stmdbvs	ip!, {r3, r4, r6, r8, r9, sl, fp, sp}^
 6e4:	00697062 	rsbeq	r7, r9, r2, rrx
 6e8:	657a6973 	ldrbvs	r6, [sl, #-2419]!	; 0xfffff68d
 6ec:	6c00745f 	cfstrsvs	mvf7, [r0], {95}	; 0x5f
 6f0:	2f636269 	svccs	0x00636269
 6f4:	736d656d 	cmnvc	sp, #457179136	; 0x1b400000
 6f8:	632e7465 			; <UNDEFINED> instruction: 0x632e7465
 6fc:	765f5f00 	ldrbvc	r5, [pc], -r0, lsl #30
 700:	696c5f61 	stmdbvs	ip!, {r0, r5, r6, r8, r9, sl, fp, ip, lr}^
 704:	76007473 			; <UNDEFINED> instruction: 0x76007473
 708:	72705f61 	rsbsvc	r5, r0, #388	; 0x184
 70c:	6b746e69 	blvs	1d1c0b8 <__bss_end__+0x1d12058>
 710:	675f5f00 	ldrbvs	r5, [pc, -r0, lsl #30]
 714:	5f63756e 	svcpl	0x0063756e
 718:	6c5f6176 	ldfvse	f6, [pc], {118}	; 0x76
 71c:	00747369 	rsbseq	r7, r4, r9, ror #6
 720:	70615f5f 	rsbvc	r5, r1, pc, asr pc
 724:	62696c00 	rsbvs	r6, r9, #0, 24
 728:	72702f63 	rsbsvc	r2, r0, #396	; 0x18c
 72c:	6b746e69 	blvs	1d1c0d8 <__bss_end__+0x1d12078>
 730:	7200632e 	andvc	r6, r0, #-1207959552	; 0xb8000000
 734:	735f6970 	cmpvc	pc, #112, 18	; 0x1c0000
 738:	705f7465 	subsvc	r7, pc, r5, ror #8
 73c:	00637475 	rsbeq	r7, r3, r5, ror r4
 740:	74726175 	ldrbtvc	r6, [r2], #-373	; 0xfffffe8b
 744:	7475705f 	ldrbtvc	r7, [r5], #-95	; 0xffffffa1
 748:	6e690063 	cdpvs	0, 6, cr0, cr9, cr3, {3}
 74c:	6e726574 	mrcvs	5, 3, r6, cr2, cr4, {3}
 750:	705f6c61 	subsvc	r6, pc, r1, ror #24
 754:	68637475 	stmdavs	r3!, {r0, r2, r4, r5, r6, sl, ip, sp, lr}^
 758:	6c007261 	sfmvs	f7, 4, [r0], {97}	; 0x61
 75c:	2f636269 	svccs	0x00636269
 760:	63747570 	cmnvs	r4, #112, 10	; 0x1c000000
 764:	2e726168 	rpwcssz	f6, f2, #0.0
 768:	6e690063 	cdpvs	0, 6, cr0, cr9, cr3, {3}
 76c:	6e726574 	mrcvs	5, 3, r6, cr2, cr4, {3}
 770:	705f6c61 	subsvc	r6, pc, r1, ror #24
 774:	006b7475 	rsbeq	r7, fp, r5, ror r4
 778:	6362696c 	cmnvs	r2, #108, 18	; 0x1b0000
 77c:	7475702f 	ldrbtvc	r7, [r5], #-47	; 0xffffffd1
 780:	00632e6b 	rsbeq	r2, r3, fp, ror #28
 784:	5f697072 	svcpl	0x00697072
 788:	65736572 	ldrbvs	r6, [r3, #-1394]!	; 0xfffffa8e
 78c:	666c0074 			; <UNDEFINED> instruction: 0x666c0074
 790:	72007273 	andvc	r7, r0, #805306375	; 0x30000007
 794:	725f6970 	subsvc	r6, pc, #112, 18	; 0x1c0000
 798:	31646e61 	cmncc	r4, r1, ror #28
 79c:	696c0036 	stmdbvs	ip!, {r1, r2, r4, r5}^
 7a0:	722f6362 	eorvc	r6, pc, #-2013265919	; 0x88000001
 7a4:	722d6970 	eorvc	r6, sp, #112, 18	; 0x1c0000
 7a8:	2e646e61 	cdpcs	14, 6, cr6, cr4, cr1, {3}
 7ac:	696c0063 	stmdbvs	ip!, {r0, r1, r5, r6}^
 7b0:	762f6362 	strtvc	r6, [pc], -r2, ror #6
 7b4:	72702d61 	rsbsvc	r2, r0, #6208	; 0x1840
 7b8:	6b746e69 	blvs	1d1c164 <__bss_end__+0x1d12104>
 7bc:	7200632e 	andvc	r6, r0, #-1207959552	; 0xb8000000
 7c0:	735f6970 	cmpvc	pc, #112, 18	; 0x1c0000
 7c4:	6f5f7465 	svcvs	0x005f7465
 7c8:	75707475 	ldrbvc	r7, [r0, #-1141]!	; 0xfffffb8b
 7cc:	69730074 	ldmdbvs	r3!, {r2, r4, r5, r6}^
 7d0:	64656e67 	strbtvs	r6, [r5], #-3687	; 0xfffff199
 7d4:	7200705f 	andvc	r7, r0, #95	; 0x5f
 7d8:	72657665 	rsbvc	r7, r5, #105906176	; 0x6500000
 7dc:	77006573 	smlsdxvc	r0, r3, r5, r6
 7e0:	68746469 	ldmdavs	r4!, {r0, r3, r5, r6, sl, sp, lr}^
 7e4:	74757000 	ldrbtvc	r7, [r5], #-0
 7e8:	70665f73 	rsbvc	r5, r6, r3, ror pc
 7ec:	67656e00 	strbvs	r6, [r5, -r0, lsl #28]!
 7f0:	7000705f 	andvc	r7, r0, pc, asr r0
 7f4:	5f637475 	svcpl	0x00637475
 7f8:	69007066 	stmdbvs	r0, {r1, r2, r5, r6, ip, sp, lr}
 7fc:	67696473 			; <UNDEFINED> instruction: 0x67696473
 800:	65007469 	strvs	r7, [r0, #-1129]	; 0xfffffb97
 804:	0074696d 	rsbseq	r6, r4, sp, ror #18
 808:	66617473 			; <UNDEFINED> instruction: 0x66617473
 80c:	72732d66 	rsbsvc	r2, r3, #6528	; 0x1980
 810:	6c632f63 	stclvs	15, cr2, [r3], #-396	; 0xfffffe74
 814:	2d6e6165 	stfcse	f6, [lr, #-404]!	; 0xfffffe6c
 818:	6f626572 	svcvs	0x00626572
 81c:	632e746f 			; <UNDEFINED> instruction: 0x632e746f
 820:	6c656400 	cfstrdvs	mvd6, [r5], #-0
 824:	6d5f7961 	vldrvs.16	s15, [pc, #-194]	; 76a <_start-0x7896>	; <UNPREDICTABLE>
 828:	70720073 	rsbsvc	r0, r2, r3, ror r0
 82c:	65725f69 	ldrbvs	r5, [r2, #-3945]!	; 0xfffff097
 830:	746f6f62 	strbtvc	r6, [pc], #-3938	; 838 <_start-0x77c8>
 834:	61747300 	cmnvs	r4, r0, lsl #6
 838:	732d6666 			; <UNDEFINED> instruction: 0x732d6666
 83c:	632f6372 			; <UNDEFINED> instruction: 0x632f6372
 840:	72617473 	rsbvc	r7, r1, #1929379840	; 0x73000000
 844:	00632e74 	rsbeq	r2, r3, r4, ror lr
 848:	7473635f 	ldrbtvc	r6, [r3], #-863	; 0xfffffca1
 84c:	00747261 	rsbseq	r7, r4, r1, ror #4
 850:	5f737362 	svcpl	0x00737362
 854:	00646e65 	rsbeq	r6, r4, r5, ror #28
 858:	73625f5f 	cmnvc	r2, #380	; 0x17c
 85c:	74735f73 	ldrbtvc	r5, [r3], #-3955	; 0xfffff08d
 860:	5f747261 	svcpl	0x00747261
 864:	5f5f005f 	svcpl	0x005f005f
 868:	5f737362 	svcpl	0x00737362
 86c:	5f646e65 	svcpl	0x00646e65
 870:	4d50005f 	ldclmi	0, cr0, [r0, #-380]	; 0xfffffe84
 874:	5453525f 	ldrbpl	r5, [r3], #-607	; 0xfffffda1
 878:	55500043 	ldrbpl	r0, [r0, #-67]	; 0xffffffbd
 87c:	00323354 	eorseq	r3, r2, r4, asr r3
 880:	525f4d50 	subspl	r4, pc, #80, 26	; 0x1400
 884:	5f435453 	svcpl	0x00435453
 888:	46435257 			; <UNDEFINED> instruction: 0x46435257
 88c:	55465f47 	strbpl	r5, [r6, #-3911]	; 0xfffff0b9
 890:	525f4c4c 	subspl	r4, pc, #76, 24	; 0x4c00
 894:	54455345 	strbpl	r5, [r5], #-837	; 0xfffffcbb
 898:	5f4d5000 	svcpl	0x004d5000
 89c:	474f4457 	smlsldmi	r4, pc, r7, r4	; <UNPREDICTABLE>
 8a0:	73706300 	cmnvc	r0, #0, 6
 8a4:	4d500072 	ldclmi	0, cr0, [r0, #-456]	; 0xfffffe38
 8a8:	5341505f 	movtpl	r5, #4191	; 0x105f
 8ac:	524f5753 	subpl	r5, pc, #21757952	; 0x14c0000
 8b0:	74730044 	ldrbtvc	r0, [r3], #-68	; 0xffffffbc
 8b4:	2d666661 	stclcs	6, cr6, [r6, #-388]!	; 0xfffffe7c
 8b8:	2f637273 	svccs	0x00637273
 8bc:	6f626572 	svcvs	0x00626572
 8c0:	632e746f 			; <UNDEFINED> instruction: 0x632e746f
 8c4:	74657300 	strbtvc	r7, [r5], #-768	; 0xfffffd00
 8c8:	6573755f 	ldrbvs	r7, [r3, #-1375]!	; 0xfffffaa1
 8cc:	656c5f72 	strbvs	r5, [ip, #-3954]!	; 0xfffff08e
 8d0:	006c6576 	rsbeq	r6, ip, r6, ror r5
 8d4:	755f7461 	ldrbvc	r7, [pc, #-1121]	; 47b <_start-0x7b85>
 8d8:	5f726573 	svcpl	0x00726573
 8dc:	6576656c 	ldrbvs	r6, [r6, #-1388]!	; 0xfffffa94
 8e0:	6974006c 	ldmdbvs	r4!, {r2, r3, r5, r6}^
 8e4:	5f72656d 	svcpl	0x0072656d
 8e8:	5f746567 	svcpl	0x00746567
 8ec:	63657375 	cmnvs	r5, #-738197503	; 0xd4000001
 8f0:	6c656400 	cfstrdvs	mvd6, [r5], #-0
 8f4:	735f7961 	cmpvc	pc, #1589248	; 0x184000
 8f8:	64006365 	strvs	r6, [r0], #-869	; 0xfffffc9b
 8fc:	79616c65 	stmdbvc	r1!, {r0, r2, r5, r6, sl, fp, sp, lr}^
 900:	6379635f 	cmnvs	r9, #2080374785	; 0x7c000001
 904:	0073656c 	rsbseq	r6, r3, ip, ror #10
 908:	66617473 			; <UNDEFINED> instruction: 0x66617473
 90c:	72732d66 	rsbsvc	r2, r3, #6528	; 0x1980
 910:	69742f63 	ldmdbvs	r4!, {r0, r1, r5, r6, r8, r9, sl, fp, sp}^
 914:	2e72656d 	cdpcs	5, 7, cr6, cr2, cr13, {3}
 918:	69740063 	ldmdbvs	r4!, {r0, r1, r5, r6}^
 91c:	00736b63 	rsbseq	r6, r3, r3, ror #22
 920:	33544547 	cmpcc	r4, #297795584	; 0x11c00000
 924:	69740032 	ldmdbvs	r4!, {r1, r4, r5}^
 928:	5f72656d 	svcpl	0x0072656d
 92c:	5f746567 	svcpl	0x00746567
 930:	63657375 	cmnvs	r5, #-738197503	; 0xd4000001
 934:	7761725f 			; <UNDEFINED> instruction: 0x7761725f
 938:	6c656400 	cfstrdvs	mvd6, [r5], #-0
 93c:	755f7961 	ldrbvc	r7, [pc, #-2401]	; ffffffe3 <__bss_end__+0xffff5f83>
 940:	61750073 	cmnvs	r5, r3, ror r0
 944:	695f7472 	ldmdbvs	pc, {r1, r4, r5, r6, sl, ip, sp, lr}^	; <UNPREDICTABLE>
 948:	0074696e 	rsbseq	r6, r4, lr, ror #18
 94c:	4f495047 	svcmi	0x00495047
 950:	4e55465f 	mrcmi	6, 2, r4, cr5, cr15, {2}
 954:	4e495f43 	cdpmi	15, 4, cr5, cr9, cr3, {2}
 958:	00545550 	subseq	r5, r4, r0, asr r5
 95c:	74617473 	strbtvc	r7, [r1], #-1139	; 0xfffffb8d
 960:	49504700 	ldmdbmi	r0, {r8, r9, sl, lr}^
 964:	55465f4f 	strbpl	r5, [r6, #-3919]	; 0xfffff0b1
 968:	415f434e 	cmpmi	pc, lr, asr #6
 96c:	0031544c 	eorseq	r5, r1, ip, asr #8
 970:	6c746e63 	ldclvs	14, cr6, [r4], #-396	; 0xfffffe74
 974:	72617500 	rsbvc	r7, r1, #0, 10
 978:	00632e74 	rsbeq	r2, r3, r4, ror lr
 97c:	5f787561 	svcpl	0x00787561
 980:	69726570 	ldmdbvs	r2!, {r4, r5, r6, r8, sl, sp, lr}^
 984:	00736870 	rsbseq	r6, r3, r0, ror r8
 988:	6d6f682f 	stclvs	8, cr6, [pc, #-188]!	; 8d4 <_start-0x772c>
 98c:	6e652f65 	cdpvs	15, 6, cr2, cr5, cr5, {3}
 990:	72656c67 	rsbvc	r6, r5, #26368	; 0x6700
 994:	616c632f 	cmnvs	ip, pc, lsr #6
 998:	632f7373 			; <UNDEFINED> instruction: 0x632f7373
 99c:	30343273 	eorscc	r3, r4, r3, ror r2
 9a0:	322d786c 	eorcc	r7, sp, #108, 16	; 0x6c0000
 9a4:	72707330 	rsbsvc	r7, r0, #48, 6	; 0xc0000000
 9a8:	62696c2f 	rsbvs	r6, r9, #12032	; 0x2f00
 9ac:	732f6970 			; <UNDEFINED> instruction: 0x732f6970
 9b0:	66666174 			; <UNDEFINED> instruction: 0x66666174
 9b4:	6972702d 	ldmdbvs	r2!, {r0, r2, r3, r5, ip, sp, lr}^
 9b8:	65746176 	ldrbvs	r6, [r4, #-374]!	; 0xfffffe8a
 9bc:	78756100 	ldmdavc	r5!, {r8, sp, lr}^
 9c0:	616e655f 	cmnvs	lr, pc, asr r5
 9c4:	73656c62 	cmnvc	r5, #25088	; 0x6200
 9c8:	72617500 	rsbvc	r7, r1, #0, 10
 9cc:	61635f74 	smcvs	13812	; 0x35f4
 9d0:	75705f6e 	ldrbvc	r5, [r0, #-3950]!	; 0xfffff092
 9d4:	75006374 	strvc	r6, [r0, #-884]	; 0xfffffc8c
 9d8:	5f747261 	svcpl	0x00747261
 9dc:	63746567 	cmnvs	r4, #432013312	; 0x19c00000
 9e0:	76656400 	strbtvc	r6, [r5], -r0, lsl #8
 9e4:	7261625f 	rsbvc	r6, r1, #-268435451	; 0xf0000005
 9e8:	72656972 	rsbvc	r6, r5, #1867776	; 0x1c8000
 9ec:	49504700 	ldmdbmi	r0, {r8, r9, sl, lr}^
 9f0:	55465f4f 	strbpl	r5, [r6, #-3919]	; 0xfffff0b1
 9f4:	415f434e 	cmpmi	pc, lr, asr #6
 9f8:	0032544c 	eorseq	r5, r2, ip, asr #8
 9fc:	657a6973 	ldrbvs	r6, [sl, #-2419]!	; 0xfffff68d
 a00:	65707974 	ldrbvs	r7, [r0, #-2420]!	; 0xfffff68c
 a04:	69706700 	ldmdbvs	r0!, {r8, r9, sl, sp, lr}^
 a08:	65735f6f 	ldrbvs	r5, [r3, #-3951]!	; 0xfffff091
 a0c:	75665f74 	strbvc	r5, [r6, #-3956]!	; 0xfffff08c
 a10:	6974636e 	ldmdbvs	r4!, {r1, r2, r3, r5, r6, r8, r9, sp, lr}^
 a14:	75006e6f 	strvc	r6, [r0, #-3695]	; 0xfffff191
 a18:	00747261 	rsbseq	r7, r4, r1, ror #4
 a1c:	434f4c5f 	movtmi	r4, #64607	; 0xfc5f
 a20:	45525f4b 	ldrbmi	r5, [r2, #-3915]	; 0xfffff0b5
 a24:	53525543 	cmppl	r2, #281018368	; 0x10c00000
 a28:	5f455649 	svcpl	0x00455649
 a2c:	635f0054 	cmpvs	pc, #84	; 0x54
 a30:	65727275 	ldrbvs	r7, [r2, #-629]!	; 0xfffffd8b
 a34:	6c5f746e 	cfldrdvs	mvd7, [pc], {110}	; 0x6e
 a38:	6c61636f 	stclvs	3, cr6, [r1], #-444	; 0xfffffe44
 a3c:	61620065 	cmnvs	r2, r5, rrx
 a40:	73006475 	movwvc	r6, #1141	; 0x475
 a44:	74617263 	strbtvc	r7, [r1], #-611	; 0xfffffd9d
 a48:	70006863 	andvc	r6, r0, r3, ror #16
 a4c:	32337475 	eorscc	r7, r3, #1962934272	; 0x75000000
 a50:	554e4700 	strbpl	r4, [lr, #-1792]	; 0xfffff900
 a54:	39394320 	ldmdbcc	r9!, {r5, r8, r9, lr}
 a58:	332e3620 			; <UNDEFINED> instruction: 0x332e3620
 a5c:	3220312e 	eorcc	r3, r0, #-2147483637	; 0x8000000b
 a60:	30373130 	eorscc	r3, r7, r0, lsr r1
 a64:	20303236 	eorscs	r3, r0, r6, lsr r2
 a68:	70636d2d 	rsbvc	r6, r3, sp, lsr #26
 a6c:	72613d75 	rsbvc	r3, r1, #7488	; 0x1d40
 a70:	3731316d 	ldrcc	r3, [r1, -sp, ror #2]!
 a74:	667a6a36 			; <UNDEFINED> instruction: 0x667a6a36
 a78:	2d20732d 	stccs	3, cr7, [r0, #-180]!	; 0xffffff4c
 a7c:	6e75746d 	cdpvs	4, 7, cr7, cr5, cr13, {3}
 a80:	72613d65 	rsbvc	r3, r1, #6464	; 0x1940
 a84:	3731316d 	ldrcc	r3, [r1, -sp, ror #2]!
 a88:	667a6a36 			; <UNDEFINED> instruction: 0x667a6a36
 a8c:	2d20732d 	stccs	3, cr7, [r0, #-180]!	; 0xffffff4c
 a90:	62646767 	rsbvs	r6, r4, #27000832	; 0x19c0000
 a94:	674f2d20 	strbvs	r2, [pc, -r0, lsr #26]
 a98:	74732d20 	ldrbtvc	r2, [r3], #-3360	; 0xfffff2e0
 a9c:	6e673d64 	cdpvs	13, 6, cr3, cr7, cr4, {3}
 aa0:	20393975 	eorscs	r3, r9, r5, ror r9
 aa4:	7266662d 	rsbvc	r6, r6, #47185920	; 0x2d00000
 aa8:	74736565 	ldrbtvc	r6, [r3], #-1381	; 0xfffffa9b
 aac:	69646e61 	stmdbvs	r4!, {r0, r5, r6, r9, sl, fp, sp, lr}^
 ab0:	5f00676e 	svcpl	0x0000676e
 ab4:	72727563 	rsbsvc	r7, r2, #415236096	; 0x18c00000
 ab8:	5f746e65 	svcpl	0x00746e65
 abc:	65746163 	ldrbvs	r6, [r4, #-355]!	; 0xfffffe9d
 ac0:	79726f67 	ldmdbvc	r2!, {r0, r1, r2, r5, r6, r8, r9, sl, fp, sp, lr}^
 ac4:	49504700 	ldmdbmi	r0, {r8, r9, sl, lr}^
 ac8:	55465f4f 	strbpl	r5, [r6, #-3919]	; 0xfffff0b1
 acc:	4f5f434e 	svcmi	0x005f434e
 ad0:	55505455 	ldrbpl	r5, [r0, #-1109]	; 0xfffffbab
 ad4:	65670054 	strbvs	r0, [r7, #-84]!	; 0xffffffac
 ad8:	00323374 	eorseq	r3, r2, r4, ror r3
 adc:	74726175 	ldrbtvc	r6, [r2], #-373	; 0xfffffe8b
 ae0:	6e61635f 	mcrvs	3, 3, r6, cr1, cr15, {2}
 ae4:	7465675f 	strbtvc	r6, [r5], #-1887	; 0xfffff8a1
 ae8:	726f0063 	rsbvc	r0, pc, #99	; 0x63
 aec:	336e695f 	cmncc	lr, #1556480	; 0x17c000
 af0:	61750032 	cmnvs	r5, r2, lsr r0
 af4:	685f7472 	ldmdavs	pc, {r1, r4, r5, r6, sl, ip, sp, lr}^	; <UNPREDICTABLE>
 af8:	645f7361 	ldrbvs	r7, [pc], #-865	; b00 <_start-0x7500>
 afc:	00617461 	rsbeq	r7, r1, r1, ror #8
 b00:	4f495047 	svcmi	0x00495047
 b04:	4e55465f 	mrcmi	6, 2, r4, cr5, cr15, {2}
 b08:	4c415f43 	mcrrmi	15, 4, r5, r1, cr3
 b0c:	47003054 	smlsdmi	r0, r4, r0, r3
 b10:	5f4f4950 	svcpl	0x004f4950
 b14:	434e5546 	movtmi	r5, #58694	; 0xe546
 b18:	544c415f 	strbpl	r4, [ip], #-351	; 0xfffffea1
 b1c:	50470033 	subpl	r0, r7, r3, lsr r0
 b20:	465f4f49 	ldrbmi	r4, [pc], -r9, asr #30
 b24:	5f434e55 	svcpl	0x00434e55
 b28:	34544c41 	ldrbcc	r4, [r4], #-3137	; 0xfffff3bf
 b2c:	49504700 	ldmdbmi	r0, {r8, r9, sl, lr}^
 b30:	55465f4f 	strbpl	r5, [r6, #-3919]	; 0xfffff0b1
 b34:	415f434e 	cmpmi	pc, lr, asr #6
 b38:	0035544c 	eorseq	r5, r5, ip, asr #8
 b3c:	6f697067 	svcvs	0x00697067
 b40:	7465735f 	strbtvc	r7, [r5], #-863	; 0xfffffca1
 b44:	66666f5f 	uqsaxvs	r6, r6, pc	; <UNPREDICTABLE>
 b48:	6e616200 	cdpvs	2, 6, cr6, cr1, cr0, {0}
 b4c:	7067006b 	rsbvc	r0, r7, fp, rrx
 b50:	632e6f69 			; <UNDEFINED> instruction: 0x632e6f69
 b54:	69706700 	ldmdbvs	r0!, {r8, r9, sl, sp, lr}^
 b58:	65725f6f 	ldrbvs	r5, [r2, #-3951]!	; 0xfffff091
 b5c:	67006461 	strvs	r6, [r0, -r1, ror #8]
 b60:	5f6f6970 	svcpl	0x006f6970
 b64:	5f746573 	svcpl	0x00746573
 b68:	7074756f 	rsbsvc	r7, r4, pc, ror #10
 b6c:	67007475 	smlsdxvs	r0, r5, r4, r7
 b70:	5f6f6970 	svcpl	0x006f6970
 b74:	74697277 	strbtvc	r7, [r9], #-631	; 0xfffffd89
 b78:	70670065 	rsbvc	r0, r7, r5, rrx
 b7c:	735f6f69 	cmpvc	pc, #420	; 0x1a4
 b80:	00307465 	eorseq	r7, r0, r5, ror #8
 b84:	6f697067 	svcvs	0x00697067
 b88:	76656c5f 			; <UNDEFINED> instruction: 0x76656c5f
 b8c:	70670030 	rsbvc	r0, r7, r0, lsr r0
 b90:	735f6f69 	cmpvc	pc, #420	; 0x1a4
 b94:	695f7465 	ldmdbvs	pc, {r0, r2, r5, r6, sl, ip, sp, lr}^	; <UNPREDICTABLE>
 b98:	7475706e 	ldrbtvc	r7, [r5], #-110	; 0xffffff92
 b9c:	69706700 	ldmdbvs	r0!, {r8, r9, sl, sp, lr}^
 ba0:	65735f6f 	ldrbvs	r5, [r3, #-3951]!	; 0xfffff091
 ba4:	6e6f5f74 	mcrvs	15, 3, r5, cr15, cr4, {3}
 ba8:	69706700 	ldmdbvs	r0!, {r8, r9, sl, sp, lr}^
 bac:	75665f6f 	strbvc	r5, [r6, #-3951]!	; 0xfffff091
 bb0:	745f636e 	ldrbvc	r6, [pc], #-878	; bb8 <_start-0x7448>
 bb4:	69706700 	ldmdbvs	r0!, {r8, r9, sl, sp, lr}^
 bb8:	6c635f6f 	stclvs	15, cr5, [r3], #-444	; 0xfffffe44
 bbc:	6b003072 	blvs	cd8c <__bss_end__+0x2d2c>
 bc0:	6c6c616d 	stfvse	f6, [ip], #-436	; 0xfffffe4c
 bc4:	632e636f 			; <UNDEFINED> instruction: 0x632e636f
 bc8:	616d6b00 	cmnvs	sp, r0, lsl #22
 bcc:	636f6c6c 	cmnvs	pc, #108, 24	; 0x6c00
 bd0:	696e695f 	stmdbvs	lr!, {r0, r1, r2, r3, r4, r6, r8, fp, sp, lr}^
 bd4:	6d6b0074 	stclvs	0, cr0, [fp, #-464]!	; 0xfffffe30
 bd8:	6f6c6c61 	svcvs	0x006c6c61
 bdc:	6c615f63 	stclvs	15, cr5, [r1], #-396	; 0xfffffe74
 be0:	656e6769 	strbvs	r6, [lr, #-1897]!	; 0xfffff897
 be4:	6f640064 	svcvs	0x00640064
 be8:	656c6275 	strbvs	r6, [ip, #-629]!	; 0xfffffd8b
 bec:	72666b00 	rsbvc	r6, r6, #0, 22
 bf0:	615f6565 	cmpvs	pc, r5, ror #10
 bf4:	6b006c6c 	blvs	1bdac <__bss_end__+0x11d4c>
 bf8:	65657266 	strbvs	r7, [r5, #-614]!	; 0xfffffd9a
 bfc:	7466615f 	strbtvc	r6, [r6], #-351	; 0xfffffea1
 c00:	6b007265 	blvs	1d59c <__bss_end__+0x1353c>
 c04:	6c6c616d 	stfvse	f6, [ip], #-436	; 0xfffffe4c
 c08:	685f636f 	ldmdavs	pc, {r0, r1, r2, r3, r5, r6, r8, r9, sp, lr}^	; <UNPREDICTABLE>
 c0c:	5f706165 	svcpl	0x00706165
 c10:	00727470 	rsbseq	r7, r2, r0, ror r4
 c14:	67696c61 	strbvs	r6, [r9, -r1, ror #24]!
 c18:	6e656d6e 	cdpvs	13, 6, cr6, cr5, cr14, {3}
 c1c:	5f5f0074 	svcpl	0x005f0074
 c20:	70616568 	rsbvc	r6, r1, r8, ror #10
 c24:	6174735f 	cmnvs	r4, pc, asr r3
 c28:	5f5f7472 	svcpl	0x005f7472
 c2c:	616d6b00 	cmnvs	sp, r0, lsl #22
 c30:	636f6c6c 	cmnvs	pc, #108, 24	; 0x6c00
 c34:	6165685f 	cmnvs	r5, pc, asr r8
 c38:	74735f70 	ldrbtvc	r5, [r3], #-3952	; 0xfffff090
 c3c:	00747261 	rsbseq	r7, r4, r1, ror #4
 c40:	6464615f 	strbtvs	r6, [r4], #-351	; 0xfffffea1
 c44:	6d6b0072 	stclvs	0, cr0, [fp, #-456]!	; 0xfffffe38
 c48:	6f6c6c61 	svcvs	0x006c6c61
 c4c:	65685f63 	strbvs	r5, [r8, #-3939]!	; 0xfffff09d
 c50:	655f7061 	ldrbvs	r7, [pc, #-97]	; bf7 <_start-0x7409>
 c54:	Address 0x0000000000000c54 is out of bounds.


Disassembly of section .debug_frame:

00000000 <.debug_frame>:
   0:	0000000c 	andeq	r0, r0, ip
   4:	ffffffff 			; <UNDEFINED> instruction: 0xffffffff
   8:	7c020001 	stcvc	0, cr0, [r2], {1}
   c:	000d0c0e 	andeq	r0, sp, lr, lsl #24
  10:	0000001c 	andeq	r0, r0, ip, lsl r0
  14:	00000000 	andeq	r0, r0, r0
  18:	00008010 	andeq	r8, r0, r0, lsl r0
  1c:	000000e8 	andeq	r0, r0, r8, ror #1
  20:	84180e42 	ldrhi	r0, [r8], #-3650	; 0xfffff1be
  24:	86058506 	strhi	r8, [r5], -r6, lsl #10
  28:	88038704 	stmdahi	r3, {r2, r8, r9, sl, pc}
  2c:	00018e02 	andeq	r8, r1, r2, lsl #28
  30:	0000000c 	andeq	r0, r0, ip
  34:	ffffffff 			; <UNDEFINED> instruction: 0xffffffff
  38:	7c020001 	stcvc	0, cr0, [r2], {1}
  3c:	000d0c0e 	andeq	r0, sp, lr, lsl #24
  40:	0000000c 	andeq	r0, r0, ip
  44:	00000030 	andeq	r0, r0, r0, lsr r0
  48:	000080f8 	strdeq	r8, [r0], -r8	; <UNPREDICTABLE>
  4c:	00000008 	andeq	r0, r0, r8
  50:	00000014 	andeq	r0, r0, r4, lsl r0
  54:	00000030 	andeq	r0, r0, r0, lsr r0
  58:	00008100 	andeq	r8, r0, r0, lsl #2
  5c:	00000010 	andeq	r0, r0, r0, lsl r0
  60:	84080e42 	strhi	r0, [r8], #-3650	; 0xfffff1be
  64:	00018e02 	andeq	r8, r1, r2, lsl #28
  68:	00000014 	andeq	r0, r0, r4, lsl r0
  6c:	00000030 	andeq	r0, r0, r0, lsr r0
  70:	00008110 	andeq	r8, r0, r0, lsl r1
  74:	00000018 	andeq	r0, r0, r8, lsl r0
  78:	84080e42 	strhi	r0, [r8], #-3650	; 0xfffff1be
  7c:	00018e02 	andeq	r8, r1, r2, lsl #28
  80:	0000000c 	andeq	r0, r0, ip
  84:	00000030 	andeq	r0, r0, r0, lsr r0
  88:	00008128 	andeq	r8, r0, r8, lsr #2
  8c:	0000000c 	andeq	r0, r0, ip
  90:	0000000c 	andeq	r0, r0, ip
  94:	00000030 	andeq	r0, r0, r0, lsr r0
  98:	00008134 	andeq	r8, r0, r4, lsr r1
  9c:	00000008 	andeq	r0, r0, r8
  a0:	0000001c 	andeq	r0, r0, ip, lsl r0
  a4:	00000030 	andeq	r0, r0, r0, lsr r0
  a8:	0000813c 	andeq	r8, r0, ip, lsr r1
  ac:	0000010c 	andeq	r0, r0, ip, lsl #2
  b0:	84180e42 	ldrhi	r0, [r8], #-3650	; 0xfffff1be
  b4:	86058506 	strhi	r8, [r5], -r6, lsl #10
  b8:	88038704 	stmdahi	r3, {r2, r8, r9, sl, pc}
  bc:	00018e02 	andeq	r8, r1, r2, lsl #28
  c0:	00000014 	andeq	r0, r0, r4, lsl r0
  c4:	00000030 	andeq	r0, r0, r0, lsr r0
  c8:	00008248 	andeq	r8, r0, r8, asr #4
  cc:	00000014 	andeq	r0, r0, r4, lsl r0
  d0:	84080e42 	strhi	r0, [r8], #-3650	; 0xfffff1be
  d4:	00018e02 	andeq	r8, r1, r2, lsl #28
  d8:	00000018 	andeq	r0, r0, r8, lsl r0
  dc:	00000030 	andeq	r0, r0, r0, lsr r0
  e0:	0000825c 	andeq	r8, r0, ip, asr r2
  e4:	00000024 	andeq	r0, r0, r4, lsr #32
  e8:	84100e42 	ldrhi	r0, [r0], #-3650	; 0xfffff1be
  ec:	86038504 	strhi	r8, [r3], -r4, lsl #10
  f0:	00018e02 	andeq	r8, r1, r2, lsl #28
  f4:	00000018 	andeq	r0, r0, r8, lsl r0
  f8:	00000030 	andeq	r0, r0, r0, lsr r0
  fc:	00008280 	andeq	r8, r0, r0, lsl #5
 100:	000000e8 	andeq	r0, r0, r8, ror #1
 104:	84100e42 	ldrhi	r0, [r0], #-3650	; 0xfffff1be
 108:	86038504 	strhi	r8, [r3], -r4, lsl #10
 10c:	00018e02 	andeq	r8, r1, r2, lsl #28
 110:	0000001c 	andeq	r0, r0, ip, lsl r0
 114:	00000030 	andeq	r0, r0, r0, lsr r0
 118:	00008368 	andeq	r8, r0, r8, ror #6
 11c:	000000fc 	strdeq	r0, [r0], -ip
 120:	84180e42 	ldrhi	r0, [r8], #-3650	; 0xfffff1be
 124:	86058506 	strhi	r8, [r5], -r6, lsl #10
 128:	88038704 	stmdahi	r3, {r2, r8, r9, sl, pc}
 12c:	00018e02 	andeq	r8, r1, r2, lsl #28
 130:	00000018 	andeq	r0, r0, r8, lsl r0
 134:	00000030 	andeq	r0, r0, r0, lsr r0
 138:	00008464 	andeq	r8, r0, r4, ror #8
 13c:	00000064 	andeq	r0, r0, r4, rrx
 140:	84100e42 	ldrhi	r0, [r0], #-3650	; 0xfffff1be
 144:	86038504 	strhi	r8, [r3], -r4, lsl #10
 148:	00018e02 	andeq	r8, r1, r2, lsl #28
 14c:	00000018 	andeq	r0, r0, r8, lsl r0
 150:	00000030 	andeq	r0, r0, r0, lsr r0
 154:	000084c8 	andeq	r8, r0, r8, asr #9
 158:	00000074 	andeq	r0, r0, r4, ror r0
 15c:	84100e42 	ldrhi	r0, [r0], #-3650	; 0xfffff1be
 160:	86038504 	strhi	r8, [r3], -r4, lsl #10
 164:	00018e02 	andeq	r8, r1, r2, lsl #28
 168:	0000001c 	andeq	r0, r0, ip, lsl r0
 16c:	00000030 	andeq	r0, r0, r0, lsr r0
 170:	0000853c 	andeq	r8, r0, ip, lsr r5
 174:	000000b8 	strheq	r0, [r0], -r8
 178:	84180e42 	ldrhi	r0, [r8], #-3650	; 0xfffff1be
 17c:	86058506 	strhi	r8, [r5], -r6, lsl #10
 180:	88038704 	stmdahi	r3, {r2, r8, r9, sl, pc}
 184:	00018e02 	andeq	r8, r1, r2, lsl #28
 188:	00000028 	andeq	r0, r0, r8, lsr #32
 18c:	00000030 	andeq	r0, r0, r0, lsr r0
 190:	000085f4 	strdeq	r8, [r0], -r4
 194:	0000021c 	andeq	r0, r0, ip, lsl r2
 198:	841c0e42 	ldrhi	r0, [ip], #-3650	; 0xfffff1be
 19c:	86068507 	strhi	r8, [r6], -r7, lsl #10
 1a0:	88048705 	stmdahi	r4, {r0, r2, r8, r9, sl, pc}
 1a4:	8e028903 	vmlahi.f16	s16, s4, s6	; <UNPREDICTABLE>
 1a8:	280e4201 	stmdacs	lr, {r0, r9, lr}
 1ac:	0e0a8e02 	cdpeq	14, 0, cr8, cr10, cr2, {0}
 1b0:	000b421c 	andeq	r4, fp, ip, lsl r2
 1b4:	0000001c 	andeq	r0, r0, ip, lsl r0
 1b8:	00000030 	andeq	r0, r0, r0, lsr r0
 1bc:	00008810 	andeq	r8, r0, r0, lsl r8
 1c0:	00000150 	andeq	r0, r0, r0, asr r1
 1c4:	84180e42 	ldrhi	r0, [r8], #-3650	; 0xfffff1be
 1c8:	86058506 	strhi	r8, [r5], -r6, lsl #10
 1cc:	88038704 	stmdahi	r3, {r2, r8, r9, sl, pc}
 1d0:	00018e02 	andeq	r8, r1, r2, lsl #28
 1d4:	0000000c 	andeq	r0, r0, ip
 1d8:	ffffffff 			; <UNDEFINED> instruction: 0xffffffff
 1dc:	7c020001 	stcvc	0, cr0, [r2], {1}
 1e0:	000d0c0e 	andeq	r0, sp, lr, lsl #24
 1e4:	00000018 	andeq	r0, r0, r8, lsl r0
 1e8:	000001d4 	ldrdeq	r0, [r0], -r4
 1ec:	00008960 	andeq	r8, r0, r0, ror #18
 1f0:	000000ec 	andeq	r0, r0, ip, ror #1
 1f4:	8e040e48 	cdphi	14, 0, cr0, cr4, cr8, {2}
 1f8:	0e6a0201 	cdpeq	2, 6, cr0, cr10, cr1, {0}
 1fc:	0000ce00 	andeq	ip, r0, r0, lsl #28
 200:	0000000c 	andeq	r0, r0, ip
 204:	ffffffff 			; <UNDEFINED> instruction: 0xffffffff
 208:	7c020001 	stcvc	0, cr0, [r2], {1}
 20c:	000d0c0e 	andeq	r0, sp, lr, lsl #24
 210:	0000000c 	andeq	r0, r0, ip
 214:	00000200 	andeq	r0, r0, r0, lsl #4
 218:	00008a4c 	andeq	r8, r0, ip, asr #20
 21c:	00000018 	andeq	r0, r0, r8, lsl r0
 220:	0000000c 	andeq	r0, r0, ip
 224:	ffffffff 			; <UNDEFINED> instruction: 0xffffffff
 228:	7c020001 	stcvc	0, cr0, [r2], {1}
 22c:	000d0c0e 	andeq	r0, sp, lr, lsl #24
 230:	00000034 	andeq	r0, r0, r4, lsr r0
 234:	00000220 	andeq	r0, r0, r0, lsr #4
 238:	00008a64 	andeq	r8, r0, r4, ror #20
 23c:	00000058 	andeq	r0, r0, r8, asr r0
 240:	80100e42 	andshi	r0, r0, r2, asr #28
 244:	82038104 	andhi	r8, r3, #4, 2
 248:	42018302 	andmi	r8, r1, #134217728	; 0x8000000
 24c:	07841c0e 	streq	r1, [r4, lr, lsl #24]
 250:	058e0685 	streq	r0, [lr, #1669]	; 0x685
 254:	5c280e42 	stcpl	14, cr0, [r8], #-264	; 0xfffffef8
 258:	ce421c0e 	cdpgt	12, 4, cr1, cr2, cr14, {0}
 25c:	100ec4c5 	andne	ip, lr, r5, asr #9
 260:	c1c2c342 	bicgt	ip, r2, r2, asr #6
 264:	00000ec0 	andeq	r0, r0, r0, asr #29
 268:	0000000c 	andeq	r0, r0, ip
 26c:	ffffffff 			; <UNDEFINED> instruction: 0xffffffff
 270:	7c020001 	stcvc	0, cr0, [r2], {1}
 274:	000d0c0e 	andeq	r0, sp, lr, lsl #24
 278:	00000014 	andeq	r0, r0, r4, lsl r0
 27c:	00000268 	andeq	r0, r0, r8, ror #4
 280:	00008abc 			; <UNDEFINED> instruction: 0x00008abc
 284:	00000014 	andeq	r0, r0, r4, lsl r0
 288:	84080e42 	strhi	r0, [r8], #-3650	; 0xfffff1be
 28c:	00018e02 	andeq	r8, r1, r2, lsl #28
 290:	0000000c 	andeq	r0, r0, ip
 294:	00000268 	andeq	r0, r0, r8, ror #4
 298:	00008ad0 	ldrdeq	r8, [r0], -r0
 29c:	00000018 	andeq	r0, r0, r8, lsl r0
 2a0:	0000000c 	andeq	r0, r0, ip
 2a4:	00000268 	andeq	r0, r0, r8, ror #4
 2a8:	00008ae8 	andeq	r8, r0, r8, ror #21
 2ac:	00000010 	andeq	r0, r0, r0, lsl r0
 2b0:	0000000c 	andeq	r0, r0, ip
 2b4:	ffffffff 			; <UNDEFINED> instruction: 0xffffffff
 2b8:	7c020001 	stcvc	0, cr0, [r2], {1}
 2bc:	000d0c0e 	andeq	r0, sp, lr, lsl #24
 2c0:	00000014 	andeq	r0, r0, r4, lsl r0
 2c4:	000002b0 			; <UNDEFINED> instruction: 0x000002b0
 2c8:	00008af8 	strdeq	r8, [r0], -r8	; <UNPREDICTABLE>
 2cc:	00000034 	andeq	r0, r0, r4, lsr r0
 2d0:	84080e42 	strhi	r0, [r8], #-3650	; 0xfffff1be
 2d4:	00018e02 	andeq	r8, r1, r2, lsl #28
 2d8:	0000000c 	andeq	r0, r0, ip
 2dc:	ffffffff 			; <UNDEFINED> instruction: 0xffffffff
 2e0:	7c020001 	stcvc	0, cr0, [r2], {1}
 2e4:	000d0c0e 	andeq	r0, sp, lr, lsl #24
 2e8:	0000000c 	andeq	r0, r0, ip
 2ec:	000002d8 	ldrdeq	r0, [r0], -r8
 2f0:	00008b2c 	andeq	r8, r0, ip, lsr #22
 2f4:	0000002c 	andeq	r0, r0, ip, lsr #32
 2f8:	00000014 	andeq	r0, r0, r4, lsl r0
 2fc:	000002d8 	ldrdeq	r0, [r0], -r8
 300:	00008b58 	andeq	r8, r0, r8, asr fp
 304:	00000018 	andeq	r0, r0, r8, lsl r0
 308:	84080e42 	strhi	r0, [r8], #-3650	; 0xfffff1be
 30c:	00018e02 	andeq	r8, r1, r2, lsl #28
 310:	0000000c 	andeq	r0, r0, ip
 314:	000002d8 	ldrdeq	r0, [r0], -r8
 318:	00008b70 	andeq	r8, r0, r0, ror fp
 31c:	00000018 	andeq	r0, r0, r8, lsl r0
 320:	0000000c 	andeq	r0, r0, ip
 324:	ffffffff 			; <UNDEFINED> instruction: 0xffffffff
 328:	7c020001 	stcvc	0, cr0, [r2], {1}
 32c:	000d0c0e 	andeq	r0, sp, lr, lsl #24
 330:	0000000c 	andeq	r0, r0, ip
 334:	00000320 	andeq	r0, r0, r0, lsr #6
 338:	00008b88 	andeq	r8, r0, r8, lsl #23
 33c:	00000014 	andeq	r0, r0, r4, lsl r0
 340:	0000000c 	andeq	r0, r0, ip
 344:	00000320 	andeq	r0, r0, r0, lsr #6
 348:	00008b9c 	muleq	r0, ip, fp
 34c:	00000024 	andeq	r0, r0, r4, lsr #32
 350:	0000000c 	andeq	r0, r0, ip
 354:	00000320 	andeq	r0, r0, r0, lsr #6
 358:	00008bc0 	andeq	r8, r0, r0, asr #23
 35c:	00000038 	andeq	r0, r0, r8, lsr r0
 360:	00000024 	andeq	r0, r0, r4, lsr #32
 364:	00000320 	andeq	r0, r0, r0, lsr #6
 368:	00008bf8 	strdeq	r8, [r0], -r8	; <UNPREDICTABLE>
 36c:	000001ac 	andeq	r0, r0, ip, lsr #3
 370:	84140e42 	ldrhi	r0, [r4], #-3650	; 0xfffff1be
 374:	86048505 	strhi	r8, [r4], -r5, lsl #10
 378:	8e028703 	cdphi	7, 0, cr8, cr2, cr3, {0}
 37c:	580e4201 	stmdapl	lr, {r0, r9, lr}
 380:	0e0a9a02 	vmlaeq.f32	s18, s20, s4
 384:	000b4214 	andeq	r4, fp, r4, lsl r2
 388:	00000014 	andeq	r0, r0, r4, lsl r0
 38c:	00000320 	andeq	r0, r0, r0, lsr #6
 390:	00008da4 	andeq	r8, r0, r4, lsr #27
 394:	00000054 	andeq	r0, r0, r4, asr r0
 398:	84080e52 	strhi	r0, [r8], #-3666	; 0xfffff1ae
 39c:	00018e02 	andeq	r8, r1, r2, lsl #28
 3a0:	00000028 	andeq	r0, r0, r8, lsr #32
 3a4:	00000320 	andeq	r0, r0, r0, lsr #6
 3a8:	00008df8 	strdeq	r8, [r0], -r8	; <UNPREDICTABLE>
 3ac:	000002b0 			; <UNDEFINED> instruction: 0x000002b0
 3b0:	841c0e42 	ldrhi	r0, [ip], #-3650	; 0xfffff1be
 3b4:	86068507 	strhi	r8, [r6], -r7, lsl #10
 3b8:	88048705 	stmdahi	r4, {r0, r2, r8, r9, sl, pc}
 3bc:	8e028903 	vmlahi.f16	s16, s4, s6	; <UNPREDICTABLE>
 3c0:	b00e4201 	andlt	r4, lr, r1, lsl #4
 3c4:	01480301 	cmpeq	r8, r1, lsl #6
 3c8:	00001c0e 	andeq	r1, r0, lr, lsl #24
 3cc:	0000000c 	andeq	r0, r0, ip
 3d0:	ffffffff 			; <UNDEFINED> instruction: 0xffffffff
 3d4:	7c020001 	stcvc	0, cr0, [r2], {1}
 3d8:	000d0c0e 	andeq	r0, sp, lr, lsl #24
 3dc:	00000014 	andeq	r0, r0, r4, lsl r0
 3e0:	000003cc 	andeq	r0, r0, ip, asr #7
 3e4:	000090a8 	andeq	r9, r0, r8, lsr #1
 3e8:	00000028 	andeq	r0, r0, r8, lsr #32
 3ec:	84080e42 	strhi	r0, [r8], #-3650	; 0xfffff1be
 3f0:	00018e02 	andeq	r8, r1, r2, lsl #28
 3f4:	0000000c 	andeq	r0, r0, ip
 3f8:	ffffffff 			; <UNDEFINED> instruction: 0xffffffff
 3fc:	7c020001 	stcvc	0, cr0, [r2], {1}
 400:	000d0c0e 	andeq	r0, sp, lr, lsl #24
 404:	00000014 	andeq	r0, r0, r4, lsl r0
 408:	000003f4 	strdeq	r0, [r0], -r4
 40c:	000090d0 	ldrdeq	r9, [r0], -r0
 410:	0000002c 	andeq	r0, r0, ip, lsr #32
 414:	84080e42 	strhi	r0, [r8], #-3650	; 0xfffff1be
 418:	00018e02 	andeq	r8, r1, r2, lsl #28
 41c:	0000000c 	andeq	r0, r0, ip
 420:	ffffffff 			; <UNDEFINED> instruction: 0xffffffff
 424:	7c020001 	stcvc	0, cr0, [r2], {1}
 428:	000d0c0e 	andeq	r0, sp, lr, lsl #24
 42c:	0000000c 	andeq	r0, r0, ip
 430:	0000041c 	andeq	r0, r0, ip, lsl r4
 434:	000090fc 	strdeq	r9, [r0], -ip
 438:	00000018 	andeq	r0, r0, r8, lsl r0
 43c:	0000000c 	andeq	r0, r0, ip
 440:	0000041c 	andeq	r0, r0, ip, lsl r4
 444:	00009114 	andeq	r9, r0, r4, lsl r1
 448:	00000014 	andeq	r0, r0, r4, lsl r0
 44c:	00000014 	andeq	r0, r0, r4, lsl r0
 450:	0000041c 	andeq	r0, r0, ip, lsl r4
 454:	00009128 	andeq	r9, r0, r8, lsr #2
 458:	0000004c 	andeq	r0, r0, ip, asr #32
 45c:	84080e42 	strhi	r0, [r8], #-3650	; 0xfffff1be
 460:	00018e02 	andeq	r8, r1, r2, lsl #28
 464:	0000000c 	andeq	r0, r0, ip
 468:	ffffffff 			; <UNDEFINED> instruction: 0xffffffff
 46c:	7c020001 	stcvc	0, cr0, [r2], {1}
 470:	000d0c0e 	andeq	r0, sp, lr, lsl #24
 474:	0000000c 	andeq	r0, r0, ip
 478:	00000464 	andeq	r0, r0, r4, ror #8
 47c:	00009174 	andeq	r9, r0, r4, ror r1
 480:	00000018 	andeq	r0, r0, r8, lsl r0
 484:	00000014 	andeq	r0, r0, r4, lsl r0
 488:	00000464 	andeq	r0, r0, r4, ror #8
 48c:	0000918c 	andeq	r9, r0, ip, lsl #3
 490:	00000014 	andeq	r0, r0, r4, lsl r0
 494:	84080e42 	strhi	r0, [r8], #-3650	; 0xfffff1be
 498:	00018e02 	andeq	r8, r1, r2, lsl #28
 49c:	00000014 	andeq	r0, r0, r4, lsl r0
 4a0:	00000464 	andeq	r0, r0, r4, ror #8
 4a4:	000091a0 	andeq	r9, r0, r0, lsr #3
 4a8:	0000000c 	andeq	r0, r0, ip
 4ac:	84080e42 	strhi	r0, [r8], #-3650	; 0xfffff1be
 4b0:	00018e02 	andeq	r8, r1, r2, lsl #28
 4b4:	00000018 	andeq	r0, r0, r8, lsl r0
 4b8:	00000464 	andeq	r0, r0, r4, ror #8
 4bc:	000091ac 	andeq	r9, r0, ip, lsr #3
 4c0:	00000024 	andeq	r0, r0, r4, lsr #32
 4c4:	84100e42 	ldrhi	r0, [r0], #-3650	; 0xfffff1be
 4c8:	86038504 	strhi	r8, [r3], -r4, lsl #10
 4cc:	00018e02 	andeq	r8, r1, r2, lsl #28
 4d0:	00000014 	andeq	r0, r0, r4, lsl r0
 4d4:	00000464 	andeq	r0, r0, r4, ror #8
 4d8:	000091d0 	ldrdeq	r9, [r0], -r0
 4dc:	00000018 	andeq	r0, r0, r8, lsl r0
 4e0:	84080e42 	strhi	r0, [r8], #-3650	; 0xfffff1be
 4e4:	00018e02 	andeq	r8, r1, r2, lsl #28
 4e8:	00000014 	andeq	r0, r0, r4, lsl r0
 4ec:	00000464 	andeq	r0, r0, r4, ror #8
 4f0:	000091e8 	andeq	r9, r0, r8, ror #3
 4f4:	00000018 	andeq	r0, r0, r8, lsl r0
 4f8:	84080e42 	strhi	r0, [r8], #-3650	; 0xfffff1be
 4fc:	00018e02 	andeq	r8, r1, r2, lsl #28
 500:	0000000c 	andeq	r0, r0, ip
 504:	ffffffff 			; <UNDEFINED> instruction: 0xffffffff
 508:	7c020001 	stcvc	0, cr0, [r2], {1}
 50c:	000d0c0e 	andeq	r0, sp, lr, lsl #24
 510:	00000018 	andeq	r0, r0, r8, lsl r0
 514:	00000500 	andeq	r0, r0, r0, lsl #10
 518:	0000924c 	andeq	r9, r0, ip, asr #4
 51c:	00000020 	andeq	r0, r0, r0, lsr #32
 520:	84100e42 	ldrhi	r0, [r0], #-3650	; 0xfffff1be
 524:	86038504 	strhi	r8, [r3], -r4, lsl #10
 528:	00018e02 	andeq	r8, r1, r2, lsl #28
 52c:	00000014 	andeq	r0, r0, r4, lsl r0
 530:	00000500 	andeq	r0, r0, r0, lsl #10
 534:	0000926c 	andeq	r9, r0, ip, ror #4
 538:	000000b0 	strheq	r0, [r0], -r0	; <UNPREDICTABLE>
 53c:	84080e42 	strhi	r0, [r8], #-3650	; 0xfffff1be
 540:	00018e02 	andeq	r8, r1, r2, lsl #28
 544:	00000014 	andeq	r0, r0, r4, lsl r0
 548:	00000500 	andeq	r0, r0, r0, lsl #10
 54c:	0000931c 	andeq	r9, r0, ip, lsl r3
 550:	00000018 	andeq	r0, r0, r8, lsl r0
 554:	84080e42 	strhi	r0, [r8], #-3650	; 0xfffff1be
 558:	00018e02 	andeq	r8, r1, r2, lsl #28
 55c:	00000014 	andeq	r0, r0, r4, lsl r0
 560:	00000500 	andeq	r0, r0, r0, lsl #10
 564:	00009334 	andeq	r9, r0, r4, lsr r3
 568:	00000020 	andeq	r0, r0, r0, lsr #32
 56c:	84080e42 	strhi	r0, [r8], #-3650	; 0xfffff1be
 570:	00018e02 	andeq	r8, r1, r2, lsl #28
 574:	00000014 	andeq	r0, r0, r4, lsl r0
 578:	00000500 	andeq	r0, r0, r0, lsl #10
 57c:	00009354 	andeq	r9, r0, r4, asr r3
 580:	00000030 	andeq	r0, r0, r0, lsr r0
 584:	84080e42 	strhi	r0, [r8], #-3650	; 0xfffff1be
 588:	00018e02 	andeq	r8, r1, r2, lsl #28
 58c:	00000014 	andeq	r0, r0, r4, lsl r0
 590:	00000500 	andeq	r0, r0, r0, lsl #10
 594:	00009384 	andeq	r9, r0, r4, lsl #7
 598:	00000030 	andeq	r0, r0, r0, lsr r0
 59c:	84080e42 	strhi	r0, [r8], #-3650	; 0xfffff1be
 5a0:	00018e02 	andeq	r8, r1, r2, lsl #28
 5a4:	00000014 	andeq	r0, r0, r4, lsl r0
 5a8:	00000500 	andeq	r0, r0, r0, lsl #10
 5ac:	000093b4 			; <UNDEFINED> instruction: 0x000093b4
 5b0:	00000010 	andeq	r0, r0, r0, lsl r0
 5b4:	84080e42 	strhi	r0, [r8], #-3650	; 0xfffff1be
 5b8:	00018e02 	andeq	r8, r1, r2, lsl #28
 5bc:	0000000c 	andeq	r0, r0, ip
 5c0:	ffffffff 			; <UNDEFINED> instruction: 0xffffffff
 5c4:	7c020001 	stcvc	0, cr0, [r2], {1}
 5c8:	000d0c0e 	andeq	r0, sp, lr, lsl #24
 5cc:	00000018 	andeq	r0, r0, r8, lsl r0
 5d0:	000005bc 			; <UNDEFINED> instruction: 0x000005bc
 5d4:	000093c4 	andeq	r9, r0, r4, asr #7
 5d8:	00000068 	andeq	r0, r0, r8, rrx
 5dc:	84100e4a 	ldrhi	r0, [r0], #-3658	; 0xfffff1b6
 5e0:	86038504 	strhi	r8, [r3], -r4, lsl #10
 5e4:	00018e02 	andeq	r8, r1, r2, lsl #28
 5e8:	00000014 	andeq	r0, r0, r4, lsl r0
 5ec:	000005bc 			; <UNDEFINED> instruction: 0x000005bc
 5f0:	0000942c 	andeq	r9, r0, ip, lsr #8
 5f4:	00000010 	andeq	r0, r0, r0, lsl r0
 5f8:	84080e42 	strhi	r0, [r8], #-3650	; 0xfffff1be
 5fc:	00018e02 	andeq	r8, r1, r2, lsl #28
 600:	00000014 	andeq	r0, r0, r4, lsl r0
 604:	000005bc 			; <UNDEFINED> instruction: 0x000005bc
 608:	0000943c 	andeq	r9, r0, ip, lsr r4
 60c:	00000024 	andeq	r0, r0, r4, lsr #32
 610:	84080e46 	strhi	r0, [r8], #-3654	; 0xfffff1ba
 614:	00018e02 	andeq	r8, r1, r2, lsl #28
 618:	00000014 	andeq	r0, r0, r4, lsl r0
 61c:	000005bc 			; <UNDEFINED> instruction: 0x000005bc
 620:	00009460 	andeq	r9, r0, r0, ror #8
 624:	00000024 	andeq	r0, r0, r4, lsr #32
 628:	84080e46 	strhi	r0, [r8], #-3654	; 0xfffff1ba
 62c:	00018e02 	andeq	r8, r1, r2, lsl #28
 630:	00000014 	andeq	r0, r0, r4, lsl r0
 634:	000005bc 			; <UNDEFINED> instruction: 0x000005bc
 638:	00009484 	andeq	r9, r0, r4, lsl #9
 63c:	00000010 	andeq	r0, r0, r0, lsl r0
 640:	84080e42 	strhi	r0, [r8], #-3650	; 0xfffff1be
 644:	00018e02 	andeq	r8, r1, r2, lsl #28
 648:	00000014 	andeq	r0, r0, r4, lsl r0
 64c:	000005bc 			; <UNDEFINED> instruction: 0x000005bc
 650:	00009494 	muleq	r0, r4, r4
 654:	0000001c 	andeq	r0, r0, ip, lsl r0
 658:	84080e42 	strhi	r0, [r8], #-3650	; 0xfffff1be
 65c:	00018e02 	andeq	r8, r1, r2, lsl #28
 660:	00000018 	andeq	r0, r0, r8, lsl r0
 664:	000005bc 			; <UNDEFINED> instruction: 0x000005bc
 668:	000094b0 			; <UNDEFINED> instruction: 0x000094b0
 66c:	00000034 	andeq	r0, r0, r4, lsr r0
 670:	84080e46 	strhi	r0, [r8], #-3654	; 0xfffff1ba
 674:	4e018e02 	cdpmi	14, 0, cr8, cr1, cr2, {0}
 678:	cec4000e 	cdpgt	0, 12, cr0, cr4, cr14, {0}
 67c:	0000000c 	andeq	r0, r0, ip
 680:	ffffffff 			; <UNDEFINED> instruction: 0xffffffff
 684:	7c020001 	stcvc	0, cr0, [r2], {1}
 688:	000d0c0e 	andeq	r0, sp, lr, lsl #24
 68c:	0000000c 	andeq	r0, r0, ip
 690:	0000067c 	andeq	r0, r0, ip, ror r6
 694:	000094e4 	andeq	r9, r0, r4, ror #9
 698:	00000010 	andeq	r0, r0, r0, lsl r0
 69c:	0000000c 	andeq	r0, r0, ip
 6a0:	0000067c 	andeq	r0, r0, ip, ror r6
 6a4:	000094f4 	strdeq	r9, [r0], -r4
 6a8:	0000000c 	andeq	r0, r0, ip
 6ac:	00000014 	andeq	r0, r0, r4, lsl r0
 6b0:	0000067c 	andeq	r0, r0, ip, ror r6
 6b4:	00009500 	andeq	r9, r0, r0, lsl #10
 6b8:	00000050 	andeq	r0, r0, r0, asr r0
 6bc:	84080e52 	strhi	r0, [r8], #-3666	; 0xfffff1ae
 6c0:	00018e02 	andeq	r8, r1, r2, lsl #28
 6c4:	00000014 	andeq	r0, r0, r4, lsl r0
 6c8:	0000067c 	andeq	r0, r0, ip, ror r6
 6cc:	00009550 	andeq	r9, r0, r0, asr r5
 6d0:	00000064 	andeq	r0, r0, r4, rrx
 6d4:	84080e42 	strhi	r0, [r8], #-3650	; 0xfffff1be
 6d8:	00018e02 	andeq	r8, r1, r2, lsl #28
 6dc:	0000000c 	andeq	r0, r0, ip
 6e0:	0000067c 	andeq	r0, r0, ip, ror r6
 6e4:	000095b4 			; <UNDEFINED> instruction: 0x000095b4
 6e8:	00000004 	andeq	r0, r0, r4
 6ec:	00000014 	andeq	r0, r0, r4, lsl r0
 6f0:	0000067c 	andeq	r0, r0, ip, ror r6
 6f4:	000095b8 			; <UNDEFINED> instruction: 0x000095b8
 6f8:	0000000c 	andeq	r0, r0, ip
 6fc:	84080e42 	strhi	r0, [r8], #-3650	; 0xfffff1be
 700:	00018e02 	andeq	r8, r1, r2, lsl #28
 704:	00000014 	andeq	r0, r0, r4, lsl r0
 708:	0000067c 	andeq	r0, r0, ip, ror r6
 70c:	000095c4 	andeq	r9, r0, r4, asr #11
 710:	0000008c 	andeq	r0, r0, ip, lsl #1
 714:	84080e42 	strhi	r0, [r8], #-3650	; 0xfffff1be
 718:	00018e02 	andeq	r8, r1, r2, lsl #28
 71c:	0000000c 	andeq	r0, r0, ip
 720:	0000067c 	andeq	r0, r0, ip, ror r6
 724:	00009650 	andeq	r9, r0, r0, asr r6
 728:	00000004 	andeq	r0, r0, r4
 72c:	0000000c 	andeq	r0, r0, ip
 730:	0000067c 	andeq	r0, r0, ip, ror r6
 734:	00009654 	andeq	r9, r0, r4, asr r6
 738:	00000014 	andeq	r0, r0, r4, lsl r0
 73c:	0000000c 	andeq	r0, r0, ip
 740:	0000067c 	andeq	r0, r0, ip, ror r6
 744:	00009668 	andeq	r9, r0, r8, ror #12
 748:	00000010 	andeq	r0, r0, r0, lsl r0

Disassembly of section .debug_ranges:

00000000 <.debug_ranges>:
   0:	000000a0 	andeq	r0, r0, r0, lsr #1
   4:	000000e8 	andeq	r0, r0, r8, ror #1
   8:	00000100 	andeq	r0, r0, r0, lsl #2
   c:	0000012c 	andeq	r0, r0, ip, lsr #2
	...
  18:	000001d4 	ldrdeq	r0, [r0], -r4
  1c:	0000021c 	andeq	r0, r0, ip, lsl r2
  20:	00000220 	andeq	r0, r0, r0, lsr #4
  24:	00000250 	andeq	r0, r0, r0, asr r2
	...
  30:	000002d0 	ldrdeq	r0, [r0], -r0	; <UNPREDICTABLE>
  34:	00000318 	andeq	r0, r0, r8, lsl r3
  38:	0000031c 	andeq	r0, r0, ip, lsl r3
  3c:	0000034c 	andeq	r0, r0, ip, asr #6
	...
  48:	0000074c 	andeq	r0, r0, ip, asr #14
  4c:	00000750 	andeq	r0, r0, r0, asr r7
  50:	00000758 	andeq	r0, r0, r8, asr r7
  54:	00000764 	andeq	r0, r0, r4, ror #14
  58:	0000078c 	andeq	r0, r0, ip, lsl #15
  5c:	0000083c 	andeq	r0, r0, ip, lsr r8
	...
  68:	000090fc 	strdeq	r9, [r0], -ip
  6c:	00009174 	andeq	r9, r0, r4, ror r1
	...
