
part1-test3.elf:     file format elf32-littlearm


Disassembly of section .text:

00008000 <_start>:
    8000:	e3a0d302 	mov	sp, #134217728	; 0x8000000
    8004:	e3a0b000 	mov	fp, #0
    8008:	eb00042f 	bl	90cc <_cstart>
    800c:	eb000444 	bl	9124 <rpi_reboot>

00008010 <notmain>:
    8010:	e92d4070 	push	{r4, r5, r6, lr}
    8014:	e24dd008 	sub	sp, sp, #8
    8018:	e59f00a8 	ldr	r0, [pc, #168]	; 80c8 <notmain+0xb8>
    801c:	eb0002a6 	bl	8abc <printk>
    8020:	e3a00601 	mov	r0, #1048576	; 0x100000
    8024:	eb000534 	bl	94fc <kmalloc_init_set_start>
    8028:	e3a00601 	mov	r0, #1048576	; 0x100000
    802c:	eb000546 	bl	954c <kmalloc>
    8030:	e3a01601 	mov	r1, #1048576	; 0x100000
    8034:	eb00011d 	bl	84b0 <ck_init>
    8038:	e59f608c 	ldr	r6, [pc, #140]	; 80cc <notmain+0xbc>
    803c:	e59f508c 	ldr	r5, [pc, #140]	; 80d0 <notmain+0xc0>
    8040:	e3a0300d 	mov	r3, #13
    8044:	e1a02006 	mov	r2, r6
    8048:	e1a01005 	mov	r1, r5
    804c:	e3a00004 	mov	r0, #4
    8050:	eb000161 	bl	85dc <ckalloc>
    8054:	e1a04000 	mov	r4, r0
    8058:	e3a02004 	mov	r2, #4
    805c:	e3a01000 	mov	r1, #0
    8060:	eb00028f 	bl	8aa4 <memset>
    8064:	e3a0300f 	mov	r3, #15
    8068:	e1a02006 	mov	r2, r6
    806c:	e1a01005 	mov	r1, r5
    8070:	e1a00004 	mov	r0, r4
    8074:	eb00012a 	bl	8524 <ckfree>
    8078:	e3a03001 	mov	r3, #1
    807c:	e5c43000 	strb	r3, [r4]
    8080:	eb0001fb 	bl	8874 <ck_heap_errors>
    8084:	e3500001 	cmp	r0, #1
    8088:	1a000005 	bne	80a4 <notmain+0x94>
    808c:	e59f0040 	ldr	r0, [pc, #64]	; 80d4 <notmain+0xc4>
    8090:	eb000289 	bl	8abc <printk>
    8094:	e59f003c 	ldr	r0, [pc, #60]	; 80d8 <notmain+0xc8>
    8098:	eb000287 	bl	8abc <printk>
    809c:	e28dd008 	add	sp, sp, #8
    80a0:	e8bd8070 	pop	{r4, r5, r6, pc}
    80a4:	e1a04000 	mov	r4, r0
    80a8:	eb00029e 	bl	8b28 <rpi_reset_putc>
    80ac:	e58d4000 	str	r4, [sp]
    80b0:	e3a03014 	mov	r3, #20
    80b4:	e1a02006 	mov	r2, r6
    80b8:	e1a01005 	mov	r1, r5
    80bc:	e59f0018 	ldr	r0, [pc, #24]	; 80dc <notmain+0xcc>
    80c0:	eb00027d 	bl	8abc <printk>
    80c4:	eb0003f6 	bl	90a4 <clean_reboot>
    80c8:	0000969c 	muleq	r0, ip, r6
    80cc:	00009728 	andeq	r9, r0, r8, lsr #14
    80d0:	000096b4 			; <UNDEFINED> instruction: 0x000096b4
    80d4:	00009700 	andeq	r9, r0, r0, lsl #14
    80d8:	00009708 	andeq	r9, r0, r8, lsl #14
    80dc:	000096c4 	andeq	r9, r0, r4, asr #13

000080e0 <b_rz1_ptr>:
    80e0:	e2800038 	add	r0, r0, #56	; 0x38
    80e4:	e12fff1e 	bx	lr

000080e8 <b_alloc_ptr>:
    80e8:	e92d4010 	push	{r4, lr}
    80ec:	ebfffffb 	bl	80e0 <b_rz1_ptr>
    80f0:	e2800080 	add	r0, r0, #128	; 0x80
    80f4:	e8bd8010 	pop	{r4, pc}

000080f8 <b_rz2_ptr>:
    80f8:	e92d4010 	push	{r4, lr}
    80fc:	e1a04000 	mov	r4, r0
    8100:	ebfffff8 	bl	80e8 <b_alloc_ptr>
    8104:	e5943000 	ldr	r3, [r4]
    8108:	e0800003 	add	r0, r0, r3
    810c:	e8bd8010 	pop	{r4, pc}

00008110 <b_rz2_nbytes>:
    8110:	e5900004 	ldr	r0, [r0, #4]
    8114:	e2800080 	add	r0, r0, #128	; 0x80
    8118:	e12fff1e 	bx	lr

0000811c <b_addr_to_hdr>:
    811c:	e24000b8 	sub	r0, r0, #184	; 0xb8
    8120:	e12fff1e 	bx	lr

00008124 <check_free_write>:
    8124:	e92d41f0 	push	{r4, r5, r6, r7, r8, lr}
    8128:	e1a05000 	mov	r5, r0
    812c:	e1a06002 	mov	r6, r2
    8130:	e3a04000 	mov	r4, #0
    8134:	e1540001 	cmp	r4, r1
    8138:	2a000033 	bcs	820c <check_free_write+0xe8>
    813c:	e7d53004 	ldrb	r3, [r5, r4]
    8140:	e35300fe 	cmp	r3, #254	; 0xfe
    8144:	02844001 	addeq	r4, r4, #1
    8148:	0afffff9 	beq	8134 <check_free_write+0x10>
    814c:	e1a00006 	mov	r0, r6
    8150:	ebffffe4 	bl	80e8 <b_alloc_ptr>
    8154:	e0450000 	sub	r0, r5, r0
    8158:	e0804004 	add	r4, r0, r4
    815c:	e59f70b0 	ldr	r7, [pc, #176]	; 8214 <check_free_write+0xf0>
    8160:	e1a00007 	mov	r0, r7
    8164:	eb000254 	bl	8abc <printk>
    8168:	e59f00a8 	ldr	r0, [pc, #168]	; 8218 <check_free_write+0xf4>
    816c:	eb000252 	bl	8abc <printk>
    8170:	e1a02004 	mov	r2, r4
    8174:	e1a01005 	mov	r1, r5
    8178:	e59f009c 	ldr	r0, [pc, #156]	; 821c <check_free_write+0xf8>
    817c:	eb00024e 	bl	8abc <printk>
    8180:	e1a00007 	mov	r0, r7
    8184:	eb00024c 	bl	8abc <printk>
    8188:	e5961000 	ldr	r1, [r6]
    818c:	e59f008c 	ldr	r0, [pc, #140]	; 8220 <check_free_write+0xfc>
    8190:	eb000249 	bl	8abc <printk>
    8194:	e5963010 	ldr	r3, [r6, #16]
    8198:	e3530000 	cmp	r3, #0
    819c:	0a000006 	beq	81bc <check_free_write+0x98>
    81a0:	e1a00007 	mov	r0, r7
    81a4:	eb000244 	bl	8abc <printk>
    81a8:	e5963018 	ldr	r3, [r6, #24]
    81ac:	e5962014 	ldr	r2, [r6, #20]
    81b0:	e5961010 	ldr	r1, [r6, #16]
    81b4:	e59f0068 	ldr	r0, [pc, #104]	; 8224 <check_free_write+0x100>
    81b8:	eb00023f 	bl	8abc <printk>
    81bc:	e5963008 	ldr	r3, [r6, #8]
    81c0:	e353000c 	cmp	r3, #12
    81c4:	0a000005 	beq	81e0 <check_free_write+0xbc>
    81c8:	e59f0044 	ldr	r0, [pc, #68]	; 8214 <check_free_write+0xf0>
    81cc:	eb00023a 	bl	8abc <printk>
    81d0:	e59f0050 	ldr	r0, [pc, #80]	; 8228 <check_free_write+0x104>
    81d4:	eb000238 	bl	8abc <printk>
    81d8:	e3a00000 	mov	r0, #0
    81dc:	e8bd81f0 	pop	{r4, r5, r6, r7, r8, pc}
    81e0:	e596301c 	ldr	r3, [r6, #28]
    81e4:	e3530000 	cmp	r3, #0
    81e8:	0afffff6 	beq	81c8 <check_free_write+0xa4>
    81ec:	e59f0020 	ldr	r0, [pc, #32]	; 8214 <check_free_write+0xf0>
    81f0:	eb000231 	bl	8abc <printk>
    81f4:	e5963024 	ldr	r3, [r6, #36]	; 0x24
    81f8:	e5962020 	ldr	r2, [r6, #32]
    81fc:	e596101c 	ldr	r1, [r6, #28]
    8200:	e59f0024 	ldr	r0, [pc, #36]	; 822c <check_free_write+0x108>
    8204:	eb00022c 	bl	8abc <printk>
    8208:	eaffffee 	b	81c8 <check_free_write+0xa4>
    820c:	e3a00001 	mov	r0, #1
    8210:	e8bd81f0 	pop	{r4, r5, r6, r7, r8, pc}
    8214:	00009700 	andeq	r9, r0, r0, lsl #14
    8218:	00009730 	andeq	r9, r0, r0, lsr r7
    821c:	00009738 	andeq	r9, r0, r8, lsr r7
    8220:	0000975c 	andeq	r9, r0, ip, asr r7
    8224:	00009768 	andeq	r9, r0, r8, ror #14
    8228:	000097a4 	andeq	r9, r0, r4, lsr #15
    822c:	00009788 	andeq	r9, r0, r8, lsl #15

00008230 <mark_mem>:
    8230:	e92d4010 	push	{r4, lr}
    8234:	e1a02001 	mov	r2, r1
    8238:	e3a010fe 	mov	r1, #254	; 0xfe
    823c:	eb000218 	bl	8aa4 <memset>
    8240:	e8bd8010 	pop	{r4, pc}

00008244 <hdr_cksum>:
    8244:	e92d4070 	push	{r4, r5, r6, lr}
    8248:	e1a04000 	mov	r4, r0
    824c:	e590500c 	ldr	r5, [r0, #12]
    8250:	e3a03000 	mov	r3, #0
    8254:	e580300c 	str	r3, [r0, #12]
    8258:	e3a01038 	mov	r1, #56	; 0x38
    825c:	eb0001d5 	bl	89b8 <fast_hash>
    8260:	e584500c 	str	r5, [r4, #12]
    8264:	e8bd8070 	pop	{r4, r5, r6, pc}

00008268 <check_hdr>:
    8268:	e92d4070 	push	{r4, r5, r6, lr}
    826c:	e1a04000 	mov	r4, r0
    8270:	e5903008 	ldr	r3, [r0, #8]
    8274:	e243300b 	sub	r3, r3, #11
    8278:	e3530001 	cmp	r3, #1
    827c:	8a000003 	bhi	8290 <check_hdr+0x28>
    8280:	e590500c 	ldr	r5, [r0, #12]
    8284:	ebffffee 	bl	8244 <hdr_cksum>
    8288:	e1550000 	cmp	r5, r0
    828c:	0a000027 	beq	8330 <check_hdr+0xc8>
    8290:	e59f50a0 	ldr	r5, [pc, #160]	; 8338 <check_hdr+0xd0>
    8294:	e1a00005 	mov	r0, r5
    8298:	eb000207 	bl	8abc <printk>
    829c:	e59f0098 	ldr	r0, [pc, #152]	; 833c <check_hdr+0xd4>
    82a0:	eb000205 	bl	8abc <printk>
    82a4:	e3a02000 	mov	r2, #0
    82a8:	e1a01004 	mov	r1, r4
    82ac:	e59f008c 	ldr	r0, [pc, #140]	; 8340 <check_hdr+0xd8>
    82b0:	eb000201 	bl	8abc <printk>
    82b4:	e1a00005 	mov	r0, r5
    82b8:	eb0001ff 	bl	8abc <printk>
    82bc:	e5941000 	ldr	r1, [r4]
    82c0:	e59f007c 	ldr	r0, [pc, #124]	; 8344 <check_hdr+0xdc>
    82c4:	eb0001fc 	bl	8abc <printk>
    82c8:	e5943010 	ldr	r3, [r4, #16]
    82cc:	e3530000 	cmp	r3, #0
    82d0:	0a000006 	beq	82f0 <check_hdr+0x88>
    82d4:	e1a00005 	mov	r0, r5
    82d8:	eb0001f7 	bl	8abc <printk>
    82dc:	e5943018 	ldr	r3, [r4, #24]
    82e0:	e5942014 	ldr	r2, [r4, #20]
    82e4:	e5941010 	ldr	r1, [r4, #16]
    82e8:	e59f0058 	ldr	r0, [pc, #88]	; 8348 <check_hdr+0xe0>
    82ec:	eb0001f2 	bl	8abc <printk>
    82f0:	e5943008 	ldr	r3, [r4, #8]
    82f4:	e353000c 	cmp	r3, #12
    82f8:	0a000001 	beq	8304 <check_hdr+0x9c>
    82fc:	e3a00000 	mov	r0, #0
    8300:	e8bd8070 	pop	{r4, r5, r6, pc}
    8304:	e594301c 	ldr	r3, [r4, #28]
    8308:	e3530000 	cmp	r3, #0
    830c:	0afffffa 	beq	82fc <check_hdr+0x94>
    8310:	e59f0020 	ldr	r0, [pc, #32]	; 8338 <check_hdr+0xd0>
    8314:	eb0001e8 	bl	8abc <printk>
    8318:	e5943024 	ldr	r3, [r4, #36]	; 0x24
    831c:	e5942020 	ldr	r2, [r4, #32]
    8320:	e594101c 	ldr	r1, [r4, #28]
    8324:	e59f0020 	ldr	r0, [pc, #32]	; 834c <check_hdr+0xe4>
    8328:	eb0001e3 	bl	8abc <printk>
    832c:	eafffff2 	b	82fc <check_hdr+0x94>
    8330:	e3a00001 	mov	r0, #1
    8334:	e8bd8070 	pop	{r4, r5, r6, pc}
    8338:	00009700 	andeq	r9, r0, r0, lsl #14
    833c:	00009730 	andeq	r9, r0, r0, lsr r7
    8340:	00009738 	andeq	r9, r0, r8, lsr r7
    8344:	0000975c 	andeq	r9, r0, ip, asr r7
    8348:	00009768 	andeq	r9, r0, r8, ror #14
    834c:	00009788 	andeq	r9, r0, r8, lsl #15

00008350 <check_mem>:
    8350:	e92d41f0 	push	{r4, r5, r6, r7, r8, lr}
    8354:	e1a05000 	mov	r5, r0
    8358:	e1a06002 	mov	r6, r2
    835c:	e3a04000 	mov	r4, #0
    8360:	e1540001 	cmp	r4, r1
    8364:	2a000030 	bcs	842c <check_mem+0xdc>
    8368:	e7d53004 	ldrb	r3, [r5, r4]
    836c:	e35300fe 	cmp	r3, #254	; 0xfe
    8370:	02844001 	addeq	r4, r4, #1
    8374:	0afffff9 	beq	8360 <check_mem+0x10>
    8378:	e1a00006 	mov	r0, r6
    837c:	ebffff59 	bl	80e8 <b_alloc_ptr>
    8380:	e0450000 	sub	r0, r5, r0
    8384:	e0804004 	add	r4, r0, r4
    8388:	e59f70a4 	ldr	r7, [pc, #164]	; 8434 <check_mem+0xe4>
    838c:	e1a00007 	mov	r0, r7
    8390:	eb0001c9 	bl	8abc <printk>
    8394:	e59f009c 	ldr	r0, [pc, #156]	; 8438 <check_mem+0xe8>
    8398:	eb0001c7 	bl	8abc <printk>
    839c:	e5961000 	ldr	r1, [r6]
    83a0:	e1a02004 	mov	r2, r4
    83a4:	e0451001 	sub	r1, r5, r1
    83a8:	e59f008c 	ldr	r0, [pc, #140]	; 843c <check_mem+0xec>
    83ac:	eb0001c2 	bl	8abc <printk>
    83b0:	e1a00007 	mov	r0, r7
    83b4:	eb0001c0 	bl	8abc <printk>
    83b8:	e5961000 	ldr	r1, [r6]
    83bc:	e59f007c 	ldr	r0, [pc, #124]	; 8440 <check_mem+0xf0>
    83c0:	eb0001bd 	bl	8abc <printk>
    83c4:	e5963010 	ldr	r3, [r6, #16]
    83c8:	e3530000 	cmp	r3, #0
    83cc:	0a000006 	beq	83ec <check_mem+0x9c>
    83d0:	e1a00007 	mov	r0, r7
    83d4:	eb0001b8 	bl	8abc <printk>
    83d8:	e5963018 	ldr	r3, [r6, #24]
    83dc:	e5962014 	ldr	r2, [r6, #20]
    83e0:	e5961010 	ldr	r1, [r6, #16]
    83e4:	e59f0058 	ldr	r0, [pc, #88]	; 8444 <check_mem+0xf4>
    83e8:	eb0001b3 	bl	8abc <printk>
    83ec:	e5963008 	ldr	r3, [r6, #8]
    83f0:	e353000c 	cmp	r3, #12
    83f4:	0a000001 	beq	8400 <check_mem+0xb0>
    83f8:	e3a00000 	mov	r0, #0
    83fc:	e8bd81f0 	pop	{r4, r5, r6, r7, r8, pc}
    8400:	e596301c 	ldr	r3, [r6, #28]
    8404:	e3530000 	cmp	r3, #0
    8408:	0afffffa 	beq	83f8 <check_mem+0xa8>
    840c:	e59f0020 	ldr	r0, [pc, #32]	; 8434 <check_mem+0xe4>
    8410:	eb0001a9 	bl	8abc <printk>
    8414:	e5963024 	ldr	r3, [r6, #36]	; 0x24
    8418:	e5962020 	ldr	r2, [r6, #32]
    841c:	e596101c 	ldr	r1, [r6, #28]
    8420:	e59f0020 	ldr	r0, [pc, #32]	; 8448 <check_mem+0xf8>
    8424:	eb0001a4 	bl	8abc <printk>
    8428:	eafffff2 	b	83f8 <check_mem+0xa8>
    842c:	e3a00001 	mov	r0, #1
    8430:	e8bd81f0 	pop	{r4, r5, r6, r7, r8, pc}
    8434:	00009700 	andeq	r9, r0, r0, lsl #14
    8438:	00009730 	andeq	r9, r0, r0, lsr r7
    843c:	00009738 	andeq	r9, r0, r8, lsr r7
    8440:	0000975c 	andeq	r9, r0, ip, asr r7
    8444:	00009768 	andeq	r9, r0, r8, ror #14
    8448:	00009788 	andeq	r9, r0, r8, lsl #15

0000844c <check_block>:
    844c:	e92d4070 	push	{r4, r5, r6, lr}
    8450:	e1a04000 	mov	r4, r0
    8454:	ebffff83 	bl	8268 <check_hdr>
    8458:	e3500000 	cmp	r0, #0
    845c:	08bd8070 	popeq	{r4, r5, r6, pc}
    8460:	e1a00004 	mov	r0, r4
    8464:	ebffff1d 	bl	80e0 <b_rz1_ptr>
    8468:	e1a02004 	mov	r2, r4
    846c:	e3a01080 	mov	r1, #128	; 0x80
    8470:	ebffffb6 	bl	8350 <check_mem>
    8474:	e3500000 	cmp	r0, #0
    8478:	08bd8070 	popeq	{r4, r5, r6, pc}
    847c:	e1a00004 	mov	r0, r4
    8480:	ebffff1c 	bl	80f8 <b_rz2_ptr>
    8484:	e1a05000 	mov	r5, r0
    8488:	e1a00004 	mov	r0, r4
    848c:	ebffff1f 	bl	8110 <b_rz2_nbytes>
    8490:	e1a01000 	mov	r1, r0
    8494:	e1a02004 	mov	r2, r4
    8498:	e1a00005 	mov	r0, r5
    849c:	ebffffab 	bl	8350 <check_mem>
    84a0:	e3500000 	cmp	r0, #0
    84a4:	08bd8070 	popeq	{r4, r5, r6, pc}
    84a8:	e3a00001 	mov	r0, #1
    84ac:	e8bd8070 	pop	{r4, r5, r6, pc}

000084b0 <ck_init>:
    84b0:	e92d4070 	push	{r4, r5, r6, lr}
    84b4:	e59f3054 	ldr	r3, [pc, #84]	; 8510 <ck_init+0x60>
    84b8:	e5933000 	ldr	r3, [r3]
    84bc:	e3130007 	tst	r3, #7
    84c0:	1a00000b 	bne	84f4 <ck_init+0x44>
    84c4:	e1a04000 	mov	r4, r0
    84c8:	e1a05001 	mov	r5, r1
    84cc:	e3a02080 	mov	r2, #128	; 0x80
    84d0:	e3a01038 	mov	r1, #56	; 0x38
    84d4:	e59f0038 	ldr	r0, [pc, #56]	; 8514 <ck_init+0x64>
    84d8:	eb000177 	bl	8abc <printk>
    84dc:	e59f302c 	ldr	r3, [pc, #44]	; 8510 <ck_init+0x60>
    84e0:	e5834000 	str	r4, [r3]
    84e4:	e5834004 	str	r4, [r3, #4]
    84e8:	e0844005 	add	r4, r4, r5
    84ec:	e5834008 	str	r4, [r3, #8]
    84f0:	e8bd8070 	pop	{r4, r5, r6, pc}
    84f4:	eb00018b 	bl	8b28 <rpi_reset_putc>
    84f8:	e3a0300a 	mov	r3, #10
    84fc:	e59f2014 	ldr	r2, [pc, #20]	; 8518 <ck_init+0x68>
    8500:	e59f1014 	ldr	r1, [pc, #20]	; 851c <ck_init+0x6c>
    8504:	e59f0014 	ldr	r0, [pc, #20]	; 8520 <ck_init+0x70>
    8508:	eb00016b 	bl	8abc <printk>
    850c:	eb0002e4 	bl	90a4 <clean_reboot>
    8510:	00009c64 	andeq	r9, r0, r4, ror #24
    8514:	000097f4 	strdeq	r9, [r0], -r4
    8518:	00009a1c 	andeq	r9, r0, ip, lsl sl
    851c:	000097c0 	andeq	r9, r0, r0, asr #15
    8520:	000097cc 	andeq	r9, r0, ip, asr #15

00008524 <ckfree>:
    8524:	e92d41f0 	push	{r4, r5, r6, r7, r8, lr}
    8528:	e1a05000 	mov	r5, r0
    852c:	e1a07001 	mov	r7, r1
    8530:	e1a06002 	mov	r6, r2
    8534:	e1a08003 	mov	r8, r3
    8538:	ebfffef7 	bl	811c <b_addr_to_hdr>
    853c:	e59fc080 	ldr	ip, [pc, #128]	; 85c4 <ckfree+0xa0>
    8540:	e59cc004 	ldr	ip, [ip, #4]
    8544:	e35c0000 	cmp	ip, #0
    8548:	0a000016 	beq	85a8 <ckfree+0x84>
    854c:	e1a04000 	mov	r4, r0
    8550:	e59f0070 	ldr	r0, [pc, #112]	; 85c8 <ckfree+0xa4>
    8554:	eb000158 	bl	8abc <printk>
    8558:	e1a01005 	mov	r1, r5
    855c:	e59f0068 	ldr	r0, [pc, #104]	; 85cc <ckfree+0xa8>
    8560:	eb000155 	bl	8abc <printk>
    8564:	e1a00004 	mov	r0, r4
    8568:	ebffffb7 	bl	844c <check_block>
    856c:	e3500000 	cmp	r0, #0
    8570:	08bd81f0 	popeq	{r4, r5, r6, r7, r8, pc}
    8574:	e584701c 	str	r7, [r4, #28]
    8578:	e5846020 	str	r6, [r4, #32]
    857c:	e5848024 	str	r8, [r4, #36]	; 0x24
    8580:	e3a0300c 	mov	r3, #12
    8584:	e5843008 	str	r3, [r4, #8]
    8588:	e1a00004 	mov	r0, r4
    858c:	ebfffed5 	bl	80e8 <b_alloc_ptr>
    8590:	e5941000 	ldr	r1, [r4]
    8594:	ebffff25 	bl	8230 <mark_mem>
    8598:	e1a00004 	mov	r0, r4
    859c:	ebffff28 	bl	8244 <hdr_cksum>
    85a0:	e584000c 	str	r0, [r4, #12]
    85a4:	e8bd81f0 	pop	{r4, r5, r6, r7, r8, pc}
    85a8:	eb00015e 	bl	8b28 <rpi_reset_putc>
    85ac:	e3a03074 	mov	r3, #116	; 0x74
    85b0:	e59f2018 	ldr	r2, [pc, #24]	; 85d0 <ckfree+0xac>
    85b4:	e59f1018 	ldr	r1, [pc, #24]	; 85d4 <ckfree+0xb0>
    85b8:	e59f0018 	ldr	r0, [pc, #24]	; 85d8 <ckfree+0xb4>
    85bc:	eb00013e 	bl	8abc <printk>
    85c0:	eb0002b7 	bl	90a4 <clean_reboot>
    85c4:	00009c64 	andeq	r9, r0, r4, ror #24
    85c8:	00009700 	andeq	r9, r0, r0, lsl #14
    85cc:	00009844 	andeq	r9, r0, r4, asr #16
    85d0:	00009a24 	andeq	r9, r0, r4, lsr #20
    85d4:	000097c0 	andeq	r9, r0, r0, asr #15
    85d8:	00009810 	andeq	r9, r0, r0, lsl r8

000085dc <ckalloc>:
    85dc:	e92d43f0 	push	{r4, r5, r6, r7, r8, r9, lr}
    85e0:	e24dd00c 	sub	sp, sp, #12
    85e4:	e1a06003 	mov	r6, r3
    85e8:	e59f31d4 	ldr	r3, [pc, #468]	; 87c4 <ckalloc+0x1e8>
    85ec:	e5933004 	ldr	r3, [r3, #4]
    85f0:	e3530000 	cmp	r3, #0
    85f4:	0a000042 	beq	8704 <ckalloc+0x128>
    85f8:	e1a05000 	mov	r5, r0
    85fc:	e1a08001 	mov	r8, r1
    8600:	e1a07002 	mov	r7, r2
    8604:	e59f01bc 	ldr	r0, [pc, #444]	; 87c8 <ckalloc+0x1ec>
    8608:	eb00012b 	bl	8abc <printk>
    860c:	e1a01005 	mov	r1, r5
    8610:	e59f01b4 	ldr	r0, [pc, #436]	; 87cc <ckalloc+0x1f0>
    8614:	eb000128 	bl	8abc <printk>
    8618:	e2850007 	add	r0, r5, #7
    861c:	e3c00007 	bic	r0, r0, #7
    8620:	e2809f4e 	add	r9, r0, #312	; 0x138
    8624:	e1550009 	cmp	r5, r9
    8628:	8a00003c 	bhi	8720 <ckalloc+0x144>
    862c:	e59f3190 	ldr	r3, [pc, #400]	; 87c4 <ckalloc+0x1e8>
    8630:	e5934004 	ldr	r4, [r3, #4]
    8634:	e0842009 	add	r2, r4, r9
    8638:	e5933008 	ldr	r3, [r3, #8]
    863c:	e1520003 	cmp	r2, r3
    8640:	2a000043 	bcs	8754 <ckalloc+0x178>
    8644:	e5845000 	str	r5, [r4]
    8648:	e0400005 	sub	r0, r0, r5
    864c:	e5840004 	str	r0, [r4, #4]
    8650:	e3a0300b 	mov	r3, #11
    8654:	e5843008 	str	r3, [r4, #8]
    8658:	e5848010 	str	r8, [r4, #16]
    865c:	e5847014 	str	r7, [r4, #20]
    8660:	e5846018 	str	r6, [r4, #24]
    8664:	e3a03001 	mov	r3, #1
    8668:	e5843028 	str	r3, [r4, #40]	; 0x28
    866c:	e3a03000 	mov	r3, #0
    8670:	e584302c 	str	r3, [r4, #44]	; 0x2c
    8674:	e1a00004 	mov	r0, r4
    8678:	ebfffe98 	bl	80e0 <b_rz1_ptr>
    867c:	e3a01080 	mov	r1, #128	; 0x80
    8680:	ebfffeea 	bl	8230 <mark_mem>
    8684:	e1a00004 	mov	r0, r4
    8688:	ebfffe9a 	bl	80f8 <b_rz2_ptr>
    868c:	e1a06000 	mov	r6, r0
    8690:	e1a00004 	mov	r0, r4
    8694:	ebfffe9d 	bl	8110 <b_rz2_nbytes>
    8698:	e1a01000 	mov	r1, r0
    869c:	e1a00006 	mov	r0, r6
    86a0:	ebfffee2 	bl	8230 <mark_mem>
    86a4:	e1a00004 	mov	r0, r4
    86a8:	ebfffee5 	bl	8244 <hdr_cksum>
    86ac:	e584000c 	str	r0, [r4, #12]
    86b0:	e59f210c 	ldr	r2, [pc, #268]	; 87c4 <ckalloc+0x1e8>
    86b4:	e5923004 	ldr	r3, [r2, #4]
    86b8:	e0833009 	add	r3, r3, r9
    86bc:	e5823004 	str	r3, [r2, #4]
    86c0:	e1a00004 	mov	r0, r4
    86c4:	ebffff60 	bl	844c <check_block>
    86c8:	e3500000 	cmp	r0, #0
    86cc:	0a000035 	beq	87a8 <ckalloc+0x1cc>
    86d0:	e1a00004 	mov	r0, r4
    86d4:	ebfffe83 	bl	80e8 <b_alloc_ptr>
    86d8:	e1a04000 	mov	r4, r0
    86dc:	e59f00e4 	ldr	r0, [pc, #228]	; 87c8 <ckalloc+0x1ec>
    86e0:	eb0000f5 	bl	8abc <printk>
    86e4:	e1a03004 	mov	r3, r4
    86e8:	e1a02009 	mov	r2, r9
    86ec:	e1a01005 	mov	r1, r5
    86f0:	e59f00d8 	ldr	r0, [pc, #216]	; 87d0 <ckalloc+0x1f4>
    86f4:	eb0000f0 	bl	8abc <printk>
    86f8:	e1a00004 	mov	r0, r4
    86fc:	e28dd00c 	add	sp, sp, #12
    8700:	e8bd83f0 	pop	{r4, r5, r6, r7, r8, r9, pc}
    8704:	eb000107 	bl	8b28 <rpi_reset_putc>
    8708:	e3a03087 	mov	r3, #135	; 0x87
    870c:	e59f20c0 	ldr	r2, [pc, #192]	; 87d4 <ckalloc+0x1f8>
    8710:	e59f10c0 	ldr	r1, [pc, #192]	; 87d8 <ckalloc+0x1fc>
    8714:	e59f00c0 	ldr	r0, [pc, #192]	; 87dc <ckalloc+0x200>
    8718:	eb0000e7 	bl	8abc <printk>
    871c:	eb000260 	bl	90a4 <clean_reboot>
    8720:	e59f00b8 	ldr	r0, [pc, #184]	; 87e0 <ckalloc+0x204>
    8724:	eb0000e4 	bl	8abc <printk>
    8728:	e1a01005 	mov	r1, r5
    872c:	e59f00b0 	ldr	r0, [pc, #176]	; 87e4 <ckalloc+0x208>
    8730:	eb0000e1 	bl	8abc <printk>
    8734:	eb0000fb 	bl	8b28 <rpi_reset_putc>
    8738:	e58d5000 	str	r5, [sp]
    873c:	e3a0308f 	mov	r3, #143	; 0x8f
    8740:	e59f208c 	ldr	r2, [pc, #140]	; 87d4 <ckalloc+0x1f8>
    8744:	e59f108c 	ldr	r1, [pc, #140]	; 87d8 <ckalloc+0x1fc>
    8748:	e59f0098 	ldr	r0, [pc, #152]	; 87e8 <ckalloc+0x20c>
    874c:	eb0000da 	bl	8abc <printk>
    8750:	eb000253 	bl	90a4 <clean_reboot>
    8754:	e59f0084 	ldr	r0, [pc, #132]	; 87e0 <ckalloc+0x204>
    8758:	eb0000d7 	bl	8abc <printk>
    875c:	e59f4060 	ldr	r4, [pc, #96]	; 87c4 <ckalloc+0x1e8>
    8760:	e5941008 	ldr	r1, [r4, #8]
    8764:	e5943004 	ldr	r3, [r4, #4]
    8768:	e1a02009 	mov	r2, r9
    876c:	e0411003 	sub	r1, r1, r3
    8770:	e59f0074 	ldr	r0, [pc, #116]	; 87ec <ckalloc+0x210>
    8774:	eb0000d0 	bl	8abc <printk>
    8778:	eb0000ea 	bl	8b28 <rpi_reset_putc>
    877c:	e58d9004 	str	r9, [sp, #4]
    8780:	e5943008 	ldr	r3, [r4, #8]
    8784:	e5942004 	ldr	r2, [r4, #4]
    8788:	e0433002 	sub	r3, r3, r2
    878c:	e58d3000 	str	r3, [sp]
    8790:	e3a03092 	mov	r3, #146	; 0x92
    8794:	e59f2038 	ldr	r2, [pc, #56]	; 87d4 <ckalloc+0x1f8>
    8798:	e59f1038 	ldr	r1, [pc, #56]	; 87d8 <ckalloc+0x1fc>
    879c:	e59f004c 	ldr	r0, [pc, #76]	; 87f0 <ckalloc+0x214>
    87a0:	eb0000c5 	bl	8abc <printk>
    87a4:	eb00023e 	bl	90a4 <clean_reboot>
    87a8:	eb0000de 	bl	8b28 <rpi_reset_putc>
    87ac:	e3a030a1 	mov	r3, #161	; 0xa1
    87b0:	e59f201c 	ldr	r2, [pc, #28]	; 87d4 <ckalloc+0x1f8>
    87b4:	e59f101c 	ldr	r1, [pc, #28]	; 87d8 <ckalloc+0x1fc>
    87b8:	e59f0034 	ldr	r0, [pc, #52]	; 87f4 <ckalloc+0x218>
    87bc:	eb0000be 	bl	8abc <printk>
    87c0:	eb000237 	bl	90a4 <clean_reboot>
    87c4:	00009c64 	andeq	r9, r0, r4, ror #24
    87c8:	00009700 	andeq	r9, r0, r0, lsl #14
    87cc:	00009850 	andeq	r9, r0, r0, asr r8
    87d0:	0000995c 	andeq	r9, r0, ip, asr r9
    87d4:	00009a2c 	andeq	r9, r0, ip, lsr #20
    87d8:	000097c0 	andeq	r9, r0, r0, asr #15
    87dc:	00009810 	andeq	r9, r0, r0, lsl r8
    87e0:	00009868 	andeq	r9, r0, r8, ror #16
    87e4:	00009874 	andeq	r9, r0, r4, ror r8
    87e8:	0000989c 	muleq	r0, ip, r8
    87ec:	000098d4 	ldrdeq	r9, [r0], -r4
    87f0:	00009900 	andeq	r9, r0, r0, lsl #18
    87f4:	0000993c 	andeq	r9, r0, ip, lsr r9

000087f8 <ck_first_hdr>:
    87f8:	e92d4010 	push	{r4, lr}
    87fc:	e59f3020 	ldr	r3, [pc, #32]	; 8824 <ck_first_hdr+0x2c>
    8800:	e5934000 	ldr	r4, [r3]
    8804:	e1a00004 	mov	r0, r4
    8808:	ebfffe96 	bl	8268 <check_hdr>
    880c:	e3500000 	cmp	r0, #0
    8810:	0a000001 	beq	881c <ck_first_hdr+0x24>
    8814:	e1a00004 	mov	r0, r4
    8818:	e8bd8010 	pop	{r4, pc}
    881c:	e3a04000 	mov	r4, #0
    8820:	eafffffb 	b	8814 <ck_first_hdr+0x1c>
    8824:	00009c64 	andeq	r9, r0, r4, ror #24

00008828 <ck_next_hdr>:
    8828:	e92d4010 	push	{r4, lr}
    882c:	e5904000 	ldr	r4, [r0]
    8830:	e5903004 	ldr	r3, [r0, #4]
    8834:	e0844003 	add	r4, r4, r3
    8838:	e2844f4e 	add	r4, r4, #312	; 0x138
    883c:	e0804004 	add	r4, r0, r4
    8840:	e59f3028 	ldr	r3, [pc, #40]	; 8870 <ck_next_hdr+0x48>
    8844:	e5933004 	ldr	r3, [r3, #4]
    8848:	e1530004 	cmp	r3, r4
    884c:	9a000004 	bls	8864 <ck_next_hdr+0x3c>
    8850:	e1a00004 	mov	r0, r4
    8854:	ebfffe83 	bl	8268 <check_hdr>
    8858:	e3500000 	cmp	r0, #0
    885c:	03a04000 	moveq	r4, #0
    8860:	ea000000 	b	8868 <ck_next_hdr+0x40>
    8864:	e3a04000 	mov	r4, #0
    8868:	e1a00004 	mov	r0, r4
    886c:	e8bd8010 	pop	{r4, pc}
    8870:	00009c64 	andeq	r9, r0, r4, ror #24

00008874 <ck_heap_errors>:
    8874:	e92d41f0 	push	{r4, r5, r6, r7, r8, lr}
    8878:	e59f3124 	ldr	r3, [pc, #292]	; 89a4 <ck_heap_errors+0x130>
    887c:	e5932004 	ldr	r2, [r3, #4]
    8880:	e5934000 	ldr	r4, [r3]
    8884:	e0424004 	sub	r4, r2, r4
    8888:	e5935008 	ldr	r5, [r3, #8]
    888c:	e0455002 	sub	r5, r5, r2
    8890:	e59f0110 	ldr	r0, [pc, #272]	; 89a8 <ck_heap_errors+0x134>
    8894:	eb000088 	bl	8abc <printk>
    8898:	e1a02005 	mov	r2, r5
    889c:	e1a01004 	mov	r1, r4
    88a0:	e59f0104 	ldr	r0, [pc, #260]	; 89ac <ck_heap_errors+0x138>
    88a4:	eb000084 	bl	8abc <printk>
    88a8:	ebffffd2 	bl	87f8 <ck_first_hdr>
    88ac:	e1a04000 	mov	r4, r0
    88b0:	e3a05000 	mov	r5, #0
    88b4:	e1a06005 	mov	r6, r5
    88b8:	ea000010 	b	8900 <ck_heap_errors+0x8c>
    88bc:	e2866001 	add	r6, r6, #1
    88c0:	e2855001 	add	r5, r5, #1
    88c4:	e3560000 	cmp	r6, #0
    88c8:	0a00002f 	beq	898c <ck_heap_errors+0x118>
    88cc:	e59f00d4 	ldr	r0, [pc, #212]	; 89a8 <ck_heap_errors+0x134>
    88d0:	eb000079 	bl	8abc <printk>
    88d4:	e1a02006 	mov	r2, r6
    88d8:	e1a01005 	mov	r1, r5
    88dc:	e59f00cc 	ldr	r0, [pc, #204]	; 89b0 <ck_heap_errors+0x13c>
    88e0:	eb000075 	bl	8abc <printk>
    88e4:	e1a00006 	mov	r0, r6
    88e8:	e8bd81f0 	pop	{r4, r5, r6, r7, r8, pc}
    88ec:	e2866001 	add	r6, r6, #1
    88f0:	e2855001 	add	r5, r5, #1
    88f4:	e1a00004 	mov	r0, r4
    88f8:	ebffffca 	bl	8828 <ck_next_hdr>
    88fc:	e1a04000 	mov	r4, r0
    8900:	e3540000 	cmp	r4, #0
    8904:	0affffee 	beq	88c4 <ck_heap_errors+0x50>
    8908:	e1a00004 	mov	r0, r4
    890c:	ebfffe55 	bl	8268 <check_hdr>
    8910:	e3500000 	cmp	r0, #0
    8914:	0affffe8 	beq	88bc <ck_heap_errors+0x48>
    8918:	e1a00004 	mov	r0, r4
    891c:	ebfffdef 	bl	80e0 <b_rz1_ptr>
    8920:	e1a02004 	mov	r2, r4
    8924:	e3a01080 	mov	r1, #128	; 0x80
    8928:	ebfffe88 	bl	8350 <check_mem>
    892c:	e3500000 	cmp	r0, #0
    8930:	0affffed 	beq	88ec <ck_heap_errors+0x78>
    8934:	e1a00004 	mov	r0, r4
    8938:	ebfffdee 	bl	80f8 <b_rz2_ptr>
    893c:	e1a07000 	mov	r7, r0
    8940:	e1a00004 	mov	r0, r4
    8944:	ebfffdf1 	bl	8110 <b_rz2_nbytes>
    8948:	e1a01000 	mov	r1, r0
    894c:	e1a02004 	mov	r2, r4
    8950:	e1a00007 	mov	r0, r7
    8954:	ebfffe7d 	bl	8350 <check_mem>
    8958:	e3500000 	cmp	r0, #0
    895c:	0affffe2 	beq	88ec <ck_heap_errors+0x78>
    8960:	e5943008 	ldr	r3, [r4, #8]
    8964:	e353000c 	cmp	r3, #12
    8968:	1affffe0 	bne	88f0 <ck_heap_errors+0x7c>
    896c:	e1a00004 	mov	r0, r4
    8970:	ebfffddc 	bl	80e8 <b_alloc_ptr>
    8974:	e1a02004 	mov	r2, r4
    8978:	e5941000 	ldr	r1, [r4]
    897c:	ebfffde8 	bl	8124 <check_free_write>
    8980:	e3500000 	cmp	r0, #0
    8984:	02866001 	addeq	r6, r6, #1
    8988:	eaffffd8 	b	88f0 <ck_heap_errors+0x7c>
    898c:	e59f0014 	ldr	r0, [pc, #20]	; 89a8 <ck_heap_errors+0x134>
    8990:	eb000049 	bl	8abc <printk>
    8994:	e1a01005 	mov	r1, r5
    8998:	e59f0014 	ldr	r0, [pc, #20]	; 89b4 <ck_heap_errors+0x140>
    899c:	eb000046 	bl	8abc <printk>
    89a0:	eaffffcf 	b	88e4 <ck_heap_errors+0x70>
    89a4:	00009c64 	andeq	r9, r0, r4, ror #24
    89a8:	00009700 	andeq	r9, r0, r0, lsl #14
    89ac:	0000998c 	andeq	r9, r0, ip, lsl #19
    89b0:	000099c4 	andeq	r9, r0, r4, asr #19
    89b4:	000099ec 	andeq	r9, r0, ip, ror #19

000089b8 <fast_hash>:
    89b8:	e3500000 	cmp	r0, #0
    89bc:	13510000 	cmpne	r1, #0
    89c0:	da000035 	ble	8a9c <fast_hash+0xe4>
    89c4:	e52de004 	push	{lr}		; (str lr, [sp, #-4]!)
    89c8:	e1a03001 	mov	r3, r1
    89cc:	e1a0c000 	mov	ip, r0
    89d0:	e201e003 	and	lr, r1, #3
    89d4:	e1a01141 	asr	r1, r1, #2
    89d8:	e3510000 	cmp	r1, #0
    89dc:	da00000c 	ble	8a14 <fast_hash+0x5c>
    89e0:	e5dc0001 	ldrb	r0, [ip, #1]
    89e4:	e5dc2000 	ldrb	r2, [ip]
    89e8:	e0822400 	add	r2, r2, r0, lsl #8
    89ec:	e0822003 	add	r2, r2, r3
    89f0:	e5dc0003 	ldrb	r0, [ip, #3]
    89f4:	e5dc3002 	ldrb	r3, [ip, #2]
    89f8:	e0833400 	add	r3, r3, r0, lsl #8
    89fc:	e0223583 	eor	r3, r2, r3, lsl #11
    8a00:	e0233802 	eor	r3, r3, r2, lsl #16
    8a04:	e28cc004 	add	ip, ip, #4
    8a08:	e08335a3 	add	r3, r3, r3, lsr #11
    8a0c:	e2411001 	sub	r1, r1, #1
    8a10:	eafffff0 	b	89d8 <fast_hash+0x20>
    8a14:	e35e0002 	cmp	lr, #2
    8a18:	0a000013 	beq	8a6c <fast_hash+0xb4>
    8a1c:	e35e0003 	cmp	lr, #3
    8a20:	0a000008 	beq	8a48 <fast_hash+0x90>
    8a24:	e35e0001 	cmp	lr, #1
    8a28:	0a000016 	beq	8a88 <fast_hash+0xd0>
    8a2c:	e0230183 	eor	r0, r3, r3, lsl #3
    8a30:	e08002a0 	add	r0, r0, r0, lsr #5
    8a34:	e0200200 	eor	r0, r0, r0, lsl #4
    8a38:	e08008a0 	add	r0, r0, r0, lsr #17
    8a3c:	e0200c80 	eor	r0, r0, r0, lsl #25
    8a40:	e0800320 	add	r0, r0, r0, lsr #6
    8a44:	e49df004 	pop	{pc}		; (ldr pc, [sp], #4)
    8a48:	e5dc1001 	ldrb	r1, [ip, #1]
    8a4c:	e5dc2000 	ldrb	r2, [ip]
    8a50:	e0822401 	add	r2, r2, r1, lsl #8
    8a54:	e0823003 	add	r3, r2, r3
    8a58:	e0233803 	eor	r3, r3, r3, lsl #16
    8a5c:	e1dc20d2 	ldrsb	r2, [ip, #2]
    8a60:	e0233902 	eor	r3, r3, r2, lsl #18
    8a64:	e08335a3 	add	r3, r3, r3, lsr #11
    8a68:	eaffffef 	b	8a2c <fast_hash+0x74>
    8a6c:	e5dc1001 	ldrb	r1, [ip, #1]
    8a70:	e5dc2000 	ldrb	r2, [ip]
    8a74:	e0822401 	add	r2, r2, r1, lsl #8
    8a78:	e0823003 	add	r3, r2, r3
    8a7c:	e0233583 	eor	r3, r3, r3, lsl #11
    8a80:	e08338a3 	add	r3, r3, r3, lsr #17
    8a84:	eaffffe8 	b	8a2c <fast_hash+0x74>
    8a88:	e1dc20d0 	ldrsb	r2, [ip]
    8a8c:	e0823003 	add	r3, r2, r3
    8a90:	e0233503 	eor	r3, r3, r3, lsl #10
    8a94:	e08330a3 	add	r3, r3, r3, lsr #1
    8a98:	eaffffe3 	b	8a2c <fast_hash+0x74>
    8a9c:	e3a00000 	mov	r0, #0
    8aa0:	e12fff1e 	bx	lr

00008aa4 <memset>:
    8aa4:	e0802002 	add	r2, r0, r2
    8aa8:	e1a03000 	mov	r3, r0
    8aac:	e1530002 	cmp	r3, r2
    8ab0:	212fff1e 	bxcs	lr
    8ab4:	e4c31001 	strb	r1, [r3], #1
    8ab8:	eafffffb 	b	8aac <memset+0x8>

00008abc <printk>:
    8abc:	e92d000f 	push	{r0, r1, r2, r3}
    8ac0:	e92d4030 	push	{r4, r5, lr}
    8ac4:	e24dd00c 	sub	sp, sp, #12
    8ac8:	e28d301c 	add	r3, sp, #28
    8acc:	e58d3004 	str	r3, [sp, #4]
    8ad0:	e59f5034 	ldr	r5, [pc, #52]	; 8b0c <printk+0x50>
    8ad4:	e59d2018 	ldr	r2, [sp, #24]
    8ad8:	e3a01b01 	mov	r1, #1024	; 0x400
    8adc:	e1a00005 	mov	r0, r5
    8ae0:	eb0000c3 	bl	8df4 <va_printk>
    8ae4:	e1a04000 	mov	r4, r0
    8ae8:	e59f3020 	ldr	r3, [pc, #32]	; 8b10 <printk+0x54>
    8aec:	e5933000 	ldr	r3, [r3]
    8af0:	e1a00005 	mov	r0, r5
    8af4:	e12fff33 	blx	r3
    8af8:	e1a00004 	mov	r0, r4
    8afc:	e28dd00c 	add	sp, sp, #12
    8b00:	e8bd4030 	pop	{r4, r5, lr}
    8b04:	e28dd010 	add	sp, sp, #16
    8b08:	e12fff1e 	bx	lr
    8b0c:	00009c70 	andeq	r9, r0, r0, ror ip
    8b10:	00009690 	muleq	r0, r0, r6

00008b14 <internal_putchar>:
    8b14:	e92d4010 	push	{r4, lr}
    8b18:	e1a04000 	mov	r4, r0
    8b1c:	eb000217 	bl	9380 <uart_putc>
    8b20:	e1a00004 	mov	r0, r4
    8b24:	e8bd8010 	pop	{r4, pc}

00008b28 <rpi_reset_putc>:
    8b28:	e59f3008 	ldr	r3, [pc, #8]	; 8b38 <rpi_reset_putc+0x10>
    8b2c:	e59f2008 	ldr	r2, [pc, #8]	; 8b3c <rpi_reset_putc+0x14>
    8b30:	e5832000 	str	r2, [r3]
    8b34:	e12fff1e 	bx	lr
    8b38:	0000968c 	andeq	r9, r0, ip, lsl #13
    8b3c:	00008b14 	andeq	r8, r0, r4, lsl fp

00008b40 <rpi_set_putc>:
    8b40:	e59f3004 	ldr	r3, [pc, #4]	; 8b4c <rpi_set_putc+0xc>
    8b44:	e5830000 	str	r0, [r3]
    8b48:	e12fff1e 	bx	lr
    8b4c:	0000968c 	andeq	r9, r0, ip, lsl #13

00008b50 <internal_putk>:
    8b50:	e92d4010 	push	{r4, lr}
    8b54:	e1a04000 	mov	r4, r0
    8b58:	e5d40000 	ldrb	r0, [r4]
    8b5c:	e3500000 	cmp	r0, #0
    8b60:	0a000004 	beq	8b78 <internal_putk+0x28>
    8b64:	e59f3014 	ldr	r3, [pc, #20]	; 8b80 <internal_putk+0x30>
    8b68:	e5933000 	ldr	r3, [r3]
    8b6c:	e12fff33 	blx	r3
    8b70:	e2844001 	add	r4, r4, #1
    8b74:	eafffff7 	b	8b58 <internal_putk+0x8>
    8b78:	e3a00001 	mov	r0, #1
    8b7c:	e8bd8010 	pop	{r4, pc}
    8b80:	0000968c 	andeq	r9, r0, ip, lsl #13

00008b84 <isdigit>:
    8b84:	e2400030 	sub	r0, r0, #48	; 0x30
    8b88:	e3500009 	cmp	r0, #9
    8b8c:	83a00000 	movhi	r0, #0
    8b90:	93a00001 	movls	r0, #1
    8b94:	e12fff1e 	bx	lr

00008b98 <pad>:
    8b98:	e0401001 	sub	r1, r0, r1
    8b9c:	e1510002 	cmp	r1, r2
    8ba0:	b3a03020 	movlt	r3, #32
    8ba4:	b4c03001 	strblt	r3, [r0], #1
    8ba8:	b2811001 	addlt	r1, r1, #1
    8bac:	bafffffa 	blt	8b9c <pad+0x4>
    8bb0:	e3a03000 	mov	r3, #0
    8bb4:	e5c03000 	strb	r3, [r0]
    8bb8:	e12fff1e 	bx	lr

00008bbc <reverse>:
    8bbc:	e042c003 	sub	ip, r2, r3
    8bc0:	e28cc001 	add	ip, ip, #1
    8bc4:	e15c0001 	cmp	ip, r1
    8bc8:	c04cc001 	subgt	ip, ip, r1
    8bcc:	c083300c 	addgt	r3, r3, ip
    8bd0:	e2421001 	sub	r1, r2, #1
    8bd4:	e1a02000 	mov	r2, r0
    8bd8:	e1510003 	cmp	r1, r3
    8bdc:	2451c001 	ldrbcs	ip, [r1], #-1
    8be0:	24c2c001 	strbcs	ip, [r2], #1
    8be4:	2afffffb 	bcs	8bd8 <reverse+0x1c>
    8be8:	e3a03000 	mov	r3, #0
    8bec:	e5c23000 	strb	r3, [r2]
    8bf0:	e12fff1e 	bx	lr

00008bf4 <emit>:
    8bf4:	e92d40f0 	push	{r4, r5, r6, r7, lr}
    8bf8:	e24dd044 	sub	sp, sp, #68	; 0x44
    8bfc:	e1a05001 	mov	r5, r1
    8c00:	e1a04002 	mov	r4, r2
    8c04:	e59d2058 	ldr	r2, [sp, #88]	; 0x58
    8c08:	e1520004 	cmp	r2, r4
    8c0c:	c2442001 	subgt	r2, r4, #1
    8c10:	e1a0c003 	mov	ip, r3
    8c14:	e2400002 	sub	r0, r0, #2
    8c18:	e350000e 	cmp	r0, #14
    8c1c:	979ff100 	ldrls	pc, [pc, r0, lsl #2]
    8c20:	ea000050 	b	8d68 <emit+0x174>
    8c24:	00008d40 	andeq	r8, r0, r0, asr #26
    8c28:	00008d68 	andeq	r8, r0, r8, ror #26
    8c2c:	00008d68 	andeq	r8, r0, r8, ror #26
    8c30:	00008d68 	andeq	r8, r0, r8, ror #26
    8c34:	00008d68 	andeq	r8, r0, r8, ror #26
    8c38:	00008d68 	andeq	r8, r0, r8, ror #26
    8c3c:	00008d34 	andeq	r8, r0, r4, lsr sp
    8c40:	00008d68 	andeq	r8, r0, r8, ror #26
    8c44:	00008c60 	andeq	r8, r0, r0, ror #24
    8c48:	00008d68 	andeq	r8, r0, r8, ror #26
    8c4c:	00008d68 	andeq	r8, r0, r8, ror #26
    8c50:	00008d68 	andeq	r8, r0, r8, ror #26
    8c54:	00008d68 	andeq	r8, r0, r8, ror #26
    8c58:	00008d68 	andeq	r8, r0, r8, ror #26
    8c5c:	00008cd8 	ldrdeq	r8, [r0], -r8	; <UNPREDICTABLE>
    8c60:	e59d105c 	ldr	r1, [sp, #92]	; 0x5c
    8c64:	e2511000 	subs	r1, r1, #0
    8c68:	13a01001 	movne	r1, #1
    8c6c:	e0111fa3 	ands	r1, r1, r3, lsr #31
    8c70:	0a000016 	beq	8cd0 <emit+0xdc>
    8c74:	e263c000 	rsb	ip, r3, #0
    8c78:	e3a06001 	mov	r6, #1
    8c7c:	e1a0000d 	mov	r0, sp
    8c80:	e59f30fc 	ldr	r3, [pc, #252]	; 8d84 <emit+0x190>
    8c84:	e0831c93 	umull	r1, r3, r3, ip
    8c88:	e1a031a3 	lsr	r3, r3, #3
    8c8c:	e1a0e003 	mov	lr, r3
    8c90:	e0833103 	add	r3, r3, r3, lsl #2
    8c94:	e04c3083 	sub	r3, ip, r3, lsl #1
    8c98:	e1a01000 	mov	r1, r0
    8c9c:	e2800001 	add	r0, r0, #1
    8ca0:	e59f70e0 	ldr	r7, [pc, #224]	; 8d88 <emit+0x194>
    8ca4:	e7d73003 	ldrb	r3, [r7, r3]
    8ca8:	e5c13000 	strb	r3, [r1]
    8cac:	e1a0300c 	mov	r3, ip
    8cb0:	e1a0c00e 	mov	ip, lr
    8cb4:	e3530009 	cmp	r3, #9
    8cb8:	8afffff0 	bhi	8c80 <emit+0x8c>
    8cbc:	e3560000 	cmp	r6, #0
    8cc0:	13a0302d 	movne	r3, #45	; 0x2d
    8cc4:	15c03000 	strbne	r3, [r0]
    8cc8:	12810002 	addne	r0, r1, #2
    8ccc:	ea00000f 	b	8d10 <emit+0x11c>
    8cd0:	e3a06000 	mov	r6, #0
    8cd4:	eaffffe8 	b	8c7c <emit+0x88>
    8cd8:	e1a0100d 	mov	r1, sp
    8cdc:	e20c000f 	and	r0, ip, #15
    8ce0:	e59fe0a4 	ldr	lr, [pc, #164]	; 8d8c <emit+0x198>
    8ce4:	e7de0000 	ldrb	r0, [lr, r0]
    8ce8:	e5c10000 	strb	r0, [r1]
    8cec:	e2811001 	add	r1, r1, #1
    8cf0:	e35c000f 	cmp	ip, #15
    8cf4:	e1a0c22c 	lsr	ip, ip, #4
    8cf8:	8afffff7 	bhi	8cdc <emit+0xe8>
    8cfc:	e1a00001 	mov	r0, r1
    8d00:	e3a03078 	mov	r3, #120	; 0x78
    8d04:	e4c03002 	strb	r3, [r0], #2
    8d08:	e3a03030 	mov	r3, #48	; 0x30
    8d0c:	e5c13001 	strb	r3, [r1, #1]
    8d10:	e1a0100d 	mov	r1, sp
    8d14:	ebffff9f 	bl	8b98 <pad>
    8d18:	e1a02000 	mov	r2, r0
    8d1c:	e1a0300d 	mov	r3, sp
    8d20:	e1a01004 	mov	r1, r4
    8d24:	e1a00005 	mov	r0, r5
    8d28:	ebffffa3 	bl	8bbc <reverse>
    8d2c:	e28dd044 	add	sp, sp, #68	; 0x44
    8d30:	e8bd80f0 	pop	{r4, r5, r6, r7, pc}
    8d34:	e5cd3000 	strb	r3, [sp]
    8d38:	e28d0001 	add	r0, sp, #1
    8d3c:	eafffff3 	b	8d10 <emit+0x11c>
    8d40:	e1a0000d 	mov	r0, sp
    8d44:	e20c1001 	and	r1, ip, #1
    8d48:	e59fe040 	ldr	lr, [pc, #64]	; 8d90 <emit+0x19c>
    8d4c:	e7de1001 	ldrb	r1, [lr, r1]
    8d50:	e5c01000 	strb	r1, [r0]
    8d54:	e2800001 	add	r0, r0, #1
    8d58:	e35c0001 	cmp	ip, #1
    8d5c:	e1a0c0ac 	lsr	ip, ip, #1
    8d60:	8afffff7 	bhi	8d44 <emit+0x150>
    8d64:	eaffffe9 	b	8d10 <emit+0x11c>
    8d68:	ebffff6e 	bl	8b28 <rpi_reset_putc>
    8d6c:	e3a03077 	mov	r3, #119	; 0x77
    8d70:	e59f201c 	ldr	r2, [pc, #28]	; 8d94 <emit+0x1a0>
    8d74:	e59f101c 	ldr	r1, [pc, #28]	; 8d98 <emit+0x1a4>
    8d78:	e59f001c 	ldr	r0, [pc, #28]	; 8d9c <emit+0x1a8>
    8d7c:	ebffff4e 	bl	8abc <printk>
    8d80:	eb0000c7 	bl	90a4 <clean_reboot>
    8d84:	cccccccd 	stclgt	12, cr12, [ip], {205}	; 0xcd
    8d88:	00009a5c 	andeq	r9, r0, ip, asr sl
    8d8c:	00009a68 	andeq	r9, r0, r8, ror #20
    8d90:	00009a7c 	andeq	r9, r0, ip, ror sl
    8d94:	00009b14 	andeq	r9, r0, r4, lsl fp
    8d98:	00009a34 	andeq	r9, r0, r4, lsr sl
    8d9c:	00009a48 	andeq	r9, r0, r8, asr #20

00008da0 <rpi_set_output>:
    8da0:	e3500000 	cmp	r0, #0
    8da4:	0a000005 	beq	8dc0 <rpi_set_output+0x20>
    8da8:	e59f3030 	ldr	r3, [pc, #48]	; 8de0 <rpi_set_output+0x40>
    8dac:	e5830000 	str	r0, [r3]
    8db0:	e3510000 	cmp	r1, #0
    8db4:	159f3028 	ldrne	r3, [pc, #40]	; 8de4 <rpi_set_output+0x44>
    8db8:	15831000 	strne	r1, [r3]
    8dbc:	e12fff1e 	bx	lr
    8dc0:	e92d4010 	push	{r4, lr}
    8dc4:	ebffff57 	bl	8b28 <rpi_reset_putc>
    8dc8:	e3a03020 	mov	r3, #32
    8dcc:	e59f2014 	ldr	r2, [pc, #20]	; 8de8 <rpi_set_output+0x48>
    8dd0:	e59f1014 	ldr	r1, [pc, #20]	; 8dec <rpi_set_output+0x4c>
    8dd4:	e59f0014 	ldr	r0, [pc, #20]	; 8df0 <rpi_set_output+0x50>
    8dd8:	ebffff37 	bl	8abc <printk>
    8ddc:	eb0000b0 	bl	90a4 <clean_reboot>
    8de0:	0000968c 	andeq	r9, r0, ip, lsl #13
    8de4:	00009690 	muleq	r0, r0, r6
    8de8:	00009b1c 	andeq	r9, r0, ip, lsl fp
    8dec:	00009a34 	andeq	r9, r0, r4, lsr sl
    8df0:	00009a80 	andeq	r9, r0, r0, lsl #21

00008df4 <va_printk>:
    8df4:	e92d43f0 	push	{r4, r5, r6, r7, r8, r9, lr}
    8df8:	e24dd094 	sub	sp, sp, #148	; 0x94
    8dfc:	e1a07000 	mov	r7, r0
    8e00:	e1a09002 	mov	r9, r2
    8e04:	e58d300c 	str	r3, [sp, #12]
    8e08:	e2411001 	sub	r1, r1, #1
    8e0c:	e0808001 	add	r8, r0, r1
    8e10:	e3a03000 	mov	r3, #0
    8e14:	e5c03000 	strb	r3, [r0]
    8e18:	e1a04000 	mov	r4, r0
    8e1c:	ea000001 	b	8e28 <va_printk+0x34>
    8e20:	e2899001 	add	r9, r9, #1
    8e24:	e4c43001 	strb	r3, [r4], #1
    8e28:	e5d93000 	ldrb	r3, [r9]
    8e2c:	e3530000 	cmp	r3, #0
    8e30:	0a000091 	beq	907c <va_printk+0x288>
    8e34:	e1540008 	cmp	r4, r8
    8e38:	2a00008f 	bcs	907c <va_printk+0x288>
    8e3c:	e3530025 	cmp	r3, #37	; 0x25
    8e40:	1afffff6 	bne	8e20 <va_printk+0x2c>
    8e44:	e5d92001 	ldrb	r2, [r9, #1]
    8e48:	e3520025 	cmp	r2, #37	; 0x25
    8e4c:	04c43001 	strbeq	r3, [r4], #1
    8e50:	02899002 	addeq	r9, r9, #2
    8e54:	0afffff3 	beq	8e28 <va_printk+0x34>
    8e58:	e2899001 	add	r9, r9, #1
    8e5c:	e3a06000 	mov	r6, #0
    8e60:	ea000003 	b	8e74 <va_printk+0x80>
    8e64:	e0866106 	add	r6, r6, r6, lsl #2
    8e68:	e0855086 	add	r5, r5, r6, lsl #1
    8e6c:	e2456030 	sub	r6, r5, #48	; 0x30
    8e70:	e2899001 	add	r9, r9, #1
    8e74:	e5d95000 	ldrb	r5, [r9]
    8e78:	e1a00005 	mov	r0, r5
    8e7c:	ebffff40 	bl	8b84 <isdigit>
    8e80:	e3500000 	cmp	r0, #0
    8e84:	1afffff6 	bne	8e64 <va_printk+0x70>
    8e88:	e356001f 	cmp	r6, #31
    8e8c:	8a00001a 	bhi	8efc <va_printk+0x108>
    8e90:	e2455062 	sub	r5, r5, #98	; 0x62
    8e94:	e3550016 	cmp	r5, #22
    8e98:	979ff105 	ldrls	pc, [pc, r5, lsl #2]
    8e9c:	ea00006d 	b	9058 <va_printk+0x264>
    8ea0:	00008fe4 	andeq	r8, r0, r4, ror #31
    8ea4:	00009028 	andeq	r9, r0, r8, lsr #32
    8ea8:	00008f34 	andeq	r8, r0, r4, lsr pc
    8eac:	00009058 	andeq	r9, r0, r8, asr r0
    8eb0:	00008f18 	andeq	r8, r0, r8, lsl pc
    8eb4:	00009058 	andeq	r9, r0, r8, asr r0
    8eb8:	00009058 	andeq	r9, r0, r8, asr r0
    8ebc:	00009058 	andeq	r9, r0, r8, asr r0
    8ec0:	00009058 	andeq	r9, r0, r8, asr r0
    8ec4:	00009058 	andeq	r9, r0, r8, asr r0
    8ec8:	00009058 	andeq	r9, r0, r8, asr r0
    8ecc:	00009058 	andeq	r9, r0, r8, asr r0
    8ed0:	00009058 	andeq	r9, r0, r8, asr r0
    8ed4:	00009058 	andeq	r9, r0, r8, asr r0
    8ed8:	00008fb4 			; <UNDEFINED> instruction: 0x00008fb4
    8edc:	00009058 	andeq	r9, r0, r8, asr r0
    8ee0:	00009058 	andeq	r9, r0, r8, asr r0
    8ee4:	00009014 	andeq	r9, r0, r4, lsl r0
    8ee8:	00009058 	andeq	r9, r0, r8, asr r0
    8eec:	00008f84 	andeq	r8, r0, r4, lsl #31
    8ef0:	00009058 	andeq	r9, r0, r8, asr r0
    8ef4:	00009058 	andeq	r9, r0, r8, asr r0
    8ef8:	00008fb4 			; <UNDEFINED> instruction: 0x00008fb4
    8efc:	ebffff09 	bl	8b28 <rpi_reset_putc>
    8f00:	e3a03094 	mov	r3, #148	; 0x94
    8f04:	e59f2184 	ldr	r2, [pc, #388]	; 9090 <va_printk+0x29c>
    8f08:	e59f1184 	ldr	r1, [pc, #388]	; 9094 <va_printk+0x2a0>
    8f0c:	e59f0184 	ldr	r0, [pc, #388]	; 9098 <va_printk+0x2a4>
    8f10:	ebfffee9 	bl	8abc <printk>
    8f14:	eb000062 	bl	90a4 <clean_reboot>
    8f18:	ebffff02 	bl	8b28 <rpi_reset_putc>
    8f1c:	e3a0309a 	mov	r3, #154	; 0x9a
    8f20:	e59f2168 	ldr	r2, [pc, #360]	; 9090 <va_printk+0x29c>
    8f24:	e59f1168 	ldr	r1, [pc, #360]	; 9094 <va_printk+0x2a0>
    8f28:	e59f016c 	ldr	r0, [pc, #364]	; 909c <va_printk+0x2a8>
    8f2c:	ebfffee2 	bl	8abc <printk>
    8f30:	eb00005b 	bl	90a4 <clean_reboot>
    8f34:	e59d300c 	ldr	r3, [sp, #12]
    8f38:	e2832004 	add	r2, r3, #4
    8f3c:	e58d200c 	str	r2, [sp, #12]
    8f40:	e5933000 	ldr	r3, [r3]
    8f44:	e3a02001 	mov	r2, #1
    8f48:	e58d2004 	str	r2, [sp, #4]
    8f4c:	e58d6000 	str	r6, [sp]
    8f50:	e3a02080 	mov	r2, #128	; 0x80
    8f54:	e28d1010 	add	r1, sp, #16
    8f58:	e3a0000a 	mov	r0, #10
    8f5c:	ebffff24 	bl	8bf4 <emit>
    8f60:	e2899001 	add	r9, r9, #1
    8f64:	e1540008 	cmp	r4, r8
    8f68:	2affffae 	bcs	8e28 <va_printk+0x34>
    8f6c:	e5d03000 	ldrb	r3, [r0]
    8f70:	e3530000 	cmp	r3, #0
    8f74:	0affffab 	beq	8e28 <va_printk+0x34>
    8f78:	e2800001 	add	r0, r0, #1
    8f7c:	e4c43001 	strb	r3, [r4], #1
    8f80:	eafffff7 	b	8f64 <va_printk+0x170>
    8f84:	e59d300c 	ldr	r3, [sp, #12]
    8f88:	e2832004 	add	r2, r3, #4
    8f8c:	e58d200c 	str	r2, [sp, #12]
    8f90:	e5933000 	ldr	r3, [r3]
    8f94:	e3a02000 	mov	r2, #0
    8f98:	e58d2004 	str	r2, [sp, #4]
    8f9c:	e58d6000 	str	r6, [sp]
    8fa0:	e3a02080 	mov	r2, #128	; 0x80
    8fa4:	e28d1010 	add	r1, sp, #16
    8fa8:	e3a0000a 	mov	r0, #10
    8fac:	ebffff10 	bl	8bf4 <emit>
    8fb0:	eaffffea 	b	8f60 <va_printk+0x16c>
    8fb4:	e59d300c 	ldr	r3, [sp, #12]
    8fb8:	e2832004 	add	r2, r3, #4
    8fbc:	e58d200c 	str	r2, [sp, #12]
    8fc0:	e5933000 	ldr	r3, [r3]
    8fc4:	e3a02000 	mov	r2, #0
    8fc8:	e58d2004 	str	r2, [sp, #4]
    8fcc:	e58d6000 	str	r6, [sp]
    8fd0:	e3a02080 	mov	r2, #128	; 0x80
    8fd4:	e28d1010 	add	r1, sp, #16
    8fd8:	e3a00010 	mov	r0, #16
    8fdc:	ebffff04 	bl	8bf4 <emit>
    8fe0:	eaffffde 	b	8f60 <va_printk+0x16c>
    8fe4:	e59d300c 	ldr	r3, [sp, #12]
    8fe8:	e2832004 	add	r2, r3, #4
    8fec:	e58d200c 	str	r2, [sp, #12]
    8ff0:	e5933000 	ldr	r3, [r3]
    8ff4:	e3a02000 	mov	r2, #0
    8ff8:	e58d2004 	str	r2, [sp, #4]
    8ffc:	e58d6000 	str	r6, [sp]
    9000:	e3a02080 	mov	r2, #128	; 0x80
    9004:	e28d1010 	add	r1, sp, #16
    9008:	e3a00002 	mov	r0, #2
    900c:	ebfffef8 	bl	8bf4 <emit>
    9010:	eaffffd2 	b	8f60 <va_printk+0x16c>
    9014:	e59d300c 	ldr	r3, [sp, #12]
    9018:	e2832004 	add	r2, r3, #4
    901c:	e58d200c 	str	r2, [sp, #12]
    9020:	e5930000 	ldr	r0, [r3]
    9024:	eaffffcd 	b	8f60 <va_printk+0x16c>
    9028:	e59d300c 	ldr	r3, [sp, #12]
    902c:	e2832004 	add	r2, r3, #4
    9030:	e58d200c 	str	r2, [sp, #12]
    9034:	e5933000 	ldr	r3, [r3]
    9038:	e3a02000 	mov	r2, #0
    903c:	e58d2004 	str	r2, [sp, #4]
    9040:	e58d6000 	str	r6, [sp]
    9044:	e3a02080 	mov	r2, #128	; 0x80
    9048:	e28d1010 	add	r1, sp, #16
    904c:	e3a00008 	mov	r0, #8
    9050:	ebfffee7 	bl	8bf4 <emit>
    9054:	eaffffc1 	b	8f60 <va_printk+0x16c>
    9058:	ebfffeb2 	bl	8b28 <rpi_reset_putc>
    905c:	e5d93000 	ldrb	r3, [r9]
    9060:	e58d3000 	str	r3, [sp]
    9064:	e3a030bb 	mov	r3, #187	; 0xbb
    9068:	e59f2020 	ldr	r2, [pc, #32]	; 9090 <va_printk+0x29c>
    906c:	e59f1020 	ldr	r1, [pc, #32]	; 9094 <va_printk+0x2a0>
    9070:	e59f0028 	ldr	r0, [pc, #40]	; 90a0 <va_printk+0x2ac>
    9074:	ebfffe90 	bl	8abc <printk>
    9078:	eb000009 	bl	90a4 <clean_reboot>
    907c:	e3a03000 	mov	r3, #0
    9080:	e4c43001 	strb	r3, [r4], #1
    9084:	e0440007 	sub	r0, r4, r7
    9088:	e28dd094 	add	sp, sp, #148	; 0x94
    908c:	e8bd83f0 	pop	{r4, r5, r6, r7, r8, r9, pc}
    9090:	00009b2c 	andeq	r9, r0, ip, lsr #22
    9094:	00009a34 	andeq	r9, r0, r4, lsr sl
    9098:	00009a98 	muleq	r0, r8, sl
    909c:	00009ab4 			; <UNDEFINED> instruction: 0x00009ab4
    90a0:	00009adc 	ldrdeq	r9, [r0], -ip

000090a4 <clean_reboot>:
    90a4:	e92d4010 	push	{r4, lr}
    90a8:	e59f3014 	ldr	r3, [pc, #20]	; 90c4 <clean_reboot+0x20>
    90ac:	e5933000 	ldr	r3, [r3]
    90b0:	e59f0010 	ldr	r0, [pc, #16]	; 90c8 <clean_reboot+0x24>
    90b4:	e12fff33 	blx	r3
    90b8:	e3a00064 	mov	r0, #100	; 0x64
    90bc:	eb000042 	bl	91cc <delay_ms>
    90c0:	eb000017 	bl	9124 <rpi_reboot>
    90c4:	00009690 	muleq	r0, r0, r6
    90c8:	00009b38 	andeq	r9, r0, r8, lsr fp

000090cc <_cstart>:
    90cc:	e92d4010 	push	{r4, lr}
    90d0:	e59f3018 	ldr	r3, [pc, #24]	; 90f0 <_cstart+0x24>
    90d4:	e59f2018 	ldr	r2, [pc, #24]	; 90f4 <_cstart+0x28>
    90d8:	e1530002 	cmp	r3, r2
    90dc:	33a02000 	movcc	r2, #0
    90e0:	34832004 	strcc	r2, [r3], #4
    90e4:	3afffffa 	bcc	90d4 <_cstart+0x8>
    90e8:	ebfffbc8 	bl	8010 <notmain>
    90ec:	ebffffec 	bl	90a4 <clean_reboot>
    90f0:	00009c64 	andeq	r9, r0, r4, ror #24
    90f4:	0000a070 	andeq	sl, r0, r0, ror r0

000090f8 <at_user_level>:
    90f8:	e10f0000 	mrs	r0, CPSR
    90fc:	e200001f 	and	r0, r0, #31
    9100:	e3500010 	cmp	r0, #16
    9104:	13a00000 	movne	r0, #0
    9108:	03a00001 	moveq	r0, #1
    910c:	e12fff1e 	bx	lr

00009110 <set_user_level>:
    9110:	e10f3000 	mrs	r3, CPSR
    9114:	e3c3301f 	bic	r3, r3, #31
    9118:	e3833010 	orr	r3, r3, #16
    911c:	e129f003 	msr	CPSR_fc, r3
    9120:	e12fff1e 	bx	lr

00009124 <rpi_reboot>:
    9124:	e92d4010 	push	{r4, lr}
    9128:	ebfffff2 	bl	90f8 <at_user_level>
    912c:	e3500000 	cmp	r0, #0
    9130:	1a000008 	bne	9158 <rpi_reboot+0x34>
    9134:	e3a0001e 	mov	r0, #30
    9138:	eb000023 	bl	91cc <delay_ms>
    913c:	e59f101c 	ldr	r1, [pc, #28]	; 9160 <rpi_reboot+0x3c>
    9140:	e59f001c 	ldr	r0, [pc, #28]	; 9164 <rpi_reboot+0x40>
    9144:	eb00002e 	bl	9204 <PUT32>
    9148:	e59f1018 	ldr	r1, [pc, #24]	; 9168 <rpi_reboot+0x44>
    914c:	e59f0018 	ldr	r0, [pc, #24]	; 916c <rpi_reboot+0x48>
    9150:	eb00002b 	bl	9204 <PUT32>
    9154:	eafffffe 	b	9154 <rpi_reboot+0x30>
    9158:	ebffffec 	bl	9110 <set_user_level>
    915c:	eafffff4 	b	9134 <rpi_reboot+0x10>
    9160:	5a000001 	bpl	916c <rpi_reboot+0x48>
    9164:	20100024 	andscs	r0, r0, r4, lsr #32
    9168:	5a000020 	bpl	91f0 <delay_sec+0xc>
    916c:	2010001c 	andscs	r0, r0, ip, lsl r0

00009170 <delay_cycles>:
    9170:	e2403001 	sub	r3, r0, #1
    9174:	e3500000 	cmp	r0, #0
    9178:	012fff1e 	bxeq	lr
    917c:	e2811000 	add	r1, r1, #0
    9180:	e1a00003 	mov	r0, r3
    9184:	eafffff9 	b	9170 <delay_cycles>

00009188 <timer_get_usec_raw>:
    9188:	e92d4010 	push	{r4, lr}
    918c:	e59f0004 	ldr	r0, [pc, #4]	; 9198 <timer_get_usec_raw+0x10>
    9190:	eb000027 	bl	9234 <GET32>
    9194:	e8bd8010 	pop	{r4, pc}
    9198:	20003004 	andcs	r3, r0, r4

0000919c <timer_get_usec>:
    919c:	e92d4010 	push	{r4, lr}
    91a0:	ebfffff8 	bl	9188 <timer_get_usec_raw>
    91a4:	e8bd8010 	pop	{r4, pc}

000091a8 <delay_us>:
    91a8:	e92d4070 	push	{r4, r5, r6, lr}
    91ac:	e1a05000 	mov	r5, r0
    91b0:	ebfffff9 	bl	919c <timer_get_usec>
    91b4:	e1a04000 	mov	r4, r0
    91b8:	ebfffff7 	bl	919c <timer_get_usec>
    91bc:	e0400004 	sub	r0, r0, r4
    91c0:	e1500005 	cmp	r0, r5
    91c4:	3afffffb 	bcc	91b8 <delay_us+0x10>
    91c8:	e8bd8070 	pop	{r4, r5, r6, pc}

000091cc <delay_ms>:
    91cc:	e92d4010 	push	{r4, lr}
    91d0:	e0603280 	rsb	r3, r0, r0, lsl #5
    91d4:	e0800103 	add	r0, r0, r3, lsl #2
    91d8:	e1a00180 	lsl	r0, r0, #3
    91dc:	ebfffff1 	bl	91a8 <delay_us>
    91e0:	e8bd8010 	pop	{r4, pc}

000091e4 <delay_sec>:
    91e4:	e92d4010 	push	{r4, lr}
    91e8:	e0603280 	rsb	r3, r0, r0, lsl #5
    91ec:	e0800103 	add	r0, r0, r3, lsl #2
    91f0:	e1a00180 	lsl	r0, r0, #3
    91f4:	ebfffff4 	bl	91cc <delay_ms>
    91f8:	e8bd8010 	pop	{r4, pc}

000091fc <put32>:
    91fc:	e5801000 	str	r1, [r0]
    9200:	e12fff1e 	bx	lr

00009204 <PUT32>:
    9204:	e5801000 	str	r1, [r0]
    9208:	e12fff1e 	bx	lr

0000920c <put16>:
    920c:	e1c010b0 	strh	r1, [r0]
    9210:	e12fff1e 	bx	lr

00009214 <PUT16>:
    9214:	e1c010b0 	strh	r1, [r0]
    9218:	e12fff1e 	bx	lr

0000921c <put8>:
    921c:	e5c01000 	strb	r1, [r0]
    9220:	e12fff1e 	bx	lr

00009224 <PUT8>:
    9224:	e5c01000 	strb	r1, [r0]
    9228:	e12fff1e 	bx	lr

0000922c <get32>:
    922c:	e5900000 	ldr	r0, [r0]
    9230:	e12fff1e 	bx	lr

00009234 <GET32>:
    9234:	e5900000 	ldr	r0, [r0]
    9238:	e12fff1e 	bx	lr

0000923c <GETPC>:
    923c:	e1a0000e 	mov	r0, lr
    9240:	e12fff1e 	bx	lr

00009244 <dummy>:
    9244:	e12fff1e 	bx	lr

00009248 <or_in32>:
    9248:	e92d4070 	push	{r4, r5, r6, lr}
    924c:	e1a04000 	mov	r4, r0
    9250:	e1a05001 	mov	r5, r1
    9254:	ebfffff4 	bl	922c <get32>
    9258:	e1801005 	orr	r1, r0, r5
    925c:	e1a00004 	mov	r0, r4
    9260:	ebffffe5 	bl	91fc <put32>
    9264:	e8bd8070 	pop	{r4, r5, r6, pc}

00009268 <uart_init>:
    9268:	e92d4010 	push	{r4, lr}
    926c:	e3a01002 	mov	r1, #2
    9270:	e3a0000e 	mov	r0, #14
    9274:	eb000051 	bl	93c0 <gpio_set_function>
    9278:	e3a01002 	mov	r1, #2
    927c:	e3a0000f 	mov	r0, #15
    9280:	eb00004e 	bl	93c0 <gpio_set_function>
    9284:	eb0000fa 	bl	9674 <dev_barrier>
    9288:	e3a01001 	mov	r1, #1
    928c:	e59f0064 	ldr	r0, [pc, #100]	; 92f8 <uart_init+0x90>
    9290:	ebffffec 	bl	9248 <or_in32>
    9294:	eb0000f6 	bl	9674 <dev_barrier>
    9298:	e59f405c 	ldr	r4, [pc, #92]	; 92fc <uart_init+0x94>
    929c:	e3a01000 	mov	r1, #0
    92a0:	e1a00004 	mov	r0, r4
    92a4:	ebffffd4 	bl	91fc <put32>
    92a8:	e3a01000 	mov	r1, #0
    92ac:	e59f004c 	ldr	r0, [pc, #76]	; 9300 <uart_init+0x98>
    92b0:	ebffffd1 	bl	91fc <put32>
    92b4:	e3a01003 	mov	r1, #3
    92b8:	e59f0044 	ldr	r0, [pc, #68]	; 9304 <uart_init+0x9c>
    92bc:	ebffffce 	bl	91fc <put32>
    92c0:	e3a01000 	mov	r1, #0
    92c4:	e59f003c 	ldr	r0, [pc, #60]	; 9308 <uart_init+0xa0>
    92c8:	ebffffcb 	bl	91fc <put32>
    92cc:	e3a010c7 	mov	r1, #199	; 0xc7
    92d0:	e59f0034 	ldr	r0, [pc, #52]	; 930c <uart_init+0xa4>
    92d4:	ebffffc8 	bl	91fc <put32>
    92d8:	e59f1030 	ldr	r1, [pc, #48]	; 9310 <uart_init+0xa8>
    92dc:	e59f0030 	ldr	r0, [pc, #48]	; 9314 <uart_init+0xac>
    92e0:	ebffffc5 	bl	91fc <put32>
    92e4:	e3a01003 	mov	r1, #3
    92e8:	e1a00004 	mov	r0, r4
    92ec:	ebffffc2 	bl	91fc <put32>
    92f0:	eb0000df 	bl	9674 <dev_barrier>
    92f4:	e8bd8010 	pop	{r4, pc}
    92f8:	20215004 	eorcs	r5, r1, r4
    92fc:	20215060 	eorcs	r5, r1, r0, rrx
    9300:	20215044 	eorcs	r5, r1, r4, asr #32
    9304:	2021504c 	eorcs	r5, r1, ip, asr #32
    9308:	20215050 	eorcs	r5, r1, r0, asr r0
    930c:	20215048 	eorcs	r5, r1, r8, asr #32
    9310:	0000010e 	andeq	r0, r0, lr, lsl #2
    9314:	20215068 	eorcs	r5, r1, r8, rrx

00009318 <uart_can_getc>:
    9318:	e92d4010 	push	{r4, lr}
    931c:	e59f0008 	ldr	r0, [pc, #8]	; 932c <uart_can_getc+0x14>
    9320:	ebffffc1 	bl	922c <get32>
    9324:	e2000001 	and	r0, r0, #1
    9328:	e8bd8010 	pop	{r4, pc}
    932c:	20215064 	eorcs	r5, r1, r4, rrx

00009330 <uart_can_putc>:
    9330:	e92d4010 	push	{r4, lr}
    9334:	e59f0010 	ldr	r0, [pc, #16]	; 934c <uart_can_putc+0x1c>
    9338:	ebffffbb 	bl	922c <get32>
    933c:	e3100002 	tst	r0, #2
    9340:	13a00001 	movne	r0, #1
    9344:	03a00000 	moveq	r0, #0
    9348:	e8bd8010 	pop	{r4, pc}
    934c:	20215064 	eorcs	r5, r1, r4, rrx

00009350 <uart_getc>:
    9350:	e92d4010 	push	{r4, lr}
    9354:	eb0000c6 	bl	9674 <dev_barrier>
    9358:	ebffffee 	bl	9318 <uart_can_getc>
    935c:	e3500000 	cmp	r0, #0
    9360:	0afffffc 	beq	9358 <uart_getc+0x8>
    9364:	e59f0010 	ldr	r0, [pc, #16]	; 937c <uart_getc+0x2c>
    9368:	ebffffaf 	bl	922c <get32>
    936c:	e6ef4070 	uxtb	r4, r0
    9370:	eb0000bf 	bl	9674 <dev_barrier>
    9374:	e1a00004 	mov	r0, r4
    9378:	e8bd8010 	pop	{r4, pc}
    937c:	20215040 	eorcs	r5, r1, r0, asr #32

00009380 <uart_putc>:
    9380:	e92d4010 	push	{r4, lr}
    9384:	e1a04000 	mov	r4, r0
    9388:	eb0000b9 	bl	9674 <dev_barrier>
    938c:	ebffffe7 	bl	9330 <uart_can_putc>
    9390:	e3500000 	cmp	r0, #0
    9394:	0afffffc 	beq	938c <uart_putc+0xc>
    9398:	e6ef1074 	uxtb	r1, r4
    939c:	e59f0008 	ldr	r0, [pc, #8]	; 93ac <uart_putc+0x2c>
    93a0:	ebffff95 	bl	91fc <put32>
    93a4:	eb0000b2 	bl	9674 <dev_barrier>
    93a8:	e8bd8010 	pop	{r4, pc}
    93ac:	20215040 	eorcs	r5, r1, r0, asr #32

000093b0 <uart_has_data>:
    93b0:	e92d4010 	push	{r4, lr}
    93b4:	eb0000ae 	bl	9674 <dev_barrier>
    93b8:	ebffffd6 	bl	9318 <uart_can_getc>
    93bc:	e8bd8010 	pop	{r4, pc}

000093c0 <gpio_set_function>:
    93c0:	e350001f 	cmp	r0, #31
    93c4:	812fff1e 	bxhi	lr
    93c8:	e3d13007 	bics	r3, r1, #7
    93cc:	112fff1e 	bxne	lr
    93d0:	e92d4070 	push	{r4, r5, r6, lr}
    93d4:	e1a05001 	mov	r5, r1
    93d8:	e59f3044 	ldr	r3, [pc, #68]	; 9424 <gpio_set_function+0x64>
    93dc:	e0832093 	umull	r2, r3, r3, r0
    93e0:	e1a031a3 	lsr	r3, r3, #3
    93e4:	e1a06003 	mov	r6, r3
    93e8:	e0833103 	add	r3, r3, r3, lsl #2
    93ec:	e1a02083 	lsl	r2, r3, #1
    93f0:	e0403002 	sub	r3, r0, r2
    93f4:	e0834083 	add	r4, r3, r3, lsl #1
    93f8:	e2866302 	add	r6, r6, #134217728	; 0x8000000
    93fc:	e2866702 	add	r6, r6, #524288	; 0x80000
    9400:	e1a06106 	lsl	r6, r6, #2
    9404:	e1a00006 	mov	r0, r6
    9408:	ebffff89 	bl	9234 <GET32>
    940c:	e3a01007 	mov	r1, #7
    9410:	e1c01411 	bic	r1, r0, r1, lsl r4
    9414:	e1811415 	orr	r1, r1, r5, lsl r4
    9418:	e1a00006 	mov	r0, r6
    941c:	ebffff78 	bl	9204 <PUT32>
    9420:	e8bd8070 	pop	{r4, r5, r6, pc}
    9424:	cccccccd 	stclgt	12, cr12, [ip], {205}	; 0xcd

00009428 <gpio_set_output>:
    9428:	e92d4010 	push	{r4, lr}
    942c:	e3a01001 	mov	r1, #1
    9430:	ebffffe2 	bl	93c0 <gpio_set_function>
    9434:	e8bd8010 	pop	{r4, pc}

00009438 <gpio_set_on>:
    9438:	e350001f 	cmp	r0, #31
    943c:	812fff1e 	bxhi	lr
    9440:	e92d4010 	push	{r4, lr}
    9444:	e3a01001 	mov	r1, #1
    9448:	e1a01011 	lsl	r1, r1, r0
    944c:	e59f0004 	ldr	r0, [pc, #4]	; 9458 <gpio_set_on+0x20>
    9450:	ebffff6b 	bl	9204 <PUT32>
    9454:	e8bd8010 	pop	{r4, pc}
    9458:	2020001c 	eorcs	r0, r0, ip, lsl r0

0000945c <gpio_set_off>:
    945c:	e350001f 	cmp	r0, #31
    9460:	812fff1e 	bxhi	lr
    9464:	e92d4010 	push	{r4, lr}
    9468:	e3a01001 	mov	r1, #1
    946c:	e1a01011 	lsl	r1, r1, r0
    9470:	e59f0004 	ldr	r0, [pc, #4]	; 947c <gpio_set_off+0x20>
    9474:	ebffff62 	bl	9204 <PUT32>
    9478:	e8bd8010 	pop	{r4, pc}
    947c:	20200028 	eorcs	r0, r0, r8, lsr #32

00009480 <gpio_set_input>:
    9480:	e92d4010 	push	{r4, lr}
    9484:	e3a01000 	mov	r1, #0
    9488:	ebffffcc 	bl	93c0 <gpio_set_function>
    948c:	e8bd8010 	pop	{r4, pc}

00009490 <gpio_write>:
    9490:	e92d4010 	push	{r4, lr}
    9494:	e3510000 	cmp	r1, #0
    9498:	1a000001 	bne	94a4 <gpio_write+0x14>
    949c:	ebffffee 	bl	945c <gpio_set_off>
    94a0:	e8bd8010 	pop	{r4, pc}
    94a4:	ebffffe3 	bl	9438 <gpio_set_on>
    94a8:	e8bd8010 	pop	{r4, pc}

000094ac <gpio_read>:
    94ac:	e350001f 	cmp	r0, #31
    94b0:	8a000007 	bhi	94d4 <gpio_read+0x28>
    94b4:	e92d4010 	push	{r4, lr}
    94b8:	e200401f 	and	r4, r0, #31
    94bc:	e59f3018 	ldr	r3, [pc, #24]	; 94dc <gpio_read+0x30>
    94c0:	e08302a0 	add	r0, r3, r0, lsr #5
    94c4:	ebffff5a 	bl	9234 <GET32>
    94c8:	e1a00430 	lsr	r0, r0, r4
    94cc:	e2000001 	and	r0, r0, #1
    94d0:	e8bd8010 	pop	{r4, pc}
    94d4:	e3e00000 	mvn	r0, #0
    94d8:	e12fff1e 	bx	lr
    94dc:	20200034 	eorcs	r0, r0, r4, lsr r0

000094e0 <kmalloc_heap_end>:
    94e0:	e59f3004 	ldr	r3, [pc, #4]	; 94ec <kmalloc_heap_end+0xc>
    94e4:	e5930000 	ldr	r0, [r3]
    94e8:	e12fff1e 	bx	lr
    94ec:	00009694 	muleq	r0, r4, r6

000094f0 <kmalloc_heap_start>:
    94f0:	e59f0000 	ldr	r0, [pc]	; 94f8 <kmalloc_heap_start+0x8>
    94f4:	e12fff1e 	bx	lr
    94f8:	0000a070 	andeq	sl, r0, r0, ror r0

000094fc <kmalloc_init_set_start>:
    94fc:	e59f3038 	ldr	r3, [pc, #56]	; 953c <kmalloc_init_set_start+0x40>
    9500:	e5933000 	ldr	r3, [r3]
    9504:	e1500003 	cmp	r0, r3
    9508:	9a000003 	bls	951c <kmalloc_init_set_start+0x20>
    950c:	e59f3028 	ldr	r3, [pc, #40]	; 953c <kmalloc_init_set_start+0x40>
    9510:	e5830000 	str	r0, [r3]
    9514:	e5830004 	str	r0, [r3, #4]
    9518:	e12fff1e 	bx	lr
    951c:	e92d4010 	push	{r4, lr}
    9520:	ebfffd80 	bl	8b28 <rpi_reset_putc>
    9524:	e3a03016 	mov	r3, #22
    9528:	e59f2010 	ldr	r2, [pc, #16]	; 9540 <kmalloc_init_set_start+0x44>
    952c:	e59f1010 	ldr	r1, [pc, #16]	; 9544 <kmalloc_init_set_start+0x48>
    9530:	e59f0010 	ldr	r0, [pc, #16]	; 9548 <kmalloc_init_set_start+0x4c>
    9534:	ebfffd60 	bl	8abc <printk>
    9538:	ebfffed9 	bl	90a4 <clean_reboot>
    953c:	00009694 	muleq	r0, r4, r6
    9540:	00009b44 	andeq	r9, r0, r4, asr #22
    9544:	00009b74 	andeq	r9, r0, r4, ror fp
    9548:	00009b80 	andeq	r9, r0, r0, lsl #23

0000954c <kmalloc>:
    954c:	e92d4010 	push	{r4, lr}
    9550:	e3500000 	cmp	r0, #0
    9554:	0a00000a 	beq	9584 <kmalloc+0x38>
    9558:	e2802007 	add	r2, r0, #7
    955c:	e3c22007 	bic	r2, r2, #7
    9560:	e59f3038 	ldr	r3, [pc, #56]	; 95a0 <kmalloc+0x54>
    9564:	e5934000 	ldr	r4, [r3]
    9568:	e0841002 	add	r1, r4, r2
    956c:	e5831000 	str	r1, [r3]
    9570:	e3a01000 	mov	r1, #0
    9574:	e1a00004 	mov	r0, r4
    9578:	ebfffd49 	bl	8aa4 <memset>
    957c:	e1a00004 	mov	r0, r4
    9580:	e8bd8010 	pop	{r4, pc}
    9584:	ebfffd67 	bl	8b28 <rpi_reset_putc>
    9588:	e3a0301b 	mov	r3, #27
    958c:	e59f2010 	ldr	r2, [pc, #16]	; 95a4 <kmalloc+0x58>
    9590:	e59f1010 	ldr	r1, [pc, #16]	; 95a8 <kmalloc+0x5c>
    9594:	e59f0010 	ldr	r0, [pc, #16]	; 95ac <kmalloc+0x60>
    9598:	ebfffd47 	bl	8abc <printk>
    959c:	ebfffec0 	bl	90a4 <clean_reboot>
    95a0:	00009694 	muleq	r0, r4, r6
    95a4:	00009b5c 	andeq	r9, r0, ip, asr fp
    95a8:	00009b74 	andeq	r9, r0, r4, ror fp
    95ac:	00009b9c 	muleq	r0, ip, fp

000095b0 <kmalloc_init>:
    95b0:	e12fff1e 	bx	lr

000095b4 <kmalloc_heap_ptr>:
    95b4:	e92d4010 	push	{r4, lr}
    95b8:	ebffffcc 	bl	94f0 <kmalloc_heap_start>
    95bc:	e8bd8010 	pop	{r4, pc}

000095c0 <kmalloc_aligned>:
    95c0:	e92d4010 	push	{r4, lr}
    95c4:	e2613000 	rsb	r3, r1, #0
    95c8:	e1d12003 	bics	r2, r1, r3
    95cc:	1a00000b 	bne	9600 <kmalloc_aligned+0x40>
    95d0:	e59f2060 	ldr	r2, [pc, #96]	; 9638 <kmalloc_aligned+0x78>
    95d4:	e5922000 	ldr	r2, [r2]
    95d8:	e0812002 	add	r2, r1, r2
    95dc:	e2422001 	sub	r2, r2, #1
    95e0:	e0033002 	and	r3, r3, r2
    95e4:	e2411001 	sub	r1, r1, #1
    95e8:	e1130001 	tst	r3, r1
    95ec:	1a00000a 	bne	961c <kmalloc_aligned+0x5c>
    95f0:	e59f2040 	ldr	r2, [pc, #64]	; 9638 <kmalloc_aligned+0x78>
    95f4:	e5823000 	str	r3, [r2]
    95f8:	ebffffd3 	bl	954c <kmalloc>
    95fc:	e8bd8010 	pop	{r4, pc}
    9600:	ebfffd48 	bl	8b28 <rpi_reset_putc>
    9604:	e3a0302a 	mov	r3, #42	; 0x2a
    9608:	e59f202c 	ldr	r2, [pc, #44]	; 963c <kmalloc_aligned+0x7c>
    960c:	e59f102c 	ldr	r1, [pc, #44]	; 9640 <kmalloc_aligned+0x80>
    9610:	e59f002c 	ldr	r0, [pc, #44]	; 9644 <kmalloc_aligned+0x84>
    9614:	ebfffd28 	bl	8abc <printk>
    9618:	ebfffea1 	bl	90a4 <clean_reboot>
    961c:	ebfffd41 	bl	8b28 <rpi_reset_putc>
    9620:	e3a03030 	mov	r3, #48	; 0x30
    9624:	e59f2010 	ldr	r2, [pc, #16]	; 963c <kmalloc_aligned+0x7c>
    9628:	e59f1010 	ldr	r1, [pc, #16]	; 9640 <kmalloc_aligned+0x80>
    962c:	e59f0014 	ldr	r0, [pc, #20]	; 9648 <kmalloc_aligned+0x88>
    9630:	ebfffd21 	bl	8abc <printk>
    9634:	ebfffe9a 	bl	90a4 <clean_reboot>
    9638:	00009694 	muleq	r0, r4, r6
    963c:	00009b64 	andeq	r9, r0, r4, ror #22
    9640:	00009b74 	andeq	r9, r0, r4, ror fp
    9644:	00009bb0 			; <UNDEFINED> instruction: 0x00009bb0
    9648:	00009c10 	andeq	r9, r0, r0, lsl ip

0000964c <kfree>:
    964c:	e12fff1e 	bx	lr

00009650 <kfree_all>:
    9650:	e59f3008 	ldr	r3, [pc, #8]	; 9660 <kfree_all+0x10>
    9654:	e5932004 	ldr	r2, [r3, #4]
    9658:	e5832000 	str	r2, [r3]
    965c:	e12fff1e 	bx	lr
    9660:	00009694 	muleq	r0, r4, r6

00009664 <kfree_after>:
    9664:	e59f3004 	ldr	r3, [pc, #4]	; 9670 <kfree_after+0xc>
    9668:	e5830000 	str	r0, [r3]
    966c:	e12fff1e 	bx	lr
    9670:	00009694 	muleq	r0, r4, r6

00009674 <dev_barrier>:
    9674:	ea000002 	b	9684 <dsb>

00009678 <dmb>:
    9678:	e3a00000 	mov	r0, #0
    967c:	ee070fba 	mcr	15, 0, r0, cr7, cr10, {5}
    9680:	e12fff1e 	bx	lr

00009684 <dsb>:
    9684:	ee070f9a 	mcr	15, 0, r0, cr7, cr10, {4}
    9688:	e12fff1e 	bx	lr

Disassembly of section .data:

0000968c <rpi_putchar>:
    968c:	00008b14 	andeq	r8, r0, r4, lsl fp

00009690 <putk>:
    9690:	00008b50 	andeq	r8, r0, r0, asr fp

00009694 <heap>:
    9694:	0000a070 	andeq	sl, r0, r0, ror r0

00009698 <heap_start>:
    9698:	0000a070 	andeq	sl, r0, r0, ror r0

Disassembly of section .rodata:

0000969c <__FUNCTION__.4337-0x8c>:
    969c:	74736574 	ldrbtvc	r6, [r3], #-1396	; 0xfffffa8c
    96a0:	75203a33 	strvc	r3, [r0, #-2611]!	; 0xfffff5cd
    96a4:	61206573 			; <UNDEFINED> instruction: 0x61206573
    96a8:	72657466 	rsbvc	r7, r5, #1711276032	; 0x66000000
    96ac:	65726620 	ldrbvs	r6, [r2, #-1568]!	; 0xfffff9e0
    96b0:	00000a65 	andeq	r0, r0, r5, ror #20
    96b4:	74726170 	ldrbtvc	r6, [r2], #-368	; 0xfffffe90
    96b8:	65742d31 	ldrbvs	r2, [r4, #-3377]!	; 0xfffff2cf
    96bc:	2e337473 	mrccs	4, 1, r7, cr3, cr3, {3}
    96c0:	00000063 	andeq	r0, r0, r3, rrx
    96c4:	494e4150 	stmdbmi	lr, {r4, r6, r8, lr}^
    96c8:	73253a43 			; <UNDEFINED> instruction: 0x73253a43
    96cc:	3a73253a 	bcc	1cd2bbc <__bss_end__+0x1cc8b4c>
    96d0:	693a6425 	ldmdbvs	sl!, {r0, r2, r5, sl, sp, lr}
    96d4:	6c61766e 	stclvs	6, cr7, [r1], #-440	; 0xfffffe48
    96d8:	65206469 	strvs	r6, [r0, #-1129]!	; 0xfffffb97
    96dc:	726f7272 	rsbvc	r7, pc, #536870919	; 0x20000007
    96e0:	6168203a 	cmnvs	r8, sl, lsr r0
    96e4:	25206576 	strcs	r6, [r0, #-1398]!	; 0xfffffa8a
    96e8:	72652064 	rsbvc	r2, r5, #100	; 0x64
    96ec:	73726f72 	cmnvc	r2, #456	; 0x1c8
    96f0:	70786520 	rsbsvc	r6, r8, r0, lsr #10
    96f4:	65746365 	ldrbvs	r6, [r4, #-869]!	; 0xfffffc9b
    96f8:	21312064 	teqcs	r1, r4, rrx
    96fc:	000a0a21 	andeq	r0, sl, r1, lsr #20
    9700:	43415254 	movtmi	r5, #4692	; 0x1254
    9704:	00003a45 	andeq	r3, r0, r5, asr #20
    9708:	43435553 	movtmi	r5, #13651	; 0x3553
    970c:	3a535345 	bcc	14de428 <__bss_end__+0x14d43b8>
    9710:	74656420 	strbtvc	r6, [r5], #-1056	; 0xfffffbe0
    9714:	65746365 	ldrbvs	r6, [r4, #-869]!	; 0xfffffc9b
    9718:	6f632064 	svcvs	0x00632064
    971c:	70757272 	rsbsvc	r7, r5, r2, ror r2
    9720:	6e6f6974 			; <UNDEFINED> instruction: 0x6e6f6974
    9724:	0000000a 	andeq	r0, r0, sl

00009728 <__FUNCTION__.4337>:
    9728:	6d746f6e 	ldclvs	15, cr6, [r4, #-440]!	; 0xfffffe48
    972c:	006e6961 	rsbeq	r6, lr, r1, ror #18
    9730:	4f525245 	svcmi	0x00525245
    9734:	00003a52 	andeq	r3, r0, r2, asr sl
    9738:	636f6c62 	cmnvs	pc, #25088	; 0x6200
    973c:	7025206b 	eorvc	r2, r5, fp, rrx
    9740:	726f6320 	rsbvc	r6, pc, #32, 6	; 0x80000000
    9744:	74707572 	ldrbtvc	r7, [r0], #-1394	; 0xfffffa8e
    9748:	61206465 			; <UNDEFINED> instruction: 0x61206465
    974c:	666f2074 			; <UNDEFINED> instruction: 0x666f2074
    9750:	74657366 	strbtvc	r7, [r5], #-870	; 0xfffffc9a
    9754:	0a642520 	beq	1912bdc <__bss_end__+0x1908b6c>
    9758:	00000000 	andeq	r0, r0, r0
    975c:	79626e09 	stmdbvc	r2!, {r0, r3, r9, sl, fp, sp, lr}^
    9760:	3d736574 	cfldr64cc	mvdx6, [r3, #-464]!	; 0xfffffe30
    9764:	000a6425 	andeq	r6, sl, r5, lsr #8
    9768:	6f6c4209 	svcvs	0x006c4209
    976c:	61206b63 			; <UNDEFINED> instruction: 0x61206b63
    9770:	636f6c6c 	cmnvs	pc, #108, 24	; 0x6c00
    9774:	64657461 	strbtvs	r7, [r5], #-1121	; 0xfffffb9f
    9778:	3a746120 	bcc	1d21c00 <__bss_end__+0x1d17b90>
    977c:	3a732520 	bcc	1cd2c04 <__bss_end__+0x1cc8b94>
    9780:	253a7325 	ldrcs	r7, [sl, #-805]!	; 0xfffffcdb
    9784:	00000a64 	andeq	r0, r0, r4, ror #20
    9788:	6f6c4209 	svcvs	0x006c4209
    978c:	66206b63 	strtvs	r6, [r0], -r3, ror #22
    9790:	64656572 	strbtvs	r6, [r5], #-1394	; 0xfffffa8e
    9794:	3a746120 	bcc	1d21c1c <__bss_end__+0x1d17bac>
    9798:	3a732520 	bcc	1cd2c20 <__bss_end__+0x1cc8bb0>
    979c:	253a7325 	ldrcs	r7, [sl, #-805]!	; 0xfffffcdb
    97a0:	00000a64 	andeq	r0, r0, r4, ror #20
    97a4:	6f725709 	svcvs	0x00725709
    97a8:	62206574 	eorvs	r6, r0, #116, 10	; 0x1d000000
    97ac:	6b636f6c 	blvs	18e5564 <__bss_end__+0x18db4f4>
    97b0:	74666120 	strbtvc	r6, [r6], #-288	; 0xfffffee0
    97b4:	66207265 	strtvs	r7, [r0], -r5, ror #4
    97b8:	21656572 	smccs	22098	; 0x5652
    97bc:	0000000a 	andeq	r0, r0, sl
    97c0:	6c616b63 			; <UNDEFINED> instruction: 0x6c616b63
    97c4:	2e636f6c 	cdpcs	15, 6, cr6, cr3, cr12, {3}
    97c8:	00000063 	andeq	r0, r0, r3, rrx
    97cc:	494e4150 	stmdbmi	lr, {r4, r6, r8, lr}^
    97d0:	73253a43 			; <UNDEFINED> instruction: 0x73253a43
    97d4:	3a73253a 	bcc	1cd2cc4 <__bss_end__+0x1cc8c54>
    97d8:	613a6425 	teqvs	sl, r5, lsr #8
    97dc:	6e67696c 	vnmulvs.f16	s13, s14, s25	; <UNPREDICTABLE>
    97e0:	68286465 	stmdavs	r8!, {r0, r2, r5, r6, sl, sp, lr}
    97e4:	5f706165 	svcpl	0x00706165
    97e8:	72617473 	rsbvc	r7, r1, #1929379840	; 0x73000000
    97ec:	38202c74 	stmdacc	r0!, {r2, r4, r5, r6, sl, fp, sp}
    97f0:	00000a29 	andeq	r0, r0, r9, lsr #20
    97f4:	657a6973 	ldrbvs	r6, [sl, #-2419]!	; 0xfffff68d
    97f8:	6820666f 	stmdavs	r0!, {r0, r1, r2, r3, r5, r6, r9, sl, sp, lr}
    97fc:	253d7264 	ldrcs	r7, [sp, #-612]!	; 0xfffffd9c
    9800:	72202c64 	eorvc	r2, r0, #100, 24	; 0x6400
    9804:	6f7a6465 	svcvs	0x007a6465
    9808:	253d656e 	ldrcs	r6, [sp, #-1390]!	; 0xfffffa92
    980c:	00000a64 	andeq	r0, r0, r4, ror #20
    9810:	4f525245 	svcmi	0x00525245
    9814:	73253a52 			; <UNDEFINED> instruction: 0x73253a52
    9818:	3a73253a 	bcc	1cd2d08 <__bss_end__+0x1cc8c98>
    981c:	203a6425 	eorscs	r6, sl, r5, lsr #8
    9820:	534c4146 	movtpl	r4, #49478	; 0xc146
    9824:	683c2845 	ldmdavs	ip!, {r0, r2, r6, fp, sp}
    9828:	3e706165 	rpwccsz	f6, f0, f5
    982c:	6e203a29 	vmulvs.f32	s6, s0, s19
    9830:	6920746f 	stmdbvs	r0!, {r0, r1, r2, r3, r5, r6, sl, ip, sp, lr}
    9834:	6974696e 	ldmdbvs	r4!, {r1, r2, r3, r5, r6, r8, fp, sp, lr}^
    9838:	7a696c61 	bvc	1a649c4 <__bss_end__+0x1a5a954>
    983c:	0a3f6465 	beq	fe29d8 <__bss_end__+0xfd8968>
    9840:	00000000 	andeq	r0, r0, r0
    9844:	65657266 	strbvs	r7, [r5, #-614]!	; 0xfffffd9a
    9848:	20676e69 	rsbcs	r6, r7, r9, ror #28
    984c:	000a7025 	andeq	r7, sl, r5, lsr #32
    9850:	6f6c6c61 	svcvs	0x006c6c61
    9854:	69746163 	ldmdbvs	r4!, {r0, r1, r5, r6, r8, sp, lr}^
    9858:	2520676e 	strcs	r6, [r0, #-1902]!	; 0xfffff892
    985c:	79622064 	stmdbvc	r2!, {r2, r5, r6, sp}^
    9860:	0a736574 	beq	1ce2e38 <__bss_end__+0x1cd8dc8>
    9864:	00000000 	andeq	r0, r0, r0
    9868:	43415254 	movtmi	r5, #4692	; 0x1254
    986c:	52453a45 	subpl	r3, r5, #282624	; 0x45000
    9870:	00524f52 	subseq	r4, r2, r2, asr pc
    9874:	657a6973 	ldrbvs	r6, [sl, #-2419]!	; 0xfffff68d
    9878:	65766f20 	ldrbvs	r6, [r6, #-3872]!	; 0xfffff0e0
    987c:	6f6c6672 	svcvs	0x006c6672
    9880:	3a646577 	bcc	1922e64 <__bss_end__+0x1918df4>
    9884:	20642520 	rsbcs	r2, r4, r0, lsr #10
    9888:	65747962 	ldrbvs	r7, [r4, #-2402]!	; 0xfffff69e
    988c:	73692073 	cmnvc	r9, #115	; 0x73
    9890:	6f6f7420 	svcvs	0x006f7420
    9894:	72616c20 	rsbvc	r6, r1, #32, 24	; 0x2000
    9898:	000a6567 	andeq	r6, sl, r7, ror #10
    989c:	494e4150 	stmdbmi	lr, {r4, r6, r8, lr}^
    98a0:	73253a43 			; <UNDEFINED> instruction: 0x73253a43
    98a4:	3a73253a 	bcc	1cd2d94 <__bss_end__+0x1cc8d24>
    98a8:	733a6425 	teqvc	sl, #620756992	; 0x25000000
    98ac:	20657a69 	rsbcs	r7, r5, r9, ror #20
    98b0:	7265766f 	rsbvc	r7, r5, #116391936	; 0x6f00000
    98b4:	776f6c66 	strbvc	r6, [pc, -r6, ror #24]!
    98b8:	203a6465 	eorscs	r6, sl, r5, ror #8
    98bc:	62206425 	eorvs	r6, r0, #620756992	; 0x25000000
    98c0:	73657479 	cmnvc	r5, #2030043136	; 0x79000000
    98c4:	20736920 	rsbscs	r6, r3, r0, lsr #18
    98c8:	206f6f74 	rsbcs	r6, pc, r4, ror pc	; <UNPREDICTABLE>
    98cc:	6772616c 	ldrbvs	r6, [r2, -ip, ror #2]!
    98d0:	000a0a65 	andeq	r0, sl, r5, ror #20
    98d4:	2074756f 	rsbscs	r7, r4, pc, ror #10
    98d8:	6d20666f 	stcvs	6, cr6, [r0, #-444]!	; 0xfffffe44
    98dc:	726f6d65 	rsbvc	r6, pc, #6464	; 0x1940
    98e0:	20202179 	eorcs	r2, r0, r9, ror r1
    98e4:	65766168 	ldrbvs	r6, [r6, #-360]!	; 0xfffffe98
    98e8:	6c6e6f20 	stclvs	15, cr6, [lr], #-128	; 0xffffff80
    98ec:	64252079 	strtvs	r2, [r5], #-121	; 0xffffff87
    98f0:	66656c20 	strbtvs	r6, [r5], -r0, lsr #24
    98f4:	6e202c74 	mcrvs	12, 1, r2, cr0, cr4, {3}
    98f8:	20646565 	rsbcs	r6, r4, r5, ror #10
    98fc:	000a6425 	andeq	r6, sl, r5, lsr #8
    9900:	494e4150 	stmdbmi	lr, {r4, r6, r8, lr}^
    9904:	73253a43 			; <UNDEFINED> instruction: 0x73253a43
    9908:	3a73253a 	bcc	1cd2df8 <__bss_end__+0x1cc8d88>
    990c:	6f3a6425 	svcvs	0x003a6425
    9910:	6f207475 	svcvs	0x00207475
    9914:	656d2066 	strbvs	r2, [sp, #-102]!	; 0xffffff9a
    9918:	79726f6d 	ldmdbvc	r2!, {r0, r2, r3, r5, r6, r8, r9, sl, fp, sp, lr}^
    991c:	68202021 	stmdavs	r0!, {r0, r5, sp}
    9920:	20657661 	rsbcs	r7, r5, r1, ror #12
    9924:	796c6e6f 	stmdbvc	ip!, {r0, r1, r2, r3, r5, r6, r9, sl, fp, sp, lr}^
    9928:	20642520 	rsbcs	r2, r4, r0, lsr #10
    992c:	7466656c 	strbtvc	r6, [r6], #-1388	; 0xfffffa94
    9930:	656e202c 	strbvs	r2, [lr, #-44]!	; 0xffffffd4
    9934:	25206465 	strcs	r6, [r0, #-1125]!	; 0xfffffb9b
    9938:	000a0a64 	andeq	r0, sl, r4, ror #20
    993c:	494e4150 	stmdbmi	lr, {r4, r6, r8, lr}^
    9940:	73253a43 			; <UNDEFINED> instruction: 0x73253a43
    9944:	3a73253a 	bcc	1cd2e34 <__bss_end__+0x1cc8dc4>
    9948:	633a6425 	teqvs	sl, #620756992	; 0x25000000
    994c:	6b636568 	blvs	18e2ef4 <__bss_end__+0x18d8e84>
    9950:	6f6c625f 	svcvs	0x006c625f
    9954:	68286b63 	stmdavs	r8!, {r0, r1, r5, r6, r8, r9, fp, sp, lr}
    9958:	00000a29 	andeq	r0, r0, r9, lsr #20
    995c:	6c616b63 			; <UNDEFINED> instruction: 0x6c616b63
    9960:	3a636f6c 	bcc	18e5718 <__bss_end__+0x18db6a8>
    9964:	6f6c6c61 	svcvs	0x006c6c61
    9968:	65746163 	ldrbvs	r6, [r4, #-355]!	; 0xfffffe9d
    996c:	64252064 	strtvs	r2, [r5], #-100	; 0xffffff9c
    9970:	74796220 	ldrbtvc	r6, [r9], #-544	; 0xfffffde0
    9974:	202c7365 	eorcs	r7, ip, r5, ror #6
    9978:	746f7428 	strbtvc	r7, [pc], #-1064	; 9980 <__FUNCTION__.4337+0x258>
    997c:	253d6c61 	ldrcs	r6, [sp, #-3169]!	; 0xfffff39f
    9980:	202c2964 	eorcs	r2, ip, r4, ror #18
    9984:	3d727470 	cfldrdcc	mvd7, [r2, #-448]!	; 0xfffffe40
    9988:	000a7025 	andeq	r7, sl, r5, lsr #32
    998c:	6e696f67 	cdpvs	15, 6, cr6, cr9, cr7, {3}
    9990:	6f742067 	svcvs	0x00742067
    9994:	65686320 	strbvs	r6, [r8, #-800]!	; 0xfffffce0
    9998:	68206b63 	stmdavs	r0!, {r0, r1, r5, r6, r8, r9, fp, sp, lr}
    999c:	3a706165 	bcc	1c21f38 <__bss_end__+0x1c17ec8>
    99a0:	20642520 	rsbcs	r2, r4, r0, lsr #10
    99a4:	65747962 	ldrbvs	r7, [r4, #-2402]!	; 0xfffff69e
    99a8:	6c612073 	stclvs	0, cr2, [r1], #-460	; 0xfffffe34
    99ac:	61636f6c 	cmnvs	r3, ip, ror #30
    99b0:	2c646574 	cfstr64cs	mvdx6, [r4], #-464	; 0xfffffe30
    99b4:	20642520 	rsbcs	r2, r4, r0, lsr #10
    99b8:	65747962 	ldrbvs	r7, [r4, #-2402]!	; 0xfffff69e
    99bc:	656c2073 	strbvs	r2, [ip, #-115]!	; 0xffffff8d
    99c0:	000a7466 	andeq	r7, sl, r6, ror #8
    99c4:	63656863 	cmnvs	r5, #6488064	; 0x630000
    99c8:	2064656b 	rsbcs	r6, r4, fp, ror #10
    99cc:	62206425 	eorvs	r6, r0, #620756992	; 0x25000000
    99d0:	6b636f6c 	blvs	18e5788 <__bss_end__+0x18db718>
    99d4:	64202c73 	strtvs	r2, [r0], #-3187	; 0xfffff38d
    99d8:	63657465 	cmnvs	r5, #1694498816	; 0x65000000
    99dc:	20646574 	rsbcs	r6, r4, r4, ror r5
    99e0:	65206425 	strvs	r6, [r0, #-1061]!	; 0xfffffbdb
    99e4:	726f7272 	rsbvc	r7, pc, #536870919	; 0x20000007
    99e8:	00000a73 	andeq	r0, r0, r3, ror sl
    99ec:	43435553 	movtmi	r5, #13651	; 0x3553
    99f0:	3a535345 	bcc	14de70c <__bss_end__+0x14d469c>
    99f4:	65686320 	strbvs	r6, [r8, #-800]!	; 0xfffffce0
    99f8:	64656b63 	strbtvs	r6, [r5], #-2915	; 0xfffff49d
    99fc:	20642520 	rsbcs	r2, r4, r0, lsr #10
    9a00:	636f6c62 	cmnvs	pc, #25088	; 0x6200
    9a04:	202c736b 	eorcs	r7, ip, fp, ror #6
    9a08:	65746564 	ldrbvs	r6, [r4, #-1380]!	; 0xfffffa9c
    9a0c:	64657463 	strbtvs	r7, [r5], #-1123	; 0xfffffb9d
    9a10:	206f6e20 	rsbcs	r6, pc, r0, lsr #28
    9a14:	6f727265 	svcvs	0x00727265
    9a18:	000a7372 	andeq	r7, sl, r2, ror r3

00009a1c <__FUNCTION__.4339>:
    9a1c:	695f6b63 	ldmdbvs	pc, {r0, r1, r5, r6, r8, r9, fp, sp, lr}^	; <UNPREDICTABLE>
    9a20:	0074696e 	rsbseq	r6, r4, lr, ror #18

00009a24 <__FUNCTION__.4397>:
    9a24:	72666b63 	rsbvc	r6, r6, #101376	; 0x18c00
    9a28:	00006565 	andeq	r6, r0, r5, ror #10

00009a2c <__FUNCTION__.4407>:
    9a2c:	6c616b63 			; <UNDEFINED> instruction: 0x6c616b63
    9a30:	00636f6c 	rsbeq	r6, r3, ip, ror #30
    9a34:	6362696c 	cmnvs	r2, #108, 18	; 0x1b0000
    9a38:	2d61762f 	stclcs	6, cr7, [r1, #-188]!	; 0xffffff44
    9a3c:	6e697270 	mcrvs	2, 3, r7, cr9, cr0, {3}
    9a40:	632e6b74 			; <UNDEFINED> instruction: 0x632e6b74
    9a44:	00000000 	andeq	r0, r0, r0
    9a48:	494e4150 	stmdbmi	lr, {r4, r6, r8, lr}^
    9a4c:	73253a43 			; <UNDEFINED> instruction: 0x73253a43
    9a50:	3a73253a 	bcc	1cd2f40 <__bss_end__+0x1cc8ed0>
    9a54:	303a6425 	eorscc	r6, sl, r5, lsr #8
    9a58:	0000000a 	andeq	r0, r0, sl
    9a5c:	33323130 	teqcc	r2, #48, 2
    9a60:	37363534 			; <UNDEFINED> instruction: 0x37363534
    9a64:	00003938 	andeq	r3, r0, r8, lsr r9
    9a68:	33323130 	teqcc	r2, #48, 2
    9a6c:	37363534 			; <UNDEFINED> instruction: 0x37363534
    9a70:	62613938 	rsbvs	r3, r1, #56, 18	; 0xe0000
    9a74:	66656463 	strbtvs	r6, [r5], -r3, ror #8
    9a78:	00000000 	andeq	r0, r0, r0
    9a7c:	00003130 	andeq	r3, r0, r0, lsr r1
    9a80:	494e4150 	stmdbmi	lr, {r4, r6, r8, lr}^
    9a84:	73253a43 			; <UNDEFINED> instruction: 0x73253a43
    9a88:	3a73253a 	bcc	1cd2f78 <__bss_end__+0x1cc8f08>
    9a8c:	703a6425 	eorsvc	r6, sl, r5, lsr #8
    9a90:	5f637475 	svcpl	0x00637475
    9a94:	000a7066 	andeq	r7, sl, r6, rrx
    9a98:	494e4150 	stmdbmi	lr, {r4, r6, r8, lr}^
    9a9c:	73253a43 			; <UNDEFINED> instruction: 0x73253a43
    9aa0:	3a73253a 	bcc	1cd2f90 <__bss_end__+0x1cc8f20>
    9aa4:	773a6425 	ldrvc	r6, [sl, -r5, lsr #8]!
    9aa8:	68746469 	ldmdavs	r4!, {r0, r3, r5, r6, sl, sp, lr}^
    9aac:	33203c20 			; <UNDEFINED> instruction: 0x33203c20
    9ab0:	00000a32 	andeq	r0, r0, r2, lsr sl
    9ab4:	494e4150 	stmdbmi	lr, {r4, r6, r8, lr}^
    9ab8:	73253a43 			; <UNDEFINED> instruction: 0x73253a43
    9abc:	3a73253a 	bcc	1cd2fac <__bss_end__+0x1cc8f3c>
    9ac0:	663a6425 	ldrtvs	r6, [sl], -r5, lsr #8
    9ac4:	74616f6c 	strbtvc	r6, [r1], #-3948	; 0xfffff094
    9ac8:	746f6e20 	strbtvc	r6, [pc], #-3616	; 9ad0 <__FUNCTION__.4407+0xa4>
    9acc:	616e6520 	cmnvs	lr, r0, lsr #10
    9ad0:	64656c62 	strbtvs	r6, [r5], #-3170	; 0xfffff39e
    9ad4:	0a212121 	beq	851f60 <__bss_end__+0x847ef0>
    9ad8:	00000000 	andeq	r0, r0, r0
    9adc:	494e4150 	stmdbmi	lr, {r4, r6, r8, lr}^
    9ae0:	73253a43 			; <UNDEFINED> instruction: 0x73253a43
    9ae4:	3a73253a 	bcc	1cd2fd4 <__bss_end__+0x1cc8f64>
    9ae8:	703a6425 	eorsvc	r6, sl, r5, lsr #8
    9aec:	746e6972 	strbtvc	r6, [lr], #-2418	; 0xfffff68e
    9af0:	6e203a6b 	vnmulvs.f32	s6, s0, s23
    9af4:	6820746f 	stmdavs	r0!, {r0, r1, r2, r3, r5, r6, sl, ip, sp, lr}
    9af8:	6c646e61 	stclvs	14, cr6, [r4], #-388	; 0xfffffe7c
    9afc:	20676e69 	rsbcs	r6, r7, r9, ror #28
    9b00:	63657073 	cmnvs	r5, #115	; 0x73
    9b04:	65696669 	strbvs	r6, [r9, #-1641]!	; 0xfffff997
    9b08:	25272072 	strcs	r2, [r7, #-114]!	; 0xffffff8e
    9b0c:	0a0a2763 	beq	2938a0 <__bss_end__+0x289830>
    9b10:	00000000 	andeq	r0, r0, r0

00009b14 <__FUNCTION__.4349>:
    9b14:	74696d65 	strbtvc	r6, [r9], #-3429	; 0xfffff29b
    9b18:	00000000 	andeq	r0, r0, r0

00009b1c <__FUNCTION__.4297>:
    9b1c:	5f697072 	svcpl	0x00697072
    9b20:	5f746573 	svcpl	0x00746573
    9b24:	7074756f 	rsbsvc	r7, r4, pc, ror #10
    9b28:	00007475 	andeq	r7, r0, r5, ror r4

00009b2c <__FUNCTION__.4371>:
    9b2c:	705f6176 	subsvc	r6, pc, r6, ror r1	; <UNPREDICTABLE>
    9b30:	746e6972 	strbtvc	r6, [lr], #-2418	; 0xfffff68e
    9b34:	0000006b 	andeq	r0, r0, fp, rrx
    9b38:	454e4f44 	strbmi	r4, [lr, #-3908]	; 0xfffff0bc
    9b3c:	0a212121 	beq	851fc8 <__bss_end__+0x847f58>
    9b40:	00000000 	andeq	r0, r0, r0

00009b44 <__FUNCTION__.4237>:
    9b44:	6c616d6b 	stclvs	13, cr6, [r1], #-428	; 0xfffffe54
    9b48:	5f636f6c 	svcpl	0x00636f6c
    9b4c:	74696e69 	strbtvc	r6, [r9], #-3689	; 0xfffff197
    9b50:	7465735f 	strbtvc	r7, [r5], #-863	; 0xfffffca1
    9b54:	6174735f 	cmnvs	r4, pc, asr r3
    9b58:	00007472 	andeq	r7, r0, r2, ror r4

00009b5c <__FUNCTION__.4241>:
    9b5c:	6c616d6b 	stclvs	13, cr6, [r1], #-428	; 0xfffffe54
    9b60:	00636f6c 	rsbeq	r6, r3, ip, ror #30

00009b64 <__FUNCTION__.4253>:
    9b64:	6c616d6b 	stclvs	13, cr6, [r1], #-428	; 0xfffffe54
    9b68:	5f636f6c 	svcpl	0x00636f6c
    9b6c:	67696c61 	strbvs	r6, [r9, -r1, ror #24]!
    9b70:	0064656e 	rsbeq	r6, r4, lr, ror #10
    9b74:	6c616d6b 	stclvs	13, cr6, [r1], #-428	; 0xfffffe54
    9b78:	2e636f6c 	cdpcs	15, 6, cr6, cr3, cr12, {3}
    9b7c:	00000063 	andeq	r0, r0, r3, rrx
    9b80:	494e4150 	stmdbmi	lr, {r4, r6, r8, lr}^
    9b84:	73253a43 			; <UNDEFINED> instruction: 0x73253a43
    9b88:	3a73253a 	bcc	1cd3078 <__bss_end__+0x1cc9008>
    9b8c:	613a6425 	teqvs	sl, r5, lsr #8
    9b90:	20726464 	rsbscs	r6, r2, r4, ror #8
    9b94:	6568203e 	strbvs	r2, [r8, #-62]!	; 0xffffffc2
    9b98:	000a7061 	andeq	r7, sl, r1, rrx
    9b9c:	494e4150 	stmdbmi	lr, {r4, r6, r8, lr}^
    9ba0:	73253a43 			; <UNDEFINED> instruction: 0x73253a43
    9ba4:	3a73253a 	bcc	1cd3094 <__bss_end__+0x1cc9024>
    9ba8:	733a6425 	teqvc	sl, #620756992	; 0x25000000
    9bac:	00000a7a 	andeq	r0, r0, sl, ror sl
    9bb0:	4f525245 	svcmi	0x00525245
    9bb4:	73253a52 			; <UNDEFINED> instruction: 0x73253a52
    9bb8:	3a73253a 	bcc	1cd30a8 <__bss_end__+0x1cc9038>
    9bbc:	203a6425 	eorscs	r6, sl, r5, lsr #8
    9bc0:	534c4146 	movtpl	r4, #49478	; 0xc146
    9bc4:	283c2845 	ldmdacs	ip!, {r0, r2, r6, fp, sp}
    9bc8:	6c612828 	stclvs	8, cr2, [r1], #-160	; 0xffffff60
    9bcc:	6d6e6769 	stclvs	7, cr6, [lr, #-420]!	; 0xfffffe5c
    9bd0:	29746e65 	ldmdbcs	r4!, {r0, r2, r5, r6, r9, sl, fp, sp, lr}^
    9bd4:	61282d26 			; <UNDEFINED> instruction: 0x61282d26
    9bd8:	6e67696c 	vnmulvs.f16	s13, s14, s25	; <UNPREDICTABLE>
    9bdc:	746e656d 	strbtvc	r6, [lr], #-1389	; 0xfffffa93
    9be0:	3d202929 			; <UNDEFINED> instruction: 0x3d202929
    9be4:	6128203d 			; <UNDEFINED> instruction: 0x6128203d
    9be8:	6e67696c 	vnmulvs.f16	s13, s14, s25	; <UNPREDICTABLE>
    9bec:	746e656d 	strbtvc	r6, [lr], #-1389	; 0xfffffa93
    9bf0:	293e2929 	ldmdbcs	lr!, {r0, r3, r5, r8, fp, sp}
    9bf4:	7361203a 	cmnvc	r1, #58	; 0x3a
    9bf8:	696d7573 	stmdbvs	sp!, {r0, r1, r4, r5, r6, r8, sl, ip, sp, lr}^
    9bfc:	7020676e 	eorvc	r6, r0, lr, ror #14
    9c00:	7265776f 	rsbvc	r7, r5, #29097984	; 0x1bc0000
    9c04:	20666f20 	rsbcs	r6, r6, r0, lsr #30
    9c08:	0a6f7774 	beq	1be79e0 <__bss_end__+0x1bdd970>
    9c0c:	00000000 	andeq	r0, r0, r0
    9c10:	4f525245 	svcmi	0x00525245
    9c14:	73253a52 			; <UNDEFINED> instruction: 0x73253a52
    9c18:	3a73253a 	bcc	1cd3108 <__bss_end__+0x1cc9098>
    9c1c:	203a6425 	eorscs	r6, sl, r5, lsr #8
    9c20:	534c4146 	movtpl	r4, #49478	; 0xc146
    9c24:	283c2845 	ldmdacs	ip!, {r0, r2, r6, fp, sp}
    9c28:	29682828 	stmdbcs	r8!, {r3, r5, fp, sp}^
    9c2c:	28202620 	stmdacs	r0!, {r5, r9, sl, sp}
    9c30:	70797428 	rsbsvc	r7, r9, r8, lsr #8
    9c34:	28666f65 	stmdacs	r6!, {r0, r2, r5, r6, r8, r9, sl, fp, sp, lr}^
    9c38:	28292968 	stmdacs	r9!, {r3, r5, r6, r8, fp, sp}
    9c3c:	67696c61 	strbvs	r6, [r9, -r1, ror #24]!
    9c40:	6e656d6e 	cdpvs	13, 6, cr6, cr5, cr14, {3}
    9c44:	2d202974 			; <UNDEFINED> instruction: 0x2d202974
    9c48:	29293120 	stmdbcs	r9!, {r5, r8, ip, sp}
    9c4c:	203d3d20 	eorscs	r3, sp, r0, lsr #26
    9c50:	293e2930 	ldmdbcs	lr!, {r4, r5, r8, fp, sp}
    9c54:	6d69203a 	stclvs	0, cr2, [r9, #-232]!	; 0xffffff18
    9c58:	73736f70 	cmnvc	r3, #112, 30	; 0x1c0
    9c5c:	656c6269 	strbvs	r6, [ip, #-617]!	; 0xfffffd97
    9c60:	Address 0x0000000000009c60 is out of bounds.


Disassembly of section .bss:

00009c64 <__bss_start__>:
    9c64:	00000000 	andeq	r0, r0, r0

00009c68 <heap>:
    9c68:	00000000 	andeq	r0, r0, r0

00009c6c <heap_end>:
    9c6c:	00000000 	andeq	r0, r0, r0

00009c70 <buf.4297>:
	...

Disassembly of section .ARM.attributes:

00000000 <.ARM.attributes>:
   0:	00002c41 	andeq	r2, r0, r1, asr #24
   4:	61656100 	cmnvs	r5, r0, lsl #2
   8:	01006962 	tsteq	r0, r2, ror #18
   c:	00000022 	andeq	r0, r0, r2, lsr #32
  10:	4b5a3605 	blmi	168d82c <__bss_end__+0x16837bc>
  14:	08070600 	stmdaeq	r7, {r9, sl}
  18:	0a010901 	beq	42424 <__bss_end__+0x383b4>
  1c:	14041202 	strne	r1, [r4], #-514	; 0xfffffdfe
  20:	17011501 	strne	r1, [r1, -r1, lsl #10]
  24:	1a011803 	bne	46038 <__bss_end__+0x3bfc8>
  28:	44012201 	strmi	r2, [r1], #-513	; 0xfffffdff
  2c:	Address 0x000000000000002c is out of bounds.


Disassembly of section .comment:

00000000 <.comment>:
   0:	3a434347 	bcc	10d0d24 <__bss_end__+0x10c6cb4>
   4:	72412820 	subvc	r2, r1, #32, 16	; 0x200000
   8:	52206863 	eorpl	r6, r0, #6488064	; 0x630000
   c:	736f7065 	cmnvc	pc, #101	; 0x65
  10:	726f7469 	rsbvc	r7, pc, #1761607680	; 0x69000000
  14:	39202979 	stmdbcc	r0!, {r0, r3, r4, r5, r6, r8, fp, sp}
  18:	302e322e 	eorcc	r3, lr, lr, lsr #4
  1c:	43434700 	movtmi	r4, #14080	; 0x3700
  20:	3128203a 			; <UNDEFINED> instruction: 0x3128203a
  24:	2e363a35 			; <UNDEFINED> instruction: 0x2e363a35
  28:	2b312e33 	blcs	c4b8fc <__bss_end__+0xc4188c>
  2c:	326e7673 	rsbcc	r7, lr, #120586240	; 0x7300000
  30:	33303335 	teqcc	r0, #-738197504	; 0xd4000000
  34:	62312d39 	eorsvs	r2, r1, #3648	; 0xe40
  38:	646c6975 	strbtvs	r6, [ip], #-2421	; 0xfffff68b
  3c:	36202931 			; <UNDEFINED> instruction: 0x36202931
  40:	312e332e 			; <UNDEFINED> instruction: 0x312e332e
  44:	31303220 	teqcc	r0, r0, lsr #4
  48:	32363037 	eorscc	r3, r6, #55	; 0x37
  4c:	Address 0x000000000000004c is out of bounds.


Disassembly of section .debug_info:

00000000 <.debug_info>:
       0:	00000b68 	andeq	r0, r0, r8, ror #22
       4:	00000004 	andeq	r0, r0, r4
       8:	01040000 	mrseq	r0, (UNDEF: 4)
       c:	00000302 	andeq	r0, r0, r2, lsl #6
      10:	0000210c 	andeq	r2, r0, ip, lsl #2
      14:	0000d900 	andeq	sp, r0, r0, lsl #18
      18:	00801000 	addeq	r1, r0, r0
      1c:	0000d000 	andeq	sp, r0, r0
      20:	00000000 	andeq	r0, r0, r0
      24:	05040200 	streq	r0, [r4, #-512]	; 0xfffffe00
      28:	00746e69 	rsbseq	r6, r4, r9, ror #28
      2c:	74070403 	strvc	r0, [r7], #-1027	; 0xfffffbfd
      30:	03000000 	movweq	r0, #0
      34:	02f10601 	rscseq	r0, r1, #1048576	; 0x100000
      38:	02030000 	andeq	r0, r3, #0
      3c:	00038a05 	andeq	r8, r3, r5, lsl #20
      40:	05040300 	streq	r0, [r4, #-768]	; 0xfffffd00
      44:	000000ba 	strheq	r0, [r0], -sl
      48:	b5050803 	strlt	r0, [r5, #-2051]	; 0xfffff7fd
      4c:	03000000 	movweq	r0, #0
      50:	02ef0801 	rsceq	r0, pc, #65536	; 0x10000
      54:	02030000 	andeq	r0, r3, #0
      58:	00023007 	andeq	r3, r2, r7
      5c:	07040300 	streq	r0, [r4, -r0, lsl #6]
      60:	0000006f 	andeq	r0, r0, pc, rrx
      64:	6a070803 	bvs	1c2078 <__bss_end__+0x1b8008>
      68:	04000000 	streq	r0, [r0], #-0
      6c:	00000273 	andeq	r0, r0, r3, ror r2
      70:	77192202 	ldrvc	r2, [r9, -r2, lsl #4]
      74:	05000000 	streq	r0, [r0, #-0]
      78:	00007d04 	andeq	r7, r0, r4, lsl #26
      7c:	04300600 	ldrteq	r0, [r0], #-1536	; 0xfffffa00
      80:	d0040000 	andle	r0, r4, r0
      84:	03000002 	movweq	r0, #2
      88:	00410e2c 	subeq	r0, r1, ip, lsr #28
      8c:	45040000 	strmi	r0, [r4, #-0]
      90:	03000004 	movweq	r0, #4
      94:	00410e72 	subeq	r0, r1, r2, ror lr
      98:	7b070000 	blvc	1c00a0 <__bss_end__+0x1b6030>
      9c:	04000002 	streq	r0, [r0], #-2
      a0:	2c17015e 	ldfcss	f0, [r7], {94}	; 0x5e
      a4:	08000000 	stmdaeq	r0, {}	; <UNPREDICTABLE>
      a8:	03a60304 			; <UNDEFINED> instruction: 0x03a60304
      ac:	000000c9 	andeq	r0, r0, r9, asr #1
      b0:	00026d09 	andeq	r6, r2, r9, lsl #26
      b4:	0ca80300 	stceq	3, cr0, [r8]
      b8:	0000009a 	muleq	r0, sl, r0
      bc:	0001f009 	andeq	pc, r1, r9
      c0:	13a90300 			; <UNDEFINED> instruction: 0x13a90300
      c4:	000000c9 	andeq	r0, r0, r9, asr #1
      c8:	004f0a00 	subeq	r0, pc, r0, lsl #20
      cc:	00d90000 	sbcseq	r0, r9, r0
      d0:	2c0b0000 	stccs	0, cr0, [fp], {-0}
      d4:	03000000 	movweq	r0, #0
      d8:	03080c00 	movweq	r0, #35840	; 0x8c00
      dc:	00fd09a3 	rscseq	r0, sp, r3, lsr #19
      e0:	280d0000 	stmdacs	sp, {}	; <UNPREDICTABLE>
      e4:	03000004 	movweq	r0, #4
      e8:	002507a5 	eoreq	r0, r5, r5, lsr #15
      ec:	0d000000 	stceq	0, cr0, [r0, #-0]
      f0:	00000437 	andeq	r0, r0, r7, lsr r4
      f4:	a705aa03 	strge	sl, [r5, -r3, lsl #20]
      f8:	04000000 	streq	r0, [r0], #-0
      fc:	03b20400 			; <UNDEFINED> instruction: 0x03b20400
     100:	ab030000 	blge	c0108 <__bss_end__+0xb6098>
     104:	0000d903 	andeq	sp, r0, r3, lsl #18
     108:	01ad0400 			; <UNDEFINED> instruction: 0x01ad0400
     10c:	af030000 	svcge	0x00030000
     110:	00006b1b 	andeq	r6, r0, fp, lsl fp
     114:	05040e00 	streq	r0, [r4, #-3584]	; 0xfffff200
     118:	00011d04 	andeq	r1, r1, r4, lsl #26
     11c:	08010300 	stmdaeq	r1, {r8, r9}
     120:	000002f8 	strdeq	r0, [r0], -r8
     124:	00011d0f 	andeq	r1, r1, pc, lsl #26
     128:	04770400 	ldrbteq	r0, [r7], #-1024	; 0xfffffc00
     12c:	16050000 	strne	r0, [r5], -r0
     130:	00005d19 	andeq	r5, r0, r9, lsl sp
     134:	01be1000 			; <UNDEFINED> instruction: 0x01be1000
     138:	05180000 	ldreq	r0, [r8, #-0]
     13c:	018f082f 	orreq	r0, pc, pc, lsr #16
     140:	d30d0000 	movwle	r0, #53248	; 0xd000
     144:	05000003 	streq	r0, [r0, #-3]
     148:	018f1331 	orreq	r1, pc, r1, lsr r3	; <UNPREDICTABLE>
     14c:	11000000 	mrsne	r0, (UNDEF: 0)
     150:	05006b5f 	streq	r6, [r0, #-2911]	; 0xfffff4a1
     154:	00250732 	eoreq	r0, r5, r2, lsr r7
     158:	0d040000 	stceq	0, cr0, [r4, #-0]
     15c:	00000413 	andeq	r0, r0, r3, lsl r4
     160:	250b3205 	strcs	r3, [fp, #-517]	; 0xfffffdfb
     164:	08000000 	stmdaeq	r0, {}	; <UNPREDICTABLE>
     168:	0001a70d 	andeq	sl, r1, sp, lsl #14
     16c:	14320500 	ldrtne	r0, [r2], #-1280	; 0xfffffb00
     170:	00000025 	andeq	r0, r0, r5, lsr #32
     174:	04b30d0c 	ldrteq	r0, [r3], #3340	; 0xd0c
     178:	32050000 	andcc	r0, r5, #0
     17c:	0000251b 	andeq	r2, r0, fp, lsl r5
     180:	5f111000 	svcpl	0x00111000
     184:	33050078 	movwcc	r0, #20600	; 0x5078
     188:	0001950b 	andeq	r9, r1, fp, lsl #10
     18c:	05001400 	streq	r1, [r0, #-1024]	; 0xfffffc00
     190:	00013504 	andeq	r3, r1, r4, lsl #10
     194:	01290a00 			; <UNDEFINED> instruction: 0x01290a00
     198:	01a50000 			; <UNDEFINED> instruction: 0x01a50000
     19c:	2c0b0000 	stccs	0, cr0, [fp], {-0}
     1a0:	00000000 	andeq	r0, r0, r0
     1a4:	01eb1000 	mvneq	r1, r0
     1a8:	05240000 	streq	r0, [r4, #-0]!
     1ac:	02280837 	eoreq	r0, r8, #3604480	; 0x370000
     1b0:	ac0d0000 	stcge	0, cr0, [sp], {-0}
     1b4:	05000000 	streq	r0, [r0, #-0]
     1b8:	00250939 	eoreq	r0, r5, r9, lsr r9
     1bc:	0d000000 	stceq	0, cr0, [r0, #-0]
     1c0:	0000044d 	andeq	r0, r0, sp, asr #8
     1c4:	25093a05 	strcs	r3, [r9, #-2565]	; 0xfffff5fb
     1c8:	04000000 	streq	r0, [r0], #-0
     1cc:	0000cf0d 	andeq	ip, r0, sp, lsl #30
     1d0:	093b0500 	ldmdbeq	fp!, {r8, sl}
     1d4:	00000025 	andeq	r0, r0, r5, lsr #32
     1d8:	05340d08 	ldreq	r0, [r4, #-3336]!	; 0xfffff2f8
     1dc:	3c050000 	stccc	0, cr0, [r5], {-0}
     1e0:	00002509 	andeq	r2, r0, r9, lsl #10
     1e4:	b40d0c00 	strlt	r0, [sp], #-3072	; 0xfffff400
     1e8:	05000002 	streq	r0, [r0, #-2]
     1ec:	0025093d 	eoreq	r0, r5, sp, lsr r9
     1f0:	0d100000 	ldceq	0, cr0, [r0, #-0]
     1f4:	00000296 	muleq	r0, r6, r2
     1f8:	25093e05 	strcs	r3, [r9, #-3589]	; 0xfffff1fb
     1fc:	14000000 	strne	r0, [r0], #-0
     200:	0004b80d 	andeq	fp, r4, sp, lsl #16
     204:	093f0500 	ldmdbeq	pc!, {r8, sl}	; <UNPREDICTABLE>
     208:	00000025 	andeq	r0, r0, r5, lsr #32
     20c:	03940d18 	orrseq	r0, r4, #24, 26	; 0x600
     210:	40050000 	andmi	r0, r5, r0
     214:	00002509 	andeq	r2, r0, r9, lsl #10
     218:	fb0d1c00 	blx	347222 <__bss_end__+0x33d1b2>
     21c:	05000004 	streq	r0, [r0, #-4]
     220:	00250941 	eoreq	r0, r5, r1, asr #18
     224:	00200000 	eoreq	r0, r0, r0
     228:	00010f12 	andeq	r0, r1, r2, lsl pc
     22c:	05010800 	streq	r0, [r1, #-2048]	; 0xfffff800
     230:	026d084a 	rsbeq	r0, sp, #4849664	; 0x4a0000
     234:	9a0d0000 	bls	34023c <__bss_end__+0x3361cc>
     238:	05000001 	streq	r0, [r0, #-1]
     23c:	026d0a4b 	rsbeq	r0, sp, #307200	; 0x4b000
     240:	0d000000 	stceq	0, cr0, [r0, #-0]
     244:	00000000 	andeq	r0, r0, r0
     248:	6d094c05 	stcvs	12, cr4, [r9, #-20]	; 0xffffffec
     24c:	80000002 	andhi	r0, r0, r2
     250:	00046913 	andeq	r6, r4, r3, lsl r9
     254:	0a4e0500 	beq	138165c <__bss_end__+0x13775ec>
     258:	00000129 	andeq	r0, r0, r9, lsr #2
     25c:	34130100 	ldrcc	r0, [r3], #-256	; 0xffffff00
     260:	05000001 	streq	r0, [r0, #-1]
     264:	01290a51 			; <UNDEFINED> instruction: 0x01290a51
     268:	01040000 	mrseq	r0, (UNDEF: 4)
     26c:	01150a00 	tsteq	r5, r0, lsl #20
     270:	027d0000 	rsbseq	r0, sp, #0
     274:	2c0b0000 	stccs	0, cr0, [fp], {-0}
     278:	1f000000 	svcne	0x00000000
     27c:	02bd1200 	adcseq	r1, sp, #0, 4
     280:	01900000 	orrseq	r0, r0, r0
     284:	c0085d05 	andgt	r5, r8, r5, lsl #26
     288:	0d000002 	stceq	0, cr0, [r0, #-8]
     28c:	000003d3 	ldrdeq	r0, [r0], -r3
     290:	c0125e05 	andsgt	r5, r2, r5, lsl #28
     294:	00000002 	andeq	r0, r0, r2
     298:	0003eb0d 	andeq	lr, r3, sp, lsl #22
     29c:	065f0500 	ldrbeq	r0, [pc], -r0, lsl #10
     2a0:	00000025 	andeq	r0, r0, r5, lsr #32
     2a4:	01a20d04 			; <UNDEFINED> instruction: 0x01a20d04
     2a8:	61050000 	mrsvs	r0, (UNDEF: 5)
     2ac:	0002c609 	andeq	ip, r2, r9, lsl #12
     2b0:	0f0d0800 	svceq	0x000d0800
     2b4:	05000001 	streq	r0, [r0, #-1]
     2b8:	02281e62 	eoreq	r1, r8, #1568	; 0x620
     2bc:	00880000 	addeq	r0, r8, r0
     2c0:	027d0405 	rsbseq	r0, sp, #83886080	; 0x5000000
     2c4:	d60a0000 	strle	r0, [sl], -r0
     2c8:	d6000002 	strle	r0, [r0], -r2
     2cc:	0b000002 	bleq	2dc <_start-0x7d24>
     2d0:	0000002c 	andeq	r0, r0, ip, lsr #32
     2d4:	0405001f 	streq	r0, [r5], #-31	; 0xffffffe1
     2d8:	000002dc 	ldrdeq	r0, [r0], -ip
     2dc:	039e1014 	orrseq	r1, lr, #20
     2e0:	05080000 	streq	r0, [r8, #-0]
     2e4:	03050875 	movweq	r0, #22645	; 0x5875
     2e8:	c90d0000 	stmdbgt	sp, {}	; <UNPREDICTABLE>
     2ec:	05000000 	streq	r0, [r0, #-0]
     2f0:	03051176 	movweq	r1, #20854	; 0x5176
     2f4:	0d000000 	stceq	0, cr0, [r0, #-0]
     2f8:	0000001b 	andeq	r0, r0, fp, lsl r0
     2fc:	25067705 	strcs	r7, [r6, #-1797]	; 0xfffff8fb
     300:	04000000 	streq	r0, [r0], #-0
     304:	4f040500 	svcmi	0x00040500
     308:	10000000 	andne	r0, r0, r0
     30c:	000003bd 			; <UNDEFINED> instruction: 0x000003bd
     310:	08b50568 	ldmeq	r5!, {r3, r5, r6, r8, sl}
     314:	0000044e 	andeq	r0, r0, lr, asr #8
     318:	00705f11 	rsbseq	r5, r0, r1, lsl pc
     31c:	0512b605 	ldreq	fp, [r2, #-1541]	; 0xfffff9fb
     320:	00000003 	andeq	r0, r0, r3
     324:	00725f11 	rsbseq	r5, r2, r1, lsl pc
     328:	2507b705 	strcs	fp, [r7, #-1797]	; 0xfffff8fb
     32c:	04000000 	streq	r0, [r0], #-0
     330:	00775f11 	rsbseq	r5, r7, r1, lsl pc
     334:	2507b805 	strcs	fp, [r7, #-2053]	; 0xfffff7fb
     338:	08000000 	stmdaeq	r0, {}	; <UNPREDICTABLE>
     33c:	00012d0d 	andeq	r2, r1, sp, lsl #26
     340:	09b90500 	ldmibeq	r9!, {r8, sl}
     344:	0000003a 	andeq	r0, r0, sl, lsr r0
     348:	02160d0c 	andseq	r0, r6, #12, 26	; 0x300
     34c:	ba050000 	blt	140354 <__bss_end__+0x1362e4>
     350:	00003a09 	andeq	r3, r0, r9, lsl #20
     354:	5f110e00 	svcpl	0x00110e00
     358:	05006662 	streq	r6, [r0, #-1634]	; 0xfffff99e
     35c:	02dd11bb 	sbcseq	r1, sp, #-1073741778	; 0xc000002e
     360:	0d100000 	ldceq	0, cr0, [r0, #-0]
     364:	00000089 	andeq	r0, r0, r9, lsl #1
     368:	2507bc05 	strcs	fp, [r7, #-3077]	; 0xfffff3fb
     36c:	18000000 	stmdane	r0, {}	; <UNPREDICTABLE>
     370:	00011d0d 	andeq	r1, r1, sp, lsl #26
     374:	0ac30500 	beq	ff0c177c <__bss_end__+0xff0b770c>
     378:	00000115 	andeq	r0, r0, r5, lsl r1
     37c:	0b420d1c 	bleq	10837f4 <__bss_end__+0x1079784>
     380:	c5050000 	strgt	r0, [r5, #-0]
     384:	0005c01d 	andeq	ip, r5, sp, lsl r0
     388:	370d2000 	strcc	r2, [sp, -r0]
     38c:	05000006 	streq	r0, [r0, #-6]
     390:	05ea1dc7 	strbeq	r1, [sl, #3527]!	; 0xdc7
     394:	0d240000 	stceq	0, cr0, [r4, #-0]
     398:	0000043f 	andeq	r0, r0, pc, lsr r4
     39c:	0e0dca05 	vmlaeq.f32	s24, s26, s10
     3a0:	28000006 	stmdacs	r0, {r1, r2}
     3a4:	0005150d 	andeq	r1, r5, sp, lsl #10
     3a8:	09cb0500 	stmibeq	fp, {r8, sl}^
     3ac:	00000628 	andeq	r0, r0, r8, lsr #12
     3b0:	755f112c 	ldrbvc	r1, [pc, #-300]	; 28c <_start-0x7d74>
     3b4:	ce050062 	cdpgt	0, 0, cr0, cr5, cr2, {3}
     3b8:	0002dd11 	andeq	sp, r2, r1, lsl sp
     3bc:	5f113000 	svcpl	0x00113000
     3c0:	05007075 	streq	r7, [r0, #-117]	; 0xffffff8b
     3c4:	030512cf 	movweq	r1, #21199	; 0x52cf
     3c8:	11380000 	teqne	r8, r0
     3cc:	0072755f 	rsbseq	r7, r2, pc, asr r5
     3d0:	2507d005 	strcs	sp, [r7, #-5]
     3d4:	3c000000 	stccc	0, cr0, [r0], {-0}
     3d8:	0000c30d 	andeq	ip, r0, sp, lsl #6
     3dc:	11d30500 	bicsne	r0, r3, r0, lsl #10
     3e0:	0000062e 	andeq	r0, r0, lr, lsr #12
     3e4:	04ed0d40 	strbteq	r0, [sp], #3392	; 0xd40
     3e8:	d4050000 	strle	r0, [r5], #-0
     3ec:	00063e11 	andeq	r3, r6, r1, lsl lr
     3f0:	5f114300 	svcpl	0x00114300
     3f4:	0500626c 	streq	r6, [r0, #-620]	; 0xfffffd94
     3f8:	02dd11d7 	sbcseq	r1, sp, #-1073741771	; 0xc0000035
     3fc:	0d440000 	stcleq	0, cr0, [r4, #-0]
     400:	0000014b 	andeq	r0, r0, fp, asr #2
     404:	2507da05 	strcs	sp, [r7, #-2565]	; 0xfffff5fb
     408:	4c000000 	stcmi	0, cr0, [r0], {-0}
     40c:	00015c0d 	andeq	r5, r1, sp, lsl #24
     410:	0adb0500 	beq	ff6c1818 <__bss_end__+0xff6b77a8>
     414:	00000082 	andeq	r0, r0, r2, lsl #1
     418:	0ae30d50 	beq	ff8c3960 <__bss_end__+0xff8b98f0>
     41c:	de050000 	cdple	0, 0, cr0, cr5, cr0, {0}
     420:	00046c12 	andeq	r6, r4, r2, lsl ip
     424:	310d5400 	tstcc	sp, r0, lsl #8
     428:	05000004 	streq	r0, [r0, #-4]
     42c:	01090ce2 	smlatteq	r9, r2, ip, r0
     430:	0d580000 	ldcleq	0, cr0, [r8, #-0]
     434:	000003c5 	andeq	r0, r0, r5, asr #7
     438:	fd0ee405 	stc2	4, cr14, [lr, #-20]	; 0xffffffec
     43c:	5c000000 	stcpl	0, cr0, [r0], {-0}
     440:	00028e0d 	andeq	r8, r2, sp, lsl #28
     444:	09e50500 	stmibeq	r5!, {r8, sl}^
     448:	00000025 	andeq	r0, r0, r5, lsr #32
     44c:	25150064 	ldrcs	r0, [r5, #-100]	; 0xffffff9c
     450:	6c000000 	stcvs	0, cr0, [r0], {-0}
     454:	16000004 	strne	r0, [r0], -r4
     458:	0000046c 	andeq	r0, r0, ip, ror #8
     45c:	00011516 	andeq	r1, r1, r6, lsl r5
     460:	01171600 	tsteq	r7, r0, lsl #12
     464:	25160000 	ldrcs	r0, [r6, #-0]
     468:	00000000 	andeq	r0, r0, r0
     46c:	04770405 	ldrbteq	r0, [r7], #-1029	; 0xfffffbfb
     470:	6c0f0000 	stcvs	0, cr0, [pc], {-0}
     474:	17000004 	strne	r0, [r0, -r4]
     478:	0000041b 	andeq	r0, r0, fp, lsl r4
     47c:	60050428 	andvs	r0, r5, r8, lsr #8
     480:	05c00802 	strbeq	r0, [r0, #2050]	; 0x802
     484:	83180000 	tsthi	r8, #0
     488:	05000003 	streq	r0, [r0, #-3]
     48c:	25070262 	strcs	r0, [r7, #-610]	; 0xfffffd9e
     490:	00000000 	andeq	r0, r0, r0
     494:	00013c18 	andeq	r3, r1, r8, lsl ip
     498:	02670500 	rsbeq	r0, r7, #0, 10
     49c:	00069a0b 	andeq	r9, r6, fp, lsl #20
     4a0:	06180400 	ldreq	r0, [r8], -r0, lsl #8
     4a4:	05000002 	streq	r0, [r0, #-2]
     4a8:	9a140267 	bls	500e4c <__bss_end__+0x4f6ddc>
     4ac:	08000006 	stmdaeq	r0, {r1, r2}
     4b0:	0001b618 	andeq	fp, r1, r8, lsl r6
     4b4:	02670500 	rsbeq	r0, r7, #0, 10
     4b8:	00069a1e 	andeq	r9, r6, lr, lsl sl
     4bc:	e6180c00 	ldr	r0, [r8], -r0, lsl #24
     4c0:	05000003 	streq	r0, [r0, #-3]
     4c4:	25080269 	strcs	r0, [r8, #-617]	; 0xfffffd97
     4c8:	10000000 	andne	r0, r0, r0
     4cc:	00003718 	andeq	r3, r0, r8, lsl r7
     4d0:	026a0500 	rsbeq	r0, sl, #0, 10
     4d4:	00089a08 	andeq	r9, r8, r8, lsl #20
     4d8:	fa181400 	blx	6054e0 <__bss_end__+0x5fb470>
     4dc:	05000003 	streq	r0, [r0, #-3]
     4e0:	2507026d 	strcs	r0, [r7, #-621]	; 0xfffffd93
     4e4:	30000000 	andcc	r0, r0, r0
     4e8:	000a1f18 	andeq	r1, sl, r8, lsl pc
     4ec:	026e0500 	rsbeq	r0, lr, #0, 10
     4f0:	0008af16 	andeq	sl, r8, r6, lsl pc
     4f4:	c5183400 	ldrgt	r3, [r8, #-1024]	; 0xfffffc00
     4f8:	05000002 	streq	r0, [r0, #-2]
     4fc:	25070270 	strcs	r0, [r7, #-624]	; 0xfffffd90
     500:	38000000 	stmdacc	r0, {}	; <UNPREDICTABLE>
     504:	0003f018 	andeq	pc, r3, r8, lsl r0	; <UNPREDICTABLE>
     508:	02720500 	rsbseq	r0, r2, #0, 10
     50c:	0008c00a 	andeq	ip, r8, sl
     510:	65183c00 	ldrvs	r3, [r8, #-3072]	; 0xfffff400
     514:	05000002 	streq	r0, [r0, #-2]
     518:	8f130275 	svchi	0x00130275
     51c:	40000001 	andmi	r0, r0, r1
     520:	0001d518 	andeq	sp, r1, r8, lsl r5
     524:	02760500 	rsbseq	r0, r6, #0, 10
     528:	00002507 	andeq	r2, r0, r7, lsl #10
     52c:	2f184400 	svccs	0x00184400
     530:	05000005 	streq	r0, [r0, #-5]
     534:	8f130277 	svchi	0x00130277
     538:	48000001 	stmdami	r0, {r0}
     53c:	0002d718 	andeq	sp, r2, r8, lsl r7
     540:	02780500 	rsbseq	r0, r8, #0, 10
     544:	0008c614 	andeq	ip, r8, r4, lsl r6
     548:	0e184c00 	cdpeq	12, 1, cr4, cr8, cr0, {0}
     54c:	05000002 	streq	r0, [r0, #-2]
     550:	2507027b 	strcs	r0, [r7, #-635]	; 0xfffffd85
     554:	50000000 	andpl	r0, r0, r0
     558:	00015418 	andeq	r5, r1, r8, lsl r4
     55c:	027c0500 	rsbseq	r0, ip, #0, 10
     560:	00011709 	andeq	r1, r1, r9, lsl #14
     564:	fd185400 	ldc2	4, cr5, [r8, #-0]
     568:	05000002 	streq	r0, [r0, #-2]
     56c:	7507029f 	strvc	r0, [r7, #-671]	; 0xfffffd61
     570:	58000008 	stmdapl	r0, {r3}
     574:	0002bd19 	andeq	fp, r2, r9, lsl sp
     578:	02a30500 	adceq	r0, r3, #0, 10
     57c:	0002c013 	andeq	ip, r2, r3, lsl r0
     580:	19014800 	stmdbne	r1, {fp, lr}
     584:	00000243 	andeq	r0, r0, r3, asr #4
     588:	1202a405 	andne	sl, r2, #83886080	; 0x5000000
     58c:	0000027d 	andeq	r0, r0, sp, ror r2
     590:	db19014c 	blle	640ac8 <__bss_end__+0x636a58>
     594:	05000004 	streq	r0, [r0, #-4]
     598:	d70c02a8 	strle	r0, [ip, -r8, lsr #5]
     59c:	dc000008 	stcle	0, cr0, [r0], {8}
     5a0:	01251902 			; <UNDEFINED> instruction: 0x01251902
     5a4:	ad050000 	stcge	0, cr0, [r5, #-0]
     5a8:	065b1002 	ldrbeq	r1, [fp], -r2
     5ac:	02e00000 	rsceq	r0, r0, #0
     5b0:	00010a19 	andeq	r0, r1, r9, lsl sl
     5b4:	02af0500 	adceq	r0, pc, #0, 10
     5b8:	0008e30a 	andeq	lr, r8, sl, lsl #6
     5bc:	0002ec00 	andeq	lr, r2, r0, lsl #24
     5c0:	044e0405 	strbeq	r0, [lr], #-1029	; 0xfffffbfb
     5c4:	25150000 	ldrcs	r0, [r5, #-0]
     5c8:	e4000000 	str	r0, [r0], #-0
     5cc:	16000005 	strne	r0, [r0], -r5
     5d0:	0000046c 	andeq	r0, r0, ip, ror #8
     5d4:	00011516 	andeq	r1, r1, r6, lsl r5
     5d8:	05e41600 	strbeq	r1, [r4, #1536]!	; 0x600
     5dc:	25160000 	ldrcs	r0, [r6, #-0]
     5e0:	00000000 	andeq	r0, r0, r0
     5e4:	01240405 			; <UNDEFINED> instruction: 0x01240405
     5e8:	04050000 	streq	r0, [r5], #-0
     5ec:	000005c6 	andeq	r0, r0, r6, asr #11
     5f0:	00008e15 	andeq	r8, r0, r5, lsl lr
     5f4:	00060e00 	andeq	r0, r6, r0, lsl #28
     5f8:	046c1600 	strbteq	r1, [ip], #-1536	; 0xfffffa00
     5fc:	15160000 	ldrne	r0, [r6, #-0]
     600:	16000001 	strne	r0, [r0], -r1
     604:	0000008e 	andeq	r0, r0, lr, lsl #1
     608:	00002516 	andeq	r2, r0, r6, lsl r5
     60c:	04050000 	streq	r0, [r5], #-0
     610:	000005f0 	strdeq	r0, [r0], -r0	; <UNPREDICTABLE>
     614:	00002515 	andeq	r2, r0, r5, lsl r5
     618:	00062800 	andeq	r2, r6, r0, lsl #16
     61c:	046c1600 	strbteq	r1, [ip], #-1536	; 0xfffffa00
     620:	15160000 	ldrne	r0, [r6, #-0]
     624:	00000001 	andeq	r0, r0, r1
     628:	06140405 	ldreq	r0, [r4], -r5, lsl #8
     62c:	4f0a0000 	svcmi	0x000a0000
     630:	3e000000 	cdpcc	0, 0, cr0, cr0, cr0, {0}
     634:	0b000006 	bleq	654 <_start-0x79ac>
     638:	0000002c 	andeq	r0, r0, ip, lsr #32
     63c:	4f0a0002 	svcmi	0x000a0002
     640:	4e000000 	cdpmi	0, 0, cr0, cr0, cr0, {0}
     644:	0b000006 	bleq	664 <_start-0x799c>
     648:	0000002c 	andeq	r0, r0, ip, lsr #32
     64c:	ab070000 	blge	1c0654 <__bss_end__+0x1b65e4>
     650:	05000003 	streq	r0, [r0, #-3]
     654:	0b1a011f 	bleq	680ad8 <__bss_end__+0x676a68>
     658:	1a000003 	bne	66c <_start-0x7994>
     65c:	000004c2 	andeq	r0, r0, r2, asr #9
     660:	0123050c 			; <UNDEFINED> instruction: 0x0123050c
     664:	00069408 	andeq	r9, r6, r8, lsl #8
     668:	03d31800 	bicseq	r1, r3, #0, 16
     66c:	25050000 	strcs	r0, [r5, #-0]
     670:	06941101 	ldreq	r1, [r4], r1, lsl #2
     674:	18000000 	stmdane	r0, {}	; <UNPREDICTABLE>
     678:	00000229 	andeq	r0, r0, r9, lsr #4
     67c:	07012605 	streq	r2, [r1, -r5, lsl #12]
     680:	00000025 	andeq	r0, r0, r5, lsr #32
     684:	03a51804 			; <UNDEFINED> instruction: 0x03a51804
     688:	27050000 	strcs	r0, [r5, -r0]
     68c:	069a0b01 	ldreq	r0, [sl], r1, lsl #22
     690:	00080000 	andeq	r0, r8, r0
     694:	065b0405 	ldrbeq	r0, [fp], -r5, lsl #8
     698:	04050000 	streq	r0, [r5], #-0
     69c:	0000064e 	andeq	r0, r0, lr, asr #12
     6a0:	00002f1a 	andeq	r2, r0, sl, lsl pc
     6a4:	3f050e00 	svccc	0x00050e00
     6a8:	06d90801 	ldrbeq	r0, [r9], r1, lsl #16
     6ac:	22180000 	andscs	r0, r8, #0
     6b0:	05000004 	streq	r0, [r0, #-4]
     6b4:	d9120140 	ldmdble	r2, {r6, r8}
     6b8:	00000006 	andeq	r0, r0, r6
     6bc:	00045618 	andeq	r5, r4, r8, lsl r6
     6c0:	01410500 	cmpeq	r1, r0, lsl #10
     6c4:	0006d912 	andeq	sp, r6, r2, lsl r9
     6c8:	72180600 	andsvc	r0, r8, #0, 12
     6cc:	05000004 	streq	r0, [r0, #-4]
     6d0:	56120142 	ldrpl	r0, [r2], -r2, asr #2
     6d4:	0c000000 	stceq	0, cr0, [r0], {-0}
     6d8:	00560a00 	subseq	r0, r6, r0, lsl #20
     6dc:	06e90000 	strbteq	r0, [r9], r0
     6e0:	2c0b0000 	stccs	0, cr0, [fp], {-0}
     6e4:	02000000 	andeq	r0, r0, #0
     6e8:	05d01b00 	ldrbeq	r1, [r0, #2816]	; 0xb00
     6ec:	fe070280 	cdp2	2, 0, cr0, cr7, cr0, {4}
     6f0:	18000007 	stmdane	r0, {r0, r1, r2}
     6f4:	000004a6 	andeq	r0, r0, r6, lsr #9
     6f8:	18028205 	stmdane	r2, {r0, r2, r9, pc}
     6fc:	0000002c 	andeq	r0, r0, ip, lsr #32
     700:	045c1800 	ldrbeq	r1, [ip], #-2048	; 0xfffff800
     704:	83050000 	movwhi	r0, #20480	; 0x5000
     708:	01171202 	tsteq	r7, r2, lsl #4
     70c:	18040000 	stmdane	r4, {}	; <UNPREDICTABLE>
     710:	00000258 	andeq	r0, r0, r8, asr r2
     714:	10028405 	andne	r8, r2, r5, lsl #8
     718:	000007fe 	strdeq	r0, [r0], -lr
     71c:	05061808 	streq	r1, [r6, #-2056]	; 0xfffff7f8
     720:	85050000 	strhi	r0, [r5, #-0]
     724:	01a51702 			; <UNDEFINED> instruction: 0x01a51702
     728:	18240000 	stmdane	r4!, {}	; <UNPREDICTABLE>
     72c:	000001c6 	andeq	r0, r0, r6, asr #3
     730:	0f028605 	svceq	0x00028605
     734:	00000025 	andeq	r0, r0, r5, lsr #32
     738:	03ce1848 	biceq	r1, lr, #72, 16	; 0x480000
     73c:	87050000 	strhi	r0, [r5, -r0]
     740:	00642c02 	rsbeq	r2, r4, r2, lsl #24
     744:	18500000 	ldmdane	r0, {}^	; <UNPREDICTABLE>
     748:	0000051c 	andeq	r0, r0, ip, lsl r5
     74c:	1a028805 	bne	a2768 <__bss_end__+0x986f8>
     750:	000006a0 	andeq	r0, r0, r0, lsr #13
     754:	03d91858 	bicseq	r1, r9, #88, 16	; 0x580000
     758:	89050000 	stmdbhi	r5, {}	; <UNPREDICTABLE>
     75c:	00fd1602 	rscseq	r1, sp, r2, lsl #12
     760:	18680000 	stmdane	r8!, {}^	; <UNPREDICTABLE>
     764:	00000521 	andeq	r0, r0, r1, lsr #10
     768:	16028a05 	strne	r8, [r2], -r5, lsl #20
     76c:	000000fd 	strdeq	r0, [r0], -sp
     770:	02e11870 	rsceq	r1, r1, #112, 16	; 0x700000
     774:	8b050000 	blhi	14077c <__bss_end__+0x13670c>
     778:	00fd1602 	rscseq	r1, sp, r2, lsl #12
     77c:	18780000 	ldmdane	r8!, {}^	; <UNPREDICTABLE>
     780:	000004d1 	ldrdeq	r0, [r0], -r1
     784:	10028c05 	andne	r8, r2, r5, lsl #24
     788:	0000080e 	andeq	r0, r0, lr, lsl #16
     78c:	024c1880 	subeq	r1, ip, #128, 16	; 0x800000
     790:	8d050000 	stchi	0, cr0, [r5, #-0]
     794:	081e1002 	ldmdaeq	lr, {r1, ip}
     798:	18880000 	stmne	r8, {}	; <UNPREDICTABLE>
     79c:	0000047f 	andeq	r0, r0, pc, ror r4
     7a0:	0f028e05 	svceq	0x00028e05
     7a4:	00000025 	andeq	r0, r0, r5, lsr #32
     7a8:	018c18a0 	orreq	r1, ip, r0, lsr #17
     7ac:	8f050000 	svchi	0x00050000
     7b0:	00fd1602 	rscseq	r1, sp, r2, lsl #12
     7b4:	18a40000 	stmiane	r4!, {}	; <UNPREDICTABLE>
     7b8:	0000009d 	muleq	r0, sp, r0
     7bc:	16029005 	strne	r9, [r2], -r5
     7c0:	000000fd 	strdeq	r0, [r0], -sp
     7c4:	017b18ac 	cmneq	fp, ip, lsr #17
     7c8:	91050000 	mrsls	r0, (UNDEF: 5)
     7cc:	00fd1602 	rscseq	r1, sp, r2, lsl #12
     7d0:	18b40000 	ldmne	r4!, {}	; <UNPREDICTABLE>
     7d4:	0000004a 	andeq	r0, r0, sl, asr #32
     7d8:	16029205 	strne	r9, [r2], -r5, lsl #4
     7dc:	000000fd 	strdeq	r0, [r0], -sp
     7e0:	005918bc 	ldrheq	r1, [r9], #-140	; 0xffffff74
     7e4:	93050000 	movwls	r0, #20480	; 0x5000
     7e8:	00fd1602 	rscseq	r1, sp, r2, lsl #12
     7ec:	18c40000 	stmiane	r4, {}^	; <UNPREDICTABLE>
     7f0:	00000381 	andeq	r0, r0, r1, lsl #7
     7f4:	08029405 	stmdaeq	r2, {r0, r2, sl, ip, pc}
     7f8:	00000025 	andeq	r0, r0, r5, lsr #32
     7fc:	1d0a00cc 	stcne	0, cr0, [sl, #-816]	; 0xfffffcd0
     800:	0e000001 	cdpeq	0, 0, cr0, cr0, cr1, {0}
     804:	0b000008 	bleq	82c <_start-0x77d4>
     808:	0000002c 	andeq	r0, r0, ip, lsr #32
     80c:	1d0a0019 	stcne	0, cr0, [sl, #-100]	; 0xffffff9c
     810:	1e000001 	cdpne	0, 0, cr0, cr0, cr1, {0}
     814:	0b000008 	bleq	83c <_start-0x77c4>
     818:	0000002c 	andeq	r0, r0, ip, lsr #32
     81c:	1d0a0007 	stcne	0, cr0, [sl, #-28]	; 0xffffffe4
     820:	2e000001 	cdpcs	0, 0, cr0, cr0, cr1, {0}
     824:	0b000008 	bleq	84c <_start-0x77b4>
     828:	0000002c 	andeq	r0, r0, ip, lsr #32
     82c:	f01b0017 			; <UNDEFINED> instruction: 0xf01b0017
     830:	07029905 	streq	r9, [r2, -r5, lsl #18]
     834:	00000855 	andeq	r0, r0, r5, asr r8
     838:	0002ad18 	andeq	sl, r2, r8, lsl sp
     83c:	029c0500 	addseq	r0, ip, #0, 10
     840:	0008551b 	andeq	r5, r8, fp, lsl r5
     844:	c8180000 	ldmdagt	r8, {}	; <UNPREDICTABLE>
     848:	05000004 	streq	r0, [r0, #-4]
     84c:	6518029d 	ldrvs	r0, [r8, #-669]	; 0xfffffd63
     850:	78000008 	stmdavc	r0, {r3}
     854:	03050a00 	movweq	r0, #23040	; 0x5a00
     858:	08650000 	stmdaeq	r5!, {}^	; <UNPREDICTABLE>
     85c:	2c0b0000 	stccs	0, cr0, [fp], {-0}
     860:	1d000000 	stcne	0, cr0, [r0, #-0]
     864:	002c0a00 	eoreq	r0, ip, r0, lsl #20
     868:	08750000 	ldmdaeq	r5!, {}^	; <UNPREDICTABLE>
     86c:	2c0b0000 	stccs	0, cr0, [fp], {-0}
     870:	1d000000 	stcne	0, cr0, [r0, #-0]
     874:	05f01c00 	ldrbeq	r1, [r0, #3072]!	; 0xc00
     878:	9a03027e 	bls	c1278 <__bss_end__+0xb7208>
     87c:	1d000008 	stcne	0, cr0, [r0, #-32]	; 0xffffffe0
     880:	0000041b 	andeq	r0, r0, fp, lsl r4
     884:	0b029505 	bleq	a5ca0 <__bss_end__+0x9bc30>
     888:	000006e9 	andeq	r0, r0, r9, ror #13
     88c:	0004f31d 	andeq	pc, r4, sp, lsl r3	; <UNPREDICTABLE>
     890:	029e0500 	addseq	r0, lr, #0, 10
     894:	00082e0b 	andeq	r2, r8, fp, lsl #28
     898:	1d0a0000 	stcne	0, cr0, [sl, #-0]
     89c:	aa000001 	bge	8a8 <_start-0x7758>
     8a0:	0b000008 	bleq	8c8 <_start-0x7738>
     8a4:	0000002c 	andeq	r0, r0, ip, lsr #32
     8a8:	92060018 	andls	r0, r6, #24
     8ac:	05000000 	streq	r0, [r0, #-0]
     8b0:	0008aa04 	andeq	sl, r8, r4, lsl #20
     8b4:	08c01e00 	stmiaeq	r0, {r9, sl, fp, ip}^
     8b8:	6c160000 	ldcvs	0, cr0, [r6], {-0}
     8bc:	00000004 	andeq	r0, r0, r4
     8c0:	08b50405 	ldmeq	r5!, {r0, r2, sl}
     8c4:	04050000 	streq	r0, [r5], #-0
     8c8:	0000018f 	andeq	r0, r0, pc, lsl #3
     8cc:	0008d71e 	andeq	sp, r8, lr, lsl r7
     8d0:	00251600 	eoreq	r1, r5, r0, lsl #12
     8d4:	05000000 	streq	r0, [r0, #-0]
     8d8:	0008dd04 	andeq	sp, r8, r4, lsl #26
     8dc:	cc040500 	cfstr32gt	mvfx0, [r4], {-0}
     8e0:	0a000008 	beq	908 <_start-0x76f8>
     8e4:	0000064e 	andeq	r0, r0, lr, asr #12
     8e8:	000008f3 	strdeq	r0, [r0], -r3
     8ec:	00002c0b 	andeq	r2, r0, fp, lsl #24
     8f0:	1f000200 	svcne	0x00000200
     8f4:	00000493 	muleq	r0, r3, r4
     8f8:	17032e05 	strne	r2, [r3, -r5, lsl #28]
     8fc:	0000046c 	andeq	r0, r0, ip, ror #8
     900:	00048c1f 	andeq	r8, r4, pc, lsl ip
     904:	032f0500 			; <UNDEFINED> instruction: 0x032f0500
     908:	0004721d 	andeq	r7, r4, sp, lsl r2
     90c:	00251500 	eoreq	r1, r5, r0, lsl #10
     910:	091c0000 	ldmdbeq	ip, {}	; <UNPREDICTABLE>
     914:	25160000 	ldrcs	r0, [r6, #-0]
     918:	00000000 	andeq	r0, r0, r0
     91c:	0001df20 	andeq	sp, r1, r0, lsr #30
     920:	0e1d0600 	cfmsub32eq	mvax0, mvfx0, mvfx13, mvfx0
     924:	00000928 	andeq	r0, r0, r8, lsr #18
     928:	090d0405 	stmdbeq	sp, {r0, r2, sl}
     92c:	25150000 	ldrcs	r0, [r5, #-0]
     930:	3d000000 	stccc	0, cr0, [r0, #-0]
     934:	16000009 	strne	r0, [r0], -r9
     938:	000005e4 	andeq	r0, r0, r4, ror #11
     93c:	07862000 	streq	r2, [r6, r0]
     940:	22060000 	andcs	r0, r6, #0
     944:	0009490e 	andeq	r4, r9, lr, lsl #18
     948:	2e040500 	cfsh32cs	mvfx0, mvfx4, #0
     94c:	21000009 	tstcs	r0, r9
     950:	00000042 	andeq	r0, r0, r2, asr #32
     954:	10060501 	andne	r0, r6, r1, lsl #10
     958:	d0000080 	andle	r0, r0, r0, lsl #1
     95c:	01000000 	mrseq	r0, (UNDEF: 0)
     960:	000ade9c 	muleq	sl, ip, lr
     964:	006e2200 	rsbeq	r2, lr, r0, lsl #4
     968:	2c0e0a01 			; <UNDEFINED> instruction: 0x2c0e0a01
     96c:	00000000 	andeq	r0, r0, r0
     970:	23001000 	movwcs	r1, #0
     974:	0d010070 	stceq	0, cr0, [r1, #-448]	; 0xfffffe40
     978:	0001170b 	andeq	r1, r1, fp, lsl #14
     97c:	00000400 	andeq	r0, r0, r0, lsl #8
     980:	00000000 	andeq	r0, r0, r0
     984:	021c2400 	andseq	r2, ip, #0, 8
     988:	0aee0000 	beq	ffb80990 <__bss_end__+0xffb76920>
     98c:	03050000 	movweq	r0, #20480	; 0x5000
     990:	00009728 	andeq	r9, r0, r8, lsr #14
     994:	00028925 	andeq	r8, r2, r5, lsr #18
     998:	0e120100 	mufeqs	f0, f2, f0
     99c:	0000002c 	andeq	r0, r0, ip, lsr #32
     9a0:	00000028 	andeq	r0, r0, r8, lsr #32
     9a4:	00000022 	andeq	r0, r0, r2, lsr #32
     9a8:	00802026 	addeq	r2, r0, r6, lsr #32
     9ac:	000af300 	andeq	pc, sl, r0, lsl #6
     9b0:	0009bf00 	andeq	fp, r9, r0, lsl #30
     9b4:	50012700 	andpl	r2, r1, r0, lsl #14
     9b8:	969c0305 	ldrls	r0, [ip], r5, lsl #6
     9bc:	26000000 	strcs	r0, [r0], -r0
     9c0:	00008028 	andeq	r8, r0, r8, lsr #32
     9c4:	00000aff 	strdeq	r0, [r0], -pc	; <UNPREDICTABLE>
     9c8:	000009d4 	ldrdeq	r0, [r0], -r4
     9cc:	03500127 	cmpeq	r0, #-1073741815	; 0xc0000009
     9d0:	00244040 	eoreq	r4, r4, r0, asr #32
     9d4:	00803026 	addeq	r3, r0, r6, lsr #32
     9d8:	000b0b00 	andeq	r0, fp, r0, lsl #22
     9dc:	0009e900 	andeq	lr, r9, r0, lsl #18
     9e0:	50012700 	andpl	r2, r1, r0, lsl #14
     9e4:	24404003 	strbcs	r4, [r0], #-3
     9e8:	80382600 	eorshi	r2, r8, r0, lsl #12
     9ec:	0b170000 	bleq	5c09f4 <__bss_end__+0x5b6984>
     9f0:	09fe0000 	ldmibeq	lr!, {}^	; <UNPREDICTABLE>
     9f4:	01270000 			; <UNDEFINED> instruction: 0x01270000
     9f8:	40400351 	submi	r0, r0, r1, asr r3
     9fc:	54260024 	strtpl	r0, [r6], #-36	; 0xffffffdc
     a00:	23000080 	movwcs	r0, #128	; 0x80
     a04:	2200000b 	andcs	r0, r0, #11
     a08:	2700000a 	strcs	r0, [r0, -sl]
     a0c:	34015001 	strcc	r5, [r1], #-1
     a10:	02510127 	subseq	r0, r1, #-1073741815	; 0xc0000009
     a14:	01270075 			; <UNDEFINED> instruction: 0x01270075
     a18:	00760252 	rsbseq	r0, r6, r2, asr r2
     a1c:	01530127 	cmpeq	r3, r7, lsr #2
     a20:	6426003d 	strtvs	r0, [r6], #-61	; 0xffffffc3
     a24:	2f000080 	svccs	0x00000080
     a28:	4000000b 	andmi	r0, r0, fp
     a2c:	2700000a 	strcs	r0, [r0, -sl]
     a30:	74025001 	strvc	r5, [r2], #-1
     a34:	51012700 	tstpl	r1, r0, lsl #14
     a38:	01273001 			; <UNDEFINED> instruction: 0x01273001
     a3c:	00340152 	eorseq	r0, r4, r2, asr r1
     a40:	00807826 	addeq	r7, r0, r6, lsr #16
     a44:	000b3b00 	andeq	r3, fp, r0, lsl #22
     a48:	000a6500 	andeq	r6, sl, r0, lsl #10
     a4c:	50012700 	andpl	r2, r1, r0, lsl #14
     a50:	27007402 	strcs	r7, [r0, -r2, lsl #8]
     a54:	75025101 	strvc	r5, [r2, #-257]	; 0xfffffeff
     a58:	52012700 	andpl	r2, r1, #0, 14
     a5c:	27007602 	strcs	r7, [r0, -r2, lsl #12]
     a60:	3f015301 	svccc	0x00015301
     a64:	80842800 	addhi	r2, r4, r0, lsl #16
     a68:	0b470000 	bleq	11c0a70 <__bss_end__+0x11b6a00>
     a6c:	94260000 	strtls	r0, [r6], #-0
     a70:	f3000080 	vhadd.u8	d0, d16, d0
     a74:	8500000a 	strhi	r0, [r0, #-10]
     a78:	2700000a 	strcs	r0, [r0, -sl]
     a7c:	03055001 	movweq	r5, #20481	; 0x5001
     a80:	00009700 	andeq	r9, r0, r0, lsl #14
     a84:	809c2600 	addshi	r2, ip, r0, lsl #12
     a88:	0af30000 	beq	ffcc0a90 <__bss_end__+0xffcb6a20>
     a8c:	0a9c0000 	beq	fe700a94 <__bss_end__+0xfe6f6a24>
     a90:	01270000 			; <UNDEFINED> instruction: 0x01270000
     a94:	08030550 	stmdaeq	r3, {r4, r6, r8, sl}
     a98:	00000097 	muleq	r0, r7, r0
     a9c:	0080ac28 	addeq	sl, r0, r8, lsr #24
     aa0:	000b5300 	andeq	r5, fp, r0, lsl #6
     aa4:	80c42600 	sbchi	r2, r4, r0, lsl #12
     aa8:	0af30000 	beq	ffcc0ab0 <__bss_end__+0xffcb6a40>
     aac:	0ad40000 	beq	ff500ab4 <__bss_end__+0xff4f6a44>
     ab0:	01270000 			; <UNDEFINED> instruction: 0x01270000
     ab4:	c4030550 	strgt	r0, [r3], #-1360	; 0xfffffab0
     ab8:	27000096 			; <UNDEFINED> instruction: 0x27000096
     abc:	75025101 	strvc	r5, [r2, #-257]	; 0xfffffeff
     ac0:	52012700 	andpl	r2, r1, #0, 14
     ac4:	27007602 	strcs	r7, [r0, -r2, lsl #12]
     ac8:	44015301 	strmi	r5, [r1], #-769	; 0xfffffcff
     acc:	007d0227 	rsbseq	r0, sp, r7, lsr #4
     ad0:	00007402 	andeq	r7, r0, r2, lsl #8
     ad4:	0080c828 	addeq	ip, r0, r8, lsr #16
     ad8:	000b5f00 	andeq	r5, fp, r0, lsl #30
     adc:	240a0000 	strcs	r0, [sl], #-0
     ae0:	ee000001 	cdp	0, 0, cr0, cr0, cr1, {0}
     ae4:	0b00000a 	bleq	b14 <_start-0x74ec>
     ae8:	0000002c 	andeq	r0, r0, ip, lsr #32
     aec:	de0f0007 	cdple	0, 0, cr0, cr15, cr7, {0}
     af0:	2900000a 	stmdbcs	r0, {r1, r3}
     af4:	0000071d 	andeq	r0, r0, sp, lsl r7
     af8:	0000071d 	andeq	r0, r0, sp, lsl r7
     afc:	29052906 	stmdbcs	r5, {r1, r2, r8, fp, sp}
     b00:	00000164 	andeq	r0, r0, r4, ror #2
     b04:	00000164 	andeq	r0, r0, r4, ror #2
     b08:	29067206 	stmdbcs	r6, {r1, r2, r9, ip, sp, lr}
     b0c:	000004e5 	andeq	r0, r0, r5, ror #9
     b10:	000004e5 	andeq	r0, r0, r5, ror #9
     b14:	29076c06 	stmdbcs	r7, {r1, r2, sl, fp, sp, lr}
     b18:	00000143 	andeq	r0, r0, r3, asr #2
     b1c:	00000143 	andeq	r0, r0, r3, asr #2
     b20:	29067707 	stmdbcs	r6, {r0, r1, r2, r8, r9, sl, ip, sp, lr}
     b24:	00000081 	andeq	r0, r0, r1, lsl #1
     b28:	00000081 	andeq	r0, r0, r1, lsl #1
     b2c:	29087407 	stmdbcs	r8, {r0, r1, r2, sl, ip, sp, lr}
     b30:	0000049f 	muleq	r0, pc, r4	; <UNPREDICTABLE>
     b34:	0000049f 	muleq	r0, pc, r4	; <UNPREDICTABLE>
     b38:	29092108 	stmdbcs	r9, {r3, r8, sp}
     b3c:	00000282 	andeq	r0, r0, r2, lsl #5
     b40:	00000282 	andeq	r0, r0, r2, lsl #5
     b44:	29077507 	stmdbcs	r7, {r0, r1, r2, r8, sl, ip, sp, lr}
     b48:	0000000c 	andeq	r0, r0, ip
     b4c:	0000000c 	andeq	r0, r0, ip
     b50:	29057d07 	stmdbcs	r5, {r0, r1, r2, r8, sl, fp, ip, sp, lr}
     b54:	000001f7 	strdeq	r0, [r0], -r7
     b58:	000001f7 	strdeq	r0, [r0], -r7
     b5c:	29061e06 	stmdbcs	r6, {r1, r2, r9, sl, fp, ip}
     b60:	000002a0 	andeq	r0, r0, r0, lsr #5
     b64:	000002a0 	andeq	r0, r0, r0, lsr #5
     b68:	00066506 	andeq	r6, r6, r6, lsl #10
     b6c:	00001a32 	andeq	r1, r0, r2, lsr sl
     b70:	024e0004 	subeq	r0, lr, #4
     b74:	01040000 	mrseq	r0, (UNDEF: 4)
     b78:	00000302 	andeq	r0, r0, r2, lsl #6
     b7c:	0005e50c 	andeq	lr, r5, ip, lsl #10
     b80:	0000d900 	andeq	sp, r0, r0, lsl #18
     b84:	0080e000 	addeq	lr, r0, r0
     b88:	0008d800 	andeq	sp, r8, r0, lsl #16
     b8c:	00014b00 	andeq	r4, r1, r0, lsl #22
     b90:	05040200 	streq	r0, [r4, #-512]	; 0xfffffe00
     b94:	00746e69 	rsbseq	r6, r4, r9, ror #28
     b98:	74070403 	strvc	r0, [r7], #-1027	; 0xfffffbfd
     b9c:	03000000 	movweq	r0, #0
     ba0:	02f10601 	rscseq	r0, r1, #1048576	; 0x100000
     ba4:	02030000 	andeq	r0, r3, #0
     ba8:	00038a05 	andeq	r8, r3, r5, lsl #20
     bac:	05040300 	streq	r0, [r4, #-768]	; 0xfffffd00
     bb0:	000000ba 	strheq	r0, [r0], -sl
     bb4:	b5050803 	strlt	r0, [r5, #-2051]	; 0xfffff7fd
     bb8:	04000000 	streq	r0, [r0], #-0
     bbc:	000006a4 	andeq	r0, r0, r4, lsr #13
     bc0:	5b182e03 	blpl	60c3d4 <__bss_end__+0x602364>
     bc4:	03000000 	movweq	r0, #0
     bc8:	02ef0801 	rsceq	r0, pc, #65536	; 0x10000
     bcc:	02030000 	andeq	r0, r3, #0
     bd0:	00023007 	andeq	r3, r2, r7
     bd4:	06620400 	strbteq	r0, [r2], -r0, lsl #8
     bd8:	34030000 	strcc	r0, [r3], #-0
     bdc:	00007519 	andeq	r7, r0, r9, lsl r5
     be0:	07040300 	streq	r0, [r4, -r0, lsl #6]
     be4:	0000006f 	andeq	r0, r0, pc, rrx
     be8:	6a070803 	bvs	1c2bfc <__bss_end__+0x1b8b8c>
     bec:	04000000 	streq	r0, [r0], #-0
     bf0:	00000273 	andeq	r0, r0, r3, ror r2
     bf4:	8f192204 	svchi	0x00192204
     bf8:	05000000 	streq	r0, [r0, #-0]
     bfc:	00009504 	andeq	r9, r0, r4, lsl #10
     c00:	04300600 	ldrteq	r0, [r0], #-1536	; 0xfffffa00
     c04:	d0040000 	andle	r0, r4, r0
     c08:	05000002 	streq	r0, [r0, #-2]
     c0c:	00410e2c 	subeq	r0, r1, ip, lsr #28
     c10:	45040000 	strmi	r0, [r4, #-0]
     c14:	05000004 	streq	r0, [r0, #-4]
     c18:	00410e72 	subeq	r0, r1, r2, ror lr
     c1c:	7b070000 	blvc	1c0c24 <__bss_end__+0x1b6bb4>
     c20:	06000002 	streq	r0, [r0], -r2
     c24:	2c17015e 	ldfcss	f0, [r7], {94}	; 0x5e
     c28:	08000000 	stmdaeq	r0, {}	; <UNPREDICTABLE>
     c2c:	03a60504 			; <UNDEFINED> instruction: 0x03a60504
     c30:	000000e1 	andeq	r0, r0, r1, ror #1
     c34:	00026d09 	andeq	r6, r2, r9, lsl #26
     c38:	0ca80500 	cfstr32eq	mvfx0, [r8]
     c3c:	000000b2 	strheq	r0, [r0], -r2
     c40:	0001f009 	andeq	pc, r1, r9
     c44:	13a90500 			; <UNDEFINED> instruction: 0x13a90500
     c48:	000000e1 	andeq	r0, r0, r1, ror #1
     c4c:	005b0a00 	subseq	r0, fp, r0, lsl #20
     c50:	00f10000 	rscseq	r0, r1, r0
     c54:	2c0b0000 	stccs	0, cr0, [fp], {-0}
     c58:	03000000 	movweq	r0, #0
     c5c:	05080c00 	streq	r0, [r8, #-3072]	; 0xfffff400
     c60:	011509a3 	tsteq	r5, r3, lsr #19
     c64:	280d0000 	stmdacs	sp, {}	; <UNPREDICTABLE>
     c68:	05000004 	streq	r0, [r0, #-4]
     c6c:	002507a5 	eoreq	r0, r5, r5, lsr #15
     c70:	0d000000 	stceq	0, cr0, [r0, #-0]
     c74:	00000437 	andeq	r0, r0, r7, lsr r4
     c78:	bf05aa05 	svclt	0x0005aa05
     c7c:	04000000 	streq	r0, [r0], #-0
     c80:	03b20400 			; <UNDEFINED> instruction: 0x03b20400
     c84:	ab050000 	blge	140c8c <__bss_end__+0x136c1c>
     c88:	0000f103 	andeq	pc, r0, r3, lsl #2
     c8c:	01ad0400 			; <UNDEFINED> instruction: 0x01ad0400
     c90:	af050000 	svcge	0x00050000
     c94:	0000831b 	andeq	r8, r0, fp, lsl r3
     c98:	05040e00 	streq	r0, [r4, #-3584]	; 0xfffff200
     c9c:	00013504 	andeq	r3, r1, r4, lsl #10
     ca0:	08010300 	stmdaeq	r1, {r8, r9}
     ca4:	000002f8 	strdeq	r0, [r0], -r8
     ca8:	0001350f 	andeq	r3, r1, pc, lsl #10
     cac:	04770400 	ldrbteq	r0, [r7], #-1024	; 0xfffffc00
     cb0:	16070000 	strne	r0, [r7], -r0
     cb4:	00007519 	andeq	r7, r0, r9, lsl r5
     cb8:	01be1000 			; <UNDEFINED> instruction: 0x01be1000
     cbc:	07180000 	ldreq	r0, [r8, -r0]
     cc0:	01a7082f 			; <UNDEFINED> instruction: 0x01a7082f
     cc4:	d30d0000 	movwle	r0, #53248	; 0xd000
     cc8:	07000003 	streq	r0, [r0, -r3]
     ccc:	01a71331 			; <UNDEFINED> instruction: 0x01a71331
     cd0:	11000000 	mrsne	r0, (UNDEF: 0)
     cd4:	07006b5f 	smlsdeq	r0, pc, fp, r6	; <UNPREDICTABLE>
     cd8:	00250732 	eoreq	r0, r5, r2, lsr r7
     cdc:	0d040000 	stceq	0, cr0, [r4, #-0]
     ce0:	00000413 	andeq	r0, r0, r3, lsl r4
     ce4:	250b3207 	strcs	r3, [fp, #-519]	; 0xfffffdf9
     ce8:	08000000 	stmdaeq	r0, {}	; <UNPREDICTABLE>
     cec:	0001a70d 	andeq	sl, r1, sp, lsl #14
     cf0:	14320700 	ldrtne	r0, [r2], #-1792	; 0xfffff900
     cf4:	00000025 	andeq	r0, r0, r5, lsr #32
     cf8:	04b30d0c 	ldrteq	r0, [r3], #3340	; 0xd0c
     cfc:	32070000 	andcc	r0, r7, #0
     d00:	0000251b 	andeq	r2, r0, fp, lsl r5
     d04:	5f111000 	svcpl	0x00111000
     d08:	33070078 	movwcc	r0, #28792	; 0x7078
     d0c:	0001ad0b 	andeq	sl, r1, fp, lsl #26
     d10:	05001400 	streq	r1, [r0, #-1024]	; 0xfffffc00
     d14:	00014d04 	andeq	r4, r1, r4, lsl #26
     d18:	01410a00 	cmpeq	r1, r0, lsl #20
     d1c:	01bd0000 			; <UNDEFINED> instruction: 0x01bd0000
     d20:	2c0b0000 	stccs	0, cr0, [fp], {-0}
     d24:	00000000 	andeq	r0, r0, r0
     d28:	01eb1000 	mvneq	r1, r0
     d2c:	07240000 	streq	r0, [r4, -r0]!
     d30:	02400837 	subeq	r0, r0, #3604480	; 0x370000
     d34:	ac0d0000 	stcge	0, cr0, [sp], {-0}
     d38:	07000000 	streq	r0, [r0, -r0]
     d3c:	00250939 	eoreq	r0, r5, r9, lsr r9
     d40:	0d000000 	stceq	0, cr0, [r0, #-0]
     d44:	0000044d 	andeq	r0, r0, sp, asr #8
     d48:	25093a07 	strcs	r3, [r9, #-2567]	; 0xfffff5f9
     d4c:	04000000 	streq	r0, [r0], #-0
     d50:	0000cf0d 	andeq	ip, r0, sp, lsl #30
     d54:	093b0700 	ldmdbeq	fp!, {r8, r9, sl}
     d58:	00000025 	andeq	r0, r0, r5, lsr #32
     d5c:	05340d08 	ldreq	r0, [r4, #-3336]!	; 0xfffff2f8
     d60:	3c070000 	stccc	0, cr0, [r7], {-0}
     d64:	00002509 	andeq	r2, r0, r9, lsl #10
     d68:	b40d0c00 	strlt	r0, [sp], #-3072	; 0xfffff400
     d6c:	07000002 	streq	r0, [r0, -r2]
     d70:	0025093d 	eoreq	r0, r5, sp, lsr r9
     d74:	0d100000 	ldceq	0, cr0, [r0, #-0]
     d78:	00000296 	muleq	r0, r6, r2
     d7c:	25093e07 	strcs	r3, [r9, #-3591]	; 0xfffff1f9
     d80:	14000000 	strne	r0, [r0], #-0
     d84:	0004b80d 	andeq	fp, r4, sp, lsl #16
     d88:	093f0700 	ldmdbeq	pc!, {r8, r9, sl}	; <UNPREDICTABLE>
     d8c:	00000025 	andeq	r0, r0, r5, lsr #32
     d90:	03940d18 	orrseq	r0, r4, #24, 26	; 0x600
     d94:	40070000 	andmi	r0, r7, r0
     d98:	00002509 	andeq	r2, r0, r9, lsl #10
     d9c:	fb0d1c00 	blx	347da6 <__bss_end__+0x33dd36>
     da0:	07000004 	streq	r0, [r0, -r4]
     da4:	00250941 	eoreq	r0, r5, r1, asr #18
     da8:	00200000 	eoreq	r0, r0, r0
     dac:	00010f12 	andeq	r0, r1, r2, lsl pc
     db0:	07010800 	streq	r0, [r1, -r0, lsl #16]
     db4:	0285084a 	addeq	r0, r5, #4849664	; 0x4a0000
     db8:	9a0d0000 	bls	340dc0 <__bss_end__+0x336d50>
     dbc:	07000001 	streq	r0, [r0, -r1]
     dc0:	02850a4b 	addeq	r0, r5, #307200	; 0x4b000
     dc4:	0d000000 	stceq	0, cr0, [r0, #-0]
     dc8:	00000000 	andeq	r0, r0, r0
     dcc:	85094c07 	strhi	r4, [r9, #-3079]	; 0xfffff3f9
     dd0:	80000002 	andhi	r0, r0, r2
     dd4:	00046913 	andeq	r6, r4, r3, lsl r9
     dd8:	0a4e0700 	beq	13829e0 <__bss_end__+0x1378970>
     ddc:	00000141 	andeq	r0, r0, r1, asr #2
     de0:	34130100 	ldrcc	r0, [r3], #-256	; 0xffffff00
     de4:	07000001 	streq	r0, [r0, -r1]
     de8:	01410a51 	cmpeq	r1, r1, asr sl
     dec:	01040000 	mrseq	r0, (UNDEF: 4)
     df0:	012d0a00 			; <UNDEFINED> instruction: 0x012d0a00
     df4:	02950000 	addseq	r0, r5, #0
     df8:	2c0b0000 	stccs	0, cr0, [fp], {-0}
     dfc:	1f000000 	svcne	0x00000000
     e00:	02bd1200 	adcseq	r1, sp, #0, 4
     e04:	01900000 	orrseq	r0, r0, r0
     e08:	d8085d07 	stmdale	r8, {r0, r1, r2, r8, sl, fp, ip, lr}
     e0c:	0d000002 	stceq	0, cr0, [r0, #-8]
     e10:	000003d3 	ldrdeq	r0, [r0], -r3
     e14:	d8125e07 	ldmdale	r2, {r0, r1, r2, r9, sl, fp, ip, lr}
     e18:	00000002 	andeq	r0, r0, r2
     e1c:	0003eb0d 	andeq	lr, r3, sp, lsl #22
     e20:	065f0700 	ldrbeq	r0, [pc], -r0, lsl #14
     e24:	00000025 	andeq	r0, r0, r5, lsr #32
     e28:	01a20d04 			; <UNDEFINED> instruction: 0x01a20d04
     e2c:	61070000 	mrsvs	r0, (UNDEF: 7)
     e30:	0002de09 	andeq	sp, r2, r9, lsl #28
     e34:	0f0d0800 	svceq	0x000d0800
     e38:	07000001 	streq	r0, [r0, -r1]
     e3c:	02401e62 	subeq	r1, r0, #1568	; 0x620
     e40:	00880000 	addeq	r0, r8, r0
     e44:	02950405 	addseq	r0, r5, #83886080	; 0x5000000
     e48:	ee0a0000 	cdp	0, 0, cr0, cr10, cr0, {0}
     e4c:	ee000002 	cdp	0, 0, cr0, cr0, cr2, {0}
     e50:	0b000002 	bleq	e60 <_start-0x71a0>
     e54:	0000002c 	andeq	r0, r0, ip, lsr #32
     e58:	0405001f 	streq	r0, [r5], #-31	; 0xffffffe1
     e5c:	000002f4 	strdeq	r0, [r0], -r4
     e60:	039e1014 	orrseq	r1, lr, #20
     e64:	07080000 	streq	r0, [r8, -r0]
     e68:	031d0875 	tsteq	sp, #7667712	; 0x750000
     e6c:	c90d0000 	stmdbgt	sp, {}	; <UNPREDICTABLE>
     e70:	07000000 	streq	r0, [r0, -r0]
     e74:	031d1176 	tsteq	sp, #-2147483619	; 0x8000001d
     e78:	0d000000 	stceq	0, cr0, [r0, #-0]
     e7c:	0000001b 	andeq	r0, r0, fp, lsl r0
     e80:	25067707 	strcs	r7, [r6, #-1799]	; 0xfffff8f9
     e84:	04000000 	streq	r0, [r0], #-0
     e88:	5b040500 	blpl	102290 <__bss_end__+0xf8220>
     e8c:	10000000 	andne	r0, r0, r0
     e90:	000003bd 			; <UNDEFINED> instruction: 0x000003bd
     e94:	08b50768 	ldmeq	r5!, {r3, r5, r6, r8, r9, sl}
     e98:	00000466 	andeq	r0, r0, r6, ror #8
     e9c:	00705f11 	rsbseq	r5, r0, r1, lsl pc
     ea0:	1d12b607 	ldcne	6, cr11, [r2, #-28]	; 0xffffffe4
     ea4:	00000003 	andeq	r0, r0, r3
     ea8:	00725f11 	rsbseq	r5, r2, r1, lsl pc
     eac:	2507b707 	strcs	fp, [r7, #-1799]	; 0xfffff8f9
     eb0:	04000000 	streq	r0, [r0], #-0
     eb4:	00775f11 	rsbseq	r5, r7, r1, lsl pc
     eb8:	2507b807 	strcs	fp, [r7, #-2055]	; 0xfffff7f9
     ebc:	08000000 	stmdaeq	r0, {}	; <UNPREDICTABLE>
     ec0:	00012d0d 	andeq	r2, r1, sp, lsl #26
     ec4:	09b90700 	ldmibeq	r9!, {r8, r9, sl}
     ec8:	0000003a 	andeq	r0, r0, sl, lsr r0
     ecc:	02160d0c 	andseq	r0, r6, #12, 26	; 0x300
     ed0:	ba070000 	blt	1c0ed8 <__bss_end__+0x1b6e68>
     ed4:	00003a09 	andeq	r3, r0, r9, lsl #20
     ed8:	5f110e00 	svcpl	0x00110e00
     edc:	07006662 	streq	r6, [r0, -r2, ror #12]
     ee0:	02f511bb 	rscseq	r1, r5, #-1073741778	; 0xc000002e
     ee4:	0d100000 	ldceq	0, cr0, [r0, #-0]
     ee8:	00000089 	andeq	r0, r0, r9, lsl #1
     eec:	2507bc07 	strcs	fp, [r7, #-3079]	; 0xfffff3f9
     ef0:	18000000 	stmdane	r0, {}	; <UNPREDICTABLE>
     ef4:	00011d0d 	andeq	r1, r1, sp, lsl #26
     ef8:	0ac30700 	beq	ff0c2b00 <__bss_end__+0xff0b8a90>
     efc:	0000012d 	andeq	r0, r0, sp, lsr #2
     f00:	0b420d1c 	bleq	1084378 <__bss_end__+0x107a308>
     f04:	c5070000 	strgt	r0, [r7, #-0]
     f08:	0005d81d 	andeq	sp, r5, sp, lsl r8
     f0c:	370d2000 	strcc	r2, [sp, -r0]
     f10:	07000006 	streq	r0, [r0, -r6]
     f14:	06021dc7 	streq	r1, [r2], -r7, asr #27
     f18:	0d240000 	stceq	0, cr0, [r4, #-0]
     f1c:	0000043f 	andeq	r0, r0, pc, lsr r4
     f20:	260dca07 	strcs	ip, [sp], -r7, lsl #20
     f24:	28000006 	stmdacs	r0, {r1, r2}
     f28:	0005150d 	andeq	r1, r5, sp, lsl #10
     f2c:	09cb0700 	stmibeq	fp, {r8, r9, sl}^
     f30:	00000640 	andeq	r0, r0, r0, asr #12
     f34:	755f112c 	ldrbvc	r1, [pc, #-300]	; e10 <_start-0x71f0>
     f38:	ce070062 	cdpgt	0, 0, cr0, cr7, cr2, {3}
     f3c:	0002f511 	andeq	pc, r2, r1, lsl r5	; <UNPREDICTABLE>
     f40:	5f113000 	svcpl	0x00113000
     f44:	07007075 	smlsdxeq	r0, r5, r0, r7
     f48:	031d12cf 	tsteq	sp, #-268435444	; 0xf000000c
     f4c:	11380000 	teqne	r8, r0
     f50:	0072755f 	rsbseq	r7, r2, pc, asr r5
     f54:	2507d007 	strcs	sp, [r7, #-7]
     f58:	3c000000 	stccc	0, cr0, [r0], {-0}
     f5c:	0000c30d 	andeq	ip, r0, sp, lsl #6
     f60:	11d30700 	bicsne	r0, r3, r0, lsl #14
     f64:	00000646 	andeq	r0, r0, r6, asr #12
     f68:	04ed0d40 	strbteq	r0, [sp], #3392	; 0xd40
     f6c:	d4070000 	strle	r0, [r7], #-0
     f70:	00065611 	andeq	r5, r6, r1, lsl r6
     f74:	5f114300 	svcpl	0x00114300
     f78:	0700626c 	streq	r6, [r0, -ip, ror #4]
     f7c:	02f511d7 	rscseq	r1, r5, #-1073741771	; 0xc0000035
     f80:	0d440000 	stcleq	0, cr0, [r4, #-0]
     f84:	0000014b 	andeq	r0, r0, fp, asr #2
     f88:	2507da07 	strcs	sp, [r7, #-2567]	; 0xfffff5f9
     f8c:	4c000000 	stcmi	0, cr0, [r0], {-0}
     f90:	00015c0d 	andeq	r5, r1, sp, lsl #24
     f94:	0adb0700 	beq	ff6c2b9c <__bss_end__+0xff6b8b2c>
     f98:	0000009a 	muleq	r0, sl, r0
     f9c:	0ae30d50 	beq	ff8c44e4 <__bss_end__+0xff8ba474>
     fa0:	de070000 	cdple	0, 0, cr0, cr7, cr0, {0}
     fa4:	00048412 	andeq	r8, r4, r2, lsl r4
     fa8:	310d5400 	tstcc	sp, r0, lsl #8
     fac:	07000004 	streq	r0, [r0, -r4]
     fb0:	01210ce2 	smulwteq	r1, r2, ip
     fb4:	0d580000 	ldcleq	0, cr0, [r8, #-0]
     fb8:	000003c5 	andeq	r0, r0, r5, asr #7
     fbc:	150ee407 	strne	lr, [lr, #-1031]	; 0xfffffbf9
     fc0:	5c000001 	stcpl	0, cr0, [r0], {1}
     fc4:	00028e0d 	andeq	r8, r2, sp, lsl #28
     fc8:	09e50700 	stmibeq	r5!, {r8, r9, sl}^
     fcc:	00000025 	andeq	r0, r0, r5, lsr #32
     fd0:	25150064 	ldrcs	r0, [r5, #-100]	; 0xffffff9c
     fd4:	84000000 	strhi	r0, [r0], #-0
     fd8:	16000004 	strne	r0, [r0], -r4
     fdc:	00000484 	andeq	r0, r0, r4, lsl #9
     fe0:	00012d16 	andeq	r2, r1, r6, lsl sp
     fe4:	012f1600 			; <UNDEFINED> instruction: 0x012f1600
     fe8:	25160000 	ldrcs	r0, [r6, #-0]
     fec:	00000000 	andeq	r0, r0, r0
     ff0:	048f0405 	streq	r0, [pc], #1029	; ff8 <_start-0x7008>
     ff4:	840f0000 	strhi	r0, [pc], #-0	; ffc <_start-0x7004>
     ff8:	17000004 	strne	r0, [r0, -r4]
     ffc:	0000041b 	andeq	r0, r0, fp, lsl r4
    1000:	60070428 	andvs	r0, r7, r8, lsr #8
    1004:	05d80802 	ldrbeq	r0, [r8, #2050]	; 0x802
    1008:	83180000 	tsthi	r8, #0
    100c:	07000003 	streq	r0, [r0, -r3]
    1010:	25070262 	strcs	r0, [r7, #-610]	; 0xfffffd9e
    1014:	00000000 	andeq	r0, r0, r0
    1018:	00013c18 	andeq	r3, r1, r8, lsl ip
    101c:	02670700 	rsbeq	r0, r7, #0, 14
    1020:	0006b20b 	andeq	fp, r6, fp, lsl #4
    1024:	06180400 	ldreq	r0, [r8], -r0, lsl #8
    1028:	07000002 	streq	r0, [r0, -r2]
    102c:	b2140267 	andslt	r0, r4, #1879048198	; 0x70000006
    1030:	08000006 	stmdaeq	r0, {r1, r2}
    1034:	0001b618 	andeq	fp, r1, r8, lsl r6
    1038:	02670700 	rsbeq	r0, r7, #0, 14
    103c:	0006b21e 	andeq	fp, r6, lr, lsl r2
    1040:	e6180c00 	ldr	r0, [r8], -r0, lsl #24
    1044:	07000003 	streq	r0, [r0, -r3]
    1048:	25080269 	strcs	r0, [r8, #-617]	; 0xfffffd97
    104c:	10000000 	andne	r0, r0, r0
    1050:	00003718 	andeq	r3, r0, r8, lsl r7
    1054:	026a0700 	rsbeq	r0, sl, #0, 14
    1058:	0008b208 	andeq	fp, r8, r8, lsl #4
    105c:	fa181400 	blx	606064 <__bss_end__+0x5fbff4>
    1060:	07000003 	streq	r0, [r0, -r3]
    1064:	2507026d 	strcs	r0, [r7, #-621]	; 0xfffffd93
    1068:	30000000 	andcc	r0, r0, r0
    106c:	000a1f18 	andeq	r1, sl, r8, lsl pc
    1070:	026e0700 	rsbeq	r0, lr, #0, 14
    1074:	0008c716 	andeq	ip, r8, r6, lsl r7
    1078:	c5183400 	ldrgt	r3, [r8, #-1024]	; 0xfffffc00
    107c:	07000002 	streq	r0, [r0, -r2]
    1080:	25070270 	strcs	r0, [r7, #-624]	; 0xfffffd90
    1084:	38000000 	stmdacc	r0, {}	; <UNPREDICTABLE>
    1088:	0003f018 	andeq	pc, r3, r8, lsl r0	; <UNPREDICTABLE>
    108c:	02720700 	rsbseq	r0, r2, #0, 14
    1090:	0008d80a 	andeq	sp, r8, sl, lsl #16
    1094:	65183c00 	ldrvs	r3, [r8, #-3072]	; 0xfffff400
    1098:	07000002 	streq	r0, [r0, -r2]
    109c:	a7130275 			; <UNDEFINED> instruction: 0xa7130275
    10a0:	40000001 	andmi	r0, r0, r1
    10a4:	0001d518 	andeq	sp, r1, r8, lsl r5
    10a8:	02760700 	rsbseq	r0, r6, #0, 14
    10ac:	00002507 	andeq	r2, r0, r7, lsl #10
    10b0:	2f184400 	svccs	0x00184400
    10b4:	07000005 	streq	r0, [r0, -r5]
    10b8:	a7130277 			; <UNDEFINED> instruction: 0xa7130277
    10bc:	48000001 	stmdami	r0, {r0}
    10c0:	0002d718 	andeq	sp, r2, r8, lsl r7
    10c4:	02780700 	rsbseq	r0, r8, #0, 14
    10c8:	0008de14 	andeq	sp, r8, r4, lsl lr
    10cc:	0e184c00 	cdpeq	12, 1, cr4, cr8, cr0, {0}
    10d0:	07000002 	streq	r0, [r0, -r2]
    10d4:	2507027b 	strcs	r0, [r7, #-635]	; 0xfffffd85
    10d8:	50000000 	andpl	r0, r0, r0
    10dc:	00015418 	andeq	r5, r1, r8, lsl r4
    10e0:	027c0700 	rsbseq	r0, ip, #0, 14
    10e4:	00012f09 	andeq	r2, r1, r9, lsl #30
    10e8:	fd185400 	ldc2	4, cr5, [r8, #-0]
    10ec:	07000002 	streq	r0, [r0, -r2]
    10f0:	8d07029f 	sfmhi	f0, 4, [r7, #-636]	; 0xfffffd84
    10f4:	58000008 	stmdapl	r0, {r3}
    10f8:	0002bd19 	andeq	fp, r2, r9, lsl sp
    10fc:	02a30700 	adceq	r0, r3, #0, 14
    1100:	0002d813 	andeq	sp, r2, r3, lsl r8
    1104:	19014800 	stmdbne	r1, {fp, lr}
    1108:	00000243 	andeq	r0, r0, r3, asr #4
    110c:	1202a407 	andne	sl, r2, #117440512	; 0x7000000
    1110:	00000295 	muleq	r0, r5, r2
    1114:	db19014c 	blle	64164c <__bss_end__+0x6375dc>
    1118:	07000004 	streq	r0, [r0, -r4]
    111c:	ef0c02a8 	svc	0x000c02a8
    1120:	dc000008 	stcle	0, cr0, [r0], {8}
    1124:	01251902 			; <UNDEFINED> instruction: 0x01251902
    1128:	ad070000 	stcge	0, cr0, [r7, #-0]
    112c:	06731002 	ldrbteq	r1, [r3], -r2
    1130:	02e00000 	rsceq	r0, r0, #0
    1134:	00010a19 	andeq	r0, r1, r9, lsl sl
    1138:	02af0700 	adceq	r0, pc, #0, 14
    113c:	0008fb0a 	andeq	pc, r8, sl, lsl #22
    1140:	0002ec00 	andeq	lr, r2, r0, lsl #24
    1144:	04660405 	strbteq	r0, [r6], #-1029	; 0xfffffbfb
    1148:	25150000 	ldrcs	r0, [r5, #-0]
    114c:	fc000000 	stc2	0, cr0, [r0], {-0}
    1150:	16000005 	strne	r0, [r0], -r5
    1154:	00000484 	andeq	r0, r0, r4, lsl #9
    1158:	00012d16 	andeq	r2, r1, r6, lsl sp
    115c:	05fc1600 	ldrbeq	r1, [ip, #1536]!	; 0x600
    1160:	25160000 	ldrcs	r0, [r6, #-0]
    1164:	00000000 	andeq	r0, r0, r0
    1168:	013c0405 	teqeq	ip, r5, lsl #8
    116c:	04050000 	streq	r0, [r5], #-0
    1170:	000005de 	ldrdeq	r0, [r0], -lr
    1174:	0000a615 	andeq	sl, r0, r5, lsl r6
    1178:	00062600 	andeq	r2, r6, r0, lsl #12
    117c:	04841600 	streq	r1, [r4], #1536	; 0x600
    1180:	2d160000 	ldccs	0, cr0, [r6, #-0]
    1184:	16000001 	strne	r0, [r0], -r1
    1188:	000000a6 	andeq	r0, r0, r6, lsr #1
    118c:	00002516 	andeq	r2, r0, r6, lsl r5
    1190:	04050000 	streq	r0, [r5], #-0
    1194:	00000608 	andeq	r0, r0, r8, lsl #12
    1198:	00002515 	andeq	r2, r0, r5, lsl r5
    119c:	00064000 	andeq	r4, r6, r0
    11a0:	04841600 	streq	r1, [r4], #1536	; 0x600
    11a4:	2d160000 	ldccs	0, cr0, [r6, #-0]
    11a8:	00000001 	andeq	r0, r0, r1
    11ac:	062c0405 	strteq	r0, [ip], -r5, lsl #8
    11b0:	5b0a0000 	blpl	2811b8 <__bss_end__+0x277148>
    11b4:	56000000 	strpl	r0, [r0], -r0
    11b8:	0b000006 	bleq	11d8 <_start-0x6e28>
    11bc:	0000002c 	andeq	r0, r0, ip, lsr #32
    11c0:	5b0a0002 	blpl	2811d0 <__bss_end__+0x277160>
    11c4:	66000000 	strvs	r0, [r0], -r0
    11c8:	0b000006 	bleq	11e8 <_start-0x6e18>
    11cc:	0000002c 	andeq	r0, r0, ip, lsr #32
    11d0:	ab070000 	blge	1c11d8 <__bss_end__+0x1b7168>
    11d4:	07000003 	streq	r0, [r0, -r3]
    11d8:	231a011f 	tstcs	sl, #-1073741817	; 0xc0000007
    11dc:	1a000003 	bne	11f0 <_start-0x6e10>
    11e0:	000004c2 	andeq	r0, r0, r2, asr #9
    11e4:	0123070c 			; <UNDEFINED> instruction: 0x0123070c
    11e8:	0006ac08 	andeq	sl, r6, r8, lsl #24
    11ec:	03d31800 	bicseq	r1, r3, #0, 16
    11f0:	25070000 	strcs	r0, [r7, #-0]
    11f4:	06ac1101 	strteq	r1, [ip], r1, lsl #2
    11f8:	18000000 	stmdane	r0, {}	; <UNPREDICTABLE>
    11fc:	00000229 	andeq	r0, r0, r9, lsr #4
    1200:	07012607 	streq	r2, [r1, -r7, lsl #12]
    1204:	00000025 	andeq	r0, r0, r5, lsr #32
    1208:	03a51804 			; <UNDEFINED> instruction: 0x03a51804
    120c:	27070000 	strcs	r0, [r7, -r0]
    1210:	06b20b01 	ldrteq	r0, [r2], r1, lsl #22
    1214:	00080000 	andeq	r0, r8, r0
    1218:	06730405 	ldrbteq	r0, [r3], -r5, lsl #8
    121c:	04050000 	streq	r0, [r5], #-0
    1220:	00000666 	andeq	r0, r0, r6, ror #12
    1224:	00002f1a 	andeq	r2, r0, sl, lsl pc
    1228:	3f070e00 	svccc	0x00070e00
    122c:	06f10801 	ldrbteq	r0, [r1], r1, lsl #16
    1230:	22180000 	andscs	r0, r8, #0
    1234:	07000004 	streq	r0, [r0, -r4]
    1238:	f1120140 			; <UNDEFINED> instruction: 0xf1120140
    123c:	00000006 	andeq	r0, r0, r6
    1240:	00045618 	andeq	r5, r4, r8, lsl r6
    1244:	01410700 	cmpeq	r1, r0, lsl #14
    1248:	0006f112 	andeq	pc, r6, r2, lsl r1	; <UNPREDICTABLE>
    124c:	72180600 	andsvc	r0, r8, #0, 12
    1250:	07000004 	streq	r0, [r0, -r4]
    1254:	62120142 	andsvs	r0, r2, #-2147483632	; 0x80000010
    1258:	0c000000 	stceq	0, cr0, [r0], {-0}
    125c:	00620a00 	rsbeq	r0, r2, r0, lsl #20
    1260:	07010000 	streq	r0, [r1, -r0]
    1264:	2c0b0000 	stccs	0, cr0, [fp], {-0}
    1268:	02000000 	andeq	r0, r0, #0
    126c:	07d01b00 	ldrbeq	r1, [r0, r0, lsl #22]
    1270:	16070280 	strne	r0, [r7], -r0, lsl #5
    1274:	18000008 	stmdane	r0, {r3}
    1278:	000004a6 	andeq	r0, r0, r6, lsr #9
    127c:	18028207 	stmdane	r2, {r0, r1, r2, r9, pc}
    1280:	0000002c 	andeq	r0, r0, ip, lsr #32
    1284:	045c1800 	ldrbeq	r1, [ip], #-2048	; 0xfffff800
    1288:	83070000 	movwhi	r0, #28672	; 0x7000
    128c:	012f1202 			; <UNDEFINED> instruction: 0x012f1202
    1290:	18040000 	stmdane	r4, {}	; <UNPREDICTABLE>
    1294:	00000258 	andeq	r0, r0, r8, asr r2
    1298:	10028407 	andne	r8, r2, r7, lsl #8
    129c:	00000816 	andeq	r0, r0, r6, lsl r8
    12a0:	05061808 	streq	r1, [r6, #-2056]	; 0xfffff7f8
    12a4:	85070000 	strhi	r0, [r7, #-0]
    12a8:	01bd1702 			; <UNDEFINED> instruction: 0x01bd1702
    12ac:	18240000 	stmdane	r4!, {}	; <UNPREDICTABLE>
    12b0:	000001c6 	andeq	r0, r0, r6, asr #3
    12b4:	0f028607 	svceq	0x00028607
    12b8:	00000025 	andeq	r0, r0, r5, lsr #32
    12bc:	03ce1848 	biceq	r1, lr, #72, 16	; 0x480000
    12c0:	87070000 	strhi	r0, [r7, -r0]
    12c4:	007c2c02 	rsbseq	r2, ip, r2, lsl #24
    12c8:	18500000 	ldmdane	r0, {}^	; <UNPREDICTABLE>
    12cc:	0000051c 	andeq	r0, r0, ip, lsl r5
    12d0:	1a028807 	bne	a32f4 <__bss_end__+0x99284>
    12d4:	000006b8 			; <UNDEFINED> instruction: 0x000006b8
    12d8:	03d91858 	bicseq	r1, r9, #88, 16	; 0x580000
    12dc:	89070000 	stmdbhi	r7, {}	; <UNPREDICTABLE>
    12e0:	01151602 	tsteq	r5, r2, lsl #12
    12e4:	18680000 	stmdane	r8!, {}^	; <UNPREDICTABLE>
    12e8:	00000521 	andeq	r0, r0, r1, lsr #10
    12ec:	16028a07 	strne	r8, [r2], -r7, lsl #20
    12f0:	00000115 	andeq	r0, r0, r5, lsl r1
    12f4:	02e11870 	rsceq	r1, r1, #112, 16	; 0x700000
    12f8:	8b070000 	blhi	1c1300 <__bss_end__+0x1b7290>
    12fc:	01151602 	tsteq	r5, r2, lsl #12
    1300:	18780000 	ldmdane	r8!, {}^	; <UNPREDICTABLE>
    1304:	000004d1 	ldrdeq	r0, [r0], -r1
    1308:	10028c07 	andne	r8, r2, r7, lsl #24
    130c:	00000826 	andeq	r0, r0, r6, lsr #16
    1310:	024c1880 	subeq	r1, ip, #128, 16	; 0x800000
    1314:	8d070000 	stchi	0, cr0, [r7, #-0]
    1318:	08361002 	ldmdaeq	r6!, {r1, ip}
    131c:	18880000 	stmne	r8, {}	; <UNPREDICTABLE>
    1320:	0000047f 	andeq	r0, r0, pc, ror r4
    1324:	0f028e07 	svceq	0x00028e07
    1328:	00000025 	andeq	r0, r0, r5, lsr #32
    132c:	018c18a0 	orreq	r1, ip, r0, lsr #17
    1330:	8f070000 	svchi	0x00070000
    1334:	01151602 	tsteq	r5, r2, lsl #12
    1338:	18a40000 	stmiane	r4!, {}	; <UNPREDICTABLE>
    133c:	0000009d 	muleq	r0, sp, r0
    1340:	16029007 	strne	r9, [r2], -r7
    1344:	00000115 	andeq	r0, r0, r5, lsl r1
    1348:	017b18ac 	cmneq	fp, ip, lsr #17
    134c:	91070000 	mrsls	r0, (UNDEF: 7)
    1350:	01151602 	tsteq	r5, r2, lsl #12
    1354:	18b40000 	ldmne	r4!, {}	; <UNPREDICTABLE>
    1358:	0000004a 	andeq	r0, r0, sl, asr #32
    135c:	16029207 	strne	r9, [r2], -r7, lsl #4
    1360:	00000115 	andeq	r0, r0, r5, lsl r1
    1364:	005918bc 	ldrheq	r1, [r9], #-140	; 0xffffff74
    1368:	93070000 	movwls	r0, #28672	; 0x7000
    136c:	01151602 	tsteq	r5, r2, lsl #12
    1370:	18c40000 	stmiane	r4, {}^	; <UNPREDICTABLE>
    1374:	00000381 	andeq	r0, r0, r1, lsl #7
    1378:	08029407 	stmdaeq	r2, {r0, r1, r2, sl, ip, pc}
    137c:	00000025 	andeq	r0, r0, r5, lsr #32
    1380:	350a00cc 	strcc	r0, [sl, #-204]	; 0xffffff34
    1384:	26000001 	strcs	r0, [r0], -r1
    1388:	0b000008 	bleq	13b0 <_start-0x6c50>
    138c:	0000002c 	andeq	r0, r0, ip, lsr #32
    1390:	350a0019 	strcc	r0, [sl, #-25]	; 0xffffffe7
    1394:	36000001 	strcc	r0, [r0], -r1
    1398:	0b000008 	bleq	13c0 <_start-0x6c40>
    139c:	0000002c 	andeq	r0, r0, ip, lsr #32
    13a0:	350a0007 	strcc	r0, [sl, #-7]
    13a4:	46000001 	strmi	r0, [r0], -r1
    13a8:	0b000008 	bleq	13d0 <_start-0x6c30>
    13ac:	0000002c 	andeq	r0, r0, ip, lsr #32
    13b0:	f01b0017 			; <UNDEFINED> instruction: 0xf01b0017
    13b4:	07029907 	streq	r9, [r2, -r7, lsl #18]
    13b8:	0000086d 	andeq	r0, r0, sp, ror #16
    13bc:	0002ad18 	andeq	sl, r2, r8, lsl sp
    13c0:	029c0700 	addseq	r0, ip, #0, 14
    13c4:	00086d1b 	andeq	r6, r8, fp, lsl sp
    13c8:	c8180000 	ldmdagt	r8, {}	; <UNPREDICTABLE>
    13cc:	07000004 	streq	r0, [r0, -r4]
    13d0:	7d18029d 	lfmvc	f0, 4, [r8, #-628]	; 0xfffffd8c
    13d4:	78000008 	stmdavc	r0, {r3}
    13d8:	031d0a00 	tsteq	sp, #0, 20
    13dc:	087d0000 	ldmdaeq	sp!, {}^	; <UNPREDICTABLE>
    13e0:	2c0b0000 	stccs	0, cr0, [fp], {-0}
    13e4:	1d000000 	stcne	0, cr0, [r0, #-0]
    13e8:	002c0a00 	eoreq	r0, ip, r0, lsl #20
    13ec:	088d0000 	stmeq	sp, {}	; <UNPREDICTABLE>
    13f0:	2c0b0000 	stccs	0, cr0, [fp], {-0}
    13f4:	1d000000 	stcne	0, cr0, [r0, #-0]
    13f8:	07f01c00 	ldrbeq	r1, [r0, r0, lsl #24]!
    13fc:	b203027e 	andlt	r0, r3, #-536870905	; 0xe0000007
    1400:	1d000008 	stcne	0, cr0, [r0, #-32]	; 0xffffffe0
    1404:	0000041b 	andeq	r0, r0, fp, lsl r4
    1408:	0b029507 	bleq	a682c <__bss_end__+0x9c7bc>
    140c:	00000701 	andeq	r0, r0, r1, lsl #14
    1410:	0004f31d 	andeq	pc, r4, sp, lsl r3	; <UNPREDICTABLE>
    1414:	029e0700 	addseq	r0, lr, #0, 14
    1418:	0008460b 	andeq	r4, r8, fp, lsl #12
    141c:	350a0000 	strcc	r0, [sl, #-0]
    1420:	c2000001 	andgt	r0, r0, #1
    1424:	0b000008 	bleq	144c <_start-0x6bb4>
    1428:	0000002c 	andeq	r0, r0, ip, lsr #32
    142c:	92060018 	andls	r0, r6, #24
    1430:	05000000 	streq	r0, [r0, #-0]
    1434:	0008c204 	andeq	ip, r8, r4, lsl #4
    1438:	08d81e00 	ldmeq	r8, {r9, sl, fp, ip}^
    143c:	84160000 	ldrhi	r0, [r6], #-0
    1440:	00000004 	andeq	r0, r0, r4
    1444:	08cd0405 	stmiaeq	sp, {r0, r2, sl}^
    1448:	04050000 	streq	r0, [r5], #-0
    144c:	000001a7 	andeq	r0, r0, r7, lsr #3
    1450:	0008ef1e 	andeq	lr, r8, lr, lsl pc
    1454:	00251600 	eoreq	r1, r5, r0, lsl #12
    1458:	05000000 	streq	r0, [r0, #-0]
    145c:	0008f504 	andeq	pc, r8, r4, lsl #10
    1460:	e4040500 	str	r0, [r4], #-1280	; 0xfffffb00
    1464:	0a000008 	beq	148c <_start-0x6b74>
    1468:	00000666 	andeq	r0, r0, r6, ror #12
    146c:	0000090b 	andeq	r0, r0, fp, lsl #18
    1470:	00002c0b 	andeq	r2, r0, fp, lsl #24
    1474:	1f000200 	svcne	0x00000200
    1478:	00000493 	muleq	r0, r3, r4
    147c:	17032e07 	strne	r2, [r3, -r7, lsl #28]
    1480:	00000484 	andeq	r0, r0, r4, lsl #9
    1484:	00048c1f 	andeq	r8, r4, pc, lsl ip
    1488:	032f0700 			; <UNDEFINED> instruction: 0x032f0700
    148c:	00048a1d 	andeq	r8, r4, sp, lsl sl
    1490:	00251500 	eoreq	r1, r5, r0, lsl #10
    1494:	09340000 	ldmdbeq	r4!, {}	; <UNPREDICTABLE>
    1498:	25160000 	ldrcs	r0, [r6, #-0]
    149c:	00000000 	andeq	r0, r0, r0
    14a0:	0001df20 	andeq	sp, r1, r0, lsr #30
    14a4:	0e1d0800 	cdpeq	8, 1, cr0, cr13, cr0, {0}
    14a8:	00000940 	andeq	r0, r0, r0, asr #18
    14ac:	09250405 	stmdbeq	r5!, {r0, r2, sl}
    14b0:	25150000 	ldrcs	r0, [r5, #-0]
    14b4:	55000000 	strpl	r0, [r0, #-0]
    14b8:	16000009 	strne	r0, [r0], -r9
    14bc:	000005fc 	strdeq	r0, [r0], -ip
    14c0:	07862000 	streq	r2, [r6, r0]
    14c4:	22080000 	andcs	r0, r8, #0
    14c8:	0009610e 	andeq	r6, r9, lr, lsl #2
    14cc:	46040500 	strmi	r0, [r4], -r0, lsl #10
    14d0:	21000009 	tstcs	r0, r9
    14d4:	005b0107 	subseq	r0, fp, r7, lsl #2
    14d8:	24020000 	strcs	r0, [r2], #-0
    14dc:	0009820e 	andeq	r8, r9, lr, lsl #4
    14e0:	05822200 	streq	r2, [r2, #512]	; 0x200
    14e4:	220b0000 	andcs	r0, fp, #0
    14e8:	0000057c 	andeq	r0, r0, ip, ror r5
    14ec:	0c0c000c 	stceq	0, cr0, [ip], {12}
    14f0:	b3092602 	movwlt	r2, #38402	; 0x9602
    14f4:	0d000009 	stceq	0, cr0, [r0, #-36]	; 0xffffffdc
    14f8:	00000217 	andeq	r0, r0, r7, lsl r2
    14fc:	fc112702 	ldc2	7, cr2, [r1], {2}
    1500:	00000005 	andeq	r0, r0, r5
    1504:	0004e00d 	andeq	lr, r4, sp
    1508:	11280200 			; <UNDEFINED> instruction: 0x11280200
    150c:	000005fc 	strdeq	r0, [r0], -ip
    1510:	05460d04 	strbeq	r0, [r6, #-3332]	; 0xfffff2fc
    1514:	29020000 	stmdbcs	r2, {}	; <UNPREDICTABLE>
    1518:	00002c0e 	andeq	r2, r0, lr, lsl #24
    151c:	04000800 	streq	r0, [r0], #-2048	; 0xfffff800
    1520:	00000658 	andeq	r0, r0, r8, asr r6
    1524:	82032a02 	andhi	r2, r3, #8192	; 0x2000
    1528:	10000009 	andne	r0, r0, r9
    152c:	000006cc 	andeq	r0, r0, ip, asr #13
    1530:	102d0238 	eorne	r0, sp, r8, lsr r2
    1534:	00000a4f 	andeq	r0, r0, pc, asr #20
    1538:	0006140d 	andeq	r1, r6, sp, lsl #8
    153c:	0e2e0200 	cdpeq	2, 2, cr0, cr14, cr0, {0}
    1540:	00000069 	andeq	r0, r0, r9, rrx
    1544:	06b20d00 	ldrteq	r0, [r2], r0, lsl #26
    1548:	2f020000 	svccs	0x00020000
    154c:	0000690e 	andeq	r6, r0, lr, lsl #18
    1550:	e90d0400 	stmdb	sp, {sl}
    1554:	02000002 	andeq	r0, r0, #2
    1558:	00690e30 	rsbeq	r0, r9, r0, lsr lr
    155c:	0d080000 	stceq	0, cr0, [r8, #-0]
    1560:	0000060e 	andeq	r0, r0, lr, lsl #12
    1564:	690e3402 	stmdbvs	lr, {r1, sl, ip, sp}
    1568:	0c000000 	stceq	0, cr0, [r0], {-0}
    156c:	0006000d 	andeq	r0, r6, sp
    1570:	0f360200 	svceq	0x00360200
    1574:	000009b3 			; <UNDEFINED> instruction: 0x000009b3
    1578:	05690d10 	strbeq	r0, [r9, #-3344]!	; 0xfffff2f0
    157c:	37020000 	strcc	r0, [r2, -r0]
    1580:	0009b30f 	andeq	fp, r9, pc, lsl #6
    1584:	960d1c00 	strls	r1, [sp], -r0, lsl #24
    1588:	02000005 	andeq	r0, r0, #5
    158c:	00690e3b 	rsbeq	r0, r9, fp, lsr lr
    1590:	0d280000 	stceq	0, cr0, [r8, #-0]
    1594:	0000058a 	andeq	r0, r0, sl, lsl #11
    1598:	690e3c02 	stmdbvs	lr, {r1, sl, fp, ip, sp}
    159c:	2c000000 	stccs	0, cr0, [r0], {-0}
    15a0:	00055a0d 	andeq	r5, r5, sp, lsl #20
    15a4:	153f0200 	ldrne	r0, [pc, #-512]!	; 13ac <_start-0x6c54>
    15a8:	00000a4f 	andeq	r0, r0, pc, asr #20
    15ac:	053e0d30 	ldreq	r0, [lr, #-3376]!	; 0xfffff2d0
    15b0:	41020000 	mrsmi	r0, (UNDEF: 2)
    15b4:	0000690e 	andeq	r6, r0, lr, lsl #18
    15b8:	05003400 	streq	r3, [r0, #-1024]	; 0xfffffc00
    15bc:	0009bf04 	andeq	fp, r9, r4, lsl #30
    15c0:	06ac0400 	strteq	r0, [ip], r0, lsl #8
    15c4:	42020000 	andmi	r0, r2, #0
    15c8:	0009bf03 	andeq	fp, r9, r3, lsl #30
    15cc:	02072100 	andeq	r2, r7, #0, 2
    15d0:	00000062 	andeq	r0, r0, r2, rrx
    15d4:	89066202 	stmdbhi	r6, {r1, r9, sp, lr}
    15d8:	2200000a 	andcs	r0, r0, #10
    15dc:	00000682 	andeq	r0, r0, r2, lsl #13
    15e0:	05b922fe 	ldreq	r2, [r9, #766]!	; 0x2fe
    15e4:	22800000 	addcs	r0, r0, #0
    15e8:	000005c1 	andeq	r0, r0, r1, asr #11
    15ec:	05a923b8 	streq	r2, [r9, #952]!	; 0x3b8
    15f0:	01380000 	teqeq	r8, r0
    15f4:	067d2400 	ldrbteq	r2, [sp], -r0, lsl #8
    15f8:	07010000 	streq	r0, [r1, -r0]
    15fc:	000a9b11 	andeq	r9, sl, r1, lsl fp
    1600:	68030500 	stmdavs	r3, {r8, sl}
    1604:	0500009c 	streq	r0, [r0, #-156]	; 0xffffff64
    1608:	00004f04 	andeq	r4, r0, r4, lsl #30
    160c:	0c372400 	cfldrseq	mvf2, [r7], #-0
    1610:	07010000 	streq	r0, [r1, -r0]
    1614:	000a9b1c 	andeq	r9, sl, ip, lsl fp
    1618:	6c030500 	cfstr32vs	mvfx0, [r3], {-0}
    161c:	2400009c 	strcs	r0, [r0], #-156	; 0xffffff64
    1620:	00000c1e 	andeq	r0, r0, lr, lsl ip
    1624:	9b270701 	blls	9c3230 <__bss_end__+0x9b91c0>
    1628:	0500000a 	streq	r0, [r0, #-10]
    162c:	009c6403 	addseq	r6, ip, r3, lsl #8
    1630:	000c2500 	andeq	r2, ip, r0, lsl #10
    1634:	b4010000 	strlt	r0, [r1], #-0
    1638:	00002505 	andeq	r2, r0, r5, lsl #10
    163c:	00887400 	addeq	r7, r8, r0, lsl #8
    1640:	00014400 	andeq	r4, r1, r0, lsl #8
    1644:	b79c0100 	ldrlt	r0, [ip, r0, lsl #2]
    1648:	2600000c 	strcs	r0, [r0], -ip
    164c:	000005a1 	andeq	r0, r0, r1, lsr #11
    1650:	2c0eb501 	cfstr32cs	mvfx11, [lr], {1}
    1654:	53000000 	movwpl	r0, #0
    1658:	51000000 	mrspl	r0, (UNDEF: 0)
    165c:	26000000 	strcs	r0, [r0], -r0
    1660:	000006bd 			; <UNDEFINED> instruction: 0x000006bd
    1664:	2c0eb601 	stccs	6, cr11, [lr], {1}
    1668:	68000000 	stmdavs	r0, {}	; <UNPREDICTABLE>
    166c:	66000000 	strvs	r0, [r0], -r0
    1670:	26000000 	strcs	r0, [r0], -r0
    1674:	0000066b 	andeq	r0, r0, fp, ror #12
    1678:	2c0eba01 			; <UNDEFINED> instruction: 0x2c0eba01
    167c:	7f000000 	svcvc	0x00000000
    1680:	7b000000 	blvc	1688 <_start-0x6978>
    1684:	26000000 	strcs	r0, [r0], -r0
    1688:	00000652 	andeq	r0, r0, r2, asr r6
    168c:	2c0ebb01 			; <UNDEFINED> instruction: 0x2c0ebb01
    1690:	a2000000 	andge	r0, r0, #0
    1694:	9e000000 	cdpls	0, 0, cr0, cr0, cr0, {0}
    1698:	27000000 	strcs	r0, [r0, -r0]
    169c:	00000048 	andeq	r0, r0, r8, asr #32
    16a0:	00000c12 	andeq	r0, r0, r2, lsl ip
    16a4:	00069126 	andeq	r9, r6, r6, lsr #2
    16a8:	11be0100 			; <UNDEFINED> instruction: 0x11be0100
    16ac:	00000cb7 			; <UNDEFINED> instruction: 0x00000cb7
    16b0:	000000c9 	andeq	r0, r0, r9, asr #1
    16b4:	000000c1 	andeq	r0, r0, r1, asr #1
    16b8:	0088ac28 	addeq	sl, r8, r8, lsr #24
    16bc:	000d0e00 	andeq	r0, sp, r0, lsl #28
    16c0:	88fc2900 	ldmhi	ip!, {r8, fp, sp}^
    16c4:	0cbd0000 	ldceq	0, cr0, [sp]
    16c8:	0b690000 	bleq	1a416d0 <__bss_end__+0x1a37660>
    16cc:	012a0000 			; <UNDEFINED> instruction: 0x012a0000
    16d0:	00740250 	rsbseq	r0, r4, r0, asr r2
    16d4:	89102900 	ldmdbhi	r0, {r8, fp, sp}
    16d8:	16760000 	ldrbtne	r0, [r6], -r0
    16dc:	0b7d0000 	bleq	1f416e4 <__bss_end__+0x1f37674>
    16e0:	012a0000 			; <UNDEFINED> instruction: 0x012a0000
    16e4:	00740250 	rsbseq	r0, r4, r0, asr r2
    16e8:	89202900 	stmdbhi	r0!, {r8, fp, sp}
    16ec:	18f50000 	ldmne	r5!, {}^	; <UNPREDICTABLE>
    16f0:	0b910000 	bleq	fe4416f8 <__bss_end__+0xfe437688>
    16f4:	012a0000 			; <UNDEFINED> instruction: 0x012a0000
    16f8:	00740250 	rsbseq	r0, r4, r0, asr r2
    16fc:	892c2900 	stmdbhi	ip!, {r8, fp, sp}
    1700:	14e80000 	strbtne	r0, [r8], #0
    1704:	0bab0000 	bleq	feac170c <__bss_end__+0xfeab769c>
    1708:	012a0000 			; <UNDEFINED> instruction: 0x012a0000
    170c:	80080251 	andhi	r0, r8, r1, asr r2
    1710:	0252012a 	subseq	r0, r2, #-2147483638	; 0x8000000a
    1714:	29000074 	stmdbcs	r0, {r2, r4, r5, r6}
    1718:	0000893c 	andeq	r8, r0, ip, lsr r9
    171c:	0000187a 	andeq	r1, r0, sl, ror r8
    1720:	00000bbf 			; <UNDEFINED> instruction: 0x00000bbf
    1724:	0250012a 	subseq	r0, r0, #-2147483638	; 0x8000000a
    1728:	29000074 	stmdbcs	r0, {r2, r4, r5, r6}
    172c:	00008948 	andeq	r8, r0, r8, asr #18
    1730:	0000184d 	andeq	r1, r0, sp, asr #16
    1734:	00000bd3 	ldrdeq	r0, [r0], -r3
    1738:	0250012a 	subseq	r0, r0, #-2147483638	; 0x8000000a
    173c:	29000074 	stmdbcs	r0, {r2, r4, r5, r6}
    1740:	00008958 	andeq	r8, r0, r8, asr r9
    1744:	000014e8 	andeq	r1, r0, r8, ror #9
    1748:	00000bed 	andeq	r0, r0, sp, ror #23
    174c:	0250012a 	subseq	r0, r0, #-2147483638	; 0x8000000a
    1750:	012a0077 			; <UNDEFINED> instruction: 0x012a0077
    1754:	00740252 	rsbseq	r0, r4, r2, asr r2
    1758:	89742900 	ldmdbhi	r4!, {r8, fp, sp}^
    175c:	18b70000 	ldmne	r7!, {}	; <UNPREDICTABLE>
    1760:	0c010000 	stceq	0, cr0, [r1], {-0}
    1764:	012a0000 			; <UNDEFINED> instruction: 0x012a0000
    1768:	00740250 	rsbseq	r0, r4, r0, asr r2
    176c:	89802b00 	stmibhi	r0, {r8, r9, fp, sp}
    1770:	13290000 			; <UNDEFINED> instruction: 0x13290000
    1774:	012a0000 			; <UNDEFINED> instruction: 0x012a0000
    1778:	00740252 	rsbseq	r0, r4, r2, asr r2
    177c:	98290000 	stmdals	r9!, {}	; <UNPREDICTABLE>
    1780:	f9000088 			; <UNDEFINED> instruction: 0xf9000088
    1784:	29000019 	stmdbcs	r0, {r0, r3, r4}
    1788:	2a00000c 	bcs	17c0 <_start-0x6840>
    178c:	03055001 	movweq	r5, #20481	; 0x5001
    1790:	00009700 	andeq	r9, r0, r0, lsl #14
    1794:	88a82900 	stmiahi	r8!, {r8, fp, sp}
    1798:	19f90000 	ldmibne	r9!, {}^	; <UNPREDICTABLE>
    179c:	0c4c0000 	mareq	acc0, r0, ip
    17a0:	012a0000 			; <UNDEFINED> instruction: 0x012a0000
    17a4:	8c030550 	cfstr32hi	mvfx0, [r3], {80}	; 0x50
    17a8:	2a000099 	bcs	1a14 <_start-0x65ec>
    17ac:	74025101 	strvc	r5, [r2], #-257	; 0xfffffeff
    17b0:	52012a00 	andpl	r2, r1, #0, 20
    17b4:	00007502 	andeq	r7, r0, r2, lsl #10
    17b8:	0088d429 	addeq	sp, r8, r9, lsr #8
    17bc:	0019f900 	andseq	pc, r9, r0, lsl #18
    17c0:	000c6300 	andeq	r6, ip, r0, lsl #6
    17c4:	50012a00 	andpl	r2, r1, r0, lsl #20
    17c8:	97000305 	strls	r0, [r0, -r5, lsl #6]
    17cc:	29000000 	stmdbcs	r0, {}	; <UNPREDICTABLE>
    17d0:	000088e4 	andeq	r8, r0, r4, ror #17
    17d4:	000019f9 	strdeq	r1, [r0], -r9
    17d8:	00000c86 	andeq	r0, r0, r6, lsl #25
    17dc:	0550012a 	ldrbeq	r0, [r0, #-298]	; 0xfffffed6
    17e0:	0099c403 	addseq	ip, r9, r3, lsl #8
    17e4:	51012a00 	tstpl	r1, r0, lsl #20
    17e8:	2a007502 	bcs	1ebf8 <__bss_end__+0x14b88>
    17ec:	76025201 	strvc	r5, [r2], -r1, lsl #4
    17f0:	94290000 	strtls	r0, [r9], #-0
    17f4:	f9000089 			; <UNDEFINED> instruction: 0xf9000089
    17f8:	9d000019 	stcls	0, cr0, [r0, #-100]	; 0xffffff9c
    17fc:	2a00000c 	bcs	1834 <_start-0x67cc>
    1800:	03055001 	movweq	r5, #20481	; 0x5001
    1804:	00009700 	andeq	r9, r0, r0, lsl #14
    1808:	89a02b00 	stmibhi	r0!, {r8, r9, fp, sp}
    180c:	19f90000 	ldmibne	r9!, {}^	; <UNPREDICTABLE>
    1810:	012a0000 			; <UNDEFINED> instruction: 0x012a0000
    1814:	ec030550 	cfstr32	mvfx0, [r3], {80}	; 0x50
    1818:	2a000099 	bcs	1a84 <_start-0x657c>
    181c:	75025101 	strvc	r5, [r2, #-257]	; 0xfffffeff
    1820:	05000000 	streq	r0, [r0, #-0]
    1824:	000a5504 	andeq	r5, sl, r4, lsl #10
    1828:	05f42500 	ldrbeq	r2, [r4, #1280]!	; 0x500
    182c:	ac010000 	stcge	0, cr0, [r1], {-0}
    1830:	000cb708 	andeq	fp, ip, r8, lsl #14
    1834:	00882800 	addeq	r2, r8, r0, lsl #16
    1838:	00004c00 	andeq	r4, r0, r0, lsl #24
    183c:	0e9c0100 	fmleqe	f0, f4, f0
    1840:	2c00000d 	stccs	0, cr0, [r0], {13}
    1844:	ac010070 	stcge	0, cr0, [r1], {112}	; 0x70
    1848:	000cb71b 	andeq	fp, ip, fp, lsl r7
    184c:	00010500 	andeq	r0, r1, r0, lsl #10
    1850:	0000fd00 	andeq	pc, r0, r0, lsl #26
    1854:	64682d00 	strbtvs	r2, [r8], #-3328	; 0xfffff300
    1858:	ad010072 	stcge	0, cr0, [r1, #-456]	; 0xfffffe38
    185c:	000cb70c 	andeq	fp, ip, ip, lsl #14
    1860:	00014300 	andeq	r4, r1, r0, lsl #6
    1864:	00013f00 	andeq	r3, r1, r0, lsl #30
    1868:	88582b00 	ldmdahi	r8, {r8, r9, fp, sp}^
    186c:	16760000 	ldrbtne	r0, [r6], -r0
    1870:	012a0000 			; <UNDEFINED> instruction: 0x012a0000
    1874:	00740250 	rsbseq	r0, r4, r0, asr r2
    1878:	4d250000 	stcmi	0, cr0, [r5, #-0]
    187c:	01000005 	tsteq	r0, r5
    1880:	0cb708a7 	ldceq	8, cr0, [r7], #668	; 0x29c
    1884:	87f80000 	ldrbhi	r0, [r8, r0]!
    1888:	00300000 	eorseq	r0, r0, r0
    188c:	9c010000 	stcls	0, cr0, [r1], {-0}
    1890:	00000d4d 	andeq	r0, r0, sp, asr #26
    1894:	7264682d 	rsbvc	r6, r4, #2949120	; 0x2d0000
    1898:	0ca80100 	stfeqs	f0, [r8]
    189c:	00000cb7 			; <UNDEFINED> instruction: 0x00000cb7
    18a0:	00000165 	andeq	r0, r0, r5, ror #2
    18a4:	00000161 	andeq	r0, r0, r1, ror #2
    18a8:	00880c2b 	addeq	r0, r8, fp, lsr #24
    18ac:	00167600 	andseq	r7, r6, r0, lsl #12
    18b0:	50012a00 	andpl	r2, r1, r0, lsl #20
    18b4:	00007402 	andeq	r7, r0, r2, lsl #8
    18b8:	00812500 	addeq	r2, r1, r0, lsl #10
    18bc:	83010000 	movwhi	r0, #4096	; 0x1000
    18c0:	00012d08 	andeq	r2, r1, r8, lsl #26
    18c4:	0085dc00 	addeq	sp, r5, r0, lsl #24
    18c8:	00021c00 	andeq	r1, r2, r0, lsl #24
    18cc:	a19c0100 	orrsge	r0, ip, r0, lsl #2
    18d0:	2e000010 	mcrcs	0, 0, r0, cr0, cr0, {0}
    18d4:	0000069d 	muleq	r0, sp, r6
    18d8:	691a8301 	ldmdbvs	sl, {r0, r8, r9, pc}
    18dc:	8d000000 	stchi	0, cr0, [r0, #-0]
    18e0:	83000001 	movwhi	r0, #1
    18e4:	2e000001 	cdpcs	0, 0, cr0, cr0, cr1, {0}
    18e8:	00000217 	andeq	r0, r0, r7, lsl r2
    18ec:	fc2e8301 	stc2	3, cr8, [lr], #-4
    18f0:	d9000005 	stmdble	r0, {r0, r2}
    18f4:	cf000001 	svcgt	0x00000001
    18f8:	2e000001 	cdpcs	0, 0, cr0, cr0, cr1, {0}
    18fc:	000004e0 	andeq	r0, r0, r0, ror #9
    1900:	fc408301 	mcrr2	3, 0, r8, r0, cr1
    1904:	25000005 	strcs	r0, [r0, #-5]
    1908:	1b000002 	blne	1918 <_start-0x66e8>
    190c:	2e000002 	cdpcs	0, 0, cr0, cr0, cr2, {0}
    1910:	00000546 	andeq	r0, r0, r6, asr #10
    1914:	2c4f8301 	mcrrcs	3, 0, r8, pc, cr1
    1918:	71000000 	mrsvc	r0, (UNDEF: 0)
    191c:	67000002 	strvs	r0, [r0, -r2]
    1920:	2d000002 	stccs	0, cr0, [r0, #-8]
    1924:	84010068 	strhi	r0, [r1], #-104	; 0xffffff98
    1928:	000cb70c 	andeq	fp, ip, ip, lsl #14
    192c:	0002be00 	andeq	fp, r2, r0, lsl #28
    1930:	0002b600 	andeq	fp, r2, r0, lsl #12
    1934:	74702d00 	ldrbtvc	r2, [r0], #-3328	; 0xfffff300
    1938:	85010072 	strhi	r0, [r1, #-114]	; 0xffffff8e
    193c:	00012d0b 	andeq	r2, r1, fp, lsl #26
    1940:	0002fc00 	andeq	pc, r2, r0, lsl #24
    1944:	0002f400 	andeq	pc, r2, r0, lsl #8
    1948:	021c2f00 	andseq	r2, ip, #0, 30
    194c:	10b10000 	adcsne	r0, r1, r0
    1950:	03050000 	movweq	r0, #20480	; 0x5000
    1954:	00009a2c 	andeq	r9, r0, ip, lsr #20
    1958:	746f742d 	strbtvc	r7, [pc], #-1069	; 1960 <_start-0x66a0>
    195c:	0e8a0100 	rmfeqe	f0, f2, f0
    1960:	0000002c 	andeq	r0, r0, ip, lsr #32
    1964:	0000033e 	andeq	r0, r0, lr, lsr r3
    1968:	00000332 	andeq	r0, r0, r2, lsr r3
    196c:	01006e2d 	tsteq	r0, sp, lsr #28
    1970:	002c0e8b 	eoreq	r0, ip, fp, lsl #29
    1974:	03950000 	orrseq	r0, r5, #0
    1978:	03910000 	orrseq	r0, r1, #0
    197c:	0c290000 	stceq	0, cr0, [r9], #-0
    1980:	f9000086 			; <UNDEFINED> instruction: 0xf9000086
    1984:	29000019 	stmdbcs	r0, {r0, r3, r4}
    1988:	2a00000e 	bcs	19c8 <_start-0x6638>
    198c:	03055001 	movweq	r5, #20481	; 0x5001
    1990:	00009700 	andeq	r9, r0, r0, lsl #14
    1994:	86182900 	ldrhi	r2, [r8], -r0, lsl #18
    1998:	19f90000 	ldmibne	r9!, {}^	; <UNPREDICTABLE>
    199c:	0e460000 	cdpeq	0, 4, cr0, cr6, cr0, {0}
    19a0:	012a0000 			; <UNDEFINED> instruction: 0x012a0000
    19a4:	50030550 	andpl	r0, r3, r0, asr r5
    19a8:	2a000098 	bcs	1c10 <_start-0x63f0>
    19ac:	75025101 	strvc	r5, [r2, #-257]	; 0xfffffeff
    19b0:	7c290000 	stcvc	0, cr0, [r9], #-0
    19b4:	f5000086 			; <UNDEFINED> instruction: 0xf5000086
    19b8:	5a000018 	bpl	1a20 <_start-0x65e0>
    19bc:	2a00000e 	bcs	19fc <_start-0x6604>
    19c0:	74025001 	strvc	r5, [r2], #-1
    19c4:	84290000 	strthi	r0, [r9], #-0
    19c8:	ce000086 	cdpgt	0, 0, cr0, cr0, cr6, {4}
    19cc:	6e000012 	mcrvs	0, 0, r0, cr0, cr2, {0}
    19d0:	2a00000e 	bcs	1a10 <_start-0x65f0>
    19d4:	08025101 	stmdaeq	r2, {r0, r8, ip, lr}
    19d8:	8c290080 	stchi	0, cr0, [r9], #-512	; 0xfffffe00
    19dc:	7a000086 	bvc	1bfc <_start-0x6404>
    19e0:	82000018 	andhi	r0, r0, #24
    19e4:	2a00000e 	bcs	1a24 <_start-0x65dc>
    19e8:	74025001 	strvc	r5, [r2], #-1
    19ec:	98290000 	stmdals	r9!, {}	; <UNPREDICTABLE>
    19f0:	4d000086 	stcmi	0, cr0, [r0, #-536]	; 0xfffffde8
    19f4:	96000018 			; <UNDEFINED> instruction: 0x96000018
    19f8:	2a00000e 	bcs	1a38 <_start-0x65c8>
    19fc:	74025001 	strvc	r5, [r2], #-1
    1a00:	a4290000 	strtge	r0, [r9], #-0
    1a04:	ce000086 	cdpgt	0, 0, cr0, cr0, cr6, {4}
    1a08:	aa000012 	bge	1a58 <_start-0x65a8>
    1a0c:	2a00000e 	bcs	1a4c <_start-0x65b4>
    1a10:	76025001 	strvc	r5, [r2], -r1
    1a14:	ac290000 	stcge	0, cr0, [r9], #-0
    1a18:	b3000086 	movwlt	r0, #134	; 0x86
    1a1c:	be000017 	mcrlt	0, 0, r0, cr0, cr7, {0}
    1a20:	2a00000e 	bcs	1a60 <_start-0x65a0>
    1a24:	74025001 	strvc	r5, [r2], #-1
    1a28:	c8290000 	stmdagt	r9!, {}	; <UNPREDICTABLE>
    1a2c:	21000086 	smlabbcs	r0, r6, r0, r0
    1a30:	d2000012 	andle	r0, r0, #18
    1a34:	2a00000e 	bcs	1a74 <_start-0x658c>
    1a38:	74025001 	strvc	r5, [r2], #-1
    1a3c:	d8290000 	stmdale	r9!, {}	; <UNPREDICTABLE>
    1a40:	b7000086 	strlt	r0, [r0, -r6, lsl #1]
    1a44:	e6000018 			; <UNDEFINED> instruction: 0xe6000018
    1a48:	2a00000e 	bcs	1a88 <_start-0x6578>
    1a4c:	74025001 	strvc	r5, [r2], #-1
    1a50:	e4290000 	strt	r0, [r9], #-0
    1a54:	f9000086 			; <UNDEFINED> instruction: 0xf9000086
    1a58:	fd000019 	stc2	0, cr0, [r0, #-100]	; 0xffffff9c
    1a5c:	2a00000e 	bcs	1a9c <_start-0x6564>
    1a60:	03055001 	movweq	r5, #20481	; 0x5001
    1a64:	00009700 	andeq	r9, r0, r0, lsl #14
    1a68:	86f82900 	ldrbthi	r2, [r8], r0, lsl #18
    1a6c:	19f90000 	ldmibne	r9!, {}^	; <UNPREDICTABLE>
    1a70:	0f260000 	svceq	0x00260000
    1a74:	012a0000 			; <UNDEFINED> instruction: 0x012a0000
    1a78:	5c030550 	cfstr32pl	mvfx0, [r3], {80}	; 0x50
    1a7c:	2a000099 	bcs	1ce8 <_start-0x6318>
    1a80:	75025101 	strvc	r5, [r2, #-257]	; 0xfffffeff
    1a84:	52012a00 	andpl	r2, r1, #0, 20
    1a88:	2a007902 	bcs	1fe98 <__bss_end__+0x15e28>
    1a8c:	74025301 	strvc	r5, [r2], #-769	; 0xfffffcff
    1a90:	08280000 	stmdaeq	r8!, {}	; <UNPREDICTABLE>
    1a94:	05000087 	streq	r0, [r0, #-135]	; 0xffffff79
    1a98:	2900001a 	stmdbcs	r0, {r1, r3, r4}
    1a9c:	0000871c 	andeq	r8, r0, ip, lsl r7
    1aa0:	000019f9 	strdeq	r1, [r0], -r9
    1aa4:	00000f5e 	andeq	r0, r0, lr, asr pc
    1aa8:	0550012a 	ldrbeq	r0, [r0, #-298]	; 0xfffffed6
    1aac:	00981003 	addseq	r1, r8, r3
    1ab0:	51012a00 	tstpl	r1, r0, lsl #20
    1ab4:	97c00305 	strbls	r0, [r0, r5, lsl #6]
    1ab8:	012a0000 			; <UNDEFINED> instruction: 0x012a0000
    1abc:	2c030552 	cfstr32cs	mvfx0, [r3], {82}	; 0x52
    1ac0:	2a00009a 	bcs	1d30 <_start-0x62d0>
    1ac4:	08025301 	stmdaeq	r2, {r0, r8, r9, ip, lr}
    1ac8:	20280087 	eorcs	r0, r8, r7, lsl #1
    1acc:	11000087 	smlabbne	r0, r7, r0, r0
    1ad0:	2900001a 	stmdbcs	r0, {r1, r3, r4}
    1ad4:	00008728 	andeq	r8, r0, r8, lsr #14
    1ad8:	000019f9 	strdeq	r1, [r0], -r9
    1adc:	00000f7e 	andeq	r0, r0, lr, ror pc
    1ae0:	0550012a 	ldrbeq	r0, [r0, #-298]	; 0xfffffed6
    1ae4:	00986803 	addseq	r6, r8, r3, lsl #16
    1ae8:	34290000 	strtcc	r0, [r9], #-0
    1aec:	f9000087 			; <UNDEFINED> instruction: 0xf9000087
    1af0:	9b000019 	blls	1b5c <_start-0x64a4>
    1af4:	2a00000f 	bcs	1b38 <_start-0x64c8>
    1af8:	03055001 	movweq	r5, #20481	; 0x5001
    1afc:	00009874 	andeq	r9, r0, r4, ror r8
    1b00:	0251012a 	subseq	r0, r1, #-2147483638	; 0x8000000a
    1b04:	28000075 	stmdacs	r0, {r0, r2, r4, r5, r6}
    1b08:	00008738 	andeq	r8, r0, r8, lsr r7
    1b0c:	00001a05 	andeq	r1, r0, r5, lsl #20
    1b10:	00875029 	addeq	r5, r7, r9, lsr #32
    1b14:	0019f900 	andseq	pc, r9, r0, lsl #18
    1b18:	000fda00 	andeq	sp, pc, r0, lsl #20
    1b1c:	50012a00 	andpl	r2, r1, r0, lsl #20
    1b20:	989c0305 	ldmls	ip, {r0, r2, r8, r9}
    1b24:	012a0000 			; <UNDEFINED> instruction: 0x012a0000
    1b28:	c0030551 	andgt	r0, r3, r1, asr r5
    1b2c:	2a000097 	bcs	1d90 <_start-0x6270>
    1b30:	03055201 	movweq	r5, #20993	; 0x5201
    1b34:	00009a2c 	andeq	r9, r0, ip, lsr #20
    1b38:	0253012a 	subseq	r0, r3, #-2147483638	; 0x8000000a
    1b3c:	022a8f08 	eoreq	r8, sl, #8, 30
    1b40:	7502007d 	strvc	r0, [r2, #-125]	; 0xffffff83
    1b44:	54280000 	strtpl	r0, [r8], #-0
    1b48:	11000087 	smlabbne	r0, r7, r0, r0
    1b4c:	2900001a 	stmdbcs	r0, {r1, r3, r4}
    1b50:	0000875c 	andeq	r8, r0, ip, asr r7
    1b54:	000019f9 	strdeq	r1, [r0], -r9
    1b58:	00000ffa 	strdeq	r0, [r0], -sl
    1b5c:	0550012a 	ldrbeq	r0, [r0, #-298]	; 0xfffffed6
    1b60:	00986803 	addseq	r6, r8, r3, lsl #16
    1b64:	78290000 	stmdavc	r9!, {}	; <UNPREDICTABLE>
    1b68:	f9000087 			; <UNDEFINED> instruction: 0xf9000087
    1b6c:	17000019 	smladne	r0, r9, r0, r0
    1b70:	2a000010 	bcs	1bb8 <_start-0x6448>
    1b74:	03055001 	movweq	r5, #20481	; 0x5001
    1b78:	000098d4 	ldrdeq	r9, [r0], -r4
    1b7c:	0252012a 	subseq	r0, r2, #-2147483638	; 0x8000000a
    1b80:	28000079 	stmdacs	r0, {r0, r3, r4, r5, r6}
    1b84:	0000877c 	andeq	r8, r0, ip, ror r7
    1b88:	00001a05 	andeq	r1, r0, r5, lsl #20
    1b8c:	0087a429 	addeq	sl, r7, r9, lsr #8
    1b90:	0019f900 	andseq	pc, r9, r0, lsl #18
    1b94:	00105600 	andseq	r5, r0, r0, lsl #12
    1b98:	50012a00 	andpl	r2, r1, r0, lsl #20
    1b9c:	99000305 	stmdbls	r0, {r0, r2, r8, r9}
    1ba0:	012a0000 			; <UNDEFINED> instruction: 0x012a0000
    1ba4:	c0030551 	andgt	r0, r3, r1, asr r5
    1ba8:	2a000097 	bcs	1e0c <_start-0x61f4>
    1bac:	03055201 	movweq	r5, #20993	; 0x5201
    1bb0:	00009a2c 	andeq	r9, r0, ip, lsr #20
    1bb4:	0253012a 	subseq	r0, r3, #-2147483638	; 0x8000000a
    1bb8:	022a9208 	eoreq	r9, sl, #8, 4	; 0x80000000
    1bbc:	7902047d 	stmdbvc	r2, {r0, r2, r3, r4, r5, r6, sl}
    1bc0:	a8280000 	stmdage	r8!, {}	; <UNPREDICTABLE>
    1bc4:	11000087 	smlabbne	r0, r7, r0, r0
    1bc8:	2800001a 	stmdacs	r0, {r1, r3, r4}
    1bcc:	000087ac 	andeq	r8, r0, ip, lsr #15
    1bd0:	00001a05 	andeq	r1, r0, r5, lsl #20
    1bd4:	0087c029 	addeq	ip, r7, r9, lsr #32
    1bd8:	0019f900 	andseq	pc, r9, r0, lsl #18
    1bdc:	00109700 	andseq	r9, r0, r0, lsl #14
    1be0:	50012a00 	andpl	r2, r1, r0, lsl #20
    1be4:	993c0305 	ldmdbls	ip!, {r0, r2, r8, r9}
    1be8:	012a0000 			; <UNDEFINED> instruction: 0x012a0000
    1bec:	c0030551 	andgt	r0, r3, r1, asr r5
    1bf0:	2a000097 	bcs	1e54 <_start-0x61ac>
    1bf4:	03055201 	movweq	r5, #20993	; 0x5201
    1bf8:	00009a2c 	andeq	r9, r0, ip, lsr #20
    1bfc:	0253012a 	subseq	r0, r3, #-2147483638	; 0x8000000a
    1c00:	2800a108 	stmdacs	r0, {r3, r8, sp, pc}
    1c04:	000087c4 	andeq	r8, r0, r4, asr #15
    1c08:	00001a11 	andeq	r1, r0, r1, lsl sl
    1c0c:	013c0a00 	teqeq	ip, r0, lsl #20
    1c10:	10b10000 	adcsne	r0, r1, r0
    1c14:	2c0b0000 	stccs	0, cr0, [fp], {-0}
    1c18:	07000000 	streq	r0, [r0, -r0]
    1c1c:	10a10f00 	adcne	r0, r1, r0, lsl #30
    1c20:	82300000 	eorshi	r0, r0, #0
    1c24:	01000002 	tsteq	r0, r2
    1c28:	85240771 	strhi	r0, [r4, #-1905]!	; 0xfffff88f
    1c2c:	00b80000 	adcseq	r0, r8, r0
    1c30:	9c010000 	stcls	0, cr0, [r1], {-0}
    1c34:	0000120c 	andeq	r1, r0, ip, lsl #4
    1c38:	000c2a2e 	andeq	r2, ip, lr, lsr #20
    1c3c:	15710100 	ldrbne	r0, [r1, #-256]!	; 0xffffff00
    1c40:	0000012d 	andeq	r0, r0, sp, lsr #2
    1c44:	000003b7 			; <UNDEFINED> instruction: 0x000003b7
    1c48:	000003b3 			; <UNDEFINED> instruction: 0x000003b3
    1c4c:	0002172e 	andeq	r1, r2, lr, lsr #14
    1c50:	27710100 	ldrbcs	r0, [r1, -r0, lsl #2]!
    1c54:	000005fc 	strdeq	r0, [r0], -ip
    1c58:	000003d9 	ldrdeq	r0, [r0], -r9
    1c5c:	000003d5 	ldrdeq	r0, [r0], -r5
    1c60:	0004e02e 	andeq	lr, r4, lr, lsr #32
    1c64:	39710100 	ldmdbcc	r1!, {r8}^
    1c68:	000005fc 	strdeq	r0, [r0], -ip
    1c6c:	000003fb 	strdeq	r0, [r0], -fp
    1c70:	000003f7 	strdeq	r0, [r0], -r7
    1c74:	0005462e 	andeq	r4, r5, lr, lsr #12
    1c78:	48710100 	ldmdami	r1!, {r8}^
    1c7c:	0000002c 	andeq	r0, r0, ip, lsr #32
    1c80:	0000041d 	andeq	r0, r0, sp, lsl r4
    1c84:	00000419 	andeq	r0, r0, r9, lsl r4
    1c88:	0100682d 	tsteq	r0, sp, lsr #16
    1c8c:	0cb70c72 	ldceq	12, cr0, [r7], #456	; 0x1c8
    1c90:	04410000 	strbeq	r0, [r1], #-0
    1c94:	043b0000 	ldrteq	r0, [fp], #-0
    1c98:	1c2f0000 	stcne	0, cr0, [pc], #-0	; 1ca0 <_start-0x6360>
    1c9c:	1c000002 	stcne	0, cr0, [r0], {2}
    1ca0:	05000012 	streq	r0, [r0, #-18]	; 0xffffffee
    1ca4:	009a2403 	addseq	r2, sl, r3, lsl #8
    1ca8:	853c2900 	ldrhi	r2, [ip, #-2304]!	; 0xfffff700
    1cac:	181e0000 	ldmdane	lr, {}	; <UNPREDICTABLE>
    1cb0:	11510000 	cmpne	r1, r0
    1cb4:	012a0000 			; <UNDEFINED> instruction: 0x012a0000
    1cb8:	00750250 	rsbseq	r0, r5, r0, asr r2
    1cbc:	85582900 	ldrbhi	r2, [r8, #-2304]	; 0xfffff700
    1cc0:	19f90000 	ldmibne	r9!, {}^	; <UNPREDICTABLE>
    1cc4:	11680000 	cmnne	r8, r0
    1cc8:	012a0000 			; <UNDEFINED> instruction: 0x012a0000
    1ccc:	00030550 	andeq	r0, r3, r0, asr r5
    1cd0:	00000097 	muleq	r0, r7, r0
    1cd4:	00856429 	addeq	r6, r5, r9, lsr #8
    1cd8:	0019f900 	andseq	pc, r9, r0, lsl #18
    1cdc:	00118500 	andseq	r8, r1, r0, lsl #10
    1ce0:	50012a00 	andpl	r2, r1, r0, lsl #20
    1ce4:	98440305 	stmdals	r4, {r0, r2, r8, r9}^
    1ce8:	012a0000 			; <UNDEFINED> instruction: 0x012a0000
    1cec:	00750251 	rsbseq	r0, r5, r1, asr r2
    1cf0:	856c2900 	strbhi	r2, [ip, #-2304]!	; 0xfffff700
    1cf4:	12210000 	eorne	r0, r1, #0
    1cf8:	11990000 	orrsne	r0, r9, r0
    1cfc:	012a0000 			; <UNDEFINED> instruction: 0x012a0000
    1d00:	00740250 	rsbseq	r0, r4, r0, asr r2
    1d04:	85902900 	ldrhi	r2, [r0, #2304]	; 0x900
    1d08:	18b70000 	ldmne	r7!, {}	; <UNPREDICTABLE>
    1d0c:	11ad0000 			; <UNDEFINED> instruction: 0x11ad0000
    1d10:	012a0000 			; <UNDEFINED> instruction: 0x012a0000
    1d14:	00740250 	rsbseq	r0, r4, r0, asr r2
    1d18:	85982800 	ldrhi	r2, [r8, #2048]	; 0x800
    1d1c:	12ce0000 	sbcne	r0, lr, #0
    1d20:	a0290000 	eorge	r0, r9, r0
    1d24:	b3000085 	movwlt	r0, #133	; 0x85
    1d28:	ca000017 	bgt	1d8c <_start-0x6274>
    1d2c:	2a000011 	bcs	1d78 <_start-0x6288>
    1d30:	74025001 	strvc	r5, [r2], #-1
    1d34:	ac280000 	stcge	0, cr0, [r8], #-0
    1d38:	05000085 	streq	r0, [r0, #-133]	; 0xffffff7b
    1d3c:	2900001a 	stmdbcs	r0, {r1, r3, r4}
    1d40:	000085c0 	andeq	r8, r0, r0, asr #11
    1d44:	000019f9 	strdeq	r1, [r0], -r9
    1d48:	00001202 	andeq	r1, r0, r2, lsl #4
    1d4c:	0550012a 	ldrbeq	r0, [r0, #-298]	; 0xfffffed6
    1d50:	00981003 	addseq	r1, r8, r3
    1d54:	51012a00 	tstpl	r1, r0, lsl #20
    1d58:	97c00305 	strbls	r0, [r0, r5, lsl #6]
    1d5c:	012a0000 			; <UNDEFINED> instruction: 0x012a0000
    1d60:	24030552 	strcs	r0, [r3], #-1362	; 0xfffffaae
    1d64:	2a00009a 	bcs	1fd4 <_start-0x602c>
    1d68:	08025301 	stmdaeq	r2, {r0, r8, r9, ip, lr}
    1d6c:	c4280074 	strtgt	r0, [r8], #-116	; 0xffffff8c
    1d70:	11000085 	smlabbne	r0, r5, r0, r0
    1d74:	0000001a 	andeq	r0, r0, sl, lsl r0
    1d78:	00013c0a 	andeq	r3, r1, sl, lsl #24
    1d7c:	00121c00 	andseq	r1, r2, r0, lsl #24
    1d80:	002c0b00 	eoreq	r0, ip, r0, lsl #22
    1d84:	00060000 	andeq	r0, r6, r0
    1d88:	00120c0f 	andseq	r0, r2, pc, lsl #24
    1d8c:	068b3100 	streq	r3, [fp], r0, lsl #2
    1d90:	59010000 	stmdbpl	r1, {}	; <UNPREDICTABLE>
    1d94:	0000250c 	andeq	r2, r0, ip, lsl #10
    1d98:	00844c00 	addeq	r4, r4, r0, lsl #24
    1d9c:	00006400 	andeq	r6, r0, r0, lsl #8
    1da0:	ce9c0100 	fmlgte	f0, f4, f0
    1da4:	2c000012 	stccs	0, cr0, [r0], {18}
    1da8:	59010068 	stmdbpl	r1, {r3, r5, r6}
    1dac:	000cb71f 	andeq	fp, ip, pc, lsl r7
    1db0:	00046e00 	andeq	r6, r4, r0, lsl #28
    1db4:	00046a00 	andeq	r6, r4, r0, lsl #20
    1db8:	84582900 	ldrbhi	r2, [r8], #-2304	; 0xfffff700
    1dbc:	16760000 	ldrbtne	r0, [r6], -r0
    1dc0:	12610000 	rsbne	r0, r1, #0
    1dc4:	012a0000 			; <UNDEFINED> instruction: 0x012a0000
    1dc8:	00740250 	rsbseq	r0, r4, r0, asr r2
    1dcc:	84682900 	strbthi	r2, [r8], #-2304	; 0xfffff700
    1dd0:	18f50000 	ldmne	r5!, {}^	; <UNPREDICTABLE>
    1dd4:	12750000 	rsbsne	r0, r5, #0
    1dd8:	012a0000 			; <UNDEFINED> instruction: 0x012a0000
    1ddc:	00740250 	rsbseq	r0, r4, r0, asr r2
    1de0:	84742900 	ldrbthi	r2, [r4], #-2304	; 0xfffff700
    1de4:	14e80000 	strbtne	r0, [r8], #0
    1de8:	128f0000 	addne	r0, pc, #0
    1dec:	012a0000 			; <UNDEFINED> instruction: 0x012a0000
    1df0:	80080251 	andhi	r0, r8, r1, asr r2
    1df4:	0252012a 	subseq	r0, r2, #-2147483638	; 0x8000000a
    1df8:	29000074 	stmdbcs	r0, {r2, r4, r5, r6}
    1dfc:	00008484 	andeq	r8, r0, r4, lsl #9
    1e00:	0000187a 	andeq	r1, r0, sl, ror r8
    1e04:	000012a3 	andeq	r1, r0, r3, lsr #5
    1e08:	0250012a 	subseq	r0, r0, #-2147483638	; 0x8000000a
    1e0c:	29000074 	stmdbcs	r0, {r2, r4, r5, r6}
    1e10:	00008490 	muleq	r0, r0, r4
    1e14:	0000184d 	andeq	r1, r0, sp, asr #16
    1e18:	000012b7 			; <UNDEFINED> instruction: 0x000012b7
    1e1c:	0250012a 	subseq	r0, r0, #-2147483638	; 0x8000000a
    1e20:	2b000074 	blcs	1ff8 <_start-0x6008>
    1e24:	000084a0 	andeq	r8, r0, r0, lsr #9
    1e28:	000014e8 	andeq	r1, r0, r8, ror #9
    1e2c:	0250012a 	subseq	r0, r0, #-2147483638	; 0x8000000a
    1e30:	012a0075 			; <UNDEFINED> instruction: 0x012a0075
    1e34:	00740252 	rsbseq	r0, r4, r2, asr r2
    1e38:	ce320000 	cdpgt	0, 3, cr0, cr2, cr0, {0}
    1e3c:	01000005 	tsteq	r0, r5
    1e40:	82300d4f 	eorshi	r0, r0, #5056	; 0x13c0
    1e44:	00140000 	andseq	r0, r4, r0
    1e48:	9c010000 	stcls	0, cr0, [r1], {-0}
    1e4c:	00001329 	andeq	r1, r0, r9, lsr #6
    1e50:	0100702c 	tsteq	r0, ip, lsr #32
    1e54:	012d1c4f 			; <UNDEFINED> instruction: 0x012d1c4f
    1e58:	04900000 	ldreq	r0, [r0], #0
    1e5c:	048c0000 	streq	r0, [ip], #0
    1e60:	9d2e0000 	stcls	0, cr0, [lr, #-0]
    1e64:	01000006 	tsteq	r0, r6
    1e68:	002c284f 	eoreq	r2, ip, pc, asr #16
    1e6c:	04b70000 	ldrteq	r0, [r7], #0
    1e70:	04b10000 	ldrteq	r0, [r1], #0
    1e74:	402b0000 	eormi	r0, fp, r0
    1e78:	1d000082 	stcne	0, cr0, [r0, #-520]	; 0xfffffdf8
    1e7c:	2a00001a 	bcs	1eec <_start-0x6114>
    1e80:	f3035001 	vhadd.u8	d5, d3, d1
    1e84:	012a5001 			; <UNDEFINED> instruction: 0x012a5001
    1e88:	fe080251 	mcr2	2, 0, r0, cr8, cr1, {2}
    1e8c:	0352012a 	cmpeq	r2, #-2147483638	; 0x8000000a
    1e90:	005101f3 	ldrsheq	r0, [r1], #-19	; 0xffffffed
    1e94:	062d3100 	strteq	r3, [sp], -r0, lsl #2
    1e98:	41010000 	mrsmi	r0, (UNDEF: 1)
    1e9c:	0000250c 	andeq	r2, r0, ip, lsl #10
    1ea0:	00812400 	addeq	r2, r1, r0, lsl #8
    1ea4:	00010c00 	andeq	r0, r1, r0, lsl #24
    1ea8:	e89c0100 	ldm	ip, {r8}
    1eac:	2c000014 	stccs	0, cr0, [r0], {20}
    1eb0:	41010070 	tstmi	r1, r0, ror r0
    1eb4:	00012f24 	andeq	r2, r1, r4, lsr #30
    1eb8:	0004eb00 	andeq	lr, r4, r0, lsl #22
    1ebc:	0004e300 	andeq	lr, r4, r0, lsl #6
    1ec0:	069d2e00 	ldreq	r2, [sp], r0, lsl #28
    1ec4:	41010000 	mrsmi	r0, (UNDEF: 1)
    1ec8:	00002c30 	andeq	r2, r0, r0, lsr ip
    1ecc:	00052500 	andeq	r2, r5, r0, lsl #10
    1ed0:	00051f00 	andeq	r1, r5, r0, lsl #30
    1ed4:	00682c00 	rsbeq	r2, r8, r0, lsl #24
    1ed8:	b73f4101 	ldrlt	r4, [pc, -r1, lsl #2]!
    1edc:	5700000c 	strpl	r0, [r0, -ip]
    1ee0:	51000005 	tstpl	r0, r5
    1ee4:	2d000005 	stccs	0, cr0, [r0, #-20]	; 0xffffffec
    1ee8:	42010069 	andmi	r0, r1, #105	; 0x69
    1eec:	00002509 	andeq	r2, r0, r9, lsl #10
    1ef0:	00058600 	andeq	r8, r5, r0, lsl #12
    1ef4:	00058000 	andeq	r8, r5, r0
    1ef8:	814c3300 	mrshi	r3, SPSR_mon
    1efc:	00c00000 	sbceq	r0, r0, r0
    1f00:	ef260000 	svc	0x00260000
    1f04:	01000005 	tsteq	r0, r5
    1f08:	00251145 	eoreq	r1, r5, r5, asr #2
    1f0c:	05b20000 	ldreq	r0, [r2, #0]!
    1f10:	05b00000 	ldreq	r0, [r0, #0]!
    1f14:	d1340000 	teqle	r4, r0
    1f18:	80000019 	andhi	r0, r0, r9, lsl r0
    1f1c:	01000081 	smlabbeq	r0, r1, r0, r0
    1f20:	00000000 	andeq	r0, r0, r0
    1f24:	5d0d4601 	stcpl	6, cr4, [sp, #-4]
    1f28:	35000014 	strcc	r0, [r0, #-20]	; 0xffffffec
    1f2c:	000019de 	ldrdeq	r1, [r0], -lr
    1f30:	000005c9 	andeq	r0, r0, r9, asr #11
    1f34:	000005c5 	andeq	r0, r0, r5, asr #11
    1f38:	00000036 	andeq	r0, r0, r6, lsr r0
    1f3c:	19e83700 	stmibne	r8!, {r8, r9, sl, ip, sp}^
    1f40:	05eb0000 	strbeq	r0, [fp, #0]!
    1f44:	05e70000 	strbeq	r0, [r7, #0]!
    1f48:	88290000 	stmdahi	r9!, {}	; <UNPREDICTABLE>
    1f4c:	f9000081 			; <UNDEFINED> instruction: 0xf9000081
    1f50:	f2000019 	vqadd.s8	d0, d0, d9
    1f54:	2a000013 	bcs	1fa8 <_start-0x6058>
    1f58:	77025001 	strvc	r5, [r2, -r1]
    1f5c:	94290000 	strtls	r0, [r9], #-0
    1f60:	f9000081 			; <UNDEFINED> instruction: 0xf9000081
    1f64:	09000019 	stmdbeq	r0, {r0, r3, r4}
    1f68:	2a000014 	bcs	1fc0 <_start-0x6040>
    1f6c:	03055001 	movweq	r5, #20481	; 0x5001
    1f70:	0000975c 	andeq	r9, r0, ip, asr r7
    1f74:	81a82900 			; <UNDEFINED> instruction: 0x81a82900
    1f78:	19f90000 	ldmibne	r9!, {}^	; <UNPREDICTABLE>
    1f7c:	141d0000 	ldrne	r0, [sp], #-0
    1f80:	012a0000 			; <UNDEFINED> instruction: 0x012a0000
    1f84:	00770250 	rsbseq	r0, r7, r0, asr r2
    1f88:	81bc2900 			; <UNDEFINED> instruction: 0x81bc2900
    1f8c:	19f90000 	ldmibne	r9!, {}^	; <UNPREDICTABLE>
    1f90:	14340000 	ldrtne	r0, [r4], #-0
    1f94:	012a0000 			; <UNDEFINED> instruction: 0x012a0000
    1f98:	68030550 	stmdavs	r3, {r4, r6, r8, sl}
    1f9c:	00000097 	muleq	r0, r7, r0
    1fa0:	0081f429 	addeq	pc, r1, r9, lsr #8
    1fa4:	0019f900 	andseq	pc, r9, r0, lsl #18
    1fa8:	00144800 	andseq	r4, r4, r0, lsl #16
    1fac:	50012a00 	andpl	r2, r1, r0, lsl #20
    1fb0:	00007702 	andeq	r7, r0, r2, lsl #14
    1fb4:	0082082b 	addeq	r0, r2, fp, lsr #16
    1fb8:	0019f900 	andseq	pc, r9, r0, lsl #18
    1fbc:	50012a00 	andpl	r2, r1, r0, lsl #20
    1fc0:	97880305 	strls	r0, [r8, r5, lsl #6]
    1fc4:	00000000 	andeq	r0, r0, r0
    1fc8:	81542900 	cmphi	r4, r0, lsl #18
    1fcc:	18b70000 	ldmne	r7!, {}	; <UNPREDICTABLE>
    1fd0:	14710000 	ldrbtne	r0, [r1], #-0
    1fd4:	012a0000 			; <UNDEFINED> instruction: 0x012a0000
    1fd8:	00760250 	rsbseq	r0, r6, r0, asr r2
    1fdc:	81682900 	cmnhi	r8, r0, lsl #18
    1fe0:	19f90000 	ldmibne	r9!, {}^	; <UNPREDICTABLE>
    1fe4:	14850000 	strne	r0, [r5], #0
    1fe8:	012a0000 			; <UNDEFINED> instruction: 0x012a0000
    1fec:	00770250 	rsbseq	r0, r7, r0, asr r2
    1ff0:	81702900 	cmnhi	r0, r0, lsl #18
    1ff4:	19f90000 	ldmibne	r9!, {}^	; <UNPREDICTABLE>
    1ff8:	149c0000 	ldrne	r0, [ip], #0
    1ffc:	012a0000 			; <UNDEFINED> instruction: 0x012a0000
    2000:	30030550 	andcc	r0, r3, r0, asr r5
    2004:	00000097 	muleq	r0, r7, r0
    2008:	00818029 	addeq	r8, r1, r9, lsr #32
    200c:	0019f900 	andseq	pc, r9, r0, lsl #18
    2010:	0014bf00 	andseq	fp, r4, r0, lsl #30
    2014:	50012a00 	andpl	r2, r1, r0, lsl #20
    2018:	97380305 	ldrls	r0, [r8, -r5, lsl #6]!
    201c:	012a0000 			; <UNDEFINED> instruction: 0x012a0000
    2020:	00750251 	rsbseq	r0, r5, r1, asr r2
    2024:	0252012a 	subseq	r0, r2, #-2147483638	; 0x8000000a
    2028:	29000074 	stmdbcs	r0, {r2, r4, r5, r6}
    202c:	000081d0 	ldrdeq	r8, [r0], -r0
    2030:	000019f9 	strdeq	r1, [r0], -r9
    2034:	000014d3 	ldrdeq	r1, [r0], -r3
    2038:	0250012a 	subseq	r0, r0, #-2147483638	; 0x8000000a
    203c:	2b000077 	blcs	2220 <_start-0x5de0>
    2040:	000081d8 	ldrdeq	r8, [r0], -r8	; <UNPREDICTABLE>
    2044:	000019f9 	strdeq	r1, [r0], -r9
    2048:	0550012a 	ldrbeq	r0, [r0, #-298]	; 0xfffffed6
    204c:	0097a403 	addseq	sl, r7, r3, lsl #8
    2050:	00000000 	andeq	r0, r0, r0
    2054:	0006c231 	andeq	ip, r6, r1, lsr r2
    2058:	0c340100 	ldfeqs	f0, [r4], #-0
    205c:	00000025 	andeq	r0, r0, r5, lsr #32
    2060:	00008350 	andeq	r8, r0, r0, asr r3
    2064:	000000fc 	strdeq	r0, [r0], -ip
    2068:	16769c01 	ldrbtne	r9, [r6], -r1, lsl #24
    206c:	702c0000 	eorvc	r0, ip, r0
    2070:	1c340100 	ldfnes	f0, [r4], #-0
    2074:	0000012f 	andeq	r0, r0, pc, lsr #2
    2078:	00000615 	andeq	r0, r0, r5, lsl r6
    207c:	0000060d 	andeq	r0, r0, sp, lsl #12
    2080:	00069d2e 	andeq	r9, r6, lr, lsr #26
    2084:	28340100 	ldmdacs	r4!, {r8}
    2088:	0000002c 	andeq	r0, r0, ip, lsr #32
    208c:	0000064f 	andeq	r0, r0, pc, asr #12
    2090:	00000649 	andeq	r0, r0, r9, asr #12
    2094:	0100682c 	tsteq	r0, ip, lsr #16
    2098:	0cb73734 	ldceq	7, cr3, [r7], #208	; 0xd0
    209c:	06810000 	streq	r0, [r1], r0
    20a0:	067b0000 	ldrbteq	r0, [fp], -r0
    20a4:	692d0000 	pushvs	{}	; <UNPREDICTABLE>
    20a8:	09350100 	ldmdbeq	r5!, {r8}
    20ac:	00000025 	andeq	r0, r0, r5, lsr #32
    20b0:	000006b0 			; <UNDEFINED> instruction: 0x000006b0
    20b4:	000006aa 	andeq	r0, r0, sl, lsr #13
    20b8:	00837833 	addeq	r7, r3, r3, lsr r8
    20bc:	0000b400 	andeq	fp, r0, r0, lsl #8
    20c0:	05ef2600 	strbeq	r2, [pc, #1536]!	; 26c8 <_start-0x5938>
    20c4:	38010000 	stmdacc	r1, {}	; <UNPREDICTABLE>
    20c8:	00002511 	andeq	r2, r0, r1, lsl r5
    20cc:	0006dc00 	andeq	sp, r6, r0, lsl #24
    20d0:	0006da00 	andeq	sp, r6, r0, lsl #20
    20d4:	19d13400 	ldmibne	r1, {sl, ip, sp}^
    20d8:	83b00000 	movshi	r0, #0
    20dc:	30010000 	andcc	r0, r1, r0
    20e0:	01000000 	mrseq	r0, (UNDEF: 0)
    20e4:	161c0d39 			; <UNDEFINED> instruction: 0x161c0d39
    20e8:	de350000 	cdple	0, 3, cr0, cr5, cr0, {0}
    20ec:	f1000019 	cps	#25
    20f0:	ef000006 	svc	0x00000006
    20f4:	36000006 	strcc	r0, [r0], -r6
    20f8:	00000030 	andeq	r0, r0, r0, lsr r0
    20fc:	0019e837 	andseq	lr, r9, r7, lsr r8
    2100:	00070800 	andeq	r0, r7, r0, lsl #16
    2104:	00070400 	andeq	r0, r7, r0, lsl #8
    2108:	83b82900 			; <UNDEFINED> instruction: 0x83b82900
    210c:	19f90000 	ldmibne	r9!, {}^	; <UNPREDICTABLE>
    2110:	15b10000 	ldrne	r0, [r1, #0]!
    2114:	012a0000 			; <UNDEFINED> instruction: 0x012a0000
    2118:	00770250 	rsbseq	r0, r7, r0, asr r2
    211c:	83c42900 	bichi	r2, r4, #0, 18
    2120:	19f90000 	ldmibne	r9!, {}^	; <UNPREDICTABLE>
    2124:	15c80000 	strbne	r0, [r8]
    2128:	012a0000 			; <UNDEFINED> instruction: 0x012a0000
    212c:	5c030550 	cfstr32pl	mvfx0, [r3], {80}	; 0x50
    2130:	00000097 	muleq	r0, r7, r0
    2134:	0083d829 	addeq	sp, r3, r9, lsr #16
    2138:	0019f900 	andseq	pc, r9, r0, lsl #18
    213c:	0015dc00 	andseq	sp, r5, r0, lsl #24
    2140:	50012a00 	andpl	r2, r1, r0, lsl #20
    2144:	00007702 	andeq	r7, r0, r2, lsl #14
    2148:	0083ec29 	addeq	lr, r3, r9, lsr #24
    214c:	0019f900 	andseq	pc, r9, r0, lsl #18
    2150:	0015f300 	andseq	pc, r5, r0, lsl #6
    2154:	50012a00 	andpl	r2, r1, r0, lsl #20
    2158:	97680305 	strbls	r0, [r8, -r5, lsl #6]!
    215c:	29000000 	stmdbcs	r0, {}	; <UNPREDICTABLE>
    2160:	00008414 	andeq	r8, r0, r4, lsl r4
    2164:	000019f9 	strdeq	r1, [r0], -r9
    2168:	00001607 	andeq	r1, r0, r7, lsl #12
    216c:	0250012a 	subseq	r0, r0, #-2147483638	; 0x8000000a
    2170:	2b000077 	blcs	2354 <_start-0x5cac>
    2174:	00008428 	andeq	r8, r0, r8, lsr #8
    2178:	000019f9 	strdeq	r1, [r0], -r9
    217c:	0550012a 	ldrbeq	r0, [r0, #-298]	; 0xfffffed6
    2180:	00978803 	addseq	r8, r7, r3, lsl #16
    2184:	00000000 	andeq	r0, r0, r0
    2188:	00838029 	addeq	r8, r3, r9, lsr #32
    218c:	0018b700 	andseq	fp, r8, r0, lsl #14
    2190:	00163000 	andseq	r3, r6, r0
    2194:	50012a00 	andpl	r2, r1, r0, lsl #20
    2198:	00007602 	andeq	r7, r0, r2, lsl #12
    219c:	00839429 	addeq	r9, r3, r9, lsr #8
    21a0:	0019f900 	andseq	pc, r9, r0, lsl #18
    21a4:	00164400 	andseq	r4, r6, r0, lsl #8
    21a8:	50012a00 	andpl	r2, r1, r0, lsl #20
    21ac:	00007702 	andeq	r7, r0, r2, lsl #14
    21b0:	00839c29 	addeq	r9, r3, r9, lsr #24
    21b4:	0019f900 	andseq	pc, r9, r0, lsl #18
    21b8:	00165b00 	andseq	r5, r6, r0, lsl #22
    21bc:	50012a00 	andpl	r2, r1, r0, lsl #20
    21c0:	97300305 	ldrls	r0, [r0, -r5, lsl #6]!
    21c4:	2b000000 	blcs	21cc <_start-0x5e34>
    21c8:	000083b0 			; <UNDEFINED> instruction: 0x000083b0
    21cc:	000019f9 	strdeq	r1, [r0], -r9
    21d0:	0550012a 	ldrbeq	r0, [r0, #-298]	; 0xfffffed6
    21d4:	00973803 	addseq	r3, r7, r3, lsl #16
    21d8:	52012a00 	andpl	r2, r1, #0, 20
    21dc:	00007402 	andeq	r7, r0, r2, lsl #8
    21e0:	3e310000 	cdpcc	0, 3, cr0, cr1, cr0, {0}
    21e4:	01000006 	tsteq	r0, r6
    21e8:	00250c2a 	eoreq	r0, r5, sl, lsr #24
    21ec:	82680000 	rsbhi	r0, r8, #0
    21f0:	00e80000 	rsceq	r0, r8, r0
    21f4:	9c010000 	stcls	0, cr0, [r1], {-0}
    21f8:	000017b3 			; <UNDEFINED> instruction: 0x000017b3
    21fc:	0100682c 	tsteq	r0, ip, lsr #16
    2200:	0cb71d2a 	ldceq	13, cr1, [r7], #168	; 0xa8
    2204:	072e0000 	streq	r0, [lr, -r0]!
    2208:	072a0000 	streq	r0, [sl, -r0]!
    220c:	d1340000 	teqle	r4, r0
    2210:	b4000019 	strlt	r0, [r0], #-25	; 0xffffffe7
    2214:	01000082 	smlabbeq	r0, r2, r0, r0
    2218:	00000018 	andeq	r0, r0, r8, lsl r0
    221c:	55092d01 	strpl	r2, [r9, #-3329]	; 0xfffff2ff
    2220:	35000017 	strcc	r0, [r0, #-23]	; 0xffffffe9
    2224:	000019de 	ldrdeq	r1, [r0], -lr
    2228:	0000074e 	andeq	r0, r0, lr, asr #14
    222c:	0000074c 	andeq	r0, r0, ip, asr #14
    2230:	00001836 	andeq	r1, r0, r6, lsr r8
    2234:	19e83700 	stmibne	r8!, {r8, r9, sl, ip, sp}^
    2238:	07650000 	strbeq	r0, [r5, -r0]!
    223c:	07610000 	strbeq	r0, [r1, -r0]!
    2240:	bc290000 	stclt	0, cr0, [r9], #-0
    2244:	f9000082 			; <UNDEFINED> instruction: 0xf9000082
    2248:	ea000019 	b	22b4 <_start-0x5d4c>
    224c:	2a000016 	bcs	22ac <_start-0x5d54>
    2250:	75025001 	strvc	r5, [r2, #-1]
    2254:	c8290000 	stmdagt	r9!, {}	; <UNPREDICTABLE>
    2258:	f9000082 			; <UNDEFINED> instruction: 0xf9000082
    225c:	01000019 	tsteq	r0, r9, lsl r0
    2260:	2a000017 	bcs	22c4 <_start-0x5d3c>
    2264:	03055001 	movweq	r5, #20481	; 0x5001
    2268:	0000975c 	andeq	r9, r0, ip, asr r7
    226c:	82dc2900 	sbcshi	r2, ip, #0, 18
    2270:	19f90000 	ldmibne	r9!, {}^	; <UNPREDICTABLE>
    2274:	17150000 	ldrne	r0, [r5, -r0]
    2278:	012a0000 			; <UNDEFINED> instruction: 0x012a0000
    227c:	00750250 	rsbseq	r0, r5, r0, asr r2
    2280:	82f02900 	rscshi	r2, r0, #0, 18
    2284:	19f90000 	ldmibne	r9!, {}^	; <UNPREDICTABLE>
    2288:	172c0000 	strne	r0, [ip, -r0]!
    228c:	012a0000 			; <UNDEFINED> instruction: 0x012a0000
    2290:	68030550 	stmdavs	r3, {r4, r6, r8, sl}
    2294:	00000097 	muleq	r0, r7, r0
    2298:	00831829 	addeq	r1, r3, r9, lsr #16
    229c:	0019f900 	andseq	pc, r9, r0, lsl #18
    22a0:	00174000 	andseq	r4, r7, r0
    22a4:	50012a00 	andpl	r2, r1, r0, lsl #20
    22a8:	00007502 	andeq	r7, r0, r2, lsl #10
    22ac:	00832c2b 	addeq	r2, r3, fp, lsr #24
    22b0:	0019f900 	andseq	pc, r9, r0, lsl #18
    22b4:	50012a00 	andpl	r2, r1, r0, lsl #20
    22b8:	97880305 	strls	r0, [r8, r5, lsl #6]
    22bc:	00000000 	andeq	r0, r0, r0
    22c0:	82882900 	addhi	r2, r8, #0, 18
    22c4:	17b30000 	ldrne	r0, [r3, r0]!
    22c8:	17690000 	strbne	r0, [r9, -r0]!
    22cc:	012a0000 			; <UNDEFINED> instruction: 0x012a0000
    22d0:	00740250 	rsbseq	r0, r4, r0, asr r2
    22d4:	829c2900 	addshi	r2, ip, #0, 18
    22d8:	19f90000 	ldmibne	r9!, {}^	; <UNPREDICTABLE>
    22dc:	177d0000 	ldrbne	r0, [sp, -r0]!
    22e0:	012a0000 			; <UNDEFINED> instruction: 0x012a0000
    22e4:	00750250 	rsbseq	r0, r5, r0, asr r2
    22e8:	82a42900 	adchi	r2, r4, #0, 18
    22ec:	19f90000 	ldmibne	r9!, {}^	; <UNPREDICTABLE>
    22f0:	17940000 	ldrne	r0, [r4, r0]
    22f4:	012a0000 			; <UNDEFINED> instruction: 0x012a0000
    22f8:	30030550 	andcc	r0, r3, r0, asr r5
    22fc:	00000097 	muleq	r0, r7, r0
    2300:	0082b42b 	addeq	fp, r2, fp, lsr #8
    2304:	0019f900 	andseq	pc, r9, r0, lsl #18
    2308:	50012a00 	andpl	r2, r1, r0, lsl #20
    230c:	97380305 	ldrls	r0, [r8, -r5, lsl #6]!
    2310:	012a0000 			; <UNDEFINED> instruction: 0x012a0000
    2314:	00740251 	rsbseq	r0, r4, r1, asr r2
    2318:	0152012a 	cmpeq	r2, sl, lsr #2
    231c:	31000030 	tstcc	r0, r0, lsr r0
    2320:	0000060a 	andeq	r0, r0, sl, lsl #12
    2324:	69112101 	ldmdbvs	r1, {r0, r8, sp}
    2328:	44000000 	strmi	r0, [r0], #-0
    232c:	24000082 	strcs	r0, [r0], #-130	; 0xffffff7e
    2330:	01000000 	mrseq	r0, (UNDEF: 0)
    2334:	00181e9c 	mulseq	r8, ip, lr
    2338:	00682c00 	rsbeq	r2, r8, r0, lsl #24
    233c:	b7222101 	strlt	r2, [r2, -r1, lsl #2]!
    2340:	8b00000c 	blhi	2378 <_start-0x5c88>
    2344:	87000007 	strhi	r0, [r0, -r7]
    2348:	2d000007 	stccs	0, cr0, [r0, #-28]	; 0xffffffe4
    234c:	00646c6f 	rsbeq	r6, r4, pc, ror #24
    2350:	2c0e2201 	sfmcs	f2, 4, [lr], {1}
    2354:	ab000000 	blge	235c <_start-0x5ca4>
    2358:	a9000007 	stmdbge	r0, {r0, r1, r2}
    235c:	26000007 	strcs	r0, [r0], -r7
    2360:	0000060e 	andeq	r0, r0, lr, lsl #12
    2364:	690e2401 	stmdbvs	lr, {r0, sl, sp}
    2368:	c0000000 	andgt	r0, r0, r0
    236c:	be000007 	cdplt	0, 0, cr0, cr0, cr7, {0}
    2370:	2b000007 	blcs	2394 <_start-0x5c6c>
    2374:	00008260 	andeq	r8, r0, r0, ror #4
    2378:	00001a29 	andeq	r1, r0, r9, lsr #20
    237c:	0250012a 	subseq	r0, r0, #-2147483638	; 0x8000000a
    2380:	012a0074 			; <UNDEFINED> instruction: 0x012a0074
    2384:	38080251 	stmdacc	r8, {r0, r4, r6, r9}
    2388:	d7310000 	ldrle	r0, [r1, -r0]!
    238c:	01000005 	tsteq	r0, r5
    2390:	0cb70f1c 	ldceq	15, cr0, [r7], #112	; 0x70
    2394:	811c0000 	tsthi	ip, r0
    2398:	00080000 	andeq	r0, r8, r0
    239c:	9c010000 	stcls	0, cr0, [r1], {-0}
    23a0:	0000184d 	andeq	r1, r0, sp, asr #16
    23a4:	000c2a2e 	andeq	r2, ip, lr, lsr #20
    23a8:	231c0100 	tstcs	ip, #0, 2
    23ac:	0000012d 	andeq	r0, r0, sp, lsr #2
    23b0:	000007d7 	ldrdeq	r0, [r0], -r7
    23b4:	000007d3 	ldrdeq	r0, [r0], -r3
    23b8:	06973100 	ldreq	r3, [r7], r0, lsl #2
    23bc:	19010000 	stmdbne	r1, {}	; <UNPREDICTABLE>
    23c0:	00002c11 	andeq	r2, r0, r1, lsl ip
    23c4:	00811000 	addeq	r1, r1, r0
    23c8:	00000c00 	andeq	r0, r0, r0, lsl #24
    23cc:	7a9c0100 	bvc	fe7027d4 <__bss_end__+0xfe6f8764>
    23d0:	2c000018 	stccs	0, cr0, [r0], {24}
    23d4:	19010068 	stmdbne	r1, {r3, r5, r6}
    23d8:	000cb725 	andeq	fp, ip, r5, lsr #14
    23dc:	0007fc00 	andeq	pc, r7, r0, lsl #24
    23e0:	0007f800 	andeq	pc, r7, r0, lsl #16
    23e4:	48310000 	ldmdami	r1!, {}	; <UNPREDICTABLE>
    23e8:	01000006 	tsteq	r0, r6
    23ec:	012d0e17 			; <UNDEFINED> instruction: 0x012d0e17
    23f0:	80f80000 	rscshi	r0, r8, r0
    23f4:	00180000 	andseq	r0, r8, r0
    23f8:	9c010000 	stcls	0, cr0, [r1], {-0}
    23fc:	000018b7 			; <UNDEFINED> instruction: 0x000018b7
    2400:	0100682c 	tsteq	r0, ip, lsr #16
    2404:	0cb71f17 	ldceq	15, cr1, [r7], #92	; 0x5c
    2408:	08210000 	stmdaeq	r1!, {}	; <UNPREDICTABLE>
    240c:	081d0000 	ldmdaeq	sp, {}	; <UNPREDICTABLE>
    2410:	042b0000 	strteq	r0, [fp], #-0
    2414:	b7000081 	strlt	r0, [r0, -r1, lsl #1]
    2418:	2a000018 	bcs	2480 <_start-0x5b80>
    241c:	74025001 	strvc	r5, [r2], #-1
    2420:	31000000 	mrscc	r0, (UNDEF: 0)
    2424:	00000621 	andeq	r0, r0, r1, lsr #12
    2428:	2d0e1501 	cfstr32cs	mvfx1, [lr, #-4]
    242c:	e8000001 	stmda	r0, {r0}
    2430:	10000080 	andne	r0, r0, r0, lsl #1
    2434:	01000000 	mrseq	r0, (UNDEF: 0)
    2438:	0018f59c 	mulseq	r8, ip, r5
    243c:	00682c00 	rsbeq	r2, r8, r0, lsl #24
    2440:	b7211501 	strlt	r1, [r1, -r1, lsl #10]!
    2444:	4300000c 	movwmi	r0, #12
    2448:	3f000008 	svccc	0x00000008
    244c:	2b000008 	blcs	2474 <_start-0x5b8c>
    2450:	000080f0 	strdeq	r8, [r0], -r0
    2454:	000018f5 	strdeq	r1, [r0], -r5
    2458:	0350012a 	cmpeq	r0, #-2147483638	; 0x8000000a
    245c:	005001f3 	ldrsheq	r0, [r0], #-19	; 0xffffffed
    2460:	05723100 	ldrbeq	r3, [r2, #-256]!	; 0xffffff00
    2464:	13010000 	movwne	r0, #4096	; 0x1000
    2468:	00012d0e 	andeq	r2, r1, lr, lsl #26
    246c:	0080e000 	addeq	lr, r0, r0
    2470:	00000800 	andeq	r0, r0, r0, lsl #16
    2474:	229c0100 	addscs	r0, ip, #0, 2
    2478:	2c000019 	stccs	0, cr0, [r0], {25}
    247c:	13010068 	movwne	r0, #4200	; 0x1068
    2480:	000cb71f 	andeq	fp, ip, pc, lsl r7
    2484:	00086800 	andeq	r6, r8, r0, lsl #16
    2488:	00086400 	andeq	r6, r8, r0, lsl #8
    248c:	43300000 	teqmi	r0, #0
    2490:	01000001 	tsteq	r0, r1
    2494:	84b00609 	ldrthi	r0, [r0], #1545	; 0x609
    2498:	00740000 	rsbseq	r0, r4, r0
    249c:	9c010000 	stcls	0, cr0, [r1], {-0}
    24a0:	000019d1 	ldrdeq	r1, [r0], -r1	; <UNPREDICTABLE>
    24a4:	000c232e 	andeq	r2, ip, lr, lsr #6
    24a8:	14090100 	strne	r0, [r9], #-256	; 0xffffff00
    24ac:	0000012d 	andeq	r0, r0, sp, lsr #2
    24b0:	00000892 	muleq	r0, r2, r8
    24b4:	00000888 	andeq	r0, r0, r8, lsl #17
    24b8:	01006e2c 	tsteq	r0, ip, lsr #28
    24bc:	002c2409 	eoreq	r2, ip, r9, lsl #8
    24c0:	08e00000 	stmiaeq	r0!, {}^	; <UNPREDICTABLE>
    24c4:	08d80000 	ldmeq	r8, {}^	; <UNPREDICTABLE>
    24c8:	1c2f0000 	stcne	0, cr0, [pc], #-0	; 24d0 <_start-0x5b30>
    24cc:	b1000002 	tstlt	r0, r2
    24d0:	05000010 	streq	r0, [r0, #-16]
    24d4:	009a1c03 	addseq	r1, sl, r3, lsl #24
    24d8:	84dc2900 	ldrbhi	r2, [ip], #2304	; 0x900
    24dc:	19f90000 	ldmibne	r9!, {}^	; <UNPREDICTABLE>
    24e0:	19900000 	ldmibne	r0, {}	; <UNPREDICTABLE>
    24e4:	012a0000 			; <UNDEFINED> instruction: 0x012a0000
    24e8:	f4030550 	vst3.16	{d0,d2,d4}, [r3 :64], r0
    24ec:	2a000097 	bcs	2750 <_start-0x58b0>
    24f0:	08025101 	stmdaeq	r2, {r0, r8, ip, lr}
    24f4:	52012a38 	andpl	r2, r1, #56, 20	; 0x38000
    24f8:	00800802 	addeq	r0, r0, r2, lsl #16
    24fc:	0084f828 	addeq	pc, r4, r8, lsr #16
    2500:	001a0500 	andseq	r0, sl, r0, lsl #10
    2504:	850c2900 	strhi	r2, [ip, #-2304]	; 0xfffff700
    2508:	19f90000 	ldmibne	r9!, {}^	; <UNPREDICTABLE>
    250c:	19c70000 	stmibne	r7, {}^	; <UNPREDICTABLE>
    2510:	012a0000 			; <UNDEFINED> instruction: 0x012a0000
    2514:	cc030550 	cfstr32gt	mvfx0, [r3], {80}	; 0x50
    2518:	2a000097 	bcs	277c <_start-0x5884>
    251c:	03055101 	movweq	r5, #20737	; 0x5101
    2520:	000097c0 	andeq	r9, r0, r0, asr #15
    2524:	0552012a 	ldrbeq	r0, [r2, #-298]	; 0xfffffed6
    2528:	009a1c03 	addseq	r1, sl, r3, lsl #24
    252c:	53012a00 	movwpl	r2, #6656	; 0x1a00
    2530:	28003a01 	stmdacs	r0, {r0, r9, fp, ip, sp}
    2534:	00008510 	andeq	r8, r0, r0, lsl r5
    2538:	00001a11 	andeq	r1, r0, r1, lsl sl
    253c:	06733800 	ldrbteq	r3, [r3], -r0, lsl #16
    2540:	55020000 	strpl	r0, [r2, #-0]
    2544:	19f30314 	ldmibne	r3!, {r2, r4, r8, r9}^
    2548:	68390000 	ldmdavs	r9!, {}	; <UNPREDICTABLE>
    254c:	25550200 	ldrbcs	r0, [r5, #-512]	; 0xfffffe00
    2550:	00000cb7 			; <UNDEFINED> instruction: 0x00000cb7
    2554:	02006c3a 	andeq	r6, r0, #14848	; 0x3a00
    2558:	19f31057 	ldmibne	r3!, {r0, r1, r2, r4, r6, ip}^
    255c:	05000000 	streq	r0, [r0, #-0]
    2560:	0009b304 	andeq	fp, r9, r4, lsl #6
    2564:	071d3b00 	ldreq	r3, [sp, -r0, lsl #22]
    2568:	071d0000 	ldreq	r0, [sp, -r0]
    256c:	29080000 	stmdbcs	r8, {}	; <UNPREDICTABLE>
    2570:	01f73b05 	mvnseq	r3, r5, lsl #22
    2574:	01f70000 	mvnseq	r0, r0
    2578:	1e080000 	cdpne	0, 0, cr0, cr8, cr0, {0}
    257c:	02a03b06 	adceq	r3, r0, #6144	; 0x1800
    2580:	02a00000 	adceq	r0, r0, #0
    2584:	65080000 	strvs	r0, [r8, #-0]
    2588:	049f3b06 	ldreq	r3, [pc], #2822	; 2590 <_start-0x5a70>
    258c:	049f0000 	ldreq	r0, [pc], #0	; 2594 <_start-0x5a6c>
    2590:	21090000 	mrscs	r0, (UNDEF: 9)
    2594:	055f3b09 	ldrbeq	r3, [pc, #-2825]	; 1a93 <_start-0x656d>
    2598:	055f0000 	ldrbeq	r0, [pc, #-0]	; 25a0 <_start-0x5a60>
    259c:	050a0000 	streq	r0, [sl, #-0]
    25a0:	09fe000a 	ldmibeq	lr!, {r1, r3}^
    25a4:	00040000 	andeq	r0, r4, r0
    25a8:	000005c0 	andeq	r0, r0, r0, asr #11
    25ac:	03020104 	movweq	r0, #8452	; 0x2104
    25b0:	d30c0000 	movwle	r0, #49152	; 0xc000
    25b4:	df000006 	svcle	0x00000006
    25b8:	b8000006 	stmdalt	r0, {r1, r2}
    25bc:	ec000089 	stc	0, cr0, [r0], {137}	; 0x89
    25c0:	d7000000 	strle	r0, [r0, -r0]
    25c4:	02000008 	andeq	r0, r0, #8
    25c8:	6e690504 	cdpvs	5, 6, cr0, cr9, cr4, {0}
    25cc:	04030074 	streq	r0, [r3], #-116	; 0xffffff8c
    25d0:	00007407 	andeq	r7, r0, r7, lsl #8
    25d4:	06010300 	streq	r0, [r1], -r0, lsl #6
    25d8:	000002f1 	strdeq	r0, [r0], -r1
    25dc:	8a050203 	bhi	142df0 <__bss_end__+0x138d80>
    25e0:	03000003 	movweq	r0, #3
    25e4:	00ba0504 	adcseq	r0, sl, r4, lsl #10
    25e8:	08030000 	stmdaeq	r3, {}	; <UNPREDICTABLE>
    25ec:	0000b505 	andeq	fp, r0, r5, lsl #10
    25f0:	06a40400 	strteq	r0, [r4], r0, lsl #8
    25f4:	2e020000 	cdpcs	0, 0, cr0, cr2, cr0, {0}
    25f8:	00005b18 	andeq	r5, r0, r8, lsl fp
    25fc:	08010300 	stmdaeq	r1, {r8, r9}
    2600:	000002ef 	andeq	r0, r0, pc, ror #5
    2604:	30070203 	andcc	r0, r7, r3, lsl #4
    2608:	04000002 	streq	r0, [r0], #-2
    260c:	00000662 	andeq	r0, r0, r2, ror #12
    2610:	75193402 	ldrvc	r3, [r9, #-1026]	; 0xfffffbfe
    2614:	03000000 	movweq	r0, #0
    2618:	006f0704 	rsbeq	r0, pc, r4, lsl #14
    261c:	08030000 	stmdaeq	r3, {}	; <UNPREDICTABLE>
    2620:	00006a07 	andeq	r6, r0, r7, lsl #20
    2624:	02730400 	rsbseq	r0, r3, #0, 8
    2628:	22030000 	andcs	r0, r3, #0
    262c:	00008f19 	andeq	r8, r0, r9, lsl pc
    2630:	95040500 	strls	r0, [r4, #-1280]	; 0xfffffb00
    2634:	06000000 	streq	r0, [r0], -r0
    2638:	00000430 	andeq	r0, r0, r0, lsr r4
    263c:	0002d004 	andeq	sp, r2, r4
    2640:	0e2c0400 	cdpeq	4, 2, cr0, cr12, cr0, {0}
    2644:	00000041 	andeq	r0, r0, r1, asr #32
    2648:	00044504 	andeq	r4, r4, r4, lsl #10
    264c:	0e720400 	cdpeq	4, 7, cr0, cr2, cr0, {0}
    2650:	00000041 	andeq	r0, r0, r1, asr #32
    2654:	00027b07 	andeq	r7, r2, r7, lsl #22
    2658:	015e0500 	cmpeq	lr, r0, lsl #10
    265c:	00002c17 	andeq	r2, r0, r7, lsl ip
    2660:	04040800 	streq	r0, [r4], #-2048	; 0xfffff800
    2664:	00e103a6 	rsceq	r0, r1, r6, lsr #7
    2668:	6d090000 	stcvs	0, cr0, [r9, #-0]
    266c:	04000002 	streq	r0, [r0], #-2
    2670:	00b20ca8 	adcseq	r0, r2, r8, lsr #25
    2674:	f0090000 			; <UNDEFINED> instruction: 0xf0090000
    2678:	04000001 	streq	r0, [r0], #-1
    267c:	00e113a9 	rsceq	r1, r1, r9, lsr #7
    2680:	0a000000 	beq	2688 <_start-0x5978>
    2684:	0000005b 	andeq	r0, r0, fp, asr r0
    2688:	000000f1 	strdeq	r0, [r0], -r1
    268c:	00002c0b 	andeq	r2, r0, fp, lsl #24
    2690:	0c000300 	stceq	3, cr0, [r0], {-0}
    2694:	09a30408 	stmibeq	r3!, {r3, sl}
    2698:	00000115 	andeq	r0, r0, r5, lsl r1
    269c:	0004280d 	andeq	r2, r4, sp, lsl #16
    26a0:	07a50400 	streq	r0, [r5, r0, lsl #8]!
    26a4:	00000025 	andeq	r0, r0, r5, lsr #32
    26a8:	04370d00 	ldrteq	r0, [r7], #-3328	; 0xfffff300
    26ac:	aa040000 	bge	1026b4 <__bss_end__+0xf8644>
    26b0:	0000bf05 	andeq	fp, r0, r5, lsl #30
    26b4:	04000400 	streq	r0, [r0], #-1024	; 0xfffffc00
    26b8:	000003b2 			; <UNDEFINED> instruction: 0x000003b2
    26bc:	f103ab04 			; <UNDEFINED> instruction: 0xf103ab04
    26c0:	04000000 	streq	r0, [r0], #-0
    26c4:	000001ad 	andeq	r0, r0, sp, lsr #3
    26c8:	831baf04 	tsthi	fp, #4, 30
    26cc:	0e000000 	cdpeq	0, 0, cr0, cr0, cr0, {0}
    26d0:	35040504 	strcc	r0, [r4, #-1284]	; 0xfffffafc
    26d4:	03000001 	movweq	r0, #1
    26d8:	02f80801 	rscseq	r0, r8, #65536	; 0x10000
    26dc:	350f0000 	strcc	r0, [pc, #-0]	; 26e4 <_start-0x591c>
    26e0:	04000001 	streq	r0, [r0], #-1
    26e4:	00000477 	andeq	r0, r0, r7, ror r4
    26e8:	75191606 	ldrvc	r1, [r9, #-1542]	; 0xfffff9fa
    26ec:	10000000 	andne	r0, r0, r0
    26f0:	000001be 			; <UNDEFINED> instruction: 0x000001be
    26f4:	082f0618 	stmdaeq	pc!, {r3, r4, r9, sl}	; <UNPREDICTABLE>
    26f8:	000001a7 	andeq	r0, r0, r7, lsr #3
    26fc:	0003d30d 	andeq	sp, r3, sp, lsl #6
    2700:	13310600 	teqne	r1, #0, 12
    2704:	000001a7 	andeq	r0, r0, r7, lsr #3
    2708:	6b5f1100 	blvs	17c6b10 <__bss_end__+0x17bcaa0>
    270c:	07320600 	ldreq	r0, [r2, -r0, lsl #12]!
    2710:	00000025 	andeq	r0, r0, r5, lsr #32
    2714:	04130d04 	ldreq	r0, [r3], #-3332	; 0xfffff2fc
    2718:	32060000 	andcc	r0, r6, #0
    271c:	0000250b 	andeq	r2, r0, fp, lsl #10
    2720:	a70d0800 	strge	r0, [sp, -r0, lsl #16]
    2724:	06000001 	streq	r0, [r0], -r1
    2728:	00251432 	eoreq	r1, r5, r2, lsr r4
    272c:	0d0c0000 	stceq	0, cr0, [ip, #-0]
    2730:	000004b3 			; <UNDEFINED> instruction: 0x000004b3
    2734:	251b3206 	ldrcs	r3, [fp, #-518]	; 0xfffffdfa
    2738:	10000000 	andne	r0, r0, r0
    273c:	00785f11 	rsbseq	r5, r8, r1, lsl pc
    2740:	ad0b3306 	stcge	3, cr3, [fp, #-24]	; 0xffffffe8
    2744:	14000001 	strne	r0, [r0], #-1
    2748:	4d040500 	cfstr32mi	mvfx0, [r4, #-0]
    274c:	0a000001 	beq	2758 <_start-0x58a8>
    2750:	00000141 	andeq	r0, r0, r1, asr #2
    2754:	000001bd 			; <UNDEFINED> instruction: 0x000001bd
    2758:	00002c0b 	andeq	r2, r0, fp, lsl #24
    275c:	10000000 	andne	r0, r0, r0
    2760:	000001eb 	andeq	r0, r0, fp, ror #3
    2764:	08370624 	ldmdaeq	r7!, {r2, r5, r9, sl}
    2768:	00000240 	andeq	r0, r0, r0, asr #4
    276c:	0000ac0d 	andeq	sl, r0, sp, lsl #24
    2770:	09390600 	ldmdbeq	r9!, {r9, sl}
    2774:	00000025 	andeq	r0, r0, r5, lsr #32
    2778:	044d0d00 	strbeq	r0, [sp], #-3328	; 0xfffff300
    277c:	3a060000 	bcc	182784 <__bss_end__+0x178714>
    2780:	00002509 	andeq	r2, r0, r9, lsl #10
    2784:	cf0d0400 	svcgt	0x000d0400
    2788:	06000000 	streq	r0, [r0], -r0
    278c:	0025093b 	eoreq	r0, r5, fp, lsr r9
    2790:	0d080000 	stceq	0, cr0, [r8, #-0]
    2794:	00000534 	andeq	r0, r0, r4, lsr r5
    2798:	25093c06 	strcs	r3, [r9, #-3078]	; 0xfffff3fa
    279c:	0c000000 	stceq	0, cr0, [r0], {-0}
    27a0:	0002b40d 	andeq	fp, r2, sp, lsl #8
    27a4:	093d0600 	ldmdbeq	sp!, {r9, sl}
    27a8:	00000025 	andeq	r0, r0, r5, lsr #32
    27ac:	02960d10 	addseq	r0, r6, #16, 26	; 0x400
    27b0:	3e060000 	cdpcc	0, 0, cr0, cr6, cr0, {0}
    27b4:	00002509 	andeq	r2, r0, r9, lsl #10
    27b8:	b80d1400 	stmdalt	sp, {sl, ip}
    27bc:	06000004 	streq	r0, [r0], -r4
    27c0:	0025093f 	eoreq	r0, r5, pc, lsr r9
    27c4:	0d180000 	ldceq	0, cr0, [r8, #-0]
    27c8:	00000394 	muleq	r0, r4, r3
    27cc:	25094006 	strcs	r4, [r9, #-6]
    27d0:	1c000000 	stcne	0, cr0, [r0], {-0}
    27d4:	0004fb0d 	andeq	pc, r4, sp, lsl #22
    27d8:	09410600 	stmdbeq	r1, {r9, sl}^
    27dc:	00000025 	andeq	r0, r0, r5, lsr #32
    27e0:	0f120020 	svceq	0x00120020
    27e4:	08000001 	stmdaeq	r0, {r0}
    27e8:	084a0601 	stmdaeq	sl, {r0, r9, sl}^
    27ec:	00000285 	andeq	r0, r0, r5, lsl #5
    27f0:	00019a0d 	andeq	r9, r1, sp, lsl #20
    27f4:	0a4b0600 	beq	12c3ffc <__bss_end__+0x12b9f8c>
    27f8:	00000285 	andeq	r0, r0, r5, lsl #5
    27fc:	00000d00 	andeq	r0, r0, r0, lsl #26
    2800:	4c060000 	stcmi	0, cr0, [r6], {-0}
    2804:	00028509 	andeq	r8, r2, r9, lsl #10
    2808:	69138000 	ldmdbvs	r3, {pc}
    280c:	06000004 	streq	r0, [r0], -r4
    2810:	01410a4e 	cmpeq	r1, lr, asr #20
    2814:	01000000 	mrseq	r0, (UNDEF: 0)
    2818:	00013413 	andeq	r3, r1, r3, lsl r4
    281c:	0a510600 	beq	1444024 <__bss_end__+0x1439fb4>
    2820:	00000141 	andeq	r0, r0, r1, asr #2
    2824:	0a000104 	beq	2c3c <_start-0x53c4>
    2828:	0000012d 	andeq	r0, r0, sp, lsr #2
    282c:	00000295 	muleq	r0, r5, r2
    2830:	00002c0b 	andeq	r2, r0, fp, lsl #24
    2834:	12001f00 	andne	r1, r0, #0, 30
    2838:	000002bd 			; <UNDEFINED> instruction: 0x000002bd
    283c:	5d060190 	stfpls	f0, [r6, #-576]	; 0xfffffdc0
    2840:	0002d808 	andeq	sp, r2, r8, lsl #16
    2844:	03d30d00 	bicseq	r0, r3, #0, 26
    2848:	5e060000 	cdppl	0, 0, cr0, cr6, cr0, {0}
    284c:	0002d812 	andeq	sp, r2, r2, lsl r8
    2850:	eb0d0000 	bl	342858 <__bss_end__+0x3387e8>
    2854:	06000003 	streq	r0, [r0], -r3
    2858:	0025065f 	eoreq	r0, r5, pc, asr r6
    285c:	0d040000 	stceq	0, cr0, [r4, #-0]
    2860:	000001a2 	andeq	r0, r0, r2, lsr #3
    2864:	de096106 	adflee	f6, f1, f6
    2868:	08000002 	stmdaeq	r0, {r1}
    286c:	00010f0d 	andeq	r0, r1, sp, lsl #30
    2870:	1e620600 	cdpne	6, 6, cr0, cr2, cr0, {0}
    2874:	00000240 	andeq	r0, r0, r0, asr #4
    2878:	04050088 	streq	r0, [r5], #-136	; 0xffffff78
    287c:	00000295 	muleq	r0, r5, r2
    2880:	0002ee0a 	andeq	lr, r2, sl, lsl #28
    2884:	0002ee00 	andeq	lr, r2, r0, lsl #28
    2888:	002c0b00 	eoreq	r0, ip, r0, lsl #22
    288c:	001f0000 	andseq	r0, pc, r0
    2890:	02f40405 	rscseq	r0, r4, #83886080	; 0x5000000
    2894:	10140000 	andsne	r0, r4, r0
    2898:	0000039e 	muleq	r0, lr, r3
    289c:	08750608 	ldmdaeq	r5!, {r3, r9, sl}^
    28a0:	0000031d 	andeq	r0, r0, sp, lsl r3
    28a4:	0000c90d 	andeq	ip, r0, sp, lsl #18
    28a8:	11760600 	cmnne	r6, r0, lsl #12
    28ac:	0000031d 	andeq	r0, r0, sp, lsl r3
    28b0:	001b0d00 	andseq	r0, fp, r0, lsl #26
    28b4:	77060000 	strvc	r0, [r6, -r0]
    28b8:	00002506 	andeq	r2, r0, r6, lsl #10
    28bc:	05000400 	streq	r0, [r0, #-1024]	; 0xfffffc00
    28c0:	00005b04 	andeq	r5, r0, r4, lsl #22
    28c4:	03bd1000 			; <UNDEFINED> instruction: 0x03bd1000
    28c8:	06680000 	strbteq	r0, [r8], -r0
    28cc:	046608b5 	strbteq	r0, [r6], #-2229	; 0xfffff74b
    28d0:	5f110000 	svcpl	0x00110000
    28d4:	b6060070 			; <UNDEFINED> instruction: 0xb6060070
    28d8:	00031d12 	andeq	r1, r3, r2, lsl sp
    28dc:	5f110000 	svcpl	0x00110000
    28e0:	b7060072 	smlsdxlt	r6, r2, r0, r0
    28e4:	00002507 	andeq	r2, r0, r7, lsl #10
    28e8:	5f110400 	svcpl	0x00110400
    28ec:	b8060077 	stmdalt	r6, {r0, r1, r2, r4, r5, r6}
    28f0:	00002507 	andeq	r2, r0, r7, lsl #10
    28f4:	2d0d0800 	stccs	8, cr0, [sp, #-0]
    28f8:	06000001 	streq	r0, [r0], -r1
    28fc:	003a09b9 	ldrhteq	r0, [sl], -r9
    2900:	0d0c0000 	stceq	0, cr0, [ip, #-0]
    2904:	00000216 	andeq	r0, r0, r6, lsl r2
    2908:	3a09ba06 	bcc	271128 <__bss_end__+0x2670b8>
    290c:	0e000000 	cdpeq	0, 0, cr0, cr0, cr0, {0}
    2910:	66625f11 	uqadd16vs	r5, r2, r1
    2914:	11bb0600 			; <UNDEFINED> instruction: 0x11bb0600
    2918:	000002f5 	strdeq	r0, [r0], -r5
    291c:	00890d10 	addeq	r0, r9, r0, lsl sp
    2920:	bc060000 	stclt	0, cr0, [r6], {-0}
    2924:	00002507 	andeq	r2, r0, r7, lsl #10
    2928:	1d0d1800 	stcne	8, cr1, [sp, #-0]
    292c:	06000001 	streq	r0, [r0], -r1
    2930:	012d0ac3 	smlawteq	sp, r3, sl, r0
    2934:	0d1c0000 	ldceq	0, cr0, [ip, #-0]
    2938:	00000b42 	andeq	r0, r0, r2, asr #22
    293c:	d81dc506 	ldmdale	sp, {r1, r2, r8, sl, lr, pc}
    2940:	20000005 	andcs	r0, r0, r5
    2944:	0006370d 	andeq	r3, r6, sp, lsl #14
    2948:	1dc70600 	stclne	6, cr0, [r7]
    294c:	00000602 	andeq	r0, r0, r2, lsl #12
    2950:	043f0d24 	ldrteq	r0, [pc], #-3364	; 2958 <_start-0x56a8>
    2954:	ca060000 	bgt	18295c <__bss_end__+0x1788ec>
    2958:	0006260d 	andeq	r2, r6, sp, lsl #12
    295c:	150d2800 	strne	r2, [sp, #-2048]	; 0xfffff800
    2960:	06000005 	streq	r0, [r0], -r5
    2964:	064009cb 	strbeq	r0, [r0], -fp, asr #19
    2968:	112c0000 			; <UNDEFINED> instruction: 0x112c0000
    296c:	0062755f 	rsbeq	r7, r2, pc, asr r5
    2970:	f511ce06 			; <UNDEFINED> instruction: 0xf511ce06
    2974:	30000002 	andcc	r0, r0, r2
    2978:	70755f11 	rsbsvc	r5, r5, r1, lsl pc
    297c:	12cf0600 	sbcne	r0, pc, #0, 12
    2980:	0000031d 	andeq	r0, r0, sp, lsl r3
    2984:	755f1138 	ldrbvc	r1, [pc, #-312]	; 2854 <_start-0x57ac>
    2988:	d0060072 	andle	r0, r6, r2, ror r0
    298c:	00002507 	andeq	r2, r0, r7, lsl #10
    2990:	c30d3c00 	movwgt	r3, #56320	; 0xdc00
    2994:	06000000 	streq	r0, [r0], -r0
    2998:	064611d3 			; <UNDEFINED> instruction: 0x064611d3
    299c:	0d400000 	stcleq	0, cr0, [r0, #-0]
    29a0:	000004ed 	andeq	r0, r0, sp, ror #9
    29a4:	5611d406 	ldrpl	sp, [r1], -r6, lsl #8
    29a8:	43000006 	movwmi	r0, #6
    29ac:	626c5f11 	rsbvs	r5, ip, #17, 30	; 0x44
    29b0:	11d70600 	bicsne	r0, r7, r0, lsl #12
    29b4:	000002f5 	strdeq	r0, [r0], -r5
    29b8:	014b0d44 	cmpeq	fp, r4, asr #26
    29bc:	da060000 	ble	1829c4 <__bss_end__+0x178954>
    29c0:	00002507 	andeq	r2, r0, r7, lsl #10
    29c4:	5c0d4c00 	stcpl	12, cr4, [sp], {-0}
    29c8:	06000001 	streq	r0, [r0], -r1
    29cc:	009a0adb 			; <UNDEFINED> instruction: 0x009a0adb
    29d0:	0d500000 	ldcleq	0, cr0, [r0, #-0]
    29d4:	00000ae3 	andeq	r0, r0, r3, ror #21
    29d8:	8412de06 	ldrhi	sp, [r2], #-3590	; 0xfffff1fa
    29dc:	54000004 	strpl	r0, [r0], #-4
    29e0:	0004310d 	andeq	r3, r4, sp, lsl #2
    29e4:	0ce20600 	stcleq	6, cr0, [r2]
    29e8:	00000121 	andeq	r0, r0, r1, lsr #2
    29ec:	03c50d58 	biceq	r0, r5, #88, 26	; 0x1600
    29f0:	e4060000 	str	r0, [r6], #-0
    29f4:	0001150e 	andeq	r1, r1, lr, lsl #10
    29f8:	8e0d5c00 	cdphi	12, 0, cr5, cr13, cr0, {0}
    29fc:	06000002 	streq	r0, [r0], -r2
    2a00:	002509e5 	eoreq	r0, r5, r5, ror #19
    2a04:	00640000 	rsbeq	r0, r4, r0
    2a08:	00002515 	andeq	r2, r0, r5, lsl r5
    2a0c:	00048400 	andeq	r8, r4, r0, lsl #8
    2a10:	04841600 	streq	r1, [r4], #1536	; 0x600
    2a14:	2d160000 	ldccs	0, cr0, [r6, #-0]
    2a18:	16000001 	strne	r0, [r0], -r1
    2a1c:	0000012f 	andeq	r0, r0, pc, lsr #2
    2a20:	00002516 	andeq	r2, r0, r6, lsl r5
    2a24:	04050000 	streq	r0, [r5], #-0
    2a28:	0000048f 	andeq	r0, r0, pc, lsl #9
    2a2c:	0004840f 	andeq	r8, r4, pc, lsl #8
    2a30:	041b1700 	ldreq	r1, [fp], #-1792	; 0xfffff900
    2a34:	04280000 	strteq	r0, [r8], #-0
    2a38:	08026006 	stmdaeq	r2, {r1, r2, sp, lr}
    2a3c:	000005d8 	ldrdeq	r0, [r0], -r8
    2a40:	00038318 	andeq	r8, r3, r8, lsl r3
    2a44:	02620600 	rsbeq	r0, r2, #0, 12
    2a48:	00002507 	andeq	r2, r0, r7, lsl #10
    2a4c:	3c180000 	ldccc	0, cr0, [r8], {-0}
    2a50:	06000001 	streq	r0, [r0], -r1
    2a54:	b20b0267 	andlt	r0, fp, #1879048198	; 0x70000006
    2a58:	04000006 	streq	r0, [r0], #-6
    2a5c:	00020618 	andeq	r0, r2, r8, lsl r6
    2a60:	02670600 	rsbeq	r0, r7, #0, 12
    2a64:	0006b214 	andeq	fp, r6, r4, lsl r2
    2a68:	b6180800 	ldrlt	r0, [r8], -r0, lsl #16
    2a6c:	06000001 	streq	r0, [r0], -r1
    2a70:	b21e0267 	andslt	r0, lr, #1879048198	; 0x70000006
    2a74:	0c000006 	stceq	0, cr0, [r0], {6}
    2a78:	0003e618 	andeq	lr, r3, r8, lsl r6
    2a7c:	02690600 	rsbeq	r0, r9, #0, 12
    2a80:	00002508 	andeq	r2, r0, r8, lsl #10
    2a84:	37181000 	ldrcc	r1, [r8, -r0]
    2a88:	06000000 	streq	r0, [r0], -r0
    2a8c:	b208026a 	andlt	r0, r8, #-1610612730	; 0xa0000006
    2a90:	14000008 	strne	r0, [r0], #-8
    2a94:	0003fa18 	andeq	pc, r3, r8, lsl sl	; <UNPREDICTABLE>
    2a98:	026d0600 	rsbeq	r0, sp, #0, 12
    2a9c:	00002507 	andeq	r2, r0, r7, lsl #10
    2aa0:	1f183000 	svcne	0x00183000
    2aa4:	0600000a 	streq	r0, [r0], -sl
    2aa8:	c716026e 	ldrgt	r0, [r6, -lr, ror #4]
    2aac:	34000008 	strcc	r0, [r0], #-8
    2ab0:	0002c518 	andeq	ip, r2, r8, lsl r5
    2ab4:	02700600 	rsbseq	r0, r0, #0, 12
    2ab8:	00002507 	andeq	r2, r0, r7, lsl #10
    2abc:	f0183800 			; <UNDEFINED> instruction: 0xf0183800
    2ac0:	06000003 	streq	r0, [r0], -r3
    2ac4:	d80a0272 	stmdale	sl, {r1, r4, r5, r6, r9}
    2ac8:	3c000008 	stccc	0, cr0, [r0], {8}
    2acc:	00026518 	andeq	r6, r2, r8, lsl r5
    2ad0:	02750600 	rsbseq	r0, r5, #0, 12
    2ad4:	0001a713 	andeq	sl, r1, r3, lsl r7
    2ad8:	d5184000 	ldrle	r4, [r8, #-0]
    2adc:	06000001 	streq	r0, [r0], -r1
    2ae0:	25070276 	strcs	r0, [r7, #-630]	; 0xfffffd8a
    2ae4:	44000000 	strmi	r0, [r0], #-0
    2ae8:	00052f18 	andeq	r2, r5, r8, lsl pc
    2aec:	02770600 	rsbseq	r0, r7, #0, 12
    2af0:	0001a713 	andeq	sl, r1, r3, lsl r7
    2af4:	d7184800 	ldrle	r4, [r8, -r0, lsl #16]
    2af8:	06000002 	streq	r0, [r0], -r2
    2afc:	de140278 	mrcle	2, 0, r0, cr4, cr8, {3}
    2b00:	4c000008 	stcmi	0, cr0, [r0], {8}
    2b04:	00020e18 	andeq	r0, r2, r8, lsl lr
    2b08:	027b0600 	rsbseq	r0, fp, #0, 12
    2b0c:	00002507 	andeq	r2, r0, r7, lsl #10
    2b10:	54185000 	ldrpl	r5, [r8], #-0
    2b14:	06000001 	streq	r0, [r0], -r1
    2b18:	2f09027c 	svccs	0x0009027c
    2b1c:	54000001 	strpl	r0, [r0], #-1
    2b20:	0002fd18 	andeq	pc, r2, r8, lsl sp	; <UNPREDICTABLE>
    2b24:	029f0600 	addseq	r0, pc, #0, 12
    2b28:	00088d07 	andeq	r8, r8, r7, lsl #26
    2b2c:	bd195800 	ldclt	8, cr5, [r9, #-0]
    2b30:	06000002 	streq	r0, [r0], -r2
    2b34:	d81302a3 	ldmdale	r3, {r0, r1, r5, r7, r9}
    2b38:	48000002 	stmdami	r0, {r1}
    2b3c:	02431901 	subeq	r1, r3, #16384	; 0x4000
    2b40:	a4060000 	strge	r0, [r6], #-0
    2b44:	02951202 	addseq	r1, r5, #536870912	; 0x20000000
    2b48:	014c0000 	mrseq	r0, (UNDEF: 76)
    2b4c:	0004db19 	andeq	sp, r4, r9, lsl fp
    2b50:	02a80600 	adceq	r0, r8, #0, 12
    2b54:	0008ef0c 	andeq	lr, r8, ip, lsl #30
    2b58:	1902dc00 	stmdbne	r2, {sl, fp, ip, lr, pc}
    2b5c:	00000125 	andeq	r0, r0, r5, lsr #2
    2b60:	1002ad06 	andne	sl, r2, r6, lsl #26
    2b64:	00000673 	andeq	r0, r0, r3, ror r6
    2b68:	0a1902e0 	beq	6436f0 <__bss_end__+0x639680>
    2b6c:	06000001 	streq	r0, [r0], -r1
    2b70:	fb0a02af 	blx	283636 <__bss_end__+0x2795c6>
    2b74:	ec000008 	stc	0, cr0, [r0], {8}
    2b78:	04050002 	streq	r0, [r5], #-2
    2b7c:	00000466 	andeq	r0, r0, r6, ror #8
    2b80:	00002515 	andeq	r2, r0, r5, lsl r5
    2b84:	0005fc00 	andeq	pc, r5, r0, lsl #24
    2b88:	04841600 	streq	r1, [r4], #1536	; 0x600
    2b8c:	2d160000 	ldccs	0, cr0, [r6, #-0]
    2b90:	16000001 	strne	r0, [r0], -r1
    2b94:	000005fc 	strdeq	r0, [r0], -ip
    2b98:	00002516 	andeq	r2, r0, r6, lsl r5
    2b9c:	04050000 	streq	r0, [r5], #-0
    2ba0:	0000013c 	andeq	r0, r0, ip, lsr r1
    2ba4:	05de0405 	ldrbeq	r0, [lr, #1029]	; 0x405
    2ba8:	a6150000 	ldrge	r0, [r5], -r0
    2bac:	26000000 	strcs	r0, [r0], -r0
    2bb0:	16000006 	strne	r0, [r0], -r6
    2bb4:	00000484 	andeq	r0, r0, r4, lsl #9
    2bb8:	00012d16 	andeq	r2, r1, r6, lsl sp
    2bbc:	00a61600 	adceq	r1, r6, r0, lsl #12
    2bc0:	25160000 	ldrcs	r0, [r6, #-0]
    2bc4:	00000000 	andeq	r0, r0, r0
    2bc8:	06080405 	streq	r0, [r8], -r5, lsl #8
    2bcc:	25150000 	ldrcs	r0, [r5, #-0]
    2bd0:	40000000 	andmi	r0, r0, r0
    2bd4:	16000006 	strne	r0, [r0], -r6
    2bd8:	00000484 	andeq	r0, r0, r4, lsl #9
    2bdc:	00012d16 	andeq	r2, r1, r6, lsl sp
    2be0:	04050000 	streq	r0, [r5], #-0
    2be4:	0000062c 	andeq	r0, r0, ip, lsr #12
    2be8:	00005b0a 	andeq	r5, r0, sl, lsl #22
    2bec:	00065600 	andeq	r5, r6, r0, lsl #12
    2bf0:	002c0b00 	eoreq	r0, ip, r0, lsl #22
    2bf4:	00020000 	andeq	r0, r2, r0
    2bf8:	00005b0a 	andeq	r5, r0, sl, lsl #22
    2bfc:	00066600 	andeq	r6, r6, r0, lsl #12
    2c00:	002c0b00 	eoreq	r0, ip, r0, lsl #22
    2c04:	00000000 	andeq	r0, r0, r0
    2c08:	0003ab07 	andeq	sl, r3, r7, lsl #22
    2c0c:	011f0600 	tsteq	pc, r0, lsl #12
    2c10:	0003231a 	andeq	r2, r3, sl, lsl r3
    2c14:	04c21a00 	strbeq	r1, [r2], #2560	; 0xa00
    2c18:	060c0000 	streq	r0, [ip], -r0
    2c1c:	ac080123 	stfges	f0, [r8], {35}	; 0x23
    2c20:	18000006 	stmdane	r0, {r1, r2}
    2c24:	000003d3 	ldrdeq	r0, [r0], -r3
    2c28:	11012506 	tstne	r1, r6, lsl #10
    2c2c:	000006ac 	andeq	r0, r0, ip, lsr #13
    2c30:	02291800 	eoreq	r1, r9, #0, 16
    2c34:	26060000 	strcs	r0, [r6], -r0
    2c38:	00250701 	eoreq	r0, r5, r1, lsl #14
    2c3c:	18040000 	stmdane	r4, {}	; <UNPREDICTABLE>
    2c40:	000003a5 	andeq	r0, r0, r5, lsr #7
    2c44:	0b012706 	bleq	4c864 <__bss_end__+0x427f4>
    2c48:	000006b2 			; <UNDEFINED> instruction: 0x000006b2
    2c4c:	04050008 	streq	r0, [r5], #-8
    2c50:	00000673 	andeq	r0, r0, r3, ror r6
    2c54:	06660405 	strbteq	r0, [r6], -r5, lsl #8
    2c58:	2f1a0000 	svccs	0x001a0000
    2c5c:	0e000000 	cdpeq	0, 0, cr0, cr0, cr0, {0}
    2c60:	08013f06 	stmdaeq	r1, {r1, r2, r8, r9, sl, fp, ip, sp}
    2c64:	000006f1 	strdeq	r0, [r0], -r1
    2c68:	00042218 	andeq	r2, r4, r8, lsl r2
    2c6c:	01400600 	cmpeq	r0, r0, lsl #12
    2c70:	0006f112 	andeq	pc, r6, r2, lsl r1	; <UNPREDICTABLE>
    2c74:	56180000 	ldrpl	r0, [r8], -r0
    2c78:	06000004 	streq	r0, [r0], -r4
    2c7c:	f1120141 			; <UNDEFINED> instruction: 0xf1120141
    2c80:	06000006 	streq	r0, [r0], -r6
    2c84:	00047218 	andeq	r7, r4, r8, lsl r2
    2c88:	01420600 	cmpeq	r2, r0, lsl #12
    2c8c:	00006212 	andeq	r6, r0, r2, lsl r2
    2c90:	0a000c00 	beq	5c98 <_start-0x2368>
    2c94:	00000062 	andeq	r0, r0, r2, rrx
    2c98:	00000701 	andeq	r0, r0, r1, lsl #14
    2c9c:	00002c0b 	andeq	r2, r0, fp, lsl #24
    2ca0:	1b000200 	blne	34a8 <_start-0x4b58>
    2ca4:	028006d0 	addeq	r0, r0, #208, 12	; 0xd000000
    2ca8:	00081607 	andeq	r1, r8, r7, lsl #12
    2cac:	04a61800 	strteq	r1, [r6], #2048	; 0x800
    2cb0:	82060000 	andhi	r0, r6, #0
    2cb4:	002c1802 	eoreq	r1, ip, r2, lsl #16
    2cb8:	18000000 	stmdane	r0, {}	; <UNPREDICTABLE>
    2cbc:	0000045c 	andeq	r0, r0, ip, asr r4
    2cc0:	12028306 	andne	r8, r2, #402653184	; 0x18000000
    2cc4:	0000012f 	andeq	r0, r0, pc, lsr #2
    2cc8:	02581804 	subseq	r1, r8, #4, 16	; 0x40000
    2ccc:	84060000 	strhi	r0, [r6], #-0
    2cd0:	08161002 	ldmdaeq	r6, {r1, ip}
    2cd4:	18080000 	stmdane	r8, {}	; <UNPREDICTABLE>
    2cd8:	00000506 	andeq	r0, r0, r6, lsl #10
    2cdc:	17028506 	strne	r8, [r2, -r6, lsl #10]
    2ce0:	000001bd 			; <UNDEFINED> instruction: 0x000001bd
    2ce4:	01c61824 	biceq	r1, r6, r4, lsr #16
    2ce8:	86060000 	strhi	r0, [r6], -r0
    2cec:	00250f02 	eoreq	r0, r5, r2, lsl #30
    2cf0:	18480000 	stmdane	r8, {}^	; <UNPREDICTABLE>
    2cf4:	000003ce 	andeq	r0, r0, lr, asr #7
    2cf8:	2c028706 	stccs	7, cr8, [r2], {6}
    2cfc:	0000007c 	andeq	r0, r0, ip, ror r0
    2d00:	051c1850 	ldreq	r1, [ip, #-2128]	; 0xfffff7b0
    2d04:	88060000 	stmdahi	r6, {}	; <UNPREDICTABLE>
    2d08:	06b81a02 	ldrteq	r1, [r8], r2, lsl #20
    2d0c:	18580000 	ldmdane	r8, {}^	; <UNPREDICTABLE>
    2d10:	000003d9 	ldrdeq	r0, [r0], -r9
    2d14:	16028906 	strne	r8, [r2], -r6, lsl #18
    2d18:	00000115 	andeq	r0, r0, r5, lsl r1
    2d1c:	05211868 	streq	r1, [r1, #-2152]!	; 0xfffff798
    2d20:	8a060000 	bhi	182d28 <__bss_end__+0x178cb8>
    2d24:	01151602 	tsteq	r5, r2, lsl #12
    2d28:	18700000 	ldmdane	r0!, {}^	; <UNPREDICTABLE>
    2d2c:	000002e1 	andeq	r0, r0, r1, ror #5
    2d30:	16028b06 	strne	r8, [r2], -r6, lsl #22
    2d34:	00000115 	andeq	r0, r0, r5, lsl r1
    2d38:	04d11878 	ldrbeq	r1, [r1], #2168	; 0x878
    2d3c:	8c060000 	stchi	0, cr0, [r6], {-0}
    2d40:	08261002 	stmdaeq	r6!, {r1, ip}
    2d44:	18800000 	stmne	r0, {}	; <UNPREDICTABLE>
    2d48:	0000024c 	andeq	r0, r0, ip, asr #4
    2d4c:	10028d06 	andne	r8, r2, r6, lsl #26
    2d50:	00000836 	andeq	r0, r0, r6, lsr r8
    2d54:	047f1888 	ldrbteq	r1, [pc], #-2184	; 2d5c <_start-0x52a4>
    2d58:	8e060000 	cdphi	0, 0, cr0, cr6, cr0, {0}
    2d5c:	00250f02 	eoreq	r0, r5, r2, lsl #30
    2d60:	18a00000 	stmiane	r0!, {}	; <UNPREDICTABLE>
    2d64:	0000018c 	andeq	r0, r0, ip, lsl #3
    2d68:	16028f06 	strne	r8, [r2], -r6, lsl #30
    2d6c:	00000115 	andeq	r0, r0, r5, lsl r1
    2d70:	009d18a4 	addseq	r1, sp, r4, lsr #17
    2d74:	90060000 	andls	r0, r6, r0
    2d78:	01151602 	tsteq	r5, r2, lsl #12
    2d7c:	18ac0000 	stmiane	ip!, {}	; <UNPREDICTABLE>
    2d80:	0000017b 	andeq	r0, r0, fp, ror r1
    2d84:	16029106 	strne	r9, [r2], -r6, lsl #2
    2d88:	00000115 	andeq	r0, r0, r5, lsl r1
    2d8c:	004a18b4 	strheq	r1, [sl], #-132	; 0xffffff7c
    2d90:	92060000 	andls	r0, r6, #0
    2d94:	01151602 	tsteq	r5, r2, lsl #12
    2d98:	18bc0000 	ldmne	ip!, {}	; <UNPREDICTABLE>
    2d9c:	00000059 	andeq	r0, r0, r9, asr r0
    2da0:	16029306 	strne	r9, [r2], -r6, lsl #6
    2da4:	00000115 	andeq	r0, r0, r5, lsl r1
    2da8:	038118c4 	orreq	r1, r1, #196, 16	; 0xc40000
    2dac:	94060000 	strls	r0, [r6], #-0
    2db0:	00250802 	eoreq	r0, r5, r2, lsl #16
    2db4:	00cc0000 	sbceq	r0, ip, r0
    2db8:	0001350a 	andeq	r3, r1, sl, lsl #10
    2dbc:	00082600 	andeq	r2, r8, r0, lsl #12
    2dc0:	002c0b00 	eoreq	r0, ip, r0, lsl #22
    2dc4:	00190000 	andseq	r0, r9, r0
    2dc8:	0001350a 	andeq	r3, r1, sl, lsl #10
    2dcc:	00083600 	andeq	r3, r8, r0, lsl #12
    2dd0:	002c0b00 	eoreq	r0, ip, r0, lsl #22
    2dd4:	00070000 	andeq	r0, r7, r0
    2dd8:	0001350a 	andeq	r3, r1, sl, lsl #10
    2ddc:	00084600 	andeq	r4, r8, r0, lsl #12
    2de0:	002c0b00 	eoreq	r0, ip, r0, lsl #22
    2de4:	00170000 	andseq	r0, r7, r0
    2de8:	9906f01b 	stmdbls	r6, {r0, r1, r3, r4, ip, sp, lr, pc}
    2dec:	086d0702 	stmdaeq	sp!, {r1, r8, r9, sl}^
    2df0:	ad180000 	ldcge	0, cr0, [r8, #-0]
    2df4:	06000002 	streq	r0, [r0], -r2
    2df8:	6d1b029c 	lfmvs	f0, 4, [fp, #-624]	; 0xfffffd90
    2dfc:	00000008 	andeq	r0, r0, r8
    2e00:	0004c818 	andeq	ip, r4, r8, lsl r8
    2e04:	029d0600 	addseq	r0, sp, #0, 12
    2e08:	00087d18 	andeq	r7, r8, r8, lsl sp
    2e0c:	0a007800 	beq	20e14 <__bss_end__+0x16da4>
    2e10:	0000031d 	andeq	r0, r0, sp, lsl r3
    2e14:	0000087d 	andeq	r0, r0, sp, ror r8
    2e18:	00002c0b 	andeq	r2, r0, fp, lsl #24
    2e1c:	0a001d00 	beq	a224 <__bss_end__+0x1b4>
    2e20:	0000002c 	andeq	r0, r0, ip, lsr #32
    2e24:	0000088d 	andeq	r0, r0, sp, lsl #17
    2e28:	00002c0b 	andeq	r2, r0, fp, lsl #24
    2e2c:	1c001d00 	stcne	13, cr1, [r0], {-0}
    2e30:	027e06f0 	rsbseq	r0, lr, #240, 12	; 0xf000000
    2e34:	0008b203 	andeq	fp, r8, r3, lsl #4
    2e38:	041b1d00 	ldreq	r1, [fp], #-3328	; 0xfffff300
    2e3c:	95060000 	strls	r0, [r6, #-0]
    2e40:	07010b02 	streq	r0, [r1, -r2, lsl #22]
    2e44:	f31d0000 	vhadd.u16	d0, d13, d0
    2e48:	06000004 	streq	r0, [r0], -r4
    2e4c:	460b029e 			; <UNDEFINED> instruction: 0x460b029e
    2e50:	00000008 	andeq	r0, r0, r8
    2e54:	0001350a 	andeq	r3, r1, sl, lsl #10
    2e58:	0008c200 	andeq	ip, r8, r0, lsl #4
    2e5c:	002c0b00 	eoreq	r0, ip, r0, lsl #22
    2e60:	00180000 	andseq	r0, r8, r0
    2e64:	00009206 	andeq	r9, r0, r6, lsl #4
    2e68:	c2040500 	andgt	r0, r4, #0, 10
    2e6c:	1e000008 	cdpne	0, 0, cr0, cr0, cr8, {0}
    2e70:	000008d8 	ldrdeq	r0, [r0], -r8
    2e74:	00048416 	andeq	r8, r4, r6, lsl r4
    2e78:	04050000 	streq	r0, [r5], #-0
    2e7c:	000008cd 	andeq	r0, r0, sp, asr #17
    2e80:	01a70405 			; <UNDEFINED> instruction: 0x01a70405
    2e84:	ef1e0000 	svc	0x001e0000
    2e88:	16000008 	strne	r0, [r0], -r8
    2e8c:	00000025 	andeq	r0, r0, r5, lsr #32
    2e90:	f5040500 			; <UNDEFINED> instruction: 0xf5040500
    2e94:	05000008 	streq	r0, [r0, #-8]
    2e98:	0008e404 	andeq	lr, r8, r4, lsl #8
    2e9c:	06660a00 	strbteq	r0, [r6], -r0, lsl #20
    2ea0:	090b0000 	stmdbeq	fp, {}	; <UNPREDICTABLE>
    2ea4:	2c0b0000 	stccs	0, cr0, [fp], {-0}
    2ea8:	02000000 	andeq	r0, r0, #0
    2eac:	04931f00 	ldreq	r1, [r3], #3840	; 0xf00
    2eb0:	2e060000 	cdpcs	0, 0, cr0, cr6, cr0, {0}
    2eb4:	04841703 	streq	r1, [r4], #1795	; 0x703
    2eb8:	8c1f0000 	ldchi	0, cr0, [pc], {-0}
    2ebc:	06000004 	streq	r0, [r0], -r4
    2ec0:	8a1d032f 	bhi	743b84 <__bss_end__+0x739b14>
    2ec4:	15000004 	strne	r0, [r0, #-4]
    2ec8:	00000025 	andeq	r0, r0, r5, lsr #32
    2ecc:	00000934 	andeq	r0, r0, r4, lsr r9
    2ed0:	00002516 	andeq	r2, r0, r6, lsl r5
    2ed4:	df200000 	svcle	0x00200000
    2ed8:	07000001 	streq	r0, [r0, -r1]
    2edc:	09400e1d 	stmdbeq	r0, {r0, r2, r3, r4, r9, sl, fp}^
    2ee0:	04050000 	streq	r0, [r5], #-0
    2ee4:	00000925 	andeq	r0, r0, r5, lsr #18
    2ee8:	00002515 	andeq	r2, r0, r5, lsl r5
    2eec:	00095500 	andeq	r5, r9, r0, lsl #10
    2ef0:	05fc1600 	ldrbeq	r1, [ip, #1536]!	; 0x600
    2ef4:	20000000 	andcs	r0, r0, r0
    2ef8:	00000786 	andeq	r0, r0, r6, lsl #15
    2efc:	610e2207 	tstvs	lr, r7, lsl #4
    2f00:	05000009 	streq	r0, [r0, #-9]
    2f04:	00094604 	andeq	r4, r9, r4, lsl #12
    2f08:	055f2100 	ldrbeq	r2, [pc, #-256]	; 2e10 <_start-0x51f0>
    2f0c:	0f010000 	svceq	0x00010000
    2f10:	0000690a 	andeq	r6, r0, sl, lsl #18
    2f14:	0089b800 	addeq	fp, r9, r0, lsl #16
    2f18:	0000ec00 	andeq	lr, r0, r0, lsl #24
    2f1c:	fa9c0100 	blx	fe703324 <__bss_end__+0xfe6f92b4>
    2f20:	22000009 	andcs	r0, r0, #9
    2f24:	00000ae3 	andeq	r0, r0, r3, ror #21
    2f28:	fa210f01 	blx	846b34 <__bss_end__+0x83cac4>
    2f2c:	1f000009 	svcne	0x00000009
    2f30:	17000009 	strne	r0, [r0, -r9]
    2f34:	23000009 	movwcs	r0, #9
    2f38:	006e656c 	rsbeq	r6, lr, ip, ror #10
    2f3c:	252c0f01 	strcs	r0, [ip, #-3841]!	; 0xfffff0ff
    2f40:	63000000 	movwvs	r0, #0
    2f44:	59000009 	stmdbpl	r0, {r0, r3}
    2f48:	24000009 	strcs	r0, [r0], #-9
    2f4c:	00000ae4 	andeq	r0, r0, r4, ror #21
    2f50:	fc121001 	ldc2	0, cr1, [r2], {1}
    2f54:	aa000005 	bge	2f70 <_start-0x5090>
    2f58:	a2000009 	andge	r0, r0, #9
    2f5c:	24000009 	strcs	r0, [r0], #-9
    2f60:	00000564 	andeq	r0, r0, r4, ror #10
    2f64:	690a1101 	stmdbvs	sl, {r0, r8, ip}
    2f68:	ef000000 	svc	0x00000000
    2f6c:	e1000009 	tst	r0, r9
    2f70:	25000009 	strcs	r0, [r0, #-9]
    2f74:	00706d74 	rsbseq	r6, r0, r4, ror sp
    2f78:	69161101 	ldmdbvs	r6, {r0, r8, ip}
    2f7c:	4a000000 	bmi	2f84 <_start-0x507c>
    2f80:	4400000a 	strmi	r0, [r0], #-10
    2f84:	2500000a 	strcs	r0, [r0, #-10]
    2f88:	006d6572 	rsbeq	r6, sp, r2, ror r5
    2f8c:	25051201 	strcs	r1, [r5, #-513]	; 0xfffffdff
    2f90:	97000000 	strls	r0, [r0, -r0]
    2f94:	9500000a 	strls	r0, [r0, #-10]
    2f98:	0000000a 	andeq	r0, r0, sl
    2f9c:	0a000405 	beq	3fb8 <_start-0x4048>
    2fa0:	00260000 	eoreq	r0, r6, r0
    2fa4:	0000097c 	andeq	r0, r0, ip, ror r9
    2fa8:	07e80004 	strbeq	r0, [r8, r4]!
    2fac:	01040000 	mrseq	r0, (UNDEF: 4)
    2fb0:	00000302 	andeq	r0, r0, r2, lsl #6
    2fb4:	0007020c 	andeq	r0, r7, ip, lsl #4
    2fb8:	0006df00 	andeq	sp, r6, r0, lsl #30
    2fbc:	008aa400 	addeq	sl, sl, r0, lsl #8
    2fc0:	00001800 	andeq	r1, r0, r0, lsl #16
    2fc4:	000b1700 	andeq	r1, fp, r0, lsl #14
    2fc8:	05040200 	streq	r0, [r4, #-512]	; 0xfffffe00
    2fcc:	00746e69 	rsbseq	r6, r4, r9, ror #28
    2fd0:	0006fb03 	andeq	pc, r6, r3, lsl #22
    2fd4:	17d10200 	ldrbne	r0, [r1, r0, lsl #4]
    2fd8:	00000038 	andeq	r0, r0, r8, lsr r0
    2fdc:	74070404 	strvc	r0, [r7], #-1028	; 0xfffffbfc
    2fe0:	04000000 	streq	r0, [r0], #-0
    2fe4:	02f10601 	rscseq	r0, r1, #1048576	; 0x100000
    2fe8:	01040000 	mrseq	r0, (UNDEF: 4)
    2fec:	0002ef08 	andeq	lr, r2, r8, lsl #30
    2ff0:	05020400 	streq	r0, [r2, #-1024]	; 0xfffffc00
    2ff4:	0000038a 	andeq	r0, r0, sl, lsl #7
    2ff8:	30070204 	andcc	r0, r7, r4, lsl #4
    2ffc:	04000002 	streq	r0, [r0], #-2
    3000:	00ba0504 	adcseq	r0, sl, r4, lsl #10
    3004:	04040000 	streq	r0, [r4], #-0
    3008:	00006f07 	andeq	r6, r0, r7, lsl #30
    300c:	05080400 	streq	r0, [r8, #-1024]	; 0xfffffc00
    3010:	000000b5 	strheq	r0, [r0], -r5
    3014:	6a070804 	bvs	1c502c <__bss_end__+0x1bafbc>
    3018:	03000000 	movweq	r0, #0
    301c:	00000273 	andeq	r0, r0, r3, ror r2
    3020:	83192203 	tsthi	r9, #805306368	; 0x30000000
    3024:	05000000 	streq	r0, [r0, #-0]
    3028:	00008904 	andeq	r8, r0, r4, lsl #18
    302c:	04300600 	ldrteq	r0, [r0], #-1536	; 0xfffffa00
    3030:	d0030000 	andle	r0, r3, r0
    3034:	04000002 	streq	r0, [r0], #-2
    3038:	005b0e2c 	subseq	r0, fp, ip, lsr #28
    303c:	45030000 	strmi	r0, [r3, #-0]
    3040:	04000004 	streq	r0, [r0], #-4
    3044:	005b0e72 	subseq	r0, fp, r2, ror lr
    3048:	7b070000 	blvc	1c3050 <__bss_end__+0x1b8fe0>
    304c:	02000002 	andeq	r0, r0, #2
    3050:	3817015e 	ldmdacc	r7, {r1, r2, r3, r4, r6, r8}
    3054:	08000000 	stmdaeq	r0, {}	; <UNPREDICTABLE>
    3058:	03a60404 			; <UNDEFINED> instruction: 0x03a60404
    305c:	000000d5 	ldrdeq	r0, [r0], -r5
    3060:	00026d09 	andeq	r6, r2, r9, lsl #26
    3064:	0ca80400 	cfstrseq	mvf0, [r8]
    3068:	000000a6 	andeq	r0, r0, r6, lsr #1
    306c:	0001f009 	andeq	pc, r1, r9
    3070:	13a90400 			; <UNDEFINED> instruction: 0x13a90400
    3074:	000000d5 	ldrdeq	r0, [r0], -r5
    3078:	00460a00 	subeq	r0, r6, r0, lsl #20
    307c:	00e50000 	rsceq	r0, r5, r0
    3080:	380b0000 	stmdacc	fp, {}	; <UNPREDICTABLE>
    3084:	03000000 	movweq	r0, #0
    3088:	04080c00 	streq	r0, [r8], #-3072	; 0xfffff400
    308c:	010909a3 	smlatbeq	r9, r3, r9, r0
    3090:	280d0000 	stmdacs	sp, {}	; <UNPREDICTABLE>
    3094:	04000004 	streq	r0, [r0], #-4
    3098:	002507a5 	eoreq	r0, r5, r5, lsr #15
    309c:	0d000000 	stceq	0, cr0, [r0, #-0]
    30a0:	00000437 	andeq	r0, r0, r7, lsr r4
    30a4:	b305aa04 	movwlt	sl, #23044	; 0x5a04
    30a8:	04000000 	streq	r0, [r0], #-0
    30ac:	03b20300 			; <UNDEFINED> instruction: 0x03b20300
    30b0:	ab040000 	blge	1030b8 <__bss_end__+0xf9048>
    30b4:	0000e503 	andeq	lr, r0, r3, lsl #10
    30b8:	01ad0300 			; <UNDEFINED> instruction: 0x01ad0300
    30bc:	af040000 	svcge	0x00040000
    30c0:	0000771b 	andeq	r7, r0, fp, lsl r7
    30c4:	05040e00 	streq	r0, [r4, #-3584]	; 0xfffff200
    30c8:	00012904 	andeq	r2, r1, r4, lsl #18
    30cc:	08010400 	stmdaeq	r1, {sl}
    30d0:	000002f8 	strdeq	r0, [r0], -r8
    30d4:	0001290f 	andeq	r2, r1, pc, lsl #18
    30d8:	04770300 	ldrbteq	r0, [r7], #-768	; 0xfffffd00
    30dc:	16050000 	strne	r0, [r5], -r0
    30e0:	00006219 	andeq	r6, r0, r9, lsl r2
    30e4:	01be1000 			; <UNDEFINED> instruction: 0x01be1000
    30e8:	05180000 	ldreq	r0, [r8, #-0]
    30ec:	019b082f 	orrseq	r0, fp, pc, lsr #16
    30f0:	d30d0000 	movwle	r0, #53248	; 0xd000
    30f4:	05000003 	streq	r0, [r0, #-3]
    30f8:	019b1331 	orrseq	r1, fp, r1, lsr r3
    30fc:	11000000 	mrsne	r0, (UNDEF: 0)
    3100:	05006b5f 	streq	r6, [r0, #-2911]	; 0xfffff4a1
    3104:	00250732 	eoreq	r0, r5, r2, lsr r7
    3108:	0d040000 	stceq	0, cr0, [r4, #-0]
    310c:	00000413 	andeq	r0, r0, r3, lsl r4
    3110:	250b3205 	strcs	r3, [fp, #-517]	; 0xfffffdfb
    3114:	08000000 	stmdaeq	r0, {}	; <UNPREDICTABLE>
    3118:	0001a70d 	andeq	sl, r1, sp, lsl #14
    311c:	14320500 	ldrtne	r0, [r2], #-1280	; 0xfffffb00
    3120:	00000025 	andeq	r0, r0, r5, lsr #32
    3124:	04b30d0c 	ldrteq	r0, [r3], #3340	; 0xd0c
    3128:	32050000 	andcc	r0, r5, #0
    312c:	0000251b 	andeq	r2, r0, fp, lsl r5
    3130:	5f111000 	svcpl	0x00111000
    3134:	33050078 	movwcc	r0, #20600	; 0x5078
    3138:	0001a10b 	andeq	sl, r1, fp, lsl #2
    313c:	05001400 	streq	r1, [r0, #-1024]	; 0xfffffc00
    3140:	00014104 	andeq	r4, r1, r4, lsl #2
    3144:	01350a00 	teqeq	r5, r0, lsl #20
    3148:	01b10000 			; <UNDEFINED> instruction: 0x01b10000
    314c:	380b0000 	stmdacc	fp, {}	; <UNPREDICTABLE>
    3150:	00000000 	andeq	r0, r0, r0
    3154:	01eb1000 	mvneq	r1, r0
    3158:	05240000 	streq	r0, [r4, #-0]!
    315c:	02340837 	eorseq	r0, r4, #3604480	; 0x370000
    3160:	ac0d0000 	stcge	0, cr0, [sp], {-0}
    3164:	05000000 	streq	r0, [r0, #-0]
    3168:	00250939 	eoreq	r0, r5, r9, lsr r9
    316c:	0d000000 	stceq	0, cr0, [r0, #-0]
    3170:	0000044d 	andeq	r0, r0, sp, asr #8
    3174:	25093a05 	strcs	r3, [r9, #-2565]	; 0xfffff5fb
    3178:	04000000 	streq	r0, [r0], #-0
    317c:	0000cf0d 	andeq	ip, r0, sp, lsl #30
    3180:	093b0500 	ldmdbeq	fp!, {r8, sl}
    3184:	00000025 	andeq	r0, r0, r5, lsr #32
    3188:	05340d08 	ldreq	r0, [r4, #-3336]!	; 0xfffff2f8
    318c:	3c050000 	stccc	0, cr0, [r5], {-0}
    3190:	00002509 	andeq	r2, r0, r9, lsl #10
    3194:	b40d0c00 	strlt	r0, [sp], #-3072	; 0xfffff400
    3198:	05000002 	streq	r0, [r0, #-2]
    319c:	0025093d 	eoreq	r0, r5, sp, lsr r9
    31a0:	0d100000 	ldceq	0, cr0, [r0, #-0]
    31a4:	00000296 	muleq	r0, r6, r2
    31a8:	25093e05 	strcs	r3, [r9, #-3589]	; 0xfffff1fb
    31ac:	14000000 	strne	r0, [r0], #-0
    31b0:	0004b80d 	andeq	fp, r4, sp, lsl #16
    31b4:	093f0500 	ldmdbeq	pc!, {r8, sl}	; <UNPREDICTABLE>
    31b8:	00000025 	andeq	r0, r0, r5, lsr #32
    31bc:	03940d18 	orrseq	r0, r4, #24, 26	; 0x600
    31c0:	40050000 	andmi	r0, r5, r0
    31c4:	00002509 	andeq	r2, r0, r9, lsl #10
    31c8:	fb0d1c00 	blx	34a1d2 <__bss_end__+0x340162>
    31cc:	05000004 	streq	r0, [r0, #-4]
    31d0:	00250941 	eoreq	r0, r5, r1, asr #18
    31d4:	00200000 	eoreq	r0, r0, r0
    31d8:	00010f12 	andeq	r0, r1, r2, lsl pc
    31dc:	05010800 	streq	r0, [r1, #-2048]	; 0xfffff800
    31e0:	0279084a 	rsbseq	r0, r9, #4849664	; 0x4a0000
    31e4:	9a0d0000 	bls	3431ec <__bss_end__+0x33917c>
    31e8:	05000001 	streq	r0, [r0, #-1]
    31ec:	02790a4b 	rsbseq	r0, r9, #307200	; 0x4b000
    31f0:	0d000000 	stceq	0, cr0, [r0, #-0]
    31f4:	00000000 	andeq	r0, r0, r0
    31f8:	79094c05 	stmdbvc	r9, {r0, r2, sl, fp, lr}
    31fc:	80000002 	andhi	r0, r0, r2
    3200:	00046913 	andeq	r6, r4, r3, lsl r9
    3204:	0a4e0500 	beq	138460c <__bss_end__+0x137a59c>
    3208:	00000135 	andeq	r0, r0, r5, lsr r1
    320c:	34130100 	ldrcc	r0, [r3], #-256	; 0xffffff00
    3210:	05000001 	streq	r0, [r0, #-1]
    3214:	01350a51 	teqeq	r5, r1, asr sl
    3218:	01040000 	mrseq	r0, (UNDEF: 4)
    321c:	01210a00 			; <UNDEFINED> instruction: 0x01210a00
    3220:	02890000 	addeq	r0, r9, #0
    3224:	380b0000 	stmdacc	fp, {}	; <UNPREDICTABLE>
    3228:	1f000000 	svcne	0x00000000
    322c:	02bd1200 	adcseq	r1, sp, #0, 4
    3230:	01900000 	orrseq	r0, r0, r0
    3234:	cc085d05 	stcgt	13, cr5, [r8], {5}
    3238:	0d000002 	stceq	0, cr0, [r0, #-8]
    323c:	000003d3 	ldrdeq	r0, [r0], -r3
    3240:	cc125e05 	ldcgt	14, cr5, [r2], {5}
    3244:	00000002 	andeq	r0, r0, r2
    3248:	0003eb0d 	andeq	lr, r3, sp, lsl #22
    324c:	065f0500 	ldrbeq	r0, [pc], -r0, lsl #10
    3250:	00000025 	andeq	r0, r0, r5, lsr #32
    3254:	01a20d04 			; <UNDEFINED> instruction: 0x01a20d04
    3258:	61050000 	mrsvs	r0, (UNDEF: 5)
    325c:	0002d209 	andeq	sp, r2, r9, lsl #4
    3260:	0f0d0800 	svceq	0x000d0800
    3264:	05000001 	streq	r0, [r0, #-1]
    3268:	02341e62 	eorseq	r1, r4, #1568	; 0x620
    326c:	00880000 	addeq	r0, r8, r0
    3270:	02890405 	addeq	r0, r9, #83886080	; 0x5000000
    3274:	e20a0000 	and	r0, sl, #0
    3278:	e2000002 	and	r0, r0, #2
    327c:	0b000002 	bleq	328c <_start-0x4d74>
    3280:	00000038 	andeq	r0, r0, r8, lsr r0
    3284:	0405001f 	streq	r0, [r5], #-31	; 0xffffffe1
    3288:	000002e8 	andeq	r0, r0, r8, ror #5
    328c:	039e1014 	orrseq	r1, lr, #20
    3290:	05080000 	streq	r0, [r8, #-0]
    3294:	03110875 	tsteq	r1, #7667712	; 0x750000
    3298:	c90d0000 	stmdbgt	sp, {}	; <UNPREDICTABLE>
    329c:	05000000 	streq	r0, [r0, #-0]
    32a0:	03111176 	tsteq	r1, #-2147483619	; 0x8000001d
    32a4:	0d000000 	stceq	0, cr0, [r0, #-0]
    32a8:	0000001b 	andeq	r0, r0, fp, lsl r0
    32ac:	25067705 	strcs	r7, [r6, #-1797]	; 0xfffff8fb
    32b0:	04000000 	streq	r0, [r0], #-0
    32b4:	46040500 	strmi	r0, [r4], -r0, lsl #10
    32b8:	10000000 	andne	r0, r0, r0
    32bc:	000003bd 			; <UNDEFINED> instruction: 0x000003bd
    32c0:	08b50568 	ldmeq	r5!, {r3, r5, r6, r8, sl}
    32c4:	0000045a 	andeq	r0, r0, sl, asr r4
    32c8:	00705f11 	rsbseq	r5, r0, r1, lsl pc
    32cc:	1112b605 	tstne	r2, r5, lsl #12
    32d0:	00000003 	andeq	r0, r0, r3
    32d4:	00725f11 	rsbseq	r5, r2, r1, lsl pc
    32d8:	2507b705 	strcs	fp, [r7, #-1797]	; 0xfffff8fb
    32dc:	04000000 	streq	r0, [r0], #-0
    32e0:	00775f11 	rsbseq	r5, r7, r1, lsl pc
    32e4:	2507b805 	strcs	fp, [r7, #-2053]	; 0xfffff7fb
    32e8:	08000000 	stmdaeq	r0, {}	; <UNPREDICTABLE>
    32ec:	00012d0d 	andeq	r2, r1, sp, lsl #26
    32f0:	09b90500 	ldmibeq	r9!, {r8, sl}
    32f4:	0000004d 	andeq	r0, r0, sp, asr #32
    32f8:	02160d0c 	andseq	r0, r6, #12, 26	; 0x300
    32fc:	ba050000 	blt	143304 <__bss_end__+0x139294>
    3300:	00004d09 	andeq	r4, r0, r9, lsl #26
    3304:	5f110e00 	svcpl	0x00110e00
    3308:	05006662 	streq	r6, [r0, #-1634]	; 0xfffff99e
    330c:	02e911bb 	rsceq	r1, r9, #-1073741778	; 0xc000002e
    3310:	0d100000 	ldceq	0, cr0, [r0, #-0]
    3314:	00000089 	andeq	r0, r0, r9, lsl #1
    3318:	2507bc05 	strcs	fp, [r7, #-3077]	; 0xfffff3fb
    331c:	18000000 	stmdane	r0, {}	; <UNPREDICTABLE>
    3320:	00011d0d 	andeq	r1, r1, sp, lsl #26
    3324:	0ac30500 	beq	ff0c472c <__bss_end__+0xff0ba6bc>
    3328:	00000121 	andeq	r0, r0, r1, lsr #2
    332c:	0b420d1c 	bleq	10867a4 <__bss_end__+0x107c734>
    3330:	c5050000 	strgt	r0, [r5, #-0]
    3334:	0005cc1d 	andeq	ip, r5, sp, lsl ip
    3338:	370d2000 	strcc	r2, [sp, -r0]
    333c:	05000006 	streq	r0, [r0, #-6]
    3340:	05f61dc7 	ldrbeq	r1, [r6, #3527]!	; 0xdc7
    3344:	0d240000 	stceq	0, cr0, [r4, #-0]
    3348:	0000043f 	andeq	r0, r0, pc, lsr r4
    334c:	1a0dca05 	bne	375b68 <__bss_end__+0x36baf8>
    3350:	28000006 	stmdacs	r0, {r1, r2}
    3354:	0005150d 	andeq	r1, r5, sp, lsl #10
    3358:	09cb0500 	stmibeq	fp, {r8, sl}^
    335c:	00000634 	andeq	r0, r0, r4, lsr r6
    3360:	755f112c 	ldrbvc	r1, [pc, #-300]	; 323c <_start-0x4dc4>
    3364:	ce050062 	cdpgt	0, 0, cr0, cr5, cr2, {3}
    3368:	0002e911 	andeq	lr, r2, r1, lsl r9
    336c:	5f113000 	svcpl	0x00113000
    3370:	05007075 	streq	r7, [r0, #-117]	; 0xffffff8b
    3374:	031112cf 	tsteq	r1, #-268435444	; 0xf000000c
    3378:	11380000 	teqne	r8, r0
    337c:	0072755f 	rsbseq	r7, r2, pc, asr r5
    3380:	2507d005 	strcs	sp, [r7, #-5]
    3384:	3c000000 	stccc	0, cr0, [r0], {-0}
    3388:	0000c30d 	andeq	ip, r0, sp, lsl #6
    338c:	11d30500 	bicsne	r0, r3, r0, lsl #10
    3390:	0000063a 	andeq	r0, r0, sl, lsr r6
    3394:	04ed0d40 	strbteq	r0, [sp], #3392	; 0xd40
    3398:	d4050000 	strle	r0, [r5], #-0
    339c:	00064a11 	andeq	r4, r6, r1, lsl sl
    33a0:	5f114300 	svcpl	0x00114300
    33a4:	0500626c 	streq	r6, [r0, #-620]	; 0xfffffd94
    33a8:	02e911d7 	rsceq	r1, r9, #-1073741771	; 0xc0000035
    33ac:	0d440000 	stcleq	0, cr0, [r4, #-0]
    33b0:	0000014b 	andeq	r0, r0, fp, asr #2
    33b4:	2507da05 	strcs	sp, [r7, #-2565]	; 0xfffff5fb
    33b8:	4c000000 	stcmi	0, cr0, [r0], {-0}
    33bc:	00015c0d 	andeq	r5, r1, sp, lsl #24
    33c0:	0adb0500 	beq	ff6c47c8 <__bss_end__+0xff6ba758>
    33c4:	0000008e 	andeq	r0, r0, lr, lsl #1
    33c8:	0ae30d50 	beq	ff8c6910 <__bss_end__+0xff8bc8a0>
    33cc:	de050000 	cdple	0, 0, cr0, cr5, cr0, {0}
    33d0:	00047812 	andeq	r7, r4, r2, lsl r8
    33d4:	310d5400 	tstcc	sp, r0, lsl #8
    33d8:	05000004 	streq	r0, [r0, #-4]
    33dc:	01150ce2 	tsteq	r5, r2, ror #25
    33e0:	0d580000 	ldcleq	0, cr0, [r8, #-0]
    33e4:	000003c5 	andeq	r0, r0, r5, asr #7
    33e8:	090ee405 	stmdbeq	lr, {r0, r2, sl, sp, lr, pc}
    33ec:	5c000001 	stcpl	0, cr0, [r0], {1}
    33f0:	00028e0d 	andeq	r8, r2, sp, lsl #28
    33f4:	09e50500 	stmibeq	r5!, {r8, sl}^
    33f8:	00000025 	andeq	r0, r0, r5, lsr #32
    33fc:	25150064 	ldrcs	r0, [r5, #-100]	; 0xffffff9c
    3400:	78000000 	stmdavc	r0, {}	; <UNPREDICTABLE>
    3404:	16000004 	strne	r0, [r0], -r4
    3408:	00000478 	andeq	r0, r0, r8, ror r4
    340c:	00012116 	andeq	r2, r1, r6, lsl r1
    3410:	01231600 			; <UNDEFINED> instruction: 0x01231600
    3414:	25160000 	ldrcs	r0, [r6, #-0]
    3418:	00000000 	andeq	r0, r0, r0
    341c:	04830405 	streq	r0, [r3], #1029	; 0x405
    3420:	780f0000 	stmdavc	pc, {}	; <UNPREDICTABLE>
    3424:	17000004 	strne	r0, [r0, -r4]
    3428:	0000041b 	andeq	r0, r0, fp, lsl r4
    342c:	60050428 	andvs	r0, r5, r8, lsr #8
    3430:	05cc0802 	strbeq	r0, [ip, #2050]	; 0x802
    3434:	83180000 	tsthi	r8, #0
    3438:	05000003 	streq	r0, [r0, #-3]
    343c:	25070262 	strcs	r0, [r7, #-610]	; 0xfffffd9e
    3440:	00000000 	andeq	r0, r0, r0
    3444:	00013c18 	andeq	r3, r1, r8, lsl ip
    3448:	02670500 	rsbeq	r0, r7, #0, 10
    344c:	0006a60b 	andeq	sl, r6, fp, lsl #12
    3450:	06180400 	ldreq	r0, [r8], -r0, lsl #8
    3454:	05000002 	streq	r0, [r0, #-2]
    3458:	a6140267 	ldrge	r0, [r4], -r7, ror #4
    345c:	08000006 	stmdaeq	r0, {r1, r2}
    3460:	0001b618 	andeq	fp, r1, r8, lsl r6
    3464:	02670500 	rsbeq	r0, r7, #0, 10
    3468:	0006a61e 	andeq	sl, r6, lr, lsl r6
    346c:	e6180c00 	ldr	r0, [r8], -r0, lsl #24
    3470:	05000003 	streq	r0, [r0, #-3]
    3474:	25080269 	strcs	r0, [r8, #-617]	; 0xfffffd97
    3478:	10000000 	andne	r0, r0, r0
    347c:	00003718 	andeq	r3, r0, r8, lsl r7
    3480:	026a0500 	rsbeq	r0, sl, #0, 10
    3484:	0008a608 	andeq	sl, r8, r8, lsl #12
    3488:	fa181400 	blx	608490 <__bss_end__+0x5fe420>
    348c:	05000003 	streq	r0, [r0, #-3]
    3490:	2507026d 	strcs	r0, [r7, #-621]	; 0xfffffd93
    3494:	30000000 	andcc	r0, r0, r0
    3498:	000a1f18 	andeq	r1, sl, r8, lsl pc
    349c:	026e0500 	rsbeq	r0, lr, #0, 10
    34a0:	0008bb16 	andeq	fp, r8, r6, lsl fp
    34a4:	c5183400 	ldrgt	r3, [r8, #-1024]	; 0xfffffc00
    34a8:	05000002 	streq	r0, [r0, #-2]
    34ac:	25070270 	strcs	r0, [r7, #-624]	; 0xfffffd90
    34b0:	38000000 	stmdacc	r0, {}	; <UNPREDICTABLE>
    34b4:	0003f018 	andeq	pc, r3, r8, lsl r0	; <UNPREDICTABLE>
    34b8:	02720500 	rsbseq	r0, r2, #0, 10
    34bc:	0008cc0a 	andeq	ip, r8, sl, lsl #24
    34c0:	65183c00 	ldrvs	r3, [r8, #-3072]	; 0xfffff400
    34c4:	05000002 	streq	r0, [r0, #-2]
    34c8:	9b130275 	blls	4c3ea4 <__bss_end__+0x4b9e34>
    34cc:	40000001 	andmi	r0, r0, r1
    34d0:	0001d518 	andeq	sp, r1, r8, lsl r5
    34d4:	02760500 	rsbseq	r0, r6, #0, 10
    34d8:	00002507 	andeq	r2, r0, r7, lsl #10
    34dc:	2f184400 	svccs	0x00184400
    34e0:	05000005 	streq	r0, [r0, #-5]
    34e4:	9b130277 	blls	4c3ec8 <__bss_end__+0x4b9e58>
    34e8:	48000001 	stmdami	r0, {r0}
    34ec:	0002d718 	andeq	sp, r2, r8, lsl r7
    34f0:	02780500 	rsbseq	r0, r8, #0, 10
    34f4:	0008d214 	andeq	sp, r8, r4, lsl r2
    34f8:	0e184c00 	cdpeq	12, 1, cr4, cr8, cr0, {0}
    34fc:	05000002 	streq	r0, [r0, #-2]
    3500:	2507027b 	strcs	r0, [r7, #-635]	; 0xfffffd85
    3504:	50000000 	andpl	r0, r0, r0
    3508:	00015418 	andeq	r5, r1, r8, lsl r4
    350c:	027c0500 	rsbseq	r0, ip, #0, 10
    3510:	00012309 	andeq	r2, r1, r9, lsl #6
    3514:	fd185400 	ldc2	4, cr5, [r8, #-0]
    3518:	05000002 	streq	r0, [r0, #-2]
    351c:	8107029f 			; <UNDEFINED> instruction: 0x8107029f
    3520:	58000008 	stmdapl	r0, {r3}
    3524:	0002bd19 	andeq	fp, r2, r9, lsl sp
    3528:	02a30500 	adceq	r0, r3, #0, 10
    352c:	0002cc13 	andeq	ip, r2, r3, lsl ip
    3530:	19014800 	stmdbne	r1, {fp, lr}
    3534:	00000243 	andeq	r0, r0, r3, asr #4
    3538:	1202a405 	andne	sl, r2, #83886080	; 0x5000000
    353c:	00000289 	andeq	r0, r0, r9, lsl #5
    3540:	db19014c 	blle	643a78 <__bss_end__+0x639a08>
    3544:	05000004 	streq	r0, [r0, #-4]
    3548:	e30c02a8 	movw	r0, #49832	; 0xc2a8
    354c:	dc000008 	stcle	0, cr0, [r0], {8}
    3550:	01251902 			; <UNDEFINED> instruction: 0x01251902
    3554:	ad050000 	stcge	0, cr0, [r5, #-0]
    3558:	06671002 	strbteq	r1, [r7], -r2
    355c:	02e00000 	rsceq	r0, r0, #0
    3560:	00010a19 	andeq	r0, r1, r9, lsl sl
    3564:	02af0500 	adceq	r0, pc, #0, 10
    3568:	0008ef0a 	andeq	lr, r8, sl, lsl #30
    356c:	0002ec00 	andeq	lr, r2, r0, lsl #24
    3570:	045a0405 	ldrbeq	r0, [sl], #-1029	; 0xfffffbfb
    3574:	25150000 	ldrcs	r0, [r5, #-0]
    3578:	f0000000 			; <UNDEFINED> instruction: 0xf0000000
    357c:	16000005 	strne	r0, [r0], -r5
    3580:	00000478 	andeq	r0, r0, r8, ror r4
    3584:	00012116 	andeq	r2, r1, r6, lsl r1
    3588:	05f01600 	ldrbeq	r1, [r0, #1536]!	; 0x600
    358c:	25160000 	ldrcs	r0, [r6, #-0]
    3590:	00000000 	andeq	r0, r0, r0
    3594:	01300405 	teqeq	r0, r5, lsl #8
    3598:	04050000 	streq	r0, [r5], #-0
    359c:	000005d2 	ldrdeq	r0, [r0], -r2
    35a0:	00009a15 	andeq	r9, r0, r5, lsl sl
    35a4:	00061a00 	andeq	r1, r6, r0, lsl #20
    35a8:	04781600 	ldrbteq	r1, [r8], #-1536	; 0xfffffa00
    35ac:	21160000 	tstcs	r6, r0
    35b0:	16000001 	strne	r0, [r0], -r1
    35b4:	0000009a 	muleq	r0, sl, r0
    35b8:	00002516 	andeq	r2, r0, r6, lsl r5
    35bc:	04050000 	streq	r0, [r5], #-0
    35c0:	000005fc 	strdeq	r0, [r0], -ip
    35c4:	00002515 	andeq	r2, r0, r5, lsl r5
    35c8:	00063400 	andeq	r3, r6, r0, lsl #8
    35cc:	04781600 	ldrbteq	r1, [r8], #-1536	; 0xfffffa00
    35d0:	21160000 	tstcs	r6, r0
    35d4:	00000001 	andeq	r0, r0, r1
    35d8:	06200405 	strteq	r0, [r0], -r5, lsl #8
    35dc:	460a0000 	strmi	r0, [sl], -r0
    35e0:	4a000000 	bmi	35e8 <_start-0x4a18>
    35e4:	0b000006 	bleq	3604 <_start-0x49fc>
    35e8:	00000038 	andeq	r0, r0, r8, lsr r0
    35ec:	460a0002 	strmi	r0, [sl], -r2
    35f0:	5a000000 	bpl	35f8 <_start-0x4a08>
    35f4:	0b000006 	bleq	3614 <_start-0x49ec>
    35f8:	00000038 	andeq	r0, r0, r8, lsr r0
    35fc:	ab070000 	blge	1c3604 <__bss_end__+0x1b9594>
    3600:	05000003 	streq	r0, [r0, #-3]
    3604:	171a011f 			; <UNDEFINED> instruction: 0x171a011f
    3608:	1a000003 	bne	361c <_start-0x49e4>
    360c:	000004c2 	andeq	r0, r0, r2, asr #9
    3610:	0123050c 			; <UNDEFINED> instruction: 0x0123050c
    3614:	0006a008 	andeq	sl, r6, r8
    3618:	03d31800 	bicseq	r1, r3, #0, 16
    361c:	25050000 	strcs	r0, [r5, #-0]
    3620:	06a01101 	strteq	r1, [r0], r1, lsl #2
    3624:	18000000 	stmdane	r0, {}	; <UNPREDICTABLE>
    3628:	00000229 	andeq	r0, r0, r9, lsr #4
    362c:	07012605 	streq	r2, [r1, -r5, lsl #12]
    3630:	00000025 	andeq	r0, r0, r5, lsr #32
    3634:	03a51804 			; <UNDEFINED> instruction: 0x03a51804
    3638:	27050000 	strcs	r0, [r5, -r0]
    363c:	06a60b01 	strteq	r0, [r6], r1, lsl #22
    3640:	00080000 	andeq	r0, r8, r0
    3644:	06670405 	strbteq	r0, [r7], -r5, lsl #8
    3648:	04050000 	streq	r0, [r5], #-0
    364c:	0000065a 	andeq	r0, r0, sl, asr r6
    3650:	00002f1a 	andeq	r2, r0, sl, lsl pc
    3654:	3f050e00 	svccc	0x00050e00
    3658:	06e50801 	strbteq	r0, [r5], r1, lsl #16
    365c:	22180000 	andscs	r0, r8, #0
    3660:	05000004 	streq	r0, [r0, #-4]
    3664:	e5120140 	ldr	r0, [r2, #-320]	; 0xfffffec0
    3668:	00000006 	andeq	r0, r0, r6
    366c:	00045618 	andeq	r5, r4, r8, lsl r6
    3670:	01410500 	cmpeq	r1, r0, lsl #10
    3674:	0006e512 	andeq	lr, r6, r2, lsl r5
    3678:	72180600 	andsvc	r0, r8, #0, 12
    367c:	05000004 	streq	r0, [r0, #-4]
    3680:	54120142 	ldrpl	r0, [r2], #-322	; 0xfffffebe
    3684:	0c000000 	stceq	0, cr0, [r0], {-0}
    3688:	00540a00 	subseq	r0, r4, r0, lsl #20
    368c:	06f50000 	ldrbteq	r0, [r5], r0
    3690:	380b0000 	stmdacc	fp, {}	; <UNPREDICTABLE>
    3694:	02000000 	andeq	r0, r0, #0
    3698:	05d01b00 	ldrbeq	r1, [r0, #2816]	; 0xb00
    369c:	0a070280 	beq	1c40a4 <__bss_end__+0x1ba034>
    36a0:	18000008 	stmdane	r0, {r3}
    36a4:	000004a6 	andeq	r0, r0, r6, lsr #9
    36a8:	18028205 	stmdane	r2, {r0, r2, r9, pc}
    36ac:	00000038 	andeq	r0, r0, r8, lsr r0
    36b0:	045c1800 	ldrbeq	r1, [ip], #-2048	; 0xfffff800
    36b4:	83050000 	movwhi	r0, #20480	; 0x5000
    36b8:	01231202 			; <UNDEFINED> instruction: 0x01231202
    36bc:	18040000 	stmdane	r4, {}	; <UNPREDICTABLE>
    36c0:	00000258 	andeq	r0, r0, r8, asr r2
    36c4:	10028405 	andne	r8, r2, r5, lsl #8
    36c8:	0000080a 	andeq	r0, r0, sl, lsl #16
    36cc:	05061808 	streq	r1, [r6, #-2056]	; 0xfffff7f8
    36d0:	85050000 	strhi	r0, [r5, #-0]
    36d4:	01b11702 			; <UNDEFINED> instruction: 0x01b11702
    36d8:	18240000 	stmdane	r4!, {}	; <UNPREDICTABLE>
    36dc:	000001c6 	andeq	r0, r0, r6, asr #3
    36e0:	0f028605 	svceq	0x00028605
    36e4:	00000025 	andeq	r0, r0, r5, lsr #32
    36e8:	03ce1848 	biceq	r1, lr, #72, 16	; 0x480000
    36ec:	87050000 	strhi	r0, [r5, -r0]
    36f0:	00702c02 	rsbseq	r2, r0, r2, lsl #24
    36f4:	18500000 	ldmdane	r0, {}^	; <UNPREDICTABLE>
    36f8:	0000051c 	andeq	r0, r0, ip, lsl r5
    36fc:	1a028805 	bne	a5718 <__bss_end__+0x9b6a8>
    3700:	000006ac 	andeq	r0, r0, ip, lsr #13
    3704:	03d91858 	bicseq	r1, r9, #88, 16	; 0x580000
    3708:	89050000 	stmdbhi	r5, {}	; <UNPREDICTABLE>
    370c:	01091602 	tsteq	r9, r2, lsl #12
    3710:	18680000 	stmdane	r8!, {}^	; <UNPREDICTABLE>
    3714:	00000521 	andeq	r0, r0, r1, lsr #10
    3718:	16028a05 	strne	r8, [r2], -r5, lsl #20
    371c:	00000109 	andeq	r0, r0, r9, lsl #2
    3720:	02e11870 	rsceq	r1, r1, #112, 16	; 0x700000
    3724:	8b050000 	blhi	14372c <__bss_end__+0x1396bc>
    3728:	01091602 	tsteq	r9, r2, lsl #12
    372c:	18780000 	ldmdane	r8!, {}^	; <UNPREDICTABLE>
    3730:	000004d1 	ldrdeq	r0, [r0], -r1
    3734:	10028c05 	andne	r8, r2, r5, lsl #24
    3738:	0000081a 	andeq	r0, r0, sl, lsl r8
    373c:	024c1880 	subeq	r1, ip, #128, 16	; 0x800000
    3740:	8d050000 	stchi	0, cr0, [r5, #-0]
    3744:	082a1002 	stmdaeq	sl!, {r1, ip}
    3748:	18880000 	stmne	r8, {}	; <UNPREDICTABLE>
    374c:	0000047f 	andeq	r0, r0, pc, ror r4
    3750:	0f028e05 	svceq	0x00028e05
    3754:	00000025 	andeq	r0, r0, r5, lsr #32
    3758:	018c18a0 	orreq	r1, ip, r0, lsr #17
    375c:	8f050000 	svchi	0x00050000
    3760:	01091602 	tsteq	r9, r2, lsl #12
    3764:	18a40000 	stmiane	r4!, {}	; <UNPREDICTABLE>
    3768:	0000009d 	muleq	r0, sp, r0
    376c:	16029005 	strne	r9, [r2], -r5
    3770:	00000109 	andeq	r0, r0, r9, lsl #2
    3774:	017b18ac 	cmneq	fp, ip, lsr #17
    3778:	91050000 	mrsls	r0, (UNDEF: 5)
    377c:	01091602 	tsteq	r9, r2, lsl #12
    3780:	18b40000 	ldmne	r4!, {}	; <UNPREDICTABLE>
    3784:	0000004a 	andeq	r0, r0, sl, asr #32
    3788:	16029205 	strne	r9, [r2], -r5, lsl #4
    378c:	00000109 	andeq	r0, r0, r9, lsl #2
    3790:	005918bc 	ldrheq	r1, [r9], #-140	; 0xffffff74
    3794:	93050000 	movwls	r0, #20480	; 0x5000
    3798:	01091602 	tsteq	r9, r2, lsl #12
    379c:	18c40000 	stmiane	r4, {}^	; <UNPREDICTABLE>
    37a0:	00000381 	andeq	r0, r0, r1, lsl #7
    37a4:	08029405 	stmdaeq	r2, {r0, r2, sl, ip, pc}
    37a8:	00000025 	andeq	r0, r0, r5, lsr #32
    37ac:	290a00cc 	stmdbcs	sl, {r2, r3, r6, r7}
    37b0:	1a000001 	bne	37bc <_start-0x4844>
    37b4:	0b000008 	bleq	37dc <_start-0x4824>
    37b8:	00000038 	andeq	r0, r0, r8, lsr r0
    37bc:	290a0019 	stmdbcs	sl, {r0, r3, r4}
    37c0:	2a000001 	bcs	37cc <_start-0x4834>
    37c4:	0b000008 	bleq	37ec <_start-0x4814>
    37c8:	00000038 	andeq	r0, r0, r8, lsr r0
    37cc:	290a0007 	stmdbcs	sl, {r0, r1, r2}
    37d0:	3a000001 	bcc	37dc <_start-0x4824>
    37d4:	0b000008 	bleq	37fc <_start-0x4804>
    37d8:	00000038 	andeq	r0, r0, r8, lsr r0
    37dc:	f01b0017 			; <UNDEFINED> instruction: 0xf01b0017
    37e0:	07029905 	streq	r9, [r2, -r5, lsl #18]
    37e4:	00000861 	andeq	r0, r0, r1, ror #16
    37e8:	0002ad18 	andeq	sl, r2, r8, lsl sp
    37ec:	029c0500 	addseq	r0, ip, #0, 10
    37f0:	0008611b 	andeq	r6, r8, fp, lsl r1
    37f4:	c8180000 	ldmdagt	r8, {}	; <UNPREDICTABLE>
    37f8:	05000004 	streq	r0, [r0, #-4]
    37fc:	7118029d 			; <UNDEFINED> instruction: 0x7118029d
    3800:	78000008 	stmdavc	r0, {r3}
    3804:	03110a00 	tsteq	r1, #0, 20
    3808:	08710000 	ldmdaeq	r1!, {}^	; <UNPREDICTABLE>
    380c:	380b0000 	stmdacc	fp, {}	; <UNPREDICTABLE>
    3810:	1d000000 	stcne	0, cr0, [r0, #-0]
    3814:	00380a00 	eorseq	r0, r8, r0, lsl #20
    3818:	08810000 	stmeq	r1, {}	; <UNPREDICTABLE>
    381c:	380b0000 	stmdacc	fp, {}	; <UNPREDICTABLE>
    3820:	1d000000 	stcne	0, cr0, [r0, #-0]
    3824:	05f01c00 	ldrbeq	r1, [r0, #3072]!	; 0xc00
    3828:	a603027e 			; <UNDEFINED> instruction: 0xa603027e
    382c:	1d000008 	stcne	0, cr0, [r0, #-32]	; 0xffffffe0
    3830:	0000041b 	andeq	r0, r0, fp, lsl r4
    3834:	0b029505 	bleq	a8c50 <__bss_end__+0x9ebe0>
    3838:	000006f5 	strdeq	r0, [r0], -r5
    383c:	0004f31d 	andeq	pc, r4, sp, lsl r3	; <UNPREDICTABLE>
    3840:	029e0500 	addseq	r0, lr, #0, 10
    3844:	00083a0b 	andeq	r3, r8, fp, lsl #20
    3848:	290a0000 	stmdbcs	sl, {}	; <UNPREDICTABLE>
    384c:	b6000001 	strlt	r0, [r0], -r1
    3850:	0b000008 	bleq	3878 <_start-0x4788>
    3854:	00000038 	andeq	r0, r0, r8, lsr r0
    3858:	92060018 	andls	r0, r6, #24
    385c:	05000000 	streq	r0, [r0, #-0]
    3860:	0008b604 	andeq	fp, r8, r4, lsl #12
    3864:	08cc1e00 	stmiaeq	ip, {r9, sl, fp, ip}^
    3868:	78160000 	ldmdavc	r6, {}	; <UNPREDICTABLE>
    386c:	00000004 	andeq	r0, r0, r4
    3870:	08c10405 	stmiaeq	r1, {r0, r2, sl}^
    3874:	04050000 	streq	r0, [r5], #-0
    3878:	0000019b 	muleq	r0, fp, r1
    387c:	0008e31e 	andeq	lr, r8, lr, lsl r3
    3880:	00251600 	eoreq	r1, r5, r0, lsl #12
    3884:	05000000 	streq	r0, [r0, #-0]
    3888:	0008e904 	andeq	lr, r8, r4, lsl #18
    388c:	d8040500 	stmdale	r4, {r8, sl}
    3890:	0a000008 	beq	38b8 <_start-0x4748>
    3894:	0000065a 	andeq	r0, r0, sl, asr r6
    3898:	000008ff 	strdeq	r0, [r0], -pc	; <UNPREDICTABLE>
    389c:	0000380b 	andeq	r3, r0, fp, lsl #16
    38a0:	1f000200 	svcne	0x00000200
    38a4:	00000493 	muleq	r0, r3, r4
    38a8:	17032e05 	strne	r2, [r3, -r5, lsl #28]
    38ac:	00000478 	andeq	r0, r0, r8, ror r4
    38b0:	00048c1f 	andeq	r8, r4, pc, lsl ip
    38b4:	032f0500 			; <UNDEFINED> instruction: 0x032f0500
    38b8:	00047e1d 	andeq	r7, r4, sp, lsl lr
    38bc:	049f2000 	ldreq	r2, [pc], #0	; 38c4 <_start-0x473c>
    38c0:	21060000 	mrscs	r0, (UNDEF: 6)
    38c4:	00012109 	andeq	r2, r1, r9, lsl #2
    38c8:	008aa400 	addeq	sl, sl, r0, lsl #8
    38cc:	00001800 	andeq	r1, r0, r0, lsl #16
    38d0:	219c0100 	orrscs	r0, ip, r0, lsl #2
    38d4:	0100705f 	qaddeq	r7, pc, r0	; <UNPREDICTABLE>
    38d8:	01211403 			; <UNDEFINED> instruction: 0x01211403
    38dc:	50010000 	andpl	r0, r1, r0
    38e0:	01006321 	tsteq	r0, r1, lsr #6
    38e4:	00251c03 	eoreq	r1, r5, r3, lsl #24
    38e8:	51010000 	mrspl	r0, (UNDEF: 1)
    38ec:	01006e22 	tsteq	r0, r2, lsr #28
    38f0:	002c2603 	eoreq	r2, ip, r3, lsl #12
    38f4:	0aae0000 	beq	feb838fc <__bss_end__+0xfeb7988c>
    38f8:	0aaa0000 	beq	fea83900 <__bss_end__+0xfea79890>
    38fc:	70230000 	eorvc	r0, r3, r0
    3900:	0b040100 	bleq	103d08 <__bss_end__+0xf9c98>
    3904:	00000123 	andeq	r0, r0, r3, lsr #2
    3908:	00000ad7 	ldrdeq	r0, [r0], -r7
    390c:	00000acf 	andeq	r0, r0, pc, asr #21
    3910:	01006523 	tsteq	r0, r3, lsr #10
    3914:	01231404 			; <UNDEFINED> instruction: 0x01231404
    3918:	0b0f0000 	bleq	3c3920 <__bss_end__+0x3b98b0>
    391c:	0b0d0000 	bleq	343924 <__bss_end__+0x3398b4>
    3920:	00000000 	andeq	r0, r0, r0
    3924:	00000a2b 	andeq	r0, r0, fp, lsr #20
    3928:	09df0004 	ldmibeq	pc, {r2}^	; <UNPREDICTABLE>
    392c:	01040000 	mrseq	r0, (UNDEF: 4)
    3930:	00000302 	andeq	r0, r0, r2, lsl #6
    3934:	0007380c 	andeq	r3, r7, ip, lsl #16
    3938:	0006df00 	andeq	sp, r6, r0, lsl #30
    393c:	008abc00 	addeq	fp, sl, r0, lsl #24
    3940:	00005800 	andeq	r5, r0, r0, lsl #16
    3944:	000c0b00 	andeq	r0, ip, r0, lsl #22
    3948:	07240200 	streq	r0, [r4, -r0, lsl #4]!
    394c:	28020000 	stmdacs	r2, {}	; <UNPREDICTABLE>
    3950:	0000311b 	andeq	r3, r0, fp, lsl r1
    3954:	07100300 	ldreq	r0, [r0, -r0, lsl #6]
    3958:	08040000 	stmdaeq	r4, {}	; <UNPREDICTABLE>
    395c:	00004800 	andeq	r4, r0, r0, lsl #16
    3960:	07330400 	ldreq	r0, [r3, -r0, lsl #8]!
    3964:	00480000 	subeq	r0, r8, r0
    3968:	00000000 	andeq	r0, r0, r0
    396c:	12020405 	andne	r0, r2, #83886080	; 0x5000000
    3970:	02000007 	andeq	r0, r0, #7
    3974:	00251863 	eoreq	r1, r5, r3, ror #16
    3978:	04060000 	streq	r0, [r6], #-0
    397c:	746e6905 	strbtvc	r6, [lr], #-2309	; 0xfffff6fb
    3980:	07040700 	streq	r0, [r4, -r0, lsl #14]
    3984:	00000074 	andeq	r0, r0, r4, ror r0
    3988:	f1060107 	cps	#7
    398c:	07000002 	streq	r0, [r0, -r2]
    3990:	038a0502 	orreq	r0, sl, #8388608	; 0x800000
    3994:	04070000 	streq	r0, [r7], #-0
    3998:	0000ba05 	andeq	fp, r0, r5, lsl #20
    399c:	05080700 	streq	r0, [r8, #-1792]	; 0xfffff900
    39a0:	000000b5 	strheq	r0, [r0], -r5
    39a4:	ef080107 	svc	0x00080107
    39a8:	07000002 	streq	r0, [r0, -r2]
    39ac:	02300702 	eorseq	r0, r0, #524288	; 0x80000
    39b0:	04070000 	streq	r0, [r7], #-0
    39b4:	00006f07 	andeq	r6, r0, r7, lsl #30
    39b8:	07080700 	streq	r0, [r8, -r0, lsl #14]
    39bc:	0000006a 	andeq	r0, r0, sl, rrx
    39c0:	00027302 	andeq	r7, r2, r2, lsl #6
    39c4:	19220300 	stmdbne	r2!, {r8, r9}
    39c8:	000000a8 	andeq	r0, r0, r8, lsr #1
    39cc:	00ae0408 	adceq	r0, lr, r8, lsl #8
    39d0:	30090000 	andcc	r0, r9, r0
    39d4:	02000004 	andeq	r0, r0, #4
    39d8:	000002d0 	ldrdeq	r0, [r0], -r0	; <UNPREDICTABLE>
    39dc:	720e2c04 	andvc	r2, lr, #4, 24	; 0x400
    39e0:	02000000 	andeq	r0, r0, #0
    39e4:	00000445 	andeq	r0, r0, r5, asr #8
    39e8:	720e7204 	andvc	r7, lr, #4, 4	; 0x40000000
    39ec:	0a000000 	beq	39f4 <_start-0x460c>
    39f0:	0000027b 	andeq	r0, r0, fp, ror r2
    39f4:	17015e05 	strne	r5, [r1, -r5, lsl #28]
    39f8:	0000005d 	andeq	r0, r0, sp, asr r0
    39fc:	a604040b 	strge	r0, [r4], -fp, lsl #8
    3a00:	0000fa03 	andeq	pc, r0, r3, lsl #20
    3a04:	026d0c00 	rsbeq	r0, sp, #0, 24
    3a08:	a8040000 	stmdage	r4, {}	; <UNPREDICTABLE>
    3a0c:	0000cb0c 	andeq	ip, r0, ip, lsl #22
    3a10:	01f00c00 	mvnseq	r0, r0, lsl #24
    3a14:	a9040000 	stmdbge	r4, {}	; <UNPREDICTABLE>
    3a18:	0000fa13 	andeq	pc, r0, r3, lsl sl	; <UNPREDICTABLE>
    3a1c:	800d0000 	andhi	r0, sp, r0
    3a20:	0a000000 	beq	3a28 <_start-0x45d8>
    3a24:	0e000001 	cdpeq	0, 0, cr0, cr0, cr1, {0}
    3a28:	0000005d 	andeq	r0, r0, sp, asr r0
    3a2c:	080f0003 	stmdaeq	pc, {r0, r1}	; <UNPREDICTABLE>
    3a30:	2e09a304 	cdpcs	3, 0, cr10, cr9, cr4, {0}
    3a34:	10000001 	andne	r0, r0, r1
    3a38:	00000428 	andeq	r0, r0, r8, lsr #8
    3a3c:	5607a504 	strpl	sl, [r7], -r4, lsl #10
    3a40:	00000000 	andeq	r0, r0, r0
    3a44:	00043710 	andeq	r3, r4, r0, lsl r7
    3a48:	05aa0400 	streq	r0, [sl, #1024]!	; 0x400
    3a4c:	000000d8 	ldrdeq	r0, [r0], -r8
    3a50:	b2020004 	andlt	r0, r2, #4
    3a54:	04000003 	streq	r0, [r0], #-3
    3a58:	010a03ab 	smlatbeq	sl, fp, r3, r0
    3a5c:	ad020000 	stcge	0, cr0, [r2, #-0]
    3a60:	04000001 	streq	r0, [r0], #-1
    3a64:	009c1baf 	addseq	r1, ip, pc, lsr #23
    3a68:	04080000 	streq	r0, [r8], #-0
    3a6c:	0000014c 	andeq	r0, r0, ip, asr #2
    3a70:	f8080107 			; <UNDEFINED> instruction: 0xf8080107
    3a74:	11000002 	tstne	r0, r2
    3a78:	0000014c 	andeq	r0, r0, ip, asr #2
    3a7c:	00047702 	andeq	r7, r4, r2, lsl #14
    3a80:	19160600 	ldmdbne	r6, {r9, sl}
    3a84:	0000008e 	andeq	r0, r0, lr, lsl #1
    3a88:	0001be12 	andeq	fp, r1, r2, lsl lr
    3a8c:	2f061800 	svccs	0x00061800
    3a90:	0001be08 	andeq	fp, r1, r8, lsl #28
    3a94:	03d31000 	bicseq	r1, r3, #0
    3a98:	31060000 	mrscc	r0, (UNDEF: 6)
    3a9c:	0001be13 	andeq	fp, r1, r3, lsl lr
    3aa0:	5f130000 	svcpl	0x00130000
    3aa4:	3206006b 	andcc	r0, r6, #107	; 0x6b
    3aa8:	00005607 	andeq	r5, r0, r7, lsl #12
    3aac:	13100400 	tstne	r0, #0, 8
    3ab0:	06000004 	streq	r0, [r0], -r4
    3ab4:	00560b32 	subseq	r0, r6, r2, lsr fp
    3ab8:	10080000 	andne	r0, r8, r0
    3abc:	000001a7 	andeq	r0, r0, r7, lsr #3
    3ac0:	56143206 	ldrpl	r3, [r4], -r6, lsl #4
    3ac4:	0c000000 	stceq	0, cr0, [r0], {-0}
    3ac8:	0004b310 	andeq	fp, r4, r0, lsl r3
    3acc:	1b320600 	blne	c852d4 <__bss_end__+0xc7b264>
    3ad0:	00000056 	andeq	r0, r0, r6, asr r0
    3ad4:	785f1310 	ldmdavc	pc, {r4, r8, r9, ip}^	; <UNPREDICTABLE>
    3ad8:	0b330600 	bleq	cc52e0 <__bss_end__+0xcbb270>
    3adc:	000001c4 	andeq	r0, r0, r4, asr #3
    3ae0:	04080014 	streq	r0, [r8], #-20	; 0xffffffec
    3ae4:	00000164 	andeq	r0, r0, r4, ror #2
    3ae8:	0001580d 	andeq	r5, r1, sp, lsl #16
    3aec:	0001d400 	andeq	sp, r1, r0, lsl #8
    3af0:	005d0e00 	subseq	r0, sp, r0, lsl #28
    3af4:	00000000 	andeq	r0, r0, r0
    3af8:	0001eb12 	andeq	lr, r1, r2, lsl fp
    3afc:	37062400 	strcc	r2, [r6, -r0, lsl #8]
    3b00:	00025708 	andeq	r5, r2, r8, lsl #14
    3b04:	00ac1000 	adceq	r1, ip, r0
    3b08:	39060000 	stmdbcc	r6, {}	; <UNPREDICTABLE>
    3b0c:	00005609 	andeq	r5, r0, r9, lsl #12
    3b10:	4d100000 	ldcmi	0, cr0, [r0, #-0]
    3b14:	06000004 	streq	r0, [r0], -r4
    3b18:	0056093a 	subseq	r0, r6, sl, lsr r9
    3b1c:	10040000 	andne	r0, r4, r0
    3b20:	000000cf 	andeq	r0, r0, pc, asr #1
    3b24:	56093b06 	strpl	r3, [r9], -r6, lsl #22
    3b28:	08000000 	stmdaeq	r0, {}	; <UNPREDICTABLE>
    3b2c:	00053410 	andeq	r3, r5, r0, lsl r4
    3b30:	093c0600 	ldmdbeq	ip!, {r9, sl}
    3b34:	00000056 	andeq	r0, r0, r6, asr r0
    3b38:	02b4100c 	adcseq	r1, r4, #12
    3b3c:	3d060000 	stccc	0, cr0, [r6, #-0]
    3b40:	00005609 	andeq	r5, r0, r9, lsl #12
    3b44:	96101000 	ldrls	r1, [r0], -r0
    3b48:	06000002 	streq	r0, [r0], -r2
    3b4c:	0056093e 	subseq	r0, r6, lr, lsr r9
    3b50:	10140000 	andsne	r0, r4, r0
    3b54:	000004b8 			; <UNDEFINED> instruction: 0x000004b8
    3b58:	56093f06 	strpl	r3, [r9], -r6, lsl #30
    3b5c:	18000000 	stmdane	r0, {}	; <UNPREDICTABLE>
    3b60:	00039410 	andeq	r9, r3, r0, lsl r4
    3b64:	09400600 	stmdbeq	r0, {r9, sl}^
    3b68:	00000056 	andeq	r0, r0, r6, asr r0
    3b6c:	04fb101c 	ldrbteq	r1, [fp], #28
    3b70:	41060000 	mrsmi	r0, (UNDEF: 6)
    3b74:	00005609 	andeq	r5, r0, r9, lsl #12
    3b78:	14002000 	strne	r2, [r0], #-0
    3b7c:	0000010f 	andeq	r0, r0, pc, lsl #2
    3b80:	4a060108 	bmi	183fa8 <__bss_end__+0x179f38>
    3b84:	00029c08 	andeq	r9, r2, r8, lsl #24
    3b88:	019a1000 	orrseq	r1, sl, r0
    3b8c:	4b060000 	blmi	183b94 <__bss_end__+0x179b24>
    3b90:	00029c0a 	andeq	r9, r2, sl, lsl #24
    3b94:	00100000 	andseq	r0, r0, r0
    3b98:	06000000 	streq	r0, [r0], -r0
    3b9c:	029c094c 	addseq	r0, ip, #76, 18	; 0x130000
    3ba0:	15800000 	strne	r0, [r0]
    3ba4:	00000469 	andeq	r0, r0, r9, ror #8
    3ba8:	580a4e06 	stmdapl	sl, {r1, r2, r9, sl, fp, lr}
    3bac:	00000001 	andeq	r0, r0, r1
    3bb0:	01341501 	teqeq	r4, r1, lsl #10
    3bb4:	51060000 	mrspl	r0, (UNDEF: 6)
    3bb8:	0001580a 	andeq	r5, r1, sl, lsl #16
    3bbc:	00010400 	andeq	r0, r1, r0, lsl #8
    3bc0:	0000480d 	andeq	r4, r0, sp, lsl #16
    3bc4:	0002ac00 	andeq	sl, r2, r0, lsl #24
    3bc8:	005d0e00 	subseq	r0, sp, r0, lsl #28
    3bcc:	001f0000 	andseq	r0, pc, r0
    3bd0:	0002bd14 	andeq	fp, r2, r4, lsl sp
    3bd4:	06019000 	streq	r9, [r1], -r0
    3bd8:	02ef085d 	rsceq	r0, pc, #6094848	; 0x5d0000
    3bdc:	d3100000 	tstle	r0, #0
    3be0:	06000003 	streq	r0, [r0], -r3
    3be4:	02ef125e 	rsceq	r1, pc, #-536870907	; 0xe0000005
    3be8:	10000000 	andne	r0, r0, r0
    3bec:	000003eb 	andeq	r0, r0, fp, ror #7
    3bf0:	56065f06 	strpl	r5, [r6], -r6, lsl #30
    3bf4:	04000000 	streq	r0, [r0], #-0
    3bf8:	0001a210 	andeq	sl, r1, r0, lsl r2
    3bfc:	09610600 	stmdbeq	r1!, {r9, sl}^
    3c00:	000002f5 	strdeq	r0, [r0], -r5
    3c04:	010f1008 	tsteq	pc, r8
    3c08:	62060000 	andvs	r0, r6, #0
    3c0c:	0002571e 	andeq	r5, r2, lr, lsl r7
    3c10:	08008800 	stmdaeq	r0, {fp, pc}
    3c14:	0002ac04 	andeq	sl, r2, r4, lsl #24
    3c18:	03050d00 	movweq	r0, #23808	; 0x5d00
    3c1c:	03050000 	movweq	r0, #20480	; 0x5000
    3c20:	5d0e0000 	stcpl	0, cr0, [lr, #-0]
    3c24:	1f000000 	svcne	0x00000000
    3c28:	0b040800 	bleq	105c30 <__bss_end__+0xfbbc0>
    3c2c:	16000003 	strne	r0, [r0], -r3
    3c30:	00039e12 	andeq	r9, r3, r2, lsl lr
    3c34:	75060800 	strvc	r0, [r6, #-2048]	; 0xfffff800
    3c38:	00033408 	andeq	r3, r3, r8, lsl #8
    3c3c:	00c91000 	sbceq	r1, r9, r0
    3c40:	76060000 	strvc	r0, [r6], -r0
    3c44:	00033411 	andeq	r3, r3, r1, lsl r4
    3c48:	1b100000 	blne	403c50 <__bss_end__+0x3f9be0>
    3c4c:	06000000 	streq	r0, [r0], -r0
    3c50:	00560677 	subseq	r0, r6, r7, ror r6
    3c54:	00040000 	andeq	r0, r4, r0
    3c58:	00800408 	addeq	r0, r0, r8, lsl #8
    3c5c:	bd120000 	ldclt	0, cr0, [r2, #-0]
    3c60:	68000003 	stmdavs	r0, {r0, r1}
    3c64:	7d08b506 	cfstr32vc	mvfx11, [r8, #-24]	; 0xffffffe8
    3c68:	13000004 	movwne	r0, #4
    3c6c:	0600705f 			; <UNDEFINED> instruction: 0x0600705f
    3c70:	033412b6 	teqeq	r4, #1610612747	; 0x6000000b
    3c74:	13000000 	movwne	r0, #0
    3c78:	0600725f 			; <UNDEFINED> instruction: 0x0600725f
    3c7c:	005607b7 	ldrheq	r0, [r6], #-119	; 0xffffff89
    3c80:	13040000 	movwne	r0, #16384	; 0x4000
    3c84:	0600775f 			; <UNDEFINED> instruction: 0x0600775f
    3c88:	005607b8 	ldrheq	r0, [r6], #-120	; 0xffffff88
    3c8c:	10080000 	andne	r0, r8, r0
    3c90:	0000012d 	andeq	r0, r0, sp, lsr #2
    3c94:	6b09b906 	blvs	2720b4 <__bss_end__+0x268044>
    3c98:	0c000000 	stceq	0, cr0, [r0], {-0}
    3c9c:	00021610 	andeq	r1, r2, r0, lsl r6
    3ca0:	09ba0600 	ldmibeq	sl!, {r9, sl}
    3ca4:	0000006b 	andeq	r0, r0, fp, rrx
    3ca8:	625f130e 	subsvs	r1, pc, #939524096	; 0x38000000
    3cac:	bb060066 	bllt	183e4c <__bss_end__+0x179ddc>
    3cb0:	00030c11 	andeq	r0, r3, r1, lsl ip
    3cb4:	89101000 	ldmdbhi	r0, {ip}
    3cb8:	06000000 	streq	r0, [r0], -r0
    3cbc:	005607bc 	ldrheq	r0, [r6], #-124	; 0xffffff84
    3cc0:	10180000 	andsne	r0, r8, r0
    3cc4:	0000011d 	andeq	r0, r0, sp, lsl r1
    3cc8:	480ac306 	stmdami	sl, {r1, r2, r8, r9, lr, pc}
    3ccc:	1c000000 	stcne	0, cr0, [r0], {-0}
    3cd0:	000b4210 	andeq	r4, fp, r0, lsl r2
    3cd4:	1dc50600 	stclne	6, cr0, [r5]
    3cd8:	000005ef 	andeq	r0, r0, pc, ror #11
    3cdc:	06371020 	ldrteq	r1, [r7], -r0, lsr #32
    3ce0:	c7060000 	strgt	r0, [r6, -r0]
    3ce4:	0006191d 	andeq	r1, r6, sp, lsl r9
    3ce8:	3f102400 	svccc	0x00102400
    3cec:	06000004 	streq	r0, [r0], -r4
    3cf0:	063d0dca 	ldrteq	r0, [sp], -sl, asr #27
    3cf4:	10280000 	eorne	r0, r8, r0
    3cf8:	00000515 	andeq	r0, r0, r5, lsl r5
    3cfc:	5709cb06 	strpl	ip, [r9, -r6, lsl #22]
    3d00:	2c000006 	stccs	0, cr0, [r0], {6}
    3d04:	62755f13 	rsbsvs	r5, r5, #19, 30	; 0x4c
    3d08:	11ce0600 	bicne	r0, lr, r0, lsl #12
    3d0c:	0000030c 	andeq	r0, r0, ip, lsl #6
    3d10:	755f1330 	ldrbvc	r1, [pc, #-816]	; 39e8 <_start-0x4618>
    3d14:	cf060070 	svcgt	0x00060070
    3d18:	00033412 	andeq	r3, r3, r2, lsl r4
    3d1c:	5f133800 	svcpl	0x00133800
    3d20:	06007275 			; <UNDEFINED> instruction: 0x06007275
    3d24:	005607d0 	ldrsbeq	r0, [r6], #-112	; 0xffffff90
    3d28:	103c0000 	eorsne	r0, ip, r0
    3d2c:	000000c3 	andeq	r0, r0, r3, asr #1
    3d30:	5d11d306 	ldcpl	3, cr13, [r1, #-24]	; 0xffffffe8
    3d34:	40000006 	andmi	r0, r0, r6
    3d38:	0004ed10 	andeq	lr, r4, r0, lsl sp
    3d3c:	11d40600 	bicsne	r0, r4, r0, lsl #12
    3d40:	0000066d 	andeq	r0, r0, sp, ror #12
    3d44:	6c5f1343 	mrrcvs	3, 4, r1, pc, cr3	; <UNPREDICTABLE>
    3d48:	d7060062 	strle	r0, [r6, -r2, rrx]
    3d4c:	00030c11 	andeq	r0, r3, r1, lsl ip
    3d50:	4b104400 	blmi	414d58 <__bss_end__+0x40ace8>
    3d54:	06000001 	streq	r0, [r0], -r1
    3d58:	005607da 	ldrsbeq	r0, [r6], #-122	; 0xffffff86
    3d5c:	104c0000 	subne	r0, ip, r0
    3d60:	0000015c 	andeq	r0, r0, ip, asr r1
    3d64:	b30adb06 	movwlt	sp, #43782	; 0xab06
    3d68:	50000000 	andpl	r0, r0, r0
    3d6c:	000ae310 	andeq	lr, sl, r0, lsl r3
    3d70:	12de0600 	sbcsne	r0, lr, #0, 12
    3d74:	0000049b 	muleq	r0, fp, r4
    3d78:	04311054 	ldrteq	r1, [r1], #-84	; 0xffffffac
    3d7c:	e2060000 	and	r0, r6, #0
    3d80:	00013a0c 	andeq	r3, r1, ip, lsl #20
    3d84:	c5105800 	ldrgt	r5, [r0, #-2048]	; 0xfffff800
    3d88:	06000003 	streq	r0, [r0], -r3
    3d8c:	012e0ee4 	smulwteq	lr, r4, lr
    3d90:	105c0000 	subsne	r0, ip, r0
    3d94:	0000028e 	andeq	r0, r0, lr, lsl #5
    3d98:	5609e506 	strpl	lr, [r9], -r6, lsl #10
    3d9c:	64000000 	strvs	r0, [r0], #-0
    3da0:	00561700 	subseq	r1, r6, r0, lsl #14
    3da4:	049b0000 	ldreq	r0, [fp], #0
    3da8:	9b180000 	blls	603db0 <__bss_end__+0x5f9d40>
    3dac:	18000004 	stmdane	r0, {r2}
    3db0:	00000048 	andeq	r0, r0, r8, asr #32
    3db4:	00014618 	andeq	r4, r1, r8, lsl r6
    3db8:	00561800 	subseq	r1, r6, r0, lsl #16
    3dbc:	08000000 	stmdaeq	r0, {}	; <UNPREDICTABLE>
    3dc0:	0004a604 	andeq	sl, r4, r4, lsl #12
    3dc4:	049b1100 	ldreq	r1, [fp], #256	; 0x100
    3dc8:	1b190000 	blne	643dd0 <__bss_end__+0x639d60>
    3dcc:	28000004 	stmdacs	r0, {r2}
    3dd0:	02600604 	rsbeq	r0, r0, #4, 12	; 0x400000
    3dd4:	0005ef08 	andeq	lr, r5, r8, lsl #30
    3dd8:	03831a00 	orreq	r1, r3, #0, 20
    3ddc:	62060000 	andvs	r0, r6, #0
    3de0:	00560702 	subseq	r0, r6, r2, lsl #14
    3de4:	1a000000 	bne	3dec <_start-0x4214>
    3de8:	0000013c 	andeq	r0, r0, ip, lsr r1
    3dec:	0b026706 	bleq	9da0c <__bss_end__+0x9399c>
    3df0:	000006c9 	andeq	r0, r0, r9, asr #13
    3df4:	02061a04 	andeq	r1, r6, #4, 20	; 0x4000
    3df8:	67060000 	strvs	r0, [r6, -r0]
    3dfc:	06c91402 	strbeq	r1, [r9], r2, lsl #8
    3e00:	1a080000 	bne	203e08 <__bss_end__+0x1f9d98>
    3e04:	000001b6 			; <UNDEFINED> instruction: 0x000001b6
    3e08:	1e026706 	cdpne	7, 0, cr6, cr2, cr6, {0}
    3e0c:	000006c9 	andeq	r0, r0, r9, asr #13
    3e10:	03e61a0c 	mvneq	r1, #12, 20	; 0xc000
    3e14:	69060000 	stmdbvs	r6, {}	; <UNPREDICTABLE>
    3e18:	00560802 	subseq	r0, r6, r2, lsl #16
    3e1c:	1a100000 	bne	403e24 <__bss_end__+0x3f9db4>
    3e20:	00000037 	andeq	r0, r0, r7, lsr r0
    3e24:	08026a06 	stmdaeq	r2, {r1, r2, r9, fp, sp, lr}
    3e28:	000008c9 	andeq	r0, r0, r9, asr #17
    3e2c:	03fa1a14 	mvnseq	r1, #20, 20	; 0x14000
    3e30:	6d060000 	stcvs	0, cr0, [r6, #-0]
    3e34:	00560702 	subseq	r0, r6, r2, lsl #14
    3e38:	1a300000 	bne	c03e40 <__bss_end__+0xbf9dd0>
    3e3c:	00000a1f 	andeq	r0, r0, pc, lsl sl
    3e40:	16026e06 	strne	r6, [r2], -r6, lsl #28
    3e44:	000008de 	ldrdeq	r0, [r0], -lr
    3e48:	02c51a34 	sbceq	r1, r5, #52, 20	; 0x34000
    3e4c:	70060000 	andvc	r0, r6, r0
    3e50:	00560702 	subseq	r0, r6, r2, lsl #14
    3e54:	1a380000 	bne	e03e5c <__bss_end__+0xdf9dec>
    3e58:	000003f0 	strdeq	r0, [r0], -r0	; <UNPREDICTABLE>
    3e5c:	0a027206 	beq	a067c <__bss_end__+0x9660c>
    3e60:	000008ef 	andeq	r0, r0, pc, ror #17
    3e64:	02651a3c 	rsbeq	r1, r5, #60, 20	; 0x3c000
    3e68:	75060000 	strvc	r0, [r6, #-0]
    3e6c:	01be1302 			; <UNDEFINED> instruction: 0x01be1302
    3e70:	1a400000 	bne	1003e78 <__bss_end__+0xff9e08>
    3e74:	000001d5 	ldrdeq	r0, [r0], -r5
    3e78:	07027606 	streq	r7, [r2, -r6, lsl #12]
    3e7c:	00000056 	andeq	r0, r0, r6, asr r0
    3e80:	052f1a44 	streq	r1, [pc, #-2628]!	; 3444 <_start-0x4bbc>
    3e84:	77060000 	strvc	r0, [r6, -r0]
    3e88:	01be1302 			; <UNDEFINED> instruction: 0x01be1302
    3e8c:	1a480000 	bne	1203e94 <__bss_end__+0x11f9e24>
    3e90:	000002d7 	ldrdeq	r0, [r0], -r7
    3e94:	14027806 	strne	r7, [r2], #-2054	; 0xfffff7fa
    3e98:	000008f5 	strdeq	r0, [r0], -r5
    3e9c:	020e1a4c 	andeq	r1, lr, #76, 20	; 0x4c000
    3ea0:	7b060000 	blvc	183ea8 <__bss_end__+0x179e38>
    3ea4:	00560702 	subseq	r0, r6, r2, lsl #14
    3ea8:	1a500000 	bne	1403eb0 <__bss_end__+0x13f9e40>
    3eac:	00000154 	andeq	r0, r0, r4, asr r1
    3eb0:	09027c06 	stmdbeq	r2, {r1, r2, sl, fp, ip, sp, lr}
    3eb4:	00000146 	andeq	r0, r0, r6, asr #2
    3eb8:	02fd1a54 	rscseq	r1, sp, #84, 20	; 0x54000
    3ebc:	9f060000 	svcls	0x00060000
    3ec0:	08a40702 	stmiaeq	r4!, {r1, r8, r9, sl}
    3ec4:	1b580000 	blne	1603ecc <__bss_end__+0x15f9e5c>
    3ec8:	000002bd 			; <UNDEFINED> instruction: 0x000002bd
    3ecc:	1302a306 	movwne	sl, #8966	; 0x2306
    3ed0:	000002ef 	andeq	r0, r0, pc, ror #5
    3ed4:	431b0148 	tstmi	fp, #72, 2
    3ed8:	06000002 	streq	r0, [r0], -r2
    3edc:	ac1202a4 	lfmge	f0, 4, [r2], {164}	; 0xa4
    3ee0:	4c000002 	stcmi	0, cr0, [r0], {2}
    3ee4:	04db1b01 	ldrbeq	r1, [fp], #2817	; 0xb01
    3ee8:	a8060000 	stmdage	r6, {}	; <UNPREDICTABLE>
    3eec:	09060c02 	stmdbeq	r6, {r1, sl, fp}
    3ef0:	02dc0000 	sbcseq	r0, ip, #0
    3ef4:	0001251b 	andeq	r2, r1, fp, lsl r5
    3ef8:	02ad0600 	adceq	r0, sp, #0, 12
    3efc:	00068a10 	andeq	r8, r6, r0, lsl sl
    3f00:	1b02e000 	blne	bbf08 <__bss_end__+0xb1e98>
    3f04:	0000010a 	andeq	r0, r0, sl, lsl #2
    3f08:	0a02af06 	beq	afb28 <__bss_end__+0xa5ab8>
    3f0c:	00000912 	andeq	r0, r0, r2, lsl r9
    3f10:	080002ec 	stmdaeq	r0, {r2, r3, r5, r6, r7, r9}
    3f14:	00047d04 	andeq	r7, r4, r4, lsl #26
    3f18:	00561700 	subseq	r1, r6, r0, lsl #14
    3f1c:	06130000 	ldreq	r0, [r3], -r0
    3f20:	9b180000 	blls	603f28 <__bss_end__+0x5f9eb8>
    3f24:	18000004 	stmdane	r0, {r2}
    3f28:	00000048 	andeq	r0, r0, r8, asr #32
    3f2c:	00061318 	andeq	r1, r6, r8, lsl r3
    3f30:	00561800 	subseq	r1, r6, r0, lsl #16
    3f34:	08000000 	stmdaeq	r0, {}	; <UNPREDICTABLE>
    3f38:	00015304 	andeq	r5, r1, r4, lsl #6
    3f3c:	f5040800 			; <UNDEFINED> instruction: 0xf5040800
    3f40:	17000005 	strne	r0, [r0, -r5]
    3f44:	000000bf 	strheq	r0, [r0], -pc	; <UNPREDICTABLE>
    3f48:	0000063d 	andeq	r0, r0, sp, lsr r6
    3f4c:	00049b18 	andeq	r9, r4, r8, lsl fp
    3f50:	00481800 	subeq	r1, r8, r0, lsl #16
    3f54:	bf180000 	svclt	0x00180000
    3f58:	18000000 	stmdane	r0, {}	; <UNPREDICTABLE>
    3f5c:	00000056 	andeq	r0, r0, r6, asr r0
    3f60:	1f040800 	svcne	0x00040800
    3f64:	17000006 	strne	r0, [r0, -r6]
    3f68:	00000056 	andeq	r0, r0, r6, asr r0
    3f6c:	00000657 	andeq	r0, r0, r7, asr r6
    3f70:	00049b18 	andeq	r9, r4, r8, lsl fp
    3f74:	00481800 	subeq	r1, r8, r0, lsl #16
    3f78:	08000000 	stmdaeq	r0, {}	; <UNPREDICTABLE>
    3f7c:	00064304 	andeq	r4, r6, r4, lsl #6
    3f80:	00800d00 	addeq	r0, r0, r0, lsl #26
    3f84:	066d0000 	strbteq	r0, [sp], -r0
    3f88:	5d0e0000 	stcpl	0, cr0, [lr, #-0]
    3f8c:	02000000 	andeq	r0, r0, #0
    3f90:	00800d00 	addeq	r0, r0, r0, lsl #26
    3f94:	067d0000 	ldrbteq	r0, [sp], -r0
    3f98:	5d0e0000 	stcpl	0, cr0, [lr, #-0]
    3f9c:	00000000 	andeq	r0, r0, r0
    3fa0:	03ab0a00 			; <UNDEFINED> instruction: 0x03ab0a00
    3fa4:	1f060000 	svcne	0x00060000
    3fa8:	033a1a01 	teqeq	sl, #4096	; 0x1000
    3fac:	c21c0000 	andsgt	r0, ip, #0
    3fb0:	0c000004 	stceq	0, cr0, [r0], {4}
    3fb4:	08012306 	stmdaeq	r1, {r1, r2, r8, r9, sp}
    3fb8:	000006c3 	andeq	r0, r0, r3, asr #13
    3fbc:	0003d31a 	andeq	sp, r3, sl, lsl r3
    3fc0:	01250600 			; <UNDEFINED> instruction: 0x01250600
    3fc4:	0006c311 	andeq	ip, r6, r1, lsl r3
    3fc8:	291a0000 	ldmdbcs	sl, {}	; <UNPREDICTABLE>
    3fcc:	06000002 	streq	r0, [r0], -r2
    3fd0:	56070126 	strpl	r0, [r7], -r6, lsr #2
    3fd4:	04000000 	streq	r0, [r0], #-0
    3fd8:	0003a51a 	andeq	sl, r3, sl, lsl r5
    3fdc:	01270600 			; <UNDEFINED> instruction: 0x01270600
    3fe0:	0006c90b 	andeq	ip, r6, fp, lsl #18
    3fe4:	08000800 	stmdaeq	r0, {fp}
    3fe8:	00068a04 	andeq	r8, r6, r4, lsl #20
    3fec:	7d040800 	stcvc	8, cr0, [r4, #-0]
    3ff0:	1c000006 	stcne	0, cr0, [r0], {6}
    3ff4:	0000002f 	andeq	r0, r0, pc, lsr #32
    3ff8:	013f060e 	teqeq	pc, lr, lsl #12
    3ffc:	00070808 	andeq	r0, r7, r8, lsl #16
    4000:	04221a00 	strteq	r1, [r2], #-2560	; 0xfffff600
    4004:	40060000 	andmi	r0, r6, r0
    4008:	07081201 	streq	r1, [r8, -r1, lsl #4]
    400c:	1a000000 	bne	4014 <_start-0x3fec>
    4010:	00000456 	andeq	r0, r0, r6, asr r4
    4014:	12014106 	andne	r4, r1, #-2147483647	; 0x80000001
    4018:	00000708 	andeq	r0, r0, r8, lsl #14
    401c:	04721a06 	ldrbteq	r1, [r2], #-2566	; 0xfffff5fa
    4020:	42060000 	andmi	r0, r6, #0
    4024:	00871201 	addeq	r1, r7, r1, lsl #4
    4028:	000c0000 	andeq	r0, ip, r0
    402c:	0000870d 	andeq	r8, r0, sp, lsl #14
    4030:	00071800 	andeq	r1, r7, r0, lsl #16
    4034:	005d0e00 	subseq	r0, sp, r0, lsl #28
    4038:	00020000 	andeq	r0, r2, r0
    403c:	8006d01d 	andhi	sp, r6, sp, lsl r0
    4040:	082d0702 	stmdaeq	sp!, {r1, r8, r9, sl}
    4044:	a61a0000 	ldrge	r0, [sl], -r0
    4048:	06000004 	streq	r0, [r0], -r4
    404c:	5d180282 	lfmpl	f0, 4, [r8, #-520]	; 0xfffffdf8
    4050:	00000000 	andeq	r0, r0, r0
    4054:	00045c1a 	andeq	r5, r4, sl, lsl ip
    4058:	02830600 	addeq	r0, r3, #0, 12
    405c:	00014612 	andeq	r4, r1, r2, lsl r6
    4060:	581a0400 	ldmdapl	sl, {sl}
    4064:	06000002 	streq	r0, [r0], -r2
    4068:	2d100284 	lfmcs	f0, 4, [r0, #-528]	; 0xfffffdf0
    406c:	08000008 	stmdaeq	r0, {r3}
    4070:	0005061a 	andeq	r0, r5, sl, lsl r6
    4074:	02850600 	addeq	r0, r5, #0, 12
    4078:	0001d417 	andeq	sp, r1, r7, lsl r4
    407c:	c61a2400 	ldrgt	r2, [sl], -r0, lsl #8
    4080:	06000001 	streq	r0, [r0], -r1
    4084:	560f0286 	strpl	r0, [pc], -r6, lsl #5
    4088:	48000000 	stmdami	r0, {}	; <UNPREDICTABLE>
    408c:	0003ce1a 	andeq	ip, r3, sl, lsl lr
    4090:	02870600 	addeq	r0, r7, #0, 12
    4094:	0000952c 	andeq	r9, r0, ip, lsr #10
    4098:	1c1a5000 	ldcne	0, cr5, [sl], {-0}
    409c:	06000005 	streq	r0, [r0], -r5
    40a0:	cf1a0288 	svcgt	0x001a0288
    40a4:	58000006 	stmdapl	r0, {r1, r2}
    40a8:	0003d91a 	andeq	sp, r3, sl, lsl r9
    40ac:	02890600 	addeq	r0, r9, #0, 12
    40b0:	00012e16 	andeq	r2, r1, r6, lsl lr
    40b4:	211a6800 	tstcs	sl, r0, lsl #16
    40b8:	06000005 	streq	r0, [r0], -r5
    40bc:	2e16028a 	cdpcs	2, 1, cr0, cr6, cr10, {4}
    40c0:	70000001 	andvc	r0, r0, r1
    40c4:	0002e11a 	andeq	lr, r2, sl, lsl r1
    40c8:	028b0600 	addeq	r0, fp, #0, 12
    40cc:	00012e16 	andeq	r2, r1, r6, lsl lr
    40d0:	d11a7800 	tstle	sl, r0, lsl #16
    40d4:	06000004 	streq	r0, [r0], -r4
    40d8:	3d10028c 	lfmcc	f0, 4, [r0, #-560]	; 0xfffffdd0
    40dc:	80000008 	andhi	r0, r0, r8
    40e0:	00024c1a 	andeq	r4, r2, sl, lsl ip
    40e4:	028d0600 	addeq	r0, sp, #0, 12
    40e8:	00084d10 	andeq	r4, r8, r0, lsl sp
    40ec:	7f1a8800 	svcvc	0x001a8800
    40f0:	06000004 	streq	r0, [r0], -r4
    40f4:	560f028e 	strpl	r0, [pc], -lr, lsl #5
    40f8:	a0000000 	andge	r0, r0, r0
    40fc:	00018c1a 	andeq	r8, r1, sl, lsl ip
    4100:	028f0600 	addeq	r0, pc, #0, 12
    4104:	00012e16 	andeq	r2, r1, r6, lsl lr
    4108:	9d1aa400 	cfldrsls	mvf10, [sl, #-0]
    410c:	06000000 	streq	r0, [r0], -r0
    4110:	2e160290 	mrccs	2, 0, r0, cr6, cr0, {4}
    4114:	ac000001 	stcge	0, cr0, [r0], {1}
    4118:	00017b1a 	andeq	r7, r1, sl, lsl fp
    411c:	02910600 	addseq	r0, r1, #0, 12
    4120:	00012e16 	andeq	r2, r1, r6, lsl lr
    4124:	4a1ab400 	bmi	6b112c <__bss_end__+0x6a70bc>
    4128:	06000000 	streq	r0, [r0], -r0
    412c:	2e160292 	mrccs	2, 0, r0, cr6, cr2, {4}
    4130:	bc000001 	stclt	0, cr0, [r0], {1}
    4134:	0000591a 	andeq	r5, r0, sl, lsl r9
    4138:	02930600 	addseq	r0, r3, #0, 12
    413c:	00012e16 	andeq	r2, r1, r6, lsl lr
    4140:	811ac400 	tsthi	sl, r0, lsl #8
    4144:	06000003 	streq	r0, [r0], -r3
    4148:	56080294 			; <UNDEFINED> instruction: 0x56080294
    414c:	cc000000 	stcgt	0, cr0, [r0], {-0}
    4150:	014c0d00 	cmpeq	ip, r0, lsl #26
    4154:	083d0000 	ldmdaeq	sp!, {}	; <UNPREDICTABLE>
    4158:	5d0e0000 	stcpl	0, cr0, [lr, #-0]
    415c:	19000000 	stmdbne	r0, {}	; <UNPREDICTABLE>
    4160:	014c0d00 	cmpeq	ip, r0, lsl #26
    4164:	084d0000 	stmdaeq	sp, {}^	; <UNPREDICTABLE>
    4168:	5d0e0000 	stcpl	0, cr0, [lr, #-0]
    416c:	07000000 	streq	r0, [r0, -r0]
    4170:	014c0d00 	cmpeq	ip, r0, lsl #26
    4174:	085d0000 	ldmdaeq	sp, {}^	; <UNPREDICTABLE>
    4178:	5d0e0000 	stcpl	0, cr0, [lr, #-0]
    417c:	17000000 	strne	r0, [r0, -r0]
    4180:	06f01d00 	ldrbteq	r1, [r0], r0, lsl #26
    4184:	84070299 	strhi	r0, [r7], #-665	; 0xfffffd67
    4188:	1a000008 	bne	41b0 <_start-0x3e50>
    418c:	000002ad 	andeq	r0, r0, sp, lsr #5
    4190:	1b029c06 	blne	ab1b0 <__bss_end__+0xa1140>
    4194:	00000884 	andeq	r0, r0, r4, lsl #17
    4198:	04c81a00 	strbeq	r1, [r8], #2560	; 0xa00
    419c:	9d060000 	stcls	0, cr0, [r6, #-0]
    41a0:	08941802 	ldmeq	r4, {r1, fp, ip}
    41a4:	00780000 	rsbseq	r0, r8, r0
    41a8:	0003340d 	andeq	r3, r3, sp, lsl #8
    41ac:	00089400 	andeq	r9, r8, r0, lsl #8
    41b0:	005d0e00 	subseq	r0, sp, r0, lsl #28
    41b4:	001d0000 	andseq	r0, sp, r0
    41b8:	00005d0d 	andeq	r5, r0, sp, lsl #26
    41bc:	0008a400 	andeq	sl, r8, r0, lsl #8
    41c0:	005d0e00 	subseq	r0, sp, r0, lsl #28
    41c4:	001d0000 	andseq	r0, sp, r0
    41c8:	7e06f01e 	mcrvc	0, 0, pc, cr6, cr14, {0}	; <UNPREDICTABLE>
    41cc:	08c90302 	stmiaeq	r9, {r1, r8, r9}^
    41d0:	1b1f0000 	blne	7c41d8 <__bss_end__+0x7ba168>
    41d4:	06000004 	streq	r0, [r0], -r4
    41d8:	180b0295 	stmdane	fp, {r0, r2, r4, r7, r9}
    41dc:	1f000007 	svcne	0x00000007
    41e0:	000004f3 	strdeq	r0, [r0], -r3
    41e4:	0b029e06 	bleq	aba04 <__bss_end__+0xa1994>
    41e8:	0000085d 	andeq	r0, r0, sp, asr r8
    41ec:	014c0d00 	cmpeq	ip, r0, lsl #26
    41f0:	08d90000 	ldmeq	r9, {}^	; <UNPREDICTABLE>
    41f4:	5d0e0000 	stcpl	0, cr0, [lr, #-0]
    41f8:	18000000 	stmdane	r0, {}	; <UNPREDICTABLE>
    41fc:	00920900 	addseq	r0, r2, r0, lsl #18
    4200:	04080000 	streq	r0, [r8], #-0
    4204:	000008d9 	ldrdeq	r0, [r0], -r9
    4208:	0008ef20 	andeq	lr, r8, r0, lsr #30
    420c:	049b1800 	ldreq	r1, [fp], #2048	; 0x800
    4210:	08000000 	stmdaeq	r0, {}	; <UNPREDICTABLE>
    4214:	0008e404 	andeq	lr, r8, r4, lsl #8
    4218:	be040800 	cdplt	8, 0, cr0, cr4, cr0, {0}
    421c:	20000001 	andcs	r0, r0, r1
    4220:	00000906 	andeq	r0, r0, r6, lsl #18
    4224:	00005618 	andeq	r5, r0, r8, lsl r6
    4228:	04080000 	streq	r0, [r8], #-0
    422c:	0000090c 	andeq	r0, r0, ip, lsl #18
    4230:	08fb0408 	ldmeq	fp!, {r3, sl}^
    4234:	7d0d0000 	stcvc	0, cr0, [sp, #-0]
    4238:	22000006 	andcs	r0, r0, #6
    423c:	0e000009 	cdpeq	0, 0, cr0, cr0, cr9, {0}
    4240:	0000005d 	andeq	r0, r0, sp, asr r0
    4244:	93210002 			; <UNDEFINED> instruction: 0x93210002
    4248:	06000004 	streq	r0, [r0], -r4
    424c:	9b17032e 	blls	5c4f0c <__bss_end__+0x5bae9c>
    4250:	21000004 	tstcs	r0, r4
    4254:	0000048c 	andeq	r0, r0, ip, lsl #9
    4258:	1d032f06 	stcne	15, cr2, [r3, #-24]	; 0xffffffe8
    425c:	000004a1 	andeq	r0, r0, r1, lsr #9
    4260:	00005617 	andeq	r5, r0, r7, lsl r6
    4264:	00094b00 	andeq	r4, r9, r0, lsl #22
    4268:	00561800 	subseq	r1, r6, r0, lsl #16
    426c:	22000000 	andcs	r0, r0, #0
    4270:	000001df 	ldrdeq	r0, [r0], -pc	; <UNPREDICTABLE>
    4274:	570e1d07 	strpl	r1, [lr, -r7, lsl #26]
    4278:	08000009 	stmdaeq	r0, {r0, r3}
    427c:	00093c04 	andeq	r3, r9, r4, lsl #24
    4280:	00561700 	subseq	r1, r6, r0, lsl #14
    4284:	096c0000 	stmdbeq	ip!, {}^	; <UNPREDICTABLE>
    4288:	13180000 	tstne	r8, #0
    428c:	00000006 	andeq	r0, r0, r6
    4290:	00078622 	andeq	r8, r7, r2, lsr #12
    4294:	0e220700 	cdpeq	7, 2, cr0, cr2, cr0, {0}
    4298:	00000978 	andeq	r0, r0, r8, ror r9
    429c:	095d0408 	ldmdbeq	sp, {r3, sl}^
    42a0:	1d230000 	stcne	0, cr0, [r3, #-0]
    42a4:	01000007 	tsteq	r0, r7
    42a8:	00560506 	subseq	r0, r6, r6, lsl #10
    42ac:	8abc0000 	bhi	fef042b4 <__bss_end__+0xfeefa244>
    42b0:	00580000 	subseq	r0, r8, r0
    42b4:	9c010000 	stcls	0, cr0, [r1], {-0}
    42b8:	00000a11 	andeq	r0, r0, r1, lsl sl
    42bc:	746d6624 	strbtvc	r6, [sp], #-1572	; 0xfffff9dc
    42c0:	18060100 	stmdane	r6, {r8}
    42c4:	00000613 	andeq	r0, r0, r3, lsl r6
    42c8:	25709102 	ldrbcs	r9, [r0, #-258]!	; 0xfffffefe
    42cc:	66756226 	ldrbtvs	r6, [r5], -r6, lsr #4
    42d0:	11080100 	mrsne	r0, (UNDEF: 24)
    42d4:	00000a11 	andeq	r0, r0, r1, lsl sl
    42d8:	9c700305 	ldclls	3, cr0, [r0], #-20	; 0xffffffec
    42dc:	18270000 	stmdane	r7!, {}	; <UNPREDICTABLE>
    42e0:	01000001 	tsteq	r0, r1
    42e4:	004a0d09 	subeq	r0, sl, r9, lsl #26
    42e8:	91020000 	mrsls	r0, (UNDEF: 2)
    42ec:	7a73285c 	bvc	1cce464 <__bss_end__+0x1cc43f4>
    42f0:	0d0c0100 	stfeqs	f0, [ip, #-0]
    42f4:	00000056 	andeq	r0, r0, r6, asr r0
    42f8:	00000b28 	andeq	r0, r0, r8, lsr #22
    42fc:	00000b22 	andeq	r0, r0, r2, lsr #22
    4300:	008ae429 	addeq	lr, sl, r9, lsr #8
    4304:	000a2200 	andeq	r2, sl, r0, lsl #4
    4308:	000a0400 	andeq	r0, sl, r0, lsl #8
    430c:	50012a00 	andpl	r2, r1, r0, lsl #20
    4310:	2a007502 	bcs	21720 <__bss_end__+0x176b0>
    4314:	0a035101 	beq	d8720 <__bss_end__+0xce6b0>
    4318:	012a0400 			; <UNDEFINED> instruction: 0x012a0400
    431c:	48910352 	ldmmi	r1, {r1, r4, r6, r8, r9}
    4320:	53012a06 	movwpl	r2, #6662	; 0x1a06
    4324:	004c9102 	subeq	r9, ip, r2, lsl #2
    4328:	008af82b 	addeq	pc, sl, fp, lsr #16
    432c:	50012a00 	andpl	r2, r1, r0, lsl #20
    4330:	00007502 	andeq	r7, r0, r2, lsl #10
    4334:	014c0d00 	cmpeq	ip, r0, lsl #26
    4338:	0a220000 	beq	884340 <__bss_end__+0x87a2d0>
    433c:	5d2c0000 	stcpl	0, cr0, [ip, #-0]
    4340:	ff000000 			; <UNDEFINED> instruction: 0xff000000
    4344:	1a2d0003 	bne	b44358 <__bss_end__+0xb3a2e8>
    4348:	1a000007 	bne	436c <_start-0x3c94>
    434c:	09000007 	stmdbeq	r0, {r0, r1, r2}
    4350:	d9000502 	stmdble	r0, {r1, r8, sl}
    4354:	04000009 	streq	r0, [r0], #-9
    4358:	000c5800 	andeq	r5, ip, r0, lsl #16
    435c:	02010400 	andeq	r0, r1, #0, 8
    4360:	0c000003 	stceq	0, cr0, [r0], {3}
    4364:	0000076e 	andeq	r0, r0, lr, ror #14
    4368:	000006df 	ldrdeq	r0, [r0], -pc	; <UNPREDICTABLE>
    436c:	00008b14 	andeq	r8, r0, r4, lsl fp
    4370:	0000003c 	andeq	r0, r0, ip, lsr r0
    4374:	00000d30 	andeq	r0, r0, r0, lsr sp
    4378:	69050402 	stmdbvs	r5, {r1, sl}
    437c:	0300746e 	movweq	r7, #1134	; 0x46e
    4380:	00740704 	rsbseq	r0, r4, r4, lsl #14
    4384:	01030000 	mrseq	r0, (UNDEF: 3)
    4388:	0002f106 	andeq	pc, r2, r6, lsl #2
    438c:	05020300 	streq	r0, [r2, #-768]	; 0xfffffd00
    4390:	0000038a 	andeq	r0, r0, sl, lsl #7
    4394:	ba050403 	blt	1453a8 <__bss_end__+0x13b338>
    4398:	03000000 	movweq	r0, #0
    439c:	00b50508 	adcseq	r0, r5, r8, lsl #10
    43a0:	01030000 	mrseq	r0, (UNDEF: 3)
    43a4:	0002ef08 	andeq	lr, r2, r8, lsl #30
    43a8:	07020300 	streq	r0, [r2, -r0, lsl #6]
    43ac:	00000230 	andeq	r0, r0, r0, lsr r2
    43b0:	6f070403 	svcvs	0x00070403
    43b4:	03000000 	movweq	r0, #0
    43b8:	006a0708 	rsbeq	r0, sl, r8, lsl #14
    43bc:	73040000 	movwvc	r0, #16384	; 0x4000
    43c0:	02000002 	andeq	r0, r0, #2
    43c4:	00771922 	rsbseq	r1, r7, r2, lsr #18
    43c8:	04050000 	streq	r0, [r5], #-0
    43cc:	0000007d 	andeq	r0, r0, sp, ror r0
    43d0:	00043006 	andeq	r3, r4, r6
    43d4:	02d00400 	sbcseq	r0, r0, #0, 8
    43d8:	2c030000 	stccs	0, cr0, [r3], {-0}
    43dc:	0000410e 	andeq	r4, r0, lr, lsl #2
    43e0:	04450400 	strbeq	r0, [r5], #-1024	; 0xfffffc00
    43e4:	72030000 	andvc	r0, r3, #0
    43e8:	0000410e 	andeq	r4, r0, lr, lsl #2
    43ec:	027b0700 	rsbseq	r0, fp, #0, 14
    43f0:	5e040000 	cdppl	0, 0, cr0, cr4, cr0, {0}
    43f4:	002c1701 	eoreq	r1, ip, r1, lsl #14
    43f8:	04080000 	streq	r0, [r8], #-0
    43fc:	c903a603 	stmdbgt	r3, {r0, r1, r9, sl, sp, pc}
    4400:	09000000 	stmdbeq	r0, {}	; <UNPREDICTABLE>
    4404:	0000026d 	andeq	r0, r0, sp, ror #4
    4408:	9a0ca803 	bls	32e41c <__bss_end__+0x3243ac>
    440c:	09000000 	stmdbeq	r0, {}	; <UNPREDICTABLE>
    4410:	000001f0 	strdeq	r0, [r0], -r0	; <UNPREDICTABLE>
    4414:	c913a903 	ldmdbgt	r3, {r0, r1, r8, fp, sp, pc}
    4418:	00000000 	andeq	r0, r0, r0
    441c:	00004f0a 	andeq	r4, r0, sl, lsl #30
    4420:	0000d900 	andeq	sp, r0, r0, lsl #18
    4424:	002c0b00 	eoreq	r0, ip, r0, lsl #22
    4428:	00030000 	andeq	r0, r3, r0
    442c:	a303080c 	movwge	r0, #14348	; 0x380c
    4430:	0000fd09 	andeq	pc, r0, r9, lsl #26
    4434:	04280d00 	strteq	r0, [r8], #-3328	; 0xfffff300
    4438:	a5030000 	strge	r0, [r3, #-0]
    443c:	00002507 	andeq	r2, r0, r7, lsl #10
    4440:	370d0000 	strcc	r0, [sp, -r0]
    4444:	03000004 	movweq	r0, #4
    4448:	00a705aa 	adceq	r0, r7, sl, lsr #11
    444c:	00040000 	andeq	r0, r4, r0
    4450:	0003b204 	andeq	fp, r3, r4, lsl #4
    4454:	03ab0300 			; <UNDEFINED> instruction: 0x03ab0300
    4458:	000000d9 	ldrdeq	r0, [r0], -r9
    445c:	0001ad04 	andeq	sl, r1, r4, lsl #26
    4460:	1baf0300 	blne	febc5068 <__bss_end__+0xfebbaff8>
    4464:	0000006b 	andeq	r0, r0, fp, rrx
    4468:	0405040e 	streq	r0, [r5], #-1038	; 0xfffffbf2
    446c:	0000011d 	andeq	r0, r0, sp, lsl r1
    4470:	f8080103 			; <UNDEFINED> instruction: 0xf8080103
    4474:	0f000002 	svceq	0x00000002
    4478:	0000011d 	andeq	r0, r0, sp, lsl r1
    447c:	00047704 	andeq	r7, r4, r4, lsl #14
    4480:	19160500 	ldmdbne	r6, {r8, sl}
    4484:	0000005d 	andeq	r0, r0, sp, asr r0
    4488:	0001be10 	andeq	fp, r1, r0, lsl lr
    448c:	2f051800 	svccs	0x00051800
    4490:	00018f08 	andeq	r8, r1, r8, lsl #30
    4494:	03d30d00 	bicseq	r0, r3, #0, 26
    4498:	31050000 	mrscc	r0, (UNDEF: 5)
    449c:	00018f13 	andeq	r8, r1, r3, lsl pc
    44a0:	5f110000 	svcpl	0x00110000
    44a4:	3205006b 	andcc	r0, r5, #107	; 0x6b
    44a8:	00002507 	andeq	r2, r0, r7, lsl #10
    44ac:	130d0400 	movwne	r0, #54272	; 0xd400
    44b0:	05000004 	streq	r0, [r0, #-4]
    44b4:	00250b32 	eoreq	r0, r5, r2, lsr fp
    44b8:	0d080000 	stceq	0, cr0, [r8, #-0]
    44bc:	000001a7 	andeq	r0, r0, r7, lsr #3
    44c0:	25143205 	ldrcs	r3, [r4, #-517]	; 0xfffffdfb
    44c4:	0c000000 	stceq	0, cr0, [r0], {-0}
    44c8:	0004b30d 	andeq	fp, r4, sp, lsl #6
    44cc:	1b320500 	blne	c858d4 <__bss_end__+0xc7b864>
    44d0:	00000025 	andeq	r0, r0, r5, lsr #32
    44d4:	785f1110 	ldmdavc	pc, {r4, r8, ip}^	; <UNPREDICTABLE>
    44d8:	0b330500 	bleq	cc58e0 <__bss_end__+0xcbb870>
    44dc:	00000195 	muleq	r0, r5, r1
    44e0:	04050014 	streq	r0, [r5], #-20	; 0xffffffec
    44e4:	00000135 	andeq	r0, r0, r5, lsr r1
    44e8:	0001290a 	andeq	r2, r1, sl, lsl #18
    44ec:	0001a500 	andeq	sl, r1, r0, lsl #10
    44f0:	002c0b00 	eoreq	r0, ip, r0, lsl #22
    44f4:	00000000 	andeq	r0, r0, r0
    44f8:	0001eb10 	andeq	lr, r1, r0, lsl fp
    44fc:	37052400 	strcc	r2, [r5, -r0, lsl #8]
    4500:	00022808 	andeq	r2, r2, r8, lsl #16
    4504:	00ac0d00 	adceq	r0, ip, r0, lsl #26
    4508:	39050000 	stmdbcc	r5, {}	; <UNPREDICTABLE>
    450c:	00002509 	andeq	r2, r0, r9, lsl #10
    4510:	4d0d0000 	stcmi	0, cr0, [sp, #-0]
    4514:	05000004 	streq	r0, [r0, #-4]
    4518:	0025093a 	eoreq	r0, r5, sl, lsr r9
    451c:	0d040000 	stceq	0, cr0, [r4, #-0]
    4520:	000000cf 	andeq	r0, r0, pc, asr #1
    4524:	25093b05 	strcs	r3, [r9, #-2821]	; 0xfffff4fb
    4528:	08000000 	stmdaeq	r0, {}	; <UNPREDICTABLE>
    452c:	0005340d 	andeq	r3, r5, sp, lsl #8
    4530:	093c0500 	ldmdbeq	ip!, {r8, sl}
    4534:	00000025 	andeq	r0, r0, r5, lsr #32
    4538:	02b40d0c 	adcseq	r0, r4, #12, 26	; 0x300
    453c:	3d050000 	stccc	0, cr0, [r5, #-0]
    4540:	00002509 	andeq	r2, r0, r9, lsl #10
    4544:	960d1000 	strls	r1, [sp], -r0
    4548:	05000002 	streq	r0, [r0, #-2]
    454c:	0025093e 	eoreq	r0, r5, lr, lsr r9
    4550:	0d140000 	ldceq	0, cr0, [r4, #-0]
    4554:	000004b8 			; <UNDEFINED> instruction: 0x000004b8
    4558:	25093f05 	strcs	r3, [r9, #-3845]	; 0xfffff0fb
    455c:	18000000 	stmdane	r0, {}	; <UNPREDICTABLE>
    4560:	0003940d 	andeq	r9, r3, sp, lsl #8
    4564:	09400500 	stmdbeq	r0, {r8, sl}^
    4568:	00000025 	andeq	r0, r0, r5, lsr #32
    456c:	04fb0d1c 	ldrbteq	r0, [fp], #3356	; 0xd1c
    4570:	41050000 	mrsmi	r0, (UNDEF: 5)
    4574:	00002509 	andeq	r2, r0, r9, lsl #10
    4578:	12002000 	andne	r2, r0, #0
    457c:	0000010f 	andeq	r0, r0, pc, lsl #2
    4580:	4a050108 	bmi	1449a8 <__bss_end__+0x13a938>
    4584:	00026d08 	andeq	r6, r2, r8, lsl #26
    4588:	019a0d00 	orrseq	r0, sl, r0, lsl #26
    458c:	4b050000 	blmi	144594 <__bss_end__+0x13a524>
    4590:	00026d0a 	andeq	r6, r2, sl, lsl #26
    4594:	000d0000 	andeq	r0, sp, r0
    4598:	05000000 	streq	r0, [r0, #-0]
    459c:	026d094c 	rsbeq	r0, sp, #76, 18	; 0x130000
    45a0:	13800000 	orrne	r0, r0, #0
    45a4:	00000469 	andeq	r0, r0, r9, ror #8
    45a8:	290a4e05 	stmdbcs	sl, {r0, r2, r9, sl, fp, lr}
    45ac:	00000001 	andeq	r0, r0, r1
    45b0:	01341301 	teqeq	r4, r1, lsl #6
    45b4:	51050000 	mrspl	r0, (UNDEF: 5)
    45b8:	0001290a 	andeq	r2, r1, sl, lsl #18
    45bc:	00010400 	andeq	r0, r1, r0, lsl #8
    45c0:	0001150a 	andeq	r1, r1, sl, lsl #10
    45c4:	00027d00 	andeq	r7, r2, r0, lsl #26
    45c8:	002c0b00 	eoreq	r0, ip, r0, lsl #22
    45cc:	001f0000 	andseq	r0, pc, r0
    45d0:	0002bd12 	andeq	fp, r2, r2, lsl sp
    45d4:	05019000 	streq	r9, [r1, #-0]
    45d8:	02c0085d 	sbceq	r0, r0, #6094848	; 0x5d0000
    45dc:	d30d0000 	movwle	r0, #53248	; 0xd000
    45e0:	05000003 	streq	r0, [r0, #-3]
    45e4:	02c0125e 	sbceq	r1, r0, #-536870907	; 0xe0000005
    45e8:	0d000000 	stceq	0, cr0, [r0, #-0]
    45ec:	000003eb 	andeq	r0, r0, fp, ror #7
    45f0:	25065f05 	strcs	r5, [r6, #-3845]	; 0xfffff0fb
    45f4:	04000000 	streq	r0, [r0], #-0
    45f8:	0001a20d 	andeq	sl, r1, sp, lsl #4
    45fc:	09610500 	stmdbeq	r1!, {r8, sl}^
    4600:	000002c6 	andeq	r0, r0, r6, asr #5
    4604:	010f0d08 	tsteq	pc, r8, lsl #26
    4608:	62050000 	andvs	r0, r5, #0
    460c:	0002281e 	andeq	r2, r2, lr, lsl r8
    4610:	05008800 	streq	r8, [r0, #-2048]	; 0xfffff800
    4614:	00027d04 	andeq	r7, r2, r4, lsl #26
    4618:	02d60a00 	sbcseq	r0, r6, #0, 20
    461c:	02d60000 	sbcseq	r0, r6, #0
    4620:	2c0b0000 	stccs	0, cr0, [fp], {-0}
    4624:	1f000000 	svcne	0x00000000
    4628:	dc040500 	cfstr32le	mvfx0, [r4], {-0}
    462c:	14000002 	strne	r0, [r0], #-2
    4630:	00039e10 	andeq	r9, r3, r0, lsl lr
    4634:	75050800 	strvc	r0, [r5, #-2048]	; 0xfffff800
    4638:	00030508 	andeq	r0, r3, r8, lsl #10
    463c:	00c90d00 	sbceq	r0, r9, r0, lsl #26
    4640:	76050000 	strvc	r0, [r5], -r0
    4644:	00030511 	andeq	r0, r3, r1, lsl r5
    4648:	1b0d0000 	blne	344650 <__bss_end__+0x33a5e0>
    464c:	05000000 	streq	r0, [r0, #-0]
    4650:	00250677 	eoreq	r0, r5, r7, ror r6
    4654:	00040000 	andeq	r0, r4, r0
    4658:	004f0405 	subeq	r0, pc, r5, lsl #8
    465c:	bd100000 	ldclt	0, cr0, [r0, #-0]
    4660:	68000003 	stmdavs	r0, {r0, r1}
    4664:	4e08b505 	cfsh32mi	mvfx11, mvfx8, #5
    4668:	11000004 	tstne	r0, r4
    466c:	0500705f 	streq	r7, [r0, #-95]	; 0xffffffa1
    4670:	030512b6 	movweq	r1, #21174	; 0x52b6
    4674:	11000000 	mrsne	r0, (UNDEF: 0)
    4678:	0500725f 	streq	r7, [r0, #-607]	; 0xfffffda1
    467c:	002507b7 	strhteq	r0, [r5], -r7
    4680:	11040000 	mrsne	r0, (UNDEF: 4)
    4684:	0500775f 	streq	r7, [r0, #-1887]	; 0xfffff8a1
    4688:	002507b8 	strhteq	r0, [r5], -r8
    468c:	0d080000 	stceq	0, cr0, [r8, #-0]
    4690:	0000012d 	andeq	r0, r0, sp, lsr #2
    4694:	3a09b905 	bcc	272ab0 <__bss_end__+0x268a40>
    4698:	0c000000 	stceq	0, cr0, [r0], {-0}
    469c:	0002160d 	andeq	r1, r2, sp, lsl #12
    46a0:	09ba0500 	ldmibeq	sl!, {r8, sl}
    46a4:	0000003a 	andeq	r0, r0, sl, lsr r0
    46a8:	625f110e 	subsvs	r1, pc, #-2147483645	; 0x80000003
    46ac:	bb050066 	bllt	14484c <__bss_end__+0x13a7dc>
    46b0:	0002dd11 	andeq	sp, r2, r1, lsl sp
    46b4:	890d1000 	stmdbhi	sp, {ip}
    46b8:	05000000 	streq	r0, [r0, #-0]
    46bc:	002507bc 	strhteq	r0, [r5], -ip
    46c0:	0d180000 	ldceq	0, cr0, [r8, #-0]
    46c4:	0000011d 	andeq	r0, r0, sp, lsl r1
    46c8:	150ac305 	strne	ip, [sl, #-773]	; 0xfffffcfb
    46cc:	1c000001 	stcne	0, cr0, [r0], {1}
    46d0:	000b420d 	andeq	r4, fp, sp, lsl #4
    46d4:	1dc50500 	cfstr64ne	mvdx0, [r5]
    46d8:	000005c0 	andeq	r0, r0, r0, asr #11
    46dc:	06370d20 	ldrteq	r0, [r7], -r0, lsr #26
    46e0:	c7050000 	strgt	r0, [r5, -r0]
    46e4:	0005ea1d 	andeq	lr, r5, sp, lsl sl
    46e8:	3f0d2400 	svccc	0x000d2400
    46ec:	05000004 	streq	r0, [r0, #-4]
    46f0:	060e0dca 	streq	r0, [lr], -sl, asr #27
    46f4:	0d280000 	stceq	0, cr0, [r8, #-0]
    46f8:	00000515 	andeq	r0, r0, r5, lsl r5
    46fc:	2809cb05 	stmdacs	r9, {r0, r2, r8, r9, fp, lr, pc}
    4700:	2c000006 	stccs	0, cr0, [r0], {6}
    4704:	62755f11 	rsbsvs	r5, r5, #17, 30	; 0x44
    4708:	11ce0500 	bicne	r0, lr, r0, lsl #10
    470c:	000002dd 	ldrdeq	r0, [r0], -sp
    4710:	755f1130 	ldrbvc	r1, [pc, #-304]	; 45e8 <_start-0x3a18>
    4714:	cf050070 	svcgt	0x00050070
    4718:	00030512 	andeq	r0, r3, r2, lsl r5
    471c:	5f113800 	svcpl	0x00113800
    4720:	05007275 	streq	r7, [r0, #-629]	; 0xfffffd8b
    4724:	002507d0 	ldrdeq	r0, [r5], -r0	; <UNPREDICTABLE>
    4728:	0d3c0000 	ldceq	0, cr0, [ip, #-0]
    472c:	000000c3 	andeq	r0, r0, r3, asr #1
    4730:	2e11d305 	cdpcs	3, 1, cr13, cr1, cr5, {0}
    4734:	40000006 	andmi	r0, r0, r6
    4738:	0004ed0d 	andeq	lr, r4, sp, lsl #26
    473c:	11d40500 	bicsne	r0, r4, r0, lsl #10
    4740:	0000063e 	andeq	r0, r0, lr, lsr r6
    4744:	6c5f1143 	ldfvse	f1, [pc], {67}	; 0x43
    4748:	d7050062 	strle	r0, [r5, -r2, rrx]
    474c:	0002dd11 	andeq	sp, r2, r1, lsl sp
    4750:	4b0d4400 	blmi	355758 <__bss_end__+0x34b6e8>
    4754:	05000001 	streq	r0, [r0, #-1]
    4758:	002507da 	ldrdeq	r0, [r5], -sl	; <UNPREDICTABLE>
    475c:	0d4c0000 	stcleq	0, cr0, [ip, #-0]
    4760:	0000015c 	andeq	r0, r0, ip, asr r1
    4764:	820adb05 	andhi	sp, sl, #5120	; 0x1400
    4768:	50000000 	andpl	r0, r0, r0
    476c:	000ae30d 	andeq	lr, sl, sp, lsl #6
    4770:	12de0500 	sbcsne	r0, lr, #0, 10
    4774:	0000046c 	andeq	r0, r0, ip, ror #8
    4778:	04310d54 	ldrteq	r0, [r1], #-3412	; 0xfffff2ac
    477c:	e2050000 	and	r0, r5, #0
    4780:	0001090c 	andeq	r0, r1, ip, lsl #18
    4784:	c50d5800 	strgt	r5, [sp, #-2048]	; 0xfffff800
    4788:	05000003 	streq	r0, [r0, #-3]
    478c:	00fd0ee4 	rscseq	r0, sp, r4, ror #29
    4790:	0d5c0000 	ldcleq	0, cr0, [ip, #-0]
    4794:	0000028e 	andeq	r0, r0, lr, lsl #5
    4798:	2509e505 	strcs	lr, [r9, #-1285]	; 0xfffffafb
    479c:	64000000 	strvs	r0, [r0], #-0
    47a0:	00251500 	eoreq	r1, r5, r0, lsl #10
    47a4:	046c0000 	strbteq	r0, [ip], #-0
    47a8:	6c160000 	ldcvs	0, cr0, [r6], {-0}
    47ac:	16000004 	strne	r0, [r0], -r4
    47b0:	00000115 	andeq	r0, r0, r5, lsl r1
    47b4:	00011716 	andeq	r1, r1, r6, lsl r7
    47b8:	00251600 	eoreq	r1, r5, r0, lsl #12
    47bc:	05000000 	streq	r0, [r0, #-0]
    47c0:	00047704 	andeq	r7, r4, r4, lsl #14
    47c4:	046c0f00 	strbteq	r0, [ip], #-3840	; 0xfffff100
    47c8:	1b170000 	blne	5c47d0 <__bss_end__+0x5ba760>
    47cc:	28000004 	stmdacs	r0, {r2}
    47d0:	02600504 	rsbeq	r0, r0, #4, 10	; 0x1000000
    47d4:	0005c008 	andeq	ip, r5, r8
    47d8:	03831800 	orreq	r1, r3, #0, 16
    47dc:	62050000 	andvs	r0, r5, #0
    47e0:	00250702 	eoreq	r0, r5, r2, lsl #14
    47e4:	18000000 	stmdane	r0, {}	; <UNPREDICTABLE>
    47e8:	0000013c 	andeq	r0, r0, ip, lsr r1
    47ec:	0b026705 	bleq	9e408 <__bss_end__+0x94398>
    47f0:	0000069a 	muleq	r0, sl, r6
    47f4:	02061804 	andeq	r1, r6, #4, 16	; 0x40000
    47f8:	67050000 	strvs	r0, [r5, -r0]
    47fc:	069a1402 	ldreq	r1, [sl], r2, lsl #8
    4800:	18080000 	stmdane	r8, {}	; <UNPREDICTABLE>
    4804:	000001b6 			; <UNDEFINED> instruction: 0x000001b6
    4808:	1e026705 	cdpne	7, 0, cr6, cr2, cr5, {0}
    480c:	0000069a 	muleq	r0, sl, r6
    4810:	03e6180c 	mvneq	r1, #12, 16	; 0xc0000
    4814:	69050000 	stmdbvs	r5, {}	; <UNPREDICTABLE>
    4818:	00250802 	eoreq	r0, r5, r2, lsl #16
    481c:	18100000 	ldmdane	r0, {}	; <UNPREDICTABLE>
    4820:	00000037 	andeq	r0, r0, r7, lsr r0
    4824:	08026a05 	stmdaeq	r2, {r0, r2, r9, fp, sp, lr}
    4828:	0000089a 	muleq	r0, sl, r8
    482c:	03fa1814 	mvnseq	r1, #20, 16	; 0x140000
    4830:	6d050000 	stcvs	0, cr0, [r5, #-0]
    4834:	00250702 	eoreq	r0, r5, r2, lsl #14
    4838:	18300000 	ldmdane	r0!, {}	; <UNPREDICTABLE>
    483c:	00000a1f 	andeq	r0, r0, pc, lsl sl
    4840:	16026e05 	strne	r6, [r2], -r5, lsl #28
    4844:	000008af 	andeq	r0, r0, pc, lsr #17
    4848:	02c51834 	sbceq	r1, r5, #52, 16	; 0x340000
    484c:	70050000 	andvc	r0, r5, r0
    4850:	00250702 	eoreq	r0, r5, r2, lsl #14
    4854:	18380000 	ldmdane	r8!, {}	; <UNPREDICTABLE>
    4858:	000003f0 	strdeq	r0, [r0], -r0	; <UNPREDICTABLE>
    485c:	0a027205 	beq	a1078 <__bss_end__+0x97008>
    4860:	000008c0 	andeq	r0, r0, r0, asr #17
    4864:	0265183c 	rsbeq	r1, r5, #60, 16	; 0x3c0000
    4868:	75050000 	strvc	r0, [r5, #-0]
    486c:	018f1302 	orreq	r1, pc, r2, lsl #6
    4870:	18400000 	stmdane	r0, {}^	; <UNPREDICTABLE>
    4874:	000001d5 	ldrdeq	r0, [r0], -r5
    4878:	07027605 	streq	r7, [r2, -r5, lsl #12]
    487c:	00000025 	andeq	r0, r0, r5, lsr #32
    4880:	052f1844 	streq	r1, [pc, #-2116]!	; 4044 <_start-0x3fbc>
    4884:	77050000 	strvc	r0, [r5, -r0]
    4888:	018f1302 	orreq	r1, pc, r2, lsl #6
    488c:	18480000 	stmdane	r8, {}^	; <UNPREDICTABLE>
    4890:	000002d7 	ldrdeq	r0, [r0], -r7
    4894:	14027805 	strne	r7, [r2], #-2053	; 0xfffff7fb
    4898:	000008c6 	andeq	r0, r0, r6, asr #17
    489c:	020e184c 	andeq	r1, lr, #76, 16	; 0x4c0000
    48a0:	7b050000 	blvc	1448a8 <__bss_end__+0x13a838>
    48a4:	00250702 	eoreq	r0, r5, r2, lsl #14
    48a8:	18500000 	ldmdane	r0, {}^	; <UNPREDICTABLE>
    48ac:	00000154 	andeq	r0, r0, r4, asr r1
    48b0:	09027c05 	stmdbeq	r2, {r0, r2, sl, fp, ip, sp, lr}
    48b4:	00000117 	andeq	r0, r0, r7, lsl r1
    48b8:	02fd1854 	rscseq	r1, sp, #84, 16	; 0x540000
    48bc:	9f050000 	svcls	0x00050000
    48c0:	08750702 	ldmdaeq	r5!, {r1, r8, r9, sl}^
    48c4:	19580000 	ldmdbne	r8, {}^	; <UNPREDICTABLE>
    48c8:	000002bd 			; <UNDEFINED> instruction: 0x000002bd
    48cc:	1302a305 	movwne	sl, #8965	; 0x2305
    48d0:	000002c0 	andeq	r0, r0, r0, asr #5
    48d4:	43190148 	tstmi	r9, #72, 2
    48d8:	05000002 	streq	r0, [r0, #-2]
    48dc:	7d1202a4 	lfmvc	f0, 4, [r2, #-656]	; 0xfffffd70
    48e0:	4c000002 	stcmi	0, cr0, [r0], {2}
    48e4:	04db1901 	ldrbeq	r1, [fp], #2305	; 0x901
    48e8:	a8050000 	stmdage	r5, {}	; <UNPREDICTABLE>
    48ec:	08d70c02 	ldmeq	r7, {r1, sl, fp}^
    48f0:	02dc0000 	sbcseq	r0, ip, #0
    48f4:	00012519 	andeq	r2, r1, r9, lsl r5
    48f8:	02ad0500 	adceq	r0, sp, #0, 10
    48fc:	00065b10 	andeq	r5, r6, r0, lsl fp
    4900:	1902e000 	stmdbne	r2, {sp, lr, pc}
    4904:	0000010a 	andeq	r0, r0, sl, lsl #2
    4908:	0a02af05 	beq	b0524 <__bss_end__+0xa64b4>
    490c:	000008e3 	andeq	r0, r0, r3, ror #17
    4910:	050002ec 	streq	r0, [r0, #-748]	; 0xfffffd14
    4914:	00044e04 	andeq	r4, r4, r4, lsl #28
    4918:	00251500 	eoreq	r1, r5, r0, lsl #10
    491c:	05e40000 	strbeq	r0, [r4, #0]!
    4920:	6c160000 	ldcvs	0, cr0, [r6], {-0}
    4924:	16000004 	strne	r0, [r0], -r4
    4928:	00000115 	andeq	r0, r0, r5, lsl r1
    492c:	0005e416 	andeq	lr, r5, r6, lsl r4
    4930:	00251600 	eoreq	r1, r5, r0, lsl #12
    4934:	05000000 	streq	r0, [r0, #-0]
    4938:	00012404 	andeq	r2, r1, r4, lsl #8
    493c:	c6040500 	strgt	r0, [r4], -r0, lsl #10
    4940:	15000005 	strne	r0, [r0, #-5]
    4944:	0000008e 	andeq	r0, r0, lr, lsl #1
    4948:	0000060e 	andeq	r0, r0, lr, lsl #12
    494c:	00046c16 	andeq	r6, r4, r6, lsl ip
    4950:	01151600 	tsteq	r5, r0, lsl #12
    4954:	8e160000 	cdphi	0, 1, cr0, cr6, cr0, {0}
    4958:	16000000 	strne	r0, [r0], -r0
    495c:	00000025 	andeq	r0, r0, r5, lsr #32
    4960:	f0040500 			; <UNDEFINED> instruction: 0xf0040500
    4964:	15000005 	strne	r0, [r0, #-5]
    4968:	00000025 	andeq	r0, r0, r5, lsr #32
    496c:	00000628 	andeq	r0, r0, r8, lsr #12
    4970:	00046c16 	andeq	r6, r4, r6, lsl ip
    4974:	01151600 	tsteq	r5, r0, lsl #12
    4978:	05000000 	streq	r0, [r0, #-0]
    497c:	00061404 	andeq	r1, r6, r4, lsl #8
    4980:	004f0a00 	subeq	r0, pc, r0, lsl #20
    4984:	063e0000 	ldrteq	r0, [lr], -r0
    4988:	2c0b0000 	stccs	0, cr0, [fp], {-0}
    498c:	02000000 	andeq	r0, r0, #0
    4990:	004f0a00 	subeq	r0, pc, r0, lsl #20
    4994:	064e0000 	strbeq	r0, [lr], -r0
    4998:	2c0b0000 	stccs	0, cr0, [fp], {-0}
    499c:	00000000 	andeq	r0, r0, r0
    49a0:	03ab0700 			; <UNDEFINED> instruction: 0x03ab0700
    49a4:	1f050000 	svcne	0x00050000
    49a8:	030b1a01 	movweq	r1, #47617	; 0xba01
    49ac:	c21a0000 	andsgt	r0, sl, #0
    49b0:	0c000004 	stceq	0, cr0, [r0], {4}
    49b4:	08012305 	stmdaeq	r1, {r0, r2, r8, r9, sp}
    49b8:	00000694 	muleq	r0, r4, r6
    49bc:	0003d318 	andeq	sp, r3, r8, lsl r3
    49c0:	01250500 			; <UNDEFINED> instruction: 0x01250500
    49c4:	00069411 	andeq	r9, r6, r1, lsl r4
    49c8:	29180000 	ldmdbcs	r8, {}	; <UNPREDICTABLE>
    49cc:	05000002 	streq	r0, [r0, #-2]
    49d0:	25070126 	strcs	r0, [r7, #-294]	; 0xfffffeda
    49d4:	04000000 	streq	r0, [r0], #-0
    49d8:	0003a518 	andeq	sl, r3, r8, lsl r5
    49dc:	01270500 			; <UNDEFINED> instruction: 0x01270500
    49e0:	00069a0b 	andeq	r9, r6, fp, lsl #20
    49e4:	05000800 	streq	r0, [r0, #-2048]	; 0xfffff800
    49e8:	00065b04 	andeq	r5, r6, r4, lsl #22
    49ec:	4e040500 	cfsh32mi	mvfx0, mvfx4, #0
    49f0:	1a000006 	bne	4a10 <_start-0x35f0>
    49f4:	0000002f 	andeq	r0, r0, pc, lsr #32
    49f8:	013f050e 	teqeq	pc, lr, lsl #10
    49fc:	0006d908 	andeq	sp, r6, r8, lsl #18
    4a00:	04221800 	strteq	r1, [r2], #-2048	; 0xfffff800
    4a04:	40050000 	andmi	r0, r5, r0
    4a08:	06d91201 	ldrbeq	r1, [r9], r1, lsl #4
    4a0c:	18000000 	stmdane	r0, {}	; <UNPREDICTABLE>
    4a10:	00000456 	andeq	r0, r0, r6, asr r4
    4a14:	12014105 	andne	r4, r1, #1073741825	; 0x40000001
    4a18:	000006d9 	ldrdeq	r0, [r0], -r9
    4a1c:	04721806 	ldrbteq	r1, [r2], #-2054	; 0xfffff7fa
    4a20:	42050000 	andmi	r0, r5, #0
    4a24:	00561201 	subseq	r1, r6, r1, lsl #4
    4a28:	000c0000 	andeq	r0, ip, r0
    4a2c:	0000560a 	andeq	r5, r0, sl, lsl #12
    4a30:	0006e900 	andeq	lr, r6, r0, lsl #18
    4a34:	002c0b00 	eoreq	r0, ip, r0, lsl #22
    4a38:	00020000 	andeq	r0, r2, r0
    4a3c:	8005d01b 	andhi	sp, r5, fp, lsl r0
    4a40:	07fe0702 	ldrbeq	r0, [lr, r2, lsl #14]!
    4a44:	a6180000 	ldrge	r0, [r8], -r0
    4a48:	05000004 	streq	r0, [r0, #-4]
    4a4c:	2c180282 	lfmcs	f0, 4, [r8], {130}	; 0x82
    4a50:	00000000 	andeq	r0, r0, r0
    4a54:	00045c18 	andeq	r5, r4, r8, lsl ip
    4a58:	02830500 	addeq	r0, r3, #0, 10
    4a5c:	00011712 	andeq	r1, r1, r2, lsl r7
    4a60:	58180400 	ldmdapl	r8, {sl}
    4a64:	05000002 	streq	r0, [r0, #-2]
    4a68:	fe100284 	cdp2	2, 1, cr0, cr0, cr4, {4}
    4a6c:	08000007 	stmdaeq	r0, {r0, r1, r2}
    4a70:	00050618 	andeq	r0, r5, r8, lsl r6
    4a74:	02850500 	addeq	r0, r5, #0, 10
    4a78:	0001a517 	andeq	sl, r1, r7, lsl r5
    4a7c:	c6182400 	ldrgt	r2, [r8], -r0, lsl #8
    4a80:	05000001 	streq	r0, [r0, #-1]
    4a84:	250f0286 	strcs	r0, [pc, #-646]	; 4806 <_start-0x37fa>
    4a88:	48000000 	stmdami	r0, {}	; <UNPREDICTABLE>
    4a8c:	0003ce18 	andeq	ip, r3, r8, lsl lr
    4a90:	02870500 	addeq	r0, r7, #0, 10
    4a94:	0000642c 	andeq	r6, r0, ip, lsr #8
    4a98:	1c185000 	ldcne	0, cr5, [r8], {-0}
    4a9c:	05000005 	streq	r0, [r0, #-5]
    4aa0:	a01a0288 	andsge	r0, sl, r8, lsl #5
    4aa4:	58000006 	stmdapl	r0, {r1, r2}
    4aa8:	0003d918 	andeq	sp, r3, r8, lsl r9
    4aac:	02890500 	addeq	r0, r9, #0, 10
    4ab0:	0000fd16 	andeq	pc, r0, r6, lsl sp	; <UNPREDICTABLE>
    4ab4:	21186800 	tstcs	r8, r0, lsl #16
    4ab8:	05000005 	streq	r0, [r0, #-5]
    4abc:	fd16028a 	ldc2	2, cr0, [r6, #-552]	; 0xfffffdd8
    4ac0:	70000000 	andvc	r0, r0, r0
    4ac4:	0002e118 	andeq	lr, r2, r8, lsl r1
    4ac8:	028b0500 	addeq	r0, fp, #0, 10
    4acc:	0000fd16 	andeq	pc, r0, r6, lsl sp	; <UNPREDICTABLE>
    4ad0:	d1187800 	tstle	r8, r0, lsl #16
    4ad4:	05000004 	streq	r0, [r0, #-4]
    4ad8:	0e10028c 	cdpeq	2, 1, cr0, cr0, cr12, {4}
    4adc:	80000008 	andhi	r0, r0, r8
    4ae0:	00024c18 	andeq	r4, r2, r8, lsl ip
    4ae4:	028d0500 	addeq	r0, sp, #0, 10
    4ae8:	00081e10 	andeq	r1, r8, r0, lsl lr
    4aec:	7f188800 	svcvc	0x00188800
    4af0:	05000004 	streq	r0, [r0, #-4]
    4af4:	250f028e 	strcs	r0, [pc, #-654]	; 486e <_start-0x3792>
    4af8:	a0000000 	andge	r0, r0, r0
    4afc:	00018c18 	andeq	r8, r1, r8, lsl ip
    4b00:	028f0500 	addeq	r0, pc, #0, 10
    4b04:	0000fd16 	andeq	pc, r0, r6, lsl sp	; <UNPREDICTABLE>
    4b08:	9d18a400 	cfldrsls	mvf10, [r8, #-0]
    4b0c:	05000000 	streq	r0, [r0, #-0]
    4b10:	fd160290 	ldc2	2, cr0, [r6, #-576]	; 0xfffffdc0
    4b14:	ac000000 	stcge	0, cr0, [r0], {-0}
    4b18:	00017b18 	andeq	r7, r1, r8, lsl fp
    4b1c:	02910500 	addseq	r0, r1, #0, 10
    4b20:	0000fd16 	andeq	pc, r0, r6, lsl sp	; <UNPREDICTABLE>
    4b24:	4a18b400 	bmi	631b2c <__bss_end__+0x627abc>
    4b28:	05000000 	streq	r0, [r0, #-0]
    4b2c:	fd160292 	ldc2	2, cr0, [r6, #-584]	; 0xfffffdb8
    4b30:	bc000000 	stclt	0, cr0, [r0], {-0}
    4b34:	00005918 	andeq	r5, r0, r8, lsl r9
    4b38:	02930500 	addseq	r0, r3, #0, 10
    4b3c:	0000fd16 	andeq	pc, r0, r6, lsl sp	; <UNPREDICTABLE>
    4b40:	8118c400 	tsthi	r8, r0, lsl #8
    4b44:	05000003 	streq	r0, [r0, #-3]
    4b48:	25080294 	strcs	r0, [r8, #-660]	; 0xfffffd6c
    4b4c:	cc000000 	stcgt	0, cr0, [r0], {-0}
    4b50:	011d0a00 	tsteq	sp, r0, lsl #20
    4b54:	080e0000 	stmdaeq	lr, {}	; <UNPREDICTABLE>
    4b58:	2c0b0000 	stccs	0, cr0, [fp], {-0}
    4b5c:	19000000 	stmdbne	r0, {}	; <UNPREDICTABLE>
    4b60:	011d0a00 	tsteq	sp, r0, lsl #20
    4b64:	081e0000 	ldmdaeq	lr, {}	; <UNPREDICTABLE>
    4b68:	2c0b0000 	stccs	0, cr0, [fp], {-0}
    4b6c:	07000000 	streq	r0, [r0, -r0]
    4b70:	011d0a00 	tsteq	sp, r0, lsl #20
    4b74:	082e0000 	stmdaeq	lr!, {}	; <UNPREDICTABLE>
    4b78:	2c0b0000 	stccs	0, cr0, [fp], {-0}
    4b7c:	17000000 	strne	r0, [r0, -r0]
    4b80:	05f01b00 	ldrbeq	r1, [r0, #2816]!	; 0xb00
    4b84:	55070299 	strpl	r0, [r7, #-665]	; 0xfffffd67
    4b88:	18000008 	stmdane	r0, {r3}
    4b8c:	000002ad 	andeq	r0, r0, sp, lsr #5
    4b90:	1b029c05 	blne	abbac <__bss_end__+0xa1b3c>
    4b94:	00000855 	andeq	r0, r0, r5, asr r8
    4b98:	04c81800 	strbeq	r1, [r8], #2048	; 0x800
    4b9c:	9d050000 	stcls	0, cr0, [r5, #-0]
    4ba0:	08651802 	stmdaeq	r5!, {r1, fp, ip}^
    4ba4:	00780000 	rsbseq	r0, r8, r0
    4ba8:	0003050a 	andeq	r0, r3, sl, lsl #10
    4bac:	00086500 	andeq	r6, r8, r0, lsl #10
    4bb0:	002c0b00 	eoreq	r0, ip, r0, lsl #22
    4bb4:	001d0000 	andseq	r0, sp, r0
    4bb8:	00002c0a 	andeq	r2, r0, sl, lsl #24
    4bbc:	00087500 	andeq	r7, r8, r0, lsl #10
    4bc0:	002c0b00 	eoreq	r0, ip, r0, lsl #22
    4bc4:	001d0000 	andseq	r0, sp, r0
    4bc8:	7e05f01c 	mcrvc	0, 0, pc, cr5, cr12, {0}	; <UNPREDICTABLE>
    4bcc:	089a0302 	ldmeq	sl, {r1, r8, r9}
    4bd0:	1b1d0000 	blne	744bd8 <__bss_end__+0x73ab68>
    4bd4:	05000004 	streq	r0, [r0, #-4]
    4bd8:	e90b0295 	stmdb	fp, {r0, r2, r4, r7, r9}
    4bdc:	1d000006 	stcne	0, cr0, [r0, #-24]	; 0xffffffe8
    4be0:	000004f3 	strdeq	r0, [r0], -r3
    4be4:	0b029e05 	bleq	ac400 <__bss_end__+0xa2390>
    4be8:	0000082e 	andeq	r0, r0, lr, lsr #16
    4bec:	011d0a00 	tsteq	sp, r0, lsl #20
    4bf0:	08aa0000 	stmiaeq	sl!, {}	; <UNPREDICTABLE>
    4bf4:	2c0b0000 	stccs	0, cr0, [fp], {-0}
    4bf8:	18000000 	stmdane	r0, {}	; <UNPREDICTABLE>
    4bfc:	00920600 	addseq	r0, r2, r0, lsl #12
    4c00:	04050000 	streq	r0, [r5], #-0
    4c04:	000008aa 	andeq	r0, r0, sl, lsr #17
    4c08:	0008c01e 	andeq	ip, r8, lr, lsl r0
    4c0c:	046c1600 	strbteq	r1, [ip], #-1536	; 0xfffffa00
    4c10:	05000000 	streq	r0, [r0, #-0]
    4c14:	0008b504 	andeq	fp, r8, r4, lsl #10
    4c18:	8f040500 	svchi	0x00040500
    4c1c:	1e000001 	cdpne	0, 0, cr0, cr0, cr1, {0}
    4c20:	000008d7 	ldrdeq	r0, [r0], -r7
    4c24:	00002516 	andeq	r2, r0, r6, lsl r5
    4c28:	04050000 	streq	r0, [r5], #-0
    4c2c:	000008dd 	ldrdeq	r0, [r0], -sp
    4c30:	08cc0405 	stmiaeq	ip, {r0, r2, sl}^
    4c34:	4e0a0000 	cdpmi	0, 0, cr0, cr10, cr0, {0}
    4c38:	f3000006 	vhadd.u8	d0, d0, d6
    4c3c:	0b000008 	bleq	4c64 <_start-0x339c>
    4c40:	0000002c 	andeq	r0, r0, ip, lsr #32
    4c44:	931f0002 	tstls	pc, #2
    4c48:	05000004 	streq	r0, [r0, #-4]
    4c4c:	6c17032e 	ldcvs	3, cr0, [r7], {46}	; 0x2e
    4c50:	1f000004 	svcne	0x00000004
    4c54:	0000048c 	andeq	r0, r0, ip, lsl #9
    4c58:	1d032f05 	stcne	15, cr2, [r3, #-20]	; 0xffffffec
    4c5c:	00000472 	andeq	r0, r0, r2, ror r4
    4c60:	00002515 	andeq	r2, r0, r5, lsl r5
    4c64:	00091c00 	andeq	r1, r9, r0, lsl #24
    4c68:	00251600 	eoreq	r1, r5, r0, lsl #12
    4c6c:	20000000 	andcs	r0, r0, r0
    4c70:	000001df 	ldrdeq	r0, [r0], -pc	; <UNPREDICTABLE>
    4c74:	280e1d06 	stmdacs	lr, {r1, r2, r8, sl, fp, ip}
    4c78:	05000009 	streq	r0, [r0, #-9]
    4c7c:	00090d04 	andeq	r0, r9, r4, lsl #26
    4c80:	00251500 	eoreq	r1, r5, r0, lsl #10
    4c84:	093d0000 	ldmdbeq	sp!, {}	; <UNPREDICTABLE>
    4c88:	e4160000 	ldr	r0, [r6], #-0
    4c8c:	00000005 	andeq	r0, r0, r5
    4c90:	00078620 	andeq	r8, r7, r0, lsr #12
    4c94:	0e220600 	cfmadda32eq	mvax0, mvax0, mvfx2, mvfx0
    4c98:	00000949 	andeq	r0, r0, r9, asr #18
    4c9c:	092e0405 	stmdbeq	lr!, {r0, r2, sl}
    4ca0:	1c210000 	stcne	0, cr0, [r1], #-0
    4ca4:	01000009 	tsteq	r0, r9
    4ca8:	03050706 	movweq	r0, #22278	; 0x5706
    4cac:	0000968c 	andeq	r9, r0, ip, lsl #13
    4cb0:	00074622 	andeq	r4, r7, r2, lsr #12
    4cb4:	060b0100 	streq	r0, [fp], -r0, lsl #2
    4cb8:	00008b40 	andeq	r8, r0, r0, asr #22
    4cbc:	00000010 	andeq	r0, r0, r0, lsl r0
    4cc0:	09819c01 	stmibeq	r1, {r0, sl, fp, ip, pc}
    4cc4:	66230000 	strtvs	r0, [r3], -r0
    4cc8:	0b010070 	bleq	44e90 <__bss_end__+0x3ae20>
    4ccc:	00092819 	andeq	r2, r9, r9, lsl r8
    4cd0:	00500100 	subseq	r0, r0, r0, lsl #2
    4cd4:	0001f724 	andeq	pc, r1, r4, lsr #14
    4cd8:	06080100 	streq	r0, [r8], -r0, lsl #2
    4cdc:	00008b28 	andeq	r8, r0, r8, lsr #22
    4ce0:	00000018 	andeq	r0, r0, r8, lsl r0
    4ce4:	5d259c01 	stcpl	12, cr9, [r5, #-4]!
    4ce8:	01000007 	tsteq	r0, r7
    4cec:	00250c03 	eoreq	r0, r5, r3, lsl #24
    4cf0:	8b140000 	blhi	504cf8 <__bss_end__+0x4fac88>
    4cf4:	00140000 	andseq	r0, r4, r0
    4cf8:	9c010000 	stcls	0, cr0, [r1], {-0}
    4cfc:	000009d0 	ldrdeq	r0, [r0], -r0	; <UNPREDICTABLE>
    4d00:	01006326 	tsteq	r0, r6, lsr #6
    4d04:	00252103 	eoreq	r2, r5, r3, lsl #2
    4d08:	0b550000 	bleq	1544d10 <__bss_end__+0x153aca0>
    4d0c:	0b510000 	bleq	1444d14 <__bss_end__+0x143aca4>
    4d10:	20270000 	eorcs	r0, r7, r0
    4d14:	d000008b 	andle	r0, r0, fp, lsl #1
    4d18:	28000009 	stmdacs	r0, {r0, r3}
    4d1c:	74025001 	strvc	r5, [r2], #-1
    4d20:	29000000 	stmdbcs	r0, {}	; <UNPREDICTABLE>
    4d24:	00000753 	andeq	r0, r0, r3, asr r7
    4d28:	00000753 	andeq	r0, r0, r3, asr r7
    4d2c:	00063c06 	andeq	r3, r6, r6, lsl #24
    4d30:	00000983 	andeq	r0, r0, r3, lsl #19
    4d34:	0ebd0004 	cdpeq	0, 11, cr0, cr13, cr4, {0}
    4d38:	01040000 	mrseq	r0, (UNDEF: 4)
    4d3c:	00000302 	andeq	r0, r0, r2, lsl #6
    4d40:	00078b0c 	andeq	r8, r7, ip, lsl #22
    4d44:	0006df00 	andeq	sp, r6, r0, lsl #30
    4d48:	008b5000 	addeq	r5, fp, r0
    4d4c:	00003400 	andeq	r3, r0, r0, lsl #8
    4d50:	000e3900 	andeq	r3, lr, r0, lsl #18
    4d54:	05040200 	streq	r0, [r4, #-512]	; 0xfffffe00
    4d58:	00746e69 	rsbseq	r6, r4, r9, ror #28
    4d5c:	74070403 	strvc	r0, [r7], #-1027	; 0xfffffbfd
    4d60:	03000000 	movweq	r0, #0
    4d64:	02f10601 	rscseq	r0, r1, #1048576	; 0x100000
    4d68:	02030000 	andeq	r0, r3, #0
    4d6c:	00038a05 	andeq	r8, r3, r5, lsl #20
    4d70:	05040300 	streq	r0, [r4, #-768]	; 0xfffffd00
    4d74:	000000ba 	strheq	r0, [r0], -sl
    4d78:	b5050803 	strlt	r0, [r5, #-2051]	; 0xfffff7fd
    4d7c:	03000000 	movweq	r0, #0
    4d80:	02ef0801 	rsceq	r0, pc, #65536	; 0x10000
    4d84:	02030000 	andeq	r0, r3, #0
    4d88:	00023007 	andeq	r3, r2, r7
    4d8c:	07040300 	streq	r0, [r4, -r0, lsl #6]
    4d90:	0000006f 	andeq	r0, r0, pc, rrx
    4d94:	6a070803 	bvs	1c6da8 <__bss_end__+0x1bcd38>
    4d98:	04000000 	streq	r0, [r0], #-0
    4d9c:	00000273 	andeq	r0, r0, r3, ror r2
    4da0:	77192202 	ldrvc	r2, [r9, -r2, lsl #4]
    4da4:	05000000 	streq	r0, [r0, #-0]
    4da8:	00007d04 	andeq	r7, r0, r4, lsl #26
    4dac:	04300600 	ldrteq	r0, [r0], #-1536	; 0xfffffa00
    4db0:	d0040000 	andle	r0, r4, r0
    4db4:	03000002 	movweq	r0, #2
    4db8:	00410e2c 	subeq	r0, r1, ip, lsr #28
    4dbc:	45040000 	strmi	r0, [r4, #-0]
    4dc0:	03000004 	movweq	r0, #4
    4dc4:	00410e72 	subeq	r0, r1, r2, ror lr
    4dc8:	7b070000 	blvc	1c4dd0 <__bss_end__+0x1bad60>
    4dcc:	04000002 	streq	r0, [r0], #-2
    4dd0:	2c17015e 	ldfcss	f0, [r7], {94}	; 0x5e
    4dd4:	08000000 	stmdaeq	r0, {}	; <UNPREDICTABLE>
    4dd8:	03a60304 			; <UNDEFINED> instruction: 0x03a60304
    4ddc:	000000c9 	andeq	r0, r0, r9, asr #1
    4de0:	00026d09 	andeq	r6, r2, r9, lsl #26
    4de4:	0ca80300 	stceq	3, cr0, [r8]
    4de8:	0000009a 	muleq	r0, sl, r0
    4dec:	0001f009 	andeq	pc, r1, r9
    4df0:	13a90300 			; <UNDEFINED> instruction: 0x13a90300
    4df4:	000000c9 	andeq	r0, r0, r9, asr #1
    4df8:	004f0a00 	subeq	r0, pc, r0, lsl #20
    4dfc:	00d90000 	sbcseq	r0, r9, r0
    4e00:	2c0b0000 	stccs	0, cr0, [fp], {-0}
    4e04:	03000000 	movweq	r0, #0
    4e08:	03080c00 	movweq	r0, #35840	; 0x8c00
    4e0c:	00fd09a3 	rscseq	r0, sp, r3, lsr #19
    4e10:	280d0000 	stmdacs	sp, {}	; <UNPREDICTABLE>
    4e14:	03000004 	movweq	r0, #4
    4e18:	002507a5 	eoreq	r0, r5, r5, lsr #15
    4e1c:	0d000000 	stceq	0, cr0, [r0, #-0]
    4e20:	00000437 	andeq	r0, r0, r7, lsr r4
    4e24:	a705aa03 	strge	sl, [r5, -r3, lsl #20]
    4e28:	04000000 	streq	r0, [r0], #-0
    4e2c:	03b20400 			; <UNDEFINED> instruction: 0x03b20400
    4e30:	ab030000 	blge	c4e38 <__bss_end__+0xbadc8>
    4e34:	0000d903 	andeq	sp, r0, r3, lsl #18
    4e38:	01ad0400 			; <UNDEFINED> instruction: 0x01ad0400
    4e3c:	af030000 	svcge	0x00030000
    4e40:	00006b1b 	andeq	r6, r0, fp, lsl fp
    4e44:	05040e00 	streq	r0, [r4, #-3584]	; 0xfffff200
    4e48:	00011d04 	andeq	r1, r1, r4, lsl #26
    4e4c:	08010300 	stmdaeq	r1, {r8, r9}
    4e50:	000002f8 	strdeq	r0, [r0], -r8
    4e54:	00011d0f 	andeq	r1, r1, pc, lsl #26
    4e58:	04770400 	ldrbteq	r0, [r7], #-1024	; 0xfffffc00
    4e5c:	16050000 	strne	r0, [r5], -r0
    4e60:	00005d19 	andeq	r5, r0, r9, lsl sp
    4e64:	01be1000 			; <UNDEFINED> instruction: 0x01be1000
    4e68:	05180000 	ldreq	r0, [r8, #-0]
    4e6c:	018f082f 	orreq	r0, pc, pc, lsr #16
    4e70:	d30d0000 	movwle	r0, #53248	; 0xd000
    4e74:	05000003 	streq	r0, [r0, #-3]
    4e78:	018f1331 	orreq	r1, pc, r1, lsr r3	; <UNPREDICTABLE>
    4e7c:	11000000 	mrsne	r0, (UNDEF: 0)
    4e80:	05006b5f 	streq	r6, [r0, #-2911]	; 0xfffff4a1
    4e84:	00250732 	eoreq	r0, r5, r2, lsr r7
    4e88:	0d040000 	stceq	0, cr0, [r4, #-0]
    4e8c:	00000413 	andeq	r0, r0, r3, lsl r4
    4e90:	250b3205 	strcs	r3, [fp, #-517]	; 0xfffffdfb
    4e94:	08000000 	stmdaeq	r0, {}	; <UNPREDICTABLE>
    4e98:	0001a70d 	andeq	sl, r1, sp, lsl #14
    4e9c:	14320500 	ldrtne	r0, [r2], #-1280	; 0xfffffb00
    4ea0:	00000025 	andeq	r0, r0, r5, lsr #32
    4ea4:	04b30d0c 	ldrteq	r0, [r3], #3340	; 0xd0c
    4ea8:	32050000 	andcc	r0, r5, #0
    4eac:	0000251b 	andeq	r2, r0, fp, lsl r5
    4eb0:	5f111000 	svcpl	0x00111000
    4eb4:	33050078 	movwcc	r0, #20600	; 0x5078
    4eb8:	0001950b 	andeq	r9, r1, fp, lsl #10
    4ebc:	05001400 	streq	r1, [r0, #-1024]	; 0xfffffc00
    4ec0:	00013504 	andeq	r3, r1, r4, lsl #10
    4ec4:	01290a00 			; <UNDEFINED> instruction: 0x01290a00
    4ec8:	01a50000 			; <UNDEFINED> instruction: 0x01a50000
    4ecc:	2c0b0000 	stccs	0, cr0, [fp], {-0}
    4ed0:	00000000 	andeq	r0, r0, r0
    4ed4:	01eb1000 	mvneq	r1, r0
    4ed8:	05240000 	streq	r0, [r4, #-0]!
    4edc:	02280837 	eoreq	r0, r8, #3604480	; 0x370000
    4ee0:	ac0d0000 	stcge	0, cr0, [sp], {-0}
    4ee4:	05000000 	streq	r0, [r0, #-0]
    4ee8:	00250939 	eoreq	r0, r5, r9, lsr r9
    4eec:	0d000000 	stceq	0, cr0, [r0, #-0]
    4ef0:	0000044d 	andeq	r0, r0, sp, asr #8
    4ef4:	25093a05 	strcs	r3, [r9, #-2565]	; 0xfffff5fb
    4ef8:	04000000 	streq	r0, [r0], #-0
    4efc:	0000cf0d 	andeq	ip, r0, sp, lsl #30
    4f00:	093b0500 	ldmdbeq	fp!, {r8, sl}
    4f04:	00000025 	andeq	r0, r0, r5, lsr #32
    4f08:	05340d08 	ldreq	r0, [r4, #-3336]!	; 0xfffff2f8
    4f0c:	3c050000 	stccc	0, cr0, [r5], {-0}
    4f10:	00002509 	andeq	r2, r0, r9, lsl #10
    4f14:	b40d0c00 	strlt	r0, [sp], #-3072	; 0xfffff400
    4f18:	05000002 	streq	r0, [r0, #-2]
    4f1c:	0025093d 	eoreq	r0, r5, sp, lsr r9
    4f20:	0d100000 	ldceq	0, cr0, [r0, #-0]
    4f24:	00000296 	muleq	r0, r6, r2
    4f28:	25093e05 	strcs	r3, [r9, #-3589]	; 0xfffff1fb
    4f2c:	14000000 	strne	r0, [r0], #-0
    4f30:	0004b80d 	andeq	fp, r4, sp, lsl #16
    4f34:	093f0500 	ldmdbeq	pc!, {r8, sl}	; <UNPREDICTABLE>
    4f38:	00000025 	andeq	r0, r0, r5, lsr #32
    4f3c:	03940d18 	orrseq	r0, r4, #24, 26	; 0x600
    4f40:	40050000 	andmi	r0, r5, r0
    4f44:	00002509 	andeq	r2, r0, r9, lsl #10
    4f48:	fb0d1c00 	blx	34bf52 <__bss_end__+0x341ee2>
    4f4c:	05000004 	streq	r0, [r0, #-4]
    4f50:	00250941 	eoreq	r0, r5, r1, asr #18
    4f54:	00200000 	eoreq	r0, r0, r0
    4f58:	00010f12 	andeq	r0, r1, r2, lsl pc
    4f5c:	05010800 	streq	r0, [r1, #-2048]	; 0xfffff800
    4f60:	026d084a 	rsbeq	r0, sp, #4849664	; 0x4a0000
    4f64:	9a0d0000 	bls	344f6c <__bss_end__+0x33aefc>
    4f68:	05000001 	streq	r0, [r0, #-1]
    4f6c:	026d0a4b 	rsbeq	r0, sp, #307200	; 0x4b000
    4f70:	0d000000 	stceq	0, cr0, [r0, #-0]
    4f74:	00000000 	andeq	r0, r0, r0
    4f78:	6d094c05 	stcvs	12, cr4, [r9, #-20]	; 0xffffffec
    4f7c:	80000002 	andhi	r0, r0, r2
    4f80:	00046913 	andeq	r6, r4, r3, lsl r9
    4f84:	0a4e0500 	beq	138638c <__bss_end__+0x137c31c>
    4f88:	00000129 	andeq	r0, r0, r9, lsr #2
    4f8c:	34130100 	ldrcc	r0, [r3], #-256	; 0xffffff00
    4f90:	05000001 	streq	r0, [r0, #-1]
    4f94:	01290a51 			; <UNDEFINED> instruction: 0x01290a51
    4f98:	01040000 	mrseq	r0, (UNDEF: 4)
    4f9c:	01150a00 	tsteq	r5, r0, lsl #20
    4fa0:	027d0000 	rsbseq	r0, sp, #0
    4fa4:	2c0b0000 	stccs	0, cr0, [fp], {-0}
    4fa8:	1f000000 	svcne	0x00000000
    4fac:	02bd1200 	adcseq	r1, sp, #0, 4
    4fb0:	01900000 	orrseq	r0, r0, r0
    4fb4:	c0085d05 	andgt	r5, r8, r5, lsl #26
    4fb8:	0d000002 	stceq	0, cr0, [r0, #-8]
    4fbc:	000003d3 	ldrdeq	r0, [r0], -r3
    4fc0:	c0125e05 	andsgt	r5, r2, r5, lsl #28
    4fc4:	00000002 	andeq	r0, r0, r2
    4fc8:	0003eb0d 	andeq	lr, r3, sp, lsl #22
    4fcc:	065f0500 	ldrbeq	r0, [pc], -r0, lsl #10
    4fd0:	00000025 	andeq	r0, r0, r5, lsr #32
    4fd4:	01a20d04 			; <UNDEFINED> instruction: 0x01a20d04
    4fd8:	61050000 	mrsvs	r0, (UNDEF: 5)
    4fdc:	0002c609 	andeq	ip, r2, r9, lsl #12
    4fe0:	0f0d0800 	svceq	0x000d0800
    4fe4:	05000001 	streq	r0, [r0, #-1]
    4fe8:	02281e62 	eoreq	r1, r8, #1568	; 0x620
    4fec:	00880000 	addeq	r0, r8, r0
    4ff0:	027d0405 	rsbseq	r0, sp, #83886080	; 0x5000000
    4ff4:	d60a0000 	strle	r0, [sl], -r0
    4ff8:	d6000002 	strle	r0, [r0], -r2
    4ffc:	0b000002 	bleq	500c <_start-0x2ff4>
    5000:	0000002c 	andeq	r0, r0, ip, lsr #32
    5004:	0405001f 	streq	r0, [r5], #-31	; 0xffffffe1
    5008:	000002dc 	ldrdeq	r0, [r0], -ip
    500c:	039e1014 	orrseq	r1, lr, #20
    5010:	05080000 	streq	r0, [r8, #-0]
    5014:	03050875 	movweq	r0, #22645	; 0x5875
    5018:	c90d0000 	stmdbgt	sp, {}	; <UNPREDICTABLE>
    501c:	05000000 	streq	r0, [r0, #-0]
    5020:	03051176 	movweq	r1, #20854	; 0x5176
    5024:	0d000000 	stceq	0, cr0, [r0, #-0]
    5028:	0000001b 	andeq	r0, r0, fp, lsl r0
    502c:	25067705 	strcs	r7, [r6, #-1797]	; 0xfffff8fb
    5030:	04000000 	streq	r0, [r0], #-0
    5034:	4f040500 	svcmi	0x00040500
    5038:	10000000 	andne	r0, r0, r0
    503c:	000003bd 			; <UNDEFINED> instruction: 0x000003bd
    5040:	08b50568 	ldmeq	r5!, {r3, r5, r6, r8, sl}
    5044:	0000044e 	andeq	r0, r0, lr, asr #8
    5048:	00705f11 	rsbseq	r5, r0, r1, lsl pc
    504c:	0512b605 	ldreq	fp, [r2, #-1541]	; 0xfffff9fb
    5050:	00000003 	andeq	r0, r0, r3
    5054:	00725f11 	rsbseq	r5, r2, r1, lsl pc
    5058:	2507b705 	strcs	fp, [r7, #-1797]	; 0xfffff8fb
    505c:	04000000 	streq	r0, [r0], #-0
    5060:	00775f11 	rsbseq	r5, r7, r1, lsl pc
    5064:	2507b805 	strcs	fp, [r7, #-2053]	; 0xfffff7fb
    5068:	08000000 	stmdaeq	r0, {}	; <UNPREDICTABLE>
    506c:	00012d0d 	andeq	r2, r1, sp, lsl #26
    5070:	09b90500 	ldmibeq	r9!, {r8, sl}
    5074:	0000003a 	andeq	r0, r0, sl, lsr r0
    5078:	02160d0c 	andseq	r0, r6, #12, 26	; 0x300
    507c:	ba050000 	blt	145084 <__bss_end__+0x13b014>
    5080:	00003a09 	andeq	r3, r0, r9, lsl #20
    5084:	5f110e00 	svcpl	0x00110e00
    5088:	05006662 	streq	r6, [r0, #-1634]	; 0xfffff99e
    508c:	02dd11bb 	sbcseq	r1, sp, #-1073741778	; 0xc000002e
    5090:	0d100000 	ldceq	0, cr0, [r0, #-0]
    5094:	00000089 	andeq	r0, r0, r9, lsl #1
    5098:	2507bc05 	strcs	fp, [r7, #-3077]	; 0xfffff3fb
    509c:	18000000 	stmdane	r0, {}	; <UNPREDICTABLE>
    50a0:	00011d0d 	andeq	r1, r1, sp, lsl #26
    50a4:	0ac30500 	beq	ff0c64ac <__bss_end__+0xff0bc43c>
    50a8:	00000115 	andeq	r0, r0, r5, lsl r1
    50ac:	0b420d1c 	bleq	1088524 <__bss_end__+0x107e4b4>
    50b0:	c5050000 	strgt	r0, [r5, #-0]
    50b4:	0005c01d 	andeq	ip, r5, sp, lsl r0
    50b8:	370d2000 	strcc	r2, [sp, -r0]
    50bc:	05000006 	streq	r0, [r0, #-6]
    50c0:	05ea1dc7 	strbeq	r1, [sl, #3527]!	; 0xdc7
    50c4:	0d240000 	stceq	0, cr0, [r4, #-0]
    50c8:	0000043f 	andeq	r0, r0, pc, lsr r4
    50cc:	0e0dca05 	vmlaeq.f32	s24, s26, s10
    50d0:	28000006 	stmdacs	r0, {r1, r2}
    50d4:	0005150d 	andeq	r1, r5, sp, lsl #10
    50d8:	09cb0500 	stmibeq	fp, {r8, sl}^
    50dc:	00000628 	andeq	r0, r0, r8, lsr #12
    50e0:	755f112c 	ldrbvc	r1, [pc, #-300]	; 4fbc <_start-0x3044>
    50e4:	ce050062 	cdpgt	0, 0, cr0, cr5, cr2, {3}
    50e8:	0002dd11 	andeq	sp, r2, r1, lsl sp
    50ec:	5f113000 	svcpl	0x00113000
    50f0:	05007075 	streq	r7, [r0, #-117]	; 0xffffff8b
    50f4:	030512cf 	movweq	r1, #21199	; 0x52cf
    50f8:	11380000 	teqne	r8, r0
    50fc:	0072755f 	rsbseq	r7, r2, pc, asr r5
    5100:	2507d005 	strcs	sp, [r7, #-5]
    5104:	3c000000 	stccc	0, cr0, [r0], {-0}
    5108:	0000c30d 	andeq	ip, r0, sp, lsl #6
    510c:	11d30500 	bicsne	r0, r3, r0, lsl #10
    5110:	0000062e 	andeq	r0, r0, lr, lsr #12
    5114:	04ed0d40 	strbteq	r0, [sp], #3392	; 0xd40
    5118:	d4050000 	strle	r0, [r5], #-0
    511c:	00063e11 	andeq	r3, r6, r1, lsl lr
    5120:	5f114300 	svcpl	0x00114300
    5124:	0500626c 	streq	r6, [r0, #-620]	; 0xfffffd94
    5128:	02dd11d7 	sbcseq	r1, sp, #-1073741771	; 0xc0000035
    512c:	0d440000 	stcleq	0, cr0, [r4, #-0]
    5130:	0000014b 	andeq	r0, r0, fp, asr #2
    5134:	2507da05 	strcs	sp, [r7, #-2565]	; 0xfffff5fb
    5138:	4c000000 	stcmi	0, cr0, [r0], {-0}
    513c:	00015c0d 	andeq	r5, r1, sp, lsl #24
    5140:	0adb0500 	beq	ff6c6548 <__bss_end__+0xff6bc4d8>
    5144:	00000082 	andeq	r0, r0, r2, lsl #1
    5148:	0ae30d50 	beq	ff8c8690 <__bss_end__+0xff8be620>
    514c:	de050000 	cdple	0, 0, cr0, cr5, cr0, {0}
    5150:	00046c12 	andeq	r6, r4, r2, lsl ip
    5154:	310d5400 	tstcc	sp, r0, lsl #8
    5158:	05000004 	streq	r0, [r0, #-4]
    515c:	01090ce2 	smlatteq	r9, r2, ip, r0
    5160:	0d580000 	ldcleq	0, cr0, [r8, #-0]
    5164:	000003c5 	andeq	r0, r0, r5, asr #7
    5168:	fd0ee405 	stc2	4, cr14, [lr, #-20]	; 0xffffffec
    516c:	5c000000 	stcpl	0, cr0, [r0], {-0}
    5170:	00028e0d 	andeq	r8, r2, sp, lsl #28
    5174:	09e50500 	stmibeq	r5!, {r8, sl}^
    5178:	00000025 	andeq	r0, r0, r5, lsr #32
    517c:	25150064 	ldrcs	r0, [r5, #-100]	; 0xffffff9c
    5180:	6c000000 	stcvs	0, cr0, [r0], {-0}
    5184:	16000004 	strne	r0, [r0], -r4
    5188:	0000046c 	andeq	r0, r0, ip, ror #8
    518c:	00011516 	andeq	r1, r1, r6, lsl r5
    5190:	01171600 	tsteq	r7, r0, lsl #12
    5194:	25160000 	ldrcs	r0, [r6, #-0]
    5198:	00000000 	andeq	r0, r0, r0
    519c:	04770405 	ldrbteq	r0, [r7], #-1029	; 0xfffffbfb
    51a0:	6c0f0000 	stcvs	0, cr0, [pc], {-0}
    51a4:	17000004 	strne	r0, [r0, -r4]
    51a8:	0000041b 	andeq	r0, r0, fp, lsl r4
    51ac:	60050428 	andvs	r0, r5, r8, lsr #8
    51b0:	05c00802 	strbeq	r0, [r0, #2050]	; 0x802
    51b4:	83180000 	tsthi	r8, #0
    51b8:	05000003 	streq	r0, [r0, #-3]
    51bc:	25070262 	strcs	r0, [r7, #-610]	; 0xfffffd9e
    51c0:	00000000 	andeq	r0, r0, r0
    51c4:	00013c18 	andeq	r3, r1, r8, lsl ip
    51c8:	02670500 	rsbeq	r0, r7, #0, 10
    51cc:	00069a0b 	andeq	r9, r6, fp, lsl #20
    51d0:	06180400 	ldreq	r0, [r8], -r0, lsl #8
    51d4:	05000002 	streq	r0, [r0, #-2]
    51d8:	9a140267 	bls	505b7c <__bss_end__+0x4fbb0c>
    51dc:	08000006 	stmdaeq	r0, {r1, r2}
    51e0:	0001b618 	andeq	fp, r1, r8, lsl r6
    51e4:	02670500 	rsbeq	r0, r7, #0, 10
    51e8:	00069a1e 	andeq	r9, r6, lr, lsl sl
    51ec:	e6180c00 	ldr	r0, [r8], -r0, lsl #24
    51f0:	05000003 	streq	r0, [r0, #-3]
    51f4:	25080269 	strcs	r0, [r8, #-617]	; 0xfffffd97
    51f8:	10000000 	andne	r0, r0, r0
    51fc:	00003718 	andeq	r3, r0, r8, lsl r7
    5200:	026a0500 	rsbeq	r0, sl, #0, 10
    5204:	00089a08 	andeq	r9, r8, r8, lsl #20
    5208:	fa181400 	blx	60a210 <__bss_end__+0x6001a0>
    520c:	05000003 	streq	r0, [r0, #-3]
    5210:	2507026d 	strcs	r0, [r7, #-621]	; 0xfffffd93
    5214:	30000000 	andcc	r0, r0, r0
    5218:	000a1f18 	andeq	r1, sl, r8, lsl pc
    521c:	026e0500 	rsbeq	r0, lr, #0, 10
    5220:	0008af16 	andeq	sl, r8, r6, lsl pc
    5224:	c5183400 	ldrgt	r3, [r8, #-1024]	; 0xfffffc00
    5228:	05000002 	streq	r0, [r0, #-2]
    522c:	25070270 	strcs	r0, [r7, #-624]	; 0xfffffd90
    5230:	38000000 	stmdacc	r0, {}	; <UNPREDICTABLE>
    5234:	0003f018 	andeq	pc, r3, r8, lsl r0	; <UNPREDICTABLE>
    5238:	02720500 	rsbseq	r0, r2, #0, 10
    523c:	0008c00a 	andeq	ip, r8, sl
    5240:	65183c00 	ldrvs	r3, [r8, #-3072]	; 0xfffff400
    5244:	05000002 	streq	r0, [r0, #-2]
    5248:	8f130275 	svchi	0x00130275
    524c:	40000001 	andmi	r0, r0, r1
    5250:	0001d518 	andeq	sp, r1, r8, lsl r5
    5254:	02760500 	rsbseq	r0, r6, #0, 10
    5258:	00002507 	andeq	r2, r0, r7, lsl #10
    525c:	2f184400 	svccs	0x00184400
    5260:	05000005 	streq	r0, [r0, #-5]
    5264:	8f130277 	svchi	0x00130277
    5268:	48000001 	stmdami	r0, {r0}
    526c:	0002d718 	andeq	sp, r2, r8, lsl r7
    5270:	02780500 	rsbseq	r0, r8, #0, 10
    5274:	0008c614 	andeq	ip, r8, r4, lsl r6
    5278:	0e184c00 	cdpeq	12, 1, cr4, cr8, cr0, {0}
    527c:	05000002 	streq	r0, [r0, #-2]
    5280:	2507027b 	strcs	r0, [r7, #-635]	; 0xfffffd85
    5284:	50000000 	andpl	r0, r0, r0
    5288:	00015418 	andeq	r5, r1, r8, lsl r4
    528c:	027c0500 	rsbseq	r0, ip, #0, 10
    5290:	00011709 	andeq	r1, r1, r9, lsl #14
    5294:	fd185400 	ldc2	4, cr5, [r8, #-0]
    5298:	05000002 	streq	r0, [r0, #-2]
    529c:	7507029f 	strvc	r0, [r7, #-671]	; 0xfffffd61
    52a0:	58000008 	stmdapl	r0, {r3}
    52a4:	0002bd19 	andeq	fp, r2, r9, lsl sp
    52a8:	02a30500 	adceq	r0, r3, #0, 10
    52ac:	0002c013 	andeq	ip, r2, r3, lsl r0
    52b0:	19014800 	stmdbne	r1, {fp, lr}
    52b4:	00000243 	andeq	r0, r0, r3, asr #4
    52b8:	1202a405 	andne	sl, r2, #83886080	; 0x5000000
    52bc:	0000027d 	andeq	r0, r0, sp, ror r2
    52c0:	db19014c 	blle	6457f8 <__bss_end__+0x63b788>
    52c4:	05000004 	streq	r0, [r0, #-4]
    52c8:	d70c02a8 	strle	r0, [ip, -r8, lsr #5]
    52cc:	dc000008 	stcle	0, cr0, [r0], {8}
    52d0:	01251902 			; <UNDEFINED> instruction: 0x01251902
    52d4:	ad050000 	stcge	0, cr0, [r5, #-0]
    52d8:	065b1002 	ldrbeq	r1, [fp], -r2
    52dc:	02e00000 	rsceq	r0, r0, #0
    52e0:	00010a19 	andeq	r0, r1, r9, lsl sl
    52e4:	02af0500 	adceq	r0, pc, #0, 10
    52e8:	0008e30a 	andeq	lr, r8, sl, lsl #6
    52ec:	0002ec00 	andeq	lr, r2, r0, lsl #24
    52f0:	044e0405 	strbeq	r0, [lr], #-1029	; 0xfffffbfb
    52f4:	25150000 	ldrcs	r0, [r5, #-0]
    52f8:	e4000000 	str	r0, [r0], #-0
    52fc:	16000005 	strne	r0, [r0], -r5
    5300:	0000046c 	andeq	r0, r0, ip, ror #8
    5304:	00011516 	andeq	r1, r1, r6, lsl r5
    5308:	05e41600 	strbeq	r1, [r4, #1536]!	; 0x600
    530c:	25160000 	ldrcs	r0, [r6, #-0]
    5310:	00000000 	andeq	r0, r0, r0
    5314:	01240405 			; <UNDEFINED> instruction: 0x01240405
    5318:	04050000 	streq	r0, [r5], #-0
    531c:	000005c6 	andeq	r0, r0, r6, asr #11
    5320:	00008e15 	andeq	r8, r0, r5, lsl lr
    5324:	00060e00 	andeq	r0, r6, r0, lsl #28
    5328:	046c1600 	strbteq	r1, [ip], #-1536	; 0xfffffa00
    532c:	15160000 	ldrne	r0, [r6, #-0]
    5330:	16000001 	strne	r0, [r0], -r1
    5334:	0000008e 	andeq	r0, r0, lr, lsl #1
    5338:	00002516 	andeq	r2, r0, r6, lsl r5
    533c:	04050000 	streq	r0, [r5], #-0
    5340:	000005f0 	strdeq	r0, [r0], -r0	; <UNPREDICTABLE>
    5344:	00002515 	andeq	r2, r0, r5, lsl r5
    5348:	00062800 	andeq	r2, r6, r0, lsl #16
    534c:	046c1600 	strbteq	r1, [ip], #-1536	; 0xfffffa00
    5350:	15160000 	ldrne	r0, [r6, #-0]
    5354:	00000001 	andeq	r0, r0, r1
    5358:	06140405 	ldreq	r0, [r4], -r5, lsl #8
    535c:	4f0a0000 	svcmi	0x000a0000
    5360:	3e000000 	cdpcc	0, 0, cr0, cr0, cr0, {0}
    5364:	0b000006 	bleq	5384 <_start-0x2c7c>
    5368:	0000002c 	andeq	r0, r0, ip, lsr #32
    536c:	4f0a0002 	svcmi	0x000a0002
    5370:	4e000000 	cdpmi	0, 0, cr0, cr0, cr0, {0}
    5374:	0b000006 	bleq	5394 <_start-0x2c6c>
    5378:	0000002c 	andeq	r0, r0, ip, lsr #32
    537c:	ab070000 	blge	1c5384 <__bss_end__+0x1bb314>
    5380:	05000003 	streq	r0, [r0, #-3]
    5384:	0b1a011f 	bleq	685808 <__bss_end__+0x67b798>
    5388:	1a000003 	bne	539c <_start-0x2c64>
    538c:	000004c2 	andeq	r0, r0, r2, asr #9
    5390:	0123050c 			; <UNDEFINED> instruction: 0x0123050c
    5394:	00069408 	andeq	r9, r6, r8, lsl #8
    5398:	03d31800 	bicseq	r1, r3, #0, 16
    539c:	25050000 	strcs	r0, [r5, #-0]
    53a0:	06941101 	ldreq	r1, [r4], r1, lsl #2
    53a4:	18000000 	stmdane	r0, {}	; <UNPREDICTABLE>
    53a8:	00000229 	andeq	r0, r0, r9, lsr #4
    53ac:	07012605 	streq	r2, [r1, -r5, lsl #12]
    53b0:	00000025 	andeq	r0, r0, r5, lsr #32
    53b4:	03a51804 			; <UNDEFINED> instruction: 0x03a51804
    53b8:	27050000 	strcs	r0, [r5, -r0]
    53bc:	069a0b01 	ldreq	r0, [sl], r1, lsl #22
    53c0:	00080000 	andeq	r0, r8, r0
    53c4:	065b0405 	ldrbeq	r0, [fp], -r5, lsl #8
    53c8:	04050000 	streq	r0, [r5], #-0
    53cc:	0000064e 	andeq	r0, r0, lr, asr #12
    53d0:	00002f1a 	andeq	r2, r0, sl, lsl pc
    53d4:	3f050e00 	svccc	0x00050e00
    53d8:	06d90801 	ldrbeq	r0, [r9], r1, lsl #16
    53dc:	22180000 	andscs	r0, r8, #0
    53e0:	05000004 	streq	r0, [r0, #-4]
    53e4:	d9120140 	ldmdble	r2, {r6, r8}
    53e8:	00000006 	andeq	r0, r0, r6
    53ec:	00045618 	andeq	r5, r4, r8, lsl r6
    53f0:	01410500 	cmpeq	r1, r0, lsl #10
    53f4:	0006d912 	andeq	sp, r6, r2, lsl r9
    53f8:	72180600 	andsvc	r0, r8, #0, 12
    53fc:	05000004 	streq	r0, [r0, #-4]
    5400:	56120142 	ldrpl	r0, [r2], -r2, asr #2
    5404:	0c000000 	stceq	0, cr0, [r0], {-0}
    5408:	00560a00 	subseq	r0, r6, r0, lsl #20
    540c:	06e90000 	strbteq	r0, [r9], r0
    5410:	2c0b0000 	stccs	0, cr0, [fp], {-0}
    5414:	02000000 	andeq	r0, r0, #0
    5418:	05d01b00 	ldrbeq	r1, [r0, #2816]	; 0xb00
    541c:	fe070280 	cdp2	2, 0, cr0, cr7, cr0, {4}
    5420:	18000007 	stmdane	r0, {r0, r1, r2}
    5424:	000004a6 	andeq	r0, r0, r6, lsr #9
    5428:	18028205 	stmdane	r2, {r0, r2, r9, pc}
    542c:	0000002c 	andeq	r0, r0, ip, lsr #32
    5430:	045c1800 	ldrbeq	r1, [ip], #-2048	; 0xfffff800
    5434:	83050000 	movwhi	r0, #20480	; 0x5000
    5438:	01171202 	tsteq	r7, r2, lsl #4
    543c:	18040000 	stmdane	r4, {}	; <UNPREDICTABLE>
    5440:	00000258 	andeq	r0, r0, r8, asr r2
    5444:	10028405 	andne	r8, r2, r5, lsl #8
    5448:	000007fe 	strdeq	r0, [r0], -lr
    544c:	05061808 	streq	r1, [r6, #-2056]	; 0xfffff7f8
    5450:	85050000 	strhi	r0, [r5, #-0]
    5454:	01a51702 			; <UNDEFINED> instruction: 0x01a51702
    5458:	18240000 	stmdane	r4!, {}	; <UNPREDICTABLE>
    545c:	000001c6 	andeq	r0, r0, r6, asr #3
    5460:	0f028605 	svceq	0x00028605
    5464:	00000025 	andeq	r0, r0, r5, lsr #32
    5468:	03ce1848 	biceq	r1, lr, #72, 16	; 0x480000
    546c:	87050000 	strhi	r0, [r5, -r0]
    5470:	00642c02 	rsbeq	r2, r4, r2, lsl #24
    5474:	18500000 	ldmdane	r0, {}^	; <UNPREDICTABLE>
    5478:	0000051c 	andeq	r0, r0, ip, lsl r5
    547c:	1a028805 	bne	a7498 <__bss_end__+0x9d428>
    5480:	000006a0 	andeq	r0, r0, r0, lsr #13
    5484:	03d91858 	bicseq	r1, r9, #88, 16	; 0x580000
    5488:	89050000 	stmdbhi	r5, {}	; <UNPREDICTABLE>
    548c:	00fd1602 	rscseq	r1, sp, r2, lsl #12
    5490:	18680000 	stmdane	r8!, {}^	; <UNPREDICTABLE>
    5494:	00000521 	andeq	r0, r0, r1, lsr #10
    5498:	16028a05 	strne	r8, [r2], -r5, lsl #20
    549c:	000000fd 	strdeq	r0, [r0], -sp
    54a0:	02e11870 	rsceq	r1, r1, #112, 16	; 0x700000
    54a4:	8b050000 	blhi	1454ac <__bss_end__+0x13b43c>
    54a8:	00fd1602 	rscseq	r1, sp, r2, lsl #12
    54ac:	18780000 	ldmdane	r8!, {}^	; <UNPREDICTABLE>
    54b0:	000004d1 	ldrdeq	r0, [r0], -r1
    54b4:	10028c05 	andne	r8, r2, r5, lsl #24
    54b8:	0000080e 	andeq	r0, r0, lr, lsl #16
    54bc:	024c1880 	subeq	r1, ip, #128, 16	; 0x800000
    54c0:	8d050000 	stchi	0, cr0, [r5, #-0]
    54c4:	081e1002 	ldmdaeq	lr, {r1, ip}
    54c8:	18880000 	stmne	r8, {}	; <UNPREDICTABLE>
    54cc:	0000047f 	andeq	r0, r0, pc, ror r4
    54d0:	0f028e05 	svceq	0x00028e05
    54d4:	00000025 	andeq	r0, r0, r5, lsr #32
    54d8:	018c18a0 	orreq	r1, ip, r0, lsr #17
    54dc:	8f050000 	svchi	0x00050000
    54e0:	00fd1602 	rscseq	r1, sp, r2, lsl #12
    54e4:	18a40000 	stmiane	r4!, {}	; <UNPREDICTABLE>
    54e8:	0000009d 	muleq	r0, sp, r0
    54ec:	16029005 	strne	r9, [r2], -r5
    54f0:	000000fd 	strdeq	r0, [r0], -sp
    54f4:	017b18ac 	cmneq	fp, ip, lsr #17
    54f8:	91050000 	mrsls	r0, (UNDEF: 5)
    54fc:	00fd1602 	rscseq	r1, sp, r2, lsl #12
    5500:	18b40000 	ldmne	r4!, {}	; <UNPREDICTABLE>
    5504:	0000004a 	andeq	r0, r0, sl, asr #32
    5508:	16029205 	strne	r9, [r2], -r5, lsl #4
    550c:	000000fd 	strdeq	r0, [r0], -sp
    5510:	005918bc 	ldrheq	r1, [r9], #-140	; 0xffffff74
    5514:	93050000 	movwls	r0, #20480	; 0x5000
    5518:	00fd1602 	rscseq	r1, sp, r2, lsl #12
    551c:	18c40000 	stmiane	r4, {}^	; <UNPREDICTABLE>
    5520:	00000381 	andeq	r0, r0, r1, lsl #7
    5524:	08029405 	stmdaeq	r2, {r0, r2, sl, ip, pc}
    5528:	00000025 	andeq	r0, r0, r5, lsr #32
    552c:	1d0a00cc 	stcne	0, cr0, [sl, #-816]	; 0xfffffcd0
    5530:	0e000001 	cdpeq	0, 0, cr0, cr0, cr1, {0}
    5534:	0b000008 	bleq	555c <_start-0x2aa4>
    5538:	0000002c 	andeq	r0, r0, ip, lsr #32
    553c:	1d0a0019 	stcne	0, cr0, [sl, #-100]	; 0xffffff9c
    5540:	1e000001 	cdpne	0, 0, cr0, cr0, cr1, {0}
    5544:	0b000008 	bleq	556c <_start-0x2a94>
    5548:	0000002c 	andeq	r0, r0, ip, lsr #32
    554c:	1d0a0007 	stcne	0, cr0, [sl, #-28]	; 0xffffffe4
    5550:	2e000001 	cdpcs	0, 0, cr0, cr0, cr1, {0}
    5554:	0b000008 	bleq	557c <_start-0x2a84>
    5558:	0000002c 	andeq	r0, r0, ip, lsr #32
    555c:	f01b0017 			; <UNDEFINED> instruction: 0xf01b0017
    5560:	07029905 	streq	r9, [r2, -r5, lsl #18]
    5564:	00000855 	andeq	r0, r0, r5, asr r8
    5568:	0002ad18 	andeq	sl, r2, r8, lsl sp
    556c:	029c0500 	addseq	r0, ip, #0, 10
    5570:	0008551b 	andeq	r5, r8, fp, lsl r5
    5574:	c8180000 	ldmdagt	r8, {}	; <UNPREDICTABLE>
    5578:	05000004 	streq	r0, [r0, #-4]
    557c:	6518029d 	ldrvs	r0, [r8, #-669]	; 0xfffffd63
    5580:	78000008 	stmdavc	r0, {r3}
    5584:	03050a00 	movweq	r0, #23040	; 0x5a00
    5588:	08650000 	stmdaeq	r5!, {}^	; <UNPREDICTABLE>
    558c:	2c0b0000 	stccs	0, cr0, [fp], {-0}
    5590:	1d000000 	stcne	0, cr0, [r0, #-0]
    5594:	002c0a00 	eoreq	r0, ip, r0, lsl #20
    5598:	08750000 	ldmdaeq	r5!, {}^	; <UNPREDICTABLE>
    559c:	2c0b0000 	stccs	0, cr0, [fp], {-0}
    55a0:	1d000000 	stcne	0, cr0, [r0, #-0]
    55a4:	05f01c00 	ldrbeq	r1, [r0, #3072]!	; 0xc00
    55a8:	9a03027e 	bls	c5fa8 <__bss_end__+0xbbf38>
    55ac:	1d000008 	stcne	0, cr0, [r0, #-32]	; 0xffffffe0
    55b0:	0000041b 	andeq	r0, r0, fp, lsl r4
    55b4:	0b029505 	bleq	aa9d0 <__bss_end__+0xa0960>
    55b8:	000006e9 	andeq	r0, r0, r9, ror #13
    55bc:	0004f31d 	andeq	pc, r4, sp, lsl r3	; <UNPREDICTABLE>
    55c0:	029e0500 	addseq	r0, lr, #0, 10
    55c4:	00082e0b 	andeq	r2, r8, fp, lsl #28
    55c8:	1d0a0000 	stcne	0, cr0, [sl, #-0]
    55cc:	aa000001 	bge	55d8 <_start-0x2a28>
    55d0:	0b000008 	bleq	55f8 <_start-0x2a08>
    55d4:	0000002c 	andeq	r0, r0, ip, lsr #32
    55d8:	92060018 	andls	r0, r6, #24
    55dc:	05000000 	streq	r0, [r0, #-0]
    55e0:	0008aa04 	andeq	sl, r8, r4, lsl #20
    55e4:	08c01e00 	stmiaeq	r0, {r9, sl, fp, ip}^
    55e8:	6c160000 	ldcvs	0, cr0, [r6], {-0}
    55ec:	00000004 	andeq	r0, r0, r4
    55f0:	08b50405 	ldmeq	r5!, {r0, r2, sl}
    55f4:	04050000 	streq	r0, [r5], #-0
    55f8:	0000018f 	andeq	r0, r0, pc, lsl #3
    55fc:	0008d71e 	andeq	sp, r8, lr, lsl r7
    5600:	00251600 	eoreq	r1, r5, r0, lsl #12
    5604:	05000000 	streq	r0, [r0, #-0]
    5608:	0008dd04 	andeq	sp, r8, r4, lsl #26
    560c:	cc040500 	cfstr32gt	mvfx0, [r4], {-0}
    5610:	0a000008 	beq	5638 <_start-0x29c8>
    5614:	0000064e 	andeq	r0, r0, lr, asr #12
    5618:	000008f3 	strdeq	r0, [r0], -r3
    561c:	00002c0b 	andeq	r2, r0, fp, lsl #24
    5620:	1f000200 	svcne	0x00000200
    5624:	00000493 	muleq	r0, r3, r4
    5628:	17032e05 	strne	r2, [r3, -r5, lsl #28]
    562c:	0000046c 	andeq	r0, r0, ip, ror #8
    5630:	00048c1f 	andeq	r8, r4, pc, lsl ip
    5634:	032f0500 			; <UNDEFINED> instruction: 0x032f0500
    5638:	0004721d 	andeq	r7, r4, sp, lsl r2
    563c:	00251500 	eoreq	r1, r5, r0, lsl #10
    5640:	091c0000 	ldmdbeq	ip, {}	; <UNPREDICTABLE>
    5644:	25160000 	ldrcs	r0, [r6, #-0]
    5648:	00000000 	andeq	r0, r0, r0
    564c:	0001df20 	andeq	sp, r1, r0, lsr #30
    5650:	0e1d0600 	cfmsub32eq	mvax0, mvfx0, mvfx13, mvfx0
    5654:	00000928 	andeq	r0, r0, r8, lsr #18
    5658:	090d0405 	stmdbeq	sp, {r0, r2, sl}
    565c:	25150000 	ldrcs	r0, [r5, #-0]
    5660:	3d000000 	stccc	0, cr0, [r0, #-0]
    5664:	16000009 	strne	r0, [r0], -r9
    5668:	000005e4 	andeq	r0, r0, r4, ror #11
    566c:	07862000 	streq	r2, [r6, r0]
    5670:	22060000 	andcs	r0, r6, #0
    5674:	0009490e 	andeq	r4, r9, lr, lsl #18
    5678:	2e040500 	cfsh32cs	mvfx0, mvfx4, #0
    567c:	21000009 	tstcs	r0, r9
    5680:	0000093d 	andeq	r0, r0, sp, lsr r9
    5684:	05070c01 	streq	r0, [r7, #-3073]	; 0xfffff3ff
    5688:	00969003 	addseq	r9, r6, r3
    568c:	077d2200 	ldrbeq	r2, [sp, -r0, lsl #4]!
    5690:	04010000 	streq	r0, [r1], #-0
    5694:	00002505 	andeq	r2, r0, r5, lsl #10
    5698:	008b5000 	addeq	r5, fp, r0
    569c:	00003400 	andeq	r3, r0, r0, lsl #8
    56a0:	239c0100 	orrscs	r0, ip, #0, 2
    56a4:	04010070 	streq	r0, [r1], #-112	; 0xffffff90
    56a8:	0005e41f 	andeq	lr, r5, pc, lsl r4
    56ac:	000b7700 	andeq	r7, fp, r0, lsl #14
    56b0:	000b7300 	andeq	r7, fp, r0, lsl #6
    56b4:	a0000000 	andge	r0, r0, r0
    56b8:	0400000f 	streq	r0, [r0], #-15
    56bc:	0010b100 	andseq	fp, r0, r0, lsl #2
    56c0:	02010400 	andeq	r0, r1, #0, 8
    56c4:	0c000003 	stceq	0, cr0, [r0], {3}
    56c8:	00000797 	muleq	r0, r7, r7
    56cc:	000006df 	ldrdeq	r0, [r0], -pc	; <UNPREDICTABLE>
    56d0:	00008b84 	andeq	r8, r0, r4, lsl #23
    56d4:	00000520 	andeq	r0, r0, r0, lsr #10
    56d8:	00000f4f 	andeq	r0, r0, pc, asr #30
    56dc:	69050402 	stmdbvs	r5, {r1, sl}
    56e0:	0300746e 	movweq	r7, #1134	; 0x46e
    56e4:	00740704 	rsbseq	r0, r4, r4, lsl #14
    56e8:	01030000 	mrseq	r0, (UNDEF: 3)
    56ec:	0002f106 	andeq	pc, r2, r6, lsl #2
    56f0:	05020300 	streq	r0, [r2, #-768]	; 0xfffffd00
    56f4:	0000038a 	andeq	r0, r0, sl, lsl #7
    56f8:	ba050403 	blt	14670c <__bss_end__+0x13c69c>
    56fc:	03000000 	movweq	r0, #0
    5700:	00b50508 	adcseq	r0, r5, r8, lsl #10
    5704:	01030000 	mrseq	r0, (UNDEF: 3)
    5708:	0002ef08 	andeq	lr, r2, r8, lsl #30
    570c:	07020300 	streq	r0, [r2, -r0, lsl #6]
    5710:	00000230 	andeq	r0, r0, r0, lsr r2
    5714:	6f070403 	svcvs	0x00070403
    5718:	03000000 	movweq	r0, #0
    571c:	006a0708 	rsbeq	r0, sl, r8, lsl #14
    5720:	73040000 	movwvc	r0, #16384	; 0x4000
    5724:	02000002 	andeq	r0, r0, #2
    5728:	00771922 	rsbseq	r1, r7, r2, lsr #18
    572c:	04050000 	streq	r0, [r5], #-0
    5730:	0000007d 	andeq	r0, r0, sp, ror r0
    5734:	00043006 	andeq	r3, r4, r6
    5738:	02d00400 	sbcseq	r0, r0, #0, 8
    573c:	2c030000 	stccs	0, cr0, [r3], {-0}
    5740:	0000410e 	andeq	r4, r0, lr, lsl #2
    5744:	04450400 	strbeq	r0, [r5], #-1024	; 0xfffffc00
    5748:	72030000 	andvc	r0, r3, #0
    574c:	0000410e 	andeq	r4, r0, lr, lsl #2
    5750:	027b0700 	rsbseq	r0, fp, #0, 14
    5754:	5e040000 	cdppl	0, 0, cr0, cr4, cr0, {0}
    5758:	002c1701 	eoreq	r1, ip, r1, lsl #14
    575c:	04080000 	streq	r0, [r8], #-0
    5760:	c903a603 	stmdbgt	r3, {r0, r1, r9, sl, sp, pc}
    5764:	09000000 	stmdbeq	r0, {}	; <UNPREDICTABLE>
    5768:	0000026d 	andeq	r0, r0, sp, ror #4
    576c:	9a0ca803 	bls	32f780 <__bss_end__+0x325710>
    5770:	09000000 	stmdbeq	r0, {}	; <UNPREDICTABLE>
    5774:	000001f0 	strdeq	r0, [r0], -r0	; <UNPREDICTABLE>
    5778:	c913a903 	ldmdbgt	r3, {r0, r1, r8, fp, sp, pc}
    577c:	00000000 	andeq	r0, r0, r0
    5780:	00004f0a 	andeq	r4, r0, sl, lsl #30
    5784:	0000d900 	andeq	sp, r0, r0, lsl #18
    5788:	002c0b00 	eoreq	r0, ip, r0, lsl #22
    578c:	00030000 	andeq	r0, r3, r0
    5790:	a303080c 	movwge	r0, #14348	; 0x380c
    5794:	0000fd09 	andeq	pc, r0, r9, lsl #26
    5798:	04280d00 	strteq	r0, [r8], #-3328	; 0xfffff300
    579c:	a5030000 	strge	r0, [r3, #-0]
    57a0:	00002507 	andeq	r2, r0, r7, lsl #10
    57a4:	370d0000 	strcc	r0, [sp, -r0]
    57a8:	03000004 	movweq	r0, #4
    57ac:	00a705aa 	adceq	r0, r7, sl, lsr #11
    57b0:	00040000 	andeq	r0, r4, r0
    57b4:	0003b204 	andeq	fp, r3, r4, lsl #4
    57b8:	03ab0300 			; <UNDEFINED> instruction: 0x03ab0300
    57bc:	000000d9 	ldrdeq	r0, [r0], -r9
    57c0:	0001ad04 	andeq	sl, r1, r4, lsl #26
    57c4:	1baf0300 	blne	febc63cc <__bss_end__+0xfebbc35c>
    57c8:	0000006b 	andeq	r0, r0, fp, rrx
    57cc:	0405040e 	streq	r0, [r5], #-1038	; 0xfffffbf2
    57d0:	0000011d 	andeq	r0, r0, sp, lsl r1
    57d4:	f8080103 			; <UNDEFINED> instruction: 0xf8080103
    57d8:	0f000002 	svceq	0x00000002
    57dc:	0000011d 	andeq	r0, r0, sp, lsl r1
    57e0:	00047704 	andeq	r7, r4, r4, lsl #14
    57e4:	19160500 	ldmdbne	r6, {r8, sl}
    57e8:	0000005d 	andeq	r0, r0, sp, asr r0
    57ec:	0001be10 	andeq	fp, r1, r0, lsl lr
    57f0:	2f051800 	svccs	0x00051800
    57f4:	00018f08 	andeq	r8, r1, r8, lsl #30
    57f8:	03d30d00 	bicseq	r0, r3, #0, 26
    57fc:	31050000 	mrscc	r0, (UNDEF: 5)
    5800:	00018f13 	andeq	r8, r1, r3, lsl pc
    5804:	5f110000 	svcpl	0x00110000
    5808:	3205006b 	andcc	r0, r5, #107	; 0x6b
    580c:	00002507 	andeq	r2, r0, r7, lsl #10
    5810:	130d0400 	movwne	r0, #54272	; 0xd400
    5814:	05000004 	streq	r0, [r0, #-4]
    5818:	00250b32 	eoreq	r0, r5, r2, lsr fp
    581c:	0d080000 	stceq	0, cr0, [r8, #-0]
    5820:	000001a7 	andeq	r0, r0, r7, lsr #3
    5824:	25143205 	ldrcs	r3, [r4, #-517]	; 0xfffffdfb
    5828:	0c000000 	stceq	0, cr0, [r0], {-0}
    582c:	0004b30d 	andeq	fp, r4, sp, lsl #6
    5830:	1b320500 	blne	c86c38 <__bss_end__+0xc7cbc8>
    5834:	00000025 	andeq	r0, r0, r5, lsr #32
    5838:	785f1110 	ldmdavc	pc, {r4, r8, ip}^	; <UNPREDICTABLE>
    583c:	0b330500 	bleq	cc6c44 <__bss_end__+0xcbcbd4>
    5840:	00000195 	muleq	r0, r5, r1
    5844:	04050014 	streq	r0, [r5], #-20	; 0xffffffec
    5848:	00000135 	andeq	r0, r0, r5, lsr r1
    584c:	0001290a 	andeq	r2, r1, sl, lsl #18
    5850:	0001a500 	andeq	sl, r1, r0, lsl #10
    5854:	002c0b00 	eoreq	r0, ip, r0, lsl #22
    5858:	00000000 	andeq	r0, r0, r0
    585c:	0001eb10 	andeq	lr, r1, r0, lsl fp
    5860:	37052400 	strcc	r2, [r5, -r0, lsl #8]
    5864:	00022808 	andeq	r2, r2, r8, lsl #16
    5868:	00ac0d00 	adceq	r0, ip, r0, lsl #26
    586c:	39050000 	stmdbcc	r5, {}	; <UNPREDICTABLE>
    5870:	00002509 	andeq	r2, r0, r9, lsl #10
    5874:	4d0d0000 	stcmi	0, cr0, [sp, #-0]
    5878:	05000004 	streq	r0, [r0, #-4]
    587c:	0025093a 	eoreq	r0, r5, sl, lsr r9
    5880:	0d040000 	stceq	0, cr0, [r4, #-0]
    5884:	000000cf 	andeq	r0, r0, pc, asr #1
    5888:	25093b05 	strcs	r3, [r9, #-2821]	; 0xfffff4fb
    588c:	08000000 	stmdaeq	r0, {}	; <UNPREDICTABLE>
    5890:	0005340d 	andeq	r3, r5, sp, lsl #8
    5894:	093c0500 	ldmdbeq	ip!, {r8, sl}
    5898:	00000025 	andeq	r0, r0, r5, lsr #32
    589c:	02b40d0c 	adcseq	r0, r4, #12, 26	; 0x300
    58a0:	3d050000 	stccc	0, cr0, [r5, #-0]
    58a4:	00002509 	andeq	r2, r0, r9, lsl #10
    58a8:	960d1000 	strls	r1, [sp], -r0
    58ac:	05000002 	streq	r0, [r0, #-2]
    58b0:	0025093e 	eoreq	r0, r5, lr, lsr r9
    58b4:	0d140000 	ldceq	0, cr0, [r4, #-0]
    58b8:	000004b8 			; <UNDEFINED> instruction: 0x000004b8
    58bc:	25093f05 	strcs	r3, [r9, #-3845]	; 0xfffff0fb
    58c0:	18000000 	stmdane	r0, {}	; <UNPREDICTABLE>
    58c4:	0003940d 	andeq	r9, r3, sp, lsl #8
    58c8:	09400500 	stmdbeq	r0, {r8, sl}^
    58cc:	00000025 	andeq	r0, r0, r5, lsr #32
    58d0:	04fb0d1c 	ldrbteq	r0, [fp], #3356	; 0xd1c
    58d4:	41050000 	mrsmi	r0, (UNDEF: 5)
    58d8:	00002509 	andeq	r2, r0, r9, lsl #10
    58dc:	12002000 	andne	r2, r0, #0
    58e0:	0000010f 	andeq	r0, r0, pc, lsl #2
    58e4:	4a050108 	bmi	145d0c <__bss_end__+0x13bc9c>
    58e8:	00026d08 	andeq	r6, r2, r8, lsl #26
    58ec:	019a0d00 	orrseq	r0, sl, r0, lsl #26
    58f0:	4b050000 	blmi	1458f8 <__bss_end__+0x13b888>
    58f4:	00026d0a 	andeq	r6, r2, sl, lsl #26
    58f8:	000d0000 	andeq	r0, sp, r0
    58fc:	05000000 	streq	r0, [r0, #-0]
    5900:	026d094c 	rsbeq	r0, sp, #76, 18	; 0x130000
    5904:	13800000 	orrne	r0, r0, #0
    5908:	00000469 	andeq	r0, r0, r9, ror #8
    590c:	290a4e05 	stmdbcs	sl, {r0, r2, r9, sl, fp, lr}
    5910:	00000001 	andeq	r0, r0, r1
    5914:	01341301 	teqeq	r4, r1, lsl #6
    5918:	51050000 	mrspl	r0, (UNDEF: 5)
    591c:	0001290a 	andeq	r2, r1, sl, lsl #18
    5920:	00010400 	andeq	r0, r1, r0, lsl #8
    5924:	0001150a 	andeq	r1, r1, sl, lsl #10
    5928:	00027d00 	andeq	r7, r2, r0, lsl #26
    592c:	002c0b00 	eoreq	r0, ip, r0, lsl #22
    5930:	001f0000 	andseq	r0, pc, r0
    5934:	0002bd12 	andeq	fp, r2, r2, lsl sp
    5938:	05019000 	streq	r9, [r1, #-0]
    593c:	02c0085d 	sbceq	r0, r0, #6094848	; 0x5d0000
    5940:	d30d0000 	movwle	r0, #53248	; 0xd000
    5944:	05000003 	streq	r0, [r0, #-3]
    5948:	02c0125e 	sbceq	r1, r0, #-536870907	; 0xe0000005
    594c:	0d000000 	stceq	0, cr0, [r0, #-0]
    5950:	000003eb 	andeq	r0, r0, fp, ror #7
    5954:	25065f05 	strcs	r5, [r6, #-3845]	; 0xfffff0fb
    5958:	04000000 	streq	r0, [r0], #-0
    595c:	0001a20d 	andeq	sl, r1, sp, lsl #4
    5960:	09610500 	stmdbeq	r1!, {r8, sl}^
    5964:	000002c6 	andeq	r0, r0, r6, asr #5
    5968:	010f0d08 	tsteq	pc, r8, lsl #26
    596c:	62050000 	andvs	r0, r5, #0
    5970:	0002281e 	andeq	r2, r2, lr, lsl r8
    5974:	05008800 	streq	r8, [r0, #-2048]	; 0xfffff800
    5978:	00027d04 	andeq	r7, r2, r4, lsl #26
    597c:	02d60a00 	sbcseq	r0, r6, #0, 20
    5980:	02d60000 	sbcseq	r0, r6, #0
    5984:	2c0b0000 	stccs	0, cr0, [fp], {-0}
    5988:	1f000000 	svcne	0x00000000
    598c:	dc040500 	cfstr32le	mvfx0, [r4], {-0}
    5990:	14000002 	strne	r0, [r0], #-2
    5994:	00039e10 	andeq	r9, r3, r0, lsl lr
    5998:	75050800 	strvc	r0, [r5, #-2048]	; 0xfffff800
    599c:	00030508 	andeq	r0, r3, r8, lsl #10
    59a0:	00c90d00 	sbceq	r0, r9, r0, lsl #26
    59a4:	76050000 	strvc	r0, [r5], -r0
    59a8:	00030511 	andeq	r0, r3, r1, lsl r5
    59ac:	1b0d0000 	blne	3459b4 <__bss_end__+0x33b944>
    59b0:	05000000 	streq	r0, [r0, #-0]
    59b4:	00250677 	eoreq	r0, r5, r7, ror r6
    59b8:	00040000 	andeq	r0, r4, r0
    59bc:	004f0405 	subeq	r0, pc, r5, lsl #8
    59c0:	bd100000 	ldclt	0, cr0, [r0, #-0]
    59c4:	68000003 	stmdavs	r0, {r0, r1}
    59c8:	4e08b505 	cfsh32mi	mvfx11, mvfx8, #5
    59cc:	11000004 	tstne	r0, r4
    59d0:	0500705f 	streq	r7, [r0, #-95]	; 0xffffffa1
    59d4:	030512b6 	movweq	r1, #21174	; 0x52b6
    59d8:	11000000 	mrsne	r0, (UNDEF: 0)
    59dc:	0500725f 	streq	r7, [r0, #-607]	; 0xfffffda1
    59e0:	002507b7 	strhteq	r0, [r5], -r7
    59e4:	11040000 	mrsne	r0, (UNDEF: 4)
    59e8:	0500775f 	streq	r7, [r0, #-1887]	; 0xfffff8a1
    59ec:	002507b8 	strhteq	r0, [r5], -r8
    59f0:	0d080000 	stceq	0, cr0, [r8, #-0]
    59f4:	0000012d 	andeq	r0, r0, sp, lsr #2
    59f8:	3a09b905 	bcc	273e14 <__bss_end__+0x269da4>
    59fc:	0c000000 	stceq	0, cr0, [r0], {-0}
    5a00:	0002160d 	andeq	r1, r2, sp, lsl #12
    5a04:	09ba0500 	ldmibeq	sl!, {r8, sl}
    5a08:	0000003a 	andeq	r0, r0, sl, lsr r0
    5a0c:	625f110e 	subsvs	r1, pc, #-2147483645	; 0x80000003
    5a10:	bb050066 	bllt	145bb0 <__bss_end__+0x13bb40>
    5a14:	0002dd11 	andeq	sp, r2, r1, lsl sp
    5a18:	890d1000 	stmdbhi	sp, {ip}
    5a1c:	05000000 	streq	r0, [r0, #-0]
    5a20:	002507bc 	strhteq	r0, [r5], -ip
    5a24:	0d180000 	ldceq	0, cr0, [r8, #-0]
    5a28:	0000011d 	andeq	r0, r0, sp, lsl r1
    5a2c:	150ac305 	strne	ip, [sl, #-773]	; 0xfffffcfb
    5a30:	1c000001 	stcne	0, cr0, [r0], {1}
    5a34:	000b420d 	andeq	r4, fp, sp, lsl #4
    5a38:	1dc50500 	cfstr64ne	mvdx0, [r5]
    5a3c:	000005c0 	andeq	r0, r0, r0, asr #11
    5a40:	06370d20 	ldrteq	r0, [r7], -r0, lsr #26
    5a44:	c7050000 	strgt	r0, [r5, -r0]
    5a48:	0005ea1d 	andeq	lr, r5, sp, lsl sl
    5a4c:	3f0d2400 	svccc	0x000d2400
    5a50:	05000004 	streq	r0, [r0, #-4]
    5a54:	060e0dca 	streq	r0, [lr], -sl, asr #27
    5a58:	0d280000 	stceq	0, cr0, [r8, #-0]
    5a5c:	00000515 	andeq	r0, r0, r5, lsl r5
    5a60:	2809cb05 	stmdacs	r9, {r0, r2, r8, r9, fp, lr, pc}
    5a64:	2c000006 	stccs	0, cr0, [r0], {6}
    5a68:	62755f11 	rsbsvs	r5, r5, #17, 30	; 0x44
    5a6c:	11ce0500 	bicne	r0, lr, r0, lsl #10
    5a70:	000002dd 	ldrdeq	r0, [r0], -sp
    5a74:	755f1130 	ldrbvc	r1, [pc, #-304]	; 594c <_start-0x26b4>
    5a78:	cf050070 	svcgt	0x00050070
    5a7c:	00030512 	andeq	r0, r3, r2, lsl r5
    5a80:	5f113800 	svcpl	0x00113800
    5a84:	05007275 	streq	r7, [r0, #-629]	; 0xfffffd8b
    5a88:	002507d0 	ldrdeq	r0, [r5], -r0	; <UNPREDICTABLE>
    5a8c:	0d3c0000 	ldceq	0, cr0, [ip, #-0]
    5a90:	000000c3 	andeq	r0, r0, r3, asr #1
    5a94:	2e11d305 	cdpcs	3, 1, cr13, cr1, cr5, {0}
    5a98:	40000006 	andmi	r0, r0, r6
    5a9c:	0004ed0d 	andeq	lr, r4, sp, lsl #26
    5aa0:	11d40500 	bicsne	r0, r4, r0, lsl #10
    5aa4:	0000063e 	andeq	r0, r0, lr, lsr r6
    5aa8:	6c5f1143 	ldfvse	f1, [pc], {67}	; 0x43
    5aac:	d7050062 	strle	r0, [r5, -r2, rrx]
    5ab0:	0002dd11 	andeq	sp, r2, r1, lsl sp
    5ab4:	4b0d4400 	blmi	356abc <__bss_end__+0x34ca4c>
    5ab8:	05000001 	streq	r0, [r0, #-1]
    5abc:	002507da 	ldrdeq	r0, [r5], -sl	; <UNPREDICTABLE>
    5ac0:	0d4c0000 	stcleq	0, cr0, [ip, #-0]
    5ac4:	0000015c 	andeq	r0, r0, ip, asr r1
    5ac8:	820adb05 	andhi	sp, sl, #5120	; 0x1400
    5acc:	50000000 	andpl	r0, r0, r0
    5ad0:	000ae30d 	andeq	lr, sl, sp, lsl #6
    5ad4:	12de0500 	sbcsne	r0, lr, #0, 10
    5ad8:	0000046c 	andeq	r0, r0, ip, ror #8
    5adc:	04310d54 	ldrteq	r0, [r1], #-3412	; 0xfffff2ac
    5ae0:	e2050000 	and	r0, r5, #0
    5ae4:	0001090c 	andeq	r0, r1, ip, lsl #18
    5ae8:	c50d5800 	strgt	r5, [sp, #-2048]	; 0xfffff800
    5aec:	05000003 	streq	r0, [r0, #-3]
    5af0:	00fd0ee4 	rscseq	r0, sp, r4, ror #29
    5af4:	0d5c0000 	ldcleq	0, cr0, [ip, #-0]
    5af8:	0000028e 	andeq	r0, r0, lr, lsl #5
    5afc:	2509e505 	strcs	lr, [r9, #-1285]	; 0xfffffafb
    5b00:	64000000 	strvs	r0, [r0], #-0
    5b04:	00251500 	eoreq	r1, r5, r0, lsl #10
    5b08:	046c0000 	strbteq	r0, [ip], #-0
    5b0c:	6c160000 	ldcvs	0, cr0, [r6], {-0}
    5b10:	16000004 	strne	r0, [r0], -r4
    5b14:	00000115 	andeq	r0, r0, r5, lsl r1
    5b18:	00011716 	andeq	r1, r1, r6, lsl r7
    5b1c:	00251600 	eoreq	r1, r5, r0, lsl #12
    5b20:	05000000 	streq	r0, [r0, #-0]
    5b24:	00047704 	andeq	r7, r4, r4, lsl #14
    5b28:	046c0f00 	strbteq	r0, [ip], #-3840	; 0xfffff100
    5b2c:	1b170000 	blne	5c5b34 <__bss_end__+0x5bbac4>
    5b30:	28000004 	stmdacs	r0, {r2}
    5b34:	02600504 	rsbeq	r0, r0, #4, 10	; 0x1000000
    5b38:	0005c008 	andeq	ip, r5, r8
    5b3c:	03831800 	orreq	r1, r3, #0, 16
    5b40:	62050000 	andvs	r0, r5, #0
    5b44:	00250702 	eoreq	r0, r5, r2, lsl #14
    5b48:	18000000 	stmdane	r0, {}	; <UNPREDICTABLE>
    5b4c:	0000013c 	andeq	r0, r0, ip, lsr r1
    5b50:	0b026705 	bleq	9f76c <__bss_end__+0x956fc>
    5b54:	0000069a 	muleq	r0, sl, r6
    5b58:	02061804 	andeq	r1, r6, #4, 16	; 0x40000
    5b5c:	67050000 	strvs	r0, [r5, -r0]
    5b60:	069a1402 	ldreq	r1, [sl], r2, lsl #8
    5b64:	18080000 	stmdane	r8, {}	; <UNPREDICTABLE>
    5b68:	000001b6 			; <UNDEFINED> instruction: 0x000001b6
    5b6c:	1e026705 	cdpne	7, 0, cr6, cr2, cr5, {0}
    5b70:	0000069a 	muleq	r0, sl, r6
    5b74:	03e6180c 	mvneq	r1, #12, 16	; 0xc0000
    5b78:	69050000 	stmdbvs	r5, {}	; <UNPREDICTABLE>
    5b7c:	00250802 	eoreq	r0, r5, r2, lsl #16
    5b80:	18100000 	ldmdane	r0, {}	; <UNPREDICTABLE>
    5b84:	00000037 	andeq	r0, r0, r7, lsr r0
    5b88:	08026a05 	stmdaeq	r2, {r0, r2, r9, fp, sp, lr}
    5b8c:	0000089a 	muleq	r0, sl, r8
    5b90:	03fa1814 	mvnseq	r1, #20, 16	; 0x140000
    5b94:	6d050000 	stcvs	0, cr0, [r5, #-0]
    5b98:	00250702 	eoreq	r0, r5, r2, lsl #14
    5b9c:	18300000 	ldmdane	r0!, {}	; <UNPREDICTABLE>
    5ba0:	00000a1f 	andeq	r0, r0, pc, lsl sl
    5ba4:	16026e05 	strne	r6, [r2], -r5, lsl #28
    5ba8:	000008af 	andeq	r0, r0, pc, lsr #17
    5bac:	02c51834 	sbceq	r1, r5, #52, 16	; 0x340000
    5bb0:	70050000 	andvc	r0, r5, r0
    5bb4:	00250702 	eoreq	r0, r5, r2, lsl #14
    5bb8:	18380000 	ldmdane	r8!, {}	; <UNPREDICTABLE>
    5bbc:	000003f0 	strdeq	r0, [r0], -r0	; <UNPREDICTABLE>
    5bc0:	0a027205 	beq	a23dc <__bss_end__+0x9836c>
    5bc4:	000008c0 	andeq	r0, r0, r0, asr #17
    5bc8:	0265183c 	rsbeq	r1, r5, #60, 16	; 0x3c0000
    5bcc:	75050000 	strvc	r0, [r5, #-0]
    5bd0:	018f1302 	orreq	r1, pc, r2, lsl #6
    5bd4:	18400000 	stmdane	r0, {}^	; <UNPREDICTABLE>
    5bd8:	000001d5 	ldrdeq	r0, [r0], -r5
    5bdc:	07027605 	streq	r7, [r2, -r5, lsl #12]
    5be0:	00000025 	andeq	r0, r0, r5, lsr #32
    5be4:	052f1844 	streq	r1, [pc, #-2116]!	; 53a8 <_start-0x2c58>
    5be8:	77050000 	strvc	r0, [r5, -r0]
    5bec:	018f1302 	orreq	r1, pc, r2, lsl #6
    5bf0:	18480000 	stmdane	r8, {}^	; <UNPREDICTABLE>
    5bf4:	000002d7 	ldrdeq	r0, [r0], -r7
    5bf8:	14027805 	strne	r7, [r2], #-2053	; 0xfffff7fb
    5bfc:	000008c6 	andeq	r0, r0, r6, asr #17
    5c00:	020e184c 	andeq	r1, lr, #76, 16	; 0x4c0000
    5c04:	7b050000 	blvc	145c0c <__bss_end__+0x13bb9c>
    5c08:	00250702 	eoreq	r0, r5, r2, lsl #14
    5c0c:	18500000 	ldmdane	r0, {}^	; <UNPREDICTABLE>
    5c10:	00000154 	andeq	r0, r0, r4, asr r1
    5c14:	09027c05 	stmdbeq	r2, {r0, r2, sl, fp, ip, sp, lr}
    5c18:	00000117 	andeq	r0, r0, r7, lsl r1
    5c1c:	02fd1854 	rscseq	r1, sp, #84, 16	; 0x540000
    5c20:	9f050000 	svcls	0x00050000
    5c24:	08750702 	ldmdaeq	r5!, {r1, r8, r9, sl}^
    5c28:	19580000 	ldmdbne	r8, {}^	; <UNPREDICTABLE>
    5c2c:	000002bd 			; <UNDEFINED> instruction: 0x000002bd
    5c30:	1302a305 	movwne	sl, #8965	; 0x2305
    5c34:	000002c0 	andeq	r0, r0, r0, asr #5
    5c38:	43190148 	tstmi	r9, #72, 2
    5c3c:	05000002 	streq	r0, [r0, #-2]
    5c40:	7d1202a4 	lfmvc	f0, 4, [r2, #-656]	; 0xfffffd70
    5c44:	4c000002 	stcmi	0, cr0, [r0], {2}
    5c48:	04db1901 	ldrbeq	r1, [fp], #2305	; 0x901
    5c4c:	a8050000 	stmdage	r5, {}	; <UNPREDICTABLE>
    5c50:	08d70c02 	ldmeq	r7, {r1, sl, fp}^
    5c54:	02dc0000 	sbcseq	r0, ip, #0
    5c58:	00012519 	andeq	r2, r1, r9, lsl r5
    5c5c:	02ad0500 	adceq	r0, sp, #0, 10
    5c60:	00065b10 	andeq	r5, r6, r0, lsl fp
    5c64:	1902e000 	stmdbne	r2, {sp, lr, pc}
    5c68:	0000010a 	andeq	r0, r0, sl, lsl #2
    5c6c:	0a02af05 	beq	b1888 <__bss_end__+0xa7818>
    5c70:	000008e3 	andeq	r0, r0, r3, ror #17
    5c74:	050002ec 	streq	r0, [r0, #-748]	; 0xfffffd14
    5c78:	00044e04 	andeq	r4, r4, r4, lsl #28
    5c7c:	00251500 	eoreq	r1, r5, r0, lsl #10
    5c80:	05e40000 	strbeq	r0, [r4, #0]!
    5c84:	6c160000 	ldcvs	0, cr0, [r6], {-0}
    5c88:	16000004 	strne	r0, [r0], -r4
    5c8c:	00000115 	andeq	r0, r0, r5, lsl r1
    5c90:	0005e416 	andeq	lr, r5, r6, lsl r4
    5c94:	00251600 	eoreq	r1, r5, r0, lsl #12
    5c98:	05000000 	streq	r0, [r0, #-0]
    5c9c:	00012404 	andeq	r2, r1, r4, lsl #8
    5ca0:	c6040500 	strgt	r0, [r4], -r0, lsl #10
    5ca4:	15000005 	strne	r0, [r0, #-5]
    5ca8:	0000008e 	andeq	r0, r0, lr, lsl #1
    5cac:	0000060e 	andeq	r0, r0, lr, lsl #12
    5cb0:	00046c16 	andeq	r6, r4, r6, lsl ip
    5cb4:	01151600 	tsteq	r5, r0, lsl #12
    5cb8:	8e160000 	cdphi	0, 1, cr0, cr6, cr0, {0}
    5cbc:	16000000 	strne	r0, [r0], -r0
    5cc0:	00000025 	andeq	r0, r0, r5, lsr #32
    5cc4:	f0040500 			; <UNDEFINED> instruction: 0xf0040500
    5cc8:	15000005 	strne	r0, [r0, #-5]
    5ccc:	00000025 	andeq	r0, r0, r5, lsr #32
    5cd0:	00000628 	andeq	r0, r0, r8, lsr #12
    5cd4:	00046c16 	andeq	r6, r4, r6, lsl ip
    5cd8:	01151600 	tsteq	r5, r0, lsl #12
    5cdc:	05000000 	streq	r0, [r0, #-0]
    5ce0:	00061404 	andeq	r1, r6, r4, lsl #8
    5ce4:	004f0a00 	subeq	r0, pc, r0, lsl #20
    5ce8:	063e0000 	ldrteq	r0, [lr], -r0
    5cec:	2c0b0000 	stccs	0, cr0, [fp], {-0}
    5cf0:	02000000 	andeq	r0, r0, #0
    5cf4:	004f0a00 	subeq	r0, pc, r0, lsl #20
    5cf8:	064e0000 	strbeq	r0, [lr], -r0
    5cfc:	2c0b0000 	stccs	0, cr0, [fp], {-0}
    5d00:	00000000 	andeq	r0, r0, r0
    5d04:	03ab0700 			; <UNDEFINED> instruction: 0x03ab0700
    5d08:	1f050000 	svcne	0x00050000
    5d0c:	030b1a01 	movweq	r1, #47617	; 0xba01
    5d10:	c21a0000 	andsgt	r0, sl, #0
    5d14:	0c000004 	stceq	0, cr0, [r0], {4}
    5d18:	08012305 	stmdaeq	r1, {r0, r2, r8, r9, sp}
    5d1c:	00000694 	muleq	r0, r4, r6
    5d20:	0003d318 	andeq	sp, r3, r8, lsl r3
    5d24:	01250500 			; <UNDEFINED> instruction: 0x01250500
    5d28:	00069411 	andeq	r9, r6, r1, lsl r4
    5d2c:	29180000 	ldmdbcs	r8, {}	; <UNPREDICTABLE>
    5d30:	05000002 	streq	r0, [r0, #-2]
    5d34:	25070126 	strcs	r0, [r7, #-294]	; 0xfffffeda
    5d38:	04000000 	streq	r0, [r0], #-0
    5d3c:	0003a518 	andeq	sl, r3, r8, lsl r5
    5d40:	01270500 			; <UNDEFINED> instruction: 0x01270500
    5d44:	00069a0b 	andeq	r9, r6, fp, lsl #20
    5d48:	05000800 	streq	r0, [r0, #-2048]	; 0xfffff800
    5d4c:	00065b04 	andeq	r5, r6, r4, lsl #22
    5d50:	4e040500 	cfsh32mi	mvfx0, mvfx4, #0
    5d54:	1a000006 	bne	5d74 <_start-0x228c>
    5d58:	0000002f 	andeq	r0, r0, pc, lsr #32
    5d5c:	013f050e 	teqeq	pc, lr, lsl #10
    5d60:	0006d908 	andeq	sp, r6, r8, lsl #18
    5d64:	04221800 	strteq	r1, [r2], #-2048	; 0xfffff800
    5d68:	40050000 	andmi	r0, r5, r0
    5d6c:	06d91201 	ldrbeq	r1, [r9], r1, lsl #4
    5d70:	18000000 	stmdane	r0, {}	; <UNPREDICTABLE>
    5d74:	00000456 	andeq	r0, r0, r6, asr r4
    5d78:	12014105 	andne	r4, r1, #1073741825	; 0x40000001
    5d7c:	000006d9 	ldrdeq	r0, [r0], -r9
    5d80:	04721806 	ldrbteq	r1, [r2], #-2054	; 0xfffff7fa
    5d84:	42050000 	andmi	r0, r5, #0
    5d88:	00561201 	subseq	r1, r6, r1, lsl #4
    5d8c:	000c0000 	andeq	r0, ip, r0
    5d90:	0000560a 	andeq	r5, r0, sl, lsl #12
    5d94:	0006e900 	andeq	lr, r6, r0, lsl #18
    5d98:	002c0b00 	eoreq	r0, ip, r0, lsl #22
    5d9c:	00020000 	andeq	r0, r2, r0
    5da0:	8005d01b 	andhi	sp, r5, fp, lsl r0
    5da4:	07fe0702 	ldrbeq	r0, [lr, r2, lsl #14]!
    5da8:	a6180000 	ldrge	r0, [r8], -r0
    5dac:	05000004 	streq	r0, [r0, #-4]
    5db0:	2c180282 	lfmcs	f0, 4, [r8], {130}	; 0x82
    5db4:	00000000 	andeq	r0, r0, r0
    5db8:	00045c18 	andeq	r5, r4, r8, lsl ip
    5dbc:	02830500 	addeq	r0, r3, #0, 10
    5dc0:	00011712 	andeq	r1, r1, r2, lsl r7
    5dc4:	58180400 	ldmdapl	r8, {sl}
    5dc8:	05000002 	streq	r0, [r0, #-2]
    5dcc:	fe100284 	cdp2	2, 1, cr0, cr0, cr4, {4}
    5dd0:	08000007 	stmdaeq	r0, {r0, r1, r2}
    5dd4:	00050618 	andeq	r0, r5, r8, lsl r6
    5dd8:	02850500 	addeq	r0, r5, #0, 10
    5ddc:	0001a517 	andeq	sl, r1, r7, lsl r5
    5de0:	c6182400 	ldrgt	r2, [r8], -r0, lsl #8
    5de4:	05000001 	streq	r0, [r0, #-1]
    5de8:	250f0286 	strcs	r0, [pc, #-646]	; 5b6a <_start-0x2496>
    5dec:	48000000 	stmdami	r0, {}	; <UNPREDICTABLE>
    5df0:	0003ce18 	andeq	ip, r3, r8, lsl lr
    5df4:	02870500 	addeq	r0, r7, #0, 10
    5df8:	0000642c 	andeq	r6, r0, ip, lsr #8
    5dfc:	1c185000 	ldcne	0, cr5, [r8], {-0}
    5e00:	05000005 	streq	r0, [r0, #-5]
    5e04:	a01a0288 	andsge	r0, sl, r8, lsl #5
    5e08:	58000006 	stmdapl	r0, {r1, r2}
    5e0c:	0003d918 	andeq	sp, r3, r8, lsl r9
    5e10:	02890500 	addeq	r0, r9, #0, 10
    5e14:	0000fd16 	andeq	pc, r0, r6, lsl sp	; <UNPREDICTABLE>
    5e18:	21186800 	tstcs	r8, r0, lsl #16
    5e1c:	05000005 	streq	r0, [r0, #-5]
    5e20:	fd16028a 	ldc2	2, cr0, [r6, #-552]	; 0xfffffdd8
    5e24:	70000000 	andvc	r0, r0, r0
    5e28:	0002e118 	andeq	lr, r2, r8, lsl r1
    5e2c:	028b0500 	addeq	r0, fp, #0, 10
    5e30:	0000fd16 	andeq	pc, r0, r6, lsl sp	; <UNPREDICTABLE>
    5e34:	d1187800 	tstle	r8, r0, lsl #16
    5e38:	05000004 	streq	r0, [r0, #-4]
    5e3c:	0e10028c 	cdpeq	2, 1, cr0, cr0, cr12, {4}
    5e40:	80000008 	andhi	r0, r0, r8
    5e44:	00024c18 	andeq	r4, r2, r8, lsl ip
    5e48:	028d0500 	addeq	r0, sp, #0, 10
    5e4c:	00081e10 	andeq	r1, r8, r0, lsl lr
    5e50:	7f188800 	svcvc	0x00188800
    5e54:	05000004 	streq	r0, [r0, #-4]
    5e58:	250f028e 	strcs	r0, [pc, #-654]	; 5bd2 <_start-0x242e>
    5e5c:	a0000000 	andge	r0, r0, r0
    5e60:	00018c18 	andeq	r8, r1, r8, lsl ip
    5e64:	028f0500 	addeq	r0, pc, #0, 10
    5e68:	0000fd16 	andeq	pc, r0, r6, lsl sp	; <UNPREDICTABLE>
    5e6c:	9d18a400 	cfldrsls	mvf10, [r8, #-0]
    5e70:	05000000 	streq	r0, [r0, #-0]
    5e74:	fd160290 	ldc2	2, cr0, [r6, #-576]	; 0xfffffdc0
    5e78:	ac000000 	stcge	0, cr0, [r0], {-0}
    5e7c:	00017b18 	andeq	r7, r1, r8, lsl fp
    5e80:	02910500 	addseq	r0, r1, #0, 10
    5e84:	0000fd16 	andeq	pc, r0, r6, lsl sp	; <UNPREDICTABLE>
    5e88:	4a18b400 	bmi	632e90 <__bss_end__+0x628e20>
    5e8c:	05000000 	streq	r0, [r0, #-0]
    5e90:	fd160292 	ldc2	2, cr0, [r6, #-584]	; 0xfffffdb8
    5e94:	bc000000 	stclt	0, cr0, [r0], {-0}
    5e98:	00005918 	andeq	r5, r0, r8, lsl r9
    5e9c:	02930500 	addseq	r0, r3, #0, 10
    5ea0:	0000fd16 	andeq	pc, r0, r6, lsl sp	; <UNPREDICTABLE>
    5ea4:	8118c400 	tsthi	r8, r0, lsl #8
    5ea8:	05000003 	streq	r0, [r0, #-3]
    5eac:	25080294 	strcs	r0, [r8, #-660]	; 0xfffffd6c
    5eb0:	cc000000 	stcgt	0, cr0, [r0], {-0}
    5eb4:	011d0a00 	tsteq	sp, r0, lsl #20
    5eb8:	080e0000 	stmdaeq	lr, {}	; <UNPREDICTABLE>
    5ebc:	2c0b0000 	stccs	0, cr0, [fp], {-0}
    5ec0:	19000000 	stmdbne	r0, {}	; <UNPREDICTABLE>
    5ec4:	011d0a00 	tsteq	sp, r0, lsl #20
    5ec8:	081e0000 	ldmdaeq	lr, {}	; <UNPREDICTABLE>
    5ecc:	2c0b0000 	stccs	0, cr0, [fp], {-0}
    5ed0:	07000000 	streq	r0, [r0, -r0]
    5ed4:	011d0a00 	tsteq	sp, r0, lsl #20
    5ed8:	082e0000 	stmdaeq	lr!, {}	; <UNPREDICTABLE>
    5edc:	2c0b0000 	stccs	0, cr0, [fp], {-0}
    5ee0:	17000000 	strne	r0, [r0, -r0]
    5ee4:	05f01b00 	ldrbeq	r1, [r0, #2816]!	; 0xb00
    5ee8:	55070299 	strpl	r0, [r7, #-665]	; 0xfffffd67
    5eec:	18000008 	stmdane	r0, {r3}
    5ef0:	000002ad 	andeq	r0, r0, sp, lsr #5
    5ef4:	1b029c05 	blne	acf10 <__bss_end__+0xa2ea0>
    5ef8:	00000855 	andeq	r0, r0, r5, asr r8
    5efc:	04c81800 	strbeq	r1, [r8], #2048	; 0x800
    5f00:	9d050000 	stcls	0, cr0, [r5, #-0]
    5f04:	08651802 	stmdaeq	r5!, {r1, fp, ip}^
    5f08:	00780000 	rsbseq	r0, r8, r0
    5f0c:	0003050a 	andeq	r0, r3, sl, lsl #10
    5f10:	00086500 	andeq	r6, r8, r0, lsl #10
    5f14:	002c0b00 	eoreq	r0, ip, r0, lsl #22
    5f18:	001d0000 	andseq	r0, sp, r0
    5f1c:	00002c0a 	andeq	r2, r0, sl, lsl #24
    5f20:	00087500 	andeq	r7, r8, r0, lsl #10
    5f24:	002c0b00 	eoreq	r0, ip, r0, lsl #22
    5f28:	001d0000 	andseq	r0, sp, r0
    5f2c:	7e05f01c 	mcrvc	0, 0, pc, cr5, cr12, {0}	; <UNPREDICTABLE>
    5f30:	089a0302 	ldmeq	sl, {r1, r8, r9}
    5f34:	1b1d0000 	blne	745f3c <__bss_end__+0x73becc>
    5f38:	05000004 	streq	r0, [r0, #-4]
    5f3c:	e90b0295 	stmdb	fp, {r0, r2, r4, r7, r9}
    5f40:	1d000006 	stcne	0, cr0, [r0, #-24]	; 0xffffffe8
    5f44:	000004f3 	strdeq	r0, [r0], -r3
    5f48:	0b029e05 	bleq	ad764 <__bss_end__+0xa36f4>
    5f4c:	0000082e 	andeq	r0, r0, lr, lsr #16
    5f50:	011d0a00 	tsteq	sp, r0, lsl #20
    5f54:	08aa0000 	stmiaeq	sl!, {}	; <UNPREDICTABLE>
    5f58:	2c0b0000 	stccs	0, cr0, [fp], {-0}
    5f5c:	18000000 	stmdane	r0, {}	; <UNPREDICTABLE>
    5f60:	00920600 	addseq	r0, r2, r0, lsl #12
    5f64:	04050000 	streq	r0, [r5], #-0
    5f68:	000008aa 	andeq	r0, r0, sl, lsr #17
    5f6c:	0008c01e 	andeq	ip, r8, lr, lsl r0
    5f70:	046c1600 	strbteq	r1, [ip], #-1536	; 0xfffffa00
    5f74:	05000000 	streq	r0, [r0, #-0]
    5f78:	0008b504 	andeq	fp, r8, r4, lsl #10
    5f7c:	8f040500 	svchi	0x00040500
    5f80:	1e000001 	cdpne	0, 0, cr0, cr0, cr1, {0}
    5f84:	000008d7 	ldrdeq	r0, [r0], -r7
    5f88:	00002516 	andeq	r2, r0, r6, lsl r5
    5f8c:	04050000 	streq	r0, [r5], #-0
    5f90:	000008dd 	ldrdeq	r0, [r0], -sp
    5f94:	08cc0405 	stmiaeq	ip, {r0, r2, sl}^
    5f98:	4e0a0000 	cdpmi	0, 0, cr0, cr10, cr0, {0}
    5f9c:	f3000006 	vhadd.u8	d0, d0, d6
    5fa0:	0b000008 	bleq	5fc8 <_start-0x2038>
    5fa4:	0000002c 	andeq	r0, r0, ip, lsr #32
    5fa8:	931f0002 	tstls	pc, #2
    5fac:	05000004 	streq	r0, [r0, #-4]
    5fb0:	6c17032e 	ldcvs	3, cr0, [r7], {46}	; 0x2e
    5fb4:	1f000004 	svcne	0x00000004
    5fb8:	0000048c 	andeq	r0, r0, ip, lsl #9
    5fbc:	1d032f05 	stcne	15, cr2, [r3, #-20]	; 0xffffffec
    5fc0:	00000472 	andeq	r0, r0, r2, ror r4
    5fc4:	00002515 	andeq	r2, r0, r5, lsl r5
    5fc8:	00091c00 	andeq	r1, r9, r0, lsl #24
    5fcc:	00251600 	eoreq	r1, r5, r0, lsl #12
    5fd0:	20000000 	andcs	r0, r0, r0
    5fd4:	000001df 	ldrdeq	r0, [r0], -pc	; <UNPREDICTABLE>
    5fd8:	280e1d06 	stmdacs	lr, {r1, r2, r8, sl, fp, ip}
    5fdc:	05000009 	streq	r0, [r0, #-9]
    5fe0:	00090d04 	andeq	r0, r9, r4, lsl #26
    5fe4:	00251500 	eoreq	r1, r5, r0, lsl #10
    5fe8:	093d0000 	ldmdbeq	sp!, {}	; <UNPREDICTABLE>
    5fec:	e4160000 	ldr	r0, [r6], #-0
    5ff0:	00000005 	andeq	r0, r0, r5
    5ff4:	00078620 	andeq	r8, r7, r0, lsr #12
    5ff8:	0e220600 	cfmadda32eq	mvax0, mvax0, mvfx2, mvfx0
    5ffc:	00000949 	andeq	r0, r0, r9, asr #18
    6000:	092e0405 	stmdbeq	lr!, {r0, r2, sl}
    6004:	24040000 	strcs	r0, [r4], #-0
    6008:	07000007 	streq	r0, [r0, -r7]
    600c:	095b1b28 	ldmdbeq	fp, {r3, r5, r8, r9, fp, ip}^
    6010:	10210000 	eorne	r0, r1, r0
    6014:	04000007 	streq	r0, [r0], #-7
    6018:	09720008 	ldmdbeq	r2!, {r3}^
    601c:	33220000 			; <UNDEFINED> instruction: 0x33220000
    6020:	15000007 	strne	r0, [r0, #-7]
    6024:	00000001 	andeq	r0, r0, r1
    6028:	07120400 	ldreq	r0, [r2, -r0, lsl #8]
    602c:	63070000 	movwvs	r0, #28672	; 0x7000
    6030:	00094f18 	andeq	r4, r9, r8, lsl pc
    6034:	071a2300 	ldreq	r2, [sl, -r0, lsl #6]
    6038:	7f010000 	svcvc	0x00010000
    603c:	00002505 	andeq	r2, r0, r5, lsl #10
    6040:	008df400 	addeq	pc, sp, r0, lsl #8
    6044:	0002b000 	andeq	fp, r2, r0
    6048:	0e9c0100 	fmleqe	f0, f4, f0
    604c:	2400000c 	strcs	r0, [r0], #-12
    6050:	00667562 	rsbeq	r7, r6, r2, ror #10
    6054:	17157f01 	ldrne	r7, [r5, -r1, lsl #30]
    6058:	9b000001 	blls	6064 <_start-0x1f9c>
    605c:	9500000b 	strls	r0, [r0, #-11]
    6060:	2400000b 	strcs	r0, [r0], #-11
    6064:	7f01006e 	svcvc	0x0001006e
    6068:	0000251e 	andeq	r2, r0, lr, lsl r5
    606c:	000bcd00 	andeq	ip, fp, r0, lsl #26
    6070:	000bc700 	andeq	ip, fp, r0, lsl #14
    6074:	6d662400 	cfstrdvs	mvd2, [r6, #-0]
    6078:	7f010074 	svcvc	0x00010074
    607c:	0005e42d 	andeq	lr, r5, sp, lsr #8
    6080:	000bff00 	andeq	pc, fp, r0, lsl #30
    6084:	000bfb00 	andeq	pc, fp, r0, lsl #22
    6088:	01182500 	tsteq	r8, r0, lsl #10
    608c:	7f010000 	svcvc	0x00010000
    6090:	0009723a 	andeq	r7, r9, sl, lsr r2
    6094:	dc910300 	ldcle	3, cr0, [r1], {0}
    6098:	0070267e 	rsbseq	r2, r0, lr, ror r6
    609c:	17088001 	strne	r8, [r8, -r1]
    60a0:	31000001 	tstcc	r0, r1
    60a4:	1d00000c 	stcne	0, cr0, [r0, #-48]	; 0xffffffd0
    60a8:	2600000c 	strcs	r0, [r0], -ip
    60ac:	80010065 	andhi	r0, r1, r5, rrx
    60b0:	00011712 	andeq	r1, r1, r2, lsl r7
    60b4:	000cb300 	andeq	fp, ip, r0, lsl #6
    60b8:	000caf00 	andeq	sl, ip, r0, lsl #30
    60bc:	021c2700 	andseq	r2, ip, #0, 14
    60c0:	0c1e0000 	ldceq	0, cr0, [lr], {-0}
    60c4:	03050000 	movweq	r0, #20480	; 0x5000
    60c8:	00009b2c 	andeq	r9, r0, ip, lsr #22
    60cc:	008e5828 	addeq	r5, lr, r8, lsr #16
    60d0:	00022400 	andeq	r2, r2, r0, lsl #8
    60d4:	00732600 	rsbseq	r2, r3, r0, lsl #12
    60d8:	170a8d01 	strne	r8, [sl, -r1, lsl #26]
    60dc:	e4000001 	str	r0, [r0], #-1
    60e0:	da00000c 	ble	6118 <_start-0x1ee8>
    60e4:	2900000c 	stmdbcs	r0, {r2, r3}
    60e8:	006d756e 	rsbeq	r7, sp, lr, ror #10
    60ec:	230d8d01 	movwcs	r8, #56577	; 0xdd01
    60f0:	0300000c 	movweq	r0, #12
    60f4:	2a7ee091 	bcs	1fbe340 <__bss_end__+0x1fb42d0>
    60f8:	000007c8 	andeq	r0, r0, r8, asr #15
    60fc:	2c0d8e01 	stccs	14, cr8, [sp], {1}
    6100:	29000000 	stmdbcs	r0, {}	; <UNPREDICTABLE>
    6104:	2300000d 	movwcs	r0, #13
    6108:	2b00000d 	blcs	6144 <_start-0x1ebc>
    610c:	00008e80 	andeq	r8, r0, r0, lsl #29
    6110:	00000eae 	andeq	r0, r0, lr, lsr #29
    6114:	00000a68 	andeq	r0, r0, r8, ror #20
    6118:	0250012c 	subseq	r0, r0, #44, 2
    611c:	2d000075 	stccs	0, cr0, [r0, #-468]	; 0xfffffe2c
    6120:	00008f00 	andeq	r8, r0, r0, lsl #30
    6124:	00000f7f 	andeq	r0, r0, pc, ror pc
    6128:	008f142b 	addeq	r1, pc, fp, lsr #8
    612c:	000f8b00 	andeq	r8, pc, r0, lsl #22
    6130:	000aa000 	andeq	sl, sl, r0
    6134:	50012c00 	andpl	r2, r1, r0, lsl #24
    6138:	9a980305 	bls	fe606d54 <__bss_end__+0xfe5fcce4>
    613c:	012c0000 			; <UNDEFINED> instruction: 0x012c0000
    6140:	34030551 	strcc	r0, [r3], #-1361	; 0xfffffaaf
    6144:	2c00009a 	stccs	0, cr0, [r0], {154}	; 0x9a
    6148:	03055201 	movweq	r5, #20993	; 0x5201
    614c:	00009b2c 	andeq	r9, r0, ip, lsr #22
    6150:	0253012c 	subseq	r0, r3, #44, 2
    6154:	2d009408 	cfstrscs	mvf9, [r0, #-32]	; 0xffffffe0
    6158:	00008f18 	andeq	r8, r0, r8, lsl pc
    615c:	00000f97 	muleq	r0, r7, pc	; <UNPREDICTABLE>
    6160:	008f1c2d 	addeq	r1, pc, sp, lsr #24
    6164:	000f7f00 	andeq	r7, pc, r0, lsl #30
    6168:	8f302b00 	svchi	0x00302b00
    616c:	0f8b0000 	svceq	0x008b0000
    6170:	0ae10000 	beq	ff846178 <__bss_end__+0xff83c108>
    6174:	012c0000 			; <UNDEFINED> instruction: 0x012c0000
    6178:	b4030550 	strlt	r0, [r3], #-1360	; 0xfffffab0
    617c:	2c00009a 	stccs	0, cr0, [r0], {154}	; 0x9a
    6180:	03055101 	movweq	r5, #20737	; 0x5101
    6184:	00009a34 	andeq	r9, r0, r4, lsr sl
    6188:	0552012c 	ldrbeq	r0, [r2, #-300]	; 0xfffffed4
    618c:	009b2c03 	addseq	r2, fp, r3, lsl #24
    6190:	53012c00 	movwpl	r2, #7168	; 0x1c00
    6194:	009a0802 	addseq	r0, sl, r2, lsl #16
    6198:	008f342d 	addeq	r3, pc, sp, lsr #8
    619c:	000f9700 	andeq	r9, pc, r0, lsl #14
    61a0:	8f602b00 	svchi	0x00602b00
    61a4:	0c330000 	ldceq	0, cr0, [r3], #-0
    61a8:	0b170000 	bleq	5c61b0 <__bss_end__+0x5bc140>
    61ac:	012c0000 			; <UNDEFINED> instruction: 0x012c0000
    61b0:	2c3a0150 	ldfcss	f0, [sl], #-320	; 0xfffffec0
    61b4:	91035101 	tstls	r3, r1, lsl #2
    61b8:	012c7ed8 	ldrdeq	r7, [ip, -r8]!
    61bc:	80080252 	andhi	r0, r8, r2, asr r2
    61c0:	007d022c 	rsbseq	r0, sp, ip, lsr #4
    61c4:	2c007602 	stccs	6, cr7, [r0], {2}
    61c8:	01047d02 	tsteq	r4, r2, lsl #26
    61cc:	b02b0031 	eorlt	r0, fp, r1, lsr r0
    61d0:	3300008f 	movwcc	r0, #143	; 0x8f
    61d4:	4400000c 	strmi	r0, [r0], #-12
    61d8:	2c00000b 	stccs	0, cr0, [r0], {11}
    61dc:	3a015001 	bcc	5a1e8 <__bss_end__+0x50178>
    61e0:	0351012c 	cmpeq	r1, #44, 2
    61e4:	2c7ed891 	ldclcs	8, cr13, [lr], #-580	; 0xfffffdbc
    61e8:	08025201 	stmdaeq	r2, {r0, r9, ip, lr}
    61ec:	7d022c80 	stcvc	12, cr2, [r2, #-512]	; 0xfffffe00
    61f0:	00760200 	rsbseq	r0, r6, r0, lsl #4
    61f4:	047d022c 	ldrbteq	r0, [sp], #-556	; 0xfffffdd4
    61f8:	2b003001 	blcs	12204 <__bss_end__+0x8194>
    61fc:	00008fe0 	andeq	r8, r0, r0, ror #31
    6200:	00000c33 	andeq	r0, r0, r3, lsr ip
    6204:	00000b71 	andeq	r0, r0, r1, ror fp
    6208:	0150012c 	cmpeq	r0, ip, lsr #2
    620c:	51012c40 	tstpl	r1, r0, asr #24
    6210:	7ed89103 	atnvce	f1, f3
    6214:	0252012c 	subseq	r0, r2, #44, 2
    6218:	022c8008 	eoreq	r8, ip, #8
    621c:	7602007d 			; <UNDEFINED> instruction: 0x7602007d
    6220:	7d022c00 	stcvc	12, cr2, [r2, #-0]
    6224:	00300104 	eorseq	r0, r0, r4, lsl #2
    6228:	0090102b 	addseq	r1, r0, fp, lsr #32
    622c:	000c3300 	andeq	r3, ip, r0, lsl #6
    6230:	000b9e00 	andeq	r9, fp, r0, lsl #28
    6234:	50012c00 	andpl	r2, r1, r0, lsl #24
    6238:	012c3201 			; <UNDEFINED> instruction: 0x012c3201
    623c:	d8910351 	ldmle	r1, {r0, r4, r6, r8, r9}
    6240:	52012c7e 	andpl	r2, r1, #32256	; 0x7e00
    6244:	2c800802 	stccs	8, cr0, [r0], {2}
    6248:	02007d02 	andeq	r7, r0, #2, 26	; 0x80
    624c:	022c0076 	eoreq	r0, ip, #118	; 0x76
    6250:	3001047d 	andcc	r0, r1, sp, ror r4
    6254:	90542b00 	subsls	r2, r4, r0, lsl #22
    6258:	0c330000 	ldceq	0, cr0, [r3], #-0
    625c:	0bcb0000 	bleq	ff2c6264 <__bss_end__+0xff2bc1f4>
    6260:	012c0000 			; <UNDEFINED> instruction: 0x012c0000
    6264:	2c380150 	ldfcss	f0, [r8], #-320	; 0xfffffec0
    6268:	91035101 	tstls	r3, r1, lsl #2
    626c:	012c7ed8 	ldrdeq	r7, [ip, -r8]!
    6270:	80080252 	andhi	r0, r8, r2, asr r2
    6274:	007d022c 	rsbseq	r0, sp, ip, lsr #4
    6278:	2c007602 	stccs	6, cr7, [r0], {2}
    627c:	01047d02 	tsteq	r4, r2, lsl #26
    6280:	5c2d0030 	stcpl	0, cr0, [sp], #-192	; 0xffffff40
    6284:	7f000090 	svcvc	0x00000090
    6288:	2b00000f 	blcs	62cc <_start-0x1d34>
    628c:	00009078 	andeq	r9, r0, r8, ror r0
    6290:	00000f8b 	andeq	r0, r0, fp, lsl #31
    6294:	00000c03 	andeq	r0, r0, r3, lsl #24
    6298:	0550012c 	ldrbeq	r0, [r0, #-300]	; 0xfffffed4
    629c:	009adc03 	addseq	sp, sl, r3, lsl #24
    62a0:	51012c00 	tstpl	r1, r0, lsl #24
    62a4:	9a340305 	bls	d06ec0 <__bss_end__+0xcfce50>
    62a8:	012c0000 			; <UNDEFINED> instruction: 0x012c0000
    62ac:	2c030552 	cfstr32cs	mvfx0, [r3], {82}	; 0x52
    62b0:	2c00009b 	stccs	0, cr0, [r0], {155}	; 0x9b
    62b4:	08025301 	stmdaeq	r2, {r0, r8, r9, ip, lr}
    62b8:	7c2d00bb 	stcvc	0, cr0, [sp], #-748	; 0xfffffd14
    62bc:	97000090 			; <UNDEFINED> instruction: 0x97000090
    62c0:	0000000f 	andeq	r0, r0, pc
    62c4:	01240a00 			; <UNDEFINED> instruction: 0x01240a00
    62c8:	0c1e0000 	ldceq	0, cr0, [lr], {-0}
    62cc:	2c0b0000 	stccs	0, cr0, [fp], {-0}
    62d0:	09000000 	stmdbeq	r0, {}	; <UNPREDICTABLE>
    62d4:	0c0e0f00 	stceq	15, cr0, [lr], {-0}
    62d8:	1d0a0000 	stcne	0, cr0, [sl, #-0]
    62dc:	33000001 	movwcc	r0, #1
    62e0:	0b00000c 	bleq	6318 <_start-0x1ce8>
    62e4:	0000002c 	andeq	r0, r0, ip, lsr #32
    62e8:	ec2e007f 	stc	0, cr0, [lr], #-508	; 0xfffffe04
    62ec:	01000007 	tsteq	r0, r7
    62f0:	01170e47 	tsteq	r7, r7, asr #28
    62f4:	8bf40000 	blhi	ffd062fc <__bss_end__+0xffcfc28c>
    62f8:	01ac0000 			; <UNDEFINED> instruction: 0x01ac0000
    62fc:	9c010000 	stcls	0, cr0, [r1], {-0}
    6300:	00000d99 	muleq	r0, r9, sp
    6304:	0000ca2f 	andeq	ip, r0, pc, lsr #20
    6308:	1c470100 	stfnee	f0, [r7], {-0}
    630c:	0000002c 	andeq	r0, r0, ip, lsr #32
    6310:	00000d59 	andeq	r0, r0, r9, asr sp
    6314:	00000d53 	andeq	r0, r0, r3, asr sp
    6318:	74736424 	ldrbtvc	r6, [r3], #-1060	; 0xfffffbdc
    631c:	28470100 	stmdacs	r7, {r8}^
    6320:	00000117 	andeq	r0, r0, r7, lsl r1
    6324:	00000d97 	muleq	r0, r7, sp
    6328:	00000d87 	andeq	r0, r0, r7, lsl #27
    632c:	01006e24 	tsteq	r0, r4, lsr #28
    6330:	00253147 	eoreq	r3, r5, r7, asr #2
    6334:	0dfb0000 	ldcleq	0, cr0, [fp]
    6338:	0df70000 	ldcleq	0, cr0, [r7]
    633c:	76240000 	strtvc	r0, [r4], -r0
    6340:	01006c61 	tsteq	r0, r1, ror #24
    6344:	00253847 	eoreq	r3, r5, r7, asr #16
    6348:	0e230000 	cdpeq	0, 2, cr0, cr3, cr0, {0}
    634c:	0e190000 	cdpeq	0, 1, cr0, cr9, cr0, {0}
    6350:	c82f0000 	stmdagt	pc!, {}	; <UNPREDICTABLE>
    6354:	01000007 	tsteq	r0, r7
    6358:	00254147 	eoreq	r4, r5, r7, asr #2
    635c:	0e6e0000 	cdpeq	0, 6, cr0, cr14, cr0, {0}
    6360:	0e680000 	cdpeq	0, 6, cr0, cr8, cr0, {0}
    6364:	b7250000 	strlt	r0, [r5, -r0]!
    6368:	01000007 	tsteq	r0, r7
    636c:	00254c47 	eoreq	r4, r5, r7, asr #24
    6370:	91020000 	mrsls	r0, (UNDEF: 2)
    6374:	75622904 	strbvc	r2, [r2, #-2308]!	; 0xfffff6fc
    6378:	4c010066 	stcmi	0, cr0, [r1], {102}	; 0x66
    637c:	000d9907 	andeq	r9, sp, r7, lsl #18
    6380:	a8910300 	ldmge	r1, {r8, r9}
    6384:	0070267f 	rsbseq	r2, r0, pc, ror r6
    6388:	17114c01 	ldrne	r4, [r1, -r1, lsl #24]
    638c:	b8000001 	stmdalt	r0, {r0}
    6390:	9800000e 	stmdals	r0, {r1, r2, r3}
    6394:	2600000e 	strcs	r0, [r0], -lr
    6398:	4d010075 	stcmi	0, cr0, [r1, #-468]	; 0xfffffe2c
    639c:	00002c0b 	andeq	r2, r0, fp, lsl #24
    63a0:	000f8d00 	andeq	r8, pc, r0, lsl #26
    63a4:	000f7b00 	andeq	r7, pc, r0, lsl #22
    63a8:	021c2700 	andseq	r2, ip, #0, 14
    63ac:	0db90000 	ldceq	0, cr0, [r9]
    63b0:	03050000 	movweq	r0, #20480	; 0x5000
    63b4:	00009b14 	andeq	r9, r0, r4, lsl fp
    63b8:	008c6030 	addeq	r6, ip, r0, lsr r0
    63bc:	00007800 	andeq	r7, r0, r0, lsl #16
    63c0:	000d2300 	andeq	r2, sp, r0, lsl #6
    63c4:	07d62a00 	ldrbeq	r2, [r6, r0, lsl #20]
    63c8:	52010000 	andpl	r0, r1, #0
    63cc:	00002c0d 	andeq	r2, r0, sp, lsl #24
    63d0:	00100300 	andseq	r0, r0, r0, lsl #6
    63d4:	000ffb00 	andeq	pc, pc, r0, lsl #22
    63d8:	182b0000 	stmdane	fp!, {}	; <UNPREDICTABLE>
    63dc:	4b00008d 	blmi	6618 <_start-0x19e8>
    63e0:	3700000e 	strcc	r0, [r0, -lr]
    63e4:	2c00000d 	stccs	0, cr0, [r0], {13}
    63e8:	7d025101 	stfvcs	f5, [r2, #-4]
    63ec:	2c2b0000 	stccs	0, cr0, [fp], #-0
    63f0:	be00008d 	cdplt	0, 0, cr0, cr0, cr13, {4}
    63f4:	5700000d 	strpl	r0, [r0, -sp]
    63f8:	2c00000d 	stccs	0, cr0, [r0], {13}
    63fc:	75025001 	strvc	r5, [r2, #-1]
    6400:	51012c00 	tstpl	r1, r0, lsl #24
    6404:	2c007402 	cfstrscs	mvf7, [r0], {2}
    6408:	7d025301 	stcvc	3, cr5, [r2, #-4]
    640c:	6c2d0000 	stcvs	0, cr0, [sp], #-0
    6410:	7f00008d 	svcvc	0x0000008d
    6414:	2b00000f 	blcs	6458 <_start-0x1ba8>
    6418:	00008d80 	andeq	r8, r0, r0, lsl #27
    641c:	00000f8b 	andeq	r0, r0, fp, lsl #31
    6420:	00000d8f 	andeq	r0, r0, pc, lsl #27
    6424:	0550012c 	ldrbeq	r0, [r0, #-300]	; 0xfffffed4
    6428:	009a4803 	addseq	r4, sl, r3, lsl #16
    642c:	51012c00 	tstpl	r1, r0, lsl #24
    6430:	9a340305 	bls	d0704c <__bss_end__+0xcfcfdc>
    6434:	012c0000 			; <UNDEFINED> instruction: 0x012c0000
    6438:	14030552 	strne	r0, [r3], #-1362	; 0xfffffaae
    643c:	2c00009b 	stccs	0, cr0, [r0], {155}	; 0x9b
    6440:	08025301 	stmdaeq	r2, {r0, r8, r9, ip, lr}
    6444:	842d0077 	strthi	r0, [sp], #-119	; 0xffffff89
    6448:	9700008d 	strls	r0, [r0, -sp, lsl #1]
    644c:	0000000f 	andeq	r0, r0, pc
    6450:	00011d0a 	andeq	r1, r1, sl, lsl #26
    6454:	000da900 	andeq	sl, sp, r0, lsl #18
    6458:	002c0b00 	eoreq	r0, ip, r0, lsl #22
    645c:	003f0000 	eorseq	r0, pc, r0
    6460:	0001240a 	andeq	r2, r1, sl, lsl #8
    6464:	000db900 	andeq	fp, sp, r0, lsl #18
    6468:	002c0b00 	eoreq	r0, ip, r0, lsl #22
    646c:	00040000 	andeq	r0, r4, r0
    6470:	000da90f 	andeq	sl, sp, pc, lsl #18
    6474:	07c02e00 	strbeq	r2, [r0, r0, lsl #28]
    6478:	37010000 	strcc	r0, [r1, -r0]
    647c:	0001170e 	andeq	r1, r1, lr, lsl #14
    6480:	008bbc00 	addeq	fp, fp, r0, lsl #24
    6484:	00003800 	andeq	r3, r0, r0, lsl #16
    6488:	4b9c0100 	blmi	fe706890 <__bss_end__+0xfe6fc820>
    648c:	2400000e 	strcs	r0, [r0], #-14
    6490:	00747364 	rsbseq	r7, r4, r4, ror #6
    6494:	171c3701 	ldrne	r3, [ip, -r1, lsl #14]
    6498:	44000001 	strmi	r0, [r0], #-1
    649c:	3a000010 	bcc	64e4 <_start-0x1b1c>
    64a0:	24000010 	strcs	r0, [r0], #-16
    64a4:	3701006e 	strcc	r0, [r1, -lr, rrx]
    64a8:	00002525 	andeq	r2, r0, r5, lsr #10
    64ac:	00108b00 	andseq	r8, r0, r0, lsl #22
    64b0:	00108700 	andseq	r8, r0, r0, lsl #14
    64b4:	00702400 	rsbseq	r2, r0, r0, lsl #8
    64b8:	172e3701 	strne	r3, [lr, -r1, lsl #14]!
    64bc:	b4000001 	strlt	r0, [r0], #-1
    64c0:	ac000010 	stcge	0, cr0, [r0], {16}
    64c4:	2f000010 	svccs	0x00000010
    64c8:	00000c23 	andeq	r0, r0, r3, lsr #24
    64cc:	17373701 	ldrne	r3, [r7, -r1, lsl #14]!
    64d0:	ee000001 	cdp	0, 0, cr0, cr0, cr1, {0}
    64d4:	ea000010 	b	651c <_start-0x1ae4>
    64d8:	26000010 			; <UNDEFINED> instruction: 0x26000010
    64dc:	006e656c 	rsbeq	r6, lr, ip, ror #10
    64e0:	25063901 	strcs	r3, [r6, #-2305]	; 0xfffff6ff
    64e4:	14000000 	strne	r0, [r0], #-0
    64e8:	0c000011 	stceq	0, cr0, [r0], {17}
    64ec:	26000011 			; <UNDEFINED> instruction: 0x26000011
    64f0:	3d010073 	stccc	0, cr0, [r1, #-460]	; 0xfffffe34
    64f4:	00011708 	andeq	r1, r1, r8, lsl #14
    64f8:	00116200 	andseq	r6, r1, r0, lsl #4
    64fc:	00116000 	andseq	r6, r1, r0
    6500:	70310000 	eorsvc	r0, r1, r0
    6504:	01006461 	tsteq	r0, r1, ror #8
    6508:	01170e2e 	tsteq	r7, lr, lsr #28
    650c:	8b980000 	blhi	fe606514 <__bss_end__+0xfe5fc4a4>
    6510:	00240000 	eoreq	r0, r4, r0
    6514:	9c010000 	stcls	0, cr0, [r1], {-0}
    6518:	00000eae 	andeq	r0, r0, lr, lsr #29
    651c:	01007024 	tsteq	r0, r4, lsr #32
    6520:	0117182e 	tsteq	r7, lr, lsr #16
    6524:	117b0000 	cmnne	fp, r0
    6528:	11750000 	cmnne	r5, r0
    652c:	ca2f0000 	bgt	bc6534 <__bss_end__+0xbbc4c4>
    6530:	01000000 	mrseq	r0, (UNDEF: 0)
    6534:	0117222e 	tsteq	r7, lr, lsr #4
    6538:	11aa0000 			; <UNDEFINED> instruction: 0x11aa0000
    653c:	11a60000 			; <UNDEFINED> instruction: 0x11a60000
    6540:	c8250000 	stmdagt	r5!, {}	; <UNPREDICTABLE>
    6544:	01000007 	tsteq	r0, r7
    6548:	00252c2e 	eoreq	r2, r5, lr, lsr #24
    654c:	52010000 	andpl	r0, r1, #0
    6550:	6e656c26 	cdpvs	12, 6, cr6, cr5, cr6, {1}
    6554:	062f0100 	strteq	r0, [pc], -r0, lsl #2
    6558:	00000025 	andeq	r0, r0, r5, lsr #32
    655c:	000011cd 	andeq	r1, r0, sp, asr #3
    6560:	000011cb 	andeq	r1, r0, fp, asr #3
    6564:	07e42e00 	strbeq	r2, [r4, r0, lsl #28]!
    6568:	27010000 	strcs	r0, [r1, -r0]
    656c:	0000250c 	andeq	r2, r0, ip, lsl #10
    6570:	008b8400 	addeq	r8, fp, r0, lsl #8
    6574:	00001400 	andeq	r1, r0, r0, lsl #8
    6578:	db9c0100 	blle	fe706980 <__bss_end__+0xfe6fc910>
    657c:	2400000e 	strcs	r0, [r0], #-14
    6580:	27010063 	strcs	r0, [r1, -r3, rrx]
    6584:	00002518 	andeq	r2, r0, r8, lsl r5
    6588:	0011e600 	andseq	lr, r1, r0, lsl #12
    658c:	0011e000 	andseq	lr, r1, r0
    6590:	a8320000 	ldmdage	r2!, {}	; <UNPREDICTABLE>
    6594:	01000007 	tsteq	r0, r7
    6598:	8da0061f 	stchi	6, cr0, [r0, #124]!	; 0x7c
    659c:	00540000 	subseq	r0, r4, r0
    65a0:	9c010000 	stcls	0, cr0, [r1], {-0}
    65a4:	00000f6a 	andeq	r0, r0, sl, ror #30
    65a8:	0007dc2f 	andeq	sp, r7, pc, lsr #24
    65ac:	1b1f0100 	blne	7c69b4 <__bss_end__+0x7bc944>
    65b0:	00000928 	andeq	r0, r0, r8, lsr #18
    65b4:	00001218 	andeq	r1, r0, r8, lsl r2
    65b8:	00001214 	andeq	r1, r0, r4, lsl r2
    65bc:	0007ce2f 	andeq	ip, r7, pc, lsr #28
    65c0:	301f0100 	andscc	r0, pc, r0, lsl #2
    65c4:	00000949 	andeq	r0, r0, r9, asr #18
    65c8:	0000123d 	andeq	r1, r0, sp, lsr r2
    65cc:	00001239 	andeq	r1, r0, r9, lsr r2
    65d0:	00021c27 	andeq	r1, r2, r7, lsr #24
    65d4:	000f7a00 	andeq	r7, pc, r0, lsl #20
    65d8:	1c030500 	cfstr32ne	mvfx0, [r3], {-0}
    65dc:	2d00009b 	stccs	0, cr0, [r0, #-620]	; 0xfffffd94
    65e0:	00008dc8 	andeq	r8, r0, r8, asr #27
    65e4:	00000f7f 	andeq	r0, r0, pc, ror pc
    65e8:	008ddc2b 	addeq	sp, sp, fp, lsr #24
    65ec:	000f8b00 	andeq	r8, pc, r0, lsl #22
    65f0:	000f6000 	andeq	r6, pc, r0
    65f4:	50012c00 	andpl	r2, r1, r0, lsl #24
    65f8:	9a800305 	bls	fe007214 <__bss_end__+0xfdffd1a4>
    65fc:	012c0000 			; <UNDEFINED> instruction: 0x012c0000
    6600:	34030551 	strcc	r0, [r3], #-1361	; 0xfffffaaf
    6604:	2c00009a 	stccs	0, cr0, [r0], {154}	; 0x9a
    6608:	03055201 	movweq	r5, #20993	; 0x5201
    660c:	00009b1c 	andeq	r9, r0, ip, lsl fp
    6610:	0253012c 	subseq	r0, r3, #44, 2
    6614:	2d002008 	stccs	0, cr2, [r0, #-32]	; 0xffffffe0
    6618:	00008de0 	andeq	r8, r0, r0, ror #27
    661c:	00000f97 	muleq	r0, r7, pc	; <UNPREDICTABLE>
    6620:	01240a00 			; <UNDEFINED> instruction: 0x01240a00
    6624:	0f7a0000 	svceq	0x007a0000
    6628:	2c0b0000 	stccs	0, cr0, [fp], {-0}
    662c:	0e000000 	cdpeq	0, 0, cr0, cr0, cr0, {0}
    6630:	0f6a0f00 	svceq	0x006a0f00
    6634:	f7330000 			; <UNDEFINED> instruction: 0xf7330000
    6638:	f7000001 			; <UNDEFINED> instruction: 0xf7000001
    663c:	06000001 	streq	r0, [r0], -r1
    6640:	1d33061e 	ldcne	6, cr0, [r3, #-120]!	; 0xffffff88
    6644:	1d000007 	stcne	0, cr0, [r0, #-28]	; 0xffffffe4
    6648:	06000007 	streq	r0, [r0], -r7
    664c:	a0330529 	eorsge	r0, r3, r9, lsr #10
    6650:	a0000002 	andge	r0, r0, r2
    6654:	06000002 	streq	r0, [r0], -r2
    6658:	ab000665 	blge	7ff4 <_start-0xc>
    665c:	04000009 	streq	r0, [r0], #-9
    6660:	0013be00 	andseq	fp, r3, r0, lsl #28
    6664:	02010400 	andeq	r0, r1, #0, 8
    6668:	0c000003 	stceq	0, cr0, [r0], {3}
    666c:	000007f1 	strdeq	r0, [r0], -r1
    6670:	000006df 	ldrdeq	r0, [r0], -pc	; <UNPREDICTABLE>
    6674:	000090a4 	andeq	r9, r0, r4, lsr #1
    6678:	00000028 	andeq	r0, r0, r8, lsr #32
    667c:	00001460 	andeq	r1, r0, r0, ror #8
    6680:	69050402 	stmdbvs	r5, {r1, sl}
    6684:	0300746e 	movweq	r7, #1134	; 0x46e
    6688:	00740704 	rsbseq	r0, r4, r4, lsl #14
    668c:	01030000 	mrseq	r0, (UNDEF: 3)
    6690:	0002f106 	andeq	pc, r2, r6, lsl #2
    6694:	05020300 	streq	r0, [r2, #-768]	; 0xfffffd00
    6698:	0000038a 	andeq	r0, r0, sl, lsl #7
    669c:	ba050403 	blt	1476b0 <__bss_end__+0x13d640>
    66a0:	03000000 	movweq	r0, #0
    66a4:	00b50508 	adcseq	r0, r5, r8, lsl #10
    66a8:	01030000 	mrseq	r0, (UNDEF: 3)
    66ac:	0002ef08 	andeq	lr, r2, r8, lsl #30
    66b0:	07020300 	streq	r0, [r2, -r0, lsl #6]
    66b4:	00000230 	andeq	r0, r0, r0, lsr r2
    66b8:	6f070403 	svcvs	0x00070403
    66bc:	03000000 	movweq	r0, #0
    66c0:	006a0708 	rsbeq	r0, sl, r8, lsl #14
    66c4:	73040000 	movwvc	r0, #16384	; 0x4000
    66c8:	02000002 	andeq	r0, r0, #2
    66cc:	00771922 	rsbseq	r1, r7, r2, lsr #18
    66d0:	04050000 	streq	r0, [r5], #-0
    66d4:	0000007d 	andeq	r0, r0, sp, ror r0
    66d8:	00043006 	andeq	r3, r4, r6
    66dc:	02d00400 	sbcseq	r0, r0, #0, 8
    66e0:	2c030000 	stccs	0, cr0, [r3], {-0}
    66e4:	0000410e 	andeq	r4, r0, lr, lsl #2
    66e8:	04450400 	strbeq	r0, [r5], #-1024	; 0xfffffc00
    66ec:	72030000 	andvc	r0, r3, #0
    66f0:	0000410e 	andeq	r4, r0, lr, lsl #2
    66f4:	027b0700 	rsbseq	r0, fp, #0, 14
    66f8:	5e040000 	cdppl	0, 0, cr0, cr4, cr0, {0}
    66fc:	002c1701 	eoreq	r1, ip, r1, lsl #14
    6700:	04080000 	streq	r0, [r8], #-0
    6704:	c903a603 	stmdbgt	r3, {r0, r1, r9, sl, sp, pc}
    6708:	09000000 	stmdbeq	r0, {}	; <UNPREDICTABLE>
    670c:	0000026d 	andeq	r0, r0, sp, ror #4
    6710:	9a0ca803 	bls	330724 <__bss_end__+0x3266b4>
    6714:	09000000 	stmdbeq	r0, {}	; <UNPREDICTABLE>
    6718:	000001f0 	strdeq	r0, [r0], -r0	; <UNPREDICTABLE>
    671c:	c913a903 	ldmdbgt	r3, {r0, r1, r8, fp, sp, pc}
    6720:	00000000 	andeq	r0, r0, r0
    6724:	00004f0a 	andeq	r4, r0, sl, lsl #30
    6728:	0000d900 	andeq	sp, r0, r0, lsl #18
    672c:	002c0b00 	eoreq	r0, ip, r0, lsl #22
    6730:	00030000 	andeq	r0, r3, r0
    6734:	a303080c 	movwge	r0, #14348	; 0x380c
    6738:	0000fd09 	andeq	pc, r0, r9, lsl #26
    673c:	04280d00 	strteq	r0, [r8], #-3328	; 0xfffff300
    6740:	a5030000 	strge	r0, [r3, #-0]
    6744:	00002507 	andeq	r2, r0, r7, lsl #10
    6748:	370d0000 	strcc	r0, [sp, -r0]
    674c:	03000004 	movweq	r0, #4
    6750:	00a705aa 	adceq	r0, r7, sl, lsr #11
    6754:	00040000 	andeq	r0, r4, r0
    6758:	0003b204 	andeq	fp, r3, r4, lsl #4
    675c:	03ab0300 			; <UNDEFINED> instruction: 0x03ab0300
    6760:	000000d9 	ldrdeq	r0, [r0], -r9
    6764:	0001ad04 	andeq	sl, r1, r4, lsl #26
    6768:	1baf0300 	blne	febc7370 <__bss_end__+0xfebbd300>
    676c:	0000006b 	andeq	r0, r0, fp, rrx
    6770:	0405040e 	streq	r0, [r5], #-1038	; 0xfffffbf2
    6774:	0000011d 	andeq	r0, r0, sp, lsl r1
    6778:	f8080103 			; <UNDEFINED> instruction: 0xf8080103
    677c:	0f000002 	svceq	0x00000002
    6780:	0000011d 	andeq	r0, r0, sp, lsl r1
    6784:	00047704 	andeq	r7, r4, r4, lsl #14
    6788:	19160500 	ldmdbne	r6, {r8, sl}
    678c:	0000005d 	andeq	r0, r0, sp, asr r0
    6790:	0001be10 	andeq	fp, r1, r0, lsl lr
    6794:	2f051800 	svccs	0x00051800
    6798:	00018f08 	andeq	r8, r1, r8, lsl #30
    679c:	03d30d00 	bicseq	r0, r3, #0, 26
    67a0:	31050000 	mrscc	r0, (UNDEF: 5)
    67a4:	00018f13 	andeq	r8, r1, r3, lsl pc
    67a8:	5f110000 	svcpl	0x00110000
    67ac:	3205006b 	andcc	r0, r5, #107	; 0x6b
    67b0:	00002507 	andeq	r2, r0, r7, lsl #10
    67b4:	130d0400 	movwne	r0, #54272	; 0xd400
    67b8:	05000004 	streq	r0, [r0, #-4]
    67bc:	00250b32 	eoreq	r0, r5, r2, lsr fp
    67c0:	0d080000 	stceq	0, cr0, [r8, #-0]
    67c4:	000001a7 	andeq	r0, r0, r7, lsr #3
    67c8:	25143205 	ldrcs	r3, [r4, #-517]	; 0xfffffdfb
    67cc:	0c000000 	stceq	0, cr0, [r0], {-0}
    67d0:	0004b30d 	andeq	fp, r4, sp, lsl #6
    67d4:	1b320500 	blne	c87bdc <__bss_end__+0xc7db6c>
    67d8:	00000025 	andeq	r0, r0, r5, lsr #32
    67dc:	785f1110 	ldmdavc	pc, {r4, r8, ip}^	; <UNPREDICTABLE>
    67e0:	0b330500 	bleq	cc7be8 <__bss_end__+0xcbdb78>
    67e4:	00000195 	muleq	r0, r5, r1
    67e8:	04050014 	streq	r0, [r5], #-20	; 0xffffffec
    67ec:	00000135 	andeq	r0, r0, r5, lsr r1
    67f0:	0001290a 	andeq	r2, r1, sl, lsl #18
    67f4:	0001a500 	andeq	sl, r1, r0, lsl #10
    67f8:	002c0b00 	eoreq	r0, ip, r0, lsl #22
    67fc:	00000000 	andeq	r0, r0, r0
    6800:	0001eb10 	andeq	lr, r1, r0, lsl fp
    6804:	37052400 	strcc	r2, [r5, -r0, lsl #8]
    6808:	00022808 	andeq	r2, r2, r8, lsl #16
    680c:	00ac0d00 	adceq	r0, ip, r0, lsl #26
    6810:	39050000 	stmdbcc	r5, {}	; <UNPREDICTABLE>
    6814:	00002509 	andeq	r2, r0, r9, lsl #10
    6818:	4d0d0000 	stcmi	0, cr0, [sp, #-0]
    681c:	05000004 	streq	r0, [r0, #-4]
    6820:	0025093a 	eoreq	r0, r5, sl, lsr r9
    6824:	0d040000 	stceq	0, cr0, [r4, #-0]
    6828:	000000cf 	andeq	r0, r0, pc, asr #1
    682c:	25093b05 	strcs	r3, [r9, #-2821]	; 0xfffff4fb
    6830:	08000000 	stmdaeq	r0, {}	; <UNPREDICTABLE>
    6834:	0005340d 	andeq	r3, r5, sp, lsl #8
    6838:	093c0500 	ldmdbeq	ip!, {r8, sl}
    683c:	00000025 	andeq	r0, r0, r5, lsr #32
    6840:	02b40d0c 	adcseq	r0, r4, #12, 26	; 0x300
    6844:	3d050000 	stccc	0, cr0, [r5, #-0]
    6848:	00002509 	andeq	r2, r0, r9, lsl #10
    684c:	960d1000 	strls	r1, [sp], -r0
    6850:	05000002 	streq	r0, [r0, #-2]
    6854:	0025093e 	eoreq	r0, r5, lr, lsr r9
    6858:	0d140000 	ldceq	0, cr0, [r4, #-0]
    685c:	000004b8 			; <UNDEFINED> instruction: 0x000004b8
    6860:	25093f05 	strcs	r3, [r9, #-3845]	; 0xfffff0fb
    6864:	18000000 	stmdane	r0, {}	; <UNPREDICTABLE>
    6868:	0003940d 	andeq	r9, r3, sp, lsl #8
    686c:	09400500 	stmdbeq	r0, {r8, sl}^
    6870:	00000025 	andeq	r0, r0, r5, lsr #32
    6874:	04fb0d1c 	ldrbteq	r0, [fp], #3356	; 0xd1c
    6878:	41050000 	mrsmi	r0, (UNDEF: 5)
    687c:	00002509 	andeq	r2, r0, r9, lsl #10
    6880:	12002000 	andne	r2, r0, #0
    6884:	0000010f 	andeq	r0, r0, pc, lsl #2
    6888:	4a050108 	bmi	146cb0 <__bss_end__+0x13cc40>
    688c:	00026d08 	andeq	r6, r2, r8, lsl #26
    6890:	019a0d00 	orrseq	r0, sl, r0, lsl #26
    6894:	4b050000 	blmi	14689c <__bss_end__+0x13c82c>
    6898:	00026d0a 	andeq	r6, r2, sl, lsl #26
    689c:	000d0000 	andeq	r0, sp, r0
    68a0:	05000000 	streq	r0, [r0, #-0]
    68a4:	026d094c 	rsbeq	r0, sp, #76, 18	; 0x130000
    68a8:	13800000 	orrne	r0, r0, #0
    68ac:	00000469 	andeq	r0, r0, r9, ror #8
    68b0:	290a4e05 	stmdbcs	sl, {r0, r2, r9, sl, fp, lr}
    68b4:	00000001 	andeq	r0, r0, r1
    68b8:	01341301 	teqeq	r4, r1, lsl #6
    68bc:	51050000 	mrspl	r0, (UNDEF: 5)
    68c0:	0001290a 	andeq	r2, r1, sl, lsl #18
    68c4:	00010400 	andeq	r0, r1, r0, lsl #8
    68c8:	0001150a 	andeq	r1, r1, sl, lsl #10
    68cc:	00027d00 	andeq	r7, r2, r0, lsl #26
    68d0:	002c0b00 	eoreq	r0, ip, r0, lsl #22
    68d4:	001f0000 	andseq	r0, pc, r0
    68d8:	0002bd12 	andeq	fp, r2, r2, lsl sp
    68dc:	05019000 	streq	r9, [r1, #-0]
    68e0:	02c0085d 	sbceq	r0, r0, #6094848	; 0x5d0000
    68e4:	d30d0000 	movwle	r0, #53248	; 0xd000
    68e8:	05000003 	streq	r0, [r0, #-3]
    68ec:	02c0125e 	sbceq	r1, r0, #-536870907	; 0xe0000005
    68f0:	0d000000 	stceq	0, cr0, [r0, #-0]
    68f4:	000003eb 	andeq	r0, r0, fp, ror #7
    68f8:	25065f05 	strcs	r5, [r6, #-3845]	; 0xfffff0fb
    68fc:	04000000 	streq	r0, [r0], #-0
    6900:	0001a20d 	andeq	sl, r1, sp, lsl #4
    6904:	09610500 	stmdbeq	r1!, {r8, sl}^
    6908:	000002c6 	andeq	r0, r0, r6, asr #5
    690c:	010f0d08 	tsteq	pc, r8, lsl #26
    6910:	62050000 	andvs	r0, r5, #0
    6914:	0002281e 	andeq	r2, r2, lr, lsl r8
    6918:	05008800 	streq	r8, [r0, #-2048]	; 0xfffff800
    691c:	00027d04 	andeq	r7, r2, r4, lsl #26
    6920:	02d60a00 	sbcseq	r0, r6, #0, 20
    6924:	02d60000 	sbcseq	r0, r6, #0
    6928:	2c0b0000 	stccs	0, cr0, [fp], {-0}
    692c:	1f000000 	svcne	0x00000000
    6930:	dc040500 	cfstr32le	mvfx0, [r4], {-0}
    6934:	14000002 	strne	r0, [r0], #-2
    6938:	00039e10 	andeq	r9, r3, r0, lsl lr
    693c:	75050800 	strvc	r0, [r5, #-2048]	; 0xfffff800
    6940:	00030508 	andeq	r0, r3, r8, lsl #10
    6944:	00c90d00 	sbceq	r0, r9, r0, lsl #26
    6948:	76050000 	strvc	r0, [r5], -r0
    694c:	00030511 	andeq	r0, r3, r1, lsl r5
    6950:	1b0d0000 	blne	346958 <__bss_end__+0x33c8e8>
    6954:	05000000 	streq	r0, [r0, #-0]
    6958:	00250677 	eoreq	r0, r5, r7, ror r6
    695c:	00040000 	andeq	r0, r4, r0
    6960:	004f0405 	subeq	r0, pc, r5, lsl #8
    6964:	bd100000 	ldclt	0, cr0, [r0, #-0]
    6968:	68000003 	stmdavs	r0, {r0, r1}
    696c:	4e08b505 	cfsh32mi	mvfx11, mvfx8, #5
    6970:	11000004 	tstne	r0, r4
    6974:	0500705f 	streq	r7, [r0, #-95]	; 0xffffffa1
    6978:	030512b6 	movweq	r1, #21174	; 0x52b6
    697c:	11000000 	mrsne	r0, (UNDEF: 0)
    6980:	0500725f 	streq	r7, [r0, #-607]	; 0xfffffda1
    6984:	002507b7 	strhteq	r0, [r5], -r7
    6988:	11040000 	mrsne	r0, (UNDEF: 4)
    698c:	0500775f 	streq	r7, [r0, #-1887]	; 0xfffff8a1
    6990:	002507b8 	strhteq	r0, [r5], -r8
    6994:	0d080000 	stceq	0, cr0, [r8, #-0]
    6998:	0000012d 	andeq	r0, r0, sp, lsr #2
    699c:	3a09b905 	bcc	274db8 <__bss_end__+0x26ad48>
    69a0:	0c000000 	stceq	0, cr0, [r0], {-0}
    69a4:	0002160d 	andeq	r1, r2, sp, lsl #12
    69a8:	09ba0500 	ldmibeq	sl!, {r8, sl}
    69ac:	0000003a 	andeq	r0, r0, sl, lsr r0
    69b0:	625f110e 	subsvs	r1, pc, #-2147483645	; 0x80000003
    69b4:	bb050066 	bllt	146b54 <__bss_end__+0x13cae4>
    69b8:	0002dd11 	andeq	sp, r2, r1, lsl sp
    69bc:	890d1000 	stmdbhi	sp, {ip}
    69c0:	05000000 	streq	r0, [r0, #-0]
    69c4:	002507bc 	strhteq	r0, [r5], -ip
    69c8:	0d180000 	ldceq	0, cr0, [r8, #-0]
    69cc:	0000011d 	andeq	r0, r0, sp, lsl r1
    69d0:	150ac305 	strne	ip, [sl, #-773]	; 0xfffffcfb
    69d4:	1c000001 	stcne	0, cr0, [r0], {1}
    69d8:	000b420d 	andeq	r4, fp, sp, lsl #4
    69dc:	1dc50500 	cfstr64ne	mvdx0, [r5]
    69e0:	000005c0 	andeq	r0, r0, r0, asr #11
    69e4:	06370d20 	ldrteq	r0, [r7], -r0, lsr #26
    69e8:	c7050000 	strgt	r0, [r5, -r0]
    69ec:	0005ea1d 	andeq	lr, r5, sp, lsl sl
    69f0:	3f0d2400 	svccc	0x000d2400
    69f4:	05000004 	streq	r0, [r0, #-4]
    69f8:	060e0dca 	streq	r0, [lr], -sl, asr #27
    69fc:	0d280000 	stceq	0, cr0, [r8, #-0]
    6a00:	00000515 	andeq	r0, r0, r5, lsl r5
    6a04:	2809cb05 	stmdacs	r9, {r0, r2, r8, r9, fp, lr, pc}
    6a08:	2c000006 	stccs	0, cr0, [r0], {6}
    6a0c:	62755f11 	rsbsvs	r5, r5, #17, 30	; 0x44
    6a10:	11ce0500 	bicne	r0, lr, r0, lsl #10
    6a14:	000002dd 	ldrdeq	r0, [r0], -sp
    6a18:	755f1130 	ldrbvc	r1, [pc, #-304]	; 68f0 <_start-0x1710>
    6a1c:	cf050070 	svcgt	0x00050070
    6a20:	00030512 	andeq	r0, r3, r2, lsl r5
    6a24:	5f113800 	svcpl	0x00113800
    6a28:	05007275 	streq	r7, [r0, #-629]	; 0xfffffd8b
    6a2c:	002507d0 	ldrdeq	r0, [r5], -r0	; <UNPREDICTABLE>
    6a30:	0d3c0000 	ldceq	0, cr0, [ip, #-0]
    6a34:	000000c3 	andeq	r0, r0, r3, asr #1
    6a38:	2e11d305 	cdpcs	3, 1, cr13, cr1, cr5, {0}
    6a3c:	40000006 	andmi	r0, r0, r6
    6a40:	0004ed0d 	andeq	lr, r4, sp, lsl #26
    6a44:	11d40500 	bicsne	r0, r4, r0, lsl #10
    6a48:	0000063e 	andeq	r0, r0, lr, lsr r6
    6a4c:	6c5f1143 	ldfvse	f1, [pc], {67}	; 0x43
    6a50:	d7050062 	strle	r0, [r5, -r2, rrx]
    6a54:	0002dd11 	andeq	sp, r2, r1, lsl sp
    6a58:	4b0d4400 	blmi	357a60 <__bss_end__+0x34d9f0>
    6a5c:	05000001 	streq	r0, [r0, #-1]
    6a60:	002507da 	ldrdeq	r0, [r5], -sl	; <UNPREDICTABLE>
    6a64:	0d4c0000 	stcleq	0, cr0, [ip, #-0]
    6a68:	0000015c 	andeq	r0, r0, ip, asr r1
    6a6c:	820adb05 	andhi	sp, sl, #5120	; 0x1400
    6a70:	50000000 	andpl	r0, r0, r0
    6a74:	000ae30d 	andeq	lr, sl, sp, lsl #6
    6a78:	12de0500 	sbcsne	r0, lr, #0, 10
    6a7c:	0000046c 	andeq	r0, r0, ip, ror #8
    6a80:	04310d54 	ldrteq	r0, [r1], #-3412	; 0xfffff2ac
    6a84:	e2050000 	and	r0, r5, #0
    6a88:	0001090c 	andeq	r0, r1, ip, lsl #18
    6a8c:	c50d5800 	strgt	r5, [sp, #-2048]	; 0xfffff800
    6a90:	05000003 	streq	r0, [r0, #-3]
    6a94:	00fd0ee4 	rscseq	r0, sp, r4, ror #29
    6a98:	0d5c0000 	ldcleq	0, cr0, [ip, #-0]
    6a9c:	0000028e 	andeq	r0, r0, lr, lsl #5
    6aa0:	2509e505 	strcs	lr, [r9, #-1285]	; 0xfffffafb
    6aa4:	64000000 	strvs	r0, [r0], #-0
    6aa8:	00251500 	eoreq	r1, r5, r0, lsl #10
    6aac:	046c0000 	strbteq	r0, [ip], #-0
    6ab0:	6c160000 	ldcvs	0, cr0, [r6], {-0}
    6ab4:	16000004 	strne	r0, [r0], -r4
    6ab8:	00000115 	andeq	r0, r0, r5, lsl r1
    6abc:	00011716 	andeq	r1, r1, r6, lsl r7
    6ac0:	00251600 	eoreq	r1, r5, r0, lsl #12
    6ac4:	05000000 	streq	r0, [r0, #-0]
    6ac8:	00047704 	andeq	r7, r4, r4, lsl #14
    6acc:	046c0f00 	strbteq	r0, [ip], #-3840	; 0xfffff100
    6ad0:	1b170000 	blne	5c6ad8 <__bss_end__+0x5bca68>
    6ad4:	28000004 	stmdacs	r0, {r2}
    6ad8:	02600504 	rsbeq	r0, r0, #4, 10	; 0x1000000
    6adc:	0005c008 	andeq	ip, r5, r8
    6ae0:	03831800 	orreq	r1, r3, #0, 16
    6ae4:	62050000 	andvs	r0, r5, #0
    6ae8:	00250702 	eoreq	r0, r5, r2, lsl #14
    6aec:	18000000 	stmdane	r0, {}	; <UNPREDICTABLE>
    6af0:	0000013c 	andeq	r0, r0, ip, lsr r1
    6af4:	0b026705 	bleq	a0710 <__bss_end__+0x966a0>
    6af8:	0000069a 	muleq	r0, sl, r6
    6afc:	02061804 	andeq	r1, r6, #4, 16	; 0x40000
    6b00:	67050000 	strvs	r0, [r5, -r0]
    6b04:	069a1402 	ldreq	r1, [sl], r2, lsl #8
    6b08:	18080000 	stmdane	r8, {}	; <UNPREDICTABLE>
    6b0c:	000001b6 			; <UNDEFINED> instruction: 0x000001b6
    6b10:	1e026705 	cdpne	7, 0, cr6, cr2, cr5, {0}
    6b14:	0000069a 	muleq	r0, sl, r6
    6b18:	03e6180c 	mvneq	r1, #12, 16	; 0xc0000
    6b1c:	69050000 	stmdbvs	r5, {}	; <UNPREDICTABLE>
    6b20:	00250802 	eoreq	r0, r5, r2, lsl #16
    6b24:	18100000 	ldmdane	r0, {}	; <UNPREDICTABLE>
    6b28:	00000037 	andeq	r0, r0, r7, lsr r0
    6b2c:	08026a05 	stmdaeq	r2, {r0, r2, r9, fp, sp, lr}
    6b30:	0000089a 	muleq	r0, sl, r8
    6b34:	03fa1814 	mvnseq	r1, #20, 16	; 0x140000
    6b38:	6d050000 	stcvs	0, cr0, [r5, #-0]
    6b3c:	00250702 	eoreq	r0, r5, r2, lsl #14
    6b40:	18300000 	ldmdane	r0!, {}	; <UNPREDICTABLE>
    6b44:	00000a1f 	andeq	r0, r0, pc, lsl sl
    6b48:	16026e05 	strne	r6, [r2], -r5, lsl #28
    6b4c:	000008af 	andeq	r0, r0, pc, lsr #17
    6b50:	02c51834 	sbceq	r1, r5, #52, 16	; 0x340000
    6b54:	70050000 	andvc	r0, r5, r0
    6b58:	00250702 	eoreq	r0, r5, r2, lsl #14
    6b5c:	18380000 	ldmdane	r8!, {}	; <UNPREDICTABLE>
    6b60:	000003f0 	strdeq	r0, [r0], -r0	; <UNPREDICTABLE>
    6b64:	0a027205 	beq	a3380 <__bss_end__+0x99310>
    6b68:	000008c0 	andeq	r0, r0, r0, asr #17
    6b6c:	0265183c 	rsbeq	r1, r5, #60, 16	; 0x3c0000
    6b70:	75050000 	strvc	r0, [r5, #-0]
    6b74:	018f1302 	orreq	r1, pc, r2, lsl #6
    6b78:	18400000 	stmdane	r0, {}^	; <UNPREDICTABLE>
    6b7c:	000001d5 	ldrdeq	r0, [r0], -r5
    6b80:	07027605 	streq	r7, [r2, -r5, lsl #12]
    6b84:	00000025 	andeq	r0, r0, r5, lsr #32
    6b88:	052f1844 	streq	r1, [pc, #-2116]!	; 634c <_start-0x1cb4>
    6b8c:	77050000 	strvc	r0, [r5, -r0]
    6b90:	018f1302 	orreq	r1, pc, r2, lsl #6
    6b94:	18480000 	stmdane	r8, {}^	; <UNPREDICTABLE>
    6b98:	000002d7 	ldrdeq	r0, [r0], -r7
    6b9c:	14027805 	strne	r7, [r2], #-2053	; 0xfffff7fb
    6ba0:	000008c6 	andeq	r0, r0, r6, asr #17
    6ba4:	020e184c 	andeq	r1, lr, #76, 16	; 0x4c0000
    6ba8:	7b050000 	blvc	146bb0 <__bss_end__+0x13cb40>
    6bac:	00250702 	eoreq	r0, r5, r2, lsl #14
    6bb0:	18500000 	ldmdane	r0, {}^	; <UNPREDICTABLE>
    6bb4:	00000154 	andeq	r0, r0, r4, asr r1
    6bb8:	09027c05 	stmdbeq	r2, {r0, r2, sl, fp, ip, sp, lr}
    6bbc:	00000117 	andeq	r0, r0, r7, lsl r1
    6bc0:	02fd1854 	rscseq	r1, sp, #84, 16	; 0x540000
    6bc4:	9f050000 	svcls	0x00050000
    6bc8:	08750702 	ldmdaeq	r5!, {r1, r8, r9, sl}^
    6bcc:	19580000 	ldmdbne	r8, {}^	; <UNPREDICTABLE>
    6bd0:	000002bd 			; <UNDEFINED> instruction: 0x000002bd
    6bd4:	1302a305 	movwne	sl, #8965	; 0x2305
    6bd8:	000002c0 	andeq	r0, r0, r0, asr #5
    6bdc:	43190148 	tstmi	r9, #72, 2
    6be0:	05000002 	streq	r0, [r0, #-2]
    6be4:	7d1202a4 	lfmvc	f0, 4, [r2, #-656]	; 0xfffffd70
    6be8:	4c000002 	stcmi	0, cr0, [r0], {2}
    6bec:	04db1901 	ldrbeq	r1, [fp], #2305	; 0x901
    6bf0:	a8050000 	stmdage	r5, {}	; <UNPREDICTABLE>
    6bf4:	08d70c02 	ldmeq	r7, {r1, sl, fp}^
    6bf8:	02dc0000 	sbcseq	r0, ip, #0
    6bfc:	00012519 	andeq	r2, r1, r9, lsl r5
    6c00:	02ad0500 	adceq	r0, sp, #0, 10
    6c04:	00065b10 	andeq	r5, r6, r0, lsl fp
    6c08:	1902e000 	stmdbne	r2, {sp, lr, pc}
    6c0c:	0000010a 	andeq	r0, r0, sl, lsl #2
    6c10:	0a02af05 	beq	b282c <__bss_end__+0xa87bc>
    6c14:	000008e3 	andeq	r0, r0, r3, ror #17
    6c18:	050002ec 	streq	r0, [r0, #-748]	; 0xfffffd14
    6c1c:	00044e04 	andeq	r4, r4, r4, lsl #28
    6c20:	00251500 	eoreq	r1, r5, r0, lsl #10
    6c24:	05e40000 	strbeq	r0, [r4, #0]!
    6c28:	6c160000 	ldcvs	0, cr0, [r6], {-0}
    6c2c:	16000004 	strne	r0, [r0], -r4
    6c30:	00000115 	andeq	r0, r0, r5, lsl r1
    6c34:	0005e416 	andeq	lr, r5, r6, lsl r4
    6c38:	00251600 	eoreq	r1, r5, r0, lsl #12
    6c3c:	05000000 	streq	r0, [r0, #-0]
    6c40:	00012404 	andeq	r2, r1, r4, lsl #8
    6c44:	c6040500 	strgt	r0, [r4], -r0, lsl #10
    6c48:	15000005 	strne	r0, [r0, #-5]
    6c4c:	0000008e 	andeq	r0, r0, lr, lsl #1
    6c50:	0000060e 	andeq	r0, r0, lr, lsl #12
    6c54:	00046c16 	andeq	r6, r4, r6, lsl ip
    6c58:	01151600 	tsteq	r5, r0, lsl #12
    6c5c:	8e160000 	cdphi	0, 1, cr0, cr6, cr0, {0}
    6c60:	16000000 	strne	r0, [r0], -r0
    6c64:	00000025 	andeq	r0, r0, r5, lsr #32
    6c68:	f0040500 			; <UNDEFINED> instruction: 0xf0040500
    6c6c:	15000005 	strne	r0, [r0, #-5]
    6c70:	00000025 	andeq	r0, r0, r5, lsr #32
    6c74:	00000628 	andeq	r0, r0, r8, lsr #12
    6c78:	00046c16 	andeq	r6, r4, r6, lsl ip
    6c7c:	01151600 	tsteq	r5, r0, lsl #12
    6c80:	05000000 	streq	r0, [r0, #-0]
    6c84:	00061404 	andeq	r1, r6, r4, lsl #8
    6c88:	004f0a00 	subeq	r0, pc, r0, lsl #20
    6c8c:	063e0000 	ldrteq	r0, [lr], -r0
    6c90:	2c0b0000 	stccs	0, cr0, [fp], {-0}
    6c94:	02000000 	andeq	r0, r0, #0
    6c98:	004f0a00 	subeq	r0, pc, r0, lsl #20
    6c9c:	064e0000 	strbeq	r0, [lr], -r0
    6ca0:	2c0b0000 	stccs	0, cr0, [fp], {-0}
    6ca4:	00000000 	andeq	r0, r0, r0
    6ca8:	03ab0700 			; <UNDEFINED> instruction: 0x03ab0700
    6cac:	1f050000 	svcne	0x00050000
    6cb0:	030b1a01 	movweq	r1, #47617	; 0xba01
    6cb4:	c21a0000 	andsgt	r0, sl, #0
    6cb8:	0c000004 	stceq	0, cr0, [r0], {4}
    6cbc:	08012305 	stmdaeq	r1, {r0, r2, r8, r9, sp}
    6cc0:	00000694 	muleq	r0, r4, r6
    6cc4:	0003d318 	andeq	sp, r3, r8, lsl r3
    6cc8:	01250500 			; <UNDEFINED> instruction: 0x01250500
    6ccc:	00069411 	andeq	r9, r6, r1, lsl r4
    6cd0:	29180000 	ldmdbcs	r8, {}	; <UNPREDICTABLE>
    6cd4:	05000002 	streq	r0, [r0, #-2]
    6cd8:	25070126 	strcs	r0, [r7, #-294]	; 0xfffffeda
    6cdc:	04000000 	streq	r0, [r0], #-0
    6ce0:	0003a518 	andeq	sl, r3, r8, lsl r5
    6ce4:	01270500 			; <UNDEFINED> instruction: 0x01270500
    6ce8:	00069a0b 	andeq	r9, r6, fp, lsl #20
    6cec:	05000800 	streq	r0, [r0, #-2048]	; 0xfffff800
    6cf0:	00065b04 	andeq	r5, r6, r4, lsl #22
    6cf4:	4e040500 	cfsh32mi	mvfx0, mvfx4, #0
    6cf8:	1a000006 	bne	6d18 <_start-0x12e8>
    6cfc:	0000002f 	andeq	r0, r0, pc, lsr #32
    6d00:	013f050e 	teqeq	pc, lr, lsl #10
    6d04:	0006d908 	andeq	sp, r6, r8, lsl #18
    6d08:	04221800 	strteq	r1, [r2], #-2048	; 0xfffff800
    6d0c:	40050000 	andmi	r0, r5, r0
    6d10:	06d91201 	ldrbeq	r1, [r9], r1, lsl #4
    6d14:	18000000 	stmdane	r0, {}	; <UNPREDICTABLE>
    6d18:	00000456 	andeq	r0, r0, r6, asr r4
    6d1c:	12014105 	andne	r4, r1, #1073741825	; 0x40000001
    6d20:	000006d9 	ldrdeq	r0, [r0], -r9
    6d24:	04721806 	ldrbteq	r1, [r2], #-2054	; 0xfffff7fa
    6d28:	42050000 	andmi	r0, r5, #0
    6d2c:	00561201 	subseq	r1, r6, r1, lsl #4
    6d30:	000c0000 	andeq	r0, ip, r0
    6d34:	0000560a 	andeq	r5, r0, sl, lsl #12
    6d38:	0006e900 	andeq	lr, r6, r0, lsl #18
    6d3c:	002c0b00 	eoreq	r0, ip, r0, lsl #22
    6d40:	00020000 	andeq	r0, r2, r0
    6d44:	8005d01b 	andhi	sp, r5, fp, lsl r0
    6d48:	07fe0702 	ldrbeq	r0, [lr, r2, lsl #14]!
    6d4c:	a6180000 	ldrge	r0, [r8], -r0
    6d50:	05000004 	streq	r0, [r0, #-4]
    6d54:	2c180282 	lfmcs	f0, 4, [r8], {130}	; 0x82
    6d58:	00000000 	andeq	r0, r0, r0
    6d5c:	00045c18 	andeq	r5, r4, r8, lsl ip
    6d60:	02830500 	addeq	r0, r3, #0, 10
    6d64:	00011712 	andeq	r1, r1, r2, lsl r7
    6d68:	58180400 	ldmdapl	r8, {sl}
    6d6c:	05000002 	streq	r0, [r0, #-2]
    6d70:	fe100284 	cdp2	2, 1, cr0, cr0, cr4, {4}
    6d74:	08000007 	stmdaeq	r0, {r0, r1, r2}
    6d78:	00050618 	andeq	r0, r5, r8, lsl r6
    6d7c:	02850500 	addeq	r0, r5, #0, 10
    6d80:	0001a517 	andeq	sl, r1, r7, lsl r5
    6d84:	c6182400 	ldrgt	r2, [r8], -r0, lsl #8
    6d88:	05000001 	streq	r0, [r0, #-1]
    6d8c:	250f0286 	strcs	r0, [pc, #-646]	; 6b0e <_start-0x14f2>
    6d90:	48000000 	stmdami	r0, {}	; <UNPREDICTABLE>
    6d94:	0003ce18 	andeq	ip, r3, r8, lsl lr
    6d98:	02870500 	addeq	r0, r7, #0, 10
    6d9c:	0000642c 	andeq	r6, r0, ip, lsr #8
    6da0:	1c185000 	ldcne	0, cr5, [r8], {-0}
    6da4:	05000005 	streq	r0, [r0, #-5]
    6da8:	a01a0288 	andsge	r0, sl, r8, lsl #5
    6dac:	58000006 	stmdapl	r0, {r1, r2}
    6db0:	0003d918 	andeq	sp, r3, r8, lsl r9
    6db4:	02890500 	addeq	r0, r9, #0, 10
    6db8:	0000fd16 	andeq	pc, r0, r6, lsl sp	; <UNPREDICTABLE>
    6dbc:	21186800 	tstcs	r8, r0, lsl #16
    6dc0:	05000005 	streq	r0, [r0, #-5]
    6dc4:	fd16028a 	ldc2	2, cr0, [r6, #-552]	; 0xfffffdd8
    6dc8:	70000000 	andvc	r0, r0, r0
    6dcc:	0002e118 	andeq	lr, r2, r8, lsl r1
    6dd0:	028b0500 	addeq	r0, fp, #0, 10
    6dd4:	0000fd16 	andeq	pc, r0, r6, lsl sp	; <UNPREDICTABLE>
    6dd8:	d1187800 	tstle	r8, r0, lsl #16
    6ddc:	05000004 	streq	r0, [r0, #-4]
    6de0:	0e10028c 	cdpeq	2, 1, cr0, cr0, cr12, {4}
    6de4:	80000008 	andhi	r0, r0, r8
    6de8:	00024c18 	andeq	r4, r2, r8, lsl ip
    6dec:	028d0500 	addeq	r0, sp, #0, 10
    6df0:	00081e10 	andeq	r1, r8, r0, lsl lr
    6df4:	7f188800 	svcvc	0x00188800
    6df8:	05000004 	streq	r0, [r0, #-4]
    6dfc:	250f028e 	strcs	r0, [pc, #-654]	; 6b76 <_start-0x148a>
    6e00:	a0000000 	andge	r0, r0, r0
    6e04:	00018c18 	andeq	r8, r1, r8, lsl ip
    6e08:	028f0500 	addeq	r0, pc, #0, 10
    6e0c:	0000fd16 	andeq	pc, r0, r6, lsl sp	; <UNPREDICTABLE>
    6e10:	9d18a400 	cfldrsls	mvf10, [r8, #-0]
    6e14:	05000000 	streq	r0, [r0, #-0]
    6e18:	fd160290 	ldc2	2, cr0, [r6, #-576]	; 0xfffffdc0
    6e1c:	ac000000 	stcge	0, cr0, [r0], {-0}
    6e20:	00017b18 	andeq	r7, r1, r8, lsl fp
    6e24:	02910500 	addseq	r0, r1, #0, 10
    6e28:	0000fd16 	andeq	pc, r0, r6, lsl sp	; <UNPREDICTABLE>
    6e2c:	4a18b400 	bmi	633e34 <__bss_end__+0x629dc4>
    6e30:	05000000 	streq	r0, [r0, #-0]
    6e34:	fd160292 	ldc2	2, cr0, [r6, #-584]	; 0xfffffdb8
    6e38:	bc000000 	stclt	0, cr0, [r0], {-0}
    6e3c:	00005918 	andeq	r5, r0, r8, lsl r9
    6e40:	02930500 	addseq	r0, r3, #0, 10
    6e44:	0000fd16 	andeq	pc, r0, r6, lsl sp	; <UNPREDICTABLE>
    6e48:	8118c400 	tsthi	r8, r0, lsl #8
    6e4c:	05000003 	streq	r0, [r0, #-3]
    6e50:	25080294 	strcs	r0, [r8, #-660]	; 0xfffffd6c
    6e54:	cc000000 	stcgt	0, cr0, [r0], {-0}
    6e58:	011d0a00 	tsteq	sp, r0, lsl #20
    6e5c:	080e0000 	stmdaeq	lr, {}	; <UNPREDICTABLE>
    6e60:	2c0b0000 	stccs	0, cr0, [fp], {-0}
    6e64:	19000000 	stmdbne	r0, {}	; <UNPREDICTABLE>
    6e68:	011d0a00 	tsteq	sp, r0, lsl #20
    6e6c:	081e0000 	ldmdaeq	lr, {}	; <UNPREDICTABLE>
    6e70:	2c0b0000 	stccs	0, cr0, [fp], {-0}
    6e74:	07000000 	streq	r0, [r0, -r0]
    6e78:	011d0a00 	tsteq	sp, r0, lsl #20
    6e7c:	082e0000 	stmdaeq	lr!, {}	; <UNPREDICTABLE>
    6e80:	2c0b0000 	stccs	0, cr0, [fp], {-0}
    6e84:	17000000 	strne	r0, [r0, -r0]
    6e88:	05f01b00 	ldrbeq	r1, [r0, #2816]!	; 0xb00
    6e8c:	55070299 	strpl	r0, [r7, #-665]	; 0xfffffd67
    6e90:	18000008 	stmdane	r0, {r3}
    6e94:	000002ad 	andeq	r0, r0, sp, lsr #5
    6e98:	1b029c05 	blne	adeb4 <__bss_end__+0xa3e44>
    6e9c:	00000855 	andeq	r0, r0, r5, asr r8
    6ea0:	04c81800 	strbeq	r1, [r8], #2048	; 0x800
    6ea4:	9d050000 	stcls	0, cr0, [r5, #-0]
    6ea8:	08651802 	stmdaeq	r5!, {r1, fp, ip}^
    6eac:	00780000 	rsbseq	r0, r8, r0
    6eb0:	0003050a 	andeq	r0, r3, sl, lsl #10
    6eb4:	00086500 	andeq	r6, r8, r0, lsl #10
    6eb8:	002c0b00 	eoreq	r0, ip, r0, lsl #22
    6ebc:	001d0000 	andseq	r0, sp, r0
    6ec0:	00002c0a 	andeq	r2, r0, sl, lsl #24
    6ec4:	00087500 	andeq	r7, r8, r0, lsl #10
    6ec8:	002c0b00 	eoreq	r0, ip, r0, lsl #22
    6ecc:	001d0000 	andseq	r0, sp, r0
    6ed0:	7e05f01c 	mcrvc	0, 0, pc, cr5, cr12, {0}	; <UNPREDICTABLE>
    6ed4:	089a0302 	ldmeq	sl, {r1, r8, r9}
    6ed8:	1b1d0000 	blne	746ee0 <__bss_end__+0x73ce70>
    6edc:	05000004 	streq	r0, [r0, #-4]
    6ee0:	e90b0295 	stmdb	fp, {r0, r2, r4, r7, r9}
    6ee4:	1d000006 	stcne	0, cr0, [r0, #-24]	; 0xffffffe8
    6ee8:	000004f3 	strdeq	r0, [r0], -r3
    6eec:	0b029e05 	bleq	ae708 <__bss_end__+0xa4698>
    6ef0:	0000082e 	andeq	r0, r0, lr, lsr #16
    6ef4:	011d0a00 	tsteq	sp, r0, lsl #20
    6ef8:	08aa0000 	stmiaeq	sl!, {}	; <UNPREDICTABLE>
    6efc:	2c0b0000 	stccs	0, cr0, [fp], {-0}
    6f00:	18000000 	stmdane	r0, {}	; <UNPREDICTABLE>
    6f04:	00920600 	addseq	r0, r2, r0, lsl #12
    6f08:	04050000 	streq	r0, [r5], #-0
    6f0c:	000008aa 	andeq	r0, r0, sl, lsr #17
    6f10:	0008c01e 	andeq	ip, r8, lr, lsl r0
    6f14:	046c1600 	strbteq	r1, [ip], #-1536	; 0xfffffa00
    6f18:	05000000 	streq	r0, [r0, #-0]
    6f1c:	0008b504 	andeq	fp, r8, r4, lsl #10
    6f20:	8f040500 	svchi	0x00040500
    6f24:	1e000001 	cdpne	0, 0, cr0, cr0, cr1, {0}
    6f28:	000008d7 	ldrdeq	r0, [r0], -r7
    6f2c:	00002516 	andeq	r2, r0, r6, lsl r5
    6f30:	04050000 	streq	r0, [r5], #-0
    6f34:	000008dd 	ldrdeq	r0, [r0], -sp
    6f38:	08cc0405 	stmiaeq	ip, {r0, r2, sl}^
    6f3c:	4e0a0000 	cdpmi	0, 0, cr0, cr10, cr0, {0}
    6f40:	f3000006 	vhadd.u8	d0, d0, d6
    6f44:	0b000008 	bleq	6f6c <_start-0x1094>
    6f48:	0000002c 	andeq	r0, r0, ip, lsr #32
    6f4c:	931f0002 	tstls	pc, #2
    6f50:	05000004 	streq	r0, [r0, #-4]
    6f54:	6c17032e 	ldcvs	3, cr0, [r7], {46}	; 0x2e
    6f58:	1f000004 	svcne	0x00000004
    6f5c:	0000048c 	andeq	r0, r0, ip, lsl #9
    6f60:	1d032f05 	stcne	15, cr2, [r3, #-20]	; 0xffffffec
    6f64:	00000472 	andeq	r0, r0, r2, ror r4
    6f68:	00002515 	andeq	r2, r0, r5, lsl r5
    6f6c:	00091c00 	andeq	r1, r9, r0, lsl #24
    6f70:	00251600 	eoreq	r1, r5, r0, lsl #12
    6f74:	20000000 	andcs	r0, r0, r0
    6f78:	000001df 	ldrdeq	r0, [r0], -pc	; <UNPREDICTABLE>
    6f7c:	280e1d06 	stmdacs	lr, {r1, r2, r8, sl, fp, ip}
    6f80:	05000009 	streq	r0, [r0, #-9]
    6f84:	00090d04 	andeq	r0, r9, r4, lsl #26
    6f88:	00251500 	eoreq	r1, r5, r0, lsl #10
    6f8c:	093d0000 	ldmdbeq	sp!, {}	; <UNPREDICTABLE>
    6f90:	e4160000 	ldr	r0, [r6], #-0
    6f94:	00000005 	andeq	r0, r0, r5
    6f98:	00078620 	andeq	r8, r7, r0, lsr #12
    6f9c:	0e220600 	cfmadda32eq	mvax0, mvax0, mvfx2, mvfx0
    6fa0:	00000949 	andeq	r0, r0, r9, asr #18
    6fa4:	092e0405 	stmdbeq	lr!, {r0, r2, sl}
    6fa8:	a0210000 	eorge	r0, r1, r0
    6fac:	01000002 	tsteq	r0, r2
    6fb0:	90a40604 	adcls	r0, r4, r4, lsl #12
    6fb4:	00280000 	eoreq	r0, r8, r0
    6fb8:	9c010000 	stcls	0, cr0, [r1], {-0}
    6fbc:	00000996 	muleq	r0, r6, r9
    6fc0:	0090b822 	addseq	fp, r0, r2, lsr #16
    6fc4:	00097800 	andeq	r7, r9, r0, lsl #16
    6fc8:	50012300 	andpl	r2, r1, r0, lsl #6
    6fcc:	9b380305 	blls	e07be8 <__bss_end__+0xdfdb78>
    6fd0:	24000000 	strcs	r0, [r0], #-0
    6fd4:	000090c0 	andeq	r9, r0, r0, asr #1
    6fd8:	00000996 	muleq	r0, r6, r9
    6fdc:	0000098c 	andeq	r0, r0, ip, lsl #19
    6fe0:	02500123 	subseq	r0, r0, #-1073741816	; 0xc0000008
    6fe4:	25006408 	strcs	r6, [r0, #-1032]	; 0xfffffbf8
    6fe8:	000090c4 	andeq	r9, r0, r4, asr #1
    6fec:	000009a2 	andeq	r0, r0, r2, lsr #19
    6ff0:	080a2600 	stmdaeq	sl, {r9, sl, sp}
    6ff4:	080a0000 	stmdaeq	sl, {}	; <UNPREDICTABLE>
    6ff8:	4f060000 	svcmi	0x00060000
    6ffc:	08132606 	ldmdaeq	r3, {r1, r2, r9, sl, sp}
    7000:	08130000 	ldmdaeq	r3, {}	; <UNPREDICTABLE>
    7004:	62060000 	andvs	r0, r6, #0
    7008:	09d30006 	ldmibeq	r3, {r1, r2}^
    700c:	00040000 	andeq	r0, r4, r0
    7010:	000015d4 	ldrdeq	r1, [r0], -r4
    7014:	03020104 	movweq	r0, #8452	; 0x2104
    7018:	1e0c0000 	cdpne	0, 0, cr0, cr12, cr0, {0}
    701c:	df000008 	svcle	0x00000008
    7020:	cc000006 	stcgt	0, cr0, [r0], {6}
    7024:	2c000090 	stccs	0, cr0, [r0], {144}	; 0x90
    7028:	4f000000 	svcmi	0x00000000
    702c:	02000015 	andeq	r0, r0, #21
    7030:	6e690504 	cdpvs	5, 6, cr0, cr9, cr4, {0}
    7034:	04030074 	streq	r0, [r3], #-116	; 0xffffff8c
    7038:	00007407 	andeq	r7, r0, r7, lsl #8
    703c:	06010300 	streq	r0, [r1], -r0, lsl #6
    7040:	000002f1 	strdeq	r0, [r0], -r1
    7044:	8a050203 	bhi	147858 <__bss_end__+0x13d7e8>
    7048:	03000003 	movweq	r0, #3
    704c:	00ba0504 	adcseq	r0, sl, r4, lsl #10
    7050:	08030000 	stmdaeq	r3, {}	; <UNPREDICTABLE>
    7054:	0000b505 	andeq	fp, r0, r5, lsl #10
    7058:	08010300 	stmdaeq	r1, {r8, r9}
    705c:	000002ef 	andeq	r0, r0, pc, ror #5
    7060:	30070203 	andcc	r0, r7, r3, lsl #4
    7064:	03000002 	movweq	r0, #2
    7068:	006f0704 	rsbeq	r0, pc, r4, lsl #14
    706c:	08030000 	stmdaeq	r3, {}	; <UNPREDICTABLE>
    7070:	00006a07 	andeq	r6, r0, r7, lsl #20
    7074:	02730400 	rsbseq	r0, r3, #0, 8
    7078:	22020000 	andcs	r0, r2, #0
    707c:	00007719 	andeq	r7, r0, r9, lsl r7
    7080:	7d040500 	cfstr32vc	mvfx0, [r4, #-0]
    7084:	06000000 	streq	r0, [r0], -r0
    7088:	00000430 	andeq	r0, r0, r0, lsr r4
    708c:	0002d004 	andeq	sp, r2, r4
    7090:	0e2c0300 	cdpeq	3, 2, cr0, cr12, cr0, {0}
    7094:	00000041 	andeq	r0, r0, r1, asr #32
    7098:	00044504 	andeq	r4, r4, r4, lsl #10
    709c:	0e720300 	cdpeq	3, 7, cr0, cr2, cr0, {0}
    70a0:	00000041 	andeq	r0, r0, r1, asr #32
    70a4:	00027b07 	andeq	r7, r2, r7, lsl #22
    70a8:	015e0400 	cmpeq	lr, r0, lsl #8
    70ac:	00002c17 	andeq	r2, r0, r7, lsl ip
    70b0:	03040800 	movweq	r0, #18432	; 0x4800
    70b4:	00c903a6 	sbceq	r0, r9, r6, lsr #7
    70b8:	6d090000 	stcvs	0, cr0, [r9, #-0]
    70bc:	03000002 	movweq	r0, #2
    70c0:	009a0ca8 	addseq	r0, sl, r8, lsr #25
    70c4:	f0090000 			; <UNDEFINED> instruction: 0xf0090000
    70c8:	03000001 	movweq	r0, #1
    70cc:	00c913a9 	sbceq	r1, r9, r9, lsr #7
    70d0:	0a000000 	beq	70d8 <_start-0xf28>
    70d4:	0000004f 	andeq	r0, r0, pc, asr #32
    70d8:	000000d9 	ldrdeq	r0, [r0], -r9
    70dc:	00002c0b 	andeq	r2, r0, fp, lsl #24
    70e0:	0c000300 	stceq	3, cr0, [r0], {-0}
    70e4:	09a30308 	stmibeq	r3!, {r3, r8, r9}
    70e8:	000000fd 	strdeq	r0, [r0], -sp
    70ec:	0004280d 	andeq	r2, r4, sp, lsl #16
    70f0:	07a50300 	streq	r0, [r5, r0, lsl #6]!
    70f4:	00000025 	andeq	r0, r0, r5, lsr #32
    70f8:	04370d00 	ldrteq	r0, [r7], #-3328	; 0xfffff300
    70fc:	aa030000 	bge	c7104 <__bss_end__+0xbd094>
    7100:	0000a705 	andeq	sl, r0, r5, lsl #14
    7104:	04000400 	streq	r0, [r0], #-1024	; 0xfffffc00
    7108:	000003b2 			; <UNDEFINED> instruction: 0x000003b2
    710c:	d903ab03 	stmdble	r3, {r0, r1, r8, r9, fp, sp, pc}
    7110:	04000000 	streq	r0, [r0], #-0
    7114:	000001ad 	andeq	r0, r0, sp, lsr #3
    7118:	6b1baf03 	blvs	6f2d2c <__bss_end__+0x6e8cbc>
    711c:	0e000000 	cdpeq	0, 0, cr0, cr0, cr0, {0}
    7120:	1d040504 	cfstr32ne	mvfx0, [r4, #-16]
    7124:	03000001 	movweq	r0, #1
    7128:	02f80801 	rscseq	r0, r8, #65536	; 0x10000
    712c:	1d0f0000 	stcne	0, cr0, [pc, #-0]	; 7134 <_start-0xecc>
    7130:	04000001 	streq	r0, [r0], #-1
    7134:	00000477 	andeq	r0, r0, r7, ror r4
    7138:	5d191605 	ldcpl	6, cr1, [r9, #-20]	; 0xffffffec
    713c:	10000000 	andne	r0, r0, r0
    7140:	000001be 			; <UNDEFINED> instruction: 0x000001be
    7144:	082f0518 	stmdaeq	pc!, {r3, r4, r8, sl}	; <UNPREDICTABLE>
    7148:	0000018f 	andeq	r0, r0, pc, lsl #3
    714c:	0003d30d 	andeq	sp, r3, sp, lsl #6
    7150:	13310500 	teqne	r1, #0, 10
    7154:	0000018f 	andeq	r0, r0, pc, lsl #3
    7158:	6b5f1100 	blvs	17cb560 <__bss_end__+0x17c14f0>
    715c:	07320500 	ldreq	r0, [r2, -r0, lsl #10]!
    7160:	00000025 	andeq	r0, r0, r5, lsr #32
    7164:	04130d04 	ldreq	r0, [r3], #-3332	; 0xfffff2fc
    7168:	32050000 	andcc	r0, r5, #0
    716c:	0000250b 	andeq	r2, r0, fp, lsl #10
    7170:	a70d0800 	strge	r0, [sp, -r0, lsl #16]
    7174:	05000001 	streq	r0, [r0, #-1]
    7178:	00251432 	eoreq	r1, r5, r2, lsr r4
    717c:	0d0c0000 	stceq	0, cr0, [ip, #-0]
    7180:	000004b3 			; <UNDEFINED> instruction: 0x000004b3
    7184:	251b3205 	ldrcs	r3, [fp, #-517]	; 0xfffffdfb
    7188:	10000000 	andne	r0, r0, r0
    718c:	00785f11 	rsbseq	r5, r8, r1, lsl pc
    7190:	950b3305 	strls	r3, [fp, #-773]	; 0xfffffcfb
    7194:	14000001 	strne	r0, [r0], #-1
    7198:	35040500 	strcc	r0, [r4, #-1280]	; 0xfffffb00
    719c:	0a000001 	beq	71a8 <_start-0xe58>
    71a0:	00000129 	andeq	r0, r0, r9, lsr #2
    71a4:	000001a5 	andeq	r0, r0, r5, lsr #3
    71a8:	00002c0b 	andeq	r2, r0, fp, lsl #24
    71ac:	10000000 	andne	r0, r0, r0
    71b0:	000001eb 	andeq	r0, r0, fp, ror #3
    71b4:	08370524 	ldmdaeq	r7!, {r2, r5, r8, sl}
    71b8:	00000228 	andeq	r0, r0, r8, lsr #4
    71bc:	0000ac0d 	andeq	sl, r0, sp, lsl #24
    71c0:	09390500 	ldmdbeq	r9!, {r8, sl}
    71c4:	00000025 	andeq	r0, r0, r5, lsr #32
    71c8:	044d0d00 	strbeq	r0, [sp], #-3328	; 0xfffff300
    71cc:	3a050000 	bcc	1471d4 <__bss_end__+0x13d164>
    71d0:	00002509 	andeq	r2, r0, r9, lsl #10
    71d4:	cf0d0400 	svcgt	0x000d0400
    71d8:	05000000 	streq	r0, [r0, #-0]
    71dc:	0025093b 	eoreq	r0, r5, fp, lsr r9
    71e0:	0d080000 	stceq	0, cr0, [r8, #-0]
    71e4:	00000534 	andeq	r0, r0, r4, lsr r5
    71e8:	25093c05 	strcs	r3, [r9, #-3077]	; 0xfffff3fb
    71ec:	0c000000 	stceq	0, cr0, [r0], {-0}
    71f0:	0002b40d 	andeq	fp, r2, sp, lsl #8
    71f4:	093d0500 	ldmdbeq	sp!, {r8, sl}
    71f8:	00000025 	andeq	r0, r0, r5, lsr #32
    71fc:	02960d10 	addseq	r0, r6, #16, 26	; 0x400
    7200:	3e050000 	cdpcc	0, 0, cr0, cr5, cr0, {0}
    7204:	00002509 	andeq	r2, r0, r9, lsl #10
    7208:	b80d1400 	stmdalt	sp, {sl, ip}
    720c:	05000004 	streq	r0, [r0, #-4]
    7210:	0025093f 	eoreq	r0, r5, pc, lsr r9
    7214:	0d180000 	ldceq	0, cr0, [r8, #-0]
    7218:	00000394 	muleq	r0, r4, r3
    721c:	25094005 	strcs	r4, [r9, #-5]
    7220:	1c000000 	stcne	0, cr0, [r0], {-0}
    7224:	0004fb0d 	andeq	pc, r4, sp, lsl #22
    7228:	09410500 	stmdbeq	r1, {r8, sl}^
    722c:	00000025 	andeq	r0, r0, r5, lsr #32
    7230:	0f120020 	svceq	0x00120020
    7234:	08000001 	stmdaeq	r0, {r0}
    7238:	084a0501 	stmdaeq	sl, {r0, r8, sl}^
    723c:	0000026d 	andeq	r0, r0, sp, ror #4
    7240:	00019a0d 	andeq	r9, r1, sp, lsl #20
    7244:	0a4b0500 	beq	12c864c <__bss_end__+0x12be5dc>
    7248:	0000026d 	andeq	r0, r0, sp, ror #4
    724c:	00000d00 	andeq	r0, r0, r0, lsl #26
    7250:	4c050000 	stcmi	0, cr0, [r5], {-0}
    7254:	00026d09 	andeq	r6, r2, r9, lsl #26
    7258:	69138000 	ldmdbvs	r3, {pc}
    725c:	05000004 	streq	r0, [r0, #-4]
    7260:	01290a4e 			; <UNDEFINED> instruction: 0x01290a4e
    7264:	01000000 	mrseq	r0, (UNDEF: 0)
    7268:	00013413 	andeq	r3, r1, r3, lsl r4
    726c:	0a510500 	beq	1448674 <__bss_end__+0x143e604>
    7270:	00000129 	andeq	r0, r0, r9, lsr #2
    7274:	0a000104 	beq	768c <_start-0x974>
    7278:	00000115 	andeq	r0, r0, r5, lsl r1
    727c:	0000027d 	andeq	r0, r0, sp, ror r2
    7280:	00002c0b 	andeq	r2, r0, fp, lsl #24
    7284:	12001f00 	andne	r1, r0, #0, 30
    7288:	000002bd 			; <UNDEFINED> instruction: 0x000002bd
    728c:	5d050190 	stfpls	f0, [r5, #-576]	; 0xfffffdc0
    7290:	0002c008 	andeq	ip, r2, r8
    7294:	03d30d00 	bicseq	r0, r3, #0, 26
    7298:	5e050000 	cdppl	0, 0, cr0, cr5, cr0, {0}
    729c:	0002c012 	andeq	ip, r2, r2, lsl r0
    72a0:	eb0d0000 	bl	3472a8 <__bss_end__+0x33d238>
    72a4:	05000003 	streq	r0, [r0, #-3]
    72a8:	0025065f 	eoreq	r0, r5, pc, asr r6
    72ac:	0d040000 	stceq	0, cr0, [r4, #-0]
    72b0:	000001a2 	andeq	r0, r0, r2, lsr #3
    72b4:	c6096105 	strgt	r6, [r9], -r5, lsl #2
    72b8:	08000002 	stmdaeq	r0, {r1}
    72bc:	00010f0d 	andeq	r0, r1, sp, lsl #30
    72c0:	1e620500 	cdpne	5, 6, cr0, cr2, cr0, {0}
    72c4:	00000228 	andeq	r0, r0, r8, lsr #4
    72c8:	04050088 	streq	r0, [r5], #-136	; 0xffffff78
    72cc:	0000027d 	andeq	r0, r0, sp, ror r2
    72d0:	0002d60a 	andeq	sp, r2, sl, lsl #12
    72d4:	0002d600 	andeq	sp, r2, r0, lsl #12
    72d8:	002c0b00 	eoreq	r0, ip, r0, lsl #22
    72dc:	001f0000 	andseq	r0, pc, r0
    72e0:	02dc0405 	sbcseq	r0, ip, #83886080	; 0x5000000
    72e4:	10140000 	andsne	r0, r4, r0
    72e8:	0000039e 	muleq	r0, lr, r3
    72ec:	08750508 	ldmdaeq	r5!, {r3, r8, sl}^
    72f0:	00000305 	andeq	r0, r0, r5, lsl #6
    72f4:	0000c90d 	andeq	ip, r0, sp, lsl #18
    72f8:	11760500 	cmnne	r6, r0, lsl #10
    72fc:	00000305 	andeq	r0, r0, r5, lsl #6
    7300:	001b0d00 	andseq	r0, fp, r0, lsl #26
    7304:	77050000 	strvc	r0, [r5, -r0]
    7308:	00002506 	andeq	r2, r0, r6, lsl #10
    730c:	05000400 	streq	r0, [r0, #-1024]	; 0xfffffc00
    7310:	00004f04 	andeq	r4, r0, r4, lsl #30
    7314:	03bd1000 			; <UNDEFINED> instruction: 0x03bd1000
    7318:	05680000 	strbeq	r0, [r8, #-0]!
    731c:	044e08b5 	strbeq	r0, [lr], #-2229	; 0xfffff74b
    7320:	5f110000 	svcpl	0x00110000
    7324:	b6050070 			; <UNDEFINED> instruction: 0xb6050070
    7328:	00030512 	andeq	r0, r3, r2, lsl r5
    732c:	5f110000 	svcpl	0x00110000
    7330:	b7050072 	smlsdxlt	r5, r2, r0, r0
    7334:	00002507 	andeq	r2, r0, r7, lsl #10
    7338:	5f110400 	svcpl	0x00110400
    733c:	b8050077 	stmdalt	r5, {r0, r1, r2, r4, r5, r6}
    7340:	00002507 	andeq	r2, r0, r7, lsl #10
    7344:	2d0d0800 	stccs	8, cr0, [sp, #-0]
    7348:	05000001 	streq	r0, [r0, #-1]
    734c:	003a09b9 	ldrhteq	r0, [sl], -r9
    7350:	0d0c0000 	stceq	0, cr0, [ip, #-0]
    7354:	00000216 	andeq	r0, r0, r6, lsl r2
    7358:	3a09ba05 	bcc	275b74 <__bss_end__+0x26bb04>
    735c:	0e000000 	cdpeq	0, 0, cr0, cr0, cr0, {0}
    7360:	66625f11 	uqadd16vs	r5, r2, r1
    7364:	11bb0500 			; <UNDEFINED> instruction: 0x11bb0500
    7368:	000002dd 	ldrdeq	r0, [r0], -sp
    736c:	00890d10 	addeq	r0, r9, r0, lsl sp
    7370:	bc050000 	stclt	0, cr0, [r5], {-0}
    7374:	00002507 	andeq	r2, r0, r7, lsl #10
    7378:	1d0d1800 	stcne	8, cr1, [sp, #-0]
    737c:	05000001 	streq	r0, [r0, #-1]
    7380:	01150ac3 	tsteq	r5, r3, asr #21
    7384:	0d1c0000 	ldceq	0, cr0, [ip, #-0]
    7388:	00000b42 	andeq	r0, r0, r2, asr #22
    738c:	c01dc505 	andsgt	ip, sp, r5, lsl #10
    7390:	20000005 	andcs	r0, r0, r5
    7394:	0006370d 	andeq	r3, r6, sp, lsl #14
    7398:	1dc70500 	cfstr64ne	mvdx0, [r7]
    739c:	000005ea 	andeq	r0, r0, sl, ror #11
    73a0:	043f0d24 	ldrteq	r0, [pc], #-3364	; 73a8 <_start-0xc58>
    73a4:	ca050000 	bgt	1473ac <__bss_end__+0x13d33c>
    73a8:	00060e0d 	andeq	r0, r6, sp, lsl #28
    73ac:	150d2800 	strne	r2, [sp, #-2048]	; 0xfffff800
    73b0:	05000005 	streq	r0, [r0, #-5]
    73b4:	062809cb 	strteq	r0, [r8], -fp, asr #19
    73b8:	112c0000 			; <UNDEFINED> instruction: 0x112c0000
    73bc:	0062755f 	rsbeq	r7, r2, pc, asr r5
    73c0:	dd11ce05 	ldcle	14, cr12, [r1, #-20]	; 0xffffffec
    73c4:	30000002 	andcc	r0, r0, r2
    73c8:	70755f11 	rsbsvc	r5, r5, r1, lsl pc
    73cc:	12cf0500 	sbcne	r0, pc, #0, 10
    73d0:	00000305 	andeq	r0, r0, r5, lsl #6
    73d4:	755f1138 	ldrbvc	r1, [pc, #-312]	; 72a4 <_start-0xd5c>
    73d8:	d0050072 	andle	r0, r5, r2, ror r0
    73dc:	00002507 	andeq	r2, r0, r7, lsl #10
    73e0:	c30d3c00 	movwgt	r3, #56320	; 0xdc00
    73e4:	05000000 	streq	r0, [r0, #-0]
    73e8:	062e11d3 			; <UNDEFINED> instruction: 0x062e11d3
    73ec:	0d400000 	stcleq	0, cr0, [r0, #-0]
    73f0:	000004ed 	andeq	r0, r0, sp, ror #9
    73f4:	3e11d405 	cfmulscc	mvf13, mvf1, mvf5
    73f8:	43000006 	movwmi	r0, #6
    73fc:	626c5f11 	rsbvs	r5, ip, #17, 30	; 0x44
    7400:	11d70500 	bicsne	r0, r7, r0, lsl #10
    7404:	000002dd 	ldrdeq	r0, [r0], -sp
    7408:	014b0d44 	cmpeq	fp, r4, asr #26
    740c:	da050000 	ble	147414 <__bss_end__+0x13d3a4>
    7410:	00002507 	andeq	r2, r0, r7, lsl #10
    7414:	5c0d4c00 	stcpl	12, cr4, [sp], {-0}
    7418:	05000001 	streq	r0, [r0, #-1]
    741c:	00820adb 	ldrdeq	r0, [r2], fp
    7420:	0d500000 	ldcleq	0, cr0, [r0, #-0]
    7424:	00000ae3 	andeq	r0, r0, r3, ror #21
    7428:	6c12de05 	ldcvs	14, cr13, [r2], {5}
    742c:	54000004 	strpl	r0, [r0], #-4
    7430:	0004310d 	andeq	r3, r4, sp, lsl #2
    7434:	0ce20500 	cfstr64eq	mvdx0, [r2]
    7438:	00000109 	andeq	r0, r0, r9, lsl #2
    743c:	03c50d58 	biceq	r0, r5, #88, 26	; 0x1600
    7440:	e4050000 	str	r0, [r5], #-0
    7444:	0000fd0e 	andeq	pc, r0, lr, lsl #26
    7448:	8e0d5c00 	cdphi	12, 0, cr5, cr13, cr0, {0}
    744c:	05000002 	streq	r0, [r0, #-2]
    7450:	002509e5 	eoreq	r0, r5, r5, ror #19
    7454:	00640000 	rsbeq	r0, r4, r0
    7458:	00002515 	andeq	r2, r0, r5, lsl r5
    745c:	00046c00 	andeq	r6, r4, r0, lsl #24
    7460:	046c1600 	strbteq	r1, [ip], #-1536	; 0xfffffa00
    7464:	15160000 	ldrne	r0, [r6, #-0]
    7468:	16000001 	strne	r0, [r0], -r1
    746c:	00000117 	andeq	r0, r0, r7, lsl r1
    7470:	00002516 	andeq	r2, r0, r6, lsl r5
    7474:	04050000 	streq	r0, [r5], #-0
    7478:	00000477 	andeq	r0, r0, r7, ror r4
    747c:	00046c0f 	andeq	r6, r4, pc, lsl #24
    7480:	041b1700 	ldreq	r1, [fp], #-1792	; 0xfffff900
    7484:	04280000 	strteq	r0, [r8], #-0
    7488:	08026005 	stmdaeq	r2, {r0, r2, sp, lr}
    748c:	000005c0 	andeq	r0, r0, r0, asr #11
    7490:	00038318 	andeq	r8, r3, r8, lsl r3
    7494:	02620500 	rsbeq	r0, r2, #0, 10
    7498:	00002507 	andeq	r2, r0, r7, lsl #10
    749c:	3c180000 	ldccc	0, cr0, [r8], {-0}
    74a0:	05000001 	streq	r0, [r0, #-1]
    74a4:	9a0b0267 	bls	2c7e48 <__bss_end__+0x2bddd8>
    74a8:	04000006 	streq	r0, [r0], #-6
    74ac:	00020618 	andeq	r0, r2, r8, lsl r6
    74b0:	02670500 	rsbeq	r0, r7, #0, 10
    74b4:	00069a14 	andeq	r9, r6, r4, lsl sl
    74b8:	b6180800 	ldrlt	r0, [r8], -r0, lsl #16
    74bc:	05000001 	streq	r0, [r0, #-1]
    74c0:	9a1e0267 	bls	787e64 <__bss_end__+0x77ddf4>
    74c4:	0c000006 	stceq	0, cr0, [r0], {6}
    74c8:	0003e618 	andeq	lr, r3, r8, lsl r6
    74cc:	02690500 	rsbeq	r0, r9, #0, 10
    74d0:	00002508 	andeq	r2, r0, r8, lsl #10
    74d4:	37181000 	ldrcc	r1, [r8, -r0]
    74d8:	05000000 	streq	r0, [r0, #-0]
    74dc:	9a08026a 	bls	207e8c <__bss_end__+0x1fde1c>
    74e0:	14000008 	strne	r0, [r0], #-8
    74e4:	0003fa18 	andeq	pc, r3, r8, lsl sl	; <UNPREDICTABLE>
    74e8:	026d0500 	rsbeq	r0, sp, #0, 10
    74ec:	00002507 	andeq	r2, r0, r7, lsl #10
    74f0:	1f183000 	svcne	0x00183000
    74f4:	0500000a 	streq	r0, [r0, #-10]
    74f8:	af16026e 	svcge	0x0016026e
    74fc:	34000008 	strcc	r0, [r0], #-8
    7500:	0002c518 	andeq	ip, r2, r8, lsl r5
    7504:	02700500 	rsbseq	r0, r0, #0, 10
    7508:	00002507 	andeq	r2, r0, r7, lsl #10
    750c:	f0183800 			; <UNDEFINED> instruction: 0xf0183800
    7510:	05000003 	streq	r0, [r0, #-3]
    7514:	c00a0272 	andgt	r0, sl, r2, ror r2
    7518:	3c000008 	stccc	0, cr0, [r0], {8}
    751c:	00026518 	andeq	r6, r2, r8, lsl r5
    7520:	02750500 	rsbseq	r0, r5, #0, 10
    7524:	00018f13 	andeq	r8, r1, r3, lsl pc
    7528:	d5184000 	ldrle	r4, [r8, #-0]
    752c:	05000001 	streq	r0, [r0, #-1]
    7530:	25070276 	strcs	r0, [r7, #-630]	; 0xfffffd8a
    7534:	44000000 	strmi	r0, [r0], #-0
    7538:	00052f18 	andeq	r2, r5, r8, lsl pc
    753c:	02770500 	rsbseq	r0, r7, #0, 10
    7540:	00018f13 	andeq	r8, r1, r3, lsl pc
    7544:	d7184800 	ldrle	r4, [r8, -r0, lsl #16]
    7548:	05000002 	streq	r0, [r0, #-2]
    754c:	c6140278 			; <UNDEFINED> instruction: 0xc6140278
    7550:	4c000008 	stcmi	0, cr0, [r0], {8}
    7554:	00020e18 	andeq	r0, r2, r8, lsl lr
    7558:	027b0500 	rsbseq	r0, fp, #0, 10
    755c:	00002507 	andeq	r2, r0, r7, lsl #10
    7560:	54185000 	ldrpl	r5, [r8], #-0
    7564:	05000001 	streq	r0, [r0, #-1]
    7568:	1709027c 	smlsdxne	r9, ip, r2, r0
    756c:	54000001 	strpl	r0, [r0], #-1
    7570:	0002fd18 	andeq	pc, r2, r8, lsl sp	; <UNPREDICTABLE>
    7574:	029f0500 	addseq	r0, pc, #0, 10
    7578:	00087507 	andeq	r7, r8, r7, lsl #10
    757c:	bd195800 	ldclt	8, cr5, [r9, #-0]
    7580:	05000002 	streq	r0, [r0, #-2]
    7584:	c01302a3 	andsgt	r0, r3, r3, lsr #5
    7588:	48000002 	stmdami	r0, {r1}
    758c:	02431901 	subeq	r1, r3, #16384	; 0x4000
    7590:	a4050000 	strge	r0, [r5], #-0
    7594:	027d1202 	rsbseq	r1, sp, #536870912	; 0x20000000
    7598:	014c0000 	mrseq	r0, (UNDEF: 76)
    759c:	0004db19 	andeq	sp, r4, r9, lsl fp
    75a0:	02a80500 	adceq	r0, r8, #0, 10
    75a4:	0008d70c 	andeq	sp, r8, ip, lsl #14
    75a8:	1902dc00 	stmdbne	r2, {sl, fp, ip, lr, pc}
    75ac:	00000125 	andeq	r0, r0, r5, lsr #2
    75b0:	1002ad05 	andne	sl, r2, r5, lsl #26
    75b4:	0000065b 	andeq	r0, r0, fp, asr r6
    75b8:	0a1902e0 	beq	648140 <__bss_end__+0x63e0d0>
    75bc:	05000001 	streq	r0, [r0, #-1]
    75c0:	e30a02af 	movw	r0, #41647	; 0xa2af
    75c4:	ec000008 	stc	0, cr0, [r0], {8}
    75c8:	04050002 	streq	r0, [r5], #-2
    75cc:	0000044e 	andeq	r0, r0, lr, asr #8
    75d0:	00002515 	andeq	r2, r0, r5, lsl r5
    75d4:	0005e400 	andeq	lr, r5, r0, lsl #8
    75d8:	046c1600 	strbteq	r1, [ip], #-1536	; 0xfffffa00
    75dc:	15160000 	ldrne	r0, [r6, #-0]
    75e0:	16000001 	strne	r0, [r0], -r1
    75e4:	000005e4 	andeq	r0, r0, r4, ror #11
    75e8:	00002516 	andeq	r2, r0, r6, lsl r5
    75ec:	04050000 	streq	r0, [r5], #-0
    75f0:	00000124 	andeq	r0, r0, r4, lsr #2
    75f4:	05c60405 	strbeq	r0, [r6, #1029]	; 0x405
    75f8:	8e150000 	cdphi	0, 1, cr0, cr5, cr0, {0}
    75fc:	0e000000 	cdpeq	0, 0, cr0, cr0, cr0, {0}
    7600:	16000006 	strne	r0, [r0], -r6
    7604:	0000046c 	andeq	r0, r0, ip, ror #8
    7608:	00011516 	andeq	r1, r1, r6, lsl r5
    760c:	008e1600 	addeq	r1, lr, r0, lsl #12
    7610:	25160000 	ldrcs	r0, [r6, #-0]
    7614:	00000000 	andeq	r0, r0, r0
    7618:	05f00405 	ldrbeq	r0, [r0, #1029]!	; 0x405
    761c:	25150000 	ldrcs	r0, [r5, #-0]
    7620:	28000000 	stmdacs	r0, {}	; <UNPREDICTABLE>
    7624:	16000006 	strne	r0, [r0], -r6
    7628:	0000046c 	andeq	r0, r0, ip, ror #8
    762c:	00011516 	andeq	r1, r1, r6, lsl r5
    7630:	04050000 	streq	r0, [r5], #-0
    7634:	00000614 	andeq	r0, r0, r4, lsl r6
    7638:	00004f0a 	andeq	r4, r0, sl, lsl #30
    763c:	00063e00 	andeq	r3, r6, r0, lsl #28
    7640:	002c0b00 	eoreq	r0, ip, r0, lsl #22
    7644:	00020000 	andeq	r0, r2, r0
    7648:	00004f0a 	andeq	r4, r0, sl, lsl #30
    764c:	00064e00 	andeq	r4, r6, r0, lsl #28
    7650:	002c0b00 	eoreq	r0, ip, r0, lsl #22
    7654:	00000000 	andeq	r0, r0, r0
    7658:	0003ab07 	andeq	sl, r3, r7, lsl #22
    765c:	011f0500 	tsteq	pc, r0, lsl #10
    7660:	00030b1a 	andeq	r0, r3, sl, lsl fp
    7664:	04c21a00 	strbeq	r1, [r2], #2560	; 0xa00
    7668:	050c0000 	streq	r0, [ip, #-0]
    766c:	94080123 	strls	r0, [r8], #-291	; 0xfffffedd
    7670:	18000006 	stmdane	r0, {r1, r2}
    7674:	000003d3 	ldrdeq	r0, [r0], -r3
    7678:	11012505 	tstne	r1, r5, lsl #10
    767c:	00000694 	muleq	r0, r4, r6
    7680:	02291800 	eoreq	r1, r9, #0, 16
    7684:	26050000 	strcs	r0, [r5], -r0
    7688:	00250701 	eoreq	r0, r5, r1, lsl #14
    768c:	18040000 	stmdane	r4, {}	; <UNPREDICTABLE>
    7690:	000003a5 	andeq	r0, r0, r5, lsr #7
    7694:	0b012705 	bleq	512b0 <__bss_end__+0x47240>
    7698:	0000069a 	muleq	r0, sl, r6
    769c:	04050008 	streq	r0, [r5], #-8
    76a0:	0000065b 	andeq	r0, r0, fp, asr r6
    76a4:	064e0405 	strbeq	r0, [lr], -r5, lsl #8
    76a8:	2f1a0000 	svccs	0x001a0000
    76ac:	0e000000 	cdpeq	0, 0, cr0, cr0, cr0, {0}
    76b0:	08013f05 	stmdaeq	r1, {r0, r2, r8, r9, sl, fp, ip, sp}
    76b4:	000006d9 	ldrdeq	r0, [r0], -r9
    76b8:	00042218 	andeq	r2, r4, r8, lsl r2
    76bc:	01400500 	cmpeq	r0, r0, lsl #10
    76c0:	0006d912 	andeq	sp, r6, r2, lsl r9
    76c4:	56180000 	ldrpl	r0, [r8], -r0
    76c8:	05000004 	streq	r0, [r0, #-4]
    76cc:	d9120141 	ldmdble	r2, {r0, r6, r8}
    76d0:	06000006 	streq	r0, [r0], -r6
    76d4:	00047218 	andeq	r7, r4, r8, lsl r2
    76d8:	01420500 	cmpeq	r2, r0, lsl #10
    76dc:	00005612 	andeq	r5, r0, r2, lsl r6
    76e0:	0a000c00 	beq	a6e8 <__bss_end__+0x678>
    76e4:	00000056 	andeq	r0, r0, r6, asr r0
    76e8:	000006e9 	andeq	r0, r0, r9, ror #13
    76ec:	00002c0b 	andeq	r2, r0, fp, lsl #24
    76f0:	1b000200 	blne	7ef8 <_start-0x108>
    76f4:	028005d0 	addeq	r0, r0, #208, 10	; 0x34000000
    76f8:	0007fe07 	andeq	pc, r7, r7, lsl #28
    76fc:	04a61800 	strteq	r1, [r6], #2048	; 0x800
    7700:	82050000 	andhi	r0, r5, #0
    7704:	002c1802 	eoreq	r1, ip, r2, lsl #16
    7708:	18000000 	stmdane	r0, {}	; <UNPREDICTABLE>
    770c:	0000045c 	andeq	r0, r0, ip, asr r4
    7710:	12028305 	andne	r8, r2, #335544320	; 0x14000000
    7714:	00000117 	andeq	r0, r0, r7, lsl r1
    7718:	02581804 	subseq	r1, r8, #4, 16	; 0x40000
    771c:	84050000 	strhi	r0, [r5], #-0
    7720:	07fe1002 	ldrbeq	r1, [lr, r2]!
    7724:	18080000 	stmdane	r8, {}	; <UNPREDICTABLE>
    7728:	00000506 	andeq	r0, r0, r6, lsl #10
    772c:	17028505 	strne	r8, [r2, -r5, lsl #10]
    7730:	000001a5 	andeq	r0, r0, r5, lsr #3
    7734:	01c61824 	biceq	r1, r6, r4, lsr #16
    7738:	86050000 	strhi	r0, [r5], -r0
    773c:	00250f02 	eoreq	r0, r5, r2, lsl #30
    7740:	18480000 	stmdane	r8, {}^	; <UNPREDICTABLE>
    7744:	000003ce 	andeq	r0, r0, lr, asr #7
    7748:	2c028705 	stccs	7, cr8, [r2], {5}
    774c:	00000064 	andeq	r0, r0, r4, rrx
    7750:	051c1850 	ldreq	r1, [ip, #-2128]	; 0xfffff7b0
    7754:	88050000 	stmdahi	r5, {}	; <UNPREDICTABLE>
    7758:	06a01a02 	strteq	r1, [r0], r2, lsl #20
    775c:	18580000 	ldmdane	r8, {}^	; <UNPREDICTABLE>
    7760:	000003d9 	ldrdeq	r0, [r0], -r9
    7764:	16028905 	strne	r8, [r2], -r5, lsl #18
    7768:	000000fd 	strdeq	r0, [r0], -sp
    776c:	05211868 	streq	r1, [r1, #-2152]!	; 0xfffff798
    7770:	8a050000 	bhi	147778 <__bss_end__+0x13d708>
    7774:	00fd1602 	rscseq	r1, sp, r2, lsl #12
    7778:	18700000 	ldmdane	r0!, {}^	; <UNPREDICTABLE>
    777c:	000002e1 	andeq	r0, r0, r1, ror #5
    7780:	16028b05 	strne	r8, [r2], -r5, lsl #22
    7784:	000000fd 	strdeq	r0, [r0], -sp
    7788:	04d11878 	ldrbeq	r1, [r1], #2168	; 0x878
    778c:	8c050000 	stchi	0, cr0, [r5], {-0}
    7790:	080e1002 	stmdaeq	lr, {r1, ip}
    7794:	18800000 	stmne	r0, {}	; <UNPREDICTABLE>
    7798:	0000024c 	andeq	r0, r0, ip, asr #4
    779c:	10028d05 	andne	r8, r2, r5, lsl #26
    77a0:	0000081e 	andeq	r0, r0, lr, lsl r8
    77a4:	047f1888 	ldrbteq	r1, [pc], #-2184	; 77ac <_start-0x854>
    77a8:	8e050000 	cdphi	0, 0, cr0, cr5, cr0, {0}
    77ac:	00250f02 	eoreq	r0, r5, r2, lsl #30
    77b0:	18a00000 	stmiane	r0!, {}	; <UNPREDICTABLE>
    77b4:	0000018c 	andeq	r0, r0, ip, lsl #3
    77b8:	16028f05 	strne	r8, [r2], -r5, lsl #30
    77bc:	000000fd 	strdeq	r0, [r0], -sp
    77c0:	009d18a4 	addseq	r1, sp, r4, lsr #17
    77c4:	90050000 	andls	r0, r5, r0
    77c8:	00fd1602 	rscseq	r1, sp, r2, lsl #12
    77cc:	18ac0000 	stmiane	ip!, {}	; <UNPREDICTABLE>
    77d0:	0000017b 	andeq	r0, r0, fp, ror r1
    77d4:	16029105 	strne	r9, [r2], -r5, lsl #2
    77d8:	000000fd 	strdeq	r0, [r0], -sp
    77dc:	004a18b4 	strheq	r1, [sl], #-132	; 0xffffff7c
    77e0:	92050000 	andls	r0, r5, #0
    77e4:	00fd1602 	rscseq	r1, sp, r2, lsl #12
    77e8:	18bc0000 	ldmne	ip!, {}	; <UNPREDICTABLE>
    77ec:	00000059 	andeq	r0, r0, r9, asr r0
    77f0:	16029305 	strne	r9, [r2], -r5, lsl #6
    77f4:	000000fd 	strdeq	r0, [r0], -sp
    77f8:	038118c4 	orreq	r1, r1, #196, 16	; 0xc40000
    77fc:	94050000 	strls	r0, [r5], #-0
    7800:	00250802 	eoreq	r0, r5, r2, lsl #16
    7804:	00cc0000 	sbceq	r0, ip, r0
    7808:	00011d0a 	andeq	r1, r1, sl, lsl #26
    780c:	00080e00 	andeq	r0, r8, r0, lsl #28
    7810:	002c0b00 	eoreq	r0, ip, r0, lsl #22
    7814:	00190000 	andseq	r0, r9, r0
    7818:	00011d0a 	andeq	r1, r1, sl, lsl #26
    781c:	00081e00 	andeq	r1, r8, r0, lsl #28
    7820:	002c0b00 	eoreq	r0, ip, r0, lsl #22
    7824:	00070000 	andeq	r0, r7, r0
    7828:	00011d0a 	andeq	r1, r1, sl, lsl #26
    782c:	00082e00 	andeq	r2, r8, r0, lsl #28
    7830:	002c0b00 	eoreq	r0, ip, r0, lsl #22
    7834:	00170000 	andseq	r0, r7, r0
    7838:	9905f01b 	stmdbls	r5, {r0, r1, r3, r4, ip, sp, lr, pc}
    783c:	08550702 	ldmdaeq	r5, {r1, r8, r9, sl}^
    7840:	ad180000 	ldcge	0, cr0, [r8, #-0]
    7844:	05000002 	streq	r0, [r0, #-2]
    7848:	551b029c 	ldrpl	r0, [fp, #-668]	; 0xfffffd64
    784c:	00000008 	andeq	r0, r0, r8
    7850:	0004c818 	andeq	ip, r4, r8, lsl r8
    7854:	029d0500 	addseq	r0, sp, #0, 10
    7858:	00086518 	andeq	r6, r8, r8, lsl r5
    785c:	0a007800 	beq	25864 <__bss_end__+0x1b7f4>
    7860:	00000305 	andeq	r0, r0, r5, lsl #6
    7864:	00000865 	andeq	r0, r0, r5, ror #16
    7868:	00002c0b 	andeq	r2, r0, fp, lsl #24
    786c:	0a001d00 	beq	ec74 <__bss_end__+0x4c04>
    7870:	0000002c 	andeq	r0, r0, ip, lsr #32
    7874:	00000875 	andeq	r0, r0, r5, ror r8
    7878:	00002c0b 	andeq	r2, r0, fp, lsl #24
    787c:	1c001d00 	stcne	13, cr1, [r0], {-0}
    7880:	027e05f0 	rsbseq	r0, lr, #240, 10	; 0x3c000000
    7884:	00089a03 	andeq	r9, r8, r3, lsl #20
    7888:	041b1d00 	ldreq	r1, [fp], #-3328	; 0xfffff300
    788c:	95050000 	strls	r0, [r5, #-0]
    7890:	06e90b02 	strbteq	r0, [r9], r2, lsl #22
    7894:	f31d0000 	vhadd.u16	d0, d13, d0
    7898:	05000004 	streq	r0, [r0, #-4]
    789c:	2e0b029e 	mcrcs	2, 0, r0, cr11, cr14, {4}
    78a0:	00000008 	andeq	r0, r0, r8
    78a4:	00011d0a 	andeq	r1, r1, sl, lsl #26
    78a8:	0008aa00 	andeq	sl, r8, r0, lsl #20
    78ac:	002c0b00 	eoreq	r0, ip, r0, lsl #22
    78b0:	00180000 	andseq	r0, r8, r0
    78b4:	00009206 	andeq	r9, r0, r6, lsl #4
    78b8:	aa040500 	bge	108cc0 <__bss_end__+0xfec50>
    78bc:	1e000008 	cdpne	0, 0, cr0, cr0, cr8, {0}
    78c0:	000008c0 	andeq	r0, r0, r0, asr #17
    78c4:	00046c16 	andeq	r6, r4, r6, lsl ip
    78c8:	04050000 	streq	r0, [r5], #-0
    78cc:	000008b5 			; <UNDEFINED> instruction: 0x000008b5
    78d0:	018f0405 	orreq	r0, pc, r5, lsl #8
    78d4:	d71e0000 	ldrle	r0, [lr, -r0]
    78d8:	16000008 	strne	r0, [r0], -r8
    78dc:	00000025 	andeq	r0, r0, r5, lsr #32
    78e0:	dd040500 	cfstr32le	mvfx0, [r4, #-0]
    78e4:	05000008 	streq	r0, [r0, #-8]
    78e8:	0008cc04 	andeq	ip, r8, r4, lsl #24
    78ec:	064e0a00 	strbeq	r0, [lr], -r0, lsl #20
    78f0:	08f30000 	ldmeq	r3!, {}^	; <UNPREDICTABLE>
    78f4:	2c0b0000 	stccs	0, cr0, [fp], {-0}
    78f8:	02000000 	andeq	r0, r0, #0
    78fc:	04931f00 	ldreq	r1, [r3], #3840	; 0xf00
    7900:	2e050000 	cdpcs	0, 0, cr0, cr5, cr0, {0}
    7904:	046c1703 	strbteq	r1, [ip], #-1795	; 0xfffff8fd
    7908:	8c1f0000 	ldchi	0, cr0, [pc], {-0}
    790c:	05000004 	streq	r0, [r0, #-4]
    7910:	721d032f 	andsvc	r0, sp, #-1140850688	; 0xbc000000
    7914:	15000004 	strne	r0, [r0, #-4]
    7918:	00000025 	andeq	r0, r0, r5, lsr #32
    791c:	0000091c 	andeq	r0, r0, ip, lsl r9
    7920:	00002516 	andeq	r2, r0, r6, lsl r5
    7924:	df200000 	svcle	0x00200000
    7928:	06000001 	streq	r0, [r0], -r1
    792c:	09280e1d 	stmdbeq	r8!, {r0, r2, r3, r4, r9, sl, fp}
    7930:	04050000 	streq	r0, [r5], #-0
    7934:	0000090d 	andeq	r0, r0, sp, lsl #18
    7938:	00002515 	andeq	r2, r0, r5, lsl r5
    793c:	00093d00 	andeq	r3, r9, r0, lsl #26
    7940:	05e41600 	strbeq	r1, [r4, #1536]!	; 0x600
    7944:	20000000 	andcs	r0, r0, r0
    7948:	00000786 	andeq	r0, r0, r6, lsl #15
    794c:	490e2206 	stmdbmi	lr, {r1, r2, r9, sp}
    7950:	05000009 	streq	r0, [r0, #-9]
    7954:	00092e04 	andeq	r2, r9, r4, lsl #28
    7958:	08312100 	ldmdaeq	r1!, {r8, sp}
    795c:	0d010000 	stceq	0, cr0, [r1, #-0]
    7960:	0090cc06 	addseq	ip, r0, r6, lsl #24
    7964:	00002c00 	andeq	r2, r0, r0, lsl #24
    7968:	b89c0100 	ldmlt	ip, {r8}
    796c:	20000009 	andcs	r0, r0, r9
    7970:	00000841 	andeq	r0, r0, r1, asr #16
    7974:	25100e01 	ldrcs	r0, [r0, #-3585]	; 0xfffff1ff
    7978:	20000000 	andcs	r0, r0, r0
    797c:	0000084f 	andeq	r0, r0, pc, asr #16
    7980:	251f0e01 	ldrcs	r0, [pc, #-3585]	; 6b87 <_start-0x1479>
    7984:	22000000 	andcs	r0, r0, #0
    7988:	00000042 	andeq	r0, r0, r2, asr #32
    798c:	23070f01 	movwcs	r0, #32513	; 0x7f01
    7990:	00737362 	rsbseq	r7, r3, r2, ror #6
    7994:	b80a1101 	stmdalt	sl, {r0, r8, ip}
    7998:	64000009 	strvs	r0, [r0], #-9
    799c:	5e000012 	mcrpl	0, 0, r0, cr0, cr2, {0}
    79a0:	24000012 	strcs	r0, [r0], #-18	; 0xffffffee
    79a4:	00000839 	andeq	r0, r0, r9, lsr r8
    79a8:	b80a1201 	stmdalt	sl, {r0, r9, ip}
    79ac:	25000009 	strcs	r0, [r0, #-9]
    79b0:	000090ec 	andeq	r9, r0, ip, ror #1
    79b4:	000009be 			; <UNDEFINED> instruction: 0x000009be
    79b8:	0090f025 	addseq	pc, r0, r5, lsr #32
    79bc:	0009ca00 	andeq	ip, r9, r0, lsl #20
    79c0:	04050000 	streq	r0, [r5], #-0
    79c4:	00000025 	andeq	r0, r0, r5, lsr #32
    79c8:	00004226 	andeq	r4, r0, r6, lsr #4
    79cc:	00004200 	andeq	r4, r0, r0, lsl #4
    79d0:	06d70600 	ldrbeq	r0, [r7], r0, lsl #12
    79d4:	0002a026 	andeq	sl, r2, r6, lsr #32
    79d8:	0002a000 	andeq	sl, r2, r0
    79dc:	06650600 	strbteq	r0, [r5], -r0, lsl #12
    79e0:	000a9b00 	andeq	r9, sl, r0, lsl #22
    79e4:	f7000400 			; <UNDEFINED> instruction: 0xf7000400
    79e8:	04000017 	streq	r0, [r0], #-23	; 0xffffffe9
    79ec:	00030201 	andeq	r0, r3, r1, lsl #4
    79f0:	089b0c00 	ldmeq	fp, {sl, fp}
    79f4:	06df0000 	ldrbeq	r0, [pc], r0
    79f8:	00680000 	rsbeq	r0, r8, r0
    79fc:	00000000 	andeq	r0, r0, r0
    7a00:	16570000 	ldrbne	r0, [r7], -r0
    7a04:	04020000 	streq	r0, [r2], #-0
    7a08:	746e6905 	strbtvc	r6, [lr], #-2309	; 0xfffff6fb
    7a0c:	00250300 	eoreq	r0, r5, r0, lsl #6
    7a10:	04040000 	streq	r0, [r4], #-0
    7a14:	00007407 	andeq	r7, r0, r7, lsl #8
    7a18:	06010400 	streq	r0, [r1], -r0, lsl #8
    7a1c:	000002f1 	strdeq	r0, [r0], -r1
    7a20:	8a050204 	bhi	148238 <__bss_end__+0x13e1c8>
    7a24:	04000003 	streq	r0, [r0], #-3
    7a28:	00ba0504 	adcseq	r0, sl, r4, lsl #10
    7a2c:	08040000 	stmdaeq	r4, {}	; <UNPREDICTABLE>
    7a30:	0000b505 	andeq	fp, r0, r5, lsl #10
    7a34:	08010400 	stmdaeq	r1, {sl}
    7a38:	000002ef 	andeq	r0, r0, pc, ror #5
    7a3c:	30070204 	andcc	r0, r7, r4, lsl #4
    7a40:	04000002 	streq	r0, [r0], #-2
    7a44:	006f0704 	rsbeq	r0, pc, r4, lsl #14
    7a48:	08040000 	stmdaeq	r4, {}	; <UNPREDICTABLE>
    7a4c:	00006a07 	andeq	r6, r0, r7, lsl #20
    7a50:	02730500 	rsbseq	r0, r3, #0, 10
    7a54:	22020000 	andcs	r0, r2, #0
    7a58:	00007c19 	andeq	r7, r0, r9, lsl ip
    7a5c:	82040600 	andhi	r0, r4, #0, 12
    7a60:	07000000 	streq	r0, [r0, -r0]
    7a64:	00000430 	andeq	r0, r0, r0, lsr r4
    7a68:	0002d005 	andeq	sp, r2, r5
    7a6c:	0e2c0300 	cdpeq	3, 2, cr0, cr12, cr0, {0}
    7a70:	00000046 	andeq	r0, r0, r6, asr #32
    7a74:	00044505 	andeq	r4, r4, r5, lsl #10
    7a78:	0e720300 	cdpeq	3, 7, cr0, cr2, cr0, {0}
    7a7c:	00000046 	andeq	r0, r0, r6, asr #32
    7a80:	00027b08 	andeq	r7, r2, r8, lsl #22
    7a84:	015e0400 	cmpeq	lr, r0, lsl #8
    7a88:	00003117 	andeq	r3, r0, r7, lsl r1
    7a8c:	03040900 	movweq	r0, #18688	; 0x4900
    7a90:	00ce03a6 	sbceq	r0, lr, r6, lsr #7
    7a94:	6d0a0000 	stcvs	0, cr0, [sl, #-0]
    7a98:	03000002 	movweq	r0, #2
    7a9c:	009f0ca8 	addseq	r0, pc, r8, lsr #25
    7aa0:	f00a0000 			; <UNDEFINED> instruction: 0xf00a0000
    7aa4:	03000001 	movweq	r0, #1
    7aa8:	00ce13a9 	sbceq	r1, lr, r9, lsr #7
    7aac:	0b000000 	bleq	7ab4 <_start-0x54c>
    7ab0:	00000054 	andeq	r0, r0, r4, asr r0
    7ab4:	000000de 	ldrdeq	r0, [r0], -lr
    7ab8:	0000310c 	andeq	r3, r0, ip, lsl #2
    7abc:	0d000300 	stceq	3, cr0, [r0, #-0]
    7ac0:	09a30308 	stmibeq	r3!, {r3, r8, r9}
    7ac4:	00000102 	andeq	r0, r0, r2, lsl #2
    7ac8:	0004280e 	andeq	r2, r4, lr, lsl #16
    7acc:	07a50300 	streq	r0, [r5, r0, lsl #6]!
    7ad0:	00000025 	andeq	r0, r0, r5, lsr #32
    7ad4:	04370e00 	ldrteq	r0, [r7], #-3584	; 0xfffff200
    7ad8:	aa030000 	bge	c7ae0 <__bss_end__+0xbda70>
    7adc:	0000ac05 	andeq	sl, r0, r5, lsl #24
    7ae0:	05000400 	streq	r0, [r0, #-1024]	; 0xfffffc00
    7ae4:	000003b2 			; <UNDEFINED> instruction: 0x000003b2
    7ae8:	de03ab03 	vmlale.f64	d10, d3, d3
    7aec:	05000000 	streq	r0, [r0, #-0]
    7af0:	000001ad 	andeq	r0, r0, sp, lsr #3
    7af4:	701baf03 	andsvc	sl, fp, r3, lsl #30
    7af8:	0f000000 	svceq	0x00000000
    7afc:	22040604 	andcs	r0, r4, #4, 12	; 0x400000
    7b00:	04000001 	streq	r0, [r0], #-1
    7b04:	02f80801 	rscseq	r0, r8, #65536	; 0x10000
    7b08:	22030000 	andcs	r0, r3, #0
    7b0c:	05000001 	streq	r0, [r0, #-1]
    7b10:	00000477 	andeq	r0, r0, r7, ror r4
    7b14:	62191605 	andsvs	r1, r9, #5242880	; 0x500000
    7b18:	10000000 	andne	r0, r0, r0
    7b1c:	000001be 			; <UNDEFINED> instruction: 0x000001be
    7b20:	082f0518 	stmdaeq	pc!, {r3, r4, r8, sl}	; <UNPREDICTABLE>
    7b24:	00000194 	muleq	r0, r4, r1
    7b28:	0003d30e 	andeq	sp, r3, lr, lsl #6
    7b2c:	13310500 	teqne	r1, #0, 10
    7b30:	00000194 	muleq	r0, r4, r1
    7b34:	6b5f1100 	blvs	17cbf3c <__bss_end__+0x17c1ecc>
    7b38:	07320500 	ldreq	r0, [r2, -r0, lsl #10]!
    7b3c:	00000025 	andeq	r0, r0, r5, lsr #32
    7b40:	04130e04 	ldreq	r0, [r3], #-3588	; 0xfffff1fc
    7b44:	32050000 	andcc	r0, r5, #0
    7b48:	0000250b 	andeq	r2, r0, fp, lsl #10
    7b4c:	a70e0800 	strge	r0, [lr, -r0, lsl #16]
    7b50:	05000001 	streq	r0, [r0, #-1]
    7b54:	00251432 	eoreq	r1, r5, r2, lsr r4
    7b58:	0e0c0000 	cdpeq	0, 0, cr0, cr12, cr0, {0}
    7b5c:	000004b3 			; <UNDEFINED> instruction: 0x000004b3
    7b60:	251b3205 	ldrcs	r3, [fp, #-517]	; 0xfffffdfb
    7b64:	10000000 	andne	r0, r0, r0
    7b68:	00785f11 	rsbseq	r5, r8, r1, lsl pc
    7b6c:	9a0b3305 	bls	2d4788 <__bss_end__+0x2ca718>
    7b70:	14000001 	strne	r0, [r0], #-1
    7b74:	3a040600 	bcc	10937c <__bss_end__+0xff30c>
    7b78:	0b000001 	bleq	7b84 <_start-0x47c>
    7b7c:	0000012e 	andeq	r0, r0, lr, lsr #2
    7b80:	000001aa 	andeq	r0, r0, sl, lsr #3
    7b84:	0000310c 	andeq	r3, r0, ip, lsl #2
    7b88:	10000000 	andne	r0, r0, r0
    7b8c:	000001eb 	andeq	r0, r0, fp, ror #3
    7b90:	08370524 	ldmdaeq	r7!, {r2, r5, r8, sl}
    7b94:	0000022d 	andeq	r0, r0, sp, lsr #4
    7b98:	0000ac0e 	andeq	sl, r0, lr, lsl #24
    7b9c:	09390500 	ldmdbeq	r9!, {r8, sl}
    7ba0:	00000025 	andeq	r0, r0, r5, lsr #32
    7ba4:	044d0e00 	strbeq	r0, [sp], #-3584	; 0xfffff200
    7ba8:	3a050000 	bcc	147bb0 <__bss_end__+0x13db40>
    7bac:	00002509 	andeq	r2, r0, r9, lsl #10
    7bb0:	cf0e0400 	svcgt	0x000e0400
    7bb4:	05000000 	streq	r0, [r0, #-0]
    7bb8:	0025093b 	eoreq	r0, r5, fp, lsr r9
    7bbc:	0e080000 	cdpeq	0, 0, cr0, cr8, cr0, {0}
    7bc0:	00000534 	andeq	r0, r0, r4, lsr r5
    7bc4:	25093c05 	strcs	r3, [r9, #-3077]	; 0xfffff3fb
    7bc8:	0c000000 	stceq	0, cr0, [r0], {-0}
    7bcc:	0002b40e 	andeq	fp, r2, lr, lsl #8
    7bd0:	093d0500 	ldmdbeq	sp!, {r8, sl}
    7bd4:	00000025 	andeq	r0, r0, r5, lsr #32
    7bd8:	02960e10 	addseq	r0, r6, #16, 28	; 0x100
    7bdc:	3e050000 	cdpcc	0, 0, cr0, cr5, cr0, {0}
    7be0:	00002509 	andeq	r2, r0, r9, lsl #10
    7be4:	b80e1400 	stmdalt	lr, {sl, ip}
    7be8:	05000004 	streq	r0, [r0, #-4]
    7bec:	0025093f 	eoreq	r0, r5, pc, lsr r9
    7bf0:	0e180000 	cdpeq	0, 1, cr0, cr8, cr0, {0}
    7bf4:	00000394 	muleq	r0, r4, r3
    7bf8:	25094005 	strcs	r4, [r9, #-5]
    7bfc:	1c000000 	stcne	0, cr0, [r0], {-0}
    7c00:	0004fb0e 	andeq	pc, r4, lr, lsl #22
    7c04:	09410500 	stmdbeq	r1, {r8, sl}^
    7c08:	00000025 	andeq	r0, r0, r5, lsr #32
    7c0c:	0f120020 	svceq	0x00120020
    7c10:	08000001 	stmdaeq	r0, {r0}
    7c14:	084a0501 	stmdaeq	sl, {r0, r8, sl}^
    7c18:	00000272 	andeq	r0, r0, r2, ror r2
    7c1c:	00019a0e 	andeq	r9, r1, lr, lsl #20
    7c20:	0a4b0500 	beq	12c9028 <__bss_end__+0x12befb8>
    7c24:	00000272 	andeq	r0, r0, r2, ror r2
    7c28:	00000e00 	andeq	r0, r0, r0, lsl #28
    7c2c:	4c050000 	stcmi	0, cr0, [r5], {-0}
    7c30:	00027209 	andeq	r7, r2, r9, lsl #4
    7c34:	69138000 	ldmdbvs	r3, {pc}
    7c38:	05000004 	streq	r0, [r0, #-4]
    7c3c:	012e0a4e 			; <UNDEFINED> instruction: 0x012e0a4e
    7c40:	01000000 	mrseq	r0, (UNDEF: 0)
    7c44:	00013413 	andeq	r3, r1, r3, lsl r4
    7c48:	0a510500 	beq	1449050 <__bss_end__+0x143efe0>
    7c4c:	0000012e 	andeq	r0, r0, lr, lsr #2
    7c50:	0b000104 	bleq	8068 <notmain+0x58>
    7c54:	0000011a 	andeq	r0, r0, sl, lsl r1
    7c58:	00000282 	andeq	r0, r0, r2, lsl #5
    7c5c:	0000310c 	andeq	r3, r0, ip, lsl #2
    7c60:	12001f00 	andne	r1, r0, #0, 30
    7c64:	000002bd 			; <UNDEFINED> instruction: 0x000002bd
    7c68:	5d050190 	stfpls	f0, [r5, #-576]	; 0xfffffdc0
    7c6c:	0002c508 	andeq	ip, r2, r8, lsl #10
    7c70:	03d30e00 	bicseq	r0, r3, #0, 28
    7c74:	5e050000 	cdppl	0, 0, cr0, cr5, cr0, {0}
    7c78:	0002c512 	andeq	ip, r2, r2, lsl r5
    7c7c:	eb0e0000 	bl	387c84 <__bss_end__+0x37dc14>
    7c80:	05000003 	streq	r0, [r0, #-3]
    7c84:	0025065f 	eoreq	r0, r5, pc, asr r6
    7c88:	0e040000 	cdpeq	0, 0, cr0, cr4, cr0, {0}
    7c8c:	000001a2 	andeq	r0, r0, r2, lsr #3
    7c90:	cb096105 	blgt	2600ac <__bss_end__+0x25603c>
    7c94:	08000002 	stmdaeq	r0, {r1}
    7c98:	00010f0e 	andeq	r0, r1, lr, lsl #30
    7c9c:	1e620500 	cdpne	5, 6, cr0, cr2, cr0, {0}
    7ca0:	0000022d 	andeq	r0, r0, sp, lsr #4
    7ca4:	04060088 	streq	r0, [r6], #-136	; 0xffffff78
    7ca8:	00000282 	andeq	r0, r0, r2, lsl #5
    7cac:	0002db0b 	andeq	sp, r2, fp, lsl #22
    7cb0:	0002db00 	andeq	sp, r2, r0, lsl #22
    7cb4:	00310c00 	eorseq	r0, r1, r0, lsl #24
    7cb8:	001f0000 	andseq	r0, pc, r0
    7cbc:	02e10406 	rsceq	r0, r1, #100663296	; 0x6000000
    7cc0:	10140000 	andsne	r0, r4, r0
    7cc4:	0000039e 	muleq	r0, lr, r3
    7cc8:	08750508 	ldmdaeq	r5!, {r3, r8, sl}^
    7ccc:	0000030a 	andeq	r0, r0, sl, lsl #6
    7cd0:	0000c90e 	andeq	ip, r0, lr, lsl #18
    7cd4:	11760500 	cmnne	r6, r0, lsl #10
    7cd8:	0000030a 	andeq	r0, r0, sl, lsl #6
    7cdc:	001b0e00 	andseq	r0, fp, r0, lsl #28
    7ce0:	77050000 	strvc	r0, [r5, -r0]
    7ce4:	00002506 	andeq	r2, r0, r6, lsl #10
    7ce8:	06000400 	streq	r0, [r0], -r0, lsl #8
    7cec:	00005404 	andeq	r5, r0, r4, lsl #8
    7cf0:	03bd1000 			; <UNDEFINED> instruction: 0x03bd1000
    7cf4:	05680000 	strbeq	r0, [r8, #-0]!
    7cf8:	045308b5 	ldrbeq	r0, [r3], #-2229	; 0xfffff74b
    7cfc:	5f110000 	svcpl	0x00110000
    7d00:	b6050070 			; <UNDEFINED> instruction: 0xb6050070
    7d04:	00030a12 	andeq	r0, r3, r2, lsl sl
    7d08:	5f110000 	svcpl	0x00110000
    7d0c:	b7050072 	smlsdxlt	r5, r2, r0, r0
    7d10:	00002507 	andeq	r2, r0, r7, lsl #10
    7d14:	5f110400 	svcpl	0x00110400
    7d18:	b8050077 	stmdalt	r5, {r0, r1, r2, r4, r5, r6}
    7d1c:	00002507 	andeq	r2, r0, r7, lsl #10
    7d20:	2d0e0800 	stccs	8, cr0, [lr, #-0]
    7d24:	05000001 	streq	r0, [r0, #-1]
    7d28:	003f09b9 	ldrhteq	r0, [pc], -r9
    7d2c:	0e0c0000 	cdpeq	0, 0, cr0, cr12, cr0, {0}
    7d30:	00000216 	andeq	r0, r0, r6, lsl r2
    7d34:	3f09ba05 	svccc	0x0009ba05
    7d38:	0e000000 	cdpeq	0, 0, cr0, cr0, cr0, {0}
    7d3c:	66625f11 	uqadd16vs	r5, r2, r1
    7d40:	11bb0500 			; <UNDEFINED> instruction: 0x11bb0500
    7d44:	000002e2 	andeq	r0, r0, r2, ror #5
    7d48:	00890e10 	addeq	r0, r9, r0, lsl lr
    7d4c:	bc050000 	stclt	0, cr0, [r5], {-0}
    7d50:	00002507 	andeq	r2, r0, r7, lsl #10
    7d54:	1d0e1800 	stcne	8, cr1, [lr, #-0]
    7d58:	05000001 	streq	r0, [r0, #-1]
    7d5c:	011a0ac3 	tsteq	sl, r3, asr #21
    7d60:	0e1c0000 	cdpeq	0, 1, cr0, cr12, cr0, {0}
    7d64:	00000b42 	andeq	r0, r0, r2, asr #22
    7d68:	c51dc505 	ldrgt	ip, [sp, #-1285]	; 0xfffffafb
    7d6c:	20000005 	andcs	r0, r0, r5
    7d70:	0006370e 	andeq	r3, r6, lr, lsl #14
    7d74:	1dc70500 	cfstr64ne	mvdx0, [r7]
    7d78:	000005ef 	andeq	r0, r0, pc, ror #11
    7d7c:	043f0e24 	ldrteq	r0, [pc], #-3620	; 7d84 <_start-0x27c>
    7d80:	ca050000 	bgt	147d88 <__bss_end__+0x13dd18>
    7d84:	0006130d 	andeq	r1, r6, sp, lsl #6
    7d88:	150e2800 	strne	r2, [lr, #-2048]	; 0xfffff800
    7d8c:	05000005 	streq	r0, [r0, #-5]
    7d90:	062d09cb 	strteq	r0, [sp], -fp, asr #19
    7d94:	112c0000 			; <UNDEFINED> instruction: 0x112c0000
    7d98:	0062755f 	rsbeq	r7, r2, pc, asr r5
    7d9c:	e211ce05 	ands	ip, r1, #5, 28	; 0x50
    7da0:	30000002 	andcc	r0, r0, r2
    7da4:	70755f11 	rsbsvc	r5, r5, r1, lsl pc
    7da8:	12cf0500 	sbcne	r0, pc, #0, 10
    7dac:	0000030a 	andeq	r0, r0, sl, lsl #6
    7db0:	755f1138 	ldrbvc	r1, [pc, #-312]	; 7c80 <_start-0x380>
    7db4:	d0050072 	andle	r0, r5, r2, ror r0
    7db8:	00002507 	andeq	r2, r0, r7, lsl #10
    7dbc:	c30e3c00 	movwgt	r3, #60416	; 0xec00
    7dc0:	05000000 	streq	r0, [r0, #-0]
    7dc4:	063311d3 			; <UNDEFINED> instruction: 0x063311d3
    7dc8:	0e400000 	cdpeq	0, 4, cr0, cr0, cr0, {0}
    7dcc:	000004ed 	andeq	r0, r0, sp, ror #9
    7dd0:	4311d405 	tstmi	r1, #83886080	; 0x5000000
    7dd4:	43000006 	movwmi	r0, #6
    7dd8:	626c5f11 	rsbvs	r5, ip, #17, 30	; 0x44
    7ddc:	11d70500 	bicsne	r0, r7, r0, lsl #10
    7de0:	000002e2 	andeq	r0, r0, r2, ror #5
    7de4:	014b0e44 	cmpeq	fp, r4, asr #28
    7de8:	da050000 	ble	147df0 <__bss_end__+0x13dd80>
    7dec:	00002507 	andeq	r2, r0, r7, lsl #10
    7df0:	5c0e4c00 	stcpl	12, cr4, [lr], {-0}
    7df4:	05000001 	streq	r0, [r0, #-1]
    7df8:	00870adb 	ldrdeq	r0, [r7], fp
    7dfc:	0e500000 	cdpeq	0, 5, cr0, cr0, cr0, {0}
    7e00:	00000ae3 	andeq	r0, r0, r3, ror #21
    7e04:	7112de05 	tstvc	r2, r5, lsl #28
    7e08:	54000004 	strpl	r0, [r0], #-4
    7e0c:	0004310e 	andeq	r3, r4, lr, lsl #2
    7e10:	0ce20500 	cfstr64eq	mvdx0, [r2]
    7e14:	0000010e 	andeq	r0, r0, lr, lsl #2
    7e18:	03c50e58 	biceq	r0, r5, #88, 28	; 0x580
    7e1c:	e4050000 	str	r0, [r5], #-0
    7e20:	0001020e 	andeq	r0, r1, lr, lsl #4
    7e24:	8e0e5c00 	cdphi	12, 0, cr5, cr14, cr0, {0}
    7e28:	05000002 	streq	r0, [r0, #-2]
    7e2c:	002509e5 	eoreq	r0, r5, r5, ror #19
    7e30:	00640000 	rsbeq	r0, r4, r0
    7e34:	00002515 	andeq	r2, r0, r5, lsl r5
    7e38:	00047100 	andeq	r7, r4, r0, lsl #2
    7e3c:	04711600 	ldrbteq	r1, [r1], #-1536	; 0xfffffa00
    7e40:	1a160000 	bne	587e48 <__bss_end__+0x57ddd8>
    7e44:	16000001 	strne	r0, [r0], -r1
    7e48:	0000011c 	andeq	r0, r0, ip, lsl r1
    7e4c:	00002516 	andeq	r2, r0, r6, lsl r5
    7e50:	04060000 	streq	r0, [r6], #-0
    7e54:	0000047c 	andeq	r0, r0, ip, ror r4
    7e58:	00047103 	andeq	r7, r4, r3, lsl #2
    7e5c:	041b1700 	ldreq	r1, [fp], #-1792	; 0xfffff900
    7e60:	04280000 	strteq	r0, [r8], #-0
    7e64:	08026005 	stmdaeq	r2, {r0, r2, sp, lr}
    7e68:	000005c5 	andeq	r0, r0, r5, asr #11
    7e6c:	00038318 	andeq	r8, r3, r8, lsl r3
    7e70:	02620500 	rsbeq	r0, r2, #0, 10
    7e74:	00002507 	andeq	r2, r0, r7, lsl #10
    7e78:	3c180000 	ldccc	0, cr0, [r8], {-0}
    7e7c:	05000001 	streq	r0, [r0, #-1]
    7e80:	9f0b0267 	svcls	0x000b0267
    7e84:	04000006 	streq	r0, [r0], #-6
    7e88:	00020618 	andeq	r0, r2, r8, lsl r6
    7e8c:	02670500 	rsbeq	r0, r7, #0, 10
    7e90:	00069f14 	andeq	r9, r6, r4, lsl pc
    7e94:	b6180800 	ldrlt	r0, [r8], -r0, lsl #16
    7e98:	05000001 	streq	r0, [r0, #-1]
    7e9c:	9f1e0267 	svcls	0x001e0267
    7ea0:	0c000006 	stceq	0, cr0, [r0], {6}
    7ea4:	0003e618 	andeq	lr, r3, r8, lsl r6
    7ea8:	02690500 	rsbeq	r0, r9, #0, 10
    7eac:	00002508 	andeq	r2, r0, r8, lsl #10
    7eb0:	37181000 	ldrcc	r1, [r8, -r0]
    7eb4:	05000000 	streq	r0, [r0, #-0]
    7eb8:	9f08026a 	svcls	0x0008026a
    7ebc:	14000008 	strne	r0, [r0], #-8
    7ec0:	0003fa18 	andeq	pc, r3, r8, lsl sl	; <UNPREDICTABLE>
    7ec4:	026d0500 	rsbeq	r0, sp, #0, 10
    7ec8:	00002507 	andeq	r2, r0, r7, lsl #10
    7ecc:	1f183000 	svcne	0x00183000
    7ed0:	0500000a 	streq	r0, [r0, #-10]
    7ed4:	b416026e 	ldrlt	r0, [r6], #-622	; 0xfffffd92
    7ed8:	34000008 	strcc	r0, [r0], #-8
    7edc:	0002c518 	andeq	ip, r2, r8, lsl r5
    7ee0:	02700500 	rsbseq	r0, r0, #0, 10
    7ee4:	00002507 	andeq	r2, r0, r7, lsl #10
    7ee8:	f0183800 			; <UNDEFINED> instruction: 0xf0183800
    7eec:	05000003 	streq	r0, [r0, #-3]
    7ef0:	c50a0272 	strgt	r0, [sl, #-626]	; 0xfffffd8e
    7ef4:	3c000008 	stccc	0, cr0, [r0], {8}
    7ef8:	00026518 	andeq	r6, r2, r8, lsl r5
    7efc:	02750500 	rsbseq	r0, r5, #0, 10
    7f00:	00019413 	andeq	r9, r1, r3, lsl r4
    7f04:	d5184000 	ldrle	r4, [r8, #-0]
    7f08:	05000001 	streq	r0, [r0, #-1]
    7f0c:	25070276 	strcs	r0, [r7, #-630]	; 0xfffffd8a
    7f10:	44000000 	strmi	r0, [r0], #-0
    7f14:	00052f18 	andeq	r2, r5, r8, lsl pc
    7f18:	02770500 	rsbseq	r0, r7, #0, 10
    7f1c:	00019413 	andeq	r9, r1, r3, lsl r4
    7f20:	d7184800 	ldrle	r4, [r8, -r0, lsl #16]
    7f24:	05000002 	streq	r0, [r0, #-2]
    7f28:	cb140278 	blgt	508910 <__bss_end__+0x4fe8a0>
    7f2c:	4c000008 	stcmi	0, cr0, [r0], {8}
    7f30:	00020e18 	andeq	r0, r2, r8, lsl lr
    7f34:	027b0500 	rsbseq	r0, fp, #0, 10
    7f38:	00002507 	andeq	r2, r0, r7, lsl #10
    7f3c:	54185000 	ldrpl	r5, [r8], #-0
    7f40:	05000001 	streq	r0, [r0, #-1]
    7f44:	1c09027c 	sfmne	f0, 4, [r9], {124}	; 0x7c
    7f48:	54000001 	strpl	r0, [r0], #-1
    7f4c:	0002fd18 	andeq	pc, r2, r8, lsl sp	; <UNPREDICTABLE>
    7f50:	029f0500 	addseq	r0, pc, #0, 10
    7f54:	00087a07 	andeq	r7, r8, r7, lsl #20
    7f58:	bd195800 	ldclt	8, cr5, [r9, #-0]
    7f5c:	05000002 	streq	r0, [r0, #-2]
    7f60:	c51302a3 	ldrgt	r0, [r3, #-675]	; 0xfffffd5d
    7f64:	48000002 	stmdami	r0, {r1}
    7f68:	02431901 	subeq	r1, r3, #16384	; 0x4000
    7f6c:	a4050000 	strge	r0, [r5], #-0
    7f70:	02821202 	addeq	r1, r2, #536870912	; 0x20000000
    7f74:	014c0000 	mrseq	r0, (UNDEF: 76)
    7f78:	0004db19 	andeq	sp, r4, r9, lsl fp
    7f7c:	02a80500 	adceq	r0, r8, #0, 10
    7f80:	0008dc0c 	andeq	sp, r8, ip, lsl #24
    7f84:	1902dc00 	stmdbne	r2, {sl, fp, ip, lr, pc}
    7f88:	00000125 	andeq	r0, r0, r5, lsr #2
    7f8c:	1002ad05 	andne	sl, r2, r5, lsl #26
    7f90:	00000660 	andeq	r0, r0, r0, ror #12
    7f94:	0a1902e0 	beq	648b1c <__bss_end__+0x63eaac>
    7f98:	05000001 	streq	r0, [r0, #-1]
    7f9c:	e80a02af 	stmda	sl, {r0, r1, r2, r3, r5, r7, r9}
    7fa0:	ec000008 	stc	0, cr0, [r0], {8}
    7fa4:	04060002 	streq	r0, [r6], #-2
    7fa8:	00000453 	andeq	r0, r0, r3, asr r4
    7fac:	00002515 	andeq	r2, r0, r5, lsl r5
    7fb0:	0005e900 	andeq	lr, r5, r0, lsl #18
    7fb4:	04711600 	ldrbteq	r1, [r1], #-1536	; 0xfffffa00
    7fb8:	1a160000 	bne	587fc0 <__bss_end__+0x57df50>
    7fbc:	16000001 	strne	r0, [r0], -r1
    7fc0:	000005e9 	andeq	r0, r0, r9, ror #11
    7fc4:	00002516 	andeq	r2, r0, r6, lsl r5
    7fc8:	04060000 	streq	r0, [r6], #-0
    7fcc:	00000129 	andeq	r0, r0, r9, lsr #2
    7fd0:	05cb0406 	strbeq	r0, [fp, #1030]	; 0x406
    7fd4:	93150000 	tstls	r5, #0
    7fd8:	13000000 	movwne	r0, #0
    7fdc:	16000006 	strne	r0, [r0], -r6
    7fe0:	00000471 	andeq	r0, r0, r1, ror r4
    7fe4:	00011a16 	andeq	r1, r1, r6, lsl sl
    7fe8:	00931600 	addseq	r1, r3, r0, lsl #12
    7fec:	25160000 	ldrcs	r0, [r6, #-0]
    7ff0:	00000000 	andeq	r0, r0, r0
    7ff4:	05f50406 	ldrbeq	r0, [r5, #1030]!	; 0x406
    7ff8:	25150000 	ldrcs	r0, [r5, #-0]
    7ffc:	2d000000 	stccs	0, cr0, [r0, #-0]
    8000:	16000006 	strne	r0, [r0], -r6
    8004:	00000471 	andeq	r0, r0, r1, ror r4
    8008:	00011a16 	andeq	r1, r1, r6, lsl sl
    800c:	04060000 	streq	r0, [r6], #-0
    8010:	00000619 	andeq	r0, r0, r9, lsl r6
    8014:	0000540b 	andeq	r5, r0, fp, lsl #8
    8018:	00064300 	andeq	r4, r6, r0, lsl #6
    801c:	00310c00 	eorseq	r0, r1, r0, lsl #24
    8020:	00020000 	andeq	r0, r2, r0
    8024:	0000540b 	andeq	r5, r0, fp, lsl #8
    8028:	00065300 	andeq	r5, r6, r0, lsl #6
    802c:	00310c00 	eorseq	r0, r1, r0, lsl #24
    8030:	00000000 	andeq	r0, r0, r0
    8034:	0003ab08 	andeq	sl, r3, r8, lsl #22
    8038:	011f0500 	tsteq	pc, r0, lsl #10
    803c:	0003101a 	andeq	r1, r3, sl, lsl r0
    8040:	04c21a00 	strbeq	r1, [r2], #2560	; 0xa00
    8044:	050c0000 	streq	r0, [ip, #-0]
    8048:	99080123 	stmdbls	r8, {r0, r1, r5, r8}
    804c:	18000006 	stmdane	r0, {r1, r2}
    8050:	000003d3 	ldrdeq	r0, [r0], -r3
    8054:	11012505 	tstne	r1, r5, lsl #10
    8058:	00000699 	muleq	r0, r9, r6
    805c:	02291800 	eoreq	r1, r9, #0, 16
    8060:	26050000 	strcs	r0, [r5], -r0
    8064:	00250701 	eoreq	r0, r5, r1, lsl #14
    8068:	18040000 	stmdane	r4, {}	; <UNPREDICTABLE>
    806c:	000003a5 	andeq	r0, r0, r5, lsr #7
    8070:	0b012705 	bleq	51c8c <__bss_end__+0x47c1c>
    8074:	0000069f 	muleq	r0, pc, r6	; <UNPREDICTABLE>
    8078:	04060008 	streq	r0, [r6], #-8
    807c:	00000660 	andeq	r0, r0, r0, ror #12
    8080:	06530406 	ldrbeq	r0, [r3], -r6, lsl #8
    8084:	2f1a0000 	svccs	0x001a0000
    8088:	0e000000 	cdpeq	0, 0, cr0, cr0, cr0, {0}
    808c:	08013f05 	stmdaeq	r1, {r0, r2, r8, r9, sl, fp, ip, sp}
    8090:	000006de 	ldrdeq	r0, [r0], -lr
    8094:	00042218 	andeq	r2, r4, r8, lsl r2
    8098:	01400500 	cmpeq	r0, r0, lsl #10
    809c:	0006de12 	andeq	sp, r6, r2, lsl lr
    80a0:	56180000 	ldrpl	r0, [r8], -r0
    80a4:	05000004 	streq	r0, [r0, #-4]
    80a8:	de120141 	muflesm	f0, f2, f1
    80ac:	06000006 	streq	r0, [r0], -r6
    80b0:	00047218 	andeq	r7, r4, r8, lsl r2
    80b4:	01420500 	cmpeq	r2, r0, lsl #10
    80b8:	00005b12 	andeq	r5, r0, r2, lsl fp
    80bc:	0b000c00 	bleq	b0c4 <__bss_end__+0x1054>
    80c0:	0000005b 	andeq	r0, r0, fp, asr r0
    80c4:	000006ee 	andeq	r0, r0, lr, ror #13
    80c8:	0000310c 	andeq	r3, r0, ip, lsl #2
    80cc:	1b000200 	blne	88d4 <ck_heap_errors+0x60>
    80d0:	028005d0 	addeq	r0, r0, #208, 10	; 0x34000000
    80d4:	00080307 	andeq	r0, r8, r7, lsl #6
    80d8:	04a61800 	strteq	r1, [r6], #2048	; 0x800
    80dc:	82050000 	andhi	r0, r5, #0
    80e0:	00311802 	eorseq	r1, r1, r2, lsl #16
    80e4:	18000000 	stmdane	r0, {}	; <UNPREDICTABLE>
    80e8:	0000045c 	andeq	r0, r0, ip, asr r4
    80ec:	12028305 	andne	r8, r2, #335544320	; 0x14000000
    80f0:	0000011c 	andeq	r0, r0, ip, lsl r1
    80f4:	02581804 	subseq	r1, r8, #4, 16	; 0x40000
    80f8:	84050000 	strhi	r0, [r5], #-0
    80fc:	08031002 	stmdaeq	r3, {r1, ip}
    8100:	18080000 	stmdane	r8, {}	; <UNPREDICTABLE>
    8104:	00000506 	andeq	r0, r0, r6, lsl #10
    8108:	17028505 	strne	r8, [r2, -r5, lsl #10]
    810c:	000001aa 	andeq	r0, r0, sl, lsr #3
    8110:	01c61824 	biceq	r1, r6, r4, lsr #16
    8114:	86050000 	strhi	r0, [r5], -r0
    8118:	00250f02 	eoreq	r0, r5, r2, lsl #30
    811c:	18480000 	stmdane	r8, {}^	; <UNPREDICTABLE>
    8120:	000003ce 	andeq	r0, r0, lr, asr #7
    8124:	2c028705 	stccs	7, cr8, [r2], {5}
    8128:	00000069 	andeq	r0, r0, r9, rrx
    812c:	051c1850 	ldreq	r1, [ip, #-2128]	; 0xfffff7b0
    8130:	88050000 	stmdahi	r5, {}	; <UNPREDICTABLE>
    8134:	06a51a02 	strteq	r1, [r5], r2, lsl #20
    8138:	18580000 	ldmdane	r8, {}^	; <UNPREDICTABLE>
    813c:	000003d9 	ldrdeq	r0, [r0], -r9
    8140:	16028905 	strne	r8, [r2], -r5, lsl #18
    8144:	00000102 	andeq	r0, r0, r2, lsl #2
    8148:	05211868 	streq	r1, [r1, #-2152]!	; 0xfffff798
    814c:	8a050000 	bhi	148154 <__bss_end__+0x13e0e4>
    8150:	01021602 	tsteq	r2, r2, lsl #12
    8154:	18700000 	ldmdane	r0!, {}^	; <UNPREDICTABLE>
    8158:	000002e1 	andeq	r0, r0, r1, ror #5
    815c:	16028b05 	strne	r8, [r2], -r5, lsl #22
    8160:	00000102 	andeq	r0, r0, r2, lsl #2
    8164:	04d11878 	ldrbeq	r1, [r1], #2168	; 0x878
    8168:	8c050000 	stchi	0, cr0, [r5], {-0}
    816c:	08131002 	ldmdaeq	r3, {r1, ip}
    8170:	18800000 	stmne	r0, {}	; <UNPREDICTABLE>
    8174:	0000024c 	andeq	r0, r0, ip, asr #4
    8178:	10028d05 	andne	r8, r2, r5, lsl #26
    817c:	00000823 	andeq	r0, r0, r3, lsr #16
    8180:	047f1888 	ldrbteq	r1, [pc], #-2184	; 8188 <check_free_write+0x64>
    8184:	8e050000 	cdphi	0, 0, cr0, cr5, cr0, {0}
    8188:	00250f02 	eoreq	r0, r5, r2, lsl #30
    818c:	18a00000 	stmiane	r0!, {}	; <UNPREDICTABLE>
    8190:	0000018c 	andeq	r0, r0, ip, lsl #3
    8194:	16028f05 	strne	r8, [r2], -r5, lsl #30
    8198:	00000102 	andeq	r0, r0, r2, lsl #2
    819c:	009d18a4 	addseq	r1, sp, r4, lsr #17
    81a0:	90050000 	andls	r0, r5, r0
    81a4:	01021602 	tsteq	r2, r2, lsl #12
    81a8:	18ac0000 	stmiane	ip!, {}	; <UNPREDICTABLE>
    81ac:	0000017b 	andeq	r0, r0, fp, ror r1
    81b0:	16029105 	strne	r9, [r2], -r5, lsl #2
    81b4:	00000102 	andeq	r0, r0, r2, lsl #2
    81b8:	004a18b4 	strheq	r1, [sl], #-132	; 0xffffff7c
    81bc:	92050000 	andls	r0, r5, #0
    81c0:	01021602 	tsteq	r2, r2, lsl #12
    81c4:	18bc0000 	ldmne	ip!, {}	; <UNPREDICTABLE>
    81c8:	00000059 	andeq	r0, r0, r9, asr r0
    81cc:	16029305 	strne	r9, [r2], -r5, lsl #6
    81d0:	00000102 	andeq	r0, r0, r2, lsl #2
    81d4:	038118c4 	orreq	r1, r1, #196, 16	; 0xc40000
    81d8:	94050000 	strls	r0, [r5], #-0
    81dc:	00250802 	eoreq	r0, r5, r2, lsl #16
    81e0:	00cc0000 	sbceq	r0, ip, r0
    81e4:	0001220b 	andeq	r2, r1, fp, lsl #4
    81e8:	00081300 	andeq	r1, r8, r0, lsl #6
    81ec:	00310c00 	eorseq	r0, r1, r0, lsl #24
    81f0:	00190000 	andseq	r0, r9, r0
    81f4:	0001220b 	andeq	r2, r1, fp, lsl #4
    81f8:	00082300 	andeq	r2, r8, r0, lsl #6
    81fc:	00310c00 	eorseq	r0, r1, r0, lsl #24
    8200:	00070000 	andeq	r0, r7, r0
    8204:	0001220b 	andeq	r2, r1, fp, lsl #4
    8208:	00083300 	andeq	r3, r8, r0, lsl #6
    820c:	00310c00 	eorseq	r0, r1, r0, lsl #24
    8210:	00170000 	andseq	r0, r7, r0
    8214:	9905f01b 	stmdbls	r5, {r0, r1, r3, r4, ip, sp, lr, pc}
    8218:	085a0702 	ldmdaeq	sl, {r1, r8, r9, sl}^
    821c:	ad180000 	ldcge	0, cr0, [r8, #-0]
    8220:	05000002 	streq	r0, [r0, #-2]
    8224:	5a1b029c 	bpl	6c8c9c <__bss_end__+0x6bec2c>
    8228:	00000008 	andeq	r0, r0, r8
    822c:	0004c818 	andeq	ip, r4, r8, lsl r8
    8230:	029d0500 	addseq	r0, sp, #0, 10
    8234:	00086a18 	andeq	r6, r8, r8, lsl sl
    8238:	0b007800 	bleq	26240 <__bss_end__+0x1c1d0>
    823c:	0000030a 	andeq	r0, r0, sl, lsl #6
    8240:	0000086a 	andeq	r0, r0, sl, ror #16
    8244:	0000310c 	andeq	r3, r0, ip, lsl #2
    8248:	0b001d00 	bleq	f650 <__bss_end__+0x55e0>
    824c:	00000031 	andeq	r0, r0, r1, lsr r0
    8250:	0000087a 	andeq	r0, r0, sl, ror r8
    8254:	0000310c 	andeq	r3, r0, ip, lsl #2
    8258:	1c001d00 	stcne	13, cr1, [r0], {-0}
    825c:	027e05f0 	rsbseq	r0, lr, #240, 10	; 0x3c000000
    8260:	00089f03 	andeq	r9, r8, r3, lsl #30
    8264:	041b1d00 	ldreq	r1, [fp], #-3328	; 0xfffff300
    8268:	95050000 	strls	r0, [r5, #-0]
    826c:	06ee0b02 	strbteq	r0, [lr], r2, lsl #22
    8270:	f31d0000 	vhadd.u16	d0, d13, d0
    8274:	05000004 	streq	r0, [r0, #-4]
    8278:	330b029e 	movwcc	r0, #45726	; 0xb29e
    827c:	00000008 	andeq	r0, r0, r8
    8280:	0001220b 	andeq	r2, r1, fp, lsl #4
    8284:	0008af00 	andeq	sl, r8, r0, lsl #30
    8288:	00310c00 	eorseq	r0, r1, r0, lsl #24
    828c:	00180000 	andseq	r0, r8, r0
    8290:	00009207 	andeq	r9, r0, r7, lsl #4
    8294:	af040600 	svcge	0x00040600
    8298:	1e000008 	cdpne	0, 0, cr0, cr0, cr8, {0}
    829c:	000008c5 	andeq	r0, r0, r5, asr #17
    82a0:	00047116 	andeq	r7, r4, r6, lsl r1
    82a4:	04060000 	streq	r0, [r6], #-0
    82a8:	000008ba 			; <UNDEFINED> instruction: 0x000008ba
    82ac:	01940406 	orrseq	r0, r4, r6, lsl #8
    82b0:	dc1e0000 	ldcle	0, cr0, [lr], {-0}
    82b4:	16000008 	strne	r0, [r0], -r8
    82b8:	00000025 	andeq	r0, r0, r5, lsr #32
    82bc:	e2040600 	and	r0, r4, #0, 12
    82c0:	06000008 	streq	r0, [r0], -r8
    82c4:	0008d104 	andeq	sp, r8, r4, lsl #2
    82c8:	06530b00 	ldrbeq	r0, [r3], -r0, lsl #22
    82cc:	08f80000 	ldmeq	r8!, {}^	; <UNPREDICTABLE>
    82d0:	310c0000 	mrscc	r0, (UNDEF: 12)
    82d4:	02000000 	andeq	r0, r0, #0
    82d8:	04931f00 	ldreq	r1, [r3], #3840	; 0xf00
    82dc:	2e050000 	cdpcs	0, 0, cr0, cr5, cr0, {0}
    82e0:	04711703 	ldrbteq	r1, [r1], #-1795	; 0xfffff8fd
    82e4:	8c1f0000 	ldchi	0, cr0, [pc], {-0}
    82e8:	05000004 	streq	r0, [r0, #-4]
    82ec:	771d032f 	ldrvc	r0, [sp, -pc, lsr #6]
    82f0:	15000004 	strne	r0, [r0, #-4]
    82f4:	00000025 	andeq	r0, r0, r5, lsr #32
    82f8:	00000921 	andeq	r0, r0, r1, lsr #18
    82fc:	00002516 	andeq	r2, r0, r6, lsl r5
    8300:	df200000 	svcle	0x00200000
    8304:	06000001 	streq	r0, [r0], -r1
    8308:	092d0e1d 	pusheq	{r0, r2, r3, r4, r9, sl, fp}
    830c:	04060000 	streq	r0, [r6], #-0
    8310:	00000912 	andeq	r0, r0, r2, lsl r9
    8314:	00002515 	andeq	r2, r0, r5, lsl r5
    8318:	00094200 	andeq	r4, r9, r0, lsl #4
    831c:	05e91600 	strbeq	r1, [r9, #1536]!	; 0x600
    8320:	20000000 	andcs	r0, r0, r0
    8324:	00000786 	andeq	r0, r0, r6, lsl #15
    8328:	4e0e2206 	cdpmi	2, 0, cr2, cr14, cr6, {0}
    832c:	06000009 	streq	r0, [r0], -r9
    8330:	00093304 	andeq	r3, r9, r4, lsl #6
    8334:	08c02100 	stmiaeq	r0, {r8, sp}^
    8338:	0d010000 	stceq	0, cr0, [r1, #-0]
    833c:	00003111 	andeq	r3, r0, r1, lsl r1
    8340:	08132200 	ldmdaeq	r3, {r9, sp}
    8344:	1f010000 	svcne	0x00010000
    8348:	00912406 	addseq	r2, r1, r6, lsl #8
    834c:	00004c00 	andeq	r4, r0, r0, lsl #24
    8350:	2c9c0100 	ldfcss	f0, [ip], {0}
    8354:	2300000a 	movwcs	r0, #10
    8358:	0000085b 	andeq	r0, r0, fp, asr r8
    835c:	2c0f2a01 			; <UNDEFINED> instruction: 0x2c0f2a01
    8360:	91000000 	mrsls	r0, (UNDEF: 0)
    8364:	8f000012 	svchi	0x00000012
    8368:	23000012 	movwcs	r0, #18
    836c:	00000882 	andeq	r0, r0, r2, lsl #17
    8370:	2c0f2b01 			; <UNDEFINED> instruction: 0x2c0f2b01
    8374:	ab000000 	blge	837c <check_mem+0x2c>
    8378:	a9000012 	stmdbge	r0, {r1, r4}
    837c:	23000012 	movwcs	r0, #18
    8380:	0000088f 	andeq	r0, r0, pc, lsl #17
    8384:	2c0f2c01 	stccs	12, cr2, [pc], {1}
    8388:	c5000000 	strgt	r0, [r0, #-0]
    838c:	c3000012 	movwgt	r0, #18
    8390:	23000012 	movwcs	r0, #18
    8394:	00000869 	andeq	r0, r0, r9, ror #16
    8398:	2c0f2d01 	stccs	13, cr2, [pc], {1}
    839c:	de000000 	cdple	0, 0, cr0, cr0, cr0, {0}
    83a0:	dc000012 	stcle	0, cr0, [r0], {18}
    83a4:	24000012 	strcs	r0, [r0], #-18	; 0xffffffee
    83a8:	0000912c 	andeq	r9, r0, ip, lsr #2
    83ac:	00000a57 	andeq	r0, r0, r7, asr sl
    83b0:	00913c25 	addseq	r3, r1, r5, lsr #24
    83b4:	000a8600 	andeq	r8, sl, r0, lsl #12
    83b8:	0009e200 	andeq	lr, r9, r0, lsl #4
    83bc:	50012600 	andpl	r2, r1, r0, lsl #12
    83c0:	25004e01 	strcs	r4, [r0, #-3585]	; 0xfffff1ff
    83c4:	00009148 	andeq	r9, r0, r8, asr #2
    83c8:	00000a92 	muleq	r0, r2, sl
    83cc:	00000a02 	andeq	r0, r0, r2, lsl #20
    83d0:	05500126 	ldrbeq	r0, [r0, #-294]	; 0xfffffeda
    83d4:	1000240c 	andne	r2, r0, ip, lsl #8
    83d8:	51012620 	tstpl	r1, r0, lsr #12
    83dc:	00010c05 	andeq	r0, r1, r5, lsl #24
    83e0:	25005a00 	strcs	r5, [r0, #-2560]	; 0xfffff600
    83e4:	00009154 	andeq	r9, r0, r4, asr r1
    83e8:	00000a92 	muleq	r0, r2, sl
    83ec:	00000a22 	andeq	r0, r0, r2, lsr #20
    83f0:	05500126 	ldrbeq	r0, [r0, #-294]	; 0xfffffeda
    83f4:	10001c0c 	andne	r1, r0, ip, lsl #24
    83f8:	51012620 	tstpl	r1, r0, lsr #12
    83fc:	00200c05 	eoreq	r0, r0, r5, lsl #24
    8400:	24005a00 	strcs	r5, [r0], #-2560	; 0xfffff600
    8404:	0000915c 	andeq	r9, r0, ip, asr r1
    8408:	00000a2c 	andeq	r0, r0, ip, lsr #20
    840c:	08ae2700 	stmiaeq	lr!, {r8, r9, sl, sp}
    8410:	17010000 	strne	r0, [r1, -r0]
    8414:	00911006 	addseq	r1, r1, r6
    8418:	00001400 	andeq	r1, r0, r0, lsl #8
    841c:	579c0100 	ldrpl	r0, [ip, r0, lsl #2]
    8420:	2300000a 	movwcs	r0, #10
    8424:	0000088a 	andeq	r0, r0, sl, lsl #17
    8428:	310e1801 	tstcc	lr, r1, lsl #16
    842c:	f9000000 			; <UNDEFINED> instruction: 0xf9000000
    8430:	f3000012 	vqadd.u8	d0, d0, d2
    8434:	00000012 	andeq	r0, r0, r2, lsl r0
    8438:	0008bd28 	andeq	fp, r8, r8, lsr #26
    843c:	050e0100 	streq	r0, [lr, #-256]	; 0xffffff00
    8440:	00000025 	andeq	r0, r0, r5, lsr #32
    8444:	000090f8 	strdeq	r9, [r0], -r8
    8448:	00000018 	andeq	r0, r0, r8, lsl r0
    844c:	0a869c01 	beq	fe1af458 <__bss_end__+0xfe1a53e8>
    8450:	8a230000 	bhi	8c8458 <__bss_end__+0x8be3e8>
    8454:	01000008 	tsteq	r0, r8
    8458:	00310e0f 	eorseq	r0, r1, pc, lsl #28
    845c:	13270000 			; <UNDEFINED> instruction: 0x13270000
    8460:	13230000 			; <UNDEFINED> instruction: 0x13230000
    8464:	29000000 	stmdbcs	r0, {}	; <UNPREDICTABLE>
    8468:	0000080a 	andeq	r0, r0, sl, lsl #16
    846c:	0000080a 	andeq	r0, r0, sl, lsl #16
    8470:	29064f06 	stmdbcs	r6, {r1, r2, r8, r9, sl, fp, lr}
    8474:	00000863 	andeq	r0, r0, r3, ror #16
    8478:	00000863 	andeq	r0, r0, r3, ror #16
    847c:	00069b06 	andeq	r9, r6, r6, lsl #22
    8480:	00000aea 	andeq	r0, r0, sl, ror #21
    8484:	1a5f0004 	bne	17c849c <__bss_end__+0x17be42c>
    8488:	01040000 	mrseq	r0, (UNDEF: 4)
    848c:	00000302 	andeq	r0, r0, r2, lsl #6
    8490:	0008f10c 	andeq	pc, r8, ip, lsl #2
    8494:	0006df00 	andeq	sp, r6, r0, lsl #30
    8498:	00917000 	addseq	r7, r1, r0
    849c:	00008c00 	andeq	r8, r0, r0, lsl #24
    84a0:	00179300 	andseq	r9, r7, r0, lsl #6
    84a4:	05040200 	streq	r0, [r4, #-512]	; 0xfffffe00
    84a8:	00746e69 	rsbseq	r6, r4, r9, ror #28
    84ac:	74070403 	strvc	r0, [r7], #-1027	; 0xfffffbfd
    84b0:	03000000 	movweq	r0, #0
    84b4:	02f10601 	rscseq	r0, r1, #1048576	; 0x100000
    84b8:	02030000 	andeq	r0, r3, #0
    84bc:	00038a05 	andeq	r8, r3, r5, lsl #20
    84c0:	05040300 	streq	r0, [r4, #-768]	; 0xfffffd00
    84c4:	000000ba 	strheq	r0, [r0], -sl
    84c8:	b5050803 	strlt	r0, [r5, #-2051]	; 0xfffff7fd
    84cc:	03000000 	movweq	r0, #0
    84d0:	02ef0801 	rsceq	r0, pc, #65536	; 0x10000
    84d4:	02030000 	andeq	r0, r3, #0
    84d8:	00023007 	andeq	r3, r2, r7
    84dc:	07040300 	streq	r0, [r4, -r0, lsl #6]
    84e0:	0000006f 	andeq	r0, r0, pc, rrx
    84e4:	6a070803 	bvs	1ca4f8 <__bss_end__+0x1c0488>
    84e8:	04000000 	streq	r0, [r0], #-0
    84ec:	00000273 	andeq	r0, r0, r3, ror r2
    84f0:	77192202 	ldrvc	r2, [r9, -r2, lsl #4]
    84f4:	05000000 	streq	r0, [r0, #-0]
    84f8:	00007d04 	andeq	r7, r0, r4, lsl #26
    84fc:	04300600 	ldrteq	r0, [r0], #-1536	; 0xfffffa00
    8500:	d0040000 	andle	r0, r4, r0
    8504:	03000002 	movweq	r0, #2
    8508:	00410e2c 	subeq	r0, r1, ip, lsr #28
    850c:	45040000 	strmi	r0, [r4, #-0]
    8510:	03000004 	movweq	r0, #4
    8514:	00410e72 	subeq	r0, r1, r2, ror lr
    8518:	7b070000 	blvc	1c8520 <__bss_end__+0x1be4b0>
    851c:	04000002 	streq	r0, [r0], #-2
    8520:	2c17015e 	ldfcss	f0, [r7], {94}	; 0x5e
    8524:	08000000 	stmdaeq	r0, {}	; <UNPREDICTABLE>
    8528:	03a60304 			; <UNDEFINED> instruction: 0x03a60304
    852c:	000000c9 	andeq	r0, r0, r9, asr #1
    8530:	00026d09 	andeq	r6, r2, r9, lsl #26
    8534:	0ca80300 	stceq	3, cr0, [r8]
    8538:	0000009a 	muleq	r0, sl, r0
    853c:	0001f009 	andeq	pc, r1, r9
    8540:	13a90300 			; <UNDEFINED> instruction: 0x13a90300
    8544:	000000c9 	andeq	r0, r0, r9, asr #1
    8548:	004f0a00 	subeq	r0, pc, r0, lsl #20
    854c:	00d90000 	sbcseq	r0, r9, r0
    8550:	2c0b0000 	stccs	0, cr0, [fp], {-0}
    8554:	03000000 	movweq	r0, #0
    8558:	03080c00 	movweq	r0, #35840	; 0x8c00
    855c:	00fd09a3 	rscseq	r0, sp, r3, lsr #19
    8560:	280d0000 	stmdacs	sp, {}	; <UNPREDICTABLE>
    8564:	03000004 	movweq	r0, #4
    8568:	002507a5 	eoreq	r0, r5, r5, lsr #15
    856c:	0d000000 	stceq	0, cr0, [r0, #-0]
    8570:	00000437 	andeq	r0, r0, r7, lsr r4
    8574:	a705aa03 	strge	sl, [r5, -r3, lsl #20]
    8578:	04000000 	streq	r0, [r0], #-0
    857c:	03b20400 			; <UNDEFINED> instruction: 0x03b20400
    8580:	ab030000 	blge	c8588 <__bss_end__+0xbe518>
    8584:	0000d903 	andeq	sp, r0, r3, lsl #18
    8588:	01ad0400 			; <UNDEFINED> instruction: 0x01ad0400
    858c:	af030000 	svcge	0x00030000
    8590:	00006b1b 	andeq	r6, r0, fp, lsl fp
    8594:	05040e00 	streq	r0, [r4, #-3584]	; 0xfffff200
    8598:	00011d04 	andeq	r1, r1, r4, lsl #26
    859c:	08010300 	stmdaeq	r1, {r8, r9}
    85a0:	000002f8 	strdeq	r0, [r0], -r8
    85a4:	00011d0f 	andeq	r1, r1, pc, lsl #26
    85a8:	04770400 	ldrbteq	r0, [r7], #-1024	; 0xfffffc00
    85ac:	16050000 	strne	r0, [r5], -r0
    85b0:	00005d19 	andeq	r5, r0, r9, lsl sp
    85b4:	01be1000 			; <UNDEFINED> instruction: 0x01be1000
    85b8:	05180000 	ldreq	r0, [r8, #-0]
    85bc:	018f082f 	orreq	r0, pc, pc, lsr #16
    85c0:	d30d0000 	movwle	r0, #53248	; 0xd000
    85c4:	05000003 	streq	r0, [r0, #-3]
    85c8:	018f1331 	orreq	r1, pc, r1, lsr r3	; <UNPREDICTABLE>
    85cc:	11000000 	mrsne	r0, (UNDEF: 0)
    85d0:	05006b5f 	streq	r6, [r0, #-2911]	; 0xfffff4a1
    85d4:	00250732 	eoreq	r0, r5, r2, lsr r7
    85d8:	0d040000 	stceq	0, cr0, [r4, #-0]
    85dc:	00000413 	andeq	r0, r0, r3, lsl r4
    85e0:	250b3205 	strcs	r3, [fp, #-517]	; 0xfffffdfb
    85e4:	08000000 	stmdaeq	r0, {}	; <UNPREDICTABLE>
    85e8:	0001a70d 	andeq	sl, r1, sp, lsl #14
    85ec:	14320500 	ldrtne	r0, [r2], #-1280	; 0xfffffb00
    85f0:	00000025 	andeq	r0, r0, r5, lsr #32
    85f4:	04b30d0c 	ldrteq	r0, [r3], #3340	; 0xd0c
    85f8:	32050000 	andcc	r0, r5, #0
    85fc:	0000251b 	andeq	r2, r0, fp, lsl r5
    8600:	5f111000 	svcpl	0x00111000
    8604:	33050078 	movwcc	r0, #20600	; 0x5078
    8608:	0001950b 	andeq	r9, r1, fp, lsl #10
    860c:	05001400 	streq	r1, [r0, #-1024]	; 0xfffffc00
    8610:	00013504 	andeq	r3, r1, r4, lsl #10
    8614:	01290a00 			; <UNDEFINED> instruction: 0x01290a00
    8618:	01a50000 			; <UNDEFINED> instruction: 0x01a50000
    861c:	2c0b0000 	stccs	0, cr0, [fp], {-0}
    8620:	00000000 	andeq	r0, r0, r0
    8624:	01eb1000 	mvneq	r1, r0
    8628:	05240000 	streq	r0, [r4, #-0]!
    862c:	02280837 	eoreq	r0, r8, #3604480	; 0x370000
    8630:	ac0d0000 	stcge	0, cr0, [sp], {-0}
    8634:	05000000 	streq	r0, [r0, #-0]
    8638:	00250939 	eoreq	r0, r5, r9, lsr r9
    863c:	0d000000 	stceq	0, cr0, [r0, #-0]
    8640:	0000044d 	andeq	r0, r0, sp, asr #8
    8644:	25093a05 	strcs	r3, [r9, #-2565]	; 0xfffff5fb
    8648:	04000000 	streq	r0, [r0], #-0
    864c:	0000cf0d 	andeq	ip, r0, sp, lsl #30
    8650:	093b0500 	ldmdbeq	fp!, {r8, sl}
    8654:	00000025 	andeq	r0, r0, r5, lsr #32
    8658:	05340d08 	ldreq	r0, [r4, #-3336]!	; 0xfffff2f8
    865c:	3c050000 	stccc	0, cr0, [r5], {-0}
    8660:	00002509 	andeq	r2, r0, r9, lsl #10
    8664:	b40d0c00 	strlt	r0, [sp], #-3072	; 0xfffff400
    8668:	05000002 	streq	r0, [r0, #-2]
    866c:	0025093d 	eoreq	r0, r5, sp, lsr r9
    8670:	0d100000 	ldceq	0, cr0, [r0, #-0]
    8674:	00000296 	muleq	r0, r6, r2
    8678:	25093e05 	strcs	r3, [r9, #-3589]	; 0xfffff1fb
    867c:	14000000 	strne	r0, [r0], #-0
    8680:	0004b80d 	andeq	fp, r4, sp, lsl #16
    8684:	093f0500 	ldmdbeq	pc!, {r8, sl}	; <UNPREDICTABLE>
    8688:	00000025 	andeq	r0, r0, r5, lsr #32
    868c:	03940d18 	orrseq	r0, r4, #24, 26	; 0x600
    8690:	40050000 	andmi	r0, r5, r0
    8694:	00002509 	andeq	r2, r0, r9, lsl #10
    8698:	fb0d1c00 	blx	34f6a2 <__bss_end__+0x345632>
    869c:	05000004 	streq	r0, [r0, #-4]
    86a0:	00250941 	eoreq	r0, r5, r1, asr #18
    86a4:	00200000 	eoreq	r0, r0, r0
    86a8:	00010f12 	andeq	r0, r1, r2, lsl pc
    86ac:	05010800 	streq	r0, [r1, #-2048]	; 0xfffff800
    86b0:	026d084a 	rsbeq	r0, sp, #4849664	; 0x4a0000
    86b4:	9a0d0000 	bls	3486bc <__bss_end__+0x33e64c>
    86b8:	05000001 	streq	r0, [r0, #-1]
    86bc:	026d0a4b 	rsbeq	r0, sp, #307200	; 0x4b000
    86c0:	0d000000 	stceq	0, cr0, [r0, #-0]
    86c4:	00000000 	andeq	r0, r0, r0
    86c8:	6d094c05 	stcvs	12, cr4, [r9, #-20]	; 0xffffffec
    86cc:	80000002 	andhi	r0, r0, r2
    86d0:	00046913 	andeq	r6, r4, r3, lsl r9
    86d4:	0a4e0500 	beq	1389adc <__bss_end__+0x137fa6c>
    86d8:	00000129 	andeq	r0, r0, r9, lsr #2
    86dc:	34130100 	ldrcc	r0, [r3], #-256	; 0xffffff00
    86e0:	05000001 	streq	r0, [r0, #-1]
    86e4:	01290a51 			; <UNDEFINED> instruction: 0x01290a51
    86e8:	01040000 	mrseq	r0, (UNDEF: 4)
    86ec:	01150a00 	tsteq	r5, r0, lsl #20
    86f0:	027d0000 	rsbseq	r0, sp, #0
    86f4:	2c0b0000 	stccs	0, cr0, [fp], {-0}
    86f8:	1f000000 	svcne	0x00000000
    86fc:	02bd1200 	adcseq	r1, sp, #0, 4
    8700:	01900000 	orrseq	r0, r0, r0
    8704:	c0085d05 	andgt	r5, r8, r5, lsl #26
    8708:	0d000002 	stceq	0, cr0, [r0, #-8]
    870c:	000003d3 	ldrdeq	r0, [r0], -r3
    8710:	c0125e05 	andsgt	r5, r2, r5, lsl #28
    8714:	00000002 	andeq	r0, r0, r2
    8718:	0003eb0d 	andeq	lr, r3, sp, lsl #22
    871c:	065f0500 	ldrbeq	r0, [pc], -r0, lsl #10
    8720:	00000025 	andeq	r0, r0, r5, lsr #32
    8724:	01a20d04 			; <UNDEFINED> instruction: 0x01a20d04
    8728:	61050000 	mrsvs	r0, (UNDEF: 5)
    872c:	0002c609 	andeq	ip, r2, r9, lsl #12
    8730:	0f0d0800 	svceq	0x000d0800
    8734:	05000001 	streq	r0, [r0, #-1]
    8738:	02281e62 	eoreq	r1, r8, #1568	; 0x620
    873c:	00880000 	addeq	r0, r8, r0
    8740:	027d0405 	rsbseq	r0, sp, #83886080	; 0x5000000
    8744:	d60a0000 	strle	r0, [sl], -r0
    8748:	d6000002 	strle	r0, [r0], -r2
    874c:	0b000002 	bleq	875c <ckalloc+0x180>
    8750:	0000002c 	andeq	r0, r0, ip, lsr #32
    8754:	0405001f 	streq	r0, [r5], #-31	; 0xffffffe1
    8758:	000002dc 	ldrdeq	r0, [r0], -ip
    875c:	039e1014 	orrseq	r1, lr, #20
    8760:	05080000 	streq	r0, [r8, #-0]
    8764:	03050875 	movweq	r0, #22645	; 0x5875
    8768:	c90d0000 	stmdbgt	sp, {}	; <UNPREDICTABLE>
    876c:	05000000 	streq	r0, [r0, #-0]
    8770:	03051176 	movweq	r1, #20854	; 0x5176
    8774:	0d000000 	stceq	0, cr0, [r0, #-0]
    8778:	0000001b 	andeq	r0, r0, fp, lsl r0
    877c:	25067705 	strcs	r7, [r6, #-1797]	; 0xfffff8fb
    8780:	04000000 	streq	r0, [r0], #-0
    8784:	4f040500 	svcmi	0x00040500
    8788:	10000000 	andne	r0, r0, r0
    878c:	000003bd 			; <UNDEFINED> instruction: 0x000003bd
    8790:	08b50568 	ldmeq	r5!, {r3, r5, r6, r8, sl}
    8794:	0000044e 	andeq	r0, r0, lr, asr #8
    8798:	00705f11 	rsbseq	r5, r0, r1, lsl pc
    879c:	0512b605 	ldreq	fp, [r2, #-1541]	; 0xfffff9fb
    87a0:	00000003 	andeq	r0, r0, r3
    87a4:	00725f11 	rsbseq	r5, r2, r1, lsl pc
    87a8:	2507b705 	strcs	fp, [r7, #-1797]	; 0xfffff8fb
    87ac:	04000000 	streq	r0, [r0], #-0
    87b0:	00775f11 	rsbseq	r5, r7, r1, lsl pc
    87b4:	2507b805 	strcs	fp, [r7, #-2053]	; 0xfffff7fb
    87b8:	08000000 	stmdaeq	r0, {}	; <UNPREDICTABLE>
    87bc:	00012d0d 	andeq	r2, r1, sp, lsl #26
    87c0:	09b90500 	ldmibeq	r9!, {r8, sl}
    87c4:	0000003a 	andeq	r0, r0, sl, lsr r0
    87c8:	02160d0c 	andseq	r0, r6, #12, 26	; 0x300
    87cc:	ba050000 	blt	1487d4 <__bss_end__+0x13e764>
    87d0:	00003a09 	andeq	r3, r0, r9, lsl #20
    87d4:	5f110e00 	svcpl	0x00110e00
    87d8:	05006662 	streq	r6, [r0, #-1634]	; 0xfffff99e
    87dc:	02dd11bb 	sbcseq	r1, sp, #-1073741778	; 0xc000002e
    87e0:	0d100000 	ldceq	0, cr0, [r0, #-0]
    87e4:	00000089 	andeq	r0, r0, r9, lsl #1
    87e8:	2507bc05 	strcs	fp, [r7, #-3077]	; 0xfffff3fb
    87ec:	18000000 	stmdane	r0, {}	; <UNPREDICTABLE>
    87f0:	00011d0d 	andeq	r1, r1, sp, lsl #26
    87f4:	0ac30500 	beq	ff0c9bfc <__bss_end__+0xff0bfb8c>
    87f8:	00000115 	andeq	r0, r0, r5, lsl r1
    87fc:	0b420d1c 	bleq	108bc74 <__bss_end__+0x1081c04>
    8800:	c5050000 	strgt	r0, [r5, #-0]
    8804:	0005c01d 	andeq	ip, r5, sp, lsl r0
    8808:	370d2000 	strcc	r2, [sp, -r0]
    880c:	05000006 	streq	r0, [r0, #-6]
    8810:	05ea1dc7 	strbeq	r1, [sl, #3527]!	; 0xdc7
    8814:	0d240000 	stceq	0, cr0, [r4, #-0]
    8818:	0000043f 	andeq	r0, r0, pc, lsr r4
    881c:	0e0dca05 	vmlaeq.f32	s24, s26, s10
    8820:	28000006 	stmdacs	r0, {r1, r2}
    8824:	0005150d 	andeq	r1, r5, sp, lsl #10
    8828:	09cb0500 	stmibeq	fp, {r8, sl}^
    882c:	00000628 	andeq	r0, r0, r8, lsr #12
    8830:	755f112c 	ldrbvc	r1, [pc, #-300]	; 870c <ckalloc+0x130>
    8834:	ce050062 	cdpgt	0, 0, cr0, cr5, cr2, {3}
    8838:	0002dd11 	andeq	sp, r2, r1, lsl sp
    883c:	5f113000 	svcpl	0x00113000
    8840:	05007075 	streq	r7, [r0, #-117]	; 0xffffff8b
    8844:	030512cf 	movweq	r1, #21199	; 0x52cf
    8848:	11380000 	teqne	r8, r0
    884c:	0072755f 	rsbseq	r7, r2, pc, asr r5
    8850:	2507d005 	strcs	sp, [r7, #-5]
    8854:	3c000000 	stccc	0, cr0, [r0], {-0}
    8858:	0000c30d 	andeq	ip, r0, sp, lsl #6
    885c:	11d30500 	bicsne	r0, r3, r0, lsl #10
    8860:	0000062e 	andeq	r0, r0, lr, lsr #12
    8864:	04ed0d40 	strbteq	r0, [sp], #3392	; 0xd40
    8868:	d4050000 	strle	r0, [r5], #-0
    886c:	00063e11 	andeq	r3, r6, r1, lsl lr
    8870:	5f114300 	svcpl	0x00114300
    8874:	0500626c 	streq	r6, [r0, #-620]	; 0xfffffd94
    8878:	02dd11d7 	sbcseq	r1, sp, #-1073741771	; 0xc0000035
    887c:	0d440000 	stcleq	0, cr0, [r4, #-0]
    8880:	0000014b 	andeq	r0, r0, fp, asr #2
    8884:	2507da05 	strcs	sp, [r7, #-2565]	; 0xfffff5fb
    8888:	4c000000 	stcmi	0, cr0, [r0], {-0}
    888c:	00015c0d 	andeq	r5, r1, sp, lsl #24
    8890:	0adb0500 	beq	ff6c9c98 <__bss_end__+0xff6bfc28>
    8894:	00000082 	andeq	r0, r0, r2, lsl #1
    8898:	0ae30d50 	beq	ff8cbde0 <__bss_end__+0xff8c1d70>
    889c:	de050000 	cdple	0, 0, cr0, cr5, cr0, {0}
    88a0:	00046c12 	andeq	r6, r4, r2, lsl ip
    88a4:	310d5400 	tstcc	sp, r0, lsl #8
    88a8:	05000004 	streq	r0, [r0, #-4]
    88ac:	01090ce2 	smlatteq	r9, r2, ip, r0
    88b0:	0d580000 	ldcleq	0, cr0, [r8, #-0]
    88b4:	000003c5 	andeq	r0, r0, r5, asr #7
    88b8:	fd0ee405 	stc2	4, cr14, [lr, #-20]	; 0xffffffec
    88bc:	5c000000 	stcpl	0, cr0, [r0], {-0}
    88c0:	00028e0d 	andeq	r8, r2, sp, lsl #28
    88c4:	09e50500 	stmibeq	r5!, {r8, sl}^
    88c8:	00000025 	andeq	r0, r0, r5, lsr #32
    88cc:	25150064 	ldrcs	r0, [r5, #-100]	; 0xffffff9c
    88d0:	6c000000 	stcvs	0, cr0, [r0], {-0}
    88d4:	16000004 	strne	r0, [r0], -r4
    88d8:	0000046c 	andeq	r0, r0, ip, ror #8
    88dc:	00011516 	andeq	r1, r1, r6, lsl r5
    88e0:	01171600 	tsteq	r7, r0, lsl #12
    88e4:	25160000 	ldrcs	r0, [r6, #-0]
    88e8:	00000000 	andeq	r0, r0, r0
    88ec:	04770405 	ldrbteq	r0, [r7], #-1029	; 0xfffffbfb
    88f0:	6c0f0000 	stcvs	0, cr0, [pc], {-0}
    88f4:	17000004 	strne	r0, [r0, -r4]
    88f8:	0000041b 	andeq	r0, r0, fp, lsl r4
    88fc:	60050428 	andvs	r0, r5, r8, lsr #8
    8900:	05c00802 	strbeq	r0, [r0, #2050]	; 0x802
    8904:	83180000 	tsthi	r8, #0
    8908:	05000003 	streq	r0, [r0, #-3]
    890c:	25070262 	strcs	r0, [r7, #-610]	; 0xfffffd9e
    8910:	00000000 	andeq	r0, r0, r0
    8914:	00013c18 	andeq	r3, r1, r8, lsl ip
    8918:	02670500 	rsbeq	r0, r7, #0, 10
    891c:	00069a0b 	andeq	r9, r6, fp, lsl #20
    8920:	06180400 	ldreq	r0, [r8], -r0, lsl #8
    8924:	05000002 	streq	r0, [r0, #-2]
    8928:	9a140267 	bls	5092cc <__bss_end__+0x4ff25c>
    892c:	08000006 	stmdaeq	r0, {r1, r2}
    8930:	0001b618 	andeq	fp, r1, r8, lsl r6
    8934:	02670500 	rsbeq	r0, r7, #0, 10
    8938:	00069a1e 	andeq	r9, r6, lr, lsl sl
    893c:	e6180c00 	ldr	r0, [r8], -r0, lsl #24
    8940:	05000003 	streq	r0, [r0, #-3]
    8944:	25080269 	strcs	r0, [r8, #-617]	; 0xfffffd97
    8948:	10000000 	andne	r0, r0, r0
    894c:	00003718 	andeq	r3, r0, r8, lsl r7
    8950:	026a0500 	rsbeq	r0, sl, #0, 10
    8954:	00089a08 	andeq	r9, r8, r8, lsl #20
    8958:	fa181400 	blx	60d960 <__bss_end__+0x6038f0>
    895c:	05000003 	streq	r0, [r0, #-3]
    8960:	2507026d 	strcs	r0, [r7, #-621]	; 0xfffffd93
    8964:	30000000 	andcc	r0, r0, r0
    8968:	000a1f18 	andeq	r1, sl, r8, lsl pc
    896c:	026e0500 	rsbeq	r0, lr, #0, 10
    8970:	0008af16 	andeq	sl, r8, r6, lsl pc
    8974:	c5183400 	ldrgt	r3, [r8, #-1024]	; 0xfffffc00
    8978:	05000002 	streq	r0, [r0, #-2]
    897c:	25070270 	strcs	r0, [r7, #-624]	; 0xfffffd90
    8980:	38000000 	stmdacc	r0, {}	; <UNPREDICTABLE>
    8984:	0003f018 	andeq	pc, r3, r8, lsl r0	; <UNPREDICTABLE>
    8988:	02720500 	rsbseq	r0, r2, #0, 10
    898c:	0008c00a 	andeq	ip, r8, sl
    8990:	65183c00 	ldrvs	r3, [r8, #-3072]	; 0xfffff400
    8994:	05000002 	streq	r0, [r0, #-2]
    8998:	8f130275 	svchi	0x00130275
    899c:	40000001 	andmi	r0, r0, r1
    89a0:	0001d518 	andeq	sp, r1, r8, lsl r5
    89a4:	02760500 	rsbseq	r0, r6, #0, 10
    89a8:	00002507 	andeq	r2, r0, r7, lsl #10
    89ac:	2f184400 	svccs	0x00184400
    89b0:	05000005 	streq	r0, [r0, #-5]
    89b4:	8f130277 	svchi	0x00130277
    89b8:	48000001 	stmdami	r0, {r0}
    89bc:	0002d718 	andeq	sp, r2, r8, lsl r7
    89c0:	02780500 	rsbseq	r0, r8, #0, 10
    89c4:	0008c614 	andeq	ip, r8, r4, lsl r6
    89c8:	0e184c00 	cdpeq	12, 1, cr4, cr8, cr0, {0}
    89cc:	05000002 	streq	r0, [r0, #-2]
    89d0:	2507027b 	strcs	r0, [r7, #-635]	; 0xfffffd85
    89d4:	50000000 	andpl	r0, r0, r0
    89d8:	00015418 	andeq	r5, r1, r8, lsl r4
    89dc:	027c0500 	rsbseq	r0, ip, #0, 10
    89e0:	00011709 	andeq	r1, r1, r9, lsl #14
    89e4:	fd185400 	ldc2	4, cr5, [r8, #-0]
    89e8:	05000002 	streq	r0, [r0, #-2]
    89ec:	7507029f 	strvc	r0, [r7, #-671]	; 0xfffffd61
    89f0:	58000008 	stmdapl	r0, {r3}
    89f4:	0002bd19 	andeq	fp, r2, r9, lsl sp
    89f8:	02a30500 	adceq	r0, r3, #0, 10
    89fc:	0002c013 	andeq	ip, r2, r3, lsl r0
    8a00:	19014800 	stmdbne	r1, {fp, lr}
    8a04:	00000243 	andeq	r0, r0, r3, asr #4
    8a08:	1202a405 	andne	sl, r2, #83886080	; 0x5000000
    8a0c:	0000027d 	andeq	r0, r0, sp, ror r2
    8a10:	db19014c 	blle	648f48 <__bss_end__+0x63eed8>
    8a14:	05000004 	streq	r0, [r0, #-4]
    8a18:	d70c02a8 	strle	r0, [ip, -r8, lsr #5]
    8a1c:	dc000008 	stcle	0, cr0, [r0], {8}
    8a20:	01251902 			; <UNDEFINED> instruction: 0x01251902
    8a24:	ad050000 	stcge	0, cr0, [r5, #-0]
    8a28:	065b1002 	ldrbeq	r1, [fp], -r2
    8a2c:	02e00000 	rsceq	r0, r0, #0
    8a30:	00010a19 	andeq	r0, r1, r9, lsl sl
    8a34:	02af0500 	adceq	r0, pc, #0, 10
    8a38:	0008e30a 	andeq	lr, r8, sl, lsl #6
    8a3c:	0002ec00 	andeq	lr, r2, r0, lsl #24
    8a40:	044e0405 	strbeq	r0, [lr], #-1029	; 0xfffffbfb
    8a44:	25150000 	ldrcs	r0, [r5, #-0]
    8a48:	e4000000 	str	r0, [r0], #-0
    8a4c:	16000005 	strne	r0, [r0], -r5
    8a50:	0000046c 	andeq	r0, r0, ip, ror #8
    8a54:	00011516 	andeq	r1, r1, r6, lsl r5
    8a58:	05e41600 	strbeq	r1, [r4, #1536]!	; 0x600
    8a5c:	25160000 	ldrcs	r0, [r6, #-0]
    8a60:	00000000 	andeq	r0, r0, r0
    8a64:	01240405 			; <UNDEFINED> instruction: 0x01240405
    8a68:	04050000 	streq	r0, [r5], #-0
    8a6c:	000005c6 	andeq	r0, r0, r6, asr #11
    8a70:	00008e15 	andeq	r8, r0, r5, lsl lr
    8a74:	00060e00 	andeq	r0, r6, r0, lsl #28
    8a78:	046c1600 	strbteq	r1, [ip], #-1536	; 0xfffffa00
    8a7c:	15160000 	ldrne	r0, [r6, #-0]
    8a80:	16000001 	strne	r0, [r0], -r1
    8a84:	0000008e 	andeq	r0, r0, lr, lsl #1
    8a88:	00002516 	andeq	r2, r0, r6, lsl r5
    8a8c:	04050000 	streq	r0, [r5], #-0
    8a90:	000005f0 	strdeq	r0, [r0], -r0	; <UNPREDICTABLE>
    8a94:	00002515 	andeq	r2, r0, r5, lsl r5
    8a98:	00062800 	andeq	r2, r6, r0, lsl #16
    8a9c:	046c1600 	strbteq	r1, [ip], #-1536	; 0xfffffa00
    8aa0:	15160000 	ldrne	r0, [r6, #-0]
    8aa4:	00000001 	andeq	r0, r0, r1
    8aa8:	06140405 	ldreq	r0, [r4], -r5, lsl #8
    8aac:	4f0a0000 	svcmi	0x000a0000
    8ab0:	3e000000 	cdpcc	0, 0, cr0, cr0, cr0, {0}
    8ab4:	0b000006 	bleq	8ad4 <printk+0x18>
    8ab8:	0000002c 	andeq	r0, r0, ip, lsr #32
    8abc:	4f0a0002 	svcmi	0x000a0002
    8ac0:	4e000000 	cdpmi	0, 0, cr0, cr0, cr0, {0}
    8ac4:	0b000006 	bleq	8ae4 <printk+0x28>
    8ac8:	0000002c 	andeq	r0, r0, ip, lsr #32
    8acc:	ab070000 	blge	1c8ad4 <__bss_end__+0x1bea64>
    8ad0:	05000003 	streq	r0, [r0, #-3]
    8ad4:	0b1a011f 	bleq	688f58 <__bss_end__+0x67eee8>
    8ad8:	1a000003 	bne	8aec <printk+0x30>
    8adc:	000004c2 	andeq	r0, r0, r2, asr #9
    8ae0:	0123050c 			; <UNDEFINED> instruction: 0x0123050c
    8ae4:	00069408 	andeq	r9, r6, r8, lsl #8
    8ae8:	03d31800 	bicseq	r1, r3, #0, 16
    8aec:	25050000 	strcs	r0, [r5, #-0]
    8af0:	06941101 	ldreq	r1, [r4], r1, lsl #2
    8af4:	18000000 	stmdane	r0, {}	; <UNPREDICTABLE>
    8af8:	00000229 	andeq	r0, r0, r9, lsr #4
    8afc:	07012605 	streq	r2, [r1, -r5, lsl #12]
    8b00:	00000025 	andeq	r0, r0, r5, lsr #32
    8b04:	03a51804 			; <UNDEFINED> instruction: 0x03a51804
    8b08:	27050000 	strcs	r0, [r5, -r0]
    8b0c:	069a0b01 	ldreq	r0, [sl], r1, lsl #22
    8b10:	00080000 	andeq	r0, r8, r0
    8b14:	065b0405 	ldrbeq	r0, [fp], -r5, lsl #8
    8b18:	04050000 	streq	r0, [r5], #-0
    8b1c:	0000064e 	andeq	r0, r0, lr, asr #12
    8b20:	00002f1a 	andeq	r2, r0, sl, lsl pc
    8b24:	3f050e00 	svccc	0x00050e00
    8b28:	06d90801 	ldrbeq	r0, [r9], r1, lsl #16
    8b2c:	22180000 	andscs	r0, r8, #0
    8b30:	05000004 	streq	r0, [r0, #-4]
    8b34:	d9120140 	ldmdble	r2, {r6, r8}
    8b38:	00000006 	andeq	r0, r0, r6
    8b3c:	00045618 	andeq	r5, r4, r8, lsl r6
    8b40:	01410500 	cmpeq	r1, r0, lsl #10
    8b44:	0006d912 	andeq	sp, r6, r2, lsl r9
    8b48:	72180600 	andsvc	r0, r8, #0, 12
    8b4c:	05000004 	streq	r0, [r0, #-4]
    8b50:	56120142 	ldrpl	r0, [r2], -r2, asr #2
    8b54:	0c000000 	stceq	0, cr0, [r0], {-0}
    8b58:	00560a00 	subseq	r0, r6, r0, lsl #20
    8b5c:	06e90000 	strbteq	r0, [r9], r0
    8b60:	2c0b0000 	stccs	0, cr0, [fp], {-0}
    8b64:	02000000 	andeq	r0, r0, #0
    8b68:	05d01b00 	ldrbeq	r1, [r0, #2816]	; 0xb00
    8b6c:	fe070280 	cdp2	2, 0, cr0, cr7, cr0, {4}
    8b70:	18000007 	stmdane	r0, {r0, r1, r2}
    8b74:	000004a6 	andeq	r0, r0, r6, lsr #9
    8b78:	18028205 	stmdane	r2, {r0, r2, r9, pc}
    8b7c:	0000002c 	andeq	r0, r0, ip, lsr #32
    8b80:	045c1800 	ldrbeq	r1, [ip], #-2048	; 0xfffff800
    8b84:	83050000 	movwhi	r0, #20480	; 0x5000
    8b88:	01171202 	tsteq	r7, r2, lsl #4
    8b8c:	18040000 	stmdane	r4, {}	; <UNPREDICTABLE>
    8b90:	00000258 	andeq	r0, r0, r8, asr r2
    8b94:	10028405 	andne	r8, r2, r5, lsl #8
    8b98:	000007fe 	strdeq	r0, [r0], -lr
    8b9c:	05061808 	streq	r1, [r6, #-2056]	; 0xfffff7f8
    8ba0:	85050000 	strhi	r0, [r5, #-0]
    8ba4:	01a51702 			; <UNDEFINED> instruction: 0x01a51702
    8ba8:	18240000 	stmdane	r4!, {}	; <UNPREDICTABLE>
    8bac:	000001c6 	andeq	r0, r0, r6, asr #3
    8bb0:	0f028605 	svceq	0x00028605
    8bb4:	00000025 	andeq	r0, r0, r5, lsr #32
    8bb8:	03ce1848 	biceq	r1, lr, #72, 16	; 0x480000
    8bbc:	87050000 	strhi	r0, [r5, -r0]
    8bc0:	00642c02 	rsbeq	r2, r4, r2, lsl #24
    8bc4:	18500000 	ldmdane	r0, {}^	; <UNPREDICTABLE>
    8bc8:	0000051c 	andeq	r0, r0, ip, lsl r5
    8bcc:	1a028805 	bne	aabe8 <__bss_end__+0xa0b78>
    8bd0:	000006a0 	andeq	r0, r0, r0, lsr #13
    8bd4:	03d91858 	bicseq	r1, r9, #88, 16	; 0x580000
    8bd8:	89050000 	stmdbhi	r5, {}	; <UNPREDICTABLE>
    8bdc:	00fd1602 	rscseq	r1, sp, r2, lsl #12
    8be0:	18680000 	stmdane	r8!, {}^	; <UNPREDICTABLE>
    8be4:	00000521 	andeq	r0, r0, r1, lsr #10
    8be8:	16028a05 	strne	r8, [r2], -r5, lsl #20
    8bec:	000000fd 	strdeq	r0, [r0], -sp
    8bf0:	02e11870 	rsceq	r1, r1, #112, 16	; 0x700000
    8bf4:	8b050000 	blhi	148bfc <__bss_end__+0x13eb8c>
    8bf8:	00fd1602 	rscseq	r1, sp, r2, lsl #12
    8bfc:	18780000 	ldmdane	r8!, {}^	; <UNPREDICTABLE>
    8c00:	000004d1 	ldrdeq	r0, [r0], -r1
    8c04:	10028c05 	andne	r8, r2, r5, lsl #24
    8c08:	0000080e 	andeq	r0, r0, lr, lsl #16
    8c0c:	024c1880 	subeq	r1, ip, #128, 16	; 0x800000
    8c10:	8d050000 	stchi	0, cr0, [r5, #-0]
    8c14:	081e1002 	ldmdaeq	lr, {r1, ip}
    8c18:	18880000 	stmne	r8, {}	; <UNPREDICTABLE>
    8c1c:	0000047f 	andeq	r0, r0, pc, ror r4
    8c20:	0f028e05 	svceq	0x00028e05
    8c24:	00000025 	andeq	r0, r0, r5, lsr #32
    8c28:	018c18a0 	orreq	r1, ip, r0, lsr #17
    8c2c:	8f050000 	svchi	0x00050000
    8c30:	00fd1602 	rscseq	r1, sp, r2, lsl #12
    8c34:	18a40000 	stmiane	r4!, {}	; <UNPREDICTABLE>
    8c38:	0000009d 	muleq	r0, sp, r0
    8c3c:	16029005 	strne	r9, [r2], -r5
    8c40:	000000fd 	strdeq	r0, [r0], -sp
    8c44:	017b18ac 	cmneq	fp, ip, lsr #17
    8c48:	91050000 	mrsls	r0, (UNDEF: 5)
    8c4c:	00fd1602 	rscseq	r1, sp, r2, lsl #12
    8c50:	18b40000 	ldmne	r4!, {}	; <UNPREDICTABLE>
    8c54:	0000004a 	andeq	r0, r0, sl, asr #32
    8c58:	16029205 	strne	r9, [r2], -r5, lsl #4
    8c5c:	000000fd 	strdeq	r0, [r0], -sp
    8c60:	005918bc 	ldrheq	r1, [r9], #-140	; 0xffffff74
    8c64:	93050000 	movwls	r0, #20480	; 0x5000
    8c68:	00fd1602 	rscseq	r1, sp, r2, lsl #12
    8c6c:	18c40000 	stmiane	r4, {}^	; <UNPREDICTABLE>
    8c70:	00000381 	andeq	r0, r0, r1, lsl #7
    8c74:	08029405 	stmdaeq	r2, {r0, r2, sl, ip, pc}
    8c78:	00000025 	andeq	r0, r0, r5, lsr #32
    8c7c:	1d0a00cc 	stcne	0, cr0, [sl, #-816]	; 0xfffffcd0
    8c80:	0e000001 	cdpeq	0, 0, cr0, cr0, cr1, {0}
    8c84:	0b000008 	bleq	8cac <emit+0xb8>
    8c88:	0000002c 	andeq	r0, r0, ip, lsr #32
    8c8c:	1d0a0019 	stcne	0, cr0, [sl, #-100]	; 0xffffff9c
    8c90:	1e000001 	cdpne	0, 0, cr0, cr0, cr1, {0}
    8c94:	0b000008 	bleq	8cbc <emit+0xc8>
    8c98:	0000002c 	andeq	r0, r0, ip, lsr #32
    8c9c:	1d0a0007 	stcne	0, cr0, [sl, #-28]	; 0xffffffe4
    8ca0:	2e000001 	cdpcs	0, 0, cr0, cr0, cr1, {0}
    8ca4:	0b000008 	bleq	8ccc <emit+0xd8>
    8ca8:	0000002c 	andeq	r0, r0, ip, lsr #32
    8cac:	f01b0017 			; <UNDEFINED> instruction: 0xf01b0017
    8cb0:	07029905 	streq	r9, [r2, -r5, lsl #18]
    8cb4:	00000855 	andeq	r0, r0, r5, asr r8
    8cb8:	0002ad18 	andeq	sl, r2, r8, lsl sp
    8cbc:	029c0500 	addseq	r0, ip, #0, 10
    8cc0:	0008551b 	andeq	r5, r8, fp, lsl r5
    8cc4:	c8180000 	ldmdagt	r8, {}	; <UNPREDICTABLE>
    8cc8:	05000004 	streq	r0, [r0, #-4]
    8ccc:	6518029d 	ldrvs	r0, [r8, #-669]	; 0xfffffd63
    8cd0:	78000008 	stmdavc	r0, {r3}
    8cd4:	03050a00 	movweq	r0, #23040	; 0x5a00
    8cd8:	08650000 	stmdaeq	r5!, {}^	; <UNPREDICTABLE>
    8cdc:	2c0b0000 	stccs	0, cr0, [fp], {-0}
    8ce0:	1d000000 	stcne	0, cr0, [r0, #-0]
    8ce4:	002c0a00 	eoreq	r0, ip, r0, lsl #20
    8ce8:	08750000 	ldmdaeq	r5!, {}^	; <UNPREDICTABLE>
    8cec:	2c0b0000 	stccs	0, cr0, [fp], {-0}
    8cf0:	1d000000 	stcne	0, cr0, [r0, #-0]
    8cf4:	05f01c00 	ldrbeq	r1, [r0, #3072]!	; 0xc00
    8cf8:	9a03027e 	bls	c96f8 <__bss_end__+0xbf688>
    8cfc:	1d000008 	stcne	0, cr0, [r0, #-32]	; 0xffffffe0
    8d00:	0000041b 	andeq	r0, r0, fp, lsl r4
    8d04:	0b029505 	bleq	ae120 <__bss_end__+0xa40b0>
    8d08:	000006e9 	andeq	r0, r0, r9, ror #13
    8d0c:	0004f31d 	andeq	pc, r4, sp, lsl r3	; <UNPREDICTABLE>
    8d10:	029e0500 	addseq	r0, lr, #0, 10
    8d14:	00082e0b 	andeq	r2, r8, fp, lsl #28
    8d18:	1d0a0000 	stcne	0, cr0, [sl, #-0]
    8d1c:	aa000001 	bge	8d28 <emit+0x134>
    8d20:	0b000008 	bleq	8d48 <emit+0x154>
    8d24:	0000002c 	andeq	r0, r0, ip, lsr #32
    8d28:	92060018 	andls	r0, r6, #24
    8d2c:	05000000 	streq	r0, [r0, #-0]
    8d30:	0008aa04 	andeq	sl, r8, r4, lsl #20
    8d34:	08c01e00 	stmiaeq	r0, {r9, sl, fp, ip}^
    8d38:	6c160000 	ldcvs	0, cr0, [r6], {-0}
    8d3c:	00000004 	andeq	r0, r0, r4
    8d40:	08b50405 	ldmeq	r5!, {r0, r2, sl}
    8d44:	04050000 	streq	r0, [r5], #-0
    8d48:	0000018f 	andeq	r0, r0, pc, lsl #3
    8d4c:	0008d71e 	andeq	sp, r8, lr, lsl r7
    8d50:	00251600 	eoreq	r1, r5, r0, lsl #12
    8d54:	05000000 	streq	r0, [r0, #-0]
    8d58:	0008dd04 	andeq	sp, r8, r4, lsl #26
    8d5c:	cc040500 	cfstr32gt	mvfx0, [r4], {-0}
    8d60:	0a000008 	beq	8d88 <emit+0x194>
    8d64:	0000064e 	andeq	r0, r0, lr, asr #12
    8d68:	000008f3 	strdeq	r0, [r0], -r3
    8d6c:	00002c0b 	andeq	r2, r0, fp, lsl #24
    8d70:	1f000200 	svcne	0x00000200
    8d74:	00000493 	muleq	r0, r3, r4
    8d78:	17032e05 	strne	r2, [r3, -r5, lsl #28]
    8d7c:	0000046c 	andeq	r0, r0, ip, ror #8
    8d80:	00048c1f 	andeq	r8, r4, pc, lsl ip
    8d84:	032f0500 			; <UNDEFINED> instruction: 0x032f0500
    8d88:	0004721d 	andeq	r7, r4, sp, lsl r2
    8d8c:	00251500 	eoreq	r1, r5, r0, lsl #10
    8d90:	091c0000 	ldmdbeq	ip, {}	; <UNPREDICTABLE>
    8d94:	25160000 	ldrcs	r0, [r6, #-0]
    8d98:	00000000 	andeq	r0, r0, r0
    8d9c:	0001df20 	andeq	sp, r1, r0, lsr #30
    8da0:	0e1d0600 	cfmsub32eq	mvax0, mvfx0, mvfx13, mvfx0
    8da4:	00000928 	andeq	r0, r0, r8, lsr #18
    8da8:	090d0405 	stmdbeq	sp, {r0, r2, sl}
    8dac:	25150000 	ldrcs	r0, [r5, #-0]
    8db0:	3d000000 	stccc	0, cr0, [r0, #-0]
    8db4:	16000009 	strne	r0, [r0], -r9
    8db8:	000005e4 	andeq	r0, r0, r4, ror #11
    8dbc:	07862000 	streq	r2, [r6, r0]
    8dc0:	22060000 	andcs	r0, r6, #0
    8dc4:	0009490e 	andeq	r4, r9, lr, lsl #18
    8dc8:	2e040500 	cfsh32cs	mvfx0, mvfx4, #0
    8dcc:	21000009 	tstcs	r0, r9
    8dd0:	000008da 	ldrdeq	r0, [r0], -sl
    8dd4:	e4062b01 	str	r2, [r6], #-2817	; 0xfffff4ff
    8dd8:	18000091 	stmdane	r0, {r0, r4, r7}
    8ddc:	01000000 	mrseq	r0, (UNDEF: 0)
    8de0:	0009999c 	muleq	r9, ip, r9
    8de4:	65732200 	ldrbvs	r2, [r3, #-512]!	; 0xfffffe00
    8de8:	2b010063 	blcs	48f7c <__bss_end__+0x3ef0c>
    8dec:	00002c19 	andeq	r2, r0, r9, lsl ip
    8df0:	00134a00 	andseq	r4, r3, r0, lsl #20
    8df4:	00134600 	andseq	r4, r3, r0, lsl #12
    8df8:	91f82300 	mvnsls	r2, r0, lsl #6
    8dfc:	09990000 	ldmibeq	r9, {}	; <UNPREDICTABLE>
    8e00:	01240000 			; <UNDEFINED> instruction: 0x01240000
    8e04:	01f31150 	mvnseq	r1, r0, asr r1
    8e08:	f3243550 	vqrshl.u32	<illegal reg q1.5>, q0, q2
    8e0c:	321c5001 	andscc	r5, ip, #1
    8e10:	5001f324 	andpl	pc, r1, r4, lsr #6
    8e14:	00243322 	eoreq	r3, r4, r2, lsr #6
    8e18:	080a2100 	stmdaeq	sl, {r8, sp}
    8e1c:	28010000 	stmdacs	r1, {}	; <UNPREDICTABLE>
    8e20:	0091cc06 	addseq	ip, r1, r6, lsl #24
    8e24:	00001800 	andeq	r1, r0, r0, lsl #16
    8e28:	e29c0100 	adds	r0, ip, #0, 2
    8e2c:	22000009 	andcs	r0, r0, #9
    8e30:	0100736d 	tsteq	r0, sp, ror #6
    8e34:	002c1828 	eoreq	r1, ip, r8, lsr #16
    8e38:	136f0000 	cmnne	pc, #0
    8e3c:	136b0000 	cmnne	fp, #0
    8e40:	e0230000 	eor	r0, r3, r0
    8e44:	e2000091 	and	r0, r0, #145	; 0x91
    8e48:	24000009 	strcs	r0, [r0], #-9
    8e4c:	f3115001 	vhadd.u16	d5, d1, d1
    8e50:	24355001 	ldrtcs	r5, [r5], #-1
    8e54:	1c5001f3 	ldfnee	f0, [r0], {243}	; 0xf3
    8e58:	01f32432 	mvnseq	r2, r2, lsr r4
    8e5c:	24332250 	ldrtcs	r2, [r3], #-592	; 0xfffffdb0
    8e60:	22210000 	eorcs	r0, r1, #0
    8e64:	01000009 	tsteq	r0, r9
    8e68:	91a8061f 			; <UNDEFINED> instruction: 0x91a8061f
    8e6c:	00240000 	eoreq	r0, r4, r0
    8e70:	9c010000 	stcls	0, cr0, [r1], {-0}
    8e74:	00000a52 	andeq	r0, r0, r2, asr sl
    8e78:	00737522 	rsbseq	r7, r3, r2, lsr #10
    8e7c:	2c181f01 	ldccs	15, cr1, [r8], {1}
    8e80:	94000000 	strls	r0, [r0], #-0
    8e84:	90000013 	andls	r0, r0, r3, lsl r0
    8e88:	25000013 	strcs	r0, [r0, #-19]	; 0xffffffed
    8e8c:	01006272 	tsteq	r0, r2, ror r2
    8e90:	002c0e20 	eoreq	r0, ip, r0, lsr #28
    8e94:	13b40000 			; <UNDEFINED> instruction: 0x13b40000
    8e98:	13b20000 			; <UNDEFINED> instruction: 0x13b20000
    8e9c:	b8260000 	stmdalt	r6!, {}	; <UNPREDICTABLE>
    8ea0:	14000091 	strne	r0, [r0], #-145	; 0xffffff6f
    8ea4:	48000000 	stmdami	r0, {}	; <UNPREDICTABLE>
    8ea8:	2500000a 	strcs	r0, [r0, #-10]
    8eac:	01006172 	tsteq	r0, r2, ror r1
    8eb0:	002c1222 	eoreq	r1, ip, r2, lsr #4
    8eb4:	13c90000 	bicne	r0, r9, #0
    8eb8:	13c70000 	bicne	r0, r7, #0
    8ebc:	bc270000 	stclt	0, cr0, [r7], #-0
    8ec0:	52000091 	andpl	r0, r0, #145	; 0x91
    8ec4:	0000000a 	andeq	r0, r0, sl
    8ec8:	0091b427 	addseq	fp, r1, r7, lsr #8
    8ecc:	000a5200 	andeq	r5, sl, r0, lsl #4
    8ed0:	cb280000 	blgt	a08ed8 <__bss_end__+0x9fee68>
    8ed4:	01000008 	tsteq	r0, r8
    8ed8:	002c0a16 	eoreq	r0, ip, r6, lsl sl
    8edc:	919c0000 	orrsls	r0, ip, r0
    8ee0:	000c0000 	andeq	r0, ip, r0
    8ee4:	9c010000 	stcls	0, cr0, [r1], {-0}
    8ee8:	00000a88 	andeq	r0, r0, r8, lsl #21
    8eec:	01007525 	tsteq	r0, r5, lsr #10
    8ef0:	002c0e1a 	eoreq	r0, ip, sl, lsl lr
    8ef4:	13de0000 	bicsne	r0, lr, #0
    8ef8:	13dc0000 	bicsne	r0, ip, #0
    8efc:	a4270000 	strtge	r0, [r7], #-0
    8f00:	88000091 	stmdahi	r0, {r0, r4, r7}
    8f04:	0000000a 	andeq	r0, r0, sl
    8f08:	00090f28 	andeq	r0, r9, r8, lsr #30
    8f0c:	0a110100 	beq	449314 <__bss_end__+0x43f2a4>
    8f10:	0000002c 	andeq	r0, r0, ip, lsr #32
    8f14:	00009188 	andeq	r9, r0, r8, lsl #3
    8f18:	00000014 	andeq	r0, r0, r4, lsl r0
    8f1c:	0ab69c01 	beq	fedaff28 <__bss_end__+0xfeda5eb8>
    8f20:	94230000 	strtls	r0, [r3], #-0
    8f24:	e1000091 	swp	r0, r1, [r0]	; <UNPREDICTABLE>
    8f28:	2400000a 	strcs	r0, [r0], #-10
    8f2c:	0c055001 	stceq	0, cr5, [r5], {1}
    8f30:	20003004 	andcs	r3, r0, r4
    8f34:	e4210000 	strt	r0, [r1], #-0
    8f38:	01000008 	tsteq	r0, r8
    8f3c:	91700605 	cmnls	r0, r5, lsl #12
    8f40:	00180000 	andseq	r0, r8, r0
    8f44:	9c010000 	stcls	0, cr0, [r1], {-0}
    8f48:	00000ae1 	andeq	r0, r0, r1, ror #21
    8f4c:	00090329 	andeq	r0, r9, r9, lsr #6
    8f50:	1c050100 	stfnes	f0, [r5], {-0}
    8f54:	0000002c 	andeq	r0, r0, ip, lsr #32
    8f58:	000013f5 	strdeq	r1, [r0], -r5
    8f5c:	000013f1 	strdeq	r1, [r0], -r1	; <UNPREDICTABLE>
    8f60:	09092a00 	stmdbeq	r9, {r9, fp, sp}
    8f64:	09090000 	stmdbeq	r9, {}	; <UNPREDICTABLE>
    8f68:	a7060000 	strge	r0, [r6, -r0]
    8f6c:	0cc5000a 	stcleq	0, cr0, [r5], {10}
    8f70:	00040000 	andeq	r0, r4, r0
    8f74:	00001cca 	andeq	r1, r0, sl, asr #25
    8f78:	0a3a0104 	beq	e89390 <__bss_end__+0xe7f320>
    8f7c:	5e0c0000 	cdppl	0, 0, cr0, cr12, cr0, {0}
    8f80:	71000009 	tstvc	r0, r9
    8f84:	48000009 	stmdami	r0, {r0, r3}
    8f88:	78000092 	stmdavc	r0, {r1, r4, r7}
    8f8c:	f1000001 	cps	#1
    8f90:	02000018 	andeq	r0, r0, #24
    8f94:	6e690504 	cdpvs	5, 6, cr0, cr9, cr4, {0}
    8f98:	04030074 	streq	r0, [r3], #-116	; 0xffffff8c
    8f9c:	00007407 	andeq	r7, r0, r7, lsl #8
    8fa0:	002c0400 	eoreq	r0, ip, r0, lsl #8
    8fa4:	01030000 	mrseq	r0, (UNDEF: 3)
    8fa8:	0002f106 	andeq	pc, r2, r6, lsl #2
    8fac:	05020300 	streq	r0, [r2, #-768]	; 0xfffffd00
    8fb0:	0000038a 	andeq	r0, r0, sl, lsl #7
    8fb4:	ba050403 	blt	149fc8 <__bss_end__+0x13ff58>
    8fb8:	03000000 	movweq	r0, #0
    8fbc:	00b50508 	adcseq	r0, r5, r8, lsl #10
    8fc0:	01030000 	mrseq	r0, (UNDEF: 3)
    8fc4:	0002ef08 	andeq	lr, r2, r8, lsl #30
    8fc8:	07020300 	streq	r0, [r2, -r0, lsl #6]
    8fcc:	00000230 	andeq	r0, r0, r0, lsr r2
    8fd0:	6f070403 	svcvs	0x00070403
    8fd4:	03000000 	movweq	r0, #0
    8fd8:	006a0708 	rsbeq	r0, sl, r8, lsl #14
    8fdc:	05050000 	streq	r0, [r5, #-0]
    8fe0:	0200000a 	andeq	r0, r0, #10
    8fe4:	00002507 	andeq	r2, r0, r7, lsl #10
    8fe8:	02d00500 	sbcseq	r0, r0, #0, 10
    8fec:	2c030000 	stccs	0, cr0, [r3], {-0}
    8ff0:	00000046 	andeq	r0, r0, r6, asr #32
    8ff4:	00044505 	andeq	r4, r4, r5, lsl #10
    8ff8:	46720300 	ldrbtmi	r0, [r2], -r0, lsl #6
    8ffc:	06000000 	streq	r0, [r0], -r0
    9000:	0000027b 	andeq	r0, r0, fp, ror r2
    9004:	2c016504 	cfstr32cs	mvfx6, [r1], {4}
    9008:	07000000 	streq	r0, [r0, -r0]
    900c:	bca60304 	stclt	3, cr0, [r6], #16
    9010:	08000000 	stmdaeq	r0, {}	; <UNPREDICTABLE>
    9014:	0000026d 	andeq	r0, r0, sp, ror #4
    9018:	0091a803 	addseq	sl, r1, r3, lsl #16
    901c:	f0080000 			; <UNDEFINED> instruction: 0xf0080000
    9020:	03000001 	movweq	r0, #1
    9024:	0000bca9 	andeq	fp, r0, r9, lsr #25
    9028:	54090000 	strpl	r0, [r9], #-0
    902c:	cc000000 	stcgt	0, cr0, [r0], {-0}
    9030:	0a000000 	beq	9038 <va_printk+0x244>
    9034:	000000cc 	andeq	r0, r0, ip, asr #1
    9038:	04030003 	streq	r0, [r3], #-3
    903c:	0009e507 	andeq	lr, r9, r7, lsl #10
    9040:	03080b00 	movweq	r0, #35584	; 0x8b00
    9044:	0000f4a3 	andeq	pc, r0, r3, lsr #9
    9048:	04280c00 	strteq	r0, [r8], #-3072	; 0xfffff400
    904c:	a5030000 	strge	r0, [r3, #-0]
    9050:	00000025 	andeq	r0, r0, r5, lsr #32
    9054:	04370c00 	ldrteq	r0, [r7], #-3072	; 0xfffff400
    9058:	aa030000 	bge	c9060 <__bss_end__+0xbeff0>
    905c:	0000009d 	muleq	r0, sp, r0
    9060:	b2050004 	andlt	r0, r5, #4
    9064:	03000003 	movweq	r0, #3
    9068:	0000d3ab 	andeq	sp, r0, fp, lsr #7
    906c:	01ad0500 			; <UNDEFINED> instruction: 0x01ad0500
    9070:	af030000 	svcge	0x00030000
    9074:	00000070 	andeq	r0, r0, r0, ror r0
    9078:	040e040d 	streq	r0, [lr], #-1037	; 0xfffffbf3
    907c:	00000112 	andeq	r0, r0, r2, lsl r1
    9080:	f8080103 			; <UNDEFINED> instruction: 0xf8080103
    9084:	0f000002 	svceq	0x00000002
    9088:	00000112 	andeq	r0, r0, r2, lsl r1
    908c:	00047705 	andeq	r7, r4, r5, lsl #14
    9090:	62160500 	andsvs	r0, r6, #0, 10
    9094:	10000000 	andne	r0, r0, r0
    9098:	000001be 			; <UNDEFINED> instruction: 0x000001be
    909c:	7c2d0518 	cfstr32vc	mvfx0, [sp], #-96	; 0xffffffa0
    90a0:	0c000001 	stceq	0, cr0, [r0], {1}
    90a4:	000003d3 	ldrdeq	r0, [r0], -r3
    90a8:	017c2f05 	cmneq	ip, r5, lsl #30
    90ac:	11000000 	mrsne	r0, (UNDEF: 0)
    90b0:	05006b5f 	streq	r6, [r0, #-2911]	; 0xfffff4a1
    90b4:	00002530 	andeq	r2, r0, r0, lsr r5
    90b8:	130c0400 	movwne	r0, #50176	; 0xc400
    90bc:	05000004 	streq	r0, [r0, #-4]
    90c0:	00002530 	andeq	r2, r0, r0, lsr r5
    90c4:	a70c0800 	strge	r0, [ip, -r0, lsl #16]
    90c8:	05000001 	streq	r0, [r0, #-1]
    90cc:	00002530 	andeq	r2, r0, r0, lsr r5
    90d0:	b30c0c00 	movwlt	r0, #52224	; 0xcc00
    90d4:	05000004 	streq	r0, [r0, #-4]
    90d8:	00002530 	andeq	r2, r0, r0, lsr r5
    90dc:	5f111000 	svcpl	0x00111000
    90e0:	31050078 	tstcc	r5, r8, ror r0
    90e4:	00000182 	andeq	r0, r0, r2, lsl #3
    90e8:	040e0014 	streq	r0, [lr], #-20	; 0xffffffec
    90ec:	00000129 	andeq	r0, r0, r9, lsr #2
    90f0:	00011e09 	andeq	r1, r1, r9, lsl #28
    90f4:	00019200 	andeq	r9, r1, r0, lsl #4
    90f8:	00cc0a00 	sbceq	r0, ip, r0, lsl #20
    90fc:	00000000 	andeq	r0, r0, r0
    9100:	0001eb10 	andeq	lr, r1, r0, lsl fp
    9104:	35052400 	strcc	r2, [r5, #-1024]	; 0xfffffc00
    9108:	0000020b 	andeq	r0, r0, fp, lsl #4
    910c:	0000ac0c 	andeq	sl, r0, ip, lsl #24
    9110:	25370500 	ldrcs	r0, [r7, #-1280]!	; 0xfffffb00
    9114:	00000000 	andeq	r0, r0, r0
    9118:	00044d0c 	andeq	r4, r4, ip, lsl #26
    911c:	25380500 	ldrcs	r0, [r8, #-1280]!	; 0xfffffb00
    9120:	04000000 	streq	r0, [r0], #-0
    9124:	0000cf0c 	andeq	ip, r0, ip, lsl #30
    9128:	25390500 	ldrcs	r0, [r9, #-1280]!	; 0xfffffb00
    912c:	08000000 	stmdaeq	r0, {}	; <UNPREDICTABLE>
    9130:	0005340c 	andeq	r3, r5, ip, lsl #8
    9134:	253a0500 	ldrcs	r0, [sl, #-1280]!	; 0xfffffb00
    9138:	0c000000 	stceq	0, cr0, [r0], {-0}
    913c:	0002b40c 	andeq	fp, r2, ip, lsl #8
    9140:	253b0500 	ldrcs	r0, [fp, #-1280]!	; 0xfffffb00
    9144:	10000000 	andne	r0, r0, r0
    9148:	0002960c 	andeq	r9, r2, ip, lsl #12
    914c:	253c0500 	ldrcs	r0, [ip, #-1280]!	; 0xfffffb00
    9150:	14000000 	strne	r0, [r0], #-0
    9154:	0004b80c 	andeq	fp, r4, ip, lsl #16
    9158:	253d0500 	ldrcs	r0, [sp, #-1280]!	; 0xfffffb00
    915c:	18000000 	stmdane	r0, {}	; <UNPREDICTABLE>
    9160:	0003940c 	andeq	r9, r3, ip, lsl #8
    9164:	253e0500 	ldrcs	r0, [lr, #-1280]!	; 0xfffffb00
    9168:	1c000000 	stcne	0, cr0, [r0], {-0}
    916c:	0004fb0c 	andeq	pc, r4, ip, lsl #22
    9170:	253f0500 	ldrcs	r0, [pc, #-1280]!	; 8c78 <emit+0x84>
    9174:	20000000 	andcs	r0, r0, r0
    9178:	010f1200 	mrseq	r1, (UNDEF: 47)
    917c:	01080000 	mrseq	r0, (UNDEF: 8)
    9180:	024b4805 	subeq	r4, fp, #327680	; 0x50000
    9184:	9a0c0000 	bls	30918c <__bss_end__+0x2ff11c>
    9188:	05000001 	streq	r0, [r0, #-1]
    918c:	00024b49 	andeq	r4, r2, r9, asr #22
    9190:	000c0000 	andeq	r0, ip, r0
    9194:	05000000 	streq	r0, [r0, #-0]
    9198:	00024b4a 	andeq	r4, r2, sl, asr #22
    919c:	69138000 	ldmdbvs	r3, {pc}
    91a0:	05000004 	streq	r0, [r0, #-4]
    91a4:	00011e4c 	andeq	r1, r1, ip, asr #28
    91a8:	13010000 	movwne	r0, #4096	; 0x1000
    91ac:	00000134 	andeq	r0, r0, r4, lsr r1
    91b0:	011e4f05 	tsteq	lr, r5, lsl #30
    91b4:	01040000 	mrseq	r0, (UNDEF: 4)
    91b8:	010a0900 	tsteq	sl, r0, lsl #18
    91bc:	025b0000 	subseq	r0, fp, #0
    91c0:	cc0a0000 	stcgt	0, cr0, [sl], {-0}
    91c4:	1f000000 	svcne	0x00000000
    91c8:	02bd1200 	adcseq	r1, sp, #0, 4
    91cc:	01900000 	orrseq	r0, r0, r0
    91d0:	02995b05 	addseq	r5, r9, #5120	; 0x1400
    91d4:	d30c0000 	movwle	r0, #49152	; 0xc000
    91d8:	05000003 	streq	r0, [r0, #-3]
    91dc:	0002995c 	andeq	r9, r2, ip, asr r9
    91e0:	eb0c0000 	bl	3091e8 <__bss_end__+0x2ff178>
    91e4:	05000003 	streq	r0, [r0, #-3]
    91e8:	0000255d 	andeq	r2, r0, sp, asr r5
    91ec:	a20c0400 	andge	r0, ip, #0, 8
    91f0:	05000001 	streq	r0, [r0, #-1]
    91f4:	00029f5f 	andeq	r9, r2, pc, asr pc
    91f8:	0f0c0800 	svceq	0x000c0800
    91fc:	05000001 	streq	r0, [r0, #-1]
    9200:	00020b60 	andeq	r0, r2, r0, ror #22
    9204:	0e008800 	cdpeq	8, 0, cr8, cr0, cr0, {0}
    9208:	00025b04 	andeq	r5, r2, r4, lsl #22
    920c:	02af0900 	adceq	r0, pc, #0, 18
    9210:	02af0000 	adceq	r0, pc, #0
    9214:	cc0a0000 	stcgt	0, cr0, [sl], {-0}
    9218:	1f000000 	svcne	0x00000000
    921c:	b5040e00 	strlt	r0, [r4, #-3584]	; 0xfffff200
    9220:	14000002 	strne	r0, [r0], #-2
    9224:	00039e10 	andeq	r9, r3, r0, lsl lr
    9228:	73050800 	movwvc	r0, #22528	; 0x5800
    922c:	000002db 	ldrdeq	r0, [r0], -fp
    9230:	0000c90c 	andeq	ip, r0, ip, lsl #18
    9234:	db740500 	blle	1d0a63c <__bss_end__+0x1d005cc>
    9238:	00000002 	andeq	r0, r0, r2
    923c:	00001b0c 	andeq	r1, r0, ip, lsl #22
    9240:	25750500 	ldrbcs	r0, [r5, #-1280]!	; 0xfffffb00
    9244:	04000000 	streq	r0, [r0], #-0
    9248:	54040e00 	strpl	r0, [r4], #-3584	; 0xfffff200
    924c:	10000000 	andne	r0, r0, r0
    9250:	000003bd 			; <UNDEFINED> instruction: 0x000003bd
    9254:	0bb30568 	bleq	fecca7fc <__bss_end__+0xfecc078c>
    9258:	11000004 	tstne	r0, r4
    925c:	0500705f 	streq	r7, [r0, #-95]	; 0xffffffa1
    9260:	0002dbb4 			; <UNDEFINED> instruction: 0x0002dbb4
    9264:	5f110000 	svcpl	0x00110000
    9268:	b5050072 	strlt	r0, [r5, #-114]	; 0xffffff8e
    926c:	00000025 	andeq	r0, r0, r5, lsr #32
    9270:	775f1104 	ldrbvc	r1, [pc, -r4, lsl #2]
    9274:	25b60500 	ldrcs	r0, [r6, #1280]!	; 0x500
    9278:	08000000 	stmdaeq	r0, {}	; <UNPREDICTABLE>
    927c:	00012d0c 	andeq	r2, r1, ip, lsl #26
    9280:	3fb70500 	svccc	0x00b70500
    9284:	0c000000 	stceq	0, cr0, [r0], {-0}
    9288:	0002160c 	andeq	r1, r2, ip, lsl #12
    928c:	3fb80500 	svccc	0x00b80500
    9290:	0e000000 	cdpeq	0, 0, cr0, cr0, cr0, {0}
    9294:	66625f11 	uqadd16vs	r5, r2, r1
    9298:	b6b90500 	ldrtlt	r0, [r9], r0, lsl #10
    929c:	10000002 	andne	r0, r0, r2
    92a0:	0000890c 	andeq	r8, r0, ip, lsl #18
    92a4:	25ba0500 	ldrcs	r0, [sl, #1280]!	; 0x500
    92a8:	18000000 	stmdane	r0, {}	; <UNPREDICTABLE>
    92ac:	00011d0c 	andeq	r1, r1, ip, lsl #26
    92b0:	0ac10500 	beq	ff04a6b8 <__bss_end__+0xff040648>
    92b4:	1c000001 	stcne	0, cr0, [r0], {1}
    92b8:	000b420c 	andeq	r4, fp, ip, lsl #4
    92bc:	66c30500 	strbvs	r0, [r3], r0, lsl #10
    92c0:	20000005 	andcs	r0, r0, r5
    92c4:	0006370c 	andeq	r3, r6, ip, lsl #14
    92c8:	90c50500 	sbcls	r0, r5, r0, lsl #10
    92cc:	24000005 	strcs	r0, [r0], #-5
    92d0:	00043f0c 	andeq	r3, r4, ip, lsl #30
    92d4:	b4c80500 	strblt	r0, [r8], #1280	; 0x500
    92d8:	28000005 	stmdacs	r0, {r0, r2}
    92dc:	0005150c 	andeq	r1, r5, ip, lsl #10
    92e0:	cec90500 	cdpgt	5, 12, cr0, cr9, cr0, {0}
    92e4:	2c000005 	stccs	0, cr0, [r0], {5}
    92e8:	62755f11 	rsbsvs	r5, r5, #17, 30	; 0x44
    92ec:	b6cc0500 	strblt	r0, [ip], r0, lsl #10
    92f0:	30000002 	andcc	r0, r0, r2
    92f4:	70755f11 	rsbsvc	r5, r5, r1, lsl pc
    92f8:	dbcd0500 	blle	ff34a700 <__bss_end__+0xff340690>
    92fc:	38000002 	stmdacc	r0, {r1}
    9300:	72755f11 	rsbsvc	r5, r5, #17, 30	; 0x44
    9304:	25ce0500 	strbcs	r0, [lr, #1280]	; 0x500
    9308:	3c000000 	stccc	0, cr0, [r0], {-0}
    930c:	0000c30c 	andeq	ip, r0, ip, lsl #6
    9310:	d4d10500 	ldrble	r0, [r1], #1280	; 0x500
    9314:	40000005 	andmi	r0, r0, r5
    9318:	0004ed0c 	andeq	lr, r4, ip, lsl #26
    931c:	e4d20500 	ldrb	r0, [r2], #1280	; 0x500
    9320:	43000005 	movwmi	r0, #5
    9324:	626c5f11 	rsbvs	r5, ip, #17, 30	; 0x44
    9328:	b6d50500 	ldrblt	r0, [r5], r0, lsl #10
    932c:	44000002 	strmi	r0, [r0], #-2
    9330:	00014b0c 	andeq	r4, r1, ip, lsl #22
    9334:	25d80500 	ldrbcs	r0, [r8, #1280]	; 0x500
    9338:	4c000000 	stcmi	0, cr0, [r0], {-0}
    933c:	00015c0c 	andeq	r5, r1, ip, lsl #24
    9340:	7bd90500 	blvc	ff64a748 <__bss_end__+0xff6406d8>
    9344:	50000000 	andpl	r0, r0, r0
    9348:	000ae30c 	andeq	lr, sl, ip, lsl #6
    934c:	29dc0500 	ldmibcs	ip, {r8, sl}^
    9350:	54000004 	strpl	r0, [r0], #-4
    9354:	0004310c 	andeq	r3, r4, ip, lsl #2
    9358:	ffe00500 			; <UNDEFINED> instruction: 0xffe00500
    935c:	58000000 	stmdapl	r0, {}	; <UNPREDICTABLE>
    9360:	0003c50c 	andeq	ip, r3, ip, lsl #10
    9364:	f4e20500 	vld2.16	{d16[0],d17[0]}, [r2], r0
    9368:	5c000000 	stcpl	0, cr0, [r0], {-0}
    936c:	00028e0c 	andeq	r8, r2, ip, lsl #28
    9370:	25e30500 	strbcs	r0, [r3, #1280]!	; 0x500
    9374:	64000000 	strvs	r0, [r0], #-0
    9378:	00251500 	eoreq	r1, r5, r0, lsl #10
    937c:	04290000 	strteq	r0, [r9], #-0
    9380:	29160000 	ldmdbcs	r6, {}	; <UNPREDICTABLE>
    9384:	16000004 	strne	r0, [r0], -r4
    9388:	0000010a 	andeq	r0, r0, sl, lsl #2
    938c:	00010c16 	andeq	r0, r1, r6, lsl ip
    9390:	00251600 	eoreq	r1, r5, r0, lsl #12
    9394:	0e000000 	cdpeq	0, 0, cr0, cr0, cr0, {0}
    9398:	00043404 	andeq	r3, r4, r4, lsl #8
    939c:	04290f00 	strteq	r0, [r9], #-3840	; 0xfffff100
    93a0:	1b170000 	blne	5c93a8 <__bss_end__+0x5bf338>
    93a4:	28000004 	stmdacs	r0, {r2}
    93a8:	02380504 	eorseq	r0, r8, #4, 10	; 0x1000000
    93ac:	00000566 	andeq	r0, r0, r6, ror #10
    93b0:	00038318 	andeq	r8, r3, r8, lsl r3
    93b4:	023a0500 	eorseq	r0, sl, #0, 10
    93b8:	00000025 	andeq	r0, r0, r5, lsr #32
    93bc:	013c1800 	teqeq	ip, r0, lsl #16
    93c0:	3f050000 	svccc	0x00050000
    93c4:	00063b02 	andeq	r3, r6, r2, lsl #22
    93c8:	06180400 	ldreq	r0, [r8], -r0, lsl #8
    93cc:	05000002 	streq	r0, [r0, #-2]
    93d0:	063b023f 			; <UNDEFINED> instruction: 0x063b023f
    93d4:	18080000 	stmdane	r8, {}	; <UNPREDICTABLE>
    93d8:	000001b6 			; <UNDEFINED> instruction: 0x000001b6
    93dc:	3b023f05 	blcc	98ff8 <__bss_end__+0x8ef88>
    93e0:	0c000006 	stceq	0, cr0, [r0], {6}
    93e4:	0003e618 	andeq	lr, r3, r8, lsl r6
    93e8:	02410500 	subeq	r0, r1, #0, 10
    93ec:	00000025 	andeq	r0, r0, r5, lsr #32
    93f0:	00371810 	eorseq	r1, r7, r0, lsl r8
    93f4:	42050000 	andmi	r0, r5, #0
    93f8:	00081d02 	andeq	r1, r8, r2, lsl #26
    93fc:	9c181400 	cfldrsls	mvf1, [r8], {-0}
    9400:	0500000a 	streq	r0, [r0, #-10]
    9404:	00250244 	eoreq	r0, r5, r4, asr #4
    9408:	18300000 	ldmdane	r0!, {}	; <UNPREDICTABLE>
    940c:	00000a17 	andeq	r0, r0, r7, lsl sl
    9410:	8a024505 	bhi	9a82c <__bss_end__+0x907bc>
    9414:	34000005 	strcc	r0, [r0], #-5
    9418:	0002c518 	andeq	ip, r2, r8, lsl r5
    941c:	02470500 	subeq	r0, r7, #0, 10
    9420:	00000025 	andeq	r0, r0, r5, lsr #32
    9424:	03f01838 	mvnseq	r1, #56, 16	; 0x380000
    9428:	49050000 	stmdbmi	r5, {}	; <UNPREDICTABLE>
    942c:	00083802 	andeq	r3, r8, r2, lsl #16
    9430:	65183c00 	ldrvs	r3, [r8, #-3072]	; 0xfffff400
    9434:	05000002 	streq	r0, [r0, #-2]
    9438:	017c024c 	cmneq	ip, ip, asr #4
    943c:	18400000 	stmdane	r0, {}^	; <UNPREDICTABLE>
    9440:	000001d5 	ldrdeq	r0, [r0], -r5
    9444:	25024d05 	strcs	r4, [r2, #-3333]	; 0xfffff2fb
    9448:	44000000 	strmi	r0, [r0], #-0
    944c:	00052f18 	andeq	r2, r5, r8, lsl pc
    9450:	024e0500 	subeq	r0, lr, #0, 10
    9454:	0000017c 	andeq	r0, r0, ip, ror r1
    9458:	02d71848 	sbcseq	r1, r7, #72, 16	; 0x480000
    945c:	4f050000 	svcmi	0x00050000
    9460:	00083e02 	andeq	r3, r8, r2, lsl #28
    9464:	0e184c00 	cdpeq	12, 1, cr4, cr8, cr0, {0}
    9468:	05000002 	streq	r0, [r0, #-2]
    946c:	00250252 	eoreq	r0, r5, r2, asr r2
    9470:	18500000 	ldmdane	r0, {}^	; <UNPREDICTABLE>
    9474:	00000154 	andeq	r0, r0, r4, asr r1
    9478:	0c025305 	stceq	3, cr5, [r2], {5}
    947c:	54000001 	strpl	r0, [r0], #-1
    9480:	0002fd18 	andeq	pc, r2, r8, lsl sp	; <UNPREDICTABLE>
    9484:	02760500 	rsbseq	r0, r6, #0, 10
    9488:	000007fb 	strdeq	r0, [r0], -fp
    948c:	02bd1958 	adcseq	r1, sp, #88, 18	; 0x160000
    9490:	7a050000 	bvc	149498 <__bss_end__+0x13f428>
    9494:	00029902 	andeq	r9, r2, r2, lsl #18
    9498:	19014800 	stmdbne	r1, {fp, lr}
    949c:	00000243 	andeq	r0, r0, r3, asr #4
    94a0:	5b027b05 	blpl	a80bc <__bss_end__+0x9e04c>
    94a4:	4c000002 	stcmi	0, cr0, [r0], {2}
    94a8:	04db1901 	ldrbeq	r1, [fp], #2305	; 0x901
    94ac:	7f050000 	svcvc	0x00050000
    94b0:	00084f02 	andeq	r4, r8, r2, lsl #30
    94b4:	1902dc00 	stmdbne	r2, {sl, fp, ip, lr, pc}
    94b8:	00000125 	andeq	r0, r0, r5, lsr #2
    94bc:	00028405 	andeq	r8, r2, r5, lsl #8
    94c0:	e0000006 	and	r0, r0, r6
    94c4:	010a1902 	tsteq	sl, r2, lsl #18
    94c8:	85050000 	strhi	r0, [r5, #-0]
    94cc:	00085b02 	andeq	r5, r8, r2, lsl #22
    94d0:	0002ec00 	andeq	lr, r2, r0, lsl #24
    94d4:	040b040e 	streq	r0, [fp], #-1038	; 0xfffffbf2
    94d8:	25150000 	ldrcs	r0, [r5, #-0]
    94dc:	8a000000 	bhi	94e4 <kmalloc_heap_end+0x4>
    94e0:	16000005 	strne	r0, [r0], -r5
    94e4:	00000429 	andeq	r0, r0, r9, lsr #8
    94e8:	00010a16 	andeq	r0, r1, r6, lsl sl
    94ec:	058a1600 	streq	r1, [sl, #1536]	; 0x600
    94f0:	25160000 	ldrcs	r0, [r6, #-0]
    94f4:	00000000 	andeq	r0, r0, r0
    94f8:	0119040e 	tsteq	r9, lr, lsl #8
    94fc:	040e0000 	streq	r0, [lr], #-0
    9500:	0000056c 	andeq	r0, r0, ip, ror #10
    9504:	00008615 	andeq	r8, r0, r5, lsl r6
    9508:	0005b400 	andeq	fp, r5, r0, lsl #8
    950c:	04291600 	strteq	r1, [r9], #-1536	; 0xfffffa00
    9510:	0a160000 	beq	589518 <__bss_end__+0x57f4a8>
    9514:	16000001 	strne	r0, [r0], -r1
    9518:	00000086 	andeq	r0, r0, r6, lsl #1
    951c:	00002516 	andeq	r2, r0, r6, lsl r5
    9520:	040e0000 	streq	r0, [lr], #-0
    9524:	00000596 	muleq	r0, r6, r5
    9528:	00002515 	andeq	r2, r0, r5, lsl r5
    952c:	0005ce00 	andeq	ip, r5, r0, lsl #28
    9530:	04291600 	strteq	r1, [r9], #-1536	; 0xfffffa00
    9534:	0a160000 	beq	58953c <__bss_end__+0x57f4cc>
    9538:	00000001 	andeq	r0, r0, r1
    953c:	05ba040e 	ldreq	r0, [sl, #1038]!	; 0x40e
    9540:	54090000 	strpl	r0, [r9], #-0
    9544:	e4000000 	str	r0, [r0], #-0
    9548:	0a000005 	beq	9564 <kmalloc+0x18>
    954c:	000000cc 	andeq	r0, r0, ip, asr #1
    9550:	54090002 	strpl	r0, [r9], #-2
    9554:	f4000000 	vst4.8	{d0-d3}, [r0], r0
    9558:	0a000005 	beq	9574 <kmalloc+0x28>
    955c:	000000cc 	andeq	r0, r0, ip, asr #1
    9560:	ab060000 	blge	189568 <__bss_end__+0x17f4f8>
    9564:	05000003 	streq	r0, [r0, #-3]
    9568:	02e1011d 	rsceq	r0, r1, #1073741831	; 0x40000007
    956c:	c21a0000 	andsgt	r0, sl, #0
    9570:	0c000004 	stceq	0, cr0, [r0], {4}
    9574:	35012105 	strcc	r2, [r1, #-261]	; 0xfffffefb
    9578:	18000006 	stmdane	r0, {r1, r2}
    957c:	000003d3 	ldrdeq	r0, [r0], -r3
    9580:	35012305 	strcc	r2, [r1, #-773]	; 0xfffffcfb
    9584:	00000006 	andeq	r0, r0, r6
    9588:	00022918 	andeq	r2, r2, r8, lsl r9
    958c:	01240500 			; <UNDEFINED> instruction: 0x01240500
    9590:	00000025 	andeq	r0, r0, r5, lsr #32
    9594:	03a51804 			; <UNDEFINED> instruction: 0x03a51804
    9598:	25050000 	strcs	r0, [r5, #-0]
    959c:	00063b01 	andeq	r3, r6, r1, lsl #22
    95a0:	0e000800 	cdpeq	8, 0, cr0, cr0, cr0, {0}
    95a4:	00060004 	andeq	r0, r6, r4
    95a8:	f4040e00 			; <UNDEFINED> instruction: 0xf4040e00
    95ac:	1a000005 	bne	95c8 <kmalloc_aligned+0x8>
    95b0:	0000002f 	andeq	r0, r0, pc, lsr #32
    95b4:	013d050e 	teqeq	sp, lr, lsl #10
    95b8:	00000676 	andeq	r0, r0, r6, ror r6
    95bc:	00042218 	andeq	r2, r4, r8, lsl r2
    95c0:	013e0500 	teqeq	lr, r0, lsl #10
    95c4:	00000676 	andeq	r0, r0, r6, ror r6
    95c8:	04561800 	ldrbeq	r1, [r6], #-2048	; 0xfffff800
    95cc:	3f050000 	svccc	0x00050000
    95d0:	00067601 	andeq	r7, r6, r1, lsl #12
    95d4:	72180600 	andsvc	r0, r8, #0, 12
    95d8:	05000004 	streq	r0, [r0, #-4]
    95dc:	005b0140 	subseq	r0, fp, r0, asr #2
    95e0:	000c0000 	andeq	r0, ip, r0
    95e4:	00005b09 	andeq	r5, r0, r9, lsl #22
    95e8:	00068600 	andeq	r8, r6, r0, lsl #12
    95ec:	00cc0a00 	sbceq	r0, ip, r0, lsl #20
    95f0:	00020000 	andeq	r0, r2, r0
    95f4:	5705d01b 	smladpl	r5, fp, r0, sp
    95f8:	00078702 	andeq	r8, r7, r2, lsl #14
    95fc:	04a61800 	strteq	r1, [r6], #2048	; 0x800
    9600:	59050000 	stmdbpl	r5, {}	; <UNPREDICTABLE>
    9604:	00002c02 	andeq	r2, r0, r2, lsl #24
    9608:	5c180000 	ldcpl	0, cr0, [r8], {-0}
    960c:	05000004 	streq	r0, [r0, #-4]
    9610:	010c025a 	tsteq	ip, sl, asr r2
    9614:	18040000 	stmdane	r4, {}	; <UNPREDICTABLE>
    9618:	00000258 	andeq	r0, r0, r8, asr r2
    961c:	87025b05 	strhi	r5, [r2, -r5, lsl #22]
    9620:	08000007 	stmdaeq	r0, {r0, r1, r2}
    9624:	00050618 	andeq	r0, r5, r8, lsl r6
    9628:	025c0500 	subseq	r0, ip, #0, 10
    962c:	00000192 	muleq	r0, r2, r1
    9630:	01c61824 	biceq	r1, r6, r4, lsr #16
    9634:	5d050000 	stcpl	0, cr0, [r5, #-0]
    9638:	00002502 	andeq	r2, r0, r2, lsl #10
    963c:	ce184800 	cdpgt	8, 1, cr4, cr8, cr0, {0}
    9640:	05000003 	streq	r0, [r0, #-3]
    9644:	0069025e 	rsbeq	r0, r9, lr, asr r2
    9648:	18500000 	ldmdane	r0, {}^	; <UNPREDICTABLE>
    964c:	0000051c 	andeq	r0, r0, ip, lsl r5
    9650:	41025f05 	tstmi	r2, r5, lsl #30
    9654:	58000006 	stmdapl	r0, {r1, r2}
    9658:	0003d918 	andeq	sp, r3, r8, lsl r9
    965c:	02600500 	rsbeq	r0, r0, #0, 10
    9660:	000000f4 	strdeq	r0, [r0], -r4
    9664:	05211868 	streq	r1, [r1, #-2152]!	; 0xfffff798
    9668:	61050000 	mrsvs	r0, (UNDEF: 5)
    966c:	0000f402 	andeq	pc, r0, r2, lsl #8
    9670:	e1187000 	tst	r8, r0
    9674:	05000002 	streq	r0, [r0, #-2]
    9678:	00f40262 	rscseq	r0, r4, r2, ror #4
    967c:	18780000 	ldmdane	r8!, {}^	; <UNPREDICTABLE>
    9680:	000004d1 	ldrdeq	r0, [r0], -r1
    9684:	97026305 	strls	r6, [r2, -r5, lsl #6]
    9688:	80000007 	andhi	r0, r0, r7
    968c:	00024c18 	andeq	r4, r2, r8, lsl ip
    9690:	02640500 	rsbeq	r0, r4, #0, 10
    9694:	000007a7 	andeq	r0, r0, r7, lsr #15
    9698:	047f1888 	ldrbteq	r1, [pc], #-2184	; 96a0 <__data_end__+0x4>
    969c:	65050000 	strvs	r0, [r5, #-0]
    96a0:	00002502 	andeq	r2, r0, r2, lsl #10
    96a4:	8c18a000 	ldchi	0, cr10, [r8], {-0}
    96a8:	05000001 	streq	r0, [r0, #-1]
    96ac:	00f40266 	rscseq	r0, r4, r6, ror #4
    96b0:	18a40000 	stmiane	r4!, {}	; <UNPREDICTABLE>
    96b4:	0000009d 	muleq	r0, sp, r0
    96b8:	f4026705 	vst1.8	{d6}, [r2], r5
    96bc:	ac000000 	stcge	0, cr0, [r0], {-0}
    96c0:	00017b18 	andeq	r7, r1, r8, lsl fp
    96c4:	02680500 	rsbeq	r0, r8, #0, 10
    96c8:	000000f4 	strdeq	r0, [r0], -r4
    96cc:	004a18b4 	strheq	r1, [sl], #-132	; 0xffffff7c
    96d0:	69050000 	stmdbvs	r5, {}	; <UNPREDICTABLE>
    96d4:	0000f402 	andeq	pc, r0, r2, lsl #8
    96d8:	5918bc00 	ldmdbpl	r8, {sl, fp, ip, sp, pc}
    96dc:	05000000 	streq	r0, [r0, #-0]
    96e0:	00f4026a 	rscseq	r0, r4, sl, ror #4
    96e4:	18c40000 	stmiane	r4, {}^	; <UNPREDICTABLE>
    96e8:	00000381 	andeq	r0, r0, r1, lsl #7
    96ec:	25026b05 	strcs	r6, [r2, #-2821]	; 0xfffff4fb
    96f0:	cc000000 	stcgt	0, cr0, [r0], {-0}
    96f4:	01120900 	tsteq	r2, r0, lsl #18
    96f8:	07970000 	ldreq	r0, [r7, r0]
    96fc:	cc0a0000 	stcgt	0, cr0, [sl], {-0}
    9700:	19000000 	stmdbne	r0, {}	; <UNPREDICTABLE>
    9704:	01120900 	tsteq	r2, r0, lsl #18
    9708:	07a70000 	streq	r0, [r7, r0]!
    970c:	cc0a0000 	stcgt	0, cr0, [sl], {-0}
    9710:	07000000 	streq	r0, [r0, -r0]
    9714:	01120900 	tsteq	r2, r0, lsl #18
    9718:	07b70000 	ldreq	r0, [r7, r0]!
    971c:	cc0a0000 	stcgt	0, cr0, [sl], {-0}
    9720:	17000000 	strne	r0, [r0, -r0]
    9724:	05f01b00 	ldrbeq	r1, [r0, #2816]!	; 0xb00
    9728:	07db0270 			; <UNDEFINED> instruction: 0x07db0270
    972c:	ad180000 	ldcge	0, cr0, [r8, #-0]
    9730:	05000002 	streq	r0, [r0, #-2]
    9734:	07db0273 			; <UNDEFINED> instruction: 0x07db0273
    9738:	18000000 	stmdane	r0, {}	; <UNPREDICTABLE>
    973c:	000004c8 	andeq	r0, r0, r8, asr #9
    9740:	eb027405 	bl	a675c <__bss_end__+0x9c6ec>
    9744:	78000007 	stmdavc	r0, {r0, r1, r2}
    9748:	02db0900 	sbcseq	r0, fp, #0, 18
    974c:	07eb0000 	strbeq	r0, [fp, r0]!
    9750:	cc0a0000 	stcgt	0, cr0, [sl], {-0}
    9754:	1d000000 	stcne	0, cr0, [r0, #-0]
    9758:	002c0900 	eoreq	r0, ip, r0, lsl #18
    975c:	07fb0000 	ldrbeq	r0, [fp, r0]!
    9760:	cc0a0000 	stcgt	0, cr0, [sl], {-0}
    9764:	1d000000 	stcne	0, cr0, [r0, #-0]
    9768:	05f01c00 	ldrbeq	r1, [r0, #3072]!	; 0xc00
    976c:	081d0255 	ldmdaeq	sp, {r0, r2, r4, r6, r9}
    9770:	1b1d0000 	blne	749778 <__bss_end__+0x73f708>
    9774:	05000004 	streq	r0, [r0, #-4]
    9778:	0686026c 	streq	r0, [r6], ip, ror #4
    977c:	f31d0000 	vhadd.u16	d0, d13, d0
    9780:	05000004 	streq	r0, [r0, #-4]
    9784:	07b70275 			; <UNDEFINED> instruction: 0x07b70275
    9788:	09000000 	stmdbeq	r0, {}	; <UNPREDICTABLE>
    978c:	00000112 	andeq	r0, r0, r2, lsl r1
    9790:	0000082d 	andeq	r0, r0, sp, lsr #16
    9794:	0000cc0a 	andeq	ip, r0, sl, lsl #24
    9798:	1e001800 	cdpne	8, 0, cr1, cr0, cr0, {0}
    979c:	00000838 	andeq	r0, r0, r8, lsr r8
    97a0:	00042916 	andeq	r2, r4, r6, lsl r9
    97a4:	040e0000 	streq	r0, [lr], #-0
    97a8:	0000082d 	andeq	r0, r0, sp, lsr #16
    97ac:	017c040e 	cmneq	ip, lr, lsl #8
    97b0:	4f1e0000 	svcmi	0x001e0000
    97b4:	16000008 	strne	r0, [r0], -r8
    97b8:	00000025 	andeq	r0, r0, r5, lsr #32
    97bc:	55040e00 	strpl	r0, [r4, #-3584]	; 0xfffff200
    97c0:	0e000008 	cdpeq	0, 0, cr0, cr0, cr8, {0}
    97c4:	00084404 	andeq	r4, r8, r4, lsl #8
    97c8:	05f40900 	ldrbeq	r0, [r4, #2304]!	; 0x900
    97cc:	086b0000 	stmdaeq	fp!, {}^	; <UNPREDICTABLE>
    97d0:	cc0a0000 	stcgt	0, cr0, [sl], {-0}
    97d4:	02000000 	andeq	r0, r0, #0
    97d8:	04931f00 	ldreq	r1, [r3], #3840	; 0xf00
    97dc:	fd050000 	stc2	0, cr0, [r5, #-0]
    97e0:	00042902 	andeq	r2, r4, r2, lsl #18
    97e4:	048c1f00 	streq	r1, [ip], #3840	; 0xf00
    97e8:	fe050000 	cdp2	0, 0, cr0, cr5, cr0, {0}
    97ec:	00042f02 	andeq	r2, r4, r2, lsl #30
    97f0:	00251500 	eoreq	r1, r5, r0, lsl #10
    97f4:	08920000 	ldmeq	r2, {}	; <UNPREDICTABLE>
    97f8:	25160000 	ldrcs	r0, [r6, #-0]
    97fc:	00000000 	andeq	r0, r0, r0
    9800:	0001df20 	andeq	sp, r1, r0, lsr #30
    9804:	9d1d0600 	ldcls	6, cr0, [sp, #-0]
    9808:	0e000008 	cdpeq	0, 0, cr0, cr0, cr8, {0}
    980c:	00088304 	andeq	r8, r8, r4, lsl #6
    9810:	00251500 	eoreq	r1, r5, r0, lsl #10
    9814:	08b20000 	ldmeq	r2!, {}	; <UNPREDICTABLE>
    9818:	8a160000 	bhi	589820 <__bss_end__+0x57f7b0>
    981c:	00000005 	andeq	r0, r0, r5
    9820:	00078620 	andeq	r8, r7, r0, lsr #12
    9824:	bd220600 	stclt	6, cr0, [r2, #-0]
    9828:	0e000008 	cdpeq	0, 0, cr0, cr0, cr8, {0}
    982c:	0008a304 	andeq	sl, r8, r4, lsl #6
    9830:	54012100 	strpl	r2, [r1], #-256	; 0xffffff00
    9834:	08000000 	stmdaeq	r0, {}	; <UNPREDICTABLE>
    9838:	0009000c 	andeq	r0, r9, ip
    983c:	09352200 	ldmdbeq	r5!, {r9, sp}
    9840:	22000000 	andcs	r0, r0, #0
    9844:	00000aae 	andeq	r0, r0, lr, lsr #21
    9848:	0ae92201 	beq	ffa52054 <__bss_end__+0xffa47fe4>
    984c:	22040000 	andcs	r0, r4, #0
    9850:	0000094a 	andeq	r0, r0, sl, asr #18
    9854:	09d62205 	ldmibeq	r6, {r0, r2, r9, sp}^
    9858:	22060000 	andcs	r0, r6, #0
    985c:	00000af8 	strdeq	r0, [r0], -r8
    9860:	0b072207 	bleq	1d2084 <__bss_end__+0x1c8014>
    9864:	22030000 	andcs	r0, r3, #0
    9868:	00000b16 	andeq	r0, r0, r6, lsl fp
    986c:	65100002 	ldrvs	r0, [r0, #-2]
    9870:	2c000009 	stccs	0, cr0, [r0], {9}
    9874:	09900607 	ldmibeq	r0, {r0, r1, r2, r9, sl}
    9878:	69110000 	ldmdbvs	r1, {}	; <UNPREDICTABLE>
    987c:	0907006f 	stmdbeq	r7, {r0, r1, r2, r3, r5, r6}
    9880:	00000033 	andeq	r0, r0, r3, lsr r0
    9884:	65691100 	strbvs	r1, [r9, #-256]!	; 0xffffff00
    9888:	0a070072 	beq	1c9a58 <__bss_end__+0x1bf9e8>
    988c:	00000033 	andeq	r0, r0, r3, lsr r0
    9890:	69691104 	stmdbvs	r9!, {r2, r8, ip}^
    9894:	11070072 	tstne	r7, r2, ror r0
    9898:	00000033 	andeq	r0, r0, r3, lsr r0
    989c:	636c1108 	cmnvs	ip, #8, 2
    98a0:	13070072 	movwne	r0, #28786	; 0x7072
    98a4:	00000033 	andeq	r0, r0, r3, lsr r0
    98a8:	636d110c 	cmnvs	sp, #12, 2
    98ac:	14070072 	strne	r0, [r7], #-114	; 0xffffff8e
    98b0:	00000033 	andeq	r0, r0, r3, lsr r0
    98b4:	736c1110 	cmnvc	ip, #16, 2
    98b8:	15070072 	strne	r0, [r7, #-114]	; 0xffffff8e
    98bc:	00000033 	andeq	r0, r0, r3, lsr r0
    98c0:	736d1114 	cmnvc	sp, #20, 2
    98c4:	16070072 			; <UNDEFINED> instruction: 0x16070072
    98c8:	00000033 	andeq	r0, r0, r3, lsr r0
    98cc:	0a2c0c18 	beq	b0c934 <__bss_end__+0xb028c4>
    98d0:	17070000 	strne	r0, [r7, -r0]
    98d4:	00000033 	andeq	r0, r0, r3, lsr r0
    98d8:	09590c1c 	ldmdbeq	r9, {r2, r3, r4, sl, fp}^
    98dc:	1b070000 	blne	1c98e4 <__bss_end__+0x1bf874>
    98e0:	00000033 	andeq	r0, r0, r3, lsr r0
    98e4:	09450c20 	stmdbeq	r5, {r5, sl, fp}^
    98e8:	1d070000 	stcne	0, cr0, [r7, #-0]
    98ec:	00000033 	andeq	r0, r0, r3, lsr r0
    98f0:	0a270c24 	beq	9cc988 <__bss_end__+0x9c2918>
    98f4:	1e070000 	cdpne	0, 0, cr0, cr7, cr0, {0}
    98f8:	00000033 	andeq	r0, r0, r3, lsr r0
    98fc:	a6230028 	strtge	r0, [r3], -r8, lsr #32
    9900:	01000009 	tsteq	r0, r9
    9904:	0009a507 	andeq	sl, r9, r7, lsl #10
    9908:	21500400 	cmpcs	r0, r0, lsl #8
    990c:	33040e20 	movwcc	r0, #20000	; 0x4e20
    9910:	0f000000 	svceq	0x00000000
    9914:	0000099f 	muleq	r0, pc, r9	; <UNPREDICTABLE>
    9918:	000a0023 	andeq	r0, sl, r3, lsr #32
    991c:	bf280100 	svclt	0x00280100
    9920:	40000009 	andmi	r0, r0, r9
    9924:	0e202150 	mcreq	1, 1, r2, cr0, cr0, {2}
    9928:	00090004 	andeq	r0, r9, r4
    992c:	09b90f00 	ldmibeq	r9!, {r8, r9, sl, fp}
    9930:	db240000 	blle	909938 <__bss_end__+0x8ff8c8>
    9934:	0100000a 	tsteq	r0, sl
    9938:	000025a7 	andeq	r2, r0, r7, lsr #11
    993c:	0093b000 	addseq	fp, r3, r0
    9940:	00001000 	andeq	r1, r0, r0
    9944:	f09c0100 			; <UNDEFINED> instruction: 0xf09c0100
    9948:	25000009 	strcs	r0, [r0, #-9]
    994c:	000093b8 			; <UNDEFINED> instruction: 0x000093b8
    9950:	00000c9c 	muleq	r0, ip, ip
    9954:	0093bc25 	addseq	fp, r3, r5, lsr #24
    9958:	000ad200 	andeq	sp, sl, r0, lsl #4
    995c:	53260000 			; <UNDEFINED> instruction: 0x53260000
    9960:	01000007 	tsteq	r0, r7
    9964:	0093809f 	umullseq	r8, r3, pc, r0	; <UNPREDICTABLE>
    9968:	00003000 	andeq	r3, r0, r0
    996c:	4e9c0100 	fmlmie	f0, f4, f0
    9970:	2700000a 	strcs	r0, [r0, -sl]
    9974:	9f010063 	svcls	0x00010063
    9978:	0000002c 	andeq	r0, r0, ip, lsr #32
    997c:	00001413 	andeq	r1, r0, r3, lsl r4
    9980:	00938c25 	addseq	r8, r3, r5, lsr #24
    9984:	000c9c00 	andeq	r9, ip, r0, lsl #24
    9988:	93902500 	orrsls	r2, r0, #0, 10
    998c:	0aa50000 	beq	fe949994 <__bss_end__+0xfe93f924>
    9990:	a4280000 	strtge	r0, [r8], #-0
    9994:	a7000093 			; <UNDEFINED> instruction: 0xa7000093
    9998:	4400000c 	strmi	r0, [r0], #-12
    999c:	2900000a 	stmdbcs	r0, {r1, r3}
    99a0:	0c055001 	stceq	0, cr5, [r5], {1}
    99a4:	20215040 	eorcs	r5, r1, r0, asr #32
    99a8:	05510129 	ldrbeq	r0, [r1, #-297]	; 0xfffffed7
    99ac:	ff080074 			; <UNDEFINED> instruction: 0xff080074
    99b0:	a825001a 	stmdage	r5!, {r1, r3, r4}
    99b4:	9c000093 	stcls	0, cr0, [r0], {147}	; 0x93
    99b8:	0000000c 	andeq	r0, r0, ip
    99bc:	0009c024 	andeq	ip, r9, r4, lsr #32
    99c0:	25970100 	ldrcs	r0, [r7, #256]	; 0x100
    99c4:	50000000 	andpl	r0, r0, r0
    99c8:	30000093 	mulcc	r0, r3, r0
    99cc:	01000000 	mrseq	r0, (UNDEF: 0)
    99d0:	000aa59c 	muleq	sl, ip, r5
    99d4:	00632a00 	rsbeq	r2, r3, r0, lsl #20
    99d8:	00259b01 	eoreq	r9, r5, r1, lsl #22
    99dc:	54010000 	strpl	r0, [r1], #-0
    99e0:	00935825 	addseq	r5, r3, r5, lsr #16
    99e4:	000c9c00 	andeq	r9, ip, r0, lsl #24
    99e8:	935c2500 	cmpls	ip, #0, 10
    99ec:	0ad20000 	beq	ff4899f4 <__bss_end__+0xff47f984>
    99f0:	6c280000 	stcvs	0, cr0, [r8], #-0
    99f4:	b2000093 	andlt	r0, r0, #147	; 0x93
    99f8:	9b00000c 	blls	9a30 <__FUNCTION__.4407+0x4>
    99fc:	2900000a 	stmdbcs	r0, {r1, r3}
    9a00:	0c055001 	stceq	0, cr5, [r5], {1}
    9a04:	20215040 	eorcs	r5, r1, r0, asr #32
    9a08:	93742500 	cmnls	r4, #0, 10
    9a0c:	0c9c0000 	ldceq	0, cr0, [ip], {0}
    9a10:	24000000 	strcs	r0, [r0], #-0
    9a14:	000009b2 			; <UNDEFINED> instruction: 0x000009b2
    9a18:	00258801 	eoreq	r8, r5, r1, lsl #16
    9a1c:	93300000 	teqls	r0, #0
    9a20:	00200000 	eoreq	r0, r0, r0
    9a24:	9c010000 	stcls	0, cr0, [r1], {-0}
    9a28:	00000ad2 	ldrdeq	r0, [r0], -r2
    9a2c:	00933c2b 	addseq	r3, r3, fp, lsr #24
    9a30:	000cb200 	andeq	fp, ip, r0, lsl #4
    9a34:	50012900 	andpl	r2, r1, r0, lsl #18
    9a38:	50640c05 	rsbpl	r0, r4, r5, lsl #24
    9a3c:	00002021 	andeq	r2, r0, r1, lsr #32
    9a40:	000ac524 	andeq	ip, sl, r4, lsr #10
    9a44:	257f0100 	ldrbcs	r0, [pc, #-256]!	; 994c <__FUNCTION__.4337+0x224>
    9a48:	18000000 	stmdane	r0, {}	; <UNPREDICTABLE>
    9a4c:	18000093 	stmdane	r0, {r0, r1, r4, r7}
    9a50:	01000000 	mrseq	r0, (UNDEF: 0)
    9a54:	000aff9c 	muleq	sl, ip, pc	; <UNPREDICTABLE>
    9a58:	93242b00 			; <UNDEFINED> instruction: 0x93242b00
    9a5c:	0cb20000 	ldceq	0, cr0, [r2]
    9a60:	01290000 			; <UNDEFINED> instruction: 0x01290000
    9a64:	640c0550 	strvs	r0, [ip], #-1360	; 0xfffffab0
    9a68:	00202150 	eoreq	r2, r0, r0, asr r1
    9a6c:	092b2600 	stmdbeq	fp!, {r9, sl, sp}
    9a70:	3a010000 	bcc	49a78 <__bss_end__+0x3fa08>
    9a74:	00009268 	andeq	r9, r0, r8, ror #4
    9a78:	000000b0 	strheq	r0, [r0], -r0	; <UNPREDICTABLE>
    9a7c:	0c3d9c01 	ldceq	12, cr9, [sp], #-4
    9a80:	78280000 	stmdavc	r8!, {}	; <UNPREDICTABLE>
    9a84:	bd000092 	stclt	0, cr0, [r0, #-584]	; 0xfffffdb8
    9a88:	2c00000c 	stccs	0, cr0, [r0], {12}
    9a8c:	2900000b 	stmdbcs	r0, {r0, r1, r3}
    9a90:	3e015001 	cdpcc	0, 0, cr5, cr1, cr1, {0}
    9a94:	01510129 	cmpeq	r1, r9, lsr #2
    9a98:	84280032 	strthi	r0, [r8], #-50	; 0xffffffce
    9a9c:	bd000092 	stclt	0, cr0, [r0, #-584]	; 0xfffffdb8
    9aa0:	4400000c 	strmi	r0, [r0], #-12
    9aa4:	2900000b 	stmdbcs	r0, {r0, r1, r3}
    9aa8:	3f015001 	svccc	0x00015001
    9aac:	01510129 	cmpeq	r1, r9, lsr #2
    9ab0:	88250032 	stmdahi	r5!, {r1, r4, r5}
    9ab4:	9c000092 	stcls	0, cr0, [r0], {146}	; 0x92
    9ab8:	2800000c 	stmdacs	r0, {r2, r3}
    9abc:	00009294 	muleq	r0, r4, r2
    9ac0:	00000c3d 	andeq	r0, r0, sp, lsr ip
    9ac4:	00000b69 	andeq	r0, r0, r9, ror #22
    9ac8:	05500129 	ldrbeq	r0, [r0, #-297]	; 0xfffffed7
    9acc:	2150040c 	cmpcs	r0, ip, lsl #8
    9ad0:	51012920 	tstpl	r1, r0, lsr #18
    9ad4:	25003101 	strcs	r3, [r0, #-257]	; 0xfffffeff
    9ad8:	00009298 	muleq	r0, r8, r2
    9adc:	00000c9c 	muleq	r0, ip, ip
    9ae0:	0092a828 	addseq	sl, r2, r8, lsr #16
    9ae4:	000ca700 	andeq	sl, ip, r0, lsl #14
    9ae8:	000b8b00 	andeq	r8, fp, r0, lsl #22
    9aec:	50012900 	andpl	r2, r1, r0, lsl #18
    9af0:	29007402 	stmdbcs	r0, {r1, sl, ip, sp, lr}
    9af4:	30015101 	andcc	r5, r1, r1, lsl #2
    9af8:	92b42800 	adcsls	r2, r4, #0, 16
    9afc:	0ca70000 	stceq	0, cr0, [r7]
    9b00:	0ba70000 	bleq	fe9c9b08 <__bss_end__+0xfe9bfa98>
    9b04:	01290000 			; <UNDEFINED> instruction: 0x01290000
    9b08:	440c0550 	strmi	r0, [ip], #-1360	; 0xfffffab0
    9b0c:	29202150 	stmdbcs	r0!, {r4, r6, r8, sp}
    9b10:	30015101 	andcc	r5, r1, r1, lsl #2
    9b14:	92c02800 	sbcls	r2, r0, #0, 16
    9b18:	0ca70000 	stceq	0, cr0, [r7]
    9b1c:	0bc30000 	bleq	ff0c9b24 <__bss_end__+0xff0bfab4>
    9b20:	01290000 			; <UNDEFINED> instruction: 0x01290000
    9b24:	4c0c0550 	cfstr32mi	mvfx0, [ip], {80}	; 0x50
    9b28:	29202150 	stmdbcs	r0!, {r4, r6, r8, sp}
    9b2c:	33015101 	movwcc	r5, #4353	; 0x1101
    9b30:	92cc2800 	sbcls	r2, ip, #0, 16
    9b34:	0ca70000 	stceq	0, cr0, [r7]
    9b38:	0bdf0000 	bleq	ff7c9b40 <__bss_end__+0xff7bfad0>
    9b3c:	01290000 			; <UNDEFINED> instruction: 0x01290000
    9b40:	500c0550 	andpl	r0, ip, r0, asr r5
    9b44:	29202150 	stmdbcs	r0!, {r4, r6, r8, sp}
    9b48:	30015101 	andcc	r5, r1, r1, lsl #2
    9b4c:	92d82800 	sbcsls	r2, r8, #0, 16
    9b50:	0ca70000 	stceq	0, cr0, [r7]
    9b54:	0bfc0000 	bleq	fff09b5c <__bss_end__+0xffeffaec>
    9b58:	01290000 			; <UNDEFINED> instruction: 0x01290000
    9b5c:	480c0550 	stmdami	ip, {r4, r6, r8, sl}
    9b60:	29202150 	stmdbcs	r0!, {r4, r6, r8, sp}
    9b64:	08025101 	stmdaeq	r2, {r0, r8, ip, lr}
    9b68:	e42800c7 	strt	r0, [r8], #-199	; 0xffffff39
    9b6c:	a7000092 			; <UNDEFINED> instruction: 0xa7000092
    9b70:	1a00000c 	bne	9ba8 <__FUNCTION__.4253+0x44>
    9b74:	2900000c 	stmdbcs	r0, {r2, r3}
    9b78:	0c055001 	stceq	0, cr5, [r5], {1}
    9b7c:	20215068 	eorcs	r5, r1, r8, rrx
    9b80:	03510129 	cmpeq	r1, #1073741834	; 0x4000000a
    9b84:	00010e0a 	andeq	r0, r1, sl, lsl #28
    9b88:	0092f028 	addseq	pc, r2, r8, lsr #32
    9b8c:	000ca700 	andeq	sl, ip, r0, lsl #14
    9b90:	000c3300 	andeq	r3, ip, r0, lsl #6
    9b94:	50012900 	andpl	r2, r1, r0, lsl #18
    9b98:	29007402 	stmdbcs	r0, {r1, sl, ip, sp, lr}
    9b9c:	33015101 	movwcc	r5, #4353	; 0x1101
    9ba0:	92f42500 	rscsls	r2, r4, #0, 10
    9ba4:	0c9c0000 	ldceq	0, cr0, [ip], {0}
    9ba8:	2c000000 	stccs	0, cr0, [r0], {-0}
    9bac:	00000ad3 	ldrdeq	r0, [r0], -r3
    9bb0:	92482d01 	subls	r2, r8, #1, 26	; 0x40
    9bb4:	00200000 	eoreq	r0, r0, r0
    9bb8:	9c010000 	stcls	0, cr0, [r1], {-0}
    9bbc:	00000c95 	muleq	r0, r5, ip
    9bc0:	000c2a2d 	andeq	r2, ip, sp, lsr #20
    9bc4:	952d0100 	strls	r0, [sp, #-256]!	; 0xffffff00
    9bc8:	3100000c 	tstcc	r0, ip
    9bcc:	27000014 	smladcs	r0, r4, r0, r0
    9bd0:	006c6176 	rsbeq	r6, ip, r6, ror r1
    9bd4:	002c2d01 	eoreq	r2, ip, r1, lsl #26
    9bd8:	144f0000 	strbne	r0, [pc], #-0	; 9be0 <__FUNCTION__.4253+0x7c>
    9bdc:	58280000 	stmdapl	r8!, {}	; <UNPREDICTABLE>
    9be0:	b2000092 	andlt	r0, r0, #146	; 0x92
    9be4:	8400000c 	strhi	r0, [r0], #-12
    9be8:	2900000c 	stmdbcs	r0, {r2, r3}
    9bec:	74025001 	strvc	r5, [r2], #-1
    9bf0:	642b0000 	strtvs	r0, [fp], #-0
    9bf4:	a7000092 			; <UNDEFINED> instruction: 0xa7000092
    9bf8:	2900000c 	stmdbcs	r0, {r2, r3}
    9bfc:	74025001 	strvc	r5, [r2], #-1
    9c00:	0e000000 	cdpeq	0, 0, cr0, cr0, cr0, {0}
    9c04:	000c9b04 	andeq	r9, ip, r4, lsl #22
    9c08:	ca2f2e00 	bgt	bd5410 <__bss_end__+0xbcb3a0>
    9c0c:	ca000009 	bgt	9c38 <__FUNCTION__.4253+0xd4>
    9c10:	06000009 	streq	r0, [r0], -r9
    9c14:	0a342f89 	beq	d15a40 <__bss_end__+0xd0b9d0>
    9c18:	0a340000 	beq	d09c20 <__bss_end__+0xcffbb0>
    9c1c:	9c060000 	stcls	0, cr0, [r6], {-0}
    9c20:	000abf2f 	andeq	fp, sl, pc, lsr #30
    9c24:	000abf00 	andeq	fp, sl, r0, lsl #30
    9c28:	2fa80600 	svccs	0x00a80600
    9c2c:	000009ee 	andeq	r0, r0, lr, ror #19
    9c30:	000009ee 	andeq	r0, r0, lr, ror #19
    9c34:	70001908 	andvc	r1, r0, r8, lsl #18
    9c38:	0400000b 	streq	r0, [r0], #-11
    9c3c:	001f3e00 	andseq	r3, pc, r0, lsl #28
    9c40:	3a010400 	bcc	4ac48 <__bss_end__+0x40bd8>
    9c44:	0c00000a 	stceq	0, cr0, [r0], {10}
    9c48:	00000b37 	andeq	r0, r0, r7, lsr fp
    9c4c:	00000971 	andeq	r0, r0, r1, ror r9
    9c50:	000093c0 	andeq	r9, r0, r0, asr #7
    9c54:	00000120 	andeq	r0, r0, r0, lsr #2
    9c58:	00001a3d 	andeq	r1, r0, sp, lsr sl
    9c5c:	69050402 	stmdbvs	r5, {r1, sl}
    9c60:	0300746e 	movweq	r7, #1134	; 0x46e
    9c64:	00740704 	rsbseq	r0, r4, r4, lsl #14
    9c68:	2c040000 	stccs	0, cr0, [r4], {-0}
    9c6c:	03000000 	movweq	r0, #0
    9c70:	02f10601 	rscseq	r0, r1, #1048576	; 0x100000
    9c74:	02030000 	andeq	r0, r3, #0
    9c78:	00038a05 	andeq	r8, r3, r5, lsl #20
    9c7c:	05040300 	streq	r0, [r4, #-768]	; 0xfffffd00
    9c80:	000000ba 	strheq	r0, [r0], -sl
    9c84:	b5050803 	strlt	r0, [r5, #-2051]	; 0xfffff7fd
    9c88:	03000000 	movweq	r0, #0
    9c8c:	02ef0801 	rsceq	r0, pc, #65536	; 0x10000
    9c90:	02030000 	andeq	r0, r3, #0
    9c94:	00023007 	andeq	r3, r2, r7
    9c98:	07040300 	streq	r0, [r4, -r0, lsl #6]
    9c9c:	0000006f 	andeq	r0, r0, pc, rrx
    9ca0:	6a070803 	bvs	1cbcb4 <__bss_end__+0x1c1c44>
    9ca4:	05000000 	streq	r0, [r0, #-0]
    9ca8:	00000a05 	andeq	r0, r0, r5, lsl #20
    9cac:	00250702 	eoreq	r0, r5, r2, lsl #14
    9cb0:	d0050000 	andle	r0, r5, r0
    9cb4:	03000002 	movweq	r0, #2
    9cb8:	0000462c 	andeq	r4, r0, ip, lsr #12
    9cbc:	04450500 	strbeq	r0, [r5], #-1280	; 0xfffffb00
    9cc0:	72030000 	andvc	r0, r3, #0
    9cc4:	00000046 	andeq	r0, r0, r6, asr #32
    9cc8:	00027b06 	andeq	r7, r2, r6, lsl #22
    9ccc:	01650400 	cmneq	r5, r0, lsl #8
    9cd0:	0000002c 	andeq	r0, r0, ip, lsr #32
    9cd4:	a6030407 	strge	r0, [r3], -r7, lsl #8
    9cd8:	000000bc 	strheq	r0, [r0], -ip
    9cdc:	00026d08 	andeq	r6, r2, r8, lsl #26
    9ce0:	91a80300 			; <UNDEFINED> instruction: 0x91a80300
    9ce4:	08000000 	stmdaeq	r0, {}	; <UNPREDICTABLE>
    9ce8:	000001f0 	strdeq	r0, [r0], -r0	; <UNPREDICTABLE>
    9cec:	00bca903 	adcseq	sl, ip, r3, lsl #18
    9cf0:	09000000 	stmdbeq	r0, {}	; <UNPREDICTABLE>
    9cf4:	00000054 	andeq	r0, r0, r4, asr r0
    9cf8:	000000cc 	andeq	r0, r0, ip, asr #1
    9cfc:	0000cc0a 	andeq	ip, r0, sl, lsl #24
    9d00:	03000300 	movweq	r0, #768	; 0x300
    9d04:	09e50704 	stmibeq	r5!, {r2, r8, r9, sl}^
    9d08:	080b0000 	stmdaeq	fp, {}	; <UNPREDICTABLE>
    9d0c:	00f4a303 	rscseq	sl, r4, r3, lsl #6
    9d10:	280c0000 	stmdacs	ip, {}	; <UNPREDICTABLE>
    9d14:	03000004 	movweq	r0, #4
    9d18:	000025a5 	andeq	r2, r0, r5, lsr #11
    9d1c:	370c0000 	strcc	r0, [ip, -r0]
    9d20:	03000004 	movweq	r0, #4
    9d24:	00009daa 	andeq	r9, r0, sl, lsr #27
    9d28:	05000400 	streq	r0, [r0, #-1024]	; 0xfffffc00
    9d2c:	000003b2 			; <UNDEFINED> instruction: 0x000003b2
    9d30:	00d3ab03 	sbcseq	sl, r3, r3, lsl #22
    9d34:	ad050000 	stcge	0, cr0, [r5, #-0]
    9d38:	03000001 	movweq	r0, #1
    9d3c:	000070af 	andeq	r7, r0, pc, lsr #1
    9d40:	0e040d00 	cdpeq	13, 0, cr0, cr4, cr0, {0}
    9d44:	00011204 	andeq	r1, r1, r4, lsl #4
    9d48:	08010300 	stmdaeq	r1, {r8, r9}
    9d4c:	000002f8 	strdeq	r0, [r0], -r8
    9d50:	00011204 	andeq	r1, r1, r4, lsl #4
    9d54:	04770500 	ldrbteq	r0, [r7], #-1280	; 0xfffffb00
    9d58:	16050000 	strne	r0, [r5], -r0
    9d5c:	00000062 	andeq	r0, r0, r2, rrx
    9d60:	0001be0f 	andeq	fp, r1, pc, lsl #28
    9d64:	2d051800 	stccs	8, cr1, [r5, #-0]
    9d68:	0000017c 	andeq	r0, r0, ip, ror r1
    9d6c:	0003d30c 	andeq	sp, r3, ip, lsl #6
    9d70:	7c2f0500 	cfstr32vc	mvfx0, [pc], #-0	; 9d78 <buf.4297+0x108>
    9d74:	00000001 	andeq	r0, r0, r1
    9d78:	006b5f10 	rsbeq	r5, fp, r0, lsl pc
    9d7c:	00253005 	eoreq	r3, r5, r5
    9d80:	0c040000 	stceq	0, cr0, [r4], {-0}
    9d84:	00000413 	andeq	r0, r0, r3, lsl r4
    9d88:	00253005 	eoreq	r3, r5, r5
    9d8c:	0c080000 	stceq	0, cr0, [r8], {-0}
    9d90:	000001a7 	andeq	r0, r0, r7, lsr #3
    9d94:	00253005 	eoreq	r3, r5, r5
    9d98:	0c0c0000 	stceq	0, cr0, [ip], {-0}
    9d9c:	000004b3 			; <UNDEFINED> instruction: 0x000004b3
    9da0:	00253005 	eoreq	r3, r5, r5
    9da4:	10100000 	andsne	r0, r0, r0
    9da8:	0500785f 	streq	r7, [r0, #-2143]	; 0xfffff7a1
    9dac:	00018231 	andeq	r8, r1, r1, lsr r2
    9db0:	0e001400 	cfcpyseq	mvf1, mvf0
    9db4:	00012904 	andeq	r2, r1, r4, lsl #18
    9db8:	011e0900 	tsteq	lr, r0, lsl #18
    9dbc:	01920000 	orrseq	r0, r2, r0
    9dc0:	cc0a0000 	stcgt	0, cr0, [sl], {-0}
    9dc4:	00000000 	andeq	r0, r0, r0
    9dc8:	01eb0f00 	mvneq	r0, r0, lsl #30
    9dcc:	05240000 	streq	r0, [r4, #-0]!
    9dd0:	00020b35 	andeq	r0, r2, r5, lsr fp
    9dd4:	00ac0c00 	adceq	r0, ip, r0, lsl #24
    9dd8:	37050000 	strcc	r0, [r5, -r0]
    9ddc:	00000025 	andeq	r0, r0, r5, lsr #32
    9de0:	044d0c00 	strbeq	r0, [sp], #-3072	; 0xfffff400
    9de4:	38050000 	stmdacc	r5, {}	; <UNPREDICTABLE>
    9de8:	00000025 	andeq	r0, r0, r5, lsr #32
    9dec:	00cf0c04 	sbceq	r0, pc, r4, lsl #24
    9df0:	39050000 	stmdbcc	r5, {}	; <UNPREDICTABLE>
    9df4:	00000025 	andeq	r0, r0, r5, lsr #32
    9df8:	05340c08 	ldreq	r0, [r4, #-3080]!	; 0xfffff3f8
    9dfc:	3a050000 	bcc	149e04 <__bss_end__+0x13fd94>
    9e00:	00000025 	andeq	r0, r0, r5, lsr #32
    9e04:	02b40c0c 	adcseq	r0, r4, #12, 24	; 0xc00
    9e08:	3b050000 	blcc	149e10 <__bss_end__+0x13fda0>
    9e0c:	00000025 	andeq	r0, r0, r5, lsr #32
    9e10:	02960c10 	addseq	r0, r6, #16, 24	; 0x1000
    9e14:	3c050000 	stccc	0, cr0, [r5], {-0}
    9e18:	00000025 	andeq	r0, r0, r5, lsr #32
    9e1c:	04b80c14 	ldrteq	r0, [r8], #3092	; 0xc14
    9e20:	3d050000 	stccc	0, cr0, [r5, #-0]
    9e24:	00000025 	andeq	r0, r0, r5, lsr #32
    9e28:	03940c18 	orrseq	r0, r4, #24, 24	; 0x1800
    9e2c:	3e050000 	cdpcc	0, 0, cr0, cr5, cr0, {0}
    9e30:	00000025 	andeq	r0, r0, r5, lsr #32
    9e34:	04fb0c1c 	ldrbteq	r0, [fp], #3100	; 0xc1c
    9e38:	3f050000 	svccc	0x00050000
    9e3c:	00000025 	andeq	r0, r0, r5, lsr #32
    9e40:	0f110020 	svceq	0x00110020
    9e44:	08000001 	stmdaeq	r0, {r0}
    9e48:	4b480501 	blmi	120b254 <__bss_end__+0x12011e4>
    9e4c:	0c000002 	stceq	0, cr0, [r0], {2}
    9e50:	0000019a 	muleq	r0, sl, r1
    9e54:	024b4905 	subeq	r4, fp, #81920	; 0x14000
    9e58:	0c000000 	stceq	0, cr0, [r0], {-0}
    9e5c:	00000000 	andeq	r0, r0, r0
    9e60:	024b4a05 	subeq	r4, fp, #20480	; 0x5000
    9e64:	12800000 	addne	r0, r0, #0
    9e68:	00000469 	andeq	r0, r0, r9, ror #8
    9e6c:	011e4c05 	tsteq	lr, r5, lsl #24
    9e70:	01000000 	mrseq	r0, (UNDEF: 0)
    9e74:	00013412 	andeq	r3, r1, r2, lsl r4
    9e78:	1e4f0500 	cdpne	5, 4, cr0, cr15, cr0, {0}
    9e7c:	04000001 	streq	r0, [r0], #-1
    9e80:	0a090001 	beq	249e8c <__bss_end__+0x23fe1c>
    9e84:	5b000001 	blpl	9e90 <buf.4297+0x220>
    9e88:	0a000002 	beq	9e98 <buf.4297+0x228>
    9e8c:	000000cc 	andeq	r0, r0, ip, asr #1
    9e90:	bd11001f 	ldclt	0, cr0, [r1, #-124]	; 0xffffff84
    9e94:	90000002 	andls	r0, r0, r2
    9e98:	995b0501 	ldmdbls	fp, {r0, r8, sl}^
    9e9c:	0c000002 	stceq	0, cr0, [r0], {2}
    9ea0:	000003d3 	ldrdeq	r0, [r0], -r3
    9ea4:	02995c05 	addseq	r5, r9, #1280	; 0x500
    9ea8:	0c000000 	stceq	0, cr0, [r0], {-0}
    9eac:	000003eb 	andeq	r0, r0, fp, ror #7
    9eb0:	00255d05 	eoreq	r5, r5, r5, lsl #26
    9eb4:	0c040000 	stceq	0, cr0, [r4], {-0}
    9eb8:	000001a2 	andeq	r0, r0, r2, lsr #3
    9ebc:	029f5f05 	addseq	r5, pc, #5, 30
    9ec0:	0c080000 	stceq	0, cr0, [r8], {-0}
    9ec4:	0000010f 	andeq	r0, r0, pc, lsl #2
    9ec8:	020b6005 	andeq	r6, fp, #5
    9ecc:	00880000 	addeq	r0, r8, r0
    9ed0:	025b040e 	subseq	r0, fp, #234881024	; 0xe000000
    9ed4:	af090000 	svcge	0x00090000
    9ed8:	af000002 	svcge	0x00000002
    9edc:	0a000002 	beq	9eec <buf.4297+0x27c>
    9ee0:	000000cc 	andeq	r0, r0, ip, asr #1
    9ee4:	040e001f 	streq	r0, [lr], #-31	; 0xffffffe1
    9ee8:	000002b5 			; <UNDEFINED> instruction: 0x000002b5
    9eec:	039e0f13 	orrseq	r0, lr, #19, 30	; 0x4c
    9ef0:	05080000 	streq	r0, [r8, #-0]
    9ef4:	0002db73 	andeq	sp, r2, r3, ror fp
    9ef8:	00c90c00 	sbceq	r0, r9, r0, lsl #24
    9efc:	74050000 	strvc	r0, [r5], #-0
    9f00:	000002db 	ldrdeq	r0, [r0], -fp
    9f04:	001b0c00 	andseq	r0, fp, r0, lsl #24
    9f08:	75050000 	strvc	r0, [r5, #-0]
    9f0c:	00000025 	andeq	r0, r0, r5, lsr #32
    9f10:	040e0004 	streq	r0, [lr], #-4
    9f14:	00000054 	andeq	r0, r0, r4, asr r0
    9f18:	0003bd0f 	andeq	fp, r3, pc, lsl #26
    9f1c:	b3056800 	movwlt	r6, #22528	; 0x5800
    9f20:	0000040b 	andeq	r0, r0, fp, lsl #8
    9f24:	00705f10 	rsbseq	r5, r0, r0, lsl pc
    9f28:	02dbb405 	sbcseq	fp, fp, #83886080	; 0x5000000
    9f2c:	10000000 	andne	r0, r0, r0
    9f30:	0500725f 	streq	r7, [r0, #-607]	; 0xfffffda1
    9f34:	000025b5 			; <UNDEFINED> instruction: 0x000025b5
    9f38:	5f100400 	svcpl	0x00100400
    9f3c:	b6050077 			; <UNDEFINED> instruction: 0xb6050077
    9f40:	00000025 	andeq	r0, r0, r5, lsr #32
    9f44:	012d0c08 			; <UNDEFINED> instruction: 0x012d0c08
    9f48:	b7050000 	strlt	r0, [r5, -r0]
    9f4c:	0000003f 	andeq	r0, r0, pc, lsr r0
    9f50:	02160c0c 	andseq	r0, r6, #12, 24	; 0xc00
    9f54:	b8050000 	stmdalt	r5, {}	; <UNPREDICTABLE>
    9f58:	0000003f 	andeq	r0, r0, pc, lsr r0
    9f5c:	625f100e 	subsvs	r1, pc, #14
    9f60:	b9050066 	stmdblt	r5, {r1, r2, r5, r6}
    9f64:	000002b6 			; <UNDEFINED> instruction: 0x000002b6
    9f68:	00890c10 	addeq	r0, r9, r0, lsl ip
    9f6c:	ba050000 	blt	149f74 <__bss_end__+0x13ff04>
    9f70:	00000025 	andeq	r0, r0, r5, lsr #32
    9f74:	011d0c18 	tsteq	sp, r8, lsl ip
    9f78:	c1050000 	mrsgt	r0, (UNDEF: 5)
    9f7c:	0000010a 	andeq	r0, r0, sl, lsl #2
    9f80:	0b420c1c 	bleq	108cff8 <__bss_end__+0x1082f88>
    9f84:	c3050000 	movwgt	r0, #20480	; 0x5000
    9f88:	00000566 	andeq	r0, r0, r6, ror #10
    9f8c:	06370c20 	ldrteq	r0, [r7], -r0, lsr #24
    9f90:	c5050000 	strgt	r0, [r5, #-0]
    9f94:	00000590 	muleq	r0, r0, r5
    9f98:	043f0c24 	ldrteq	r0, [pc], #-3108	; 9fa0 <buf.4297+0x330>
    9f9c:	c8050000 	stmdagt	r5, {}	; <UNPREDICTABLE>
    9fa0:	000005b4 			; <UNDEFINED> instruction: 0x000005b4
    9fa4:	05150c28 	ldreq	r0, [r5, #-3112]	; 0xfffff3d8
    9fa8:	c9050000 	stmdbgt	r5, {}	; <UNPREDICTABLE>
    9fac:	000005ce 	andeq	r0, r0, lr, asr #11
    9fb0:	755f102c 	ldrbvc	r1, [pc, #-44]	; 9f8c <buf.4297+0x31c>
    9fb4:	cc050062 	stcgt	0, cr0, [r5], {98}	; 0x62
    9fb8:	000002b6 			; <UNDEFINED> instruction: 0x000002b6
    9fbc:	755f1030 	ldrbvc	r1, [pc, #-48]	; 9f94 <buf.4297+0x324>
    9fc0:	cd050070 	stcgt	0, cr0, [r5, #-448]	; 0xfffffe40
    9fc4:	000002db 	ldrdeq	r0, [r0], -fp
    9fc8:	755f1038 	ldrbvc	r1, [pc, #-56]	; 9f98 <buf.4297+0x328>
    9fcc:	ce050072 	mcrgt	0, 0, r0, cr5, cr2, {3}
    9fd0:	00000025 	andeq	r0, r0, r5, lsr #32
    9fd4:	00c30c3c 	sbceq	r0, r3, ip, lsr ip
    9fd8:	d1050000 	mrsle	r0, (UNDEF: 5)
    9fdc:	000005d4 	ldrdeq	r0, [r0], -r4
    9fe0:	04ed0c40 	strbteq	r0, [sp], #3136	; 0xc40
    9fe4:	d2050000 	andle	r0, r5, #0
    9fe8:	000005e4 	andeq	r0, r0, r4, ror #11
    9fec:	6c5f1043 	mrrcvs	0, 4, r1, pc, cr3	; <UNPREDICTABLE>
    9ff0:	d5050062 	strle	r0, [r5, #-98]	; 0xffffff9e
    9ff4:	000002b6 			; <UNDEFINED> instruction: 0x000002b6
    9ff8:	014b0c44 	cmpeq	fp, r4, asr #24
    9ffc:	d8050000 	stmdale	r5, {}	; <UNPREDICTABLE>
    a000:	00000025 	andeq	r0, r0, r5, lsr #32
    a004:	015c0c4c 	cmpeq	ip, ip, asr #24
    a008:	d9050000 	stmdble	r5, {}	; <UNPREDICTABLE>
    a00c:	0000007b 	andeq	r0, r0, fp, ror r0
    a010:	0ae30c50 	beq	ff8cd158 <__bss_end__+0xff8c30e8>
    a014:	dc050000 	stcle	0, cr0, [r5], {-0}
    a018:	00000429 	andeq	r0, r0, r9, lsr #8
    a01c:	04310c54 	ldrteq	r0, [r1], #-3156	; 0xfffff3ac
    a020:	e0050000 	and	r0, r5, r0
    a024:	000000ff 	strdeq	r0, [r0], -pc	; <UNPREDICTABLE>
    a028:	03c50c58 	biceq	r0, r5, #88, 24	; 0x5800
    a02c:	e2050000 	and	r0, r5, #0
    a030:	000000f4 	strdeq	r0, [r0], -r4
    a034:	028e0c5c 	addeq	r0, lr, #92, 24	; 0x5c00
    a038:	e3050000 	movw	r0, #20480	; 0x5000
    a03c:	00000025 	andeq	r0, r0, r5, lsr #32
    a040:	25140064 	ldrcs	r0, [r4, #-100]	; 0xffffff9c
    a044:	29000000 	stmdbcs	r0, {}	; <UNPREDICTABLE>
    a048:	15000004 	strne	r0, [r0, #-4]
    a04c:	00000429 	andeq	r0, r0, r9, lsr #8
    a050:	00010a15 	andeq	r0, r1, r5, lsl sl
    a054:	010c1500 	tsteq	ip, r0, lsl #10
    a058:	25150000 	ldrcs	r0, [r5, #-0]
    a05c:	00000000 	andeq	r0, r0, r0
    a060:	0434040e 	ldrteq	r0, [r4], #-1038	; 0xfffffbf2
    a064:	29040000 	stmdbcs	r4, {}	; <UNPREDICTABLE>
    a068:	16000004 	strne	r0, [r0], -r4
    a06c:	0000041b 	andeq	r0, r0, fp, lsl r4
    a070:	38050428 	stmdacc	r5, {r3, r5, sl}
    a074:	00056602 	andeq	r6, r5, r2, lsl #12
    a078:	03831700 	orreq	r1, r3, #0, 14
    a07c:	3a050000 	bcc	14a084 <__bss_end__+0x140014>
    a080:	00002502 	andeq	r2, r0, r2, lsl #10
    a084:	3c170000 	ldccc	0, cr0, [r7], {-0}
    a088:	05000001 	streq	r0, [r0, #-1]
    a08c:	063b023f 			; <UNDEFINED> instruction: 0x063b023f
    a090:	17040000 	strne	r0, [r4, -r0]
    a094:	00000206 	andeq	r0, r0, r6, lsl #4
    a098:	3b023f05 	blcc	99cb4 <__bss_end__+0x8fc44>
    a09c:	08000006 	stmdaeq	r0, {r1, r2}
    a0a0:	0001b617 	andeq	fp, r1, r7, lsl r6
    a0a4:	023f0500 	eorseq	r0, pc, #0, 10
    a0a8:	0000063b 	andeq	r0, r0, fp, lsr r6
    a0ac:	03e6170c 	mvneq	r1, #12, 14	; 0x300000
    a0b0:	41050000 	mrsmi	r0, (UNDEF: 5)
    a0b4:	00002502 	andeq	r2, r0, r2, lsl #10
    a0b8:	37171000 	ldrcc	r1, [r7, -r0]
    a0bc:	05000000 	streq	r0, [r0, #-0]
    a0c0:	081d0242 	ldmdaeq	sp, {r1, r6, r9}
    a0c4:	17140000 	ldrne	r0, [r4, -r0]
    a0c8:	00000a9c 	muleq	r0, ip, sl
    a0cc:	25024405 	strcs	r4, [r2, #-1029]	; 0xfffffbfb
    a0d0:	30000000 	andcc	r0, r0, r0
    a0d4:	000a1717 	andeq	r1, sl, r7, lsl r7
    a0d8:	02450500 	subeq	r0, r5, #0, 10
    a0dc:	0000058a 	andeq	r0, r0, sl, lsl #11
    a0e0:	02c51734 	sbceq	r1, r5, #52, 14	; 0xd00000
    a0e4:	47050000 	strmi	r0, [r5, -r0]
    a0e8:	00002502 	andeq	r2, r0, r2, lsl #10
    a0ec:	f0173800 			; <UNDEFINED> instruction: 0xf0173800
    a0f0:	05000003 	streq	r0, [r0, #-3]
    a0f4:	08380249 	ldmdaeq	r8!, {r0, r3, r6, r9}
    a0f8:	173c0000 	ldrne	r0, [ip, -r0]!
    a0fc:	00000265 	andeq	r0, r0, r5, ror #4
    a100:	7c024c05 	stcvc	12, cr4, [r2], {5}
    a104:	40000001 	andmi	r0, r0, r1
    a108:	0001d517 	andeq	sp, r1, r7, lsl r5
    a10c:	024d0500 	subeq	r0, sp, #0, 10
    a110:	00000025 	andeq	r0, r0, r5, lsr #32
    a114:	052f1744 	streq	r1, [pc, #-1860]!	; 99d8 <__FUNCTION__.4337+0x2b0>
    a118:	4e050000 	cdpmi	0, 0, cr0, cr5, cr0, {0}
    a11c:	00017c02 	andeq	r7, r1, r2, lsl #24
    a120:	d7174800 	ldrle	r4, [r7, -r0, lsl #16]
    a124:	05000002 	streq	r0, [r0, #-2]
    a128:	083e024f 	ldmdaeq	lr!, {r0, r1, r2, r3, r6, r9}
    a12c:	174c0000 	strbne	r0, [ip, -r0]
    a130:	0000020e 	andeq	r0, r0, lr, lsl #4
    a134:	25025205 	strcs	r5, [r2, #-517]	; 0xfffffdfb
    a138:	50000000 	andpl	r0, r0, r0
    a13c:	00015417 	andeq	r5, r1, r7, lsl r4
    a140:	02530500 	subseq	r0, r3, #0, 10
    a144:	0000010c 	andeq	r0, r0, ip, lsl #2
    a148:	02fd1754 	rscseq	r1, sp, #84, 14	; 0x1500000
    a14c:	76050000 	strvc	r0, [r5], -r0
    a150:	0007fb02 	andeq	pc, r7, r2, lsl #22
    a154:	bd185800 	ldclt	8, cr5, [r8, #-0]
    a158:	05000002 	streq	r0, [r0, #-2]
    a15c:	0299027a 	addseq	r0, r9, #-1610612729	; 0xa0000007
    a160:	01480000 	mrseq	r0, (UNDEF: 72)
    a164:	00024318 	andeq	r4, r2, r8, lsl r3
    a168:	027b0500 	rsbseq	r0, fp, #0, 10
    a16c:	0000025b 	andeq	r0, r0, fp, asr r2
    a170:	db18014c 	blle	60a6a8 <__bss_end__+0x600638>
    a174:	05000004 	streq	r0, [r0, #-4]
    a178:	084f027f 	stmdaeq	pc, {r0, r1, r2, r3, r4, r5, r6, r9}^	; <UNPREDICTABLE>
    a17c:	02dc0000 	sbcseq	r0, ip, #0
    a180:	00012518 	andeq	r2, r1, r8, lsl r5
    a184:	02840500 	addeq	r0, r4, #0, 10
    a188:	00000600 	andeq	r0, r0, r0, lsl #12
    a18c:	0a1802e0 	beq	60ad14 <__bss_end__+0x600ca4>
    a190:	05000001 	streq	r0, [r0, #-1]
    a194:	085b0285 	ldmdaeq	fp, {r0, r2, r7, r9}^
    a198:	02ec0000 	rsceq	r0, ip, #0
    a19c:	0b040e00 	bleq	10d9a4 <__bss_end__+0x103934>
    a1a0:	14000004 	strne	r0, [r0], #-4
    a1a4:	00000025 	andeq	r0, r0, r5, lsr #32
    a1a8:	0000058a 	andeq	r0, r0, sl, lsl #11
    a1ac:	00042915 	andeq	r2, r4, r5, lsl r9
    a1b0:	010a1500 	tsteq	sl, r0, lsl #10
    a1b4:	8a150000 	bhi	54a1bc <__bss_end__+0x54014c>
    a1b8:	15000005 	strne	r0, [r0, #-5]
    a1bc:	00000025 	andeq	r0, r0, r5, lsr #32
    a1c0:	19040e00 	stmdbne	r4, {r9, sl, fp}
    a1c4:	0e000001 	cdpeq	0, 0, cr0, cr0, cr1, {0}
    a1c8:	00056c04 	andeq	r6, r5, r4, lsl #24
    a1cc:	00861400 	addeq	r1, r6, r0, lsl #8
    a1d0:	05b40000 	ldreq	r0, [r4, #0]!
    a1d4:	29150000 	ldmdbcs	r5, {}	; <UNPREDICTABLE>
    a1d8:	15000004 	strne	r0, [r0, #-4]
    a1dc:	0000010a 	andeq	r0, r0, sl, lsl #2
    a1e0:	00008615 	andeq	r8, r0, r5, lsl r6
    a1e4:	00251500 	eoreq	r1, r5, r0, lsl #10
    a1e8:	0e000000 	cdpeq	0, 0, cr0, cr0, cr0, {0}
    a1ec:	00059604 	andeq	r9, r5, r4, lsl #12
    a1f0:	00251400 	eoreq	r1, r5, r0, lsl #8
    a1f4:	05ce0000 	strbeq	r0, [lr]
    a1f8:	29150000 	ldmdbcs	r5, {}	; <UNPREDICTABLE>
    a1fc:	15000004 	strne	r0, [r0, #-4]
    a200:	0000010a 	andeq	r0, r0, sl, lsl #2
    a204:	ba040e00 	blt	10da0c <__bss_end__+0x10399c>
    a208:	09000005 	stmdbeq	r0, {r0, r2}
    a20c:	00000054 	andeq	r0, r0, r4, asr r0
    a210:	000005e4 	andeq	r0, r0, r4, ror #11
    a214:	0000cc0a 	andeq	ip, r0, sl, lsl #24
    a218:	09000200 	stmdbeq	r0, {r9}
    a21c:	00000054 	andeq	r0, r0, r4, asr r0
    a220:	000005f4 	strdeq	r0, [r0], -r4
    a224:	0000cc0a 	andeq	ip, r0, sl, lsl #24
    a228:	06000000 	streq	r0, [r0], -r0
    a22c:	000003ab 	andeq	r0, r0, fp, lsr #7
    a230:	e1011d05 	tst	r1, r5, lsl #26
    a234:	19000002 	stmdbne	r0, {r1}
    a238:	000004c2 	andeq	r0, r0, r2, asr #9
    a23c:	0121050c 			; <UNDEFINED> instruction: 0x0121050c
    a240:	00000635 	andeq	r0, r0, r5, lsr r6
    a244:	0003d317 	andeq	sp, r3, r7, lsl r3
    a248:	01230500 			; <UNDEFINED> instruction: 0x01230500
    a24c:	00000635 	andeq	r0, r0, r5, lsr r6
    a250:	02291700 	eoreq	r1, r9, #0, 14
    a254:	24050000 	strcs	r0, [r5], #-0
    a258:	00002501 	andeq	r2, r0, r1, lsl #10
    a25c:	a5170400 	ldrge	r0, [r7, #-1024]	; 0xfffffc00
    a260:	05000003 	streq	r0, [r0, #-3]
    a264:	063b0125 	ldrteq	r0, [fp], -r5, lsr #2
    a268:	00080000 	andeq	r0, r8, r0
    a26c:	0600040e 	streq	r0, [r0], -lr, lsl #8
    a270:	040e0000 	streq	r0, [lr], #-0
    a274:	000005f4 	strdeq	r0, [r0], -r4
    a278:	00002f19 	andeq	r2, r0, r9, lsl pc
    a27c:	3d050e00 	stccc	14, cr0, [r5, #-0]
    a280:	00067601 	andeq	r7, r6, r1, lsl #12
    a284:	04221700 	strteq	r1, [r2], #-1792	; 0xfffff900
    a288:	3e050000 	cdpcc	0, 0, cr0, cr5, cr0, {0}
    a28c:	00067601 	andeq	r7, r6, r1, lsl #12
    a290:	56170000 	ldrpl	r0, [r7], -r0
    a294:	05000004 	streq	r0, [r0, #-4]
    a298:	0676013f 			; <UNDEFINED> instruction: 0x0676013f
    a29c:	17060000 	strne	r0, [r6, -r0]
    a2a0:	00000472 	andeq	r0, r0, r2, ror r4
    a2a4:	5b014005 	blpl	5a2c0 <__bss_end__+0x50250>
    a2a8:	0c000000 	stceq	0, cr0, [r0], {-0}
    a2ac:	005b0900 	subseq	r0, fp, r0, lsl #18
    a2b0:	06860000 	streq	r0, [r6], r0
    a2b4:	cc0a0000 	stcgt	0, cr0, [sl], {-0}
    a2b8:	02000000 	andeq	r0, r0, #0
    a2bc:	05d01a00 	ldrbeq	r1, [r0, #2560]	; 0xa00
    a2c0:	07870257 			; <UNDEFINED> instruction: 0x07870257
    a2c4:	a6170000 	ldrge	r0, [r7], -r0
    a2c8:	05000004 	streq	r0, [r0, #-4]
    a2cc:	002c0259 	eoreq	r0, ip, r9, asr r2
    a2d0:	17000000 	strne	r0, [r0, -r0]
    a2d4:	0000045c 	andeq	r0, r0, ip, asr r4
    a2d8:	0c025a05 			; <UNDEFINED> instruction: 0x0c025a05
    a2dc:	04000001 	streq	r0, [r0], #-1
    a2e0:	00025817 	andeq	r5, r2, r7, lsl r8
    a2e4:	025b0500 	subseq	r0, fp, #0, 10
    a2e8:	00000787 	andeq	r0, r0, r7, lsl #15
    a2ec:	05061708 	streq	r1, [r6, #-1800]	; 0xfffff8f8
    a2f0:	5c050000 	stcpl	0, cr0, [r5], {-0}
    a2f4:	00019202 	andeq	r9, r1, r2, lsl #4
    a2f8:	c6172400 	ldrgt	r2, [r7], -r0, lsl #8
    a2fc:	05000001 	streq	r0, [r0, #-1]
    a300:	0025025d 	eoreq	r0, r5, sp, asr r2
    a304:	17480000 	strbne	r0, [r8, -r0]
    a308:	000003ce 	andeq	r0, r0, lr, asr #7
    a30c:	69025e05 	stmdbvs	r2, {r0, r2, r9, sl, fp, ip, lr}
    a310:	50000000 	andpl	r0, r0, r0
    a314:	00051c17 	andeq	r1, r5, r7, lsl ip
    a318:	025f0500 	subseq	r0, pc, #0, 10
    a31c:	00000641 	andeq	r0, r0, r1, asr #12
    a320:	03d91758 	bicseq	r1, r9, #88, 14	; 0x1600000
    a324:	60050000 	andvs	r0, r5, r0
    a328:	0000f402 	andeq	pc, r0, r2, lsl #8
    a32c:	21176800 	tstcs	r7, r0, lsl #16
    a330:	05000005 	streq	r0, [r0, #-5]
    a334:	00f40261 	rscseq	r0, r4, r1, ror #4
    a338:	17700000 	ldrbne	r0, [r0, -r0]!
    a33c:	000002e1 	andeq	r0, r0, r1, ror #5
    a340:	f4026205 	vst1.8	{d6-d9}, [r2], r5
    a344:	78000000 	stmdavc	r0, {}	; <UNPREDICTABLE>
    a348:	0004d117 	andeq	sp, r4, r7, lsl r1
    a34c:	02630500 	rsbeq	r0, r3, #0, 10
    a350:	00000797 	muleq	r0, r7, r7
    a354:	024c1780 	subeq	r1, ip, #128, 14	; 0x2000000
    a358:	64050000 	strvs	r0, [r5], #-0
    a35c:	0007a702 	andeq	sl, r7, r2, lsl #14
    a360:	7f178800 	svcvc	0x00178800
    a364:	05000004 	streq	r0, [r0, #-4]
    a368:	00250265 	eoreq	r0, r5, r5, ror #4
    a36c:	17a00000 	strne	r0, [r0, r0]!
    a370:	0000018c 	andeq	r0, r0, ip, lsl #3
    a374:	f4026605 	vst1.8	{d6-d8}, [r2], r5
    a378:	a4000000 	strge	r0, [r0], #-0
    a37c:	00009d17 	andeq	r9, r0, r7, lsl sp
    a380:	02670500 	rsbeq	r0, r7, #0, 10
    a384:	000000f4 	strdeq	r0, [r0], -r4
    a388:	017b17ac 	cmneq	fp, ip, lsr #15
    a38c:	68050000 	stmdavs	r5, {}	; <UNPREDICTABLE>
    a390:	0000f402 	andeq	pc, r0, r2, lsl #8
    a394:	4a17b400 	bmi	5f739c <__bss_end__+0x5ed32c>
    a398:	05000000 	streq	r0, [r0, #-0]
    a39c:	00f40269 	rscseq	r0, r4, r9, ror #4
    a3a0:	17bc0000 	ldrne	r0, [ip, r0]!
    a3a4:	00000059 	andeq	r0, r0, r9, asr r0
    a3a8:	f4026a05 	vst1.8	{d6-d7}, [r2], r5
    a3ac:	c4000000 	strgt	r0, [r0], #-0
    a3b0:	00038117 	andeq	r8, r3, r7, lsl r1
    a3b4:	026b0500 	rsbeq	r0, fp, #0, 10
    a3b8:	00000025 	andeq	r0, r0, r5, lsr #32
    a3bc:	120900cc 	andne	r0, r9, #204	; 0xcc
    a3c0:	97000001 	strls	r0, [r0, -r1]
    a3c4:	0a000007 	beq	a3e8 <__bss_end__+0x378>
    a3c8:	000000cc 	andeq	r0, r0, ip, asr #1
    a3cc:	12090019 	andne	r0, r9, #25
    a3d0:	a7000001 	strge	r0, [r0, -r1]
    a3d4:	0a000007 	beq	a3f8 <__bss_end__+0x388>
    a3d8:	000000cc 	andeq	r0, r0, ip, asr #1
    a3dc:	12090007 	andne	r0, r9, #7
    a3e0:	b7000001 	strlt	r0, [r0, -r1]
    a3e4:	0a000007 	beq	a408 <__bss_end__+0x398>
    a3e8:	000000cc 	andeq	r0, r0, ip, asr #1
    a3ec:	f01a0017 			; <UNDEFINED> instruction: 0xf01a0017
    a3f0:	db027005 	blle	a640c <__bss_end__+0x9c39c>
    a3f4:	17000007 	strne	r0, [r0, -r7]
    a3f8:	000002ad 	andeq	r0, r0, sp, lsr #5
    a3fc:	db027305 	blle	a7018 <__bss_end__+0x9cfa8>
    a400:	00000007 	andeq	r0, r0, r7
    a404:	0004c817 	andeq	ip, r4, r7, lsl r8
    a408:	02740500 	rsbseq	r0, r4, #0, 10
    a40c:	000007eb 	andeq	r0, r0, fp, ror #15
    a410:	db090078 	blle	24a5f8 <__bss_end__+0x240588>
    a414:	eb000002 	bl	a424 <__bss_end__+0x3b4>
    a418:	0a000007 	beq	a43c <__bss_end__+0x3cc>
    a41c:	000000cc 	andeq	r0, r0, ip, asr #1
    a420:	2c09001d 	stccs	0, cr0, [r9], {29}
    a424:	fb000000 	blx	a42e <__bss_end__+0x3be>
    a428:	0a000007 	beq	a44c <__bss_end__+0x3dc>
    a42c:	000000cc 	andeq	r0, r0, ip, asr #1
    a430:	f01b001d 			; <UNDEFINED> instruction: 0xf01b001d
    a434:	1d025505 	cfstr32ne	mvfx5, [r2, #-20]	; 0xffffffec
    a438:	1c000008 	stcne	0, cr0, [r0], {8}
    a43c:	0000041b 	andeq	r0, r0, fp, lsl r4
    a440:	86026c05 	strhi	r6, [r2], -r5, lsl #24
    a444:	1c000006 	stcne	0, cr0, [r0], {6}
    a448:	000004f3 	strdeq	r0, [r0], -r3
    a44c:	b7027505 	strlt	r7, [r2, -r5, lsl #10]
    a450:	00000007 	andeq	r0, r0, r7
    a454:	00011209 	andeq	r1, r1, r9, lsl #4
    a458:	00082d00 	andeq	r2, r8, r0, lsl #26
    a45c:	00cc0a00 	sbceq	r0, ip, r0, lsl #20
    a460:	00180000 	andseq	r0, r8, r0
    a464:	0008381d 	andeq	r3, r8, sp, lsl r8
    a468:	04291500 	strteq	r1, [r9], #-1280	; 0xfffffb00
    a46c:	0e000000 	cdpeq	0, 0, cr0, cr0, cr0, {0}
    a470:	00082d04 	andeq	r2, r8, r4, lsl #26
    a474:	7c040e00 	stcvc	14, cr0, [r4], {-0}
    a478:	1d000001 	stcne	0, cr0, [r0, #-4]
    a47c:	0000084f 	andeq	r0, r0, pc, asr #16
    a480:	00002515 	andeq	r2, r0, r5, lsl r5
    a484:	040e0000 	streq	r0, [lr], #-0
    a488:	00000855 	andeq	r0, r0, r5, asr r8
    a48c:	0844040e 	stmdaeq	r4, {r1, r2, r3, sl}^
    a490:	f4090000 	vst4.8	{d0-d3}, [r9], r0
    a494:	6b000005 	blvs	a4b0 <__bss_end__+0x440>
    a498:	0a000008 	beq	a4c0 <__bss_end__+0x450>
    a49c:	000000cc 	andeq	r0, r0, ip, asr #1
    a4a0:	931e0002 	tstls	lr, #2
    a4a4:	05000004 	streq	r0, [r0, #-4]
    a4a8:	042902fd 	strteq	r0, [r9], #-765	; 0xfffffd03
    a4ac:	8c1e0000 	ldchi	0, cr0, [lr], {-0}
    a4b0:	05000004 	streq	r0, [r0, #-4]
    a4b4:	042f02fe 	strteq	r0, [pc], #-766	; a4bc <__bss_end__+0x44c>
    a4b8:	25140000 	ldrcs	r0, [r4, #-0]
    a4bc:	92000000 	andls	r0, r0, #0
    a4c0:	15000008 	strne	r0, [r0, #-8]
    a4c4:	00000025 	andeq	r0, r0, r5, lsr #32
    a4c8:	01df1f00 	bicseq	r1, pc, r0, lsl #30
    a4cc:	1d060000 	stcne	0, cr0, [r6, #-0]
    a4d0:	0000089d 	muleq	r0, sp, r8
    a4d4:	0883040e 	stmeq	r3, {r1, r2, r3, sl}
    a4d8:	25140000 	ldrcs	r0, [r4, #-0]
    a4dc:	b2000000 	andlt	r0, r0, #0
    a4e0:	15000008 	strne	r0, [r0, #-8]
    a4e4:	0000058a 	andeq	r0, r0, sl, lsl #11
    a4e8:	07861f00 	streq	r1, [r6, r0, lsl #30]
    a4ec:	22060000 	andcs	r0, r6, #0
    a4f0:	000008bd 			; <UNDEFINED> instruction: 0x000008bd
    a4f4:	08a3040e 	stmiaeq	r3!, {r1, r2, r3, sl}
    a4f8:	01200000 			; <UNDEFINED> instruction: 0x01200000
    a4fc:	00000054 	andeq	r0, r0, r4, asr r0
    a500:	09000c07 	stmdbeq	r0, {r0, r1, r2, sl, fp}
    a504:	35210000 	strcc	r0, [r1, #-0]!
    a508:	00000009 	andeq	r0, r0, r9
    a50c:	000aae21 	andeq	sl, sl, r1, lsr #28
    a510:	e9210100 	stmdb	r1!, {r8}
    a514:	0400000a 	streq	r0, [r0], #-10
    a518:	00094a21 	andeq	r4, r9, r1, lsr #20
    a51c:	d6210500 	strtle	r0, [r1], -r0, lsl #10
    a520:	06000009 	streq	r0, [r0], -r9
    a524:	000af821 	andeq	pc, sl, r1, lsr #16
    a528:	07210700 	streq	r0, [r1, -r0, lsl #14]!
    a52c:	0300000b 	movweq	r0, #11
    a530:	000b1621 	andeq	r1, fp, r1, lsr #12
    a534:	05000200 	streq	r0, [r0, #-512]	; 0xfffffe00
    a538:	00000b92 	muleq	r0, r2, fp
    a53c:	08c31507 	stmiaeq	r3, {r0, r1, r2, r8, sl, ip}^
    a540:	63220000 			; <UNDEFINED> instruction: 0x63220000
    a544:	0100000b 	tsteq	r0, fp
    a548:	0000331d 	andeq	r3, r0, sp, lsl r3
    a54c:	20001c00 	andcs	r1, r0, r0, lsl #24
    a550:	0b9e2220 	bleq	fe792dd8 <__bss_end__+0xfe788d68>
    a554:	1e010000 	cdpne	0, 0, cr0, cr1, cr0, {0}
    a558:	00000033 	andeq	r0, r0, r3, lsr r0
    a55c:	20200028 	eorcs	r0, r0, r8, lsr #32
    a560:	000b6d22 	andeq	r6, fp, r2, lsr #26
    a564:	331f0100 	tstcc	pc, #0, 2
    a568:	34000000 	strcc	r0, [r0], #-0
    a56c:	23202000 	nopcs	{0}	; <UNPREDICTABLE>
    a570:	00000b3e 	andeq	r0, r0, lr, lsr fp
    a574:	00255601 	eoreq	r5, r5, r1, lsl #12
    a578:	94ac0000 	strtls	r0, [ip], #0
    a57c:	00340000 	eorseq	r0, r4, r0
    a580:	9c010000 	stcls	0, cr0, [r1], {-0}
    a584:	00000998 	muleq	r0, r8, r9
    a588:	6e697024 	cdpvs	0, 6, cr7, cr9, cr4, {1}
    a58c:	2c560100 	ldfcse	f0, [r6], {-0}
    a590:	6d000000 	stcvs	0, cr0, [r0, #-0]
    a594:	25000014 	strcs	r0, [r0, #-20]	; 0xffffffec
    a598:	00000b32 	andeq	r0, r0, r2, lsr fp
    a59c:	002c5901 	eoreq	r5, ip, r1, lsl #18
    a5a0:	14a70000 	strtne	r0, [r7], #0
    a5a4:	6f260000 	svcvs	0x00260000
    a5a8:	01006666 	tsteq	r0, r6, ror #12
    a5ac:	00002c5a 	andeq	r2, r0, sl, asr ip
    a5b0:	0014e500 	andseq	lr, r4, r0, lsl #10
    a5b4:	94c82700 	strbls	r2, [r8], #1792	; 0x700
    a5b8:	0b5d0000 	bleq	174a5c0 <__bss_end__+0x1740550>
    a5bc:	01280000 			; <UNDEFINED> instruction: 0x01280000
    a5c0:	01f30b50 	mvnseq	r0, r0, asr fp
    a5c4:	23253550 			; <UNDEFINED> instruction: 0x23253550
    a5c8:	818080b4 	strhhi	r8, [r0, r4]
    a5cc:	29000002 	stmdbcs	r0, {r1}
    a5d0:	00000b58 	andeq	r0, r0, r8, asr fp
    a5d4:	94904f01 	ldrls	r4, [r0], #3841	; 0xf01
    a5d8:	001c0000 	andseq	r0, ip, r0
    a5dc:	9c010000 	stcls	0, cr0, [r1], {-0}
    a5e0:	000009e8 	andeq	r0, r0, r8, ror #19
    a5e4:	6e697024 	cdpvs	0, 6, cr7, cr9, cr4, {1}
    a5e8:	2c4f0100 	stfcse	f0, [pc], {-0}
    a5ec:	f8000000 			; <UNDEFINED> instruction: 0xf8000000
    a5f0:	24000014 	strcs	r0, [r0], #-20	; 0xffffffec
    a5f4:	4f010076 	svcmi	0x00010076
    a5f8:	0000002c 	andeq	r0, r0, ip, lsr #32
    a5fc:	00001532 	andeq	r1, r0, r2, lsr r5
    a600:	0094a02a 	addseq	sl, r4, sl, lsr #32
    a604:	000a2300 	andeq	r2, sl, r0, lsl #6
    a608:	0009de00 	andeq	sp, r9, r0, lsl #28
    a60c:	50012800 	andpl	r2, r1, r0, lsl #16
    a610:	5001f303 	andpl	pc, r1, r3, lsl #6
    a614:	94a82b00 	strtls	r2, [r8], #2816	; 0xb00
    a618:	0a640000 	beq	190a620 <__bss_end__+0x19005b0>
    a61c:	29000000 	stmdbcs	r0, {}	; <UNPREDICTABLE>
    a620:	00000b77 	andeq	r0, r0, r7, ror fp
    a624:	94804a01 	strls	r4, [r0], #2561	; 0xa01
    a628:	00100000 	andseq	r0, r0, r0
    a62c:	9c010000 	stcls	0, cr0, [r1], {-0}
    a630:	00000a23 	andeq	r0, r0, r3, lsr #20
    a634:	6e697024 	cdpvs	0, 6, cr7, cr9, cr4, {1}
    a638:	2c4a0100 	stfcse	f0, [sl], {-0}
    a63c:	6c000000 	stcvs	0, cr0, [r0], {-0}
    a640:	27000015 	smladcs	r0, r5, r0, r0
    a644:	0000948c 	andeq	r9, r0, ip, lsl #9
    a648:	00000ae0 	andeq	r0, r0, r0, ror #21
    a64c:	03500128 	cmpeq	r0, #40, 2
    a650:	285001f3 	ldmdacs	r0, {r0, r1, r4, r5, r6, r7, r8}^
    a654:	30015101 	andcc	r5, r1, r1, lsl #2
    a658:	25290000 	strcs	r0, [r9, #-0]!
    a65c:	0100000b 	tsteq	r0, fp
    a660:	00945c43 	addseq	r5, r4, r3, asr #24
    a664:	00002400 	andeq	r2, r0, r0, lsl #8
    a668:	649c0100 	ldrvs	r0, [ip], #256	; 0x100
    a66c:	2400000a 	strcs	r0, [r0], #-10
    a670:	006e6970 	rsbeq	r6, lr, r0, ror r9
    a674:	002c4301 	eoreq	r4, ip, r1, lsl #6
    a678:	158d0000 	strne	r0, [sp]
    a67c:	78270000 	stmdavc	r7!, {}	; <UNPREDICTABLE>
    a680:	68000094 	stmdavs	r0, {r2, r4, r7}
    a684:	2800000b 	stmdacs	r0, {r0, r1, r3}
    a688:	0c055001 	stceq	0, cr5, [r5], {1}
    a68c:	20200028 	eorcs	r0, r0, r8, lsr #32
    a690:	05510128 	ldrbeq	r0, [r1, #-296]	; 0xfffffed8
    a694:	5001f331 	andpl	pc, r1, r1, lsr r3	; <UNPREDICTABLE>
    a698:	29000024 	stmdbcs	r0, {r2, r5}
    a69c:	00000b86 	andeq	r0, r0, r6, lsl #23
    a6a0:	94383c01 	ldrtls	r3, [r8], #-3073	; 0xfffff3ff
    a6a4:	00240000 	eoreq	r0, r4, r0
    a6a8:	9c010000 	stcls	0, cr0, [r1], {-0}
    a6ac:	00000aa5 	andeq	r0, r0, r5, lsr #21
    a6b0:	6e697024 	cdpvs	0, 6, cr7, cr9, cr4, {1}
    a6b4:	2c3c0100 	ldfcss	f0, [ip], #-0
    a6b8:	ae000000 	cdpge	0, 0, cr0, cr0, cr0, {0}
    a6bc:	27000015 	smladcs	r0, r5, r0, r0
    a6c0:	00009454 	andeq	r9, r0, r4, asr r4
    a6c4:	00000b68 	andeq	r0, r0, r8, ror #22
    a6c8:	05500128 	ldrbeq	r0, [r0, #-296]	; 0xfffffed8
    a6cc:	20001c0c 	andcs	r1, r0, ip, lsl #24
    a6d0:	51012820 	tstpl	r1, r0, lsr #16
    a6d4:	01f33105 	mvnseq	r3, r5, lsl #2
    a6d8:	00002450 	andeq	r2, r0, r0, asr r4
    a6dc:	000b4829 	andeq	r4, fp, r9, lsr #16
    a6e0:	28370100 	ldmdacs	r7!, {r8}
    a6e4:	10000094 	mulne	r0, r4, r0
    a6e8:	01000000 	mrseq	r0, (UNDEF: 0)
    a6ec:	000ae09c 	muleq	sl, ip, r0
    a6f0:	69702400 	ldmdbvs	r0!, {sl, sp}^
    a6f4:	3701006e 	strcc	r0, [r1, -lr, rrx]
    a6f8:	0000002c 	andeq	r0, r0, ip, lsr #32
    a6fc:	000015cf 	andeq	r1, r0, pc, asr #11
    a700:	00943427 	addseq	r3, r4, r7, lsr #8
    a704:	000ae000 	andeq	lr, sl, r0
    a708:	50012800 	andpl	r2, r1, r0, lsl #16
    a70c:	5001f303 	andpl	pc, r1, r3, lsl #6
    a710:	01510128 	cmpeq	r1, r8, lsr #2
    a714:	29000031 	stmdbcs	r0, {r0, r4, r5}
    a718:	000009ee 	andeq	r0, r0, lr, ror #19
    a71c:	93c02801 	bicls	r2, r0, #65536	; 0x10000
    a720:	00680000 	rsbeq	r0, r8, r0
    a724:	9c010000 	stcls	0, cr0, [r1], {-0}
    a728:	00000b5d 	andeq	r0, r0, sp, asr fp
    a72c:	6e697024 	cdpvs	0, 6, cr7, cr9, cr4, {1}
    a730:	2c280100 	stfcss	f0, [r8], #-0
    a734:	f0000000 			; <UNDEFINED> instruction: 0xf0000000
    a738:	2c000015 	stccs	0, cr0, [r0], {21}
    a73c:	000004e0 	andeq	r0, r0, r0, ror #9
    a740:	09002801 	stmdbeq	r0, {r0, fp, sp}
    a744:	16110000 	ldrne	r0, [r1], -r0
    a748:	6f2d0000 	svcvs	0x002d0000
    a74c:	01006666 	tsteq	r0, r6, ror #12
    a750:	00002c2d 	andeq	r2, r0, sp, lsr #24
    a754:	2d540100 	ldfcse	f0, [r4, #-0]
    a758:	2f010067 	svccs	0x00010067
    a75c:	0000002c 	andeq	r0, r0, ip, lsr #32
    a760:	76265601 	strtvc	r5, [r6], -r1, lsl #12
    a764:	2c310100 	ldfcss	f0, [r1], #-0
    a768:	32000000 	andcc	r0, r0, #0
    a76c:	2a000016 	bcs	a7cc <__bss_end__+0x75c>
    a770:	0000940c 	andeq	r9, r0, ip, lsl #8
    a774:	00000b5d 	andeq	r0, r0, sp, asr fp
    a778:	00000b4c 	andeq	r0, r0, ip, asr #22
    a77c:	02500128 	subseq	r0, r0, #40, 2
    a780:	27000076 	smlsdxcs	r0, r6, r0, r0
    a784:	00009420 	andeq	r9, r0, r0, lsr #8
    a788:	00000b68 	andeq	r0, r0, r8, ror #22
    a78c:	02500128 	subseq	r0, r0, #40, 2
    a790:	00000076 	andeq	r0, r0, r6, ror r0
    a794:	0009092e 	andeq	r0, r9, lr, lsr #18
    a798:	00090900 	andeq	r0, r9, r0, lsl #18
    a79c:	2ea70600 	cdpcs	6, 10, cr0, cr7, cr0, {0}
    a7a0:	00000863 	andeq	r0, r0, r3, ror #16
    a7a4:	00000863 	andeq	r0, r0, r3, ror #16
    a7a8:	24009b06 	strcs	r9, [r0], #-2822	; 0xfffff4fa
    a7ac:	0400000c 	streq	r0, [r0], #-12
    a7b0:	0021ac00 	eoreq	sl, r1, r0, lsl #24
    a7b4:	3a010400 	bcc	4b7bc <__bss_end__+0x4174c>
    a7b8:	0c00000a 	stceq	0, cr0, [r0], {10}
    a7bc:	00000ba8 	andeq	r0, r0, r8, lsr #23
    a7c0:	00000971 	andeq	r0, r0, r1, ror r9
    a7c4:	000094e0 	andeq	r9, r0, r0, ror #9
    a7c8:	00000194 	muleq	r0, r4, r1
    a7cc:	00001b6c 	andeq	r1, r0, ip, ror #22
    a7d0:	69050402 	stmdbvs	r5, {r1, sl}
    a7d4:	0300746e 	movweq	r7, #1134	; 0x46e
    a7d8:	00740704 	rsbseq	r0, r4, r4, lsl #14
    a7dc:	01030000 	mrseq	r0, (UNDEF: 3)
    a7e0:	0002f106 	andeq	pc, r2, r6, lsl #2
    a7e4:	05020300 	streq	r0, [r2, #-768]	; 0xfffffd00
    a7e8:	0000038a 	andeq	r0, r0, sl, lsl #7
    a7ec:	ba050403 	blt	14b800 <__bss_end__+0x141790>
    a7f0:	03000000 	movweq	r0, #0
    a7f4:	00b50508 	adcseq	r0, r5, r8, lsl #10
    a7f8:	01030000 	mrseq	r0, (UNDEF: 3)
    a7fc:	0002ef08 	andeq	lr, r2, r8, lsl #30
    a800:	07020300 	streq	r0, [r2, -r0, lsl #6]
    a804:	00000230 	andeq	r0, r0, r0, lsr r2
    a808:	6f070403 	svcvs	0x00070403
    a80c:	03000000 	movweq	r0, #0
    a810:	006a0708 	rsbeq	r0, sl, r8, lsl #14
    a814:	05040000 	streq	r0, [r4, #-0]
    a818:	0200000a 	andeq	r0, r0, #10
    a81c:	00002507 	andeq	r2, r0, r7, lsl #10
    a820:	02d00400 	sbcseq	r0, r0, #0, 8
    a824:	2c030000 	stccs	0, cr0, [r3], {-0}
    a828:	00000041 	andeq	r0, r0, r1, asr #32
    a82c:	00044504 	andeq	r4, r4, r4, lsl #10
    a830:	41720300 	cmnmi	r2, r0, lsl #6
    a834:	05000000 	streq	r0, [r0, #-0]
    a838:	0000027b 	andeq	r0, r0, fp, ror r2
    a83c:	2c016504 	cfstr32cs	mvfx6, [r1], {4}
    a840:	06000000 	streq	r0, [r0], -r0
    a844:	b7a60304 	strlt	r0, [r6, r4, lsl #6]!
    a848:	07000000 	streq	r0, [r0, -r0]
    a84c:	0000026d 	andeq	r0, r0, sp, ror #4
    a850:	008ca803 	addeq	sl, ip, r3, lsl #16
    a854:	f0070000 			; <UNDEFINED> instruction: 0xf0070000
    a858:	03000001 	movweq	r0, #1
    a85c:	0000b7a9 	andeq	fp, r0, r9, lsr #15
    a860:	4f080000 	svcmi	0x00080000
    a864:	c7000000 	strgt	r0, [r0, -r0]
    a868:	09000000 	stmdbeq	r0, {}	; <UNPREDICTABLE>
    a86c:	000000c7 	andeq	r0, r0, r7, asr #1
    a870:	04030003 	streq	r0, [r3], #-3
    a874:	0009e507 	andeq	lr, r9, r7, lsl #10
    a878:	03080a00 	movweq	r0, #35328	; 0x8a00
    a87c:	0000efa3 	andeq	lr, r0, r3, lsr #31
    a880:	04280b00 	strteq	r0, [r8], #-2816	; 0xfffff500
    a884:	a5030000 	strge	r0, [r3, #-0]
    a888:	00000025 	andeq	r0, r0, r5, lsr #32
    a88c:	04370b00 	ldrteq	r0, [r7], #-2816	; 0xfffff500
    a890:	aa030000 	bge	ca898 <__bss_end__+0xc0828>
    a894:	00000098 	muleq	r0, r8, r0
    a898:	b2040004 	andlt	r0, r4, #4
    a89c:	03000003 	movweq	r0, #3
    a8a0:	0000ceab 	andeq	ip, r0, fp, lsr #29
    a8a4:	01ad0400 			; <UNDEFINED> instruction: 0x01ad0400
    a8a8:	af030000 	svcge	0x00030000
    a8ac:	0000006b 	andeq	r0, r0, fp, rrx
    a8b0:	040d040c 	streq	r0, [sp], #-1036	; 0xfffffbf4
    a8b4:	0000010d 	andeq	r0, r0, sp, lsl #2
    a8b8:	f8080103 			; <UNDEFINED> instruction: 0xf8080103
    a8bc:	0e000002 	cdpeq	0, 0, cr0, cr0, cr2, {0}
    a8c0:	0000010d 	andeq	r0, r0, sp, lsl #2
    a8c4:	00047704 	andeq	r7, r4, r4, lsl #14
    a8c8:	5d160500 	cfldr32pl	mvfx0, [r6, #-0]
    a8cc:	0f000000 	svceq	0x00000000
    a8d0:	000001be 			; <UNDEFINED> instruction: 0x000001be
    a8d4:	772d0518 			; <UNDEFINED> instruction: 0x772d0518
    a8d8:	0b000001 	bleq	a8e4 <__bss_end__+0x874>
    a8dc:	000003d3 	ldrdeq	r0, [r0], -r3
    a8e0:	01772f05 	cmneq	r7, r5, lsl #30
    a8e4:	10000000 	andne	r0, r0, r0
    a8e8:	05006b5f 	streq	r6, [r0, #-2911]	; 0xfffff4a1
    a8ec:	00002530 	andeq	r2, r0, r0, lsr r5
    a8f0:	130b0400 	movwne	r0, #46080	; 0xb400
    a8f4:	05000004 	streq	r0, [r0, #-4]
    a8f8:	00002530 	andeq	r2, r0, r0, lsr r5
    a8fc:	a70b0800 	strge	r0, [fp, -r0, lsl #16]
    a900:	05000001 	streq	r0, [r0, #-1]
    a904:	00002530 	andeq	r2, r0, r0, lsr r5
    a908:	b30b0c00 	movwlt	r0, #48128	; 0xbc00
    a90c:	05000004 	streq	r0, [r0, #-4]
    a910:	00002530 	andeq	r2, r0, r0, lsr r5
    a914:	5f101000 	svcpl	0x00101000
    a918:	31050078 	tstcc	r5, r8, ror r0
    a91c:	0000017d 	andeq	r0, r0, sp, ror r1
    a920:	040d0014 	streq	r0, [sp], #-20	; 0xffffffec
    a924:	00000124 	andeq	r0, r0, r4, lsr #2
    a928:	00011908 	andeq	r1, r1, r8, lsl #18
    a92c:	00018d00 	andeq	r8, r1, r0, lsl #26
    a930:	00c70900 	sbceq	r0, r7, r0, lsl #18
    a934:	00000000 	andeq	r0, r0, r0
    a938:	0001eb0f 	andeq	lr, r1, pc, lsl #22
    a93c:	35052400 	strcc	r2, [r5, #-1024]	; 0xfffffc00
    a940:	00000206 	andeq	r0, r0, r6, lsl #4
    a944:	0000ac0b 	andeq	sl, r0, fp, lsl #24
    a948:	25370500 	ldrcs	r0, [r7, #-1280]!	; 0xfffffb00
    a94c:	00000000 	andeq	r0, r0, r0
    a950:	00044d0b 	andeq	r4, r4, fp, lsl #26
    a954:	25380500 	ldrcs	r0, [r8, #-1280]!	; 0xfffffb00
    a958:	04000000 	streq	r0, [r0], #-0
    a95c:	0000cf0b 	andeq	ip, r0, fp, lsl #30
    a960:	25390500 	ldrcs	r0, [r9, #-1280]!	; 0xfffffb00
    a964:	08000000 	stmdaeq	r0, {}	; <UNPREDICTABLE>
    a968:	0005340b 	andeq	r3, r5, fp, lsl #8
    a96c:	253a0500 	ldrcs	r0, [sl, #-1280]!	; 0xfffffb00
    a970:	0c000000 	stceq	0, cr0, [r0], {-0}
    a974:	0002b40b 	andeq	fp, r2, fp, lsl #8
    a978:	253b0500 	ldrcs	r0, [fp, #-1280]!	; 0xfffffb00
    a97c:	10000000 	andne	r0, r0, r0
    a980:	0002960b 	andeq	r9, r2, fp, lsl #12
    a984:	253c0500 	ldrcs	r0, [ip, #-1280]!	; 0xfffffb00
    a988:	14000000 	strne	r0, [r0], #-0
    a98c:	0004b80b 	andeq	fp, r4, fp, lsl #16
    a990:	253d0500 	ldrcs	r0, [sp, #-1280]!	; 0xfffffb00
    a994:	18000000 	stmdane	r0, {}	; <UNPREDICTABLE>
    a998:	0003940b 	andeq	r9, r3, fp, lsl #8
    a99c:	253e0500 	ldrcs	r0, [lr, #-1280]!	; 0xfffffb00
    a9a0:	1c000000 	stcne	0, cr0, [r0], {-0}
    a9a4:	0004fb0b 	andeq	pc, r4, fp, lsl #22
    a9a8:	253f0500 	ldrcs	r0, [pc, #-1280]!	; a4b0 <__bss_end__+0x440>
    a9ac:	20000000 	andcs	r0, r0, r0
    a9b0:	010f1100 	mrseq	r1, (UNDEF: 31)
    a9b4:	01080000 	mrseq	r0, (UNDEF: 8)
    a9b8:	02464805 	subeq	r4, r6, #327680	; 0x50000
    a9bc:	9a0b0000 	bls	2ca9c4 <__bss_end__+0x2c0954>
    a9c0:	05000001 	streq	r0, [r0, #-1]
    a9c4:	00024649 	andeq	r4, r2, r9, asr #12
    a9c8:	000b0000 	andeq	r0, fp, r0
    a9cc:	05000000 	streq	r0, [r0, #-0]
    a9d0:	0002464a 	andeq	r4, r2, sl, asr #12
    a9d4:	69128000 	ldmdbvs	r2, {pc}
    a9d8:	05000004 	streq	r0, [r0, #-4]
    a9dc:	0001194c 	andeq	r1, r1, ip, asr #18
    a9e0:	12010000 	andne	r0, r1, #0
    a9e4:	00000134 	andeq	r0, r0, r4, lsr r1
    a9e8:	01194f05 	tsteq	r9, r5, lsl #30
    a9ec:	01040000 	mrseq	r0, (UNDEF: 4)
    a9f0:	01050800 	tsteq	r5, r0, lsl #16
    a9f4:	02560000 	subseq	r0, r6, #0
    a9f8:	c7090000 	strgt	r0, [r9, -r0]
    a9fc:	1f000000 	svcne	0x00000000
    aa00:	02bd1100 	adcseq	r1, sp, #0, 2
    aa04:	01900000 	orrseq	r0, r0, r0
    aa08:	02945b05 	addseq	r5, r4, #5120	; 0x1400
    aa0c:	d30b0000 	movwle	r0, #45056	; 0xb000
    aa10:	05000003 	streq	r0, [r0, #-3]
    aa14:	0002945c 	andeq	r9, r2, ip, asr r4
    aa18:	eb0b0000 	bl	2caa20 <__bss_end__+0x2c09b0>
    aa1c:	05000003 	streq	r0, [r0, #-3]
    aa20:	0000255d 	andeq	r2, r0, sp, asr r5
    aa24:	a20b0400 	andge	r0, fp, #0, 8
    aa28:	05000001 	streq	r0, [r0, #-1]
    aa2c:	00029a5f 	andeq	r9, r2, pc, asr sl
    aa30:	0f0b0800 	svceq	0x000b0800
    aa34:	05000001 	streq	r0, [r0, #-1]
    aa38:	00020660 	andeq	r0, r2, r0, ror #12
    aa3c:	0d008800 	stceq	8, cr8, [r0, #-0]
    aa40:	00025604 	andeq	r5, r2, r4, lsl #12
    aa44:	02aa0800 	adceq	r0, sl, #0, 16
    aa48:	02aa0000 	adceq	r0, sl, #0
    aa4c:	c7090000 	strgt	r0, [r9, -r0]
    aa50:	1f000000 	svcne	0x00000000
    aa54:	b0040d00 	andlt	r0, r4, r0, lsl #26
    aa58:	13000002 	movwne	r0, #2
    aa5c:	00039e0f 	andeq	r9, r3, pc, lsl #28
    aa60:	73050800 	movwvc	r0, #22528	; 0x5800
    aa64:	000002d6 	ldrdeq	r0, [r0], -r6
    aa68:	0000c90b 	andeq	ip, r0, fp, lsl #18
    aa6c:	d6740500 	ldrbtle	r0, [r4], -r0, lsl #10
    aa70:	00000002 	andeq	r0, r0, r2
    aa74:	00001b0b 	andeq	r1, r0, fp, lsl #22
    aa78:	25750500 	ldrbcs	r0, [r5, #-1280]!	; 0xfffffb00
    aa7c:	04000000 	streq	r0, [r0], #-0
    aa80:	4f040d00 	svcmi	0x00040d00
    aa84:	0f000000 	svceq	0x00000000
    aa88:	000003bd 			; <UNDEFINED> instruction: 0x000003bd
    aa8c:	06b30568 	ldrteq	r0, [r3], r8, ror #10
    aa90:	10000004 	andne	r0, r0, r4
    aa94:	0500705f 	streq	r7, [r0, #-95]	; 0xffffffa1
    aa98:	0002d6b4 			; <UNDEFINED> instruction: 0x0002d6b4
    aa9c:	5f100000 	svcpl	0x00100000
    aaa0:	b5050072 	strlt	r0, [r5, #-114]	; 0xffffff8e
    aaa4:	00000025 	andeq	r0, r0, r5, lsr #32
    aaa8:	775f1004 	ldrbvc	r1, [pc, -r4]
    aaac:	25b60500 	ldrcs	r0, [r6, #1280]!	; 0x500
    aab0:	08000000 	stmdaeq	r0, {}	; <UNPREDICTABLE>
    aab4:	00012d0b 	andeq	r2, r1, fp, lsl #26
    aab8:	3ab70500 	bcc	fedcbec0 <__bss_end__+0xfedc1e50>
    aabc:	0c000000 	stceq	0, cr0, [r0], {-0}
    aac0:	0002160b 	andeq	r1, r2, fp, lsl #12
    aac4:	3ab80500 	bcc	fee0becc <__bss_end__+0xfee01e5c>
    aac8:	0e000000 	cdpeq	0, 0, cr0, cr0, cr0, {0}
    aacc:	66625f10 	uqadd16vs	r5, r2, r0
    aad0:	b1b90500 			; <UNDEFINED> instruction: 0xb1b90500
    aad4:	10000002 	andne	r0, r0, r2
    aad8:	0000890b 	andeq	r8, r0, fp, lsl #18
    aadc:	25ba0500 	ldrcs	r0, [sl, #1280]!	; 0x500
    aae0:	18000000 	stmdane	r0, {}	; <UNPREDICTABLE>
    aae4:	00011d0b 	andeq	r1, r1, fp, lsl #26
    aae8:	05c10500 	strbeq	r0, [r1, #1280]	; 0x500
    aaec:	1c000001 	stcne	0, cr0, [r0], {1}
    aaf0:	000b420b 	andeq	r4, fp, fp, lsl #4
    aaf4:	61c30500 	bicvs	r0, r3, r0, lsl #10
    aaf8:	20000005 	andcs	r0, r0, r5
    aafc:	0006370b 	andeq	r3, r6, fp, lsl #14
    ab00:	8bc50500 	blhi	ff14bf08 <__bss_end__+0xff141e98>
    ab04:	24000005 	strcs	r0, [r0], #-5
    ab08:	00043f0b 	andeq	r3, r4, fp, lsl #30
    ab0c:	afc80500 	svcge	0x00c80500
    ab10:	28000005 	stmdacs	r0, {r0, r2}
    ab14:	0005150b 	andeq	r1, r5, fp, lsl #10
    ab18:	c9c90500 	stmibgt	r9, {r8, sl}^
    ab1c:	2c000005 	stccs	0, cr0, [r0], {5}
    ab20:	62755f10 	rsbsvs	r5, r5, #16, 30	; 0x40
    ab24:	b1cc0500 	biclt	r0, ip, r0, lsl #10
    ab28:	30000002 	andcc	r0, r0, r2
    ab2c:	70755f10 	rsbsvc	r5, r5, r0, lsl pc
    ab30:	d6cd0500 	strble	r0, [sp], r0, lsl #10
    ab34:	38000002 	stmdacc	r0, {r1}
    ab38:	72755f10 	rsbsvc	r5, r5, #16, 30	; 0x40
    ab3c:	25ce0500 	strbcs	r0, [lr, #1280]	; 0x500
    ab40:	3c000000 	stccc	0, cr0, [r0], {-0}
    ab44:	0000c30b 	andeq	ip, r0, fp, lsl #6
    ab48:	cfd10500 	svcgt	0x00d10500
    ab4c:	40000005 	andmi	r0, r0, r5
    ab50:	0004ed0b 	andeq	lr, r4, fp, lsl #26
    ab54:	dfd20500 	svcle	0x00d20500
    ab58:	43000005 	movwmi	r0, #5
    ab5c:	626c5f10 	rsbvs	r5, ip, #16, 30	; 0x40
    ab60:	b1d50500 	bicslt	r0, r5, r0, lsl #10
    ab64:	44000002 	strmi	r0, [r0], #-2
    ab68:	00014b0b 	andeq	r4, r1, fp, lsl #22
    ab6c:	25d80500 	ldrbcs	r0, [r8, #1280]	; 0x500
    ab70:	4c000000 	stcmi	0, cr0, [r0], {-0}
    ab74:	00015c0b 	andeq	r5, r1, fp, lsl #24
    ab78:	76d90500 	ldrbvc	r0, [r9], r0, lsl #10
    ab7c:	50000000 	andpl	r0, r0, r0
    ab80:	000ae30b 	andeq	lr, sl, fp, lsl #6
    ab84:	24dc0500 	ldrbcs	r0, [ip], #1280	; 0x500
    ab88:	54000004 	strpl	r0, [r0], #-4
    ab8c:	0004310b 	andeq	r3, r4, fp, lsl #2
    ab90:	fae00500 	blx	ff80bf98 <__bss_end__+0xff801f28>
    ab94:	58000000 	stmdapl	r0, {}	; <UNPREDICTABLE>
    ab98:	0003c50b 	andeq	ip, r3, fp, lsl #10
    ab9c:	efe20500 	svc	0x00e20500
    aba0:	5c000000 	stcpl	0, cr0, [r0], {-0}
    aba4:	00028e0b 	andeq	r8, r2, fp, lsl #28
    aba8:	25e30500 	strbcs	r0, [r3, #1280]!	; 0x500
    abac:	64000000 	strvs	r0, [r0], #-0
    abb0:	00251400 	eoreq	r1, r5, r0, lsl #8
    abb4:	04240000 	strteq	r0, [r4], #-0
    abb8:	24150000 	ldrcs	r0, [r5], #-0
    abbc:	15000004 	strne	r0, [r0, #-4]
    abc0:	00000105 	andeq	r0, r0, r5, lsl #2
    abc4:	00010715 	andeq	r0, r1, r5, lsl r7
    abc8:	00251500 	eoreq	r1, r5, r0, lsl #10
    abcc:	0d000000 	stceq	0, cr0, [r0, #-0]
    abd0:	00042f04 	andeq	r2, r4, r4, lsl #30
    abd4:	04240e00 	strteq	r0, [r4], #-3584	; 0xfffff200
    abd8:	1b160000 	blne	58abe0 <__bss_end__+0x580b70>
    abdc:	28000004 	stmdacs	r0, {r2}
    abe0:	02380504 	eorseq	r0, r8, #4, 10	; 0x1000000
    abe4:	00000561 	andeq	r0, r0, r1, ror #10
    abe8:	00038317 	andeq	r8, r3, r7, lsl r3
    abec:	023a0500 	eorseq	r0, sl, #0, 10
    abf0:	00000025 	andeq	r0, r0, r5, lsr #32
    abf4:	013c1700 	teqeq	ip, r0, lsl #14
    abf8:	3f050000 	svccc	0x00050000
    abfc:	00063602 	andeq	r3, r6, r2, lsl #12
    ac00:	06170400 	ldreq	r0, [r7], -r0, lsl #8
    ac04:	05000002 	streq	r0, [r0, #-2]
    ac08:	0636023f 			; <UNDEFINED> instruction: 0x0636023f
    ac0c:	17080000 	strne	r0, [r8, -r0]
    ac10:	000001b6 			; <UNDEFINED> instruction: 0x000001b6
    ac14:	36023f05 	strcc	r3, [r2], -r5, lsl #30
    ac18:	0c000006 	stceq	0, cr0, [r0], {6}
    ac1c:	0003e617 	andeq	lr, r3, r7, lsl r6
    ac20:	02410500 	subeq	r0, r1, #0, 10
    ac24:	00000025 	andeq	r0, r0, r5, lsr #32
    ac28:	00371710 	eorseq	r1, r7, r0, lsl r7
    ac2c:	42050000 	andmi	r0, r5, #0
    ac30:	00081802 	andeq	r1, r8, r2, lsl #16
    ac34:	9c171400 	cfldrsls	mvf1, [r7], {-0}
    ac38:	0500000a 	streq	r0, [r0, #-10]
    ac3c:	00250244 	eoreq	r0, r5, r4, asr #4
    ac40:	17300000 	ldrne	r0, [r0, -r0]!
    ac44:	00000a17 	andeq	r0, r0, r7, lsl sl
    ac48:	85024505 	strhi	r4, [r2, #-1285]	; 0xfffffafb
    ac4c:	34000005 	strcc	r0, [r0], #-5
    ac50:	0002c517 	andeq	ip, r2, r7, lsl r5
    ac54:	02470500 	subeq	r0, r7, #0, 10
    ac58:	00000025 	andeq	r0, r0, r5, lsr #32
    ac5c:	03f01738 	mvnseq	r1, #56, 14	; 0xe00000
    ac60:	49050000 	stmdbmi	r5, {}	; <UNPREDICTABLE>
    ac64:	00083302 	andeq	r3, r8, r2, lsl #6
    ac68:	65173c00 	ldrvs	r3, [r7, #-3072]	; 0xfffff400
    ac6c:	05000002 	streq	r0, [r0, #-2]
    ac70:	0177024c 	cmneq	r7, ip, asr #4
    ac74:	17400000 	strbne	r0, [r0, -r0]
    ac78:	000001d5 	ldrdeq	r0, [r0], -r5
    ac7c:	25024d05 	strcs	r4, [r2, #-3333]	; 0xfffff2fb
    ac80:	44000000 	strmi	r0, [r0], #-0
    ac84:	00052f17 	andeq	r2, r5, r7, lsl pc
    ac88:	024e0500 	subeq	r0, lr, #0, 10
    ac8c:	00000177 	andeq	r0, r0, r7, ror r1
    ac90:	02d71748 	sbcseq	r1, r7, #72, 14	; 0x1200000
    ac94:	4f050000 	svcmi	0x00050000
    ac98:	00083902 	andeq	r3, r8, r2, lsl #18
    ac9c:	0e174c00 	cdpeq	12, 1, cr4, cr7, cr0, {0}
    aca0:	05000002 	streq	r0, [r0, #-2]
    aca4:	00250252 	eoreq	r0, r5, r2, asr r2
    aca8:	17500000 	ldrbne	r0, [r0, -r0]
    acac:	00000154 	andeq	r0, r0, r4, asr r1
    acb0:	07025305 	streq	r5, [r2, -r5, lsl #6]
    acb4:	54000001 	strpl	r0, [r0], #-1
    acb8:	0002fd17 	andeq	pc, r2, r7, lsl sp	; <UNPREDICTABLE>
    acbc:	02760500 	rsbseq	r0, r6, #0, 10
    acc0:	000007f6 	strdeq	r0, [r0], -r6
    acc4:	02bd1858 	adcseq	r1, sp, #88, 16	; 0x580000
    acc8:	7a050000 	bvc	14acd0 <__bss_end__+0x140c60>
    accc:	00029402 	andeq	r9, r2, r2, lsl #8
    acd0:	18014800 	stmdane	r1, {fp, lr}
    acd4:	00000243 	andeq	r0, r0, r3, asr #4
    acd8:	56027b05 	strpl	r7, [r2], -r5, lsl #22
    acdc:	4c000002 	stcmi	0, cr0, [r0], {2}
    ace0:	04db1801 	ldrbeq	r1, [fp], #2049	; 0x801
    ace4:	7f050000 	svcvc	0x00050000
    ace8:	00084a02 	andeq	r4, r8, r2, lsl #20
    acec:	1802dc00 	stmdane	r2, {sl, fp, ip, lr, pc}
    acf0:	00000125 	andeq	r0, r0, r5, lsr #2
    acf4:	fb028405 	blx	abd12 <__bss_end__+0xa1ca2>
    acf8:	e0000005 	and	r0, r0, r5
    acfc:	010a1802 	tsteq	sl, r2, lsl #16
    ad00:	85050000 	strhi	r0, [r5, #-0]
    ad04:	00085602 	andeq	r5, r8, r2, lsl #12
    ad08:	0002ec00 	andeq	lr, r2, r0, lsl #24
    ad0c:	0406040d 	streq	r0, [r6], #-1037	; 0xfffffbf3
    ad10:	25140000 	ldrcs	r0, [r4, #-0]
    ad14:	85000000 	strhi	r0, [r0, #-0]
    ad18:	15000005 	strne	r0, [r0, #-5]
    ad1c:	00000424 	andeq	r0, r0, r4, lsr #8
    ad20:	00010515 	andeq	r0, r1, r5, lsl r5
    ad24:	05851500 	streq	r1, [r5, #1280]	; 0x500
    ad28:	25150000 	ldrcs	r0, [r5, #-0]
    ad2c:	00000000 	andeq	r0, r0, r0
    ad30:	0114040d 	tsteq	r4, sp, lsl #8
    ad34:	040d0000 	streq	r0, [sp], #-0
    ad38:	00000567 	andeq	r0, r0, r7, ror #10
    ad3c:	00008114 	andeq	r8, r0, r4, lsl r1
    ad40:	0005af00 	andeq	sl, r5, r0, lsl #30
    ad44:	04241500 	strteq	r1, [r4], #-1280	; 0xfffffb00
    ad48:	05150000 	ldreq	r0, [r5, #-0]
    ad4c:	15000001 	strne	r0, [r0, #-1]
    ad50:	00000081 	andeq	r0, r0, r1, lsl #1
    ad54:	00002515 	andeq	r2, r0, r5, lsl r5
    ad58:	040d0000 	streq	r0, [sp], #-0
    ad5c:	00000591 	muleq	r0, r1, r5
    ad60:	00002514 	andeq	r2, r0, r4, lsl r5
    ad64:	0005c900 	andeq	ip, r5, r0, lsl #18
    ad68:	04241500 	strteq	r1, [r4], #-1280	; 0xfffffb00
    ad6c:	05150000 	ldreq	r0, [r5, #-0]
    ad70:	00000001 	andeq	r0, r0, r1
    ad74:	05b5040d 	ldreq	r0, [r5, #1037]!	; 0x40d
    ad78:	4f080000 	svcmi	0x00080000
    ad7c:	df000000 	svcle	0x00000000
    ad80:	09000005 	stmdbeq	r0, {r0, r2}
    ad84:	000000c7 	andeq	r0, r0, r7, asr #1
    ad88:	4f080002 	svcmi	0x00080002
    ad8c:	ef000000 	svc	0x00000000
    ad90:	09000005 	stmdbeq	r0, {r0, r2}
    ad94:	000000c7 	andeq	r0, r0, r7, asr #1
    ad98:	ab050000 	blge	14ada0 <__bss_end__+0x140d30>
    ad9c:	05000003 	streq	r0, [r0, #-3]
    ada0:	02dc011d 	sbcseq	r0, ip, #1073741831	; 0x40000007
    ada4:	c2190000 	andsgt	r0, r9, #0
    ada8:	0c000004 	stceq	0, cr0, [r0], {4}
    adac:	30012105 	andcc	r2, r1, r5, lsl #2
    adb0:	17000006 	strne	r0, [r0, -r6]
    adb4:	000003d3 	ldrdeq	r0, [r0], -r3
    adb8:	30012305 	andcc	r2, r1, r5, lsl #6
    adbc:	00000006 	andeq	r0, r0, r6
    adc0:	00022917 	andeq	r2, r2, r7, lsl r9
    adc4:	01240500 			; <UNDEFINED> instruction: 0x01240500
    adc8:	00000025 	andeq	r0, r0, r5, lsr #32
    adcc:	03a51704 			; <UNDEFINED> instruction: 0x03a51704
    add0:	25050000 	strcs	r0, [r5, #-0]
    add4:	00063601 	andeq	r3, r6, r1, lsl #12
    add8:	0d000800 	stceq	8, cr0, [r0, #-0]
    addc:	0005fb04 	andeq	pc, r5, r4, lsl #22
    ade0:	ef040d00 	svc	0x00040d00
    ade4:	19000005 	stmdbne	r0, {r0, r2}
    ade8:	0000002f 	andeq	r0, r0, pc, lsr #32
    adec:	013d050e 	teqeq	sp, lr, lsl #10
    adf0:	00000671 	andeq	r0, r0, r1, ror r6
    adf4:	00042217 	andeq	r2, r4, r7, lsl r2
    adf8:	013e0500 	teqeq	lr, r0, lsl #10
    adfc:	00000671 	andeq	r0, r0, r1, ror r6
    ae00:	04561700 	ldrbeq	r1, [r6], #-1792	; 0xfffff900
    ae04:	3f050000 	svccc	0x00050000
    ae08:	00067101 	andeq	r7, r6, r1, lsl #2
    ae0c:	72170600 	andsvc	r0, r7, #0, 12
    ae10:	05000004 	streq	r0, [r0, #-4]
    ae14:	00560140 	subseq	r0, r6, r0, asr #2
    ae18:	000c0000 	andeq	r0, ip, r0
    ae1c:	00005608 	andeq	r5, r0, r8, lsl #12
    ae20:	00068100 	andeq	r8, r6, r0, lsl #2
    ae24:	00c70900 	sbceq	r0, r7, r0, lsl #18
    ae28:	00020000 	andeq	r0, r2, r0
    ae2c:	5705d01a 	smladpl	r5, sl, r0, sp
    ae30:	00078202 	andeq	r8, r7, r2, lsl #4
    ae34:	04a61700 	strteq	r1, [r6], #1792	; 0x700
    ae38:	59050000 	stmdbpl	r5, {}	; <UNPREDICTABLE>
    ae3c:	00002c02 	andeq	r2, r0, r2, lsl #24
    ae40:	5c170000 	ldcpl	0, cr0, [r7], {-0}
    ae44:	05000004 	streq	r0, [r0, #-4]
    ae48:	0107025a 	tsteq	r7, sl, asr r2
    ae4c:	17040000 	strne	r0, [r4, -r0]
    ae50:	00000258 	andeq	r0, r0, r8, asr r2
    ae54:	82025b05 	andhi	r5, r2, #5120	; 0x1400
    ae58:	08000007 	stmdaeq	r0, {r0, r1, r2}
    ae5c:	00050617 	andeq	r0, r5, r7, lsl r6
    ae60:	025c0500 	subseq	r0, ip, #0, 10
    ae64:	0000018d 	andeq	r0, r0, sp, lsl #3
    ae68:	01c61724 	biceq	r1, r6, r4, lsr #14
    ae6c:	5d050000 	stcpl	0, cr0, [r5, #-0]
    ae70:	00002502 	andeq	r2, r0, r2, lsl #10
    ae74:	ce174800 	cdpgt	8, 1, cr4, cr7, cr0, {0}
    ae78:	05000003 	streq	r0, [r0, #-3]
    ae7c:	0064025e 	rsbeq	r0, r4, lr, asr r2
    ae80:	17500000 	ldrbne	r0, [r0, -r0]
    ae84:	0000051c 	andeq	r0, r0, ip, lsl r5
    ae88:	3c025f05 	stccc	15, cr5, [r2], {5}
    ae8c:	58000006 	stmdapl	r0, {r1, r2}
    ae90:	0003d917 	andeq	sp, r3, r7, lsl r9
    ae94:	02600500 	rsbeq	r0, r0, #0, 10
    ae98:	000000ef 	andeq	r0, r0, pc, ror #1
    ae9c:	05211768 	streq	r1, [r1, #-1896]!	; 0xfffff898
    aea0:	61050000 	mrsvs	r0, (UNDEF: 5)
    aea4:	0000ef02 	andeq	lr, r0, r2, lsl #30
    aea8:	e1177000 	tst	r7, r0
    aeac:	05000002 	streq	r0, [r0, #-2]
    aeb0:	00ef0262 	rsceq	r0, pc, r2, ror #4
    aeb4:	17780000 	ldrbne	r0, [r8, -r0]!
    aeb8:	000004d1 	ldrdeq	r0, [r0], -r1
    aebc:	92026305 	andls	r6, r2, #335544320	; 0x14000000
    aec0:	80000007 	andhi	r0, r0, r7
    aec4:	00024c17 	andeq	r4, r2, r7, lsl ip
    aec8:	02640500 	rsbeq	r0, r4, #0, 10
    aecc:	000007a2 	andeq	r0, r0, r2, lsr #15
    aed0:	047f1788 	ldrbteq	r1, [pc], #-1928	; aed8 <__bss_end__+0xe68>
    aed4:	65050000 	strvs	r0, [r5, #-0]
    aed8:	00002502 	andeq	r2, r0, r2, lsl #10
    aedc:	8c17a000 	ldchi	0, cr10, [r7], {-0}
    aee0:	05000001 	streq	r0, [r0, #-1]
    aee4:	00ef0266 	rsceq	r0, pc, r6, ror #4
    aee8:	17a40000 	strne	r0, [r4, r0]!
    aeec:	0000009d 	muleq	r0, sp, r0
    aef0:	ef026705 	svc	0x00026705
    aef4:	ac000000 	stcge	0, cr0, [r0], {-0}
    aef8:	00017b17 	andeq	r7, r1, r7, lsl fp
    aefc:	02680500 	rsbeq	r0, r8, #0, 10
    af00:	000000ef 	andeq	r0, r0, pc, ror #1
    af04:	004a17b4 	strheq	r1, [sl], #-116	; 0xffffff8c
    af08:	69050000 	stmdbvs	r5, {}	; <UNPREDICTABLE>
    af0c:	0000ef02 	andeq	lr, r0, r2, lsl #30
    af10:	5917bc00 	ldmdbpl	r7, {sl, fp, ip, sp, pc}
    af14:	05000000 	streq	r0, [r0, #-0]
    af18:	00ef026a 	rsceq	r0, pc, sl, ror #4
    af1c:	17c40000 	strbne	r0, [r4, r0]
    af20:	00000381 	andeq	r0, r0, r1, lsl #7
    af24:	25026b05 	strcs	r6, [r2, #-2821]	; 0xfffff4fb
    af28:	cc000000 	stcgt	0, cr0, [r0], {-0}
    af2c:	010d0800 	tsteq	sp, r0, lsl #16
    af30:	07920000 	ldreq	r0, [r2, r0]
    af34:	c7090000 	strgt	r0, [r9, -r0]
    af38:	19000000 	stmdbne	r0, {}	; <UNPREDICTABLE>
    af3c:	010d0800 	tsteq	sp, r0, lsl #16
    af40:	07a20000 	streq	r0, [r2, r0]!
    af44:	c7090000 	strgt	r0, [r9, -r0]
    af48:	07000000 	streq	r0, [r0, -r0]
    af4c:	010d0800 	tsteq	sp, r0, lsl #16
    af50:	07b20000 	ldreq	r0, [r2, r0]!
    af54:	c7090000 	strgt	r0, [r9, -r0]
    af58:	17000000 	strne	r0, [r0, -r0]
    af5c:	05f01a00 	ldrbeq	r1, [r0, #2560]!	; 0xa00
    af60:	07d60270 			; <UNDEFINED> instruction: 0x07d60270
    af64:	ad170000 	ldcge	0, cr0, [r7, #-0]
    af68:	05000002 	streq	r0, [r0, #-2]
    af6c:	07d60273 			; <UNDEFINED> instruction: 0x07d60273
    af70:	17000000 	strne	r0, [r0, -r0]
    af74:	000004c8 	andeq	r0, r0, r8, asr #9
    af78:	e6027405 	str	r7, [r2], -r5, lsl #8
    af7c:	78000007 	stmdavc	r0, {r0, r1, r2}
    af80:	02d60800 	sbcseq	r0, r6, #0, 16
    af84:	07e60000 	strbeq	r0, [r6, r0]!
    af88:	c7090000 	strgt	r0, [r9, -r0]
    af8c:	1d000000 	stcne	0, cr0, [r0, #-0]
    af90:	002c0800 	eoreq	r0, ip, r0, lsl #16
    af94:	07f60000 	ldrbeq	r0, [r6, r0]!
    af98:	c7090000 	strgt	r0, [r9, -r0]
    af9c:	1d000000 	stcne	0, cr0, [r0, #-0]
    afa0:	05f01b00 	ldrbeq	r1, [r0, #2816]!	; 0xb00
    afa4:	08180255 	ldmdaeq	r8, {r0, r2, r4, r6, r9}
    afa8:	1b1c0000 	blne	70afb0 <__bss_end__+0x700f40>
    afac:	05000004 	streq	r0, [r0, #-4]
    afb0:	0681026c 	streq	r0, [r1], ip, ror #4
    afb4:	f31c0000 	vhadd.u16	d0, d12, d0
    afb8:	05000004 	streq	r0, [r0, #-4]
    afbc:	07b20275 			; <UNDEFINED> instruction: 0x07b20275
    afc0:	08000000 	stmdaeq	r0, {}	; <UNPREDICTABLE>
    afc4:	0000010d 	andeq	r0, r0, sp, lsl #2
    afc8:	00000828 	andeq	r0, r0, r8, lsr #16
    afcc:	0000c709 	andeq	ip, r0, r9, lsl #14
    afd0:	1d001800 	stcne	8, cr1, [r0, #-0]
    afd4:	00000833 	andeq	r0, r0, r3, lsr r8
    afd8:	00042415 	andeq	r2, r4, r5, lsl r4
    afdc:	040d0000 	streq	r0, [sp], #-0
    afe0:	00000828 	andeq	r0, r0, r8, lsr #16
    afe4:	0177040d 	cmneq	r7, sp, lsl #8
    afe8:	4a1d0000 	bmi	74aff0 <__bss_end__+0x740f80>
    afec:	15000008 	strne	r0, [r0, #-8]
    aff0:	00000025 	andeq	r0, r0, r5, lsr #32
    aff4:	50040d00 	andpl	r0, r4, r0, lsl #26
    aff8:	0d000008 	stceq	0, cr0, [r0, #-32]	; 0xffffffe0
    affc:	00083f04 	andeq	r3, r8, r4, lsl #30
    b000:	05ef0800 	strbeq	r0, [pc, #2048]!	; b808 <__bss_end__+0x1798>
    b004:	08660000 	stmdaeq	r6!, {}^	; <UNPREDICTABLE>
    b008:	c7090000 	strgt	r0, [r9, -r0]
    b00c:	02000000 	andeq	r0, r0, #0
    b010:	04931e00 	ldreq	r1, [r3], #3584	; 0xe00
    b014:	fd050000 	stc2	0, cr0, [r5, #-0]
    b018:	00042402 	andeq	r2, r4, r2, lsl #8
    b01c:	048c1e00 	streq	r1, [ip], #3584	; 0xe00
    b020:	fe050000 	cdp2	0, 0, cr0, cr5, cr0, {0}
    b024:	00042a02 	andeq	r2, r4, r2, lsl #20
    b028:	00251400 	eoreq	r1, r5, r0, lsl #8
    b02c:	088d0000 	stmeq	sp, {}	; <UNPREDICTABLE>
    b030:	25150000 	ldrcs	r0, [r5, #-0]
    b034:	00000000 	andeq	r0, r0, r0
    b038:	0001df1f 	andeq	sp, r1, pc, lsl pc
    b03c:	981d0600 	ldmdals	sp, {r9, sl}
    b040:	0d000008 	stceq	0, cr0, [r0, #-32]	; 0xffffffe0
    b044:	00087e04 	andeq	r7, r8, r4, lsl #28
    b048:	00251400 	eoreq	r1, r5, r0, lsl #8
    b04c:	08ad0000 	stmiaeq	sp!, {}	; <UNPREDICTABLE>
    b050:	85150000 	ldrhi	r0, [r5, #-0]
    b054:	00000005 	andeq	r0, r0, r5
    b058:	0007861f 	andeq	r8, r7, pc, lsl r6
    b05c:	b8220600 	stmdalt	r2!, {r9, sl}
    b060:	0d000008 	stceq	0, cr0, [r0, #-32]	; 0xffffffe0
    b064:	00089e04 	andeq	r9, r8, r4, lsl #28
    b068:	04080300 	streq	r0, [r8], #-768	; 0xfffffd00
    b06c:	00000bcf 	andeq	r0, r0, pc, asr #23
    b070:	000c071f 	andeq	r0, ip, pc, lsl r7
    b074:	0d0d0100 	stfeqs	f0, [sp, #-0]
    b078:	20000001 	andcs	r0, r0, r1
    b07c:	0000067d 	andeq	r0, r0, sp, ror r6
    b080:	01070e01 	tsteq	r7, r1, lsl #28
    b084:	03050000 	movweq	r0, #20480	; 0x5000
    b088:	00009694 	muleq	r0, r4, r6
    b08c:	000c1e20 	andeq	r1, ip, r0, lsr #28
    b090:	070f0100 	streq	r0, [pc, -r0, lsl #2]
    b094:	05000001 	streq	r0, [r0, #-1]
    b098:	00969803 	addseq	r9, r6, r3, lsl #16
    b09c:	0be02100 	bleq	ff8134a4 <__bss_end__+0xff809434>
    b0a0:	38010000 	stmdacc	r1, {}	; <UNPREDICTABLE>
    b0a4:	00009664 	andeq	r9, r0, r4, ror #12
    b0a8:	00000010 	andeq	r0, r0, r0, lsl r0
    b0ac:	09139c01 	ldmdbeq	r3, {r0, sl, fp, ip, pc}
    b0b0:	70220000 	eorvc	r0, r2, r0
    b0b4:	05380100 	ldreq	r0, [r8, #-256]!	; 0xffffff00
    b0b8:	01000001 	tsteq	r0, r1
    b0bc:	d6230050 			; <UNDEFINED> instruction: 0xd6230050
    b0c0:	0100000b 	tsteq	r0, fp
    b0c4:	00965037 	addseq	r5, r6, r7, lsr r0
    b0c8:	00001400 	andeq	r1, r0, r0, lsl #8
    b0cc:	219c0100 	orrscs	r0, ip, r0, lsl #2
    b0d0:	00000283 	andeq	r0, r0, r3, lsl #5
    b0d4:	964c3601 	strbls	r3, [ip], -r1, lsl #12
    b0d8:	00040000 	andeq	r0, r4, r0
    b0dc:	9c010000 	stcls	0, cr0, [r1], {-0}
    b0e0:	00000945 	andeq	r0, r0, r5, asr #18
    b0e4:	01007022 	tsteq	r0, r2, lsr #32
    b0e8:	00010536 	andeq	r0, r1, r6, lsr r5
    b0ec:	00500100 	subseq	r0, r0, r0, lsl #2
    b0f0:	000bbf24 	andeq	fp, fp, r4, lsr #30
    b0f4:	05290100 	streq	r0, [r9, #-256]!	; 0xffffff00
    b0f8:	c0000001 	andgt	r0, r0, r1
    b0fc:	8c000095 	stchi	0, cr0, [r0], {149}	; 0x95
    b100:	01000000 	mrseq	r0, (UNDEF: 0)
    b104:	000a309c 	muleq	sl, ip, r0
    b108:	069d2500 	ldreq	r2, [sp], r0, lsl #10
    b10c:	29010000 	stmdbcs	r1, {}	; <UNPREDICTABLE>
    b110:	0000002c 	andeq	r0, r0, ip, lsr #32
    b114:	00001663 	andeq	r1, r0, r3, ror #12
    b118:	000bfd25 	andeq	pc, fp, r5, lsr #26
    b11c:	2c290100 	stfcss	f0, [r9], #-0
    b120:	b6000000 	strlt	r0, [r0], -r0
    b124:	26000016 			; <UNDEFINED> instruction: 0x26000016
    b128:	0000021c 	andeq	r0, r0, ip, lsl r2
    b12c:	00000a40 	andeq	r0, r0, r0, asr #20
    b130:	9b640305 	blls	190bd4c <__bss_end__+0x1901cdc>
    b134:	68270000 	stmdavs	r7!, {}	; <UNPREDICTABLE>
    b138:	2c2e0100 	stfcss	f0, [lr], #-0
    b13c:	fd000000 	stc2	0, cr0, [r0, #-0]
    b140:	28000016 	stmdacs	r0, {r1, r2, r4}
    b144:	000095fc 	strdeq	r9, [r0], -ip
    b148:	00000a79 	andeq	r0, r0, r9, ror sl
    b14c:	000009ad 	andeq	r0, r0, sp, lsr #19
    b150:	03500129 	cmpeq	r0, #1073741834	; 0x4000000a
    b154:	005001f3 	ldrsheq	r0, [r0], #-19	; 0xffffffed
    b158:	0096042a 	addseq	r0, r6, sl, lsr #8
    b15c:	000bfb00 	andeq	pc, fp, r0, lsl #22
    b160:	96182800 	ldrls	r2, [r8], -r0, lsl #16
    b164:	0c060000 	stceq	0, cr0, [r6], {-0}
    b168:	09e50000 	stmibeq	r5!, {}^	; <UNPREDICTABLE>
    b16c:	01290000 			; <UNDEFINED> instruction: 0x01290000
    b170:	b0030550 	andlt	r0, r3, r0, asr r5
    b174:	2900009b 	stmdbcs	r0, {r0, r1, r3, r4, r7}
    b178:	03055101 	movweq	r5, #20737	; 0x5101
    b17c:	00009b74 	andeq	r9, r0, r4, ror fp
    b180:	05520129 	ldrbeq	r0, [r2, #-297]	; 0xfffffed7
    b184:	009b6403 	addseq	r6, fp, r3, lsl #8
    b188:	53012900 	movwpl	r2, #6400	; 0x1900
    b18c:	002a0802 	eoreq	r0, sl, r2, lsl #16
    b190:	00961c2a 	addseq	r1, r6, sl, lsr #24
    b194:	000c1100 	andeq	r1, ip, r0, lsl #2
    b198:	96202a00 	strtls	r2, [r0], -r0, lsl #20
    b19c:	0bfb0000 	bleq	ffecb1a4 <__bss_end__+0xffec1134>
    b1a0:	34280000 	strtcc	r0, [r8], #-0
    b1a4:	06000096 			; <UNDEFINED> instruction: 0x06000096
    b1a8:	2600000c 	strcs	r0, [r0], -ip
    b1ac:	2900000a 	stmdbcs	r0, {r1, r3}
    b1b0:	03055001 	movweq	r5, #20481	; 0x5001
    b1b4:	00009c10 	andeq	r9, r0, r0, lsl ip
    b1b8:	05510129 	ldrbeq	r0, [r1, #-297]	; 0xfffffed7
    b1bc:	009b7403 	addseq	r7, fp, r3, lsl #8
    b1c0:	52012900 	andpl	r2, r1, #0, 18
    b1c4:	9b640305 	blls	190bde0 <__bss_end__+0x1901d70>
    b1c8:	01290000 			; <UNDEFINED> instruction: 0x01290000
    b1cc:	30080253 	andcc	r0, r8, r3, asr r2
    b1d0:	96382a00 	ldrtls	r2, [r8], -r0, lsl #20
    b1d4:	0c110000 	ldceq	0, cr0, [r1], {-0}
    b1d8:	08000000 	stmdaeq	r0, {}	; <UNPREDICTABLE>
    b1dc:	00000114 	andeq	r0, r0, r4, lsl r1
    b1e0:	00000a40 	andeq	r0, r0, r0, asr #20
    b1e4:	0000c709 	andeq	ip, r0, r9, lsl #14
    b1e8:	0e000f00 	cdpeq	15, 0, cr0, cr0, cr0, {0}
    b1ec:	00000a30 	andeq	r0, r0, r0, lsr sl
    b1f0:	000bec24 	andeq	lr, fp, r4, lsr #24
    b1f4:	05250100 	streq	r0, [r5, #-256]!	; 0xffffff00
    b1f8:	b4000001 	strlt	r0, [r0], #-1
    b1fc:	0c000095 	stceq	0, cr0, [r0], {149}	; 0x95
    b200:	01000000 	mrseq	r0, (UNDEF: 0)
    b204:	000a689c 	muleq	sl, ip, r8
    b208:	95bc2a00 	ldrls	r2, [ip, #2560]!	; 0xa00
    b20c:	0bd10000 	bleq	ff44b214 <__bss_end__+0xff4411a4>
    b210:	23000000 	movwcs	r0, #0
    b214:	00000bb2 			; <UNDEFINED> instruction: 0x00000bb2
    b218:	95b02401 	ldrls	r2, [r0, #1025]!	; 0x401
    b21c:	00040000 	andeq	r0, r4, r0
    b220:	9c010000 	stcls	0, cr0, [r1], {-0}
    b224:	0004e524 	andeq	lr, r4, r4, lsr #10
    b228:	051a0100 	ldreq	r0, [sl, #-256]	; 0xffffff00
    b22c:	4c000001 	stcmi	0, cr0, [r0], {1}
    b230:	64000095 	strvs	r0, [r0], #-149	; 0xffffff6b
    b234:	01000000 	mrseq	r0, (UNDEF: 0)
    b238:	000b249c 	muleq	fp, ip, r4
    b23c:	7a732b00 	bvc	1cd5e44 <__bss_end__+0x1ccbdd4>
    b240:	2c1a0100 	ldfcss	f0, [sl], {-0}
    b244:	35000000 	strcc	r0, [r0, #-0]
    b248:	26000017 			; <UNDEFINED> instruction: 0x26000017
    b24c:	0000021c 	andeq	r0, r0, ip, lsl r2
    b250:	00000b34 	andeq	r0, r0, r4, lsr fp
    b254:	9b5c0305 	blls	170be70 <__bss_end__+0x1701e00>
    b258:	2a2c0000 	bcs	b0b260 <__bss_end__+0xb011f0>
    b25c:	0100000c 	tsteq	r0, ip
    b260:	0001051e 	andeq	r0, r1, lr, lsl r5
    b264:	00177f00 	andseq	r7, r7, r0, lsl #30
    b268:	957c2800 	ldrbls	r2, [ip, #-2048]!	; 0xfffff800
    b26c:	0c1c0000 	ldceq	0, cr0, [ip], {-0}
    b270:	0ae30000 	beq	ff8cb278 <__bss_end__+0xff8c1208>
    b274:	01290000 			; <UNDEFINED> instruction: 0x01290000
    b278:	00740250 	rsbseq	r0, r4, r0, asr r2
    b27c:	01510129 	cmpeq	r1, r9, lsr #2
    b280:	52012930 	andpl	r2, r1, #48, 18	; 0xc0000
    b284:	5001f308 	andpl	pc, r1, r8, lsl #6
    b288:	f8090723 			; <UNDEFINED> instruction: 0xf8090723
    b28c:	882a001a 	stmdahi	sl!, {r1, r3, r4}
    b290:	fb000095 	blx	b4ee <__bss_end__+0x147e>
    b294:	2800000b 	stmdacs	r0, {r0, r1, r3}
    b298:	0000959c 	muleq	r0, ip, r5
    b29c:	00000c06 	andeq	r0, r0, r6, lsl #24
    b2a0:	00000b1a 	andeq	r0, r0, sl, lsl fp
    b2a4:	05500129 	ldrbeq	r0, [r0, #-297]	; 0xfffffed7
    b2a8:	009b9c03 	addseq	r9, fp, r3, lsl #24
    b2ac:	51012900 	tstpl	r1, r0, lsl #18
    b2b0:	9b740305 	blls	1d0becc <__bss_end__+0x1d01e5c>
    b2b4:	01290000 			; <UNDEFINED> instruction: 0x01290000
    b2b8:	5c030552 	cfstr32pl	mvfx0, [r3], {82}	; 0x52
    b2bc:	2900009b 	stmdbcs	r0, {r0, r1, r3, r4, r7}
    b2c0:	4b015301 	blmi	5fecc <__bss_end__+0x55e5c>
    b2c4:	95a02a00 	strls	r2, [r0, #2560]!	; 0xa00
    b2c8:	0c110000 	ldceq	0, cr0, [r1], {-0}
    b2cc:	08000000 	stmdaeq	r0, {}	; <UNPREDICTABLE>
    b2d0:	00000114 	andeq	r0, r0, r4, lsl r1
    b2d4:	00000b34 	andeq	r0, r0, r4, lsr fp
    b2d8:	0000c709 	andeq	ip, r0, r9, lsl #14
    b2dc:	0e000700 	cdpeq	7, 0, cr0, cr0, cr0, {0}
    b2e0:	00000b24 	andeq	r0, r0, r4, lsr #22
    b2e4:	00016421 	andeq	r6, r1, r1, lsr #8
    b2e8:	fc140100 	ldc2	1, cr0, [r4], {-0}
    b2ec:	50000094 	mulpl	r0, r4, r0
    b2f0:	01000000 	mrseq	r0, (UNDEF: 0)
    b2f4:	000bbc9c 	muleq	fp, ip, ip
    b2f8:	0c292500 	cfstr32eq	mvfx2, [r9], #-0
    b2fc:	14010000 	strne	r0, [r1], #-0
    b300:	0000002c 	andeq	r0, r0, ip, lsr #32
    b304:	00001792 	muleq	r0, r2, r7
    b308:	000c2a2c 	andeq	r2, ip, ip, lsr #20
    b30c:	07150100 	ldreq	r0, [r5, -r0, lsl #2]
    b310:	b3000001 	movwlt	r0, #1
    b314:	26000017 			; <UNDEFINED> instruction: 0x26000017
    b318:	0000021c 	andeq	r0, r0, ip, lsl r2
    b31c:	00000bcc 	andeq	r0, r0, ip, asr #23
    b320:	9b440305 	blls	110bf3c <__bss_end__+0x1101ecc>
    b324:	242a0000 	strtcs	r0, [sl], #-0
    b328:	fb000095 	blx	b586 <__bss_end__+0x1516>
    b32c:	2800000b 	stmdacs	r0, {r0, r1, r3}
    b330:	00009538 	andeq	r9, r0, r8, lsr r5
    b334:	00000c06 	andeq	r0, r0, r6, lsl #24
    b338:	00000bb2 			; <UNDEFINED> instruction: 0x00000bb2
    b33c:	05500129 	ldrbeq	r0, [r0, #-297]	; 0xfffffed7
    b340:	009b8003 	addseq	r8, fp, r3
    b344:	51012900 	tstpl	r1, r0, lsl #18
    b348:	9b740305 	blls	1d0bf64 <__bss_end__+0x1d01ef4>
    b34c:	01290000 			; <UNDEFINED> instruction: 0x01290000
    b350:	44030552 	strmi	r0, [r3], #-1362	; 0xfffffaae
    b354:	2900009b 	stmdbcs	r0, {r0, r1, r3, r4, r7}
    b358:	46015301 	strmi	r5, [r1], -r1, lsl #6
    b35c:	953c2a00 	ldrls	r2, [ip, #-2560]!	; 0xfffff600
    b360:	0c110000 	ldceq	0, cr0, [r1], {-0}
    b364:	08000000 	stmdaeq	r0, {}	; <UNPREDICTABLE>
    b368:	00000114 	andeq	r0, r0, r4, lsl r1
    b36c:	00000bcc 	andeq	r0, r0, ip, asr #23
    b370:	0000c709 	andeq	ip, r0, r9, lsl #14
    b374:	0e001600 	cfmadd32eq	mvax0, mvfx1, mvfx0, mvfx0
    b378:	00000bbc 			; <UNDEFINED> instruction: 0x00000bbc
    b37c:	000c162d 	andeq	r1, ip, sp, lsr #12
    b380:	05120100 	ldreq	r0, [r2, #-256]	; 0xffffff00
    b384:	f0000001 			; <UNDEFINED> instruction: 0xf0000001
    b388:	0c000094 	stceq	0, cr0, [r0], {148}	; 0x94
    b38c:	01000000 	mrseq	r0, (UNDEF: 0)
    b390:	0c2f2d9c 	stceq	13, cr2, [pc], #-624	; b128 <__bss_end__+0x10b8>
    b394:	11010000 	mrsne	r0, (UNDEF: 1)
    b398:	00000105 	andeq	r0, r0, r5, lsl #2
    b39c:	000094e0 	andeq	r9, r0, r0, ror #9
    b3a0:	00000010 	andeq	r0, r0, r0, lsl r0
    b3a4:	f72e9c01 			; <UNDEFINED> instruction: 0xf72e9c01
    b3a8:	f7000001 			; <UNDEFINED> instruction: 0xf7000001
    b3ac:	06000001 	streq	r0, [r0], -r1
    b3b0:	071d2e1e 			; <UNDEFINED> instruction: 0x071d2e1e
    b3b4:	071d0000 	ldreq	r0, [sp, -r0]
    b3b8:	29060000 	stmdbcs	r6, {}	; <UNPREDICTABLE>
    b3bc:	0002a02e 	andeq	sl, r2, lr, lsr #32
    b3c0:	0002a000 	andeq	sl, r2, r0
    b3c4:	2e650600 	cdpcs	6, 6, cr0, cr5, cr0, {0}
    b3c8:	0000049f 	muleq	r0, pc, r4	; <UNPREDICTABLE>
    b3cc:	0000049f 	muleq	r0, pc, r4	; <UNPREDICTABLE>
    b3d0:	Address 0x000000000000b3d0 is out of bounds.


Disassembly of section .debug_abbrev:

00000000 <.debug_abbrev>:
       0:	25011101 	strcs	r1, [r1, #-257]	; 0xfffffeff
       4:	030b130e 	movweq	r1, #45838	; 0xb30e
       8:	110e1b0e 	tstne	lr, lr, lsl #22
       c:	10061201 	andne	r1, r6, r1, lsl #4
      10:	02000017 	andeq	r0, r0, #23
      14:	0b0b0024 	bleq	2c00ac <__bss_end__+0x2b603c>
      18:	08030b3e 	stmdaeq	r3, {r1, r2, r3, r4, r5, r8, r9, fp}
      1c:	24030000 	strcs	r0, [r3], #-0
      20:	3e0b0b00 	vmlacc.f64	d0, d11, d0
      24:	000e030b 	andeq	r0, lr, fp, lsl #6
      28:	00160400 	andseq	r0, r6, r0, lsl #8
      2c:	0b3a0e03 	bleq	e83840 <__bss_end__+0xe797d0>
      30:	0b390b3b 	bleq	e42d24 <__bss_end__+0xe38cb4>
      34:	00001349 	andeq	r1, r0, r9, asr #6
      38:	0b000f05 	bleq	3c54 <_start-0x43ac>
      3c:	0013490b 	andseq	r4, r3, fp, lsl #18
      40:	00130600 	andseq	r0, r3, r0, lsl #12
      44:	193c0e03 	ldmdbne	ip!, {r0, r1, r9, sl, fp}
      48:	16070000 	strne	r0, [r7], -r0
      4c:	3a0e0300 	bcc	380c54 <__bss_end__+0x376be4>
      50:	39053b0b 	stmdbcc	r5, {r0, r1, r3, r8, r9, fp, ip, sp}
      54:	0013490b 	andseq	r4, r3, fp, lsl #18
      58:	01170800 	tsteq	r7, r0, lsl #16
      5c:	0b3a0b0b 	bleq	e82c90 <__bss_end__+0xe78c20>
      60:	0b390b3b 	bleq	e42d54 <__bss_end__+0xe38ce4>
      64:	00001301 	andeq	r1, r0, r1, lsl #6
      68:	03000d09 	movweq	r0, #3337	; 0xd09
      6c:	3b0b3a0e 	blcc	2ce8ac <__bss_end__+0x2c483c>
      70:	490b390b 	stmdbmi	fp, {r0, r1, r3, r8, fp, ip, sp}
      74:	0a000013 	beq	c8 <_start-0x7f38>
      78:	13490101 	movtne	r0, #37121	; 0x9101
      7c:	00001301 	andeq	r1, r0, r1, lsl #6
      80:	4900210b 	stmdbmi	r0, {r0, r1, r3, r8, sp}
      84:	000b2f13 	andeq	r2, fp, r3, lsl pc
      88:	01130c00 	tsteq	r3, r0, lsl #24
      8c:	0b3a0b0b 	bleq	e82cc0 <__bss_end__+0xe78c50>
      90:	0b390b3b 	bleq	e42d84 <__bss_end__+0xe38d14>
      94:	00001301 	andeq	r1, r0, r1, lsl #6
      98:	03000d0d 	movweq	r0, #3341	; 0xd0d
      9c:	3b0b3a0e 	blcc	2ce8dc <__bss_end__+0x2c486c>
      a0:	490b390b 	stmdbmi	fp, {r0, r1, r3, r8, fp, ip, sp}
      a4:	000b3813 	andeq	r3, fp, r3, lsl r8
      a8:	000f0e00 	andeq	r0, pc, r0, lsl #28
      ac:	00000b0b 	andeq	r0, r0, fp, lsl #22
      b0:	4900260f 	stmdbmi	r0, {r0, r1, r2, r3, r9, sl, sp}
      b4:	10000013 	andne	r0, r0, r3, lsl r0
      b8:	0e030113 	mcreq	1, 0, r0, cr3, cr3, {0}
      bc:	0b3a0b0b 	bleq	e82cf0 <__bss_end__+0xe78c80>
      c0:	0b390b3b 	bleq	e42db4 <__bss_end__+0xe38d44>
      c4:	00001301 	andeq	r1, r0, r1, lsl #6
      c8:	03000d11 	movweq	r0, #3345	; 0xd11
      cc:	3b0b3a08 	blcc	2ce8f4 <__bss_end__+0x2c4884>
      d0:	490b390b 	stmdbmi	fp, {r0, r1, r3, r8, fp, ip, sp}
      d4:	000b3813 	andeq	r3, fp, r3, lsl r8
      d8:	01131200 	tsteq	r3, r0, lsl #4
      dc:	050b0e03 	streq	r0, [fp, #-3587]	; 0xfffff1fd
      e0:	0b3b0b3a 	bleq	ec2dd0 <__bss_end__+0xeb8d60>
      e4:	13010b39 	movwne	r0, #6969	; 0x1b39
      e8:	0d130000 	ldceq	0, cr0, [r3, #-0]
      ec:	3a0e0300 	bcc	380cf4 <__bss_end__+0x376c84>
      f0:	390b3b0b 	stmdbcc	fp, {r0, r1, r3, r8, r9, fp, ip, sp}
      f4:	3813490b 	ldmdacc	r3, {r0, r1, r3, r8, fp, lr}
      f8:	14000005 	strne	r0, [r0], #-5
      fc:	19270015 	stmdbne	r7!, {r0, r2, r4}
     100:	15150000 	ldrne	r0, [r5, #-0]
     104:	49192701 	ldmdbmi	r9, {r0, r8, r9, sl, sp}
     108:	00130113 	andseq	r0, r3, r3, lsl r1
     10c:	00051600 	andeq	r1, r5, r0, lsl #12
     110:	00001349 	andeq	r1, r0, r9, asr #6
     114:	03011317 	movweq	r1, #4887	; 0x1317
     118:	3a050b0e 	bcc	142d58 <__bss_end__+0x138ce8>
     11c:	39053b0b 	stmdbcc	r5, {r0, r1, r3, r8, r9, fp, ip, sp}
     120:	0013010b 	andseq	r0, r3, fp, lsl #2
     124:	000d1800 	andeq	r1, sp, r0, lsl #16
     128:	0b3a0e03 	bleq	e8393c <__bss_end__+0xe798cc>
     12c:	0b39053b 	bleq	e41620 <__bss_end__+0xe375b0>
     130:	0b381349 	bleq	e04e5c <__bss_end__+0xdfadec>
     134:	0d190000 	ldceq	0, cr0, [r9, #-0]
     138:	3a0e0300 	bcc	380d40 <__bss_end__+0x376cd0>
     13c:	39053b0b 	stmdbcc	r5, {r0, r1, r3, r8, r9, fp, ip, sp}
     140:	3813490b 	ldmdacc	r3, {r0, r1, r3, r8, fp, lr}
     144:	1a000005 	bne	160 <_start-0x7ea0>
     148:	0e030113 	mcreq	1, 0, r0, cr3, cr3, {0}
     14c:	0b3a0b0b 	bleq	e82d80 <__bss_end__+0xe78d10>
     150:	0b39053b 	bleq	e41644 <__bss_end__+0xe375d4>
     154:	00001301 	andeq	r1, r0, r1, lsl #6
     158:	0b01131b 	bleq	44dcc <__bss_end__+0x3ad5c>
     15c:	3b0b3a0b 	blcc	2ce990 <__bss_end__+0x2c4920>
     160:	010b3905 	tsteq	fp, r5, lsl #18
     164:	1c000013 	stcne	0, cr0, [r0], {19}
     168:	0b0b0117 	bleq	2c05cc <__bss_end__+0x2b655c>
     16c:	053b0b3a 	ldreq	r0, [fp, #-2874]!	; 0xfffff4c6
     170:	13010b39 	movwne	r0, #6969	; 0x1b39
     174:	0d1d0000 	ldceq	0, cr0, [sp, #-0]
     178:	3a0e0300 	bcc	380d80 <__bss_end__+0x376d10>
     17c:	39053b0b 	stmdbcc	r5, {r0, r1, r3, r8, r9, fp, ip, sp}
     180:	0013490b 	andseq	r4, r3, fp, lsl #18
     184:	01151e00 	tsteq	r5, r0, lsl #28
     188:	13011927 	movwne	r1, #6439	; 0x1927
     18c:	341f0000 	ldrcc	r0, [pc], #-0	; 194 <_start-0x7e6c>
     190:	3a0e0300 	bcc	380d98 <__bss_end__+0x376d28>
     194:	39053b0b 	stmdbcc	r5, {r0, r1, r3, r8, r9, fp, ip, sp}
     198:	3f13490b 	svccc	0x0013490b
     19c:	00193c19 	andseq	r3, r9, r9, lsl ip
     1a0:	00342000 	eorseq	r2, r4, r0
     1a4:	0b3a0e03 	bleq	e839b8 <__bss_end__+0xe79948>
     1a8:	0b390b3b 	bleq	e42e9c <__bss_end__+0xe38e2c>
     1ac:	193f1349 	ldmdbne	pc!, {r0, r3, r6, r8, r9, ip}	; <UNPREDICTABLE>
     1b0:	0000193c 	andeq	r1, r0, ip, lsr r9
     1b4:	3f012e21 	svccc	0x00012e21
     1b8:	3a0e0319 	bcc	380e24 <__bss_end__+0x376db4>
     1bc:	390b3b0b 	stmdbcc	fp, {r0, r1, r3, r8, r9, fp, ip, sp}
     1c0:	1119270b 	tstne	r9, fp, lsl #14
     1c4:	40061201 	andmi	r1, r6, r1, lsl #4
     1c8:	19429718 	stmdbne	r2, {r3, r4, r8, r9, sl, ip, pc}^
     1cc:	00001301 	andeq	r1, r0, r1, lsl #6
     1d0:	03003422 	movweq	r3, #1058	; 0x422
     1d4:	3b0b3a08 	blcc	2ce9fc <__bss_end__+0x2c498c>
     1d8:	490b390b 	stmdbmi	fp, {r0, r1, r3, r8, fp, ip, sp}
     1dc:	00061c13 	andeq	r1, r6, r3, lsl ip
     1e0:	00342300 	eorseq	r2, r4, r0, lsl #6
     1e4:	0b3a0803 	bleq	e821f8 <__bss_end__+0xe78188>
     1e8:	0b390b3b 	bleq	e42edc <__bss_end__+0xe38e6c>
     1ec:	17021349 	strne	r1, [r2, -r9, asr #6]
     1f0:	001742b7 			; <UNDEFINED> instruction: 0x001742b7
     1f4:	00342400 	eorseq	r2, r4, r0, lsl #8
     1f8:	13490e03 	movtne	r0, #40451	; 0x9e03
     1fc:	18021934 	stmdane	r2, {r2, r4, r5, r8, fp, ip}
     200:	34250000 	strtcc	r0, [r5], #-0
     204:	3a0e0300 	bcc	380e0c <__bss_end__+0x376d9c>
     208:	390b3b0b 	stmdbcc	fp, {r0, r1, r3, r8, r9, fp, ip, sp}
     20c:	0213490b 	andseq	r4, r3, #180224	; 0x2c000
     210:	1742b717 	smlaldne	fp, r2, r7, r7
     214:	89260000 	stmdbhi	r6!, {}	; <UNPREDICTABLE>
     218:	11010182 	smlabbne	r1, r2, r1, r0
     21c:	01133101 	tsteq	r3, r1, lsl #2
     220:	27000013 	smladcs	r0, r3, r0, r0
     224:	0001828a 	andeq	r8, r1, sl, lsl #5
     228:	42911802 	addsmi	r1, r1, #131072	; 0x20000
     22c:	28000018 	stmdacs	r0, {r3, r4}
     230:	00018289 	andeq	r8, r1, r9, lsl #5
     234:	13310111 	teqne	r1, #1073741828	; 0x40000004
     238:	2e290000 	cdpcs	0, 2, cr0, cr9, cr0, {0}
     23c:	3c193f00 	ldccc	15, cr3, [r9], {-0}
     240:	030e6e19 	movweq	r6, #60953	; 0xee19
     244:	3b0b3a0e 	blcc	2cea84 <__bss_end__+0x2c4a14>
     248:	000b390b 	andeq	r3, fp, fp, lsl #18
     24c:	11010000 	mrsne	r0, (UNDEF: 1)
     250:	130e2501 	movwne	r2, #58625	; 0xe501
     254:	1b0e030b 	blne	380e88 <__bss_end__+0x376e18>
     258:	1201110e 	andne	r1, r1, #-2147483645	; 0x80000003
     25c:	00171006 	andseq	r1, r7, r6
     260:	00240200 	eoreq	r0, r4, r0, lsl #4
     264:	0b3e0b0b 	bleq	f82e98 <__bss_end__+0xf78e28>
     268:	00000803 	andeq	r0, r0, r3, lsl #16
     26c:	0b002403 	bleq	9280 <uart_init+0x18>
     270:	030b3e0b 	movweq	r3, #48651	; 0xbe0b
     274:	0400000e 	streq	r0, [r0], #-14
     278:	0e030016 	mcreq	0, 0, r0, cr3, cr6, {0}
     27c:	0b3b0b3a 	bleq	ec2f6c <__bss_end__+0xeb8efc>
     280:	13490b39 	movtne	r0, #39737	; 0x9b39
     284:	0f050000 	svceq	0x00050000
     288:	490b0b00 	stmdbmi	fp, {r8, r9, fp}
     28c:	06000013 			; <UNDEFINED> instruction: 0x06000013
     290:	0e030013 	mcreq	0, 0, r0, cr3, cr3, {0}
     294:	0000193c 	andeq	r1, r0, ip, lsr r9
     298:	03001607 	movweq	r1, #1543	; 0x607
     29c:	3b0b3a0e 	blcc	2ceadc <__bss_end__+0x2c4a6c>
     2a0:	490b3905 	stmdbmi	fp, {r0, r2, r8, fp, ip, sp}
     2a4:	08000013 	stmdaeq	r0, {r0, r1, r4}
     2a8:	0b0b0117 	bleq	2c070c <__bss_end__+0x2b669c>
     2ac:	0b3b0b3a 	bleq	ec2f9c <__bss_end__+0xeb8f2c>
     2b0:	13010b39 	movwne	r0, #6969	; 0x1b39
     2b4:	0d090000 	stceq	0, cr0, [r9, #-0]
     2b8:	3a0e0300 	bcc	380ec0 <__bss_end__+0x376e50>
     2bc:	390b3b0b 	stmdbcc	fp, {r0, r1, r3, r8, r9, fp, ip, sp}
     2c0:	0013490b 	andseq	r4, r3, fp, lsl #18
     2c4:	01010a00 	tsteq	r1, r0, lsl #20
     2c8:	13011349 	movwne	r1, #4937	; 0x1349
     2cc:	210b0000 	mrscs	r0, (UNDEF: 11)
     2d0:	2f134900 	svccs	0x00134900
     2d4:	0c00000b 	stceq	0, cr0, [r0], {11}
     2d8:	0b0b0113 	bleq	2c072c <__bss_end__+0x2b66bc>
     2dc:	0b3b0b3a 	bleq	ec2fcc <__bss_end__+0xeb8f5c>
     2e0:	13010b39 	movwne	r0, #6969	; 0x1b39
     2e4:	0d0d0000 	stceq	0, cr0, [sp, #-0]
     2e8:	3a0e0300 	bcc	380ef0 <__bss_end__+0x376e80>
     2ec:	390b3b0b 	stmdbcc	fp, {r0, r1, r3, r8, r9, fp, ip, sp}
     2f0:	3813490b 	ldmdacc	r3, {r0, r1, r3, r8, fp, lr}
     2f4:	0e00000b 	cdpeq	0, 0, cr0, cr0, cr11, {0}
     2f8:	0b0b000f 	bleq	2c033c <__bss_end__+0x2b62cc>
     2fc:	260f0000 	strcs	r0, [pc], -r0
     300:	00134900 	andseq	r4, r3, r0, lsl #18
     304:	01131000 	tsteq	r3, r0
     308:	0b0b0e03 	bleq	2c3b1c <__bss_end__+0x2b9aac>
     30c:	0b3b0b3a 	bleq	ec2ffc <__bss_end__+0xeb8f8c>
     310:	13010b39 	movwne	r0, #6969	; 0x1b39
     314:	0d110000 	ldceq	0, cr0, [r1, #-0]
     318:	3a080300 	bcc	200f20 <__bss_end__+0x1f6eb0>
     31c:	390b3b0b 	stmdbcc	fp, {r0, r1, r3, r8, r9, fp, ip, sp}
     320:	3813490b 	ldmdacc	r3, {r0, r1, r3, r8, fp, lr}
     324:	1200000b 	andne	r0, r0, #11
     328:	0e030113 	mcreq	1, 0, r0, cr3, cr3, {0}
     32c:	0b3a050b 	bleq	e81760 <__bss_end__+0xe776f0>
     330:	0b390b3b 	bleq	e43024 <__bss_end__+0xe38fb4>
     334:	00001301 	andeq	r1, r0, r1, lsl #6
     338:	03000d13 	movweq	r0, #3347	; 0xd13
     33c:	3b0b3a0e 	blcc	2ceb7c <__bss_end__+0x2c4b0c>
     340:	490b390b 	stmdbmi	fp, {r0, r1, r3, r8, fp, ip, sp}
     344:	00053813 	andeq	r3, r5, r3, lsl r8
     348:	00151400 	andseq	r1, r5, r0, lsl #8
     34c:	00001927 	andeq	r1, r0, r7, lsr #18
     350:	27011515 	smladcs	r1, r5, r5, r1
     354:	01134919 	tsteq	r3, r9, lsl r9
     358:	16000013 			; <UNDEFINED> instruction: 0x16000013
     35c:	13490005 	movtne	r0, #36869	; 0x9005
     360:	13170000 	tstne	r7, #0
     364:	0b0e0301 	bleq	380f70 <__bss_end__+0x376f00>
     368:	3b0b3a05 	blcc	2ceb84 <__bss_end__+0x2c4b14>
     36c:	010b3905 	tsteq	fp, r5, lsl #18
     370:	18000013 	stmdane	r0, {r0, r1, r4}
     374:	0e03000d 	cdpeq	0, 0, cr0, cr3, cr13, {0}
     378:	053b0b3a 	ldreq	r0, [fp, #-2874]!	; 0xfffff4c6
     37c:	13490b39 	movtne	r0, #39737	; 0x9b39
     380:	00000b38 	andeq	r0, r0, r8, lsr fp
     384:	03000d19 	movweq	r0, #3353	; 0xd19
     388:	3b0b3a0e 	blcc	2cebc8 <__bss_end__+0x2c4b58>
     38c:	490b3905 	stmdbmi	fp, {r0, r2, r8, fp, ip, sp}
     390:	00053813 	andeq	r3, r5, r3, lsl r8
     394:	01131a00 	tsteq	r3, r0, lsl #20
     398:	0b0b0e03 	bleq	2c3bac <__bss_end__+0x2b9b3c>
     39c:	053b0b3a 	ldreq	r0, [fp, #-2874]!	; 0xfffff4c6
     3a0:	13010b39 	movwne	r0, #6969	; 0x1b39
     3a4:	131b0000 	tstne	fp, #0
     3a8:	3a0b0b01 	bcc	2c2fb4 <__bss_end__+0x2b8f44>
     3ac:	39053b0b 	stmdbcc	r5, {r0, r1, r3, r8, r9, fp, ip, sp}
     3b0:	0013010b 	andseq	r0, r3, fp, lsl #2
     3b4:	01171c00 	tsteq	r7, r0, lsl #24
     3b8:	0b3a0b0b 	bleq	e82fec <__bss_end__+0xe78f7c>
     3bc:	0b39053b 	bleq	e418b0 <__bss_end__+0xe37840>
     3c0:	00001301 	andeq	r1, r0, r1, lsl #6
     3c4:	03000d1d 	movweq	r0, #3357	; 0xd1d
     3c8:	3b0b3a0e 	blcc	2cec08 <__bss_end__+0x2c4b98>
     3cc:	490b3905 	stmdbmi	fp, {r0, r2, r8, fp, ip, sp}
     3d0:	1e000013 	mcrne	0, 0, r0, cr0, cr3, {0}
     3d4:	19270115 	stmdbne	r7!, {r0, r2, r4, r8}
     3d8:	00001301 	andeq	r1, r0, r1, lsl #6
     3dc:	0300341f 	movweq	r3, #1055	; 0x41f
     3e0:	3b0b3a0e 	blcc	2cec20 <__bss_end__+0x2c4bb0>
     3e4:	490b3905 	stmdbmi	fp, {r0, r2, r8, fp, ip, sp}
     3e8:	3c193f13 	ldccc	15, cr3, [r9], {19}
     3ec:	20000019 	andcs	r0, r0, r9, lsl r0
     3f0:	0e030034 	mcreq	0, 0, r0, cr3, cr4, {1}
     3f4:	0b3b0b3a 	bleq	ec30e4 <__bss_end__+0xeb9074>
     3f8:	13490b39 	movtne	r0, #39737	; 0x9b39
     3fc:	193c193f 	ldmdbne	ip!, {r0, r1, r2, r3, r4, r5, r8, fp, ip}
     400:	04210000 	strteq	r0, [r1], #-0
     404:	0b0b3e01 	bleq	2cfc10 <__bss_end__+0x2c5ba0>
     408:	3a13490b 	bcc	4d283c <__bss_end__+0x4c87cc>
     40c:	390b3b0b 	stmdbcc	fp, {r0, r1, r3, r8, r9, fp, ip, sp}
     410:	0013010b 	andseq	r0, r3, fp, lsl #2
     414:	00282200 	eoreq	r2, r8, r0, lsl #4
     418:	0b1c0e03 	bleq	703c2c <__bss_end__+0x6f9bbc>
     41c:	28230000 	stmdacs	r3!, {}	; <UNPREDICTABLE>
     420:	1c0e0300 	stcne	3, cr0, [lr], {-0}
     424:	24000005 	strcs	r0, [r0], #-5
     428:	0e030034 	mcreq	0, 0, r0, cr3, cr4, {1}
     42c:	0b3b0b3a 	bleq	ec311c <__bss_end__+0xeb90ac>
     430:	13490b39 	movtne	r0, #39737	; 0x9b39
     434:	00001802 	andeq	r1, r0, r2, lsl #16
     438:	3f012e25 	svccc	0x00012e25
     43c:	3a0e0319 	bcc	3810a8 <__bss_end__+0x377038>
     440:	390b3b0b 	stmdbcc	fp, {r0, r1, r3, r8, r9, fp, ip, sp}
     444:	4919270b 	ldmdbmi	r9, {r0, r1, r3, r8, r9, sl, sp}
     448:	12011113 	andne	r1, r1, #-1073741820	; 0xc0000004
     44c:	97184006 	ldrls	r4, [r8, -r6]
     450:	13011942 	movwne	r1, #6466	; 0x1942
     454:	34260000 	strtcc	r0, [r6], #-0
     458:	3a0e0300 	bcc	381060 <__bss_end__+0x376ff0>
     45c:	390b3b0b 	stmdbcc	fp, {r0, r1, r3, r8, r9, fp, ip, sp}
     460:	0213490b 	andseq	r4, r3, #180224	; 0x2c000
     464:	1742b717 	smlaldne	fp, r2, r7, r7
     468:	0b270000 	bleq	9c0470 <__bss_end__+0x9b6400>
     46c:	01175501 	tsteq	r7, r1, lsl #10
     470:	28000013 	stmdacs	r0, {r0, r1, r4}
     474:	00018289 	andeq	r8, r1, r9, lsl #5
     478:	13310111 	teqne	r1, #1073741828	; 0x40000004
     47c:	89290000 	stmdbhi	r9!, {}	; <UNPREDICTABLE>
     480:	11010182 	smlabbne	r1, r2, r1, r0
     484:	01133101 	tsteq	r3, r1, lsl #2
     488:	2a000013 	bcs	4dc <_start-0x7b24>
     48c:	0001828a 	andeq	r8, r1, sl, lsl #5
     490:	42911802 	addsmi	r1, r1, #131072	; 0x20000
     494:	2b000018 	blcs	4fc <_start-0x7b04>
     498:	01018289 	smlabbeq	r1, r9, r2, r8
     49c:	13310111 	teqne	r1, #1073741828	; 0x40000004
     4a0:	052c0000 	streq	r0, [ip, #-0]!
     4a4:	3a080300 	bcc	2010ac <__bss_end__+0x1f703c>
     4a8:	390b3b0b 	stmdbcc	fp, {r0, r1, r3, r8, r9, fp, ip, sp}
     4ac:	0213490b 	andseq	r4, r3, #180224	; 0x2c000
     4b0:	1742b717 	smlaldne	fp, r2, r7, r7
     4b4:	342d0000 	strtcc	r0, [sp], #-0
     4b8:	3a080300 	bcc	2010c0 <__bss_end__+0x1f7050>
     4bc:	390b3b0b 	stmdbcc	fp, {r0, r1, r3, r8, r9, fp, ip, sp}
     4c0:	0213490b 	andseq	r4, r3, #180224	; 0x2c000
     4c4:	1742b717 	smlaldne	fp, r2, r7, r7
     4c8:	052e0000 	streq	r0, [lr, #-0]!
     4cc:	3a0e0300 	bcc	3810d4 <__bss_end__+0x377064>
     4d0:	390b3b0b 	stmdbcc	fp, {r0, r1, r3, r8, r9, fp, ip, sp}
     4d4:	0213490b 	andseq	r4, r3, #180224	; 0x2c000
     4d8:	1742b717 	smlaldne	fp, r2, r7, r7
     4dc:	342f0000 	strtcc	r0, [pc], #-0	; 4e4 <_start-0x7b1c>
     4e0:	490e0300 	stmdbmi	lr, {r8, r9}
     4e4:	02193413 	andseq	r3, r9, #318767104	; 0x13000000
     4e8:	30000018 	andcc	r0, r0, r8, lsl r0
     4ec:	193f012e 	ldmdbne	pc!, {r1, r2, r3, r5, r8}	; <UNPREDICTABLE>
     4f0:	0b3a0e03 	bleq	e83d04 <__bss_end__+0xe79c94>
     4f4:	0b390b3b 	bleq	e431e8 <__bss_end__+0xe39178>
     4f8:	01111927 	tsteq	r1, r7, lsr #18
     4fc:	18400612 	stmdane	r0, {r1, r4, r9, sl}^
     500:	01194297 			; <UNDEFINED> instruction: 0x01194297
     504:	31000013 	tstcc	r0, r3, lsl r0
     508:	0e03012e 	adfeqsp	f0, f3, #0.5
     50c:	0b3b0b3a 	bleq	ec31fc <__bss_end__+0xeb918c>
     510:	19270b39 	stmdbne	r7!, {r0, r3, r4, r5, r8, r9, fp}
     514:	01111349 	tsteq	r1, r9, asr #6
     518:	18400612 	stmdane	r0, {r1, r4, r9, sl}^
     51c:	01194297 			; <UNDEFINED> instruction: 0x01194297
     520:	32000013 	andcc	r0, r0, #19
     524:	0e03012e 	adfeqsp	f0, f3, #0.5
     528:	0b3b0b3a 	bleq	ec3218 <__bss_end__+0xeb91a8>
     52c:	19270b39 	stmdbne	r7!, {r0, r3, r4, r5, r8, r9, fp}
     530:	06120111 			; <UNDEFINED> instruction: 0x06120111
     534:	42971840 	addsmi	r1, r7, #64, 16	; 0x400000
     538:	00130119 	andseq	r0, r3, r9, lsl r1
     53c:	010b3300 	mrseq	r3, (UNDEF: 59)
     540:	06120111 			; <UNDEFINED> instruction: 0x06120111
     544:	1d340000 	ldcne	0, cr0, [r4, #-0]
     548:	52133101 	andspl	r3, r3, #1073741824	; 0x40000000
     54c:	0b42b801 	bleq	10ae558 <__bss_end__+0x10a44e8>
     550:	0b581755 	bleq	16062ac <__bss_end__+0x15fc23c>
     554:	0b570b59 	bleq	15c32c0 <__bss_end__+0x15b9250>
     558:	00001301 	andeq	r1, r0, r1, lsl #6
     55c:	31000535 	tstcc	r0, r5, lsr r5
     560:	b7170213 			; <UNDEFINED> instruction: 0xb7170213
     564:	00001742 	andeq	r1, r0, r2, asr #14
     568:	55010b36 	strpl	r0, [r1, #-2870]	; 0xfffff4ca
     56c:	37000017 	smladcc	r0, r7, r0, r0
     570:	13310034 	teqne	r1, #52	; 0x34
     574:	42b71702 	adcsmi	r1, r7, #524288	; 0x80000
     578:	38000017 	stmdacc	r0, {r0, r1, r2, r4}
     57c:	0e03012e 	adfeqsp	f0, f3, #0.5
     580:	0b3b0b3a 	bleq	ec3270 <__bss_end__+0xeb9200>
     584:	19270b39 	stmdbne	r7!, {r0, r3, r4, r5, r8, r9, fp}
     588:	13010b20 	movwne	r0, #6944	; 0x1b20
     58c:	05390000 	ldreq	r0, [r9, #-0]!
     590:	3a080300 	bcc	201198 <__bss_end__+0x1f7128>
     594:	390b3b0b 	stmdbcc	fp, {r0, r1, r3, r8, r9, fp, ip, sp}
     598:	0013490b 	andseq	r4, r3, fp, lsl #18
     59c:	00343a00 	eorseq	r3, r4, r0, lsl #20
     5a0:	0b3a0803 	bleq	e825b4 <__bss_end__+0xe78544>
     5a4:	0b390b3b 	bleq	e43298 <__bss_end__+0xe39228>
     5a8:	00001349 	andeq	r1, r0, r9, asr #6
     5ac:	3f002e3b 	svccc	0x00002e3b
     5b0:	6e193c19 	mrcvs	12, 0, r3, cr9, cr9, {0}
     5b4:	3a0e030e 	bcc	3811f4 <__bss_end__+0x377184>
     5b8:	390b3b0b 	stmdbcc	fp, {r0, r1, r3, r8, r9, fp, ip, sp}
     5bc:	0000000b 	andeq	r0, r0, fp
     5c0:	25011101 	strcs	r1, [r1, #-257]	; 0xfffffeff
     5c4:	030b130e 	movweq	r1, #45838	; 0xb30e
     5c8:	110e1b0e 	tstne	lr, lr, lsl #22
     5cc:	10061201 	andne	r1, r6, r1, lsl #4
     5d0:	02000017 	andeq	r0, r0, #23
     5d4:	0b0b0024 	bleq	2c066c <__bss_end__+0x2b65fc>
     5d8:	08030b3e 	stmdaeq	r3, {r1, r2, r3, r4, r5, r8, r9, fp}
     5dc:	24030000 	strcs	r0, [r3], #-0
     5e0:	3e0b0b00 	vmlacc.f64	d0, d11, d0
     5e4:	000e030b 	andeq	r0, lr, fp, lsl #6
     5e8:	00160400 	andseq	r0, r6, r0, lsl #8
     5ec:	0b3a0e03 	bleq	e83e00 <__bss_end__+0xe79d90>
     5f0:	0b390b3b 	bleq	e432e4 <__bss_end__+0xe39274>
     5f4:	00001349 	andeq	r1, r0, r9, asr #6
     5f8:	0b000f05 	bleq	4214 <_start-0x3dec>
     5fc:	0013490b 	andseq	r4, r3, fp, lsl #18
     600:	00130600 	andseq	r0, r3, r0, lsl #12
     604:	193c0e03 	ldmdbne	ip!, {r0, r1, r9, sl, fp}
     608:	16070000 	strne	r0, [r7], -r0
     60c:	3a0e0300 	bcc	381214 <__bss_end__+0x3771a4>
     610:	39053b0b 	stmdbcc	r5, {r0, r1, r3, r8, r9, fp, ip, sp}
     614:	0013490b 	andseq	r4, r3, fp, lsl #18
     618:	01170800 	tsteq	r7, r0, lsl #16
     61c:	0b3a0b0b 	bleq	e83250 <__bss_end__+0xe791e0>
     620:	0b390b3b 	bleq	e43314 <__bss_end__+0xe392a4>
     624:	00001301 	andeq	r1, r0, r1, lsl #6
     628:	03000d09 	movweq	r0, #3337	; 0xd09
     62c:	3b0b3a0e 	blcc	2cee6c <__bss_end__+0x2c4dfc>
     630:	490b390b 	stmdbmi	fp, {r0, r1, r3, r8, fp, ip, sp}
     634:	0a000013 	beq	688 <_start-0x7978>
     638:	13490101 	movtne	r0, #37121	; 0x9101
     63c:	00001301 	andeq	r1, r0, r1, lsl #6
     640:	4900210b 	stmdbmi	r0, {r0, r1, r3, r8, sp}
     644:	000b2f13 	andeq	r2, fp, r3, lsl pc
     648:	01130c00 	tsteq	r3, r0, lsl #24
     64c:	0b3a0b0b 	bleq	e83280 <__bss_end__+0xe79210>
     650:	0b390b3b 	bleq	e43344 <__bss_end__+0xe392d4>
     654:	00001301 	andeq	r1, r0, r1, lsl #6
     658:	03000d0d 	movweq	r0, #3341	; 0xd0d
     65c:	3b0b3a0e 	blcc	2cee9c <__bss_end__+0x2c4e2c>
     660:	490b390b 	stmdbmi	fp, {r0, r1, r3, r8, fp, ip, sp}
     664:	000b3813 	andeq	r3, fp, r3, lsl r8
     668:	000f0e00 	andeq	r0, pc, r0, lsl #28
     66c:	00000b0b 	andeq	r0, r0, fp, lsl #22
     670:	4900260f 	stmdbmi	r0, {r0, r1, r2, r3, r9, sl, sp}
     674:	10000013 	andne	r0, r0, r3, lsl r0
     678:	0e030113 	mcreq	1, 0, r0, cr3, cr3, {0}
     67c:	0b3a0b0b 	bleq	e832b0 <__bss_end__+0xe79240>
     680:	0b390b3b 	bleq	e43374 <__bss_end__+0xe39304>
     684:	00001301 	andeq	r1, r0, r1, lsl #6
     688:	03000d11 	movweq	r0, #3345	; 0xd11
     68c:	3b0b3a08 	blcc	2ceeb4 <__bss_end__+0x2c4e44>
     690:	490b390b 	stmdbmi	fp, {r0, r1, r3, r8, fp, ip, sp}
     694:	000b3813 	andeq	r3, fp, r3, lsl r8
     698:	01131200 	tsteq	r3, r0, lsl #4
     69c:	050b0e03 	streq	r0, [fp, #-3587]	; 0xfffff1fd
     6a0:	0b3b0b3a 	bleq	ec3390 <__bss_end__+0xeb9320>
     6a4:	13010b39 	movwne	r0, #6969	; 0x1b39
     6a8:	0d130000 	ldceq	0, cr0, [r3, #-0]
     6ac:	3a0e0300 	bcc	3812b4 <__bss_end__+0x377244>
     6b0:	390b3b0b 	stmdbcc	fp, {r0, r1, r3, r8, r9, fp, ip, sp}
     6b4:	3813490b 	ldmdacc	r3, {r0, r1, r3, r8, fp, lr}
     6b8:	14000005 	strne	r0, [r0], #-5
     6bc:	19270015 	stmdbne	r7!, {r0, r2, r4}
     6c0:	15150000 	ldrne	r0, [r5, #-0]
     6c4:	49192701 	ldmdbmi	r9, {r0, r8, r9, sl, sp}
     6c8:	00130113 	andseq	r0, r3, r3, lsl r1
     6cc:	00051600 	andeq	r1, r5, r0, lsl #12
     6d0:	00001349 	andeq	r1, r0, r9, asr #6
     6d4:	03011317 	movweq	r1, #4887	; 0x1317
     6d8:	3a050b0e 	bcc	143318 <__bss_end__+0x1392a8>
     6dc:	39053b0b 	stmdbcc	r5, {r0, r1, r3, r8, r9, fp, ip, sp}
     6e0:	0013010b 	andseq	r0, r3, fp, lsl #2
     6e4:	000d1800 	andeq	r1, sp, r0, lsl #16
     6e8:	0b3a0e03 	bleq	e83efc <__bss_end__+0xe79e8c>
     6ec:	0b39053b 	bleq	e41be0 <__bss_end__+0xe37b70>
     6f0:	0b381349 	bleq	e0541c <__bss_end__+0xdfb3ac>
     6f4:	0d190000 	ldceq	0, cr0, [r9, #-0]
     6f8:	3a0e0300 	bcc	381300 <__bss_end__+0x377290>
     6fc:	39053b0b 	stmdbcc	r5, {r0, r1, r3, r8, r9, fp, ip, sp}
     700:	3813490b 	ldmdacc	r3, {r0, r1, r3, r8, fp, lr}
     704:	1a000005 	bne	720 <_start-0x78e0>
     708:	0e030113 	mcreq	1, 0, r0, cr3, cr3, {0}
     70c:	0b3a0b0b 	bleq	e83340 <__bss_end__+0xe792d0>
     710:	0b39053b 	bleq	e41c04 <__bss_end__+0xe37b94>
     714:	00001301 	andeq	r1, r0, r1, lsl #6
     718:	0b01131b 	bleq	4538c <__bss_end__+0x3b31c>
     71c:	3b0b3a0b 	blcc	2cef50 <__bss_end__+0x2c4ee0>
     720:	010b3905 	tsteq	fp, r5, lsl #18
     724:	1c000013 	stcne	0, cr0, [r0], {19}
     728:	0b0b0117 	bleq	2c0b8c <__bss_end__+0x2b6b1c>
     72c:	053b0b3a 	ldreq	r0, [fp, #-2874]!	; 0xfffff4c6
     730:	13010b39 	movwne	r0, #6969	; 0x1b39
     734:	0d1d0000 	ldceq	0, cr0, [sp, #-0]
     738:	3a0e0300 	bcc	381340 <__bss_end__+0x3772d0>
     73c:	39053b0b 	stmdbcc	r5, {r0, r1, r3, r8, r9, fp, ip, sp}
     740:	0013490b 	andseq	r4, r3, fp, lsl #18
     744:	01151e00 	tsteq	r5, r0, lsl #28
     748:	13011927 	movwne	r1, #6439	; 0x1927
     74c:	341f0000 	ldrcc	r0, [pc], #-0	; 754 <_start-0x78ac>
     750:	3a0e0300 	bcc	381358 <__bss_end__+0x3772e8>
     754:	39053b0b 	stmdbcc	r5, {r0, r1, r3, r8, r9, fp, ip, sp}
     758:	3f13490b 	svccc	0x0013490b
     75c:	00193c19 	andseq	r3, r9, r9, lsl ip
     760:	00342000 	eorseq	r2, r4, r0
     764:	0b3a0e03 	bleq	e83f78 <__bss_end__+0xe79f08>
     768:	0b390b3b 	bleq	e4345c <__bss_end__+0xe393ec>
     76c:	193f1349 	ldmdbne	pc!, {r0, r3, r6, r8, r9, ip}	; <UNPREDICTABLE>
     770:	0000193c 	andeq	r1, r0, ip, lsr r9
     774:	3f012e21 	svccc	0x00012e21
     778:	3a0e0319 	bcc	3813e4 <__bss_end__+0x377374>
     77c:	390b3b0b 	stmdbcc	fp, {r0, r1, r3, r8, r9, fp, ip, sp}
     780:	4919270b 	ldmdbmi	r9, {r0, r1, r3, r8, r9, sl, sp}
     784:	12011113 	andne	r1, r1, #-1073741820	; 0xc0000004
     788:	97184006 	ldrls	r4, [r8, -r6]
     78c:	13011942 	movwne	r1, #6466	; 0x1942
     790:	05220000 	streq	r0, [r2, #-0]!
     794:	3a0e0300 	bcc	38139c <__bss_end__+0x37732c>
     798:	390b3b0b 	stmdbcc	fp, {r0, r1, r3, r8, r9, fp, ip, sp}
     79c:	0213490b 	andseq	r4, r3, #180224	; 0x2c000
     7a0:	1742b717 	smlaldne	fp, r2, r7, r7
     7a4:	05230000 	streq	r0, [r3, #-0]!
     7a8:	3a080300 	bcc	2013b0 <__bss_end__+0x1f7340>
     7ac:	390b3b0b 	stmdbcc	fp, {r0, r1, r3, r8, r9, fp, ip, sp}
     7b0:	0213490b 	andseq	r4, r3, #180224	; 0x2c000
     7b4:	1742b717 	smlaldne	fp, r2, r7, r7
     7b8:	34240000 	strtcc	r0, [r4], #-0
     7bc:	3a0e0300 	bcc	3813c4 <__bss_end__+0x377354>
     7c0:	390b3b0b 	stmdbcc	fp, {r0, r1, r3, r8, r9, fp, ip, sp}
     7c4:	0213490b 	andseq	r4, r3, #180224	; 0x2c000
     7c8:	1742b717 	smlaldne	fp, r2, r7, r7
     7cc:	34250000 	strtcc	r0, [r5], #-0
     7d0:	3a080300 	bcc	2013d8 <__bss_end__+0x1f7368>
     7d4:	390b3b0b 	stmdbcc	fp, {r0, r1, r3, r8, r9, fp, ip, sp}
     7d8:	0213490b 	andseq	r4, r3, #180224	; 0x2c000
     7dc:	1742b717 	smlaldne	fp, r2, r7, r7
     7e0:	26260000 	strtcs	r0, [r6], -r0
     7e4:	00000000 	andeq	r0, r0, r0
     7e8:	25011101 	strcs	r1, [r1, #-257]	; 0xfffffeff
     7ec:	030b130e 	movweq	r1, #45838	; 0xb30e
     7f0:	110e1b0e 	tstne	lr, lr, lsl #22
     7f4:	10061201 	andne	r1, r6, r1, lsl #4
     7f8:	02000017 	andeq	r0, r0, #23
     7fc:	0b0b0024 	bleq	2c0894 <__bss_end__+0x2b6824>
     800:	08030b3e 	stmdaeq	r3, {r1, r2, r3, r4, r5, r8, r9, fp}
     804:	16030000 	strne	r0, [r3], -r0
     808:	3a0e0300 	bcc	381410 <__bss_end__+0x3773a0>
     80c:	390b3b0b 	stmdbcc	fp, {r0, r1, r3, r8, r9, fp, ip, sp}
     810:	0013490b 	andseq	r4, r3, fp, lsl #18
     814:	00240400 	eoreq	r0, r4, r0, lsl #8
     818:	0b3e0b0b 	bleq	f8344c <__bss_end__+0xf793dc>
     81c:	00000e03 	andeq	r0, r0, r3, lsl #28
     820:	0b000f05 	bleq	443c <_start-0x3bc4>
     824:	0013490b 	andseq	r4, r3, fp, lsl #18
     828:	00130600 	andseq	r0, r3, r0, lsl #12
     82c:	193c0e03 	ldmdbne	ip!, {r0, r1, r9, sl, fp}
     830:	16070000 	strne	r0, [r7], -r0
     834:	3a0e0300 	bcc	38143c <__bss_end__+0x3773cc>
     838:	39053b0b 	stmdbcc	r5, {r0, r1, r3, r8, r9, fp, ip, sp}
     83c:	0013490b 	andseq	r4, r3, fp, lsl #18
     840:	01170800 	tsteq	r7, r0, lsl #16
     844:	0b3a0b0b 	bleq	e83478 <__bss_end__+0xe79408>
     848:	0b390b3b 	bleq	e4353c <__bss_end__+0xe394cc>
     84c:	00001301 	andeq	r1, r0, r1, lsl #6
     850:	03000d09 	movweq	r0, #3337	; 0xd09
     854:	3b0b3a0e 	blcc	2cf094 <__bss_end__+0x2c5024>
     858:	490b390b 	stmdbmi	fp, {r0, r1, r3, r8, fp, ip, sp}
     85c:	0a000013 	beq	8b0 <_start-0x7750>
     860:	13490101 	movtne	r0, #37121	; 0x9101
     864:	00001301 	andeq	r1, r0, r1, lsl #6
     868:	4900210b 	stmdbmi	r0, {r0, r1, r3, r8, sp}
     86c:	000b2f13 	andeq	r2, fp, r3, lsl pc
     870:	01130c00 	tsteq	r3, r0, lsl #24
     874:	0b3a0b0b 	bleq	e834a8 <__bss_end__+0xe79438>
     878:	0b390b3b 	bleq	e4356c <__bss_end__+0xe394fc>
     87c:	00001301 	andeq	r1, r0, r1, lsl #6
     880:	03000d0d 	movweq	r0, #3341	; 0xd0d
     884:	3b0b3a0e 	blcc	2cf0c4 <__bss_end__+0x2c5054>
     888:	490b390b 	stmdbmi	fp, {r0, r1, r3, r8, fp, ip, sp}
     88c:	000b3813 	andeq	r3, fp, r3, lsl r8
     890:	000f0e00 	andeq	r0, pc, r0, lsl #28
     894:	00000b0b 	andeq	r0, r0, fp, lsl #22
     898:	4900260f 	stmdbmi	r0, {r0, r1, r2, r3, r9, sl, sp}
     89c:	10000013 	andne	r0, r0, r3, lsl r0
     8a0:	0e030113 	mcreq	1, 0, r0, cr3, cr3, {0}
     8a4:	0b3a0b0b 	bleq	e834d8 <__bss_end__+0xe79468>
     8a8:	0b390b3b 	bleq	e4359c <__bss_end__+0xe3952c>
     8ac:	00001301 	andeq	r1, r0, r1, lsl #6
     8b0:	03000d11 	movweq	r0, #3345	; 0xd11
     8b4:	3b0b3a08 	blcc	2cf0dc <__bss_end__+0x2c506c>
     8b8:	490b390b 	stmdbmi	fp, {r0, r1, r3, r8, fp, ip, sp}
     8bc:	000b3813 	andeq	r3, fp, r3, lsl r8
     8c0:	01131200 	tsteq	r3, r0, lsl #4
     8c4:	050b0e03 	streq	r0, [fp, #-3587]	; 0xfffff1fd
     8c8:	0b3b0b3a 	bleq	ec35b8 <__bss_end__+0xeb9548>
     8cc:	13010b39 	movwne	r0, #6969	; 0x1b39
     8d0:	0d130000 	ldceq	0, cr0, [r3, #-0]
     8d4:	3a0e0300 	bcc	3814dc <__bss_end__+0x37746c>
     8d8:	390b3b0b 	stmdbcc	fp, {r0, r1, r3, r8, r9, fp, ip, sp}
     8dc:	3813490b 	ldmdacc	r3, {r0, r1, r3, r8, fp, lr}
     8e0:	14000005 	strne	r0, [r0], #-5
     8e4:	19270015 	stmdbne	r7!, {r0, r2, r4}
     8e8:	15150000 	ldrne	r0, [r5, #-0]
     8ec:	49192701 	ldmdbmi	r9, {r0, r8, r9, sl, sp}
     8f0:	00130113 	andseq	r0, r3, r3, lsl r1
     8f4:	00051600 	andeq	r1, r5, r0, lsl #12
     8f8:	00001349 	andeq	r1, r0, r9, asr #6
     8fc:	03011317 	movweq	r1, #4887	; 0x1317
     900:	3a050b0e 	bcc	143540 <__bss_end__+0x1394d0>
     904:	39053b0b 	stmdbcc	r5, {r0, r1, r3, r8, r9, fp, ip, sp}
     908:	0013010b 	andseq	r0, r3, fp, lsl #2
     90c:	000d1800 	andeq	r1, sp, r0, lsl #16
     910:	0b3a0e03 	bleq	e84124 <__bss_end__+0xe7a0b4>
     914:	0b39053b 	bleq	e41e08 <__bss_end__+0xe37d98>
     918:	0b381349 	bleq	e05644 <__bss_end__+0xdfb5d4>
     91c:	0d190000 	ldceq	0, cr0, [r9, #-0]
     920:	3a0e0300 	bcc	381528 <__bss_end__+0x3774b8>
     924:	39053b0b 	stmdbcc	r5, {r0, r1, r3, r8, r9, fp, ip, sp}
     928:	3813490b 	ldmdacc	r3, {r0, r1, r3, r8, fp, lr}
     92c:	1a000005 	bne	948 <_start-0x76b8>
     930:	0e030113 	mcreq	1, 0, r0, cr3, cr3, {0}
     934:	0b3a0b0b 	bleq	e83568 <__bss_end__+0xe794f8>
     938:	0b39053b 	bleq	e41e2c <__bss_end__+0xe37dbc>
     93c:	00001301 	andeq	r1, r0, r1, lsl #6
     940:	0b01131b 	bleq	455b4 <__bss_end__+0x3b544>
     944:	3b0b3a0b 	blcc	2cf178 <__bss_end__+0x2c5108>
     948:	010b3905 	tsteq	fp, r5, lsl #18
     94c:	1c000013 	stcne	0, cr0, [r0], {19}
     950:	0b0b0117 	bleq	2c0db4 <__bss_end__+0x2b6d44>
     954:	053b0b3a 	ldreq	r0, [fp, #-2874]!	; 0xfffff4c6
     958:	13010b39 	movwne	r0, #6969	; 0x1b39
     95c:	0d1d0000 	ldceq	0, cr0, [sp, #-0]
     960:	3a0e0300 	bcc	381568 <__bss_end__+0x3774f8>
     964:	39053b0b 	stmdbcc	r5, {r0, r1, r3, r8, r9, fp, ip, sp}
     968:	0013490b 	andseq	r4, r3, fp, lsl #18
     96c:	01151e00 	tsteq	r5, r0, lsl #28
     970:	13011927 	movwne	r1, #6439	; 0x1927
     974:	341f0000 	ldrcc	r0, [pc], #-0	; 97c <_start-0x7684>
     978:	3a0e0300 	bcc	381580 <__bss_end__+0x377510>
     97c:	39053b0b 	stmdbcc	r5, {r0, r1, r3, r8, r9, fp, ip, sp}
     980:	3f13490b 	svccc	0x0013490b
     984:	00193c19 	andseq	r3, r9, r9, lsl ip
     988:	012e2000 			; <UNDEFINED> instruction: 0x012e2000
     98c:	0e03193f 			; <UNDEFINED> instruction: 0x0e03193f
     990:	0b3b0b3a 	bleq	ec3680 <__bss_end__+0xeb9610>
     994:	19270b39 	stmdbne	r7!, {r0, r3, r4, r5, r8, r9, fp}
     998:	01111349 	tsteq	r1, r9, asr #6
     99c:	18400612 	stmdane	r0, {r1, r4, r9, sl}^
     9a0:	00194297 	mulseq	r9, r7, r2
     9a4:	00052100 	andeq	r2, r5, r0, lsl #2
     9a8:	0b3a0803 	bleq	e829bc <__bss_end__+0xe7894c>
     9ac:	0b390b3b 	bleq	e436a0 <__bss_end__+0xe39630>
     9b0:	18021349 	stmdane	r2, {r0, r3, r6, r8, r9, ip}
     9b4:	05220000 	streq	r0, [r2, #-0]!
     9b8:	3a080300 	bcc	2015c0 <__bss_end__+0x1f7550>
     9bc:	390b3b0b 	stmdbcc	fp, {r0, r1, r3, r8, r9, fp, ip, sp}
     9c0:	0213490b 	andseq	r4, r3, #180224	; 0x2c000
     9c4:	1742b717 	smlaldne	fp, r2, r7, r7
     9c8:	34230000 	strtcc	r0, [r3], #-0
     9cc:	3a080300 	bcc	2015d4 <__bss_end__+0x1f7564>
     9d0:	390b3b0b 	stmdbcc	fp, {r0, r1, r3, r8, r9, fp, ip, sp}
     9d4:	0213490b 	andseq	r4, r3, #180224	; 0x2c000
     9d8:	1742b717 	smlaldne	fp, r2, r7, r7
     9dc:	01000000 	mrseq	r0, (UNDEF: 0)
     9e0:	0e250111 	mcreq	1, 1, r0, cr5, cr1, {0}
     9e4:	0e030b13 	vmoveq.32	d3[0], r0
     9e8:	01110e1b 	tsteq	r1, fp, lsl lr
     9ec:	17100612 			; <UNDEFINED> instruction: 0x17100612
     9f0:	16020000 	strne	r0, [r2], -r0
     9f4:	3a0e0300 	bcc	3815fc <__bss_end__+0x37758c>
     9f8:	390b3b0b 	stmdbcc	fp, {r0, r1, r3, r8, r9, fp, ip, sp}
     9fc:	0013490b 	andseq	r4, r3, fp, lsl #18
     a00:	01130300 	tsteq	r3, r0, lsl #6
     a04:	0b0b0e03 	bleq	2c4218 <__bss_end__+0x2ba1a8>
     a08:	0b3b0b3a 	bleq	ec36f8 <__bss_end__+0xeb9688>
     a0c:	00001301 	andeq	r1, r0, r1, lsl #6
     a10:	03000d04 	movweq	r0, #3332	; 0xd04
     a14:	3813490e 	ldmdacc	r3, {r1, r2, r3, r8, fp, lr}
     a18:	0019340b 	andseq	r3, r9, fp, lsl #8
     a1c:	000f0500 	andeq	r0, pc, r0, lsl #10
     a20:	00000b0b 	andeq	r0, r0, fp, lsl #22
     a24:	0b002406 	bleq	9a44 <__FUNCTION__.4407+0x18>
     a28:	030b3e0b 	movweq	r3, #48651	; 0xbe0b
     a2c:	07000008 	streq	r0, [r0, -r8]
     a30:	0b0b0024 	bleq	2c0ac8 <__bss_end__+0x2b6a58>
     a34:	0e030b3e 	vmoveq.16	d3[0], r0
     a38:	0f080000 	svceq	0x00080000
     a3c:	490b0b00 	stmdbmi	fp, {r8, r9, fp}
     a40:	09000013 	stmdbeq	r0, {r0, r1, r4}
     a44:	0e030013 	mcreq	0, 0, r0, cr3, cr3, {0}
     a48:	0000193c 	andeq	r1, r0, ip, lsr r9
     a4c:	0300160a 	movweq	r1, #1546	; 0x60a
     a50:	3b0b3a0e 	blcc	2cf290 <__bss_end__+0x2c5220>
     a54:	490b3905 	stmdbmi	fp, {r0, r2, r8, fp, ip, sp}
     a58:	0b000013 	bleq	aac <_start-0x7554>
     a5c:	0b0b0117 	bleq	2c0ec0 <__bss_end__+0x2b6e50>
     a60:	0b3b0b3a 	bleq	ec3750 <__bss_end__+0xeb96e0>
     a64:	13010b39 	movwne	r0, #6969	; 0x1b39
     a68:	0d0c0000 	stceq	0, cr0, [ip, #-0]
     a6c:	3a0e0300 	bcc	381674 <__bss_end__+0x377604>
     a70:	390b3b0b 	stmdbcc	fp, {r0, r1, r3, r8, r9, fp, ip, sp}
     a74:	0013490b 	andseq	r4, r3, fp, lsl #18
     a78:	01010d00 	tsteq	r1, r0, lsl #26
     a7c:	13011349 	movwne	r1, #4937	; 0x1349
     a80:	210e0000 	mrscs	r0, (UNDEF: 14)
     a84:	2f134900 	svccs	0x00134900
     a88:	0f00000b 	svceq	0x0000000b
     a8c:	0b0b0113 	bleq	2c0ee0 <__bss_end__+0x2b6e70>
     a90:	0b3b0b3a 	bleq	ec3780 <__bss_end__+0xeb9710>
     a94:	13010b39 	movwne	r0, #6969	; 0x1b39
     a98:	0d100000 	ldceq	0, cr0, [r0, #-0]
     a9c:	3a0e0300 	bcc	3816a4 <__bss_end__+0x377634>
     aa0:	390b3b0b 	stmdbcc	fp, {r0, r1, r3, r8, r9, fp, ip, sp}
     aa4:	3813490b 	ldmdacc	r3, {r0, r1, r3, r8, fp, lr}
     aa8:	1100000b 	tstne	r0, fp
     aac:	13490026 	movtne	r0, #36902	; 0x9026
     ab0:	13120000 	tstne	r2, #0
     ab4:	0b0e0301 	bleq	3816c0 <__bss_end__+0x377650>
     ab8:	3b0b3a0b 	blcc	2cf2ec <__bss_end__+0x2c527c>
     abc:	010b390b 	tsteq	fp, fp, lsl #18
     ac0:	13000013 	movwne	r0, #19
     ac4:	0803000d 	stmdaeq	r3, {r0, r2, r3}
     ac8:	0b3b0b3a 	bleq	ec37b8 <__bss_end__+0xeb9748>
     acc:	13490b39 	movtne	r0, #39737	; 0x9b39
     ad0:	00000b38 	andeq	r0, r0, r8, lsr fp
     ad4:	03011314 	movweq	r1, #4884	; 0x1314
     ad8:	3a050b0e 	bcc	143718 <__bss_end__+0x1396a8>
     adc:	390b3b0b 	stmdbcc	fp, {r0, r1, r3, r8, r9, fp, ip, sp}
     ae0:	0013010b 	andseq	r0, r3, fp, lsl #2
     ae4:	000d1500 	andeq	r1, sp, r0, lsl #10
     ae8:	0b3a0e03 	bleq	e842fc <__bss_end__+0xe7a28c>
     aec:	0b390b3b 	bleq	e437e0 <__bss_end__+0xe39770>
     af0:	05381349 	ldreq	r1, [r8, #-841]!	; 0xfffffcb7
     af4:	15160000 	ldrne	r0, [r6, #-0]
     af8:	00192700 	andseq	r2, r9, r0, lsl #14
     afc:	01151700 	tsteq	r5, r0, lsl #14
     b00:	13491927 	movtne	r1, #39207	; 0x9927
     b04:	00001301 	andeq	r1, r0, r1, lsl #6
     b08:	49000518 	stmdbmi	r0, {r3, r4, r8, sl}
     b0c:	19000013 	stmdbne	r0, {r0, r1, r4}
     b10:	0e030113 	mcreq	1, 0, r0, cr3, cr3, {0}
     b14:	0b3a050b 	bleq	e81f48 <__bss_end__+0xe77ed8>
     b18:	0b39053b 	bleq	e4200c <__bss_end__+0xe37f9c>
     b1c:	00001301 	andeq	r1, r0, r1, lsl #6
     b20:	03000d1a 	movweq	r0, #3354	; 0xd1a
     b24:	3b0b3a0e 	blcc	2cf364 <__bss_end__+0x2c52f4>
     b28:	490b3905 	stmdbmi	fp, {r0, r2, r8, fp, ip, sp}
     b2c:	000b3813 	andeq	r3, fp, r3, lsl r8
     b30:	000d1b00 	andeq	r1, sp, r0, lsl #22
     b34:	0b3a0e03 	bleq	e84348 <__bss_end__+0xe7a2d8>
     b38:	0b39053b 	bleq	e4202c <__bss_end__+0xe37fbc>
     b3c:	05381349 	ldreq	r1, [r8, #-841]!	; 0xfffffcb7
     b40:	131c0000 	tstne	ip, #0
     b44:	0b0e0301 	bleq	381750 <__bss_end__+0x3776e0>
     b48:	3b0b3a0b 	blcc	2cf37c <__bss_end__+0x2c530c>
     b4c:	010b3905 	tsteq	fp, r5, lsl #18
     b50:	1d000013 	stcne	0, cr0, [r0, #-76]	; 0xffffffb4
     b54:	0b0b0113 	bleq	2c0fa8 <__bss_end__+0x2b6f38>
     b58:	053b0b3a 	ldreq	r0, [fp, #-2874]!	; 0xfffff4c6
     b5c:	13010b39 	movwne	r0, #6969	; 0x1b39
     b60:	171e0000 	ldrne	r0, [lr, -r0]
     b64:	3a0b0b01 	bcc	2c3770 <__bss_end__+0x2b9700>
     b68:	39053b0b 	stmdbcc	r5, {r0, r1, r3, r8, r9, fp, ip, sp}
     b6c:	0013010b 	andseq	r0, r3, fp, lsl #2
     b70:	000d1f00 	andeq	r1, sp, r0, lsl #30
     b74:	0b3a0e03 	bleq	e84388 <__bss_end__+0xe7a318>
     b78:	0b39053b 	bleq	e4206c <__bss_end__+0xe37ffc>
     b7c:	00001349 	andeq	r1, r0, r9, asr #6
     b80:	27011520 	strcs	r1, [r1, -r0, lsr #10]
     b84:	00130119 	andseq	r0, r3, r9, lsl r1
     b88:	00342100 	eorseq	r2, r4, r0, lsl #2
     b8c:	0b3a0e03 	bleq	e843a0 <__bss_end__+0xe7a330>
     b90:	0b39053b 	bleq	e42084 <__bss_end__+0xe38014>
     b94:	193f1349 	ldmdbne	pc!, {r0, r3, r6, r8, r9, ip}	; <UNPREDICTABLE>
     b98:	0000193c 	andeq	r1, r0, ip, lsr r9
     b9c:	03003422 	movweq	r3, #1058	; 0x422
     ba0:	3b0b3a0e 	blcc	2cf3e0 <__bss_end__+0x2c5370>
     ba4:	490b390b 	stmdbmi	fp, {r0, r1, r3, r8, fp, ip, sp}
     ba8:	3c193f13 	ldccc	15, cr3, [r9], {19}
     bac:	23000019 	movwcs	r0, #25
     bb0:	193f012e 	ldmdbne	pc!, {r1, r2, r3, r5, r8}	; <UNPREDICTABLE>
     bb4:	0b3a0e03 	bleq	e843c8 <__bss_end__+0xe7a358>
     bb8:	0b390b3b 	bleq	e438ac <__bss_end__+0xe3983c>
     bbc:	13491927 	movtne	r1, #39207	; 0x9927
     bc0:	06120111 			; <UNDEFINED> instruction: 0x06120111
     bc4:	42971840 	addsmi	r1, r7, #64, 16	; 0x400000
     bc8:	00130119 	andseq	r0, r3, r9, lsl r1
     bcc:	00052400 	andeq	r2, r5, r0, lsl #8
     bd0:	0b3a0803 	bleq	e82be4 <__bss_end__+0xe78b74>
     bd4:	0b390b3b 	bleq	e438c8 <__bss_end__+0xe39858>
     bd8:	18021349 	stmdane	r2, {r0, r3, r6, r8, r9, ip}
     bdc:	18250000 	stmdane	r5!, {}	; <UNPREDICTABLE>
     be0:	26000000 	strcs	r0, [r0], -r0
     be4:	08030034 	stmdaeq	r3, {r2, r4, r5}
     be8:	0b3b0b3a 	bleq	ec38d8 <__bss_end__+0xeb9868>
     bec:	13490b39 	movtne	r0, #39737	; 0x9b39
     bf0:	00001802 	andeq	r1, r0, r2, lsl #16
     bf4:	03003427 	movweq	r3, #1063	; 0x427
     bf8:	3b0b3a0e 	blcc	2cf438 <__bss_end__+0x2c53c8>
     bfc:	490b390b 	stmdbmi	fp, {r0, r1, r3, r8, fp, ip, sp}
     c00:	00180213 	andseq	r0, r8, r3, lsl r2
     c04:	00342800 	eorseq	r2, r4, r0, lsl #16
     c08:	0b3a0803 	bleq	e82c1c <__bss_end__+0xe78bac>
     c0c:	0b390b3b 	bleq	e43900 <__bss_end__+0xe39890>
     c10:	17021349 	strne	r1, [r2, -r9, asr #6]
     c14:	001742b7 			; <UNDEFINED> instruction: 0x001742b7
     c18:	82892900 	addhi	r2, r9, #0, 18
     c1c:	01110101 	tsteq	r1, r1, lsl #2
     c20:	13011331 	movwne	r1, #4913	; 0x1331
     c24:	8a2a0000 	bhi	a80c2c <__bss_end__+0xa76bbc>
     c28:	02000182 	andeq	r0, r0, #-2147483616	; 0x80000020
     c2c:	18429118 	stmdane	r2, {r3, r4, r8, ip, pc}^
     c30:	892b0000 	stmdbhi	fp!, {}	; <UNPREDICTABLE>
     c34:	11010182 	smlabbne	r1, r2, r1, r0
     c38:	2c000001 	stccs	0, cr0, [r0], {1}
     c3c:	13490021 	movtne	r0, #36897	; 0x9021
     c40:	0000052f 	andeq	r0, r0, pc, lsr #10
     c44:	3f002e2d 	svccc	0x00002e2d
     c48:	6e193c19 	mrcvs	12, 0, r3, cr9, cr9, {0}
     c4c:	3a0e030e 	bcc	38188c <__bss_end__+0x37781c>
     c50:	390b3b0b 	stmdbcc	fp, {r0, r1, r3, r8, r9, fp, ip, sp}
     c54:	0000000b 	andeq	r0, r0, fp
     c58:	25011101 	strcs	r1, [r1, #-257]	; 0xfffffeff
     c5c:	030b130e 	movweq	r1, #45838	; 0xb30e
     c60:	110e1b0e 	tstne	lr, lr, lsl #22
     c64:	10061201 	andne	r1, r6, r1, lsl #4
     c68:	02000017 	andeq	r0, r0, #23
     c6c:	0b0b0024 	bleq	2c0d04 <__bss_end__+0x2b6c94>
     c70:	08030b3e 	stmdaeq	r3, {r1, r2, r3, r4, r5, r8, r9, fp}
     c74:	24030000 	strcs	r0, [r3], #-0
     c78:	3e0b0b00 	vmlacc.f64	d0, d11, d0
     c7c:	000e030b 	andeq	r0, lr, fp, lsl #6
     c80:	00160400 	andseq	r0, r6, r0, lsl #8
     c84:	0b3a0e03 	bleq	e84498 <__bss_end__+0xe7a428>
     c88:	0b390b3b 	bleq	e4397c <__bss_end__+0xe3990c>
     c8c:	00001349 	andeq	r1, r0, r9, asr #6
     c90:	0b000f05 	bleq	48ac <_start-0x3754>
     c94:	0013490b 	andseq	r4, r3, fp, lsl #18
     c98:	00130600 	andseq	r0, r3, r0, lsl #12
     c9c:	193c0e03 	ldmdbne	ip!, {r0, r1, r9, sl, fp}
     ca0:	16070000 	strne	r0, [r7], -r0
     ca4:	3a0e0300 	bcc	3818ac <__bss_end__+0x37783c>
     ca8:	39053b0b 	stmdbcc	r5, {r0, r1, r3, r8, r9, fp, ip, sp}
     cac:	0013490b 	andseq	r4, r3, fp, lsl #18
     cb0:	01170800 	tsteq	r7, r0, lsl #16
     cb4:	0b3a0b0b 	bleq	e838e8 <__bss_end__+0xe79878>
     cb8:	0b390b3b 	bleq	e439ac <__bss_end__+0xe3993c>
     cbc:	00001301 	andeq	r1, r0, r1, lsl #6
     cc0:	03000d09 	movweq	r0, #3337	; 0xd09
     cc4:	3b0b3a0e 	blcc	2cf504 <__bss_end__+0x2c5494>
     cc8:	490b390b 	stmdbmi	fp, {r0, r1, r3, r8, fp, ip, sp}
     ccc:	0a000013 	beq	d20 <_start-0x72e0>
     cd0:	13490101 	movtne	r0, #37121	; 0x9101
     cd4:	00001301 	andeq	r1, r0, r1, lsl #6
     cd8:	4900210b 	stmdbmi	r0, {r0, r1, r3, r8, sp}
     cdc:	000b2f13 	andeq	r2, fp, r3, lsl pc
     ce0:	01130c00 	tsteq	r3, r0, lsl #24
     ce4:	0b3a0b0b 	bleq	e83918 <__bss_end__+0xe798a8>
     ce8:	0b390b3b 	bleq	e439dc <__bss_end__+0xe3996c>
     cec:	00001301 	andeq	r1, r0, r1, lsl #6
     cf0:	03000d0d 	movweq	r0, #3341	; 0xd0d
     cf4:	3b0b3a0e 	blcc	2cf534 <__bss_end__+0x2c54c4>
     cf8:	490b390b 	stmdbmi	fp, {r0, r1, r3, r8, fp, ip, sp}
     cfc:	000b3813 	andeq	r3, fp, r3, lsl r8
     d00:	000f0e00 	andeq	r0, pc, r0, lsl #28
     d04:	00000b0b 	andeq	r0, r0, fp, lsl #22
     d08:	4900260f 	stmdbmi	r0, {r0, r1, r2, r3, r9, sl, sp}
     d0c:	10000013 	andne	r0, r0, r3, lsl r0
     d10:	0e030113 	mcreq	1, 0, r0, cr3, cr3, {0}
     d14:	0b3a0b0b 	bleq	e83948 <__bss_end__+0xe798d8>
     d18:	0b390b3b 	bleq	e43a0c <__bss_end__+0xe3999c>
     d1c:	00001301 	andeq	r1, r0, r1, lsl #6
     d20:	03000d11 	movweq	r0, #3345	; 0xd11
     d24:	3b0b3a08 	blcc	2cf54c <__bss_end__+0x2c54dc>
     d28:	490b390b 	stmdbmi	fp, {r0, r1, r3, r8, fp, ip, sp}
     d2c:	000b3813 	andeq	r3, fp, r3, lsl r8
     d30:	01131200 	tsteq	r3, r0, lsl #4
     d34:	050b0e03 	streq	r0, [fp, #-3587]	; 0xfffff1fd
     d38:	0b3b0b3a 	bleq	ec3a28 <__bss_end__+0xeb99b8>
     d3c:	13010b39 	movwne	r0, #6969	; 0x1b39
     d40:	0d130000 	ldceq	0, cr0, [r3, #-0]
     d44:	3a0e0300 	bcc	38194c <__bss_end__+0x3778dc>
     d48:	390b3b0b 	stmdbcc	fp, {r0, r1, r3, r8, r9, fp, ip, sp}
     d4c:	3813490b 	ldmdacc	r3, {r0, r1, r3, r8, fp, lr}
     d50:	14000005 	strne	r0, [r0], #-5
     d54:	19270015 	stmdbne	r7!, {r0, r2, r4}
     d58:	15150000 	ldrne	r0, [r5, #-0]
     d5c:	49192701 	ldmdbmi	r9, {r0, r8, r9, sl, sp}
     d60:	00130113 	andseq	r0, r3, r3, lsl r1
     d64:	00051600 	andeq	r1, r5, r0, lsl #12
     d68:	00001349 	andeq	r1, r0, r9, asr #6
     d6c:	03011317 	movweq	r1, #4887	; 0x1317
     d70:	3a050b0e 	bcc	1439b0 <__bss_end__+0x139940>
     d74:	39053b0b 	stmdbcc	r5, {r0, r1, r3, r8, r9, fp, ip, sp}
     d78:	0013010b 	andseq	r0, r3, fp, lsl #2
     d7c:	000d1800 	andeq	r1, sp, r0, lsl #16
     d80:	0b3a0e03 	bleq	e84594 <__bss_end__+0xe7a524>
     d84:	0b39053b 	bleq	e42278 <__bss_end__+0xe38208>
     d88:	0b381349 	bleq	e05ab4 <__bss_end__+0xdfba44>
     d8c:	0d190000 	ldceq	0, cr0, [r9, #-0]
     d90:	3a0e0300 	bcc	381998 <__bss_end__+0x377928>
     d94:	39053b0b 	stmdbcc	r5, {r0, r1, r3, r8, r9, fp, ip, sp}
     d98:	3813490b 	ldmdacc	r3, {r0, r1, r3, r8, fp, lr}
     d9c:	1a000005 	bne	db8 <_start-0x7248>
     da0:	0e030113 	mcreq	1, 0, r0, cr3, cr3, {0}
     da4:	0b3a0b0b 	bleq	e839d8 <__bss_end__+0xe79968>
     da8:	0b39053b 	bleq	e4229c <__bss_end__+0xe3822c>
     dac:	00001301 	andeq	r1, r0, r1, lsl #6
     db0:	0b01131b 	bleq	45a24 <__bss_end__+0x3b9b4>
     db4:	3b0b3a0b 	blcc	2cf5e8 <__bss_end__+0x2c5578>
     db8:	010b3905 	tsteq	fp, r5, lsl #18
     dbc:	1c000013 	stcne	0, cr0, [r0], {19}
     dc0:	0b0b0117 	bleq	2c1224 <__bss_end__+0x2b71b4>
     dc4:	053b0b3a 	ldreq	r0, [fp, #-2874]!	; 0xfffff4c6
     dc8:	13010b39 	movwne	r0, #6969	; 0x1b39
     dcc:	0d1d0000 	ldceq	0, cr0, [sp, #-0]
     dd0:	3a0e0300 	bcc	3819d8 <__bss_end__+0x377968>
     dd4:	39053b0b 	stmdbcc	r5, {r0, r1, r3, r8, r9, fp, ip, sp}
     dd8:	0013490b 	andseq	r4, r3, fp, lsl #18
     ddc:	01151e00 	tsteq	r5, r0, lsl #28
     de0:	13011927 	movwne	r1, #6439	; 0x1927
     de4:	341f0000 	ldrcc	r0, [pc], #-0	; dec <_start-0x7214>
     de8:	3a0e0300 	bcc	3819f0 <__bss_end__+0x377980>
     dec:	39053b0b 	stmdbcc	r5, {r0, r1, r3, r8, r9, fp, ip, sp}
     df0:	3f13490b 	svccc	0x0013490b
     df4:	00193c19 	andseq	r3, r9, r9, lsl ip
     df8:	00342000 	eorseq	r2, r4, r0
     dfc:	0b3a0e03 	bleq	e84610 <__bss_end__+0xe7a5a0>
     e00:	0b390b3b 	bleq	e43af4 <__bss_end__+0xe39a84>
     e04:	193f1349 	ldmdbne	pc!, {r0, r3, r6, r8, r9, ip}	; <UNPREDICTABLE>
     e08:	0000193c 	andeq	r1, r0, ip, lsr r9
     e0c:	47003421 	strmi	r3, [r0, -r1, lsr #8]
     e10:	3b0b3a13 	blcc	2cf664 <__bss_end__+0x2c55f4>
     e14:	020b390b 	andeq	r3, fp, #180224	; 0x2c000
     e18:	22000018 	andcs	r0, r0, #24
     e1c:	193f012e 	ldmdbne	pc!, {r1, r2, r3, r5, r8}	; <UNPREDICTABLE>
     e20:	0b3a0e03 	bleq	e84634 <__bss_end__+0xe7a5c4>
     e24:	0b390b3b 	bleq	e43b18 <__bss_end__+0xe39aa8>
     e28:	01111927 	tsteq	r1, r7, lsr #18
     e2c:	18400612 	stmdane	r0, {r1, r4, r9, sl}^
     e30:	01194297 			; <UNDEFINED> instruction: 0x01194297
     e34:	23000013 	movwcs	r0, #19
     e38:	08030005 	stmdaeq	r3, {r0, r2}
     e3c:	0b3b0b3a 	bleq	ec3b2c <__bss_end__+0xeb9abc>
     e40:	13490b39 	movtne	r0, #39737	; 0x9b39
     e44:	00001802 	andeq	r1, r0, r2, lsl #16
     e48:	3f002e24 	svccc	0x00002e24
     e4c:	3a0e0319 	bcc	381ab8 <__bss_end__+0x377a48>
     e50:	390b3b0b 	stmdbcc	fp, {r0, r1, r3, r8, r9, fp, ip, sp}
     e54:	1119270b 	tstne	r9, fp, lsl #14
     e58:	40061201 	andmi	r1, r6, r1, lsl #4
     e5c:	19429718 	stmdbne	r2, {r3, r4, r8, r9, sl, ip, pc}^
     e60:	2e250000 	cdpcs	0, 2, cr0, cr5, cr0, {0}
     e64:	3a0e0301 	bcc	381a70 <__bss_end__+0x377a00>
     e68:	390b3b0b 	stmdbcc	fp, {r0, r1, r3, r8, r9, fp, ip, sp}
     e6c:	4919270b 	ldmdbmi	r9, {r0, r1, r3, r8, r9, sl, sp}
     e70:	12011113 	andne	r1, r1, #-1073741820	; 0xc0000004
     e74:	97184006 	ldrls	r4, [r8, -r6]
     e78:	13011942 	movwne	r1, #6466	; 0x1942
     e7c:	05260000 	streq	r0, [r6, #-0]!
     e80:	3a080300 	bcc	201a88 <__bss_end__+0x1f7a18>
     e84:	390b3b0b 	stmdbcc	fp, {r0, r1, r3, r8, r9, fp, ip, sp}
     e88:	0213490b 	andseq	r4, r3, #180224	; 0x2c000
     e8c:	1742b717 	smlaldne	fp, r2, r7, r7
     e90:	89270000 	stmdbhi	r7!, {}	; <UNPREDICTABLE>
     e94:	11010182 	smlabbne	r1, r2, r1, r0
     e98:	00133101 	andseq	r3, r3, r1, lsl #2
     e9c:	828a2800 	addhi	r2, sl, #0, 16
     ea0:	18020001 	stmdane	r2, {r0}
     ea4:	00184291 	mulseq	r8, r1, r2
     ea8:	002e2900 	eoreq	r2, lr, r0, lsl #18
     eac:	193c193f 	ldmdbne	ip!, {r0, r1, r2, r3, r4, r5, r8, fp, ip}
     eb0:	0e030e6e 	cdpeq	14, 0, cr0, cr3, cr14, {3}
     eb4:	0b3b0b3a 	bleq	ec3ba4 <__bss_end__+0xeb9b34>
     eb8:	00000b39 	andeq	r0, r0, r9, lsr fp
     ebc:	01110100 	tsteq	r1, r0, lsl #2
     ec0:	0b130e25 	bleq	4c475c <__bss_end__+0x4ba6ec>
     ec4:	0e1b0e03 	cdpeq	14, 1, cr0, cr11, cr3, {0}
     ec8:	06120111 			; <UNDEFINED> instruction: 0x06120111
     ecc:	00001710 	andeq	r1, r0, r0, lsl r7
     ed0:	0b002402 	bleq	9ee0 <buf.4297+0x270>
     ed4:	030b3e0b 	movweq	r3, #48651	; 0xbe0b
     ed8:	03000008 	movweq	r0, #8
     edc:	0b0b0024 	bleq	2c0f74 <__bss_end__+0x2b6f04>
     ee0:	0e030b3e 	vmoveq.16	d3[0], r0
     ee4:	16040000 	strne	r0, [r4], -r0
     ee8:	3a0e0300 	bcc	381af0 <__bss_end__+0x377a80>
     eec:	390b3b0b 	stmdbcc	fp, {r0, r1, r3, r8, r9, fp, ip, sp}
     ef0:	0013490b 	andseq	r4, r3, fp, lsl #18
     ef4:	000f0500 	andeq	r0, pc, r0, lsl #10
     ef8:	13490b0b 	movtne	r0, #39691	; 0x9b0b
     efc:	13060000 	movwne	r0, #24576	; 0x6000
     f00:	3c0e0300 	stccc	3, cr0, [lr], {-0}
     f04:	07000019 	smladeq	r0, r9, r0, r0
     f08:	0e030016 	mcreq	0, 0, r0, cr3, cr6, {0}
     f0c:	053b0b3a 	ldreq	r0, [fp, #-2874]!	; 0xfffff4c6
     f10:	13490b39 	movtne	r0, #39737	; 0x9b39
     f14:	17080000 	strne	r0, [r8, -r0]
     f18:	3a0b0b01 	bcc	2c3b24 <__bss_end__+0x2b9ab4>
     f1c:	390b3b0b 	stmdbcc	fp, {r0, r1, r3, r8, r9, fp, ip, sp}
     f20:	0013010b 	andseq	r0, r3, fp, lsl #2
     f24:	000d0900 	andeq	r0, sp, r0, lsl #18
     f28:	0b3a0e03 	bleq	e8473c <__bss_end__+0xe7a6cc>
     f2c:	0b390b3b 	bleq	e43c20 <__bss_end__+0xe39bb0>
     f30:	00001349 	andeq	r1, r0, r9, asr #6
     f34:	4901010a 	stmdbmi	r1, {r1, r3, r8}
     f38:	00130113 	andseq	r0, r3, r3, lsl r1
     f3c:	00210b00 	eoreq	r0, r1, r0, lsl #22
     f40:	0b2f1349 	bleq	bc5c6c <__bss_end__+0xbbbbfc>
     f44:	130c0000 	movwne	r0, #49152	; 0xc000
     f48:	3a0b0b01 	bcc	2c3b54 <__bss_end__+0x2b9ae4>
     f4c:	390b3b0b 	stmdbcc	fp, {r0, r1, r3, r8, r9, fp, ip, sp}
     f50:	0013010b 	andseq	r0, r3, fp, lsl #2
     f54:	000d0d00 	andeq	r0, sp, r0, lsl #26
     f58:	0b3a0e03 	bleq	e8476c <__bss_end__+0xe7a6fc>
     f5c:	0b390b3b 	bleq	e43c50 <__bss_end__+0xe39be0>
     f60:	0b381349 	bleq	e05c8c <__bss_end__+0xdfbc1c>
     f64:	0f0e0000 	svceq	0x000e0000
     f68:	000b0b00 	andeq	r0, fp, r0, lsl #22
     f6c:	00260f00 	eoreq	r0, r6, r0, lsl #30
     f70:	00001349 	andeq	r1, r0, r9, asr #6
     f74:	03011310 	movweq	r1, #4880	; 0x1310
     f78:	3a0b0b0e 	bcc	2c3bb8 <__bss_end__+0x2b9b48>
     f7c:	390b3b0b 	stmdbcc	fp, {r0, r1, r3, r8, r9, fp, ip, sp}
     f80:	0013010b 	andseq	r0, r3, fp, lsl #2
     f84:	000d1100 	andeq	r1, sp, r0, lsl #2
     f88:	0b3a0803 	bleq	e82f9c <__bss_end__+0xe78f2c>
     f8c:	0b390b3b 	bleq	e43c80 <__bss_end__+0xe39c10>
     f90:	0b381349 	bleq	e05cbc <__bss_end__+0xdfbc4c>
     f94:	13120000 	tstne	r2, #0
     f98:	0b0e0301 	bleq	381ba4 <__bss_end__+0x377b34>
     f9c:	3b0b3a05 	blcc	2cf7b8 <__bss_end__+0x2c5748>
     fa0:	010b390b 	tsteq	fp, fp, lsl #18
     fa4:	13000013 	movwne	r0, #19
     fa8:	0e03000d 	cdpeq	0, 0, cr0, cr3, cr13, {0}
     fac:	0b3b0b3a 	bleq	ec3c9c <__bss_end__+0xeb9c2c>
     fb0:	13490b39 	movtne	r0, #39737	; 0x9b39
     fb4:	00000538 	andeq	r0, r0, r8, lsr r5
     fb8:	27001514 	smladcs	r0, r4, r5, r1
     fbc:	15000019 	strne	r0, [r0, #-25]	; 0xffffffe7
     fc0:	19270115 	stmdbne	r7!, {r0, r2, r4, r8}
     fc4:	13011349 	movwne	r1, #4937	; 0x1349
     fc8:	05160000 	ldreq	r0, [r6, #-0]
     fcc:	00134900 	andseq	r4, r3, r0, lsl #18
     fd0:	01131700 	tsteq	r3, r0, lsl #14
     fd4:	050b0e03 	streq	r0, [fp, #-3587]	; 0xfffff1fd
     fd8:	053b0b3a 	ldreq	r0, [fp, #-2874]!	; 0xfffff4c6
     fdc:	13010b39 	movwne	r0, #6969	; 0x1b39
     fe0:	0d180000 	ldceq	0, cr0, [r8, #-0]
     fe4:	3a0e0300 	bcc	381bec <__bss_end__+0x377b7c>
     fe8:	39053b0b 	stmdbcc	r5, {r0, r1, r3, r8, r9, fp, ip, sp}
     fec:	3813490b 	ldmdacc	r3, {r0, r1, r3, r8, fp, lr}
     ff0:	1900000b 	stmdbne	r0, {r0, r1, r3}
     ff4:	0e03000d 	cdpeq	0, 0, cr0, cr3, cr13, {0}
     ff8:	053b0b3a 	ldreq	r0, [fp, #-2874]!	; 0xfffff4c6
     ffc:	13490b39 	movtne	r0, #39737	; 0x9b39
    1000:	00000538 	andeq	r0, r0, r8, lsr r5
    1004:	0301131a 	movweq	r1, #4890	; 0x131a
    1008:	3a0b0b0e 	bcc	2c3c48 <__bss_end__+0x2b9bd8>
    100c:	39053b0b 	stmdbcc	r5, {r0, r1, r3, r8, r9, fp, ip, sp}
    1010:	0013010b 	andseq	r0, r3, fp, lsl #2
    1014:	01131b00 	tsteq	r3, r0, lsl #22
    1018:	0b3a0b0b 	bleq	e83c4c <__bss_end__+0xe79bdc>
    101c:	0b39053b 	bleq	e42510 <__bss_end__+0xe384a0>
    1020:	00001301 	andeq	r1, r0, r1, lsl #6
    1024:	0b01171c 	bleq	46c9c <__bss_end__+0x3cc2c>
    1028:	3b0b3a0b 	blcc	2cf85c <__bss_end__+0x2c57ec>
    102c:	010b3905 	tsteq	fp, r5, lsl #18
    1030:	1d000013 	stcne	0, cr0, [r0, #-76]	; 0xffffffb4
    1034:	0e03000d 	cdpeq	0, 0, cr0, cr3, cr13, {0}
    1038:	053b0b3a 	ldreq	r0, [fp, #-2874]!	; 0xfffff4c6
    103c:	13490b39 	movtne	r0, #39737	; 0x9b39
    1040:	151e0000 	ldrne	r0, [lr, #-0]
    1044:	01192701 	tsteq	r9, r1, lsl #14
    1048:	1f000013 	svcne	0x00000013
    104c:	0e030034 	mcreq	0, 0, r0, cr3, cr4, {1}
    1050:	053b0b3a 	ldreq	r0, [fp, #-2874]!	; 0xfffff4c6
    1054:	13490b39 	movtne	r0, #39737	; 0x9b39
    1058:	193c193f 	ldmdbne	ip!, {r0, r1, r2, r3, r4, r5, r8, fp, ip}
    105c:	34200000 	strtcc	r0, [r0], #-0
    1060:	3a0e0300 	bcc	381c68 <__bss_end__+0x377bf8>
    1064:	390b3b0b 	stmdbcc	fp, {r0, r1, r3, r8, r9, fp, ip, sp}
    1068:	3f13490b 	svccc	0x0013490b
    106c:	00193c19 	andseq	r3, r9, r9, lsl ip
    1070:	00342100 	eorseq	r2, r4, r0, lsl #2
    1074:	0b3a1347 	bleq	e85d98 <__bss_end__+0xe7bd28>
    1078:	0b390b3b 	bleq	e43d6c <__bss_end__+0xe39cfc>
    107c:	00001802 	andeq	r1, r0, r2, lsl #16
    1080:	3f012e22 	svccc	0x00012e22
    1084:	3a0e0319 	bcc	381cf0 <__bss_end__+0x377c80>
    1088:	390b3b0b 	stmdbcc	fp, {r0, r1, r3, r8, r9, fp, ip, sp}
    108c:	4919270b 	ldmdbmi	r9, {r0, r1, r3, r8, r9, sl, sp}
    1090:	12011113 	andne	r1, r1, #-1073741820	; 0xc0000004
    1094:	96184006 	ldrls	r4, [r8], -r6
    1098:	00001942 	andeq	r1, r0, r2, asr #18
    109c:	03000523 	movweq	r0, #1315	; 0x523
    10a0:	3b0b3a08 	blcc	2cf8c8 <__bss_end__+0x2c5858>
    10a4:	490b390b 	stmdbmi	fp, {r0, r1, r3, r8, fp, ip, sp}
    10a8:	b7170213 			; <UNDEFINED> instruction: 0xb7170213
    10ac:	00001742 	andeq	r1, r0, r2, asr #14
    10b0:	01110100 	tsteq	r1, r0, lsl #2
    10b4:	0b130e25 	bleq	4c4950 <__bss_end__+0x4ba8e0>
    10b8:	0e1b0e03 	cdpeq	14, 1, cr0, cr11, cr3, {0}
    10bc:	06120111 			; <UNDEFINED> instruction: 0x06120111
    10c0:	00001710 	andeq	r1, r0, r0, lsl r7
    10c4:	0b002402 	bleq	a0d4 <__bss_end__+0x64>
    10c8:	030b3e0b 	movweq	r3, #48651	; 0xbe0b
    10cc:	03000008 	movweq	r0, #8
    10d0:	0b0b0024 	bleq	2c1168 <__bss_end__+0x2b70f8>
    10d4:	0e030b3e 	vmoveq.16	d3[0], r0
    10d8:	16040000 	strne	r0, [r4], -r0
    10dc:	3a0e0300 	bcc	381ce4 <__bss_end__+0x377c74>
    10e0:	390b3b0b 	stmdbcc	fp, {r0, r1, r3, r8, r9, fp, ip, sp}
    10e4:	0013490b 	andseq	r4, r3, fp, lsl #18
    10e8:	000f0500 	andeq	r0, pc, r0, lsl #10
    10ec:	13490b0b 	movtne	r0, #39691	; 0x9b0b
    10f0:	13060000 	movwne	r0, #24576	; 0x6000
    10f4:	3c0e0300 	stccc	3, cr0, [lr], {-0}
    10f8:	07000019 	smladeq	r0, r9, r0, r0
    10fc:	0e030016 	mcreq	0, 0, r0, cr3, cr6, {0}
    1100:	053b0b3a 	ldreq	r0, [fp, #-2874]!	; 0xfffff4c6
    1104:	13490b39 	movtne	r0, #39737	; 0x9b39
    1108:	17080000 	strne	r0, [r8, -r0]
    110c:	3a0b0b01 	bcc	2c3d18 <__bss_end__+0x2b9ca8>
    1110:	390b3b0b 	stmdbcc	fp, {r0, r1, r3, r8, r9, fp, ip, sp}
    1114:	0013010b 	andseq	r0, r3, fp, lsl #2
    1118:	000d0900 	andeq	r0, sp, r0, lsl #18
    111c:	0b3a0e03 	bleq	e84930 <__bss_end__+0xe7a8c0>
    1120:	0b390b3b 	bleq	e43e14 <__bss_end__+0xe39da4>
    1124:	00001349 	andeq	r1, r0, r9, asr #6
    1128:	4901010a 	stmdbmi	r1, {r1, r3, r8}
    112c:	00130113 	andseq	r0, r3, r3, lsl r1
    1130:	00210b00 	eoreq	r0, r1, r0, lsl #22
    1134:	0b2f1349 	bleq	bc5e60 <__bss_end__+0xbbbdf0>
    1138:	130c0000 	movwne	r0, #49152	; 0xc000
    113c:	3a0b0b01 	bcc	2c3d48 <__bss_end__+0x2b9cd8>
    1140:	390b3b0b 	stmdbcc	fp, {r0, r1, r3, r8, r9, fp, ip, sp}
    1144:	0013010b 	andseq	r0, r3, fp, lsl #2
    1148:	000d0d00 	andeq	r0, sp, r0, lsl #26
    114c:	0b3a0e03 	bleq	e84960 <__bss_end__+0xe7a8f0>
    1150:	0b390b3b 	bleq	e43e44 <__bss_end__+0xe39dd4>
    1154:	0b381349 	bleq	e05e80 <__bss_end__+0xdfbe10>
    1158:	0f0e0000 	svceq	0x000e0000
    115c:	000b0b00 	andeq	r0, fp, r0, lsl #22
    1160:	00260f00 	eoreq	r0, r6, r0, lsl #30
    1164:	00001349 	andeq	r1, r0, r9, asr #6
    1168:	03011310 	movweq	r1, #4880	; 0x1310
    116c:	3a0b0b0e 	bcc	2c3dac <__bss_end__+0x2b9d3c>
    1170:	390b3b0b 	stmdbcc	fp, {r0, r1, r3, r8, r9, fp, ip, sp}
    1174:	0013010b 	andseq	r0, r3, fp, lsl #2
    1178:	000d1100 	andeq	r1, sp, r0, lsl #2
    117c:	0b3a0803 	bleq	e83190 <__bss_end__+0xe79120>
    1180:	0b390b3b 	bleq	e43e74 <__bss_end__+0xe39e04>
    1184:	0b381349 	bleq	e05eb0 <__bss_end__+0xdfbe40>
    1188:	13120000 	tstne	r2, #0
    118c:	0b0e0301 	bleq	381d98 <__bss_end__+0x377d28>
    1190:	3b0b3a05 	blcc	2cf9ac <__bss_end__+0x2c593c>
    1194:	010b390b 	tsteq	fp, fp, lsl #18
    1198:	13000013 	movwne	r0, #19
    119c:	0e03000d 	cdpeq	0, 0, cr0, cr3, cr13, {0}
    11a0:	0b3b0b3a 	bleq	ec3e90 <__bss_end__+0xeb9e20>
    11a4:	13490b39 	movtne	r0, #39737	; 0x9b39
    11a8:	00000538 	andeq	r0, r0, r8, lsr r5
    11ac:	27001514 	smladcs	r0, r4, r5, r1
    11b0:	15000019 	strne	r0, [r0, #-25]	; 0xffffffe7
    11b4:	19270115 	stmdbne	r7!, {r0, r2, r4, r8}
    11b8:	13011349 	movwne	r1, #4937	; 0x1349
    11bc:	05160000 	ldreq	r0, [r6, #-0]
    11c0:	00134900 	andseq	r4, r3, r0, lsl #18
    11c4:	01131700 	tsteq	r3, r0, lsl #14
    11c8:	050b0e03 	streq	r0, [fp, #-3587]	; 0xfffff1fd
    11cc:	053b0b3a 	ldreq	r0, [fp, #-2874]!	; 0xfffff4c6
    11d0:	13010b39 	movwne	r0, #6969	; 0x1b39
    11d4:	0d180000 	ldceq	0, cr0, [r8, #-0]
    11d8:	3a0e0300 	bcc	381de0 <__bss_end__+0x377d70>
    11dc:	39053b0b 	stmdbcc	r5, {r0, r1, r3, r8, r9, fp, ip, sp}
    11e0:	3813490b 	ldmdacc	r3, {r0, r1, r3, r8, fp, lr}
    11e4:	1900000b 	stmdbne	r0, {r0, r1, r3}
    11e8:	0e03000d 	cdpeq	0, 0, cr0, cr3, cr13, {0}
    11ec:	053b0b3a 	ldreq	r0, [fp, #-2874]!	; 0xfffff4c6
    11f0:	13490b39 	movtne	r0, #39737	; 0x9b39
    11f4:	00000538 	andeq	r0, r0, r8, lsr r5
    11f8:	0301131a 	movweq	r1, #4890	; 0x131a
    11fc:	3a0b0b0e 	bcc	2c3e3c <__bss_end__+0x2b9dcc>
    1200:	39053b0b 	stmdbcc	r5, {r0, r1, r3, r8, r9, fp, ip, sp}
    1204:	0013010b 	andseq	r0, r3, fp, lsl #2
    1208:	01131b00 	tsteq	r3, r0, lsl #22
    120c:	0b3a0b0b 	bleq	e83e40 <__bss_end__+0xe79dd0>
    1210:	0b39053b 	bleq	e42704 <__bss_end__+0xe38694>
    1214:	00001301 	andeq	r1, r0, r1, lsl #6
    1218:	0b01171c 	bleq	46e90 <__bss_end__+0x3ce20>
    121c:	3b0b3a0b 	blcc	2cfa50 <__bss_end__+0x2c59e0>
    1220:	010b3905 	tsteq	fp, r5, lsl #18
    1224:	1d000013 	stcne	0, cr0, [r0, #-76]	; 0xffffffb4
    1228:	0e03000d 	cdpeq	0, 0, cr0, cr3, cr13, {0}
    122c:	053b0b3a 	ldreq	r0, [fp, #-2874]!	; 0xfffff4c6
    1230:	13490b39 	movtne	r0, #39737	; 0x9b39
    1234:	151e0000 	ldrne	r0, [lr, #-0]
    1238:	01192701 	tsteq	r9, r1, lsl #14
    123c:	1f000013 	svcne	0x00000013
    1240:	0e030034 	mcreq	0, 0, r0, cr3, cr4, {1}
    1244:	053b0b3a 	ldreq	r0, [fp, #-2874]!	; 0xfffff4c6
    1248:	13490b39 	movtne	r0, #39737	; 0x9b39
    124c:	193c193f 	ldmdbne	ip!, {r0, r1, r2, r3, r4, r5, r8, fp, ip}
    1250:	34200000 	strtcc	r0, [r0], #-0
    1254:	3a0e0300 	bcc	381e5c <__bss_end__+0x377dec>
    1258:	390b3b0b 	stmdbcc	fp, {r0, r1, r3, r8, r9, fp, ip, sp}
    125c:	3f13490b 	svccc	0x0013490b
    1260:	00193c19 	andseq	r3, r9, r9, lsl ip
    1264:	01132100 	tsteq	r3, r0, lsl #2
    1268:	0b0b0e03 	bleq	2c4a7c <__bss_end__+0x2baa0c>
    126c:	0b3b0b3a 	bleq	ec3f5c <__bss_end__+0xeb9eec>
    1270:	00001301 	andeq	r1, r0, r1, lsl #6
    1274:	03000d22 	movweq	r0, #3362	; 0xd22
    1278:	3813490e 	ldmdacc	r3, {r1, r2, r3, r8, fp, lr}
    127c:	0019340b 	andseq	r3, r9, fp, lsl #8
    1280:	012e2300 			; <UNDEFINED> instruction: 0x012e2300
    1284:	0e03193f 			; <UNDEFINED> instruction: 0x0e03193f
    1288:	0b3b0b3a 	bleq	ec3f78 <__bss_end__+0xeb9f08>
    128c:	19270b39 	stmdbne	r7!, {r0, r3, r4, r5, r8, r9, fp}
    1290:	01111349 	tsteq	r1, r9, asr #6
    1294:	18400612 	stmdane	r0, {r1, r4, r9, sl}^
    1298:	01194297 			; <UNDEFINED> instruction: 0x01194297
    129c:	24000013 	strcs	r0, [r0], #-19	; 0xffffffed
    12a0:	08030005 	stmdaeq	r3, {r0, r2}
    12a4:	0b3b0b3a 	bleq	ec3f94 <__bss_end__+0xeb9f24>
    12a8:	13490b39 	movtne	r0, #39737	; 0x9b39
    12ac:	42b71702 	adcsmi	r1, r7, #524288	; 0x80000
    12b0:	25000017 	strcs	r0, [r0, #-23]	; 0xffffffe9
    12b4:	0e030005 	cdpeq	0, 0, cr0, cr3, cr5, {0}
    12b8:	0b3b0b3a 	bleq	ec3fa8 <__bss_end__+0xeb9f38>
    12bc:	13490b39 	movtne	r0, #39737	; 0x9b39
    12c0:	00001802 	andeq	r1, r0, r2, lsl #16
    12c4:	03003426 	movweq	r3, #1062	; 0x426
    12c8:	3b0b3a08 	blcc	2cfaf0 <__bss_end__+0x2c5a80>
    12cc:	490b390b 	stmdbmi	fp, {r0, r1, r3, r8, fp, ip, sp}
    12d0:	b7170213 			; <UNDEFINED> instruction: 0xb7170213
    12d4:	00001742 	andeq	r1, r0, r2, asr #14
    12d8:	03003427 	movweq	r3, #1063	; 0x427
    12dc:	3413490e 	ldrcc	r4, [r3], #-2318	; 0xfffff6f2
    12e0:	00180219 	andseq	r0, r8, r9, lsl r2
    12e4:	010b2800 	tsteq	fp, r0, lsl #16
    12e8:	06120111 			; <UNDEFINED> instruction: 0x06120111
    12ec:	34290000 	strtcc	r0, [r9], #-0
    12f0:	3a080300 	bcc	201ef8 <__bss_end__+0x1f7e88>
    12f4:	390b3b0b 	stmdbcc	fp, {r0, r1, r3, r8, r9, fp, ip, sp}
    12f8:	0213490b 	andseq	r4, r3, #180224	; 0x2c000
    12fc:	2a000018 	bcs	1364 <_start-0x6c9c>
    1300:	0e030034 	mcreq	0, 0, r0, cr3, cr4, {1}
    1304:	0b3b0b3a 	bleq	ec3ff4 <__bss_end__+0xeb9f84>
    1308:	13490b39 	movtne	r0, #39737	; 0x9b39
    130c:	42b71702 	adcsmi	r1, r7, #524288	; 0x80000
    1310:	2b000017 	blcs	1374 <_start-0x6c8c>
    1314:	01018289 	smlabbeq	r1, r9, r2, r8
    1318:	13310111 	teqne	r1, #1073741828	; 0x40000004
    131c:	00001301 	andeq	r1, r0, r1, lsl #6
    1320:	01828a2c 	orreq	r8, r2, ip, lsr #20
    1324:	91180200 	tstls	r8, r0, lsl #4
    1328:	00001842 	andeq	r1, r0, r2, asr #16
    132c:	0182892d 	orreq	r8, r2, sp, lsr #18
    1330:	31011100 	mrscc	r1, (UNDEF: 17)
    1334:	2e000013 	mcrcs	0, 0, r0, cr0, cr3, {0}
    1338:	0e03012e 	adfeqsp	f0, f3, #0.5
    133c:	0b3b0b3a 	bleq	ec402c <__bss_end__+0xeb9fbc>
    1340:	19270b39 	stmdbne	r7!, {r0, r3, r4, r5, r8, r9, fp}
    1344:	01111349 	tsteq	r1, r9, asr #6
    1348:	18400612 	stmdane	r0, {r1, r4, r9, sl}^
    134c:	01194297 			; <UNDEFINED> instruction: 0x01194297
    1350:	2f000013 	svccs	0x00000013
    1354:	0e030005 	cdpeq	0, 0, cr0, cr3, cr5, {0}
    1358:	0b3b0b3a 	bleq	ec4048 <__bss_end__+0xeb9fd8>
    135c:	13490b39 	movtne	r0, #39737	; 0x9b39
    1360:	42b71702 	adcsmi	r1, r7, #524288	; 0x80000
    1364:	30000017 	andcc	r0, r0, r7, lsl r0
    1368:	0111010b 	tsteq	r1, fp, lsl #2
    136c:	13010612 	movwne	r0, #5650	; 0x1612
    1370:	2e310000 	cdpcs	0, 3, cr0, cr1, cr0, {0}
    1374:	3a080301 	bcc	201f80 <__bss_end__+0x1f7f10>
    1378:	390b3b0b 	stmdbcc	fp, {r0, r1, r3, r8, r9, fp, ip, sp}
    137c:	4919270b 	ldmdbmi	r9, {r0, r1, r3, r8, r9, sl, sp}
    1380:	12011113 	andne	r1, r1, #-1073741820	; 0xc0000004
    1384:	97184006 	ldrls	r4, [r8, -r6]
    1388:	13011942 	movwne	r1, #6466	; 0x1942
    138c:	2e320000 	cdpcs	0, 3, cr0, cr2, cr0, {0}
    1390:	03193f01 	tsteq	r9, #1, 30
    1394:	3b0b3a0e 	blcc	2cfbd4 <__bss_end__+0x2c5b64>
    1398:	270b390b 	strcs	r3, [fp, -fp, lsl #18]
    139c:	12011119 	andne	r1, r1, #1073741830	; 0x40000006
    13a0:	97184006 	ldrls	r4, [r8, -r6]
    13a4:	13011942 	movwne	r1, #6466	; 0x1942
    13a8:	2e330000 	cdpcs	0, 3, cr0, cr3, cr0, {0}
    13ac:	3c193f00 	ldccc	15, cr3, [r9], {-0}
    13b0:	030e6e19 	movweq	r6, #60953	; 0xee19
    13b4:	3b0b3a0e 	blcc	2cfbf4 <__bss_end__+0x2c5b84>
    13b8:	000b390b 	andeq	r3, fp, fp, lsl #18
    13bc:	11010000 	mrsne	r0, (UNDEF: 1)
    13c0:	130e2501 	movwne	r2, #58625	; 0xe501
    13c4:	1b0e030b 	blne	381ff8 <__bss_end__+0x377f88>
    13c8:	1201110e 	andne	r1, r1, #-2147483645	; 0x80000003
    13cc:	00171006 	andseq	r1, r7, r6
    13d0:	00240200 	eoreq	r0, r4, r0, lsl #4
    13d4:	0b3e0b0b 	bleq	f84008 <__bss_end__+0xf79f98>
    13d8:	00000803 	andeq	r0, r0, r3, lsl #16
    13dc:	0b002403 	bleq	a3f0 <__bss_end__+0x380>
    13e0:	030b3e0b 	movweq	r3, #48651	; 0xbe0b
    13e4:	0400000e 	streq	r0, [r0], #-14
    13e8:	0e030016 	mcreq	0, 0, r0, cr3, cr6, {0}
    13ec:	0b3b0b3a 	bleq	ec40dc <__bss_end__+0xeba06c>
    13f0:	13490b39 	movtne	r0, #39737	; 0x9b39
    13f4:	0f050000 	svceq	0x00050000
    13f8:	490b0b00 	stmdbmi	fp, {r8, r9, fp}
    13fc:	06000013 			; <UNDEFINED> instruction: 0x06000013
    1400:	0e030013 	mcreq	0, 0, r0, cr3, cr3, {0}
    1404:	0000193c 	andeq	r1, r0, ip, lsr r9
    1408:	03001607 	movweq	r1, #1543	; 0x607
    140c:	3b0b3a0e 	blcc	2cfc4c <__bss_end__+0x2c5bdc>
    1410:	490b3905 	stmdbmi	fp, {r0, r2, r8, fp, ip, sp}
    1414:	08000013 	stmdaeq	r0, {r0, r1, r4}
    1418:	0b0b0117 	bleq	2c187c <__bss_end__+0x2b780c>
    141c:	0b3b0b3a 	bleq	ec410c <__bss_end__+0xeba09c>
    1420:	13010b39 	movwne	r0, #6969	; 0x1b39
    1424:	0d090000 	stceq	0, cr0, [r9, #-0]
    1428:	3a0e0300 	bcc	382030 <__bss_end__+0x377fc0>
    142c:	390b3b0b 	stmdbcc	fp, {r0, r1, r3, r8, r9, fp, ip, sp}
    1430:	0013490b 	andseq	r4, r3, fp, lsl #18
    1434:	01010a00 	tsteq	r1, r0, lsl #20
    1438:	13011349 	movwne	r1, #4937	; 0x1349
    143c:	210b0000 	mrscs	r0, (UNDEF: 11)
    1440:	2f134900 	svccs	0x00134900
    1444:	0c00000b 	stceq	0, cr0, [r0], {11}
    1448:	0b0b0113 	bleq	2c189c <__bss_end__+0x2b782c>
    144c:	0b3b0b3a 	bleq	ec413c <__bss_end__+0xeba0cc>
    1450:	13010b39 	movwne	r0, #6969	; 0x1b39
    1454:	0d0d0000 	stceq	0, cr0, [sp, #-0]
    1458:	3a0e0300 	bcc	382060 <__bss_end__+0x377ff0>
    145c:	390b3b0b 	stmdbcc	fp, {r0, r1, r3, r8, r9, fp, ip, sp}
    1460:	3813490b 	ldmdacc	r3, {r0, r1, r3, r8, fp, lr}
    1464:	0e00000b 	cdpeq	0, 0, cr0, cr0, cr11, {0}
    1468:	0b0b000f 	bleq	2c14ac <__bss_end__+0x2b743c>
    146c:	260f0000 	strcs	r0, [pc], -r0
    1470:	00134900 	andseq	r4, r3, r0, lsl #18
    1474:	01131000 	tsteq	r3, r0
    1478:	0b0b0e03 	bleq	2c4c8c <__bss_end__+0x2bac1c>
    147c:	0b3b0b3a 	bleq	ec416c <__bss_end__+0xeba0fc>
    1480:	13010b39 	movwne	r0, #6969	; 0x1b39
    1484:	0d110000 	ldceq	0, cr0, [r1, #-0]
    1488:	3a080300 	bcc	202090 <__bss_end__+0x1f8020>
    148c:	390b3b0b 	stmdbcc	fp, {r0, r1, r3, r8, r9, fp, ip, sp}
    1490:	3813490b 	ldmdacc	r3, {r0, r1, r3, r8, fp, lr}
    1494:	1200000b 	andne	r0, r0, #11
    1498:	0e030113 	mcreq	1, 0, r0, cr3, cr3, {0}
    149c:	0b3a050b 	bleq	e828d0 <__bss_end__+0xe78860>
    14a0:	0b390b3b 	bleq	e44194 <__bss_end__+0xe3a124>
    14a4:	00001301 	andeq	r1, r0, r1, lsl #6
    14a8:	03000d13 	movweq	r0, #3347	; 0xd13
    14ac:	3b0b3a0e 	blcc	2cfcec <__bss_end__+0x2c5c7c>
    14b0:	490b390b 	stmdbmi	fp, {r0, r1, r3, r8, fp, ip, sp}
    14b4:	00053813 	andeq	r3, r5, r3, lsl r8
    14b8:	00151400 	andseq	r1, r5, r0, lsl #8
    14bc:	00001927 	andeq	r1, r0, r7, lsr #18
    14c0:	27011515 	smladcs	r1, r5, r5, r1
    14c4:	01134919 	tsteq	r3, r9, lsl r9
    14c8:	16000013 			; <UNDEFINED> instruction: 0x16000013
    14cc:	13490005 	movtne	r0, #36869	; 0x9005
    14d0:	13170000 	tstne	r7, #0
    14d4:	0b0e0301 	bleq	3820e0 <__bss_end__+0x378070>
    14d8:	3b0b3a05 	blcc	2cfcf4 <__bss_end__+0x2c5c84>
    14dc:	010b3905 	tsteq	fp, r5, lsl #18
    14e0:	18000013 	stmdane	r0, {r0, r1, r4}
    14e4:	0e03000d 	cdpeq	0, 0, cr0, cr3, cr13, {0}
    14e8:	053b0b3a 	ldreq	r0, [fp, #-2874]!	; 0xfffff4c6
    14ec:	13490b39 	movtne	r0, #39737	; 0x9b39
    14f0:	00000b38 	andeq	r0, r0, r8, lsr fp
    14f4:	03000d19 	movweq	r0, #3353	; 0xd19
    14f8:	3b0b3a0e 	blcc	2cfd38 <__bss_end__+0x2c5cc8>
    14fc:	490b3905 	stmdbmi	fp, {r0, r2, r8, fp, ip, sp}
    1500:	00053813 	andeq	r3, r5, r3, lsl r8
    1504:	01131a00 	tsteq	r3, r0, lsl #20
    1508:	0b0b0e03 	bleq	2c4d1c <__bss_end__+0x2bacac>
    150c:	053b0b3a 	ldreq	r0, [fp, #-2874]!	; 0xfffff4c6
    1510:	13010b39 	movwne	r0, #6969	; 0x1b39
    1514:	131b0000 	tstne	fp, #0
    1518:	3a0b0b01 	bcc	2c4124 <__bss_end__+0x2ba0b4>
    151c:	39053b0b 	stmdbcc	r5, {r0, r1, r3, r8, r9, fp, ip, sp}
    1520:	0013010b 	andseq	r0, r3, fp, lsl #2
    1524:	01171c00 	tsteq	r7, r0, lsl #24
    1528:	0b3a0b0b 	bleq	e8415c <__bss_end__+0xe7a0ec>
    152c:	0b39053b 	bleq	e42a20 <__bss_end__+0xe389b0>
    1530:	00001301 	andeq	r1, r0, r1, lsl #6
    1534:	03000d1d 	movweq	r0, #3357	; 0xd1d
    1538:	3b0b3a0e 	blcc	2cfd78 <__bss_end__+0x2c5d08>
    153c:	490b3905 	stmdbmi	fp, {r0, r2, r8, fp, ip, sp}
    1540:	1e000013 	mcrne	0, 0, r0, cr0, cr3, {0}
    1544:	19270115 	stmdbne	r7!, {r0, r2, r4, r8}
    1548:	00001301 	andeq	r1, r0, r1, lsl #6
    154c:	0300341f 	movweq	r3, #1055	; 0x41f
    1550:	3b0b3a0e 	blcc	2cfd90 <__bss_end__+0x2c5d20>
    1554:	490b3905 	stmdbmi	fp, {r0, r2, r8, fp, ip, sp}
    1558:	3c193f13 	ldccc	15, cr3, [r9], {19}
    155c:	20000019 	andcs	r0, r0, r9, lsl r0
    1560:	0e030034 	mcreq	0, 0, r0, cr3, cr4, {1}
    1564:	0b3b0b3a 	bleq	ec4254 <__bss_end__+0xeba1e4>
    1568:	13490b39 	movtne	r0, #39737	; 0x9b39
    156c:	193c193f 	ldmdbne	ip!, {r0, r1, r2, r3, r4, r5, r8, fp, ip}
    1570:	2e210000 	cdpcs	0, 2, cr0, cr1, cr0, {0}
    1574:	03193f01 	tsteq	r9, #1, 30
    1578:	3b0b3a0e 	blcc	2cfdb8 <__bss_end__+0x2c5d48>
    157c:	270b390b 	strcs	r3, [fp, -fp, lsl #18]
    1580:	19018719 	stmdbne	r1, {r0, r3, r4, r8, r9, sl, pc}
    1584:	06120111 			; <UNDEFINED> instruction: 0x06120111
    1588:	42971840 	addsmi	r1, r7, #64, 16	; 0x400000
    158c:	00130119 	andseq	r0, r3, r9, lsl r1
    1590:	82892200 	addhi	r2, r9, #0, 4
    1594:	01110101 	tsteq	r1, r1, lsl #2
    1598:	00001301 	andeq	r1, r0, r1, lsl #6
    159c:	01828a23 	orreq	r8, r2, r3, lsr #20
    15a0:	91180200 	tstls	r8, r0, lsl #4
    15a4:	00001842 	andeq	r1, r0, r2, asr #16
    15a8:	01828924 	orreq	r8, r2, r4, lsr #18
    15ac:	31011101 	tstcc	r1, r1, lsl #2
    15b0:	00130113 	andseq	r0, r3, r3, lsl r1
    15b4:	82892500 	addhi	r2, r9, #0, 10
    15b8:	01110001 	tsteq	r1, r1
    15bc:	00001331 	andeq	r1, r0, r1, lsr r3
    15c0:	3f002e26 	svccc	0x00002e26
    15c4:	6e193c19 	mrcvs	12, 0, r3, cr9, cr9, {0}
    15c8:	3a0e030e 	bcc	382208 <__bss_end__+0x378198>
    15cc:	390b3b0b 	stmdbcc	fp, {r0, r1, r3, r8, r9, fp, ip, sp}
    15d0:	0000000b 	andeq	r0, r0, fp
    15d4:	25011101 	strcs	r1, [r1, #-257]	; 0xfffffeff
    15d8:	030b130e 	movweq	r1, #45838	; 0xb30e
    15dc:	110e1b0e 	tstne	lr, lr, lsl #22
    15e0:	10061201 	andne	r1, r6, r1, lsl #4
    15e4:	02000017 	andeq	r0, r0, #23
    15e8:	0b0b0024 	bleq	2c1680 <__bss_end__+0x2b7610>
    15ec:	08030b3e 	stmdaeq	r3, {r1, r2, r3, r4, r5, r8, r9, fp}
    15f0:	24030000 	strcs	r0, [r3], #-0
    15f4:	3e0b0b00 	vmlacc.f64	d0, d11, d0
    15f8:	000e030b 	andeq	r0, lr, fp, lsl #6
    15fc:	00160400 	andseq	r0, r6, r0, lsl #8
    1600:	0b3a0e03 	bleq	e84e14 <__bss_end__+0xe7ada4>
    1604:	0b390b3b 	bleq	e442f8 <__bss_end__+0xe3a288>
    1608:	00001349 	andeq	r1, r0, r9, asr #6
    160c:	0b000f05 	bleq	5228 <_start-0x2dd8>
    1610:	0013490b 	andseq	r4, r3, fp, lsl #18
    1614:	00130600 	andseq	r0, r3, r0, lsl #12
    1618:	193c0e03 	ldmdbne	ip!, {r0, r1, r9, sl, fp}
    161c:	16070000 	strne	r0, [r7], -r0
    1620:	3a0e0300 	bcc	382228 <__bss_end__+0x3781b8>
    1624:	39053b0b 	stmdbcc	r5, {r0, r1, r3, r8, r9, fp, ip, sp}
    1628:	0013490b 	andseq	r4, r3, fp, lsl #18
    162c:	01170800 	tsteq	r7, r0, lsl #16
    1630:	0b3a0b0b 	bleq	e84264 <__bss_end__+0xe7a1f4>
    1634:	0b390b3b 	bleq	e44328 <__bss_end__+0xe3a2b8>
    1638:	00001301 	andeq	r1, r0, r1, lsl #6
    163c:	03000d09 	movweq	r0, #3337	; 0xd09
    1640:	3b0b3a0e 	blcc	2cfe80 <__bss_end__+0x2c5e10>
    1644:	490b390b 	stmdbmi	fp, {r0, r1, r3, r8, fp, ip, sp}
    1648:	0a000013 	beq	169c <_start-0x6964>
    164c:	13490101 	movtne	r0, #37121	; 0x9101
    1650:	00001301 	andeq	r1, r0, r1, lsl #6
    1654:	4900210b 	stmdbmi	r0, {r0, r1, r3, r8, sp}
    1658:	000b2f13 	andeq	r2, fp, r3, lsl pc
    165c:	01130c00 	tsteq	r3, r0, lsl #24
    1660:	0b3a0b0b 	bleq	e84294 <__bss_end__+0xe7a224>
    1664:	0b390b3b 	bleq	e44358 <__bss_end__+0xe3a2e8>
    1668:	00001301 	andeq	r1, r0, r1, lsl #6
    166c:	03000d0d 	movweq	r0, #3341	; 0xd0d
    1670:	3b0b3a0e 	blcc	2cfeb0 <__bss_end__+0x2c5e40>
    1674:	490b390b 	stmdbmi	fp, {r0, r1, r3, r8, fp, ip, sp}
    1678:	000b3813 	andeq	r3, fp, r3, lsl r8
    167c:	000f0e00 	andeq	r0, pc, r0, lsl #28
    1680:	00000b0b 	andeq	r0, r0, fp, lsl #22
    1684:	4900260f 	stmdbmi	r0, {r0, r1, r2, r3, r9, sl, sp}
    1688:	10000013 	andne	r0, r0, r3, lsl r0
    168c:	0e030113 	mcreq	1, 0, r0, cr3, cr3, {0}
    1690:	0b3a0b0b 	bleq	e842c4 <__bss_end__+0xe7a254>
    1694:	0b390b3b 	bleq	e44388 <__bss_end__+0xe3a318>
    1698:	00001301 	andeq	r1, r0, r1, lsl #6
    169c:	03000d11 	movweq	r0, #3345	; 0xd11
    16a0:	3b0b3a08 	blcc	2cfec8 <__bss_end__+0x2c5e58>
    16a4:	490b390b 	stmdbmi	fp, {r0, r1, r3, r8, fp, ip, sp}
    16a8:	000b3813 	andeq	r3, fp, r3, lsl r8
    16ac:	01131200 	tsteq	r3, r0, lsl #4
    16b0:	050b0e03 	streq	r0, [fp, #-3587]	; 0xfffff1fd
    16b4:	0b3b0b3a 	bleq	ec43a4 <__bss_end__+0xeba334>
    16b8:	13010b39 	movwne	r0, #6969	; 0x1b39
    16bc:	0d130000 	ldceq	0, cr0, [r3, #-0]
    16c0:	3a0e0300 	bcc	3822c8 <__bss_end__+0x378258>
    16c4:	390b3b0b 	stmdbcc	fp, {r0, r1, r3, r8, r9, fp, ip, sp}
    16c8:	3813490b 	ldmdacc	r3, {r0, r1, r3, r8, fp, lr}
    16cc:	14000005 	strne	r0, [r0], #-5
    16d0:	19270015 	stmdbne	r7!, {r0, r2, r4}
    16d4:	15150000 	ldrne	r0, [r5, #-0]
    16d8:	49192701 	ldmdbmi	r9, {r0, r8, r9, sl, sp}
    16dc:	00130113 	andseq	r0, r3, r3, lsl r1
    16e0:	00051600 	andeq	r1, r5, r0, lsl #12
    16e4:	00001349 	andeq	r1, r0, r9, asr #6
    16e8:	03011317 	movweq	r1, #4887	; 0x1317
    16ec:	3a050b0e 	bcc	14432c <__bss_end__+0x13a2bc>
    16f0:	39053b0b 	stmdbcc	r5, {r0, r1, r3, r8, r9, fp, ip, sp}
    16f4:	0013010b 	andseq	r0, r3, fp, lsl #2
    16f8:	000d1800 	andeq	r1, sp, r0, lsl #16
    16fc:	0b3a0e03 	bleq	e84f10 <__bss_end__+0xe7aea0>
    1700:	0b39053b 	bleq	e42bf4 <__bss_end__+0xe38b84>
    1704:	0b381349 	bleq	e06430 <__bss_end__+0xdfc3c0>
    1708:	0d190000 	ldceq	0, cr0, [r9, #-0]
    170c:	3a0e0300 	bcc	382314 <__bss_end__+0x3782a4>
    1710:	39053b0b 	stmdbcc	r5, {r0, r1, r3, r8, r9, fp, ip, sp}
    1714:	3813490b 	ldmdacc	r3, {r0, r1, r3, r8, fp, lr}
    1718:	1a000005 	bne	1734 <_start-0x68cc>
    171c:	0e030113 	mcreq	1, 0, r0, cr3, cr3, {0}
    1720:	0b3a0b0b 	bleq	e84354 <__bss_end__+0xe7a2e4>
    1724:	0b39053b 	bleq	e42c18 <__bss_end__+0xe38ba8>
    1728:	00001301 	andeq	r1, r0, r1, lsl #6
    172c:	0b01131b 	bleq	463a0 <__bss_end__+0x3c330>
    1730:	3b0b3a0b 	blcc	2cff64 <__bss_end__+0x2c5ef4>
    1734:	010b3905 	tsteq	fp, r5, lsl #18
    1738:	1c000013 	stcne	0, cr0, [r0], {19}
    173c:	0b0b0117 	bleq	2c1ba0 <__bss_end__+0x2b7b30>
    1740:	053b0b3a 	ldreq	r0, [fp, #-2874]!	; 0xfffff4c6
    1744:	13010b39 	movwne	r0, #6969	; 0x1b39
    1748:	0d1d0000 	ldceq	0, cr0, [sp, #-0]
    174c:	3a0e0300 	bcc	382354 <__bss_end__+0x3782e4>
    1750:	39053b0b 	stmdbcc	r5, {r0, r1, r3, r8, r9, fp, ip, sp}
    1754:	0013490b 	andseq	r4, r3, fp, lsl #18
    1758:	01151e00 	tsteq	r5, r0, lsl #28
    175c:	13011927 	movwne	r1, #6439	; 0x1927
    1760:	341f0000 	ldrcc	r0, [pc], #-0	; 1768 <_start-0x6898>
    1764:	3a0e0300 	bcc	38236c <__bss_end__+0x3782fc>
    1768:	39053b0b 	stmdbcc	r5, {r0, r1, r3, r8, r9, fp, ip, sp}
    176c:	3f13490b 	svccc	0x0013490b
    1770:	00193c19 	andseq	r3, r9, r9, lsl ip
    1774:	00342000 	eorseq	r2, r4, r0
    1778:	0b3a0e03 	bleq	e84f8c <__bss_end__+0xe7af1c>
    177c:	0b390b3b 	bleq	e44470 <__bss_end__+0xe3a400>
    1780:	193f1349 	ldmdbne	pc!, {r0, r3, r6, r8, r9, ip}	; <UNPREDICTABLE>
    1784:	0000193c 	andeq	r1, r0, ip, lsr r9
    1788:	3f012e21 	svccc	0x00012e21
    178c:	3a0e0319 	bcc	3823f8 <__bss_end__+0x378388>
    1790:	390b3b0b 	stmdbcc	fp, {r0, r1, r3, r8, r9, fp, ip, sp}
    1794:	1201110b 	andne	r1, r1, #-1073741822	; 0xc0000002
    1798:	97184006 	ldrls	r4, [r8, -r6]
    179c:	13011942 	movwne	r1, #6466	; 0x1942
    17a0:	2e220000 	cdpcs	0, 2, cr0, cr2, cr0, {0}
    17a4:	03193f00 	tsteq	r9, #0, 30
    17a8:	3b0b3a0e 	blcc	2cffe8 <__bss_end__+0x2c5f78>
    17ac:	270b390b 	strcs	r3, [fp, -fp, lsl #18]
    17b0:	00193c19 	andseq	r3, r9, r9, lsl ip
    17b4:	00342300 	eorseq	r2, r4, r0, lsl #6
    17b8:	0b3a0803 	bleq	e837cc <__bss_end__+0xe7975c>
    17bc:	0b390b3b 	bleq	e444b0 <__bss_end__+0xe3a440>
    17c0:	17021349 	strne	r1, [r2, -r9, asr #6]
    17c4:	001742b7 			; <UNDEFINED> instruction: 0x001742b7
    17c8:	00342400 	eorseq	r2, r4, r0, lsl #8
    17cc:	0b3a0e03 	bleq	e84fe0 <__bss_end__+0xe7af70>
    17d0:	0b390b3b 	bleq	e444c4 <__bss_end__+0xe3a454>
    17d4:	00001349 	andeq	r1, r0, r9, asr #6
    17d8:	01828925 	orreq	r8, r2, r5, lsr #18
    17dc:	31011100 	mrscc	r1, (UNDEF: 17)
    17e0:	26000013 			; <UNDEFINED> instruction: 0x26000013
    17e4:	193f002e 	ldmdbne	pc!, {r1, r2, r3, r5}	; <UNPREDICTABLE>
    17e8:	0e6e193c 			; <UNDEFINED> instruction: 0x0e6e193c
    17ec:	0b3a0e03 	bleq	e85000 <__bss_end__+0xe7af90>
    17f0:	0b390b3b 	bleq	e444e4 <__bss_end__+0xe3a474>
    17f4:	01000000 	mrseq	r0, (UNDEF: 0)
    17f8:	0e250111 	mcreq	1, 1, r0, cr5, cr1, {0}
    17fc:	0e030b13 	vmoveq.32	d3[0], r0
    1800:	17550e1b 	smmlane	r5, fp, lr, r0
    1804:	17100111 			; <UNDEFINED> instruction: 0x17100111
    1808:	24020000 	strcs	r0, [r2], #-0
    180c:	3e0b0b00 	vmlacc.f64	d0, d11, d0
    1810:	0008030b 	andeq	r0, r8, fp, lsl #6
    1814:	00260300 	eoreq	r0, r6, r0, lsl #6
    1818:	00001349 	andeq	r1, r0, r9, asr #6
    181c:	0b002404 	bleq	a834 <__bss_end__+0x7c4>
    1820:	030b3e0b 	movweq	r3, #48651	; 0xbe0b
    1824:	0500000e 	streq	r0, [r0, #-14]
    1828:	0e030016 	mcreq	0, 0, r0, cr3, cr6, {0}
    182c:	0b3b0b3a 	bleq	ec451c <__bss_end__+0xeba4ac>
    1830:	13490b39 	movtne	r0, #39737	; 0x9b39
    1834:	0f060000 	svceq	0x00060000
    1838:	490b0b00 	stmdbmi	fp, {r8, r9, fp}
    183c:	07000013 	smladeq	r0, r3, r0, r0
    1840:	0e030013 	mcreq	0, 0, r0, cr3, cr3, {0}
    1844:	0000193c 	andeq	r1, r0, ip, lsr r9
    1848:	03001608 	movweq	r1, #1544	; 0x608
    184c:	3b0b3a0e 	blcc	2d008c <__bss_end__+0x2c601c>
    1850:	490b3905 	stmdbmi	fp, {r0, r2, r8, fp, ip, sp}
    1854:	09000013 	stmdbeq	r0, {r0, r1, r4}
    1858:	0b0b0117 	bleq	2c1cbc <__bss_end__+0x2b7c4c>
    185c:	0b3b0b3a 	bleq	ec454c <__bss_end__+0xeba4dc>
    1860:	13010b39 	movwne	r0, #6969	; 0x1b39
    1864:	0d0a0000 	stceq	0, cr0, [sl, #-0]
    1868:	3a0e0300 	bcc	382470 <__bss_end__+0x378400>
    186c:	390b3b0b 	stmdbcc	fp, {r0, r1, r3, r8, r9, fp, ip, sp}
    1870:	0013490b 	andseq	r4, r3, fp, lsl #18
    1874:	01010b00 	tsteq	r1, r0, lsl #22
    1878:	13011349 	movwne	r1, #4937	; 0x1349
    187c:	210c0000 	mrscs	r0, (UNDEF: 12)
    1880:	2f134900 	svccs	0x00134900
    1884:	0d00000b 	stceq	0, cr0, [r0, #-44]	; 0xffffffd4
    1888:	0b0b0113 	bleq	2c1cdc <__bss_end__+0x2b7c6c>
    188c:	0b3b0b3a 	bleq	ec457c <__bss_end__+0xeba50c>
    1890:	13010b39 	movwne	r0, #6969	; 0x1b39
    1894:	0d0e0000 	stceq	0, cr0, [lr, #-0]
    1898:	3a0e0300 	bcc	3824a0 <__bss_end__+0x378430>
    189c:	390b3b0b 	stmdbcc	fp, {r0, r1, r3, r8, r9, fp, ip, sp}
    18a0:	3813490b 	ldmdacc	r3, {r0, r1, r3, r8, fp, lr}
    18a4:	0f00000b 	svceq	0x0000000b
    18a8:	0b0b000f 	bleq	2c18ec <__bss_end__+0x2b787c>
    18ac:	13100000 	tstne	r0, #0
    18b0:	0b0e0301 	bleq	3824bc <__bss_end__+0x37844c>
    18b4:	3b0b3a0b 	blcc	2d00e8 <__bss_end__+0x2c6078>
    18b8:	010b390b 	tsteq	fp, fp, lsl #18
    18bc:	11000013 	tstne	r0, r3, lsl r0
    18c0:	0803000d 	stmdaeq	r3, {r0, r2, r3}
    18c4:	0b3b0b3a 	bleq	ec45b4 <__bss_end__+0xeba544>
    18c8:	13490b39 	movtne	r0, #39737	; 0x9b39
    18cc:	00000b38 	andeq	r0, r0, r8, lsr fp
    18d0:	03011312 	movweq	r1, #4882	; 0x1312
    18d4:	3a050b0e 	bcc	144514 <__bss_end__+0x13a4a4>
    18d8:	390b3b0b 	stmdbcc	fp, {r0, r1, r3, r8, r9, fp, ip, sp}
    18dc:	0013010b 	andseq	r0, r3, fp, lsl #2
    18e0:	000d1300 	andeq	r1, sp, r0, lsl #6
    18e4:	0b3a0e03 	bleq	e850f8 <__bss_end__+0xe7b088>
    18e8:	0b390b3b 	bleq	e445dc <__bss_end__+0xe3a56c>
    18ec:	05381349 	ldreq	r1, [r8, #-841]!	; 0xfffffcb7
    18f0:	15140000 	ldrne	r0, [r4, #-0]
    18f4:	00192700 	andseq	r2, r9, r0, lsl #14
    18f8:	01151500 	tsteq	r5, r0, lsl #10
    18fc:	13491927 	movtne	r1, #39207	; 0x9927
    1900:	00001301 	andeq	r1, r0, r1, lsl #6
    1904:	49000516 	stmdbmi	r0, {r1, r2, r4, r8, sl}
    1908:	17000013 	smladne	r0, r3, r0, r0
    190c:	0e030113 	mcreq	1, 0, r0, cr3, cr3, {0}
    1910:	0b3a050b 	bleq	e82d44 <__bss_end__+0xe78cd4>
    1914:	0b39053b 	bleq	e42e08 <__bss_end__+0xe38d98>
    1918:	00001301 	andeq	r1, r0, r1, lsl #6
    191c:	03000d18 	movweq	r0, #3352	; 0xd18
    1920:	3b0b3a0e 	blcc	2d0160 <__bss_end__+0x2c60f0>
    1924:	490b3905 	stmdbmi	fp, {r0, r2, r8, fp, ip, sp}
    1928:	000b3813 	andeq	r3, fp, r3, lsl r8
    192c:	000d1900 	andeq	r1, sp, r0, lsl #18
    1930:	0b3a0e03 	bleq	e85144 <__bss_end__+0xe7b0d4>
    1934:	0b39053b 	bleq	e42e28 <__bss_end__+0xe38db8>
    1938:	05381349 	ldreq	r1, [r8, #-841]!	; 0xfffffcb7
    193c:	131a0000 	tstne	sl, #0
    1940:	0b0e0301 	bleq	38254c <__bss_end__+0x3784dc>
    1944:	3b0b3a0b 	blcc	2d0178 <__bss_end__+0x2c6108>
    1948:	010b3905 	tsteq	fp, r5, lsl #18
    194c:	1b000013 	blne	19a0 <_start-0x6660>
    1950:	0b0b0113 	bleq	2c1da4 <__bss_end__+0x2b7d34>
    1954:	053b0b3a 	ldreq	r0, [fp, #-2874]!	; 0xfffff4c6
    1958:	13010b39 	movwne	r0, #6969	; 0x1b39
    195c:	171c0000 	ldrne	r0, [ip, -r0]
    1960:	3a0b0b01 	bcc	2c456c <__bss_end__+0x2ba4fc>
    1964:	39053b0b 	stmdbcc	r5, {r0, r1, r3, r8, r9, fp, ip, sp}
    1968:	0013010b 	andseq	r0, r3, fp, lsl #2
    196c:	000d1d00 	andeq	r1, sp, r0, lsl #26
    1970:	0b3a0e03 	bleq	e85184 <__bss_end__+0xe7b114>
    1974:	0b39053b 	bleq	e42e68 <__bss_end__+0xe38df8>
    1978:	00001349 	andeq	r1, r0, r9, asr #6
    197c:	2701151e 	smladcs	r1, lr, r5, r1
    1980:	00130119 	andseq	r0, r3, r9, lsl r1
    1984:	00341f00 	eorseq	r1, r4, r0, lsl #30
    1988:	0b3a0e03 	bleq	e8519c <__bss_end__+0xe7b12c>
    198c:	0b39053b 	bleq	e42e80 <__bss_end__+0xe38e10>
    1990:	193f1349 	ldmdbne	pc!, {r0, r3, r6, r8, r9, ip}	; <UNPREDICTABLE>
    1994:	0000193c 	andeq	r1, r0, ip, lsr r9
    1998:	03003420 	movweq	r3, #1056	; 0x420
    199c:	3b0b3a0e 	blcc	2d01dc <__bss_end__+0x2c616c>
    19a0:	490b390b 	stmdbmi	fp, {r0, r1, r3, r8, fp, ip, sp}
    19a4:	3c193f13 	ldccc	15, cr3, [r9], {19}
    19a8:	21000019 	tstcs	r0, r9, lsl r0
    19ac:	0e030034 	mcreq	0, 0, r0, cr3, cr4, {1}
    19b0:	0b3b0b3a 	bleq	ec46a0 <__bss_end__+0xeba630>
    19b4:	13490b39 	movtne	r0, #39737	; 0x9b39
    19b8:	2e220000 	cdpcs	0, 2, cr0, cr2, cr0, {0}
    19bc:	03193f01 	tsteq	r9, #1, 30
    19c0:	3b0b3a0e 	blcc	2d0200 <__bss_end__+0x2c6190>
    19c4:	270b390b 	strcs	r3, [fp, -fp, lsl #18]
    19c8:	19018719 	stmdbne	r1, {r0, r3, r4, r8, r9, sl, pc}
    19cc:	06120111 			; <UNDEFINED> instruction: 0x06120111
    19d0:	42971840 	addsmi	r1, r7, #64, 16	; 0x400000
    19d4:	00130119 	andseq	r0, r3, r9, lsl r1
    19d8:	00342300 	eorseq	r2, r4, r0, lsl #6
    19dc:	0b3a0e03 	bleq	e851f0 <__bss_end__+0xe7b180>
    19e0:	0b390b3b 	bleq	e446d4 <__bss_end__+0xe3a664>
    19e4:	17021349 	strne	r1, [r2, -r9, asr #6]
    19e8:	001742b7 			; <UNDEFINED> instruction: 0x001742b7
    19ec:	82892400 	addhi	r2, r9, #0, 8
    19f0:	01110001 	tsteq	r1, r1
    19f4:	00001331 	andeq	r1, r0, r1, lsr r3
    19f8:	01828925 	orreq	r8, r2, r5, lsr #18
    19fc:	31011101 	tstcc	r1, r1, lsl #2
    1a00:	00130113 	andseq	r0, r3, r3, lsl r1
    1a04:	828a2600 	addhi	r2, sl, #0, 12
    1a08:	18020001 	stmdane	r2, {r0}
    1a0c:	00184291 	mulseq	r8, r1, r2
    1a10:	012e2700 			; <UNDEFINED> instruction: 0x012e2700
    1a14:	0e03193f 			; <UNDEFINED> instruction: 0x0e03193f
    1a18:	0b3b0b3a 	bleq	ec4708 <__bss_end__+0xeba698>
    1a1c:	19270b39 	stmdbne	r7!, {r0, r3, r4, r5, r8, r9, fp}
    1a20:	06120111 			; <UNDEFINED> instruction: 0x06120111
    1a24:	42971840 	addsmi	r1, r7, #64, 16	; 0x400000
    1a28:	00130119 	andseq	r0, r3, r9, lsl r1
    1a2c:	012e2800 			; <UNDEFINED> instruction: 0x012e2800
    1a30:	0e03193f 			; <UNDEFINED> instruction: 0x0e03193f
    1a34:	0b3b0b3a 	bleq	ec4724 <__bss_end__+0xeba6b4>
    1a38:	19270b39 	stmdbne	r7!, {r0, r3, r4, r5, r8, r9, fp}
    1a3c:	01111349 	tsteq	r1, r9, asr #6
    1a40:	18400612 	stmdane	r0, {r1, r4, r9, sl}^
    1a44:	01194297 			; <UNDEFINED> instruction: 0x01194297
    1a48:	29000013 	stmdbcs	r0, {r0, r1, r4}
    1a4c:	193f002e 	ldmdbne	pc!, {r1, r2, r3, r5}	; <UNPREDICTABLE>
    1a50:	0e6e193c 			; <UNDEFINED> instruction: 0x0e6e193c
    1a54:	0b3a0e03 	bleq	e85268 <__bss_end__+0xe7b1f8>
    1a58:	0b390b3b 	bleq	e4474c <__bss_end__+0xe3a6dc>
    1a5c:	01000000 	mrseq	r0, (UNDEF: 0)
    1a60:	0e250111 	mcreq	1, 1, r0, cr5, cr1, {0}
    1a64:	0e030b13 	vmoveq.32	d3[0], r0
    1a68:	01110e1b 	tsteq	r1, fp, lsl lr
    1a6c:	17100612 			; <UNDEFINED> instruction: 0x17100612
    1a70:	24020000 	strcs	r0, [r2], #-0
    1a74:	3e0b0b00 	vmlacc.f64	d0, d11, d0
    1a78:	0008030b 	andeq	r0, r8, fp, lsl #6
    1a7c:	00240300 	eoreq	r0, r4, r0, lsl #6
    1a80:	0b3e0b0b 	bleq	f846b4 <__bss_end__+0xf7a644>
    1a84:	00000e03 	andeq	r0, r0, r3, lsl #28
    1a88:	03001604 	movweq	r1, #1540	; 0x604
    1a8c:	3b0b3a0e 	blcc	2d02cc <__bss_end__+0x2c625c>
    1a90:	490b390b 	stmdbmi	fp, {r0, r1, r3, r8, fp, ip, sp}
    1a94:	05000013 	streq	r0, [r0, #-19]	; 0xffffffed
    1a98:	0b0b000f 	bleq	2c1adc <__bss_end__+0x2b7a6c>
    1a9c:	00001349 	andeq	r1, r0, r9, asr #6
    1aa0:	03001306 	movweq	r1, #774	; 0x306
    1aa4:	00193c0e 	andseq	r3, r9, lr, lsl #24
    1aa8:	00160700 	andseq	r0, r6, r0, lsl #14
    1aac:	0b3a0e03 	bleq	e852c0 <__bss_end__+0xe7b250>
    1ab0:	0b39053b 	bleq	e42fa4 <__bss_end__+0xe38f34>
    1ab4:	00001349 	andeq	r1, r0, r9, asr #6
    1ab8:	0b011708 	bleq	476e0 <__bss_end__+0x3d670>
    1abc:	3b0b3a0b 	blcc	2d02f0 <__bss_end__+0x2c6280>
    1ac0:	010b390b 	tsteq	fp, fp, lsl #18
    1ac4:	09000013 	stmdbeq	r0, {r0, r1, r4}
    1ac8:	0e03000d 	cdpeq	0, 0, cr0, cr3, cr13, {0}
    1acc:	0b3b0b3a 	bleq	ec47bc <__bss_end__+0xeba74c>
    1ad0:	13490b39 	movtne	r0, #39737	; 0x9b39
    1ad4:	010a0000 	mrseq	r0, (UNDEF: 10)
    1ad8:	01134901 	tsteq	r3, r1, lsl #18
    1adc:	0b000013 	bleq	1b30 <_start-0x64d0>
    1ae0:	13490021 	movtne	r0, #36897	; 0x9021
    1ae4:	00000b2f 	andeq	r0, r0, pc, lsr #22
    1ae8:	0b01130c 	bleq	46720 <__bss_end__+0x3c6b0>
    1aec:	3b0b3a0b 	blcc	2d0320 <__bss_end__+0x2c62b0>
    1af0:	010b390b 	tsteq	fp, fp, lsl #18
    1af4:	0d000013 	stceq	0, cr0, [r0, #-76]	; 0xffffffb4
    1af8:	0e03000d 	cdpeq	0, 0, cr0, cr3, cr13, {0}
    1afc:	0b3b0b3a 	bleq	ec47ec <__bss_end__+0xeba77c>
    1b00:	13490b39 	movtne	r0, #39737	; 0x9b39
    1b04:	00000b38 	andeq	r0, r0, r8, lsr fp
    1b08:	0b000f0e 	bleq	5748 <_start-0x28b8>
    1b0c:	0f00000b 	svceq	0x0000000b
    1b10:	13490026 	movtne	r0, #36902	; 0x9026
    1b14:	13100000 	tstne	r0, #0
    1b18:	0b0e0301 	bleq	382724 <__bss_end__+0x3786b4>
    1b1c:	3b0b3a0b 	blcc	2d0350 <__bss_end__+0x2c62e0>
    1b20:	010b390b 	tsteq	fp, fp, lsl #18
    1b24:	11000013 	tstne	r0, r3, lsl r0
    1b28:	0803000d 	stmdaeq	r3, {r0, r2, r3}
    1b2c:	0b3b0b3a 	bleq	ec481c <__bss_end__+0xeba7ac>
    1b30:	13490b39 	movtne	r0, #39737	; 0x9b39
    1b34:	00000b38 	andeq	r0, r0, r8, lsr fp
    1b38:	03011312 	movweq	r1, #4882	; 0x1312
    1b3c:	3a050b0e 	bcc	14477c <__bss_end__+0x13a70c>
    1b40:	390b3b0b 	stmdbcc	fp, {r0, r1, r3, r8, r9, fp, ip, sp}
    1b44:	0013010b 	andseq	r0, r3, fp, lsl #2
    1b48:	000d1300 	andeq	r1, sp, r0, lsl #6
    1b4c:	0b3a0e03 	bleq	e85360 <__bss_end__+0xe7b2f0>
    1b50:	0b390b3b 	bleq	e44844 <__bss_end__+0xe3a7d4>
    1b54:	05381349 	ldreq	r1, [r8, #-841]!	; 0xfffffcb7
    1b58:	15140000 	ldrne	r0, [r4, #-0]
    1b5c:	00192700 	andseq	r2, r9, r0, lsl #14
    1b60:	01151500 	tsteq	r5, r0, lsl #10
    1b64:	13491927 	movtne	r1, #39207	; 0x9927
    1b68:	00001301 	andeq	r1, r0, r1, lsl #6
    1b6c:	49000516 	stmdbmi	r0, {r1, r2, r4, r8, sl}
    1b70:	17000013 	smladne	r0, r3, r0, r0
    1b74:	0e030113 	mcreq	1, 0, r0, cr3, cr3, {0}
    1b78:	0b3a050b 	bleq	e82fac <__bss_end__+0xe78f3c>
    1b7c:	0b39053b 	bleq	e43070 <__bss_end__+0xe39000>
    1b80:	00001301 	andeq	r1, r0, r1, lsl #6
    1b84:	03000d18 	movweq	r0, #3352	; 0xd18
    1b88:	3b0b3a0e 	blcc	2d03c8 <__bss_end__+0x2c6358>
    1b8c:	490b3905 	stmdbmi	fp, {r0, r2, r8, fp, ip, sp}
    1b90:	000b3813 	andeq	r3, fp, r3, lsl r8
    1b94:	000d1900 	andeq	r1, sp, r0, lsl #18
    1b98:	0b3a0e03 	bleq	e853ac <__bss_end__+0xe7b33c>
    1b9c:	0b39053b 	bleq	e43090 <__bss_end__+0xe39020>
    1ba0:	05381349 	ldreq	r1, [r8, #-841]!	; 0xfffffcb7
    1ba4:	131a0000 	tstne	sl, #0
    1ba8:	0b0e0301 	bleq	3827b4 <__bss_end__+0x378744>
    1bac:	3b0b3a0b 	blcc	2d03e0 <__bss_end__+0x2c6370>
    1bb0:	010b3905 	tsteq	fp, r5, lsl #18
    1bb4:	1b000013 	blne	1c08 <_start-0x63f8>
    1bb8:	0b0b0113 	bleq	2c200c <__bss_end__+0x2b7f9c>
    1bbc:	053b0b3a 	ldreq	r0, [fp, #-2874]!	; 0xfffff4c6
    1bc0:	13010b39 	movwne	r0, #6969	; 0x1b39
    1bc4:	171c0000 	ldrne	r0, [ip, -r0]
    1bc8:	3a0b0b01 	bcc	2c47d4 <__bss_end__+0x2ba764>
    1bcc:	39053b0b 	stmdbcc	r5, {r0, r1, r3, r8, r9, fp, ip, sp}
    1bd0:	0013010b 	andseq	r0, r3, fp, lsl #2
    1bd4:	000d1d00 	andeq	r1, sp, r0, lsl #26
    1bd8:	0b3a0e03 	bleq	e853ec <__bss_end__+0xe7b37c>
    1bdc:	0b39053b 	bleq	e430d0 <__bss_end__+0xe39060>
    1be0:	00001349 	andeq	r1, r0, r9, asr #6
    1be4:	2701151e 	smladcs	r1, lr, r5, r1
    1be8:	00130119 	andseq	r0, r3, r9, lsl r1
    1bec:	00341f00 	eorseq	r1, r4, r0, lsl #30
    1bf0:	0b3a0e03 	bleq	e85404 <__bss_end__+0xe7b394>
    1bf4:	0b39053b 	bleq	e430e8 <__bss_end__+0xe39078>
    1bf8:	193f1349 	ldmdbne	pc!, {r0, r3, r6, r8, r9, ip}	; <UNPREDICTABLE>
    1bfc:	0000193c 	andeq	r1, r0, ip, lsr r9
    1c00:	03003420 	movweq	r3, #1056	; 0x420
    1c04:	3b0b3a0e 	blcc	2d0444 <__bss_end__+0x2c63d4>
    1c08:	490b390b 	stmdbmi	fp, {r0, r1, r3, r8, fp, ip, sp}
    1c0c:	3c193f13 	ldccc	15, cr3, [r9], {19}
    1c10:	21000019 	tstcs	r0, r9, lsl r0
    1c14:	193f012e 	ldmdbne	pc!, {r1, r2, r3, r5, r8}	; <UNPREDICTABLE>
    1c18:	0b3a0e03 	bleq	e8542c <__bss_end__+0xe7b3bc>
    1c1c:	0b390b3b 	bleq	e44910 <__bss_end__+0xe3a8a0>
    1c20:	01111927 	tsteq	r1, r7, lsr #18
    1c24:	18400612 	stmdane	r0, {r1, r4, r9, sl}^
    1c28:	01194297 			; <UNDEFINED> instruction: 0x01194297
    1c2c:	22000013 	andcs	r0, r0, #19
    1c30:	08030005 	stmdaeq	r3, {r0, r2}
    1c34:	0b3b0b3a 	bleq	ec4924 <__bss_end__+0xeba8b4>
    1c38:	13490b39 	movtne	r0, #39737	; 0x9b39
    1c3c:	42b71702 	adcsmi	r1, r7, #524288	; 0x80000
    1c40:	23000017 	movwcs	r0, #23
    1c44:	01018289 	smlabbeq	r1, r9, r2, r8
    1c48:	13310111 	teqne	r1, #1073741828	; 0x40000004
    1c4c:	8a240000 	bhi	901c54 <__bss_end__+0x8f7be4>
    1c50:	02000182 	andeq	r0, r0, #-2147483616	; 0x80000020
    1c54:	18429118 	stmdane	r2, {r3, r4, r8, ip, pc}^
    1c58:	34250000 	strtcc	r0, [r5], #-0
    1c5c:	3a080300 	bcc	202864 <__bss_end__+0x1f87f4>
    1c60:	390b3b0b 	stmdbcc	fp, {r0, r1, r3, r8, r9, fp, ip, sp}
    1c64:	0213490b 	andseq	r4, r3, #180224	; 0x2c000
    1c68:	1742b717 	smlaldne	fp, r2, r7, r7
    1c6c:	0b260000 	bleq	981c74 <__bss_end__+0x977c04>
    1c70:	12011101 	andne	r1, r1, #1073741824	; 0x40000000
    1c74:	00130106 	andseq	r0, r3, r6, lsl #2
    1c78:	82892700 	addhi	r2, r9, #0, 14
    1c7c:	01110001 	tsteq	r1, r1
    1c80:	00001331 	andeq	r1, r0, r1, lsr r3
    1c84:	3f012e28 	svccc	0x00012e28
    1c88:	3a0e0319 	bcc	3828f4 <__bss_end__+0x378884>
    1c8c:	390b3b0b 	stmdbcc	fp, {r0, r1, r3, r8, r9, fp, ip, sp}
    1c90:	4919270b 	ldmdbmi	r9, {r0, r1, r3, r8, r9, sl, sp}
    1c94:	12011113 	andne	r1, r1, #-1073741820	; 0xc0000004
    1c98:	97184006 	ldrls	r4, [r8, -r6]
    1c9c:	13011942 	movwne	r1, #6466	; 0x1942
    1ca0:	05290000 	streq	r0, [r9, #-0]!
    1ca4:	3a0e0300 	bcc	3828ac <__bss_end__+0x37883c>
    1ca8:	390b3b0b 	stmdbcc	fp, {r0, r1, r3, r8, r9, fp, ip, sp}
    1cac:	0213490b 	andseq	r4, r3, #180224	; 0x2c000
    1cb0:	1742b717 	smlaldne	fp, r2, r7, r7
    1cb4:	2e2a0000 	cdpcs	0, 2, cr0, cr10, cr0, {0}
    1cb8:	3c193f00 	ldccc	15, cr3, [r9], {-0}
    1cbc:	030e6e19 	movweq	r6, #60953	; 0xee19
    1cc0:	3b0b3a0e 	blcc	2d0500 <__bss_end__+0x2c6490>
    1cc4:	000b390b 	andeq	r3, fp, fp, lsl #18
    1cc8:	11010000 	mrsne	r0, (UNDEF: 1)
    1ccc:	130e2501 	movwne	r2, #58625	; 0xe501
    1cd0:	1b0e030b 	blne	382904 <__bss_end__+0x378894>
    1cd4:	1201110e 	andne	r1, r1, #-2147483645	; 0x80000003
    1cd8:	00171006 	andseq	r1, r7, r6
    1cdc:	00240200 	eoreq	r0, r4, r0, lsl #4
    1ce0:	0b3e0b0b 	bleq	f84914 <__bss_end__+0xf7a8a4>
    1ce4:	00000803 	andeq	r0, r0, r3, lsl #16
    1ce8:	0b002403 	bleq	acfc <__bss_end__+0xc8c>
    1cec:	030b3e0b 	movweq	r3, #48651	; 0xbe0b
    1cf0:	0400000e 	streq	r0, [r0], #-14
    1cf4:	13490035 	movtne	r0, #36917	; 0x9035
    1cf8:	16050000 	strne	r0, [r5], -r0
    1cfc:	3a0e0300 	bcc	382904 <__bss_end__+0x378894>
    1d00:	490b3b0b 	stmdbmi	fp, {r0, r1, r3, r8, r9, fp, ip, sp}
    1d04:	06000013 			; <UNDEFINED> instruction: 0x06000013
    1d08:	0e030016 	mcreq	0, 0, r0, cr3, cr6, {0}
    1d0c:	053b0b3a 	ldreq	r0, [fp, #-2874]!	; 0xfffff4c6
    1d10:	00001349 	andeq	r1, r0, r9, asr #6
    1d14:	0b011707 	bleq	47938 <__bss_end__+0x3d8c8>
    1d18:	3b0b3a0b 	blcc	2d054c <__bss_end__+0x2c64dc>
    1d1c:	0013010b 	andseq	r0, r3, fp, lsl #2
    1d20:	000d0800 	andeq	r0, sp, r0, lsl #16
    1d24:	0b3a0e03 	bleq	e85538 <__bss_end__+0xe7b4c8>
    1d28:	13490b3b 	movtne	r0, #39739	; 0x9b3b
    1d2c:	01090000 	mrseq	r0, (UNDEF: 9)
    1d30:	01134901 	tsteq	r3, r1, lsl #18
    1d34:	0a000013 	beq	1d88 <_start-0x6278>
    1d38:	13490021 	movtne	r0, #36897	; 0x9021
    1d3c:	00000b2f 	andeq	r0, r0, pc, lsr #22
    1d40:	0b01130b 	bleq	46974 <__bss_end__+0x3c904>
    1d44:	3b0b3a0b 	blcc	2d0578 <__bss_end__+0x2c6508>
    1d48:	0013010b 	andseq	r0, r3, fp, lsl #2
    1d4c:	000d0c00 	andeq	r0, sp, r0, lsl #24
    1d50:	0b3a0e03 	bleq	e85564 <__bss_end__+0xe7b4f4>
    1d54:	13490b3b 	movtne	r0, #39739	; 0x9b3b
    1d58:	00000b38 	andeq	r0, r0, r8, lsr fp
    1d5c:	0b000f0d 	bleq	5998 <_start-0x2668>
    1d60:	0e00000b 	cdpeq	0, 0, cr0, cr0, cr11, {0}
    1d64:	0b0b000f 	bleq	2c1da8 <__bss_end__+0x2b7d38>
    1d68:	00001349 	andeq	r1, r0, r9, asr #6
    1d6c:	4900260f 	stmdbmi	r0, {r0, r1, r2, r3, r9, sl, sp}
    1d70:	10000013 	andne	r0, r0, r3, lsl r0
    1d74:	0e030113 	mcreq	1, 0, r0, cr3, cr3, {0}
    1d78:	0b3a0b0b 	bleq	e849ac <__bss_end__+0xe7a93c>
    1d7c:	13010b3b 	movwne	r0, #6971	; 0x1b3b
    1d80:	0d110000 	ldceq	0, cr0, [r1, #-0]
    1d84:	3a080300 	bcc	20298c <__bss_end__+0x1f891c>
    1d88:	490b3b0b 	stmdbmi	fp, {r0, r1, r3, r8, r9, fp, ip, sp}
    1d8c:	000b3813 	andeq	r3, fp, r3, lsl r8
    1d90:	01131200 	tsteq	r3, r0, lsl #4
    1d94:	050b0e03 	streq	r0, [fp, #-3587]	; 0xfffff1fd
    1d98:	0b3b0b3a 	bleq	ec4a88 <__bss_end__+0xebaa18>
    1d9c:	00001301 	andeq	r1, r0, r1, lsl #6
    1da0:	03000d13 	movweq	r0, #3347	; 0xd13
    1da4:	3b0b3a0e 	blcc	2d05e4 <__bss_end__+0x2c6574>
    1da8:	3813490b 	ldmdacc	r3, {r0, r1, r3, r8, fp, lr}
    1dac:	14000005 	strne	r0, [r0], #-5
    1db0:	19270015 	stmdbne	r7!, {r0, r2, r4}
    1db4:	15150000 	ldrne	r0, [r5, #-0]
    1db8:	49192701 	ldmdbmi	r9, {r0, r8, r9, sl, sp}
    1dbc:	00130113 	andseq	r0, r3, r3, lsl r1
    1dc0:	00051600 	andeq	r1, r5, r0, lsl #12
    1dc4:	00001349 	andeq	r1, r0, r9, asr #6
    1dc8:	03011317 	movweq	r1, #4887	; 0x1317
    1dcc:	3a050b0e 	bcc	144a0c <__bss_end__+0x13a99c>
    1dd0:	01053b0b 	tsteq	r5, fp, lsl #22
    1dd4:	18000013 	stmdane	r0, {r0, r1, r4}
    1dd8:	0e03000d 	cdpeq	0, 0, cr0, cr3, cr13, {0}
    1ddc:	053b0b3a 	ldreq	r0, [fp, #-2874]!	; 0xfffff4c6
    1de0:	0b381349 	bleq	e06b0c <__bss_end__+0xdfca9c>
    1de4:	0d190000 	ldceq	0, cr0, [r9, #-0]
    1de8:	3a0e0300 	bcc	3829f0 <__bss_end__+0x378980>
    1dec:	49053b0b 	stmdbmi	r5, {r0, r1, r3, r8, r9, fp, ip, sp}
    1df0:	00053813 	andeq	r3, r5, r3, lsl r8
    1df4:	01131a00 	tsteq	r3, r0, lsl #20
    1df8:	0b0b0e03 	bleq	2c560c <__bss_end__+0x2bb59c>
    1dfc:	053b0b3a 	ldreq	r0, [fp, #-2874]!	; 0xfffff4c6
    1e00:	00001301 	andeq	r1, r0, r1, lsl #6
    1e04:	0b01131b 	bleq	46a78 <__bss_end__+0x3ca08>
    1e08:	3b0b3a0b 	blcc	2d063c <__bss_end__+0x2c65cc>
    1e0c:	00130105 	andseq	r0, r3, r5, lsl #2
    1e10:	01171c00 	tsteq	r7, r0, lsl #24
    1e14:	0b3a0b0b 	bleq	e84a48 <__bss_end__+0xe7a9d8>
    1e18:	1301053b 	movwne	r0, #5435	; 0x153b
    1e1c:	0d1d0000 	ldceq	0, cr0, [sp, #-0]
    1e20:	3a0e0300 	bcc	382a28 <__bss_end__+0x3789b8>
    1e24:	49053b0b 	stmdbmi	r5, {r0, r1, r3, r8, r9, fp, ip, sp}
    1e28:	1e000013 	mcrne	0, 0, r0, cr0, cr3, {0}
    1e2c:	19270115 	stmdbne	r7!, {r0, r2, r4, r8}
    1e30:	00001301 	andeq	r1, r0, r1, lsl #6
    1e34:	0300341f 	movweq	r3, #1055	; 0x41f
    1e38:	3b0b3a0e 	blcc	2d0678 <__bss_end__+0x2c6608>
    1e3c:	3f134905 	svccc	0x00134905
    1e40:	00193c19 	andseq	r3, r9, r9, lsl ip
    1e44:	00342000 	eorseq	r2, r4, r0
    1e48:	0b3a0e03 	bleq	e8565c <__bss_end__+0xe7b5ec>
    1e4c:	13490b3b 	movtne	r0, #39739	; 0x9b3b
    1e50:	193c193f 	ldmdbne	ip!, {r0, r1, r2, r3, r4, r5, r8, fp, ip}
    1e54:	04210000 	strteq	r0, [r1], #-0
    1e58:	490b0b01 	stmdbmi	fp, {r0, r8, r9, fp}
    1e5c:	3b0b3a13 	blcc	2d06b0 <__bss_end__+0x2c6640>
    1e60:	0013010b 	andseq	r0, r3, fp, lsl #2
    1e64:	00282200 	eoreq	r2, r8, r0, lsl #4
    1e68:	0b1c0e03 	bleq	70567c <__bss_end__+0x6fb60c>
    1e6c:	34230000 	strtcc	r0, [r3], #-0
    1e70:	3a0e0300 	bcc	382a78 <__bss_end__+0x378a08>
    1e74:	490b3b0b 	stmdbmi	fp, {r0, r1, r3, r8, r9, fp, ip, sp}
    1e78:	00061c13 	andeq	r1, r6, r3, lsl ip
    1e7c:	012e2400 			; <UNDEFINED> instruction: 0x012e2400
    1e80:	0e03193f 			; <UNDEFINED> instruction: 0x0e03193f
    1e84:	0b3b0b3a 	bleq	ec4b74 <__bss_end__+0xebab04>
    1e88:	13491927 	movtne	r1, #39207	; 0x9927
    1e8c:	06120111 			; <UNDEFINED> instruction: 0x06120111
    1e90:	42971840 	addsmi	r1, r7, #64, 16	; 0x400000
    1e94:	00130119 	andseq	r0, r3, r9, lsl r1
    1e98:	82892500 	addhi	r2, r9, #0, 10
    1e9c:	01110001 	tsteq	r1, r1
    1ea0:	00001331 	andeq	r1, r0, r1, lsr r3
    1ea4:	3f012e26 	svccc	0x00012e26
    1ea8:	3a0e0319 	bcc	382b14 <__bss_end__+0x378aa4>
    1eac:	270b3b0b 	strcs	r3, [fp, -fp, lsl #22]
    1eb0:	12011119 	andne	r1, r1, #1073741830	; 0x40000006
    1eb4:	97184006 	ldrls	r4, [r8, -r6]
    1eb8:	13011942 	movwne	r1, #6466	; 0x1942
    1ebc:	05270000 	streq	r0, [r7, #-0]!
    1ec0:	3a080300 	bcc	202ac8 <__bss_end__+0x1f8a58>
    1ec4:	490b3b0b 	stmdbmi	fp, {r0, r1, r3, r8, r9, fp, ip, sp}
    1ec8:	00170213 	andseq	r0, r7, r3, lsl r2
    1ecc:	82892800 	addhi	r2, r9, #0, 16
    1ed0:	01110101 	tsteq	r1, r1, lsl #2
    1ed4:	13011331 	movwne	r1, #4913	; 0x1331
    1ed8:	8a290000 	bhi	a41ee0 <__bss_end__+0xa37e70>
    1edc:	02000182 	andeq	r0, r0, #-2147483616	; 0x80000020
    1ee0:	18429118 	stmdane	r2, {r3, r4, r8, ip, pc}^
    1ee4:	342a0000 	strtcc	r0, [sl], #-0
    1ee8:	3a080300 	bcc	202af0 <__bss_end__+0x1f8a80>
    1eec:	490b3b0b 	stmdbmi	fp, {r0, r1, r3, r8, r9, fp, ip, sp}
    1ef0:	00180213 	andseq	r0, r8, r3, lsl r2
    1ef4:	82892b00 	addhi	r2, r9, #0, 22
    1ef8:	01110101 	tsteq	r1, r1, lsl #2
    1efc:	00001331 	andeq	r1, r0, r1, lsr r3
    1f00:	03012e2c 	movweq	r2, #7724	; 0x1e2c
    1f04:	3b0b3a0e 	blcc	2d0744 <__bss_end__+0x2c66d4>
    1f08:	1119270b 	tstne	r9, fp, lsl #14
    1f0c:	40061201 	andmi	r1, r6, r1, lsl #4
    1f10:	19429718 	stmdbne	r2, {r3, r4, r8, r9, sl, ip, pc}^
    1f14:	00001301 	andeq	r1, r0, r1, lsl #6
    1f18:	0300052d 	movweq	r0, #1325	; 0x52d
    1f1c:	3b0b3a0e 	blcc	2d075c <__bss_end__+0x2c66ec>
    1f20:	0213490b 	andseq	r4, r3, #180224	; 0x2c000
    1f24:	2e000017 	mcrcs	0, 0, r0, cr0, cr7, {0}
    1f28:	00000035 	andeq	r0, r0, r5, lsr r0
    1f2c:	3f002e2f 	svccc	0x00002e2f
    1f30:	6e193c19 	mrcvs	12, 0, r3, cr9, cr9, {0}
    1f34:	3a0e030e 	bcc	382b74 <__bss_end__+0x378b04>
    1f38:	000b3b0b 	andeq	r3, fp, fp, lsl #22
    1f3c:	11010000 	mrsne	r0, (UNDEF: 1)
    1f40:	130e2501 	movwne	r2, #58625	; 0xe501
    1f44:	1b0e030b 	blne	382b78 <__bss_end__+0x378b08>
    1f48:	1201110e 	andne	r1, r1, #-2147483645	; 0x80000003
    1f4c:	00171006 	andseq	r1, r7, r6
    1f50:	00240200 	eoreq	r0, r4, r0, lsl #4
    1f54:	0b3e0b0b 	bleq	f84b88 <__bss_end__+0xf7ab18>
    1f58:	00000803 	andeq	r0, r0, r3, lsl #16
    1f5c:	0b002403 	bleq	af70 <__bss_end__+0xf00>
    1f60:	030b3e0b 	movweq	r3, #48651	; 0xbe0b
    1f64:	0400000e 	streq	r0, [r0], #-14
    1f68:	13490026 	movtne	r0, #36902	; 0x9026
    1f6c:	16050000 	strne	r0, [r5], -r0
    1f70:	3a0e0300 	bcc	382b78 <__bss_end__+0x378b08>
    1f74:	490b3b0b 	stmdbmi	fp, {r0, r1, r3, r8, r9, fp, ip, sp}
    1f78:	06000013 			; <UNDEFINED> instruction: 0x06000013
    1f7c:	0e030016 	mcreq	0, 0, r0, cr3, cr6, {0}
    1f80:	053b0b3a 	ldreq	r0, [fp, #-2874]!	; 0xfffff4c6
    1f84:	00001349 	andeq	r1, r0, r9, asr #6
    1f88:	0b011707 	bleq	47bac <__bss_end__+0x3db3c>
    1f8c:	3b0b3a0b 	blcc	2d07c0 <__bss_end__+0x2c6750>
    1f90:	0013010b 	andseq	r0, r3, fp, lsl #2
    1f94:	000d0800 	andeq	r0, sp, r0, lsl #16
    1f98:	0b3a0e03 	bleq	e857ac <__bss_end__+0xe7b73c>
    1f9c:	13490b3b 	movtne	r0, #39739	; 0x9b3b
    1fa0:	01090000 	mrseq	r0, (UNDEF: 9)
    1fa4:	01134901 	tsteq	r3, r1, lsl #18
    1fa8:	0a000013 	beq	1ffc <_start-0x6004>
    1fac:	13490021 	movtne	r0, #36897	; 0x9021
    1fb0:	00000b2f 	andeq	r0, r0, pc, lsr #22
    1fb4:	0b01130b 	bleq	46be8 <__bss_end__+0x3cb78>
    1fb8:	3b0b3a0b 	blcc	2d07ec <__bss_end__+0x2c677c>
    1fbc:	0013010b 	andseq	r0, r3, fp, lsl #2
    1fc0:	000d0c00 	andeq	r0, sp, r0, lsl #24
    1fc4:	0b3a0e03 	bleq	e857d8 <__bss_end__+0xe7b768>
    1fc8:	13490b3b 	movtne	r0, #39739	; 0x9b3b
    1fcc:	00000b38 	andeq	r0, r0, r8, lsr fp
    1fd0:	0b000f0d 	bleq	5c0c <_start-0x23f4>
    1fd4:	0e00000b 	cdpeq	0, 0, cr0, cr0, cr11, {0}
    1fd8:	0b0b000f 	bleq	2c201c <__bss_end__+0x2b7fac>
    1fdc:	00001349 	andeq	r1, r0, r9, asr #6
    1fe0:	0301130f 	movweq	r1, #4879	; 0x130f
    1fe4:	3a0b0b0e 	bcc	2c4c24 <__bss_end__+0x2babb4>
    1fe8:	010b3b0b 	tsteq	fp, fp, lsl #22
    1fec:	10000013 	andne	r0, r0, r3, lsl r0
    1ff0:	0803000d 	stmdaeq	r3, {r0, r2, r3}
    1ff4:	0b3b0b3a 	bleq	ec4ce4 <__bss_end__+0xebac74>
    1ff8:	0b381349 	bleq	e06d24 <__bss_end__+0xdfccb4>
    1ffc:	13110000 	tstne	r1, #0
    2000:	0b0e0301 	bleq	382c0c <__bss_end__+0x378b9c>
    2004:	3b0b3a05 	blcc	2d0820 <__bss_end__+0x2c67b0>
    2008:	0013010b 	andseq	r0, r3, fp, lsl #2
    200c:	000d1200 	andeq	r1, sp, r0, lsl #4
    2010:	0b3a0e03 	bleq	e85824 <__bss_end__+0xe7b7b4>
    2014:	13490b3b 	movtne	r0, #39739	; 0x9b3b
    2018:	00000538 	andeq	r0, r0, r8, lsr r5
    201c:	27001513 	smladcs	r0, r3, r5, r1
    2020:	14000019 	strne	r0, [r0], #-25	; 0xffffffe7
    2024:	19270115 	stmdbne	r7!, {r0, r2, r4, r8}
    2028:	13011349 	movwne	r1, #4937	; 0x1349
    202c:	05150000 	ldreq	r0, [r5, #-0]
    2030:	00134900 	andseq	r4, r3, r0, lsl #18
    2034:	01131600 	tsteq	r3, r0, lsl #12
    2038:	050b0e03 	streq	r0, [fp, #-3587]	; 0xfffff1fd
    203c:	053b0b3a 	ldreq	r0, [fp, #-2874]!	; 0xfffff4c6
    2040:	00001301 	andeq	r1, r0, r1, lsl #6
    2044:	03000d17 	movweq	r0, #3351	; 0xd17
    2048:	3b0b3a0e 	blcc	2d0888 <__bss_end__+0x2c6818>
    204c:	38134905 	ldmdacc	r3, {r0, r2, r8, fp, lr}
    2050:	1800000b 	stmdane	r0, {r0, r1, r3}
    2054:	0e03000d 	cdpeq	0, 0, cr0, cr3, cr13, {0}
    2058:	053b0b3a 	ldreq	r0, [fp, #-2874]!	; 0xfffff4c6
    205c:	05381349 	ldreq	r1, [r8, #-841]!	; 0xfffffcb7
    2060:	13190000 	tstne	r9, #0
    2064:	0b0e0301 	bleq	382c70 <__bss_end__+0x378c00>
    2068:	3b0b3a0b 	blcc	2d089c <__bss_end__+0x2c682c>
    206c:	00130105 	andseq	r0, r3, r5, lsl #2
    2070:	01131a00 	tsteq	r3, r0, lsl #20
    2074:	0b3a0b0b 	bleq	e84ca8 <__bss_end__+0xe7ac38>
    2078:	1301053b 	movwne	r0, #5435	; 0x153b
    207c:	171b0000 	ldrne	r0, [fp, -r0]
    2080:	3a0b0b01 	bcc	2c4c8c <__bss_end__+0x2bac1c>
    2084:	01053b0b 	tsteq	r5, fp, lsl #22
    2088:	1c000013 	stcne	0, cr0, [r0], {19}
    208c:	0e03000d 	cdpeq	0, 0, cr0, cr3, cr13, {0}
    2090:	053b0b3a 	ldreq	r0, [fp, #-2874]!	; 0xfffff4c6
    2094:	00001349 	andeq	r1, r0, r9, asr #6
    2098:	2701151d 	smladcs	r1, sp, r5, r1
    209c:	00130119 	andseq	r0, r3, r9, lsl r1
    20a0:	00341e00 	eorseq	r1, r4, r0, lsl #28
    20a4:	0b3a0e03 	bleq	e858b8 <__bss_end__+0xe7b848>
    20a8:	1349053b 	movtne	r0, #38203	; 0x953b
    20ac:	193c193f 	ldmdbne	ip!, {r0, r1, r2, r3, r4, r5, r8, fp, ip}
    20b0:	341f0000 	ldrcc	r0, [pc], #-0	; 20b8 <_start-0x5f48>
    20b4:	3a0e0300 	bcc	382cbc <__bss_end__+0x378c4c>
    20b8:	490b3b0b 	stmdbmi	fp, {r0, r1, r3, r8, r9, fp, ip, sp}
    20bc:	3c193f13 	ldccc	15, cr3, [r9], {19}
    20c0:	20000019 	andcs	r0, r0, r9, lsl r0
    20c4:	0b0b0104 	bleq	2c24dc <__bss_end__+0x2b846c>
    20c8:	0b3a1349 	bleq	e86df4 <__bss_end__+0xe7cd84>
    20cc:	13010b3b 	movwne	r0, #6971	; 0x1b3b
    20d0:	28210000 	stmdacs	r1!, {}	; <UNPREDICTABLE>
    20d4:	1c0e0300 	stcne	3, cr0, [lr], {-0}
    20d8:	2200000b 	andcs	r0, r0, #11
    20dc:	0e030034 	mcreq	0, 0, r0, cr3, cr4, {1}
    20e0:	0b3b0b3a 	bleq	ec4dd0 <__bss_end__+0xebad60>
    20e4:	061c1349 	ldreq	r1, [ip], -r9, asr #6
    20e8:	2e230000 	cdpcs	0, 2, cr0, cr3, cr0, {0}
    20ec:	03193f01 	tsteq	r9, #1, 30
    20f0:	3b0b3a0e 	blcc	2d0930 <__bss_end__+0x2c68c0>
    20f4:	4919270b 	ldmdbmi	r9, {r0, r1, r3, r8, r9, sl, sp}
    20f8:	12011113 	andne	r1, r1, #-1073741820	; 0xc0000004
    20fc:	97184006 	ldrls	r4, [r8, -r6]
    2100:	13011942 	movwne	r1, #6466	; 0x1942
    2104:	05240000 	streq	r0, [r4, #-0]!
    2108:	3a080300 	bcc	202d10 <__bss_end__+0x1f8ca0>
    210c:	490b3b0b 	stmdbmi	fp, {r0, r1, r3, r8, r9, fp, ip, sp}
    2110:	00170213 	andseq	r0, r7, r3, lsl r2
    2114:	00342500 	eorseq	r2, r4, r0, lsl #10
    2118:	0b3a0e03 	bleq	e8592c <__bss_end__+0xe7b8bc>
    211c:	13490b3b 	movtne	r0, #39739	; 0x9b3b
    2120:	00001702 	andeq	r1, r0, r2, lsl #14
    2124:	03003426 	movweq	r3, #1062	; 0x426
    2128:	3b0b3a08 	blcc	2d0950 <__bss_end__+0x2c68e0>
    212c:	0213490b 	andseq	r4, r3, #180224	; 0x2c000
    2130:	27000017 	smladcs	r0, r7, r0, r0
    2134:	01018289 	smlabbeq	r1, r9, r2, r8
    2138:	13310111 	teqne	r1, #1073741828	; 0x40000004
    213c:	8a280000 	bhi	a02144 <__bss_end__+0x9f80d4>
    2140:	02000182 	andeq	r0, r0, #-2147483616	; 0x80000020
    2144:	18429118 	stmdane	r2, {r3, r4, r8, ip, pc}^
    2148:	2e290000 	cdpcs	0, 2, cr0, cr9, cr0, {0}
    214c:	03193f01 	tsteq	r9, #1, 30
    2150:	3b0b3a0e 	blcc	2d0990 <__bss_end__+0x2c6920>
    2154:	1119270b 	tstne	r9, fp, lsl #14
    2158:	40061201 	andmi	r1, r6, r1, lsl #4
    215c:	19429718 	stmdbne	r2, {r3, r4, r8, r9, sl, ip, pc}^
    2160:	00001301 	andeq	r1, r0, r1, lsl #6
    2164:	0182892a 	orreq	r8, r2, sl, lsr #18
    2168:	31011101 	tstcc	r1, r1, lsl #2
    216c:	00130113 	andseq	r0, r3, r3, lsl r1
    2170:	82892b00 	addhi	r2, r9, #0, 22
    2174:	01110001 	tsteq	r1, r1
    2178:	00001331 	andeq	r1, r0, r1, lsr r3
    217c:	0300052c 	movweq	r0, #1324	; 0x52c
    2180:	3b0b3a0e 	blcc	2d09c0 <__bss_end__+0x2c6950>
    2184:	0213490b 	andseq	r4, r3, #180224	; 0x2c000
    2188:	2d000017 	stccs	0, cr0, [r0, #-92]	; 0xffffffa4
    218c:	08030034 	stmdaeq	r3, {r2, r4, r5}
    2190:	0b3b0b3a 	bleq	ec4e80 <__bss_end__+0xebae10>
    2194:	18021349 	stmdane	r2, {r0, r3, r6, r8, r9, ip}
    2198:	2e2e0000 	cdpcs	0, 2, cr0, cr14, cr0, {0}
    219c:	3c193f00 	ldccc	15, cr3, [r9], {-0}
    21a0:	030e6e19 	movweq	r6, #60953	; 0xee19
    21a4:	3b0b3a0e 	blcc	2d09e4 <__bss_end__+0x2c6974>
    21a8:	0000000b 	andeq	r0, r0, fp
    21ac:	25011101 	strcs	r1, [r1, #-257]	; 0xfffffeff
    21b0:	030b130e 	movweq	r1, #45838	; 0xb30e
    21b4:	110e1b0e 	tstne	lr, lr, lsl #22
    21b8:	10061201 	andne	r1, r6, r1, lsl #4
    21bc:	02000017 	andeq	r0, r0, #23
    21c0:	0b0b0024 	bleq	2c2258 <__bss_end__+0x2b81e8>
    21c4:	08030b3e 	stmdaeq	r3, {r1, r2, r3, r4, r5, r8, r9, fp}
    21c8:	24030000 	strcs	r0, [r3], #-0
    21cc:	3e0b0b00 	vmlacc.f64	d0, d11, d0
    21d0:	000e030b 	andeq	r0, lr, fp, lsl #6
    21d4:	00160400 	andseq	r0, r6, r0, lsl #8
    21d8:	0b3a0e03 	bleq	e859ec <__bss_end__+0xe7b97c>
    21dc:	13490b3b 	movtne	r0, #39739	; 0x9b3b
    21e0:	16050000 	strne	r0, [r5], -r0
    21e4:	3a0e0300 	bcc	382dec <__bss_end__+0x378d7c>
    21e8:	49053b0b 	stmdbmi	r5, {r0, r1, r3, r8, r9, fp, ip, sp}
    21ec:	06000013 			; <UNDEFINED> instruction: 0x06000013
    21f0:	0b0b0117 	bleq	2c2654 <__bss_end__+0x2b85e4>
    21f4:	0b3b0b3a 	bleq	ec4ee4 <__bss_end__+0xebae74>
    21f8:	00001301 	andeq	r1, r0, r1, lsl #6
    21fc:	03000d07 	movweq	r0, #3335	; 0xd07
    2200:	3b0b3a0e 	blcc	2d0a40 <__bss_end__+0x2c69d0>
    2204:	0013490b 	andseq	r4, r3, fp, lsl #18
    2208:	01010800 	tsteq	r1, r0, lsl #16
    220c:	13011349 	movwne	r1, #4937	; 0x1349
    2210:	21090000 	mrscs	r0, (UNDEF: 9)
    2214:	2f134900 	svccs	0x00134900
    2218:	0a00000b 	beq	224c <_start-0x5db4>
    221c:	0b0b0113 	bleq	2c2670 <__bss_end__+0x2b8600>
    2220:	0b3b0b3a 	bleq	ec4f10 <__bss_end__+0xebaea0>
    2224:	00001301 	andeq	r1, r0, r1, lsl #6
    2228:	03000d0b 	movweq	r0, #3339	; 0xd0b
    222c:	3b0b3a0e 	blcc	2d0a6c <__bss_end__+0x2c69fc>
    2230:	3813490b 	ldmdacc	r3, {r0, r1, r3, r8, fp, lr}
    2234:	0c00000b 	stceq	0, cr0, [r0], {11}
    2238:	0b0b000f 	bleq	2c227c <__bss_end__+0x2b820c>
    223c:	0f0d0000 	svceq	0x000d0000
    2240:	490b0b00 	stmdbmi	fp, {r8, r9, fp}
    2244:	0e000013 	mcreq	0, 0, r0, cr0, cr3, {0}
    2248:	13490026 	movtne	r0, #36902	; 0x9026
    224c:	130f0000 	movwne	r0, #61440	; 0xf000
    2250:	0b0e0301 	bleq	382e5c <__bss_end__+0x378dec>
    2254:	3b0b3a0b 	blcc	2d0a88 <__bss_end__+0x2c6a18>
    2258:	0013010b 	andseq	r0, r3, fp, lsl #2
    225c:	000d1000 	andeq	r1, sp, r0
    2260:	0b3a0803 	bleq	e84274 <__bss_end__+0xe7a204>
    2264:	13490b3b 	movtne	r0, #39739	; 0x9b3b
    2268:	00000b38 	andeq	r0, r0, r8, lsr fp
    226c:	03011311 	movweq	r1, #4881	; 0x1311
    2270:	3a050b0e 	bcc	144eb0 <__bss_end__+0x13ae40>
    2274:	010b3b0b 	tsteq	fp, fp, lsl #22
    2278:	12000013 	andne	r0, r0, #19
    227c:	0e03000d 	cdpeq	0, 0, cr0, cr3, cr13, {0}
    2280:	0b3b0b3a 	bleq	ec4f70 <__bss_end__+0xebaf00>
    2284:	05381349 	ldreq	r1, [r8, #-841]!	; 0xfffffcb7
    2288:	15130000 	ldrne	r0, [r3, #-0]
    228c:	00192700 	andseq	r2, r9, r0, lsl #14
    2290:	01151400 	tsteq	r5, r0, lsl #8
    2294:	13491927 	movtne	r1, #39207	; 0x9927
    2298:	00001301 	andeq	r1, r0, r1, lsl #6
    229c:	49000515 	stmdbmi	r0, {r0, r2, r4, r8, sl}
    22a0:	16000013 			; <UNDEFINED> instruction: 0x16000013
    22a4:	0e030113 	mcreq	1, 0, r0, cr3, cr3, {0}
    22a8:	0b3a050b 	bleq	e836dc <__bss_end__+0xe7966c>
    22ac:	1301053b 	movwne	r0, #5435	; 0x153b
    22b0:	0d170000 	ldceq	0, cr0, [r7, #-0]
    22b4:	3a0e0300 	bcc	382ebc <__bss_end__+0x378e4c>
    22b8:	49053b0b 	stmdbmi	r5, {r0, r1, r3, r8, r9, fp, ip, sp}
    22bc:	000b3813 	andeq	r3, fp, r3, lsl r8
    22c0:	000d1800 	andeq	r1, sp, r0, lsl #16
    22c4:	0b3a0e03 	bleq	e85ad8 <__bss_end__+0xe7ba68>
    22c8:	1349053b 	movtne	r0, #38203	; 0x953b
    22cc:	00000538 	andeq	r0, r0, r8, lsr r5
    22d0:	03011319 	movweq	r1, #4889	; 0x1319
    22d4:	3a0b0b0e 	bcc	2c4f14 <__bss_end__+0x2baea4>
    22d8:	01053b0b 	tsteq	r5, fp, lsl #22
    22dc:	1a000013 	bne	2330 <_start-0x5cd0>
    22e0:	0b0b0113 	bleq	2c2734 <__bss_end__+0x2b86c4>
    22e4:	053b0b3a 	ldreq	r0, [fp, #-2874]!	; 0xfffff4c6
    22e8:	00001301 	andeq	r1, r0, r1, lsl #6
    22ec:	0b01171b 	bleq	47f60 <__bss_end__+0x3def0>
    22f0:	3b0b3a0b 	blcc	2d0b24 <__bss_end__+0x2c6ab4>
    22f4:	00130105 	andseq	r0, r3, r5, lsl #2
    22f8:	000d1c00 	andeq	r1, sp, r0, lsl #24
    22fc:	0b3a0e03 	bleq	e85b10 <__bss_end__+0xe7baa0>
    2300:	1349053b 	movtne	r0, #38203	; 0x953b
    2304:	151d0000 	ldrne	r0, [sp, #-0]
    2308:	01192701 	tsteq	r9, r1, lsl #14
    230c:	1e000013 	mcrne	0, 0, r0, cr0, cr3, {0}
    2310:	0e030034 	mcreq	0, 0, r0, cr3, cr4, {1}
    2314:	053b0b3a 	ldreq	r0, [fp, #-2874]!	; 0xfffff4c6
    2318:	193f1349 	ldmdbne	pc!, {r0, r3, r6, r8, r9, ip}	; <UNPREDICTABLE>
    231c:	0000193c 	andeq	r1, r0, ip, lsr r9
    2320:	0300341f 	movweq	r3, #1055	; 0x41f
    2324:	3b0b3a0e 	blcc	2d0b64 <__bss_end__+0x2c6af4>
    2328:	3f13490b 	svccc	0x0013490b
    232c:	00193c19 	andseq	r3, r9, r9, lsl ip
    2330:	00342000 	eorseq	r2, r4, r0
    2334:	0b3a0e03 	bleq	e85b48 <__bss_end__+0xe7bad8>
    2338:	13490b3b 	movtne	r0, #39739	; 0x9b3b
    233c:	00001802 	andeq	r1, r0, r2, lsl #16
    2340:	3f012e21 	svccc	0x00012e21
    2344:	3a0e0319 	bcc	382fb0 <__bss_end__+0x378f40>
    2348:	270b3b0b 	strcs	r3, [fp, -fp, lsl #22]
    234c:	12011119 	andne	r1, r1, #1073741830	; 0x40000006
    2350:	97184006 	ldrls	r4, [r8, -r6]
    2354:	13011942 	movwne	r1, #6466	; 0x1942
    2358:	05220000 	streq	r0, [r2, #-0]!
    235c:	3a080300 	bcc	202f64 <__bss_end__+0x1f8ef4>
    2360:	490b3b0b 	stmdbmi	fp, {r0, r1, r3, r8, r9, fp, ip, sp}
    2364:	00180213 	andseq	r0, r8, r3, lsl r2
    2368:	002e2300 	eoreq	r2, lr, r0, lsl #6
    236c:	0e03193f 			; <UNDEFINED> instruction: 0x0e03193f
    2370:	0b3b0b3a 	bleq	ec5060 <__bss_end__+0xebaff0>
    2374:	01111927 	tsteq	r1, r7, lsr #18
    2378:	18400612 	stmdane	r0, {r1, r4, r9, sl}^
    237c:	00194297 	mulseq	r9, r7, r2
    2380:	012e2400 			; <UNDEFINED> instruction: 0x012e2400
    2384:	0e03193f 			; <UNDEFINED> instruction: 0x0e03193f
    2388:	0b3b0b3a 	bleq	ec5078 <__bss_end__+0xebb008>
    238c:	13491927 	movtne	r1, #39207	; 0x9927
    2390:	06120111 			; <UNDEFINED> instruction: 0x06120111
    2394:	42971840 	addsmi	r1, r7, #64, 16	; 0x400000
    2398:	00130119 	andseq	r0, r3, r9, lsl r1
    239c:	00052500 	andeq	r2, r5, r0, lsl #10
    23a0:	0b3a0e03 	bleq	e85bb4 <__bss_end__+0xe7bb44>
    23a4:	13490b3b 	movtne	r0, #39739	; 0x9b3b
    23a8:	00001702 	andeq	r1, r0, r2, lsl #14
    23ac:	03003426 	movweq	r3, #1062	; 0x426
    23b0:	3413490e 	ldrcc	r4, [r3], #-2318	; 0xfffff6f2
    23b4:	00180219 	andseq	r0, r8, r9, lsl r2
    23b8:	00342700 	eorseq	r2, r4, r0, lsl #14
    23bc:	0b3a0803 	bleq	e843d0 <__bss_end__+0xe7a360>
    23c0:	13490b3b 	movtne	r0, #39739	; 0x9b3b
    23c4:	00001702 	andeq	r1, r0, r2, lsl #14
    23c8:	01828928 	orreq	r8, r2, r8, lsr #18
    23cc:	31011101 	tstcc	r1, r1, lsl #2
    23d0:	00130113 	andseq	r0, r3, r3, lsl r1
    23d4:	828a2900 	addhi	r2, sl, #0, 18
    23d8:	18020001 	stmdane	r2, {r0}
    23dc:	00184291 	mulseq	r8, r1, r2
    23e0:	82892a00 	addhi	r2, r9, #0, 20
    23e4:	01110001 	tsteq	r1, r1
    23e8:	00001331 	andeq	r1, r0, r1, lsr r3
    23ec:	0300052b 	movweq	r0, #1323	; 0x52b
    23f0:	3b0b3a08 	blcc	2d0c18 <__bss_end__+0x2c6ba8>
    23f4:	0213490b 	andseq	r4, r3, #180224	; 0x2c000
    23f8:	2c000017 	stccs	0, cr0, [r0], {23}
    23fc:	0e030034 	mcreq	0, 0, r0, cr3, cr4, {1}
    2400:	0b3b0b3a 	bleq	ec50f0 <__bss_end__+0xebb080>
    2404:	17021349 	strne	r1, [r2, -r9, asr #6]
    2408:	2e2d0000 	cdpcs	0, 2, cr0, cr13, cr0, {0}
    240c:	03193f00 	tsteq	r9, #0, 30
    2410:	3b0b3a0e 	blcc	2d0c50 <__bss_end__+0x2c6be0>
    2414:	4919270b 	ldmdbmi	r9, {r0, r1, r3, r8, r9, sl, sp}
    2418:	12011113 	andne	r1, r1, #-1073741820	; 0xc0000004
    241c:	97184006 	ldrls	r4, [r8, -r6]
    2420:	00001942 	andeq	r1, r0, r2, asr #18
    2424:	3f002e2e 	svccc	0x00002e2e
    2428:	6e193c19 	mrcvs	12, 0, r3, cr9, cr9, {0}
    242c:	3a0e030e 	bcc	38306c <__bss_end__+0x378ffc>
    2430:	000b3b0b 	andeq	r3, fp, fp, lsl #22
	...

Disassembly of section .debug_loc:

00000000 <.debug_loc>:
       0:	00000000 	andeq	r0, r0, r0
       4:	00000048 	andeq	r0, r0, r8, asr #32
       8:	00000053 	andeq	r0, r0, r3, asr r0
       c:	53500001 	cmppl	r0, #1
      10:	98000000 	stmdals	r0, {}	; <UNPREDICTABLE>
      14:	01000000 	mrseq	r0, (UNDEF: 0)
      18:	00005400 	andeq	r5, r0, r0, lsl #8
	...
      28:	00000074 	andeq	r0, r0, r4, ror r0
      2c:	00000080 	andeq	r0, r0, r0, lsl #1
      30:	94500001 	ldrbls	r0, [r0], #-1
      34:	9b000000 	blls	3c <_start-0x7fc4>
      38:	01000000 	mrseq	r0, (UNDEF: 0)
      3c:	009b5000 	addseq	r5, fp, r0
      40:	00d00000 	sbcseq	r0, r0, r0
      44:	00010000 	andeq	r0, r1, r0
      48:	00000054 	andeq	r0, r0, r4, asr r0
      4c:	00000000 	andeq	r0, r0, r0
      50:	a8000000 	stmdage	r0, {}	; <UNPREDICTABLE>
      54:	d0000007 	andle	r0, r0, r7
      58:	01000007 	tsteq	r0, r7
      5c:	00005400 	andeq	r5, r0, r0, lsl #8
	...
      68:	000007b0 			; <UNDEFINED> instruction: 0x000007b0
      6c:	000007d4 	ldrdeq	r0, [r0], -r4
      70:	00550001 	subseq	r0, r5, r1
      74:	00000000 	andeq	r0, r0, r0
      78:	02000000 	andeq	r0, r0, #0
      7c:	c8000000 	stmdagt	r0, {}	; <UNPREDICTABLE>
      80:	dc000007 	stcle	0, cr0, [r0], {7}
      84:	02000007 	andeq	r0, r0, #7
      88:	dc9f3000 	ldcle	0, cr3, [pc], {0}
      8c:	d8000007 	stmdale	r0, {r0, r1, r2}
      90:	01000008 	tsteq	r0, r8
      94:	00005600 	andeq	r5, r0, r0, lsl #12
      98:	00000000 	andeq	r0, r0, r0
      9c:	00030000 	andeq	r0, r3, r0
      a0:	07c80000 	strbeq	r0, [r8, r0]
      a4:	07dc0000 	ldrbeq	r0, [ip, r0]
      a8:	00020000 	andeq	r0, r2, r0
      ac:	07dc9f30 			; <UNDEFINED> instruction: 0x07dc9f30
      b0:	08d80000 	ldmeq	r8, {}^	; <UNPREDICTABLE>
      b4:	00010000 	andeq	r0, r1, r0
      b8:	00000055 	andeq	r0, r0, r5, asr r0
	...
      c8:	0007d000 	andeq	sp, r7, r0
      cc:	0007dc00 	andeq	sp, r7, r0, lsl #24
      d0:	50000100 	andpl	r0, r0, r0, lsl #2
      d4:	000007dc 	ldrdeq	r0, [r0], -ip
      d8:	00000820 	andeq	r0, r0, r0, lsr #16
      dc:	20540001 	subscs	r0, r4, r1
      e0:	2f000008 	svccs	0x00000008
      e4:	01000008 	tsteq	r0, r8
      e8:	082f5000 	stmdaeq	pc!, {ip, lr}	; <UNPREDICTABLE>
      ec:	08d80000 	ldmeq	r8, {}^	; <UNPREDICTABLE>
      f0:	00010000 	andeq	r0, r1, r0
      f4:	00000054 	andeq	r0, r0, r4, asr r0
	...
     104:	00074800 	andeq	r4, r7, r0, lsl #16
     108:	00077400 	andeq	r7, r7, r0, lsl #8
     10c:	50000100 	andpl	r0, r0, r0, lsl #2
     110:	00000774 	andeq	r0, r0, r4, ror r7
     114:	00000784 	andeq	r0, r0, r4, lsl #15
     118:	01f30004 	mvnseq	r0, r4
     11c:	07849f50 			; <UNDEFINED> instruction: 0x07849f50
     120:	07880000 	streq	r0, [r8, r0]
     124:	00010000 	andeq	r0, r1, r0
     128:	00078850 	andeq	r8, r7, r0, asr r8
     12c:	00079400 	andeq	r9, r7, r0, lsl #8
     130:	f3000400 	vshl.u8	d0, d0, d0
     134:	009f5001 	addseq	r5, pc, r1
	...
     140:	60000000 	andvs	r0, r0, r0
     144:	80000007 	andhi	r0, r0, r7
     148:	01000007 	tsteq	r0, r7
     14c:	07845400 	streq	r5, [r4, r0, lsl #8]
     150:	07880000 	streq	r0, [r8, r0]
     154:	00010000 	andeq	r0, r1, r0
     158:	00000054 	andeq	r0, r0, r4, asr r0
	...
     164:	00072400 	andeq	r2, r7, r0, lsl #8
     168:	00073400 	andeq	r3, r7, r0, lsl #8
     16c:	54000100 	strpl	r0, [r0], #-256	; 0xffffff00
     170:	0000073c 	andeq	r0, r0, ip, lsr r7
     174:	00000740 	andeq	r0, r0, r0, asr #14
     178:	00540001 	subseq	r0, r4, r1
	...
     18c:	0004fc00 	andeq	pc, r4, r0, lsl #24
     190:	00052800 	andeq	r2, r5, r0, lsl #16
     194:	50000100 	andpl	r0, r0, r0, lsl #2
     198:	00000528 	andeq	r0, r0, r8, lsr #10
     19c:	00000624 	andeq	r0, r0, r4, lsr #12
     1a0:	24550001 	ldrbcs	r0, [r5], #-1
     1a4:	27000006 	strcs	r0, [r0, -r6]
     1a8:	01000006 	tsteq	r0, r6
     1ac:	06275000 	strteq	r5, [r7], -r0
     1b0:	06400000 	strbeq	r0, [r0], -r0
     1b4:	00040000 	andeq	r0, r4, r0
     1b8:	9f5001f3 	svcls	0x005001f3
     1bc:	00000640 	andeq	r0, r0, r0, asr #12
     1c0:	00000718 	andeq	r0, r0, r8, lsl r7
     1c4:	00550001 	subseq	r0, r5, r1
	...
     1d8:	0004fc00 	andeq	pc, r4, r0, lsl #24
     1dc:	00052b00 	andeq	r2, r5, r0, lsl #22
     1e0:	51000100 	mrspl	r0, (UNDEF: 16)
     1e4:	0000052b 	andeq	r0, r0, fp, lsr #10
     1e8:	00000624 	andeq	r0, r0, r4, lsr #12
     1ec:	24580001 	ldrbcs	r0, [r8], #-1
     1f0:	27000006 	strcs	r0, [r0, -r6]
     1f4:	01000006 	tsteq	r0, r6
     1f8:	06275100 	strteq	r5, [r7], -r0, lsl #2
     1fc:	06400000 	strbeq	r0, [r0], -r0
     200:	00040000 	andeq	r0, r4, r0
     204:	9f5101f3 	svcls	0x005101f3
     208:	00000640 	andeq	r0, r0, r0, asr #12
     20c:	00000718 	andeq	r0, r0, r8, lsl r7
     210:	00580001 	subseq	r0, r8, r1
	...
     224:	0004fc00 	andeq	pc, r4, r0, lsl #24
     228:	00052b00 	andeq	r2, r5, r0, lsl #22
     22c:	52000100 	andpl	r0, r0, #0, 2
     230:	0000052b 	andeq	r0, r0, fp, lsr #10
     234:	00000624 	andeq	r0, r0, r4, lsr #12
     238:	24570001 	ldrbcs	r0, [r7], #-1
     23c:	27000006 	strcs	r0, [r0, -r6]
     240:	01000006 	tsteq	r0, r6
     244:	06275200 	strteq	r5, [r7], -r0, lsl #4
     248:	06400000 	strbeq	r0, [r0], -r0
     24c:	00040000 	andeq	r0, r4, r0
     250:	9f5201f3 	svcls	0x005201f3
     254:	00000640 	andeq	r0, r0, r0, asr #12
     258:	00000718 	andeq	r0, r0, r8, lsl r7
     25c:	00570001 	subseq	r0, r7, r1
	...
     270:	0004fc00 	andeq	pc, r4, r0, lsl #24
     274:	00050c00 	andeq	r0, r5, r0, lsl #24
     278:	53000100 	movwpl	r0, #256	; 0x100
     27c:	0000050c 	andeq	r0, r0, ip, lsl #10
     280:	000005b0 			; <UNDEFINED> instruction: 0x000005b0
     284:	b0560001 	subslt	r0, r6, r1
     288:	24000005 	strcs	r0, [r0], #-5
     28c:	04000006 	streq	r0, [r0], #-6
     290:	5301f300 	movwpl	pc, #4864	; 0x1300	; <UNPREDICTABLE>
     294:	0006249f 	muleq	r6, pc, r4	; <UNPREDICTABLE>
     298:	0006c800 	andeq	ip, r6, r0, lsl #16
     29c:	56000100 	strpl	r0, [r0], -r0, lsl #2
     2a0:	000006c8 	andeq	r0, r0, r8, asr #13
     2a4:	00000718 	andeq	r0, r0, r8, lsl r7
     2a8:	01f30004 	mvnseq	r0, r4
     2ac:	00009f53 	andeq	r9, r0, r3, asr pc
     2b0:	00000000 	andeq	r0, r0, r0
     2b4:	03010000 	movweq	r0, #4096	; 0x1000
     2b8:	00000003 	andeq	r0, r0, r3
     2bc:	05080000 	streq	r0, [r8, #-0]
     2c0:	05640000 	strbeq	r0, [r4, #-0]!
     2c4:	00020000 	andeq	r0, r2, r0
     2c8:	05649f30 	strbeq	r9, [r4, #-3888]!	; 0xfffff0d0
     2cc:	05fc0000 	ldrbeq	r0, [ip, #0]!
     2d0:	00010000 	andeq	r0, r1, r0
     2d4:	00062454 	andeq	r2, r6, r4, asr r4
     2d8:	0006c800 	andeq	ip, r6, r0, lsl #16
     2dc:	30000200 	andcc	r0, r0, r0, lsl #4
     2e0:	0006c89f 	muleq	r6, pc, r8	; <UNPREDICTABLE>
     2e4:	00071800 	andeq	r1, r7, r0, lsl #16
     2e8:	54000100 	strpl	r0, [r0], #-256	; 0xffffff00
	...
     2f4:	00000002 	andeq	r0, r0, r2
     2f8:	00000000 	andeq	r0, r0, r0
     2fc:	00000508 	andeq	r0, r0, r8, lsl #10
     300:	000005fc 	strdeq	r0, [r0], -ip
     304:	9f300002 	svcls	0x00300002
     308:	000005fc 	strdeq	r0, [r0], -ip
     30c:	00000600 	andeq	r0, r0, r0, lsl #12
     310:	00500001 	subseq	r0, r0, r1
     314:	24000006 	strcs	r0, [r0], #-6
     318:	01000006 	tsteq	r0, r6
     31c:	06245400 	strteq	r5, [r4], -r0, lsl #8
     320:	07180000 	ldreq	r0, [r8, -r0]
     324:	00020000 	andeq	r0, r2, r0
     328:	00009f30 	andeq	r9, r0, r0, lsr pc
	...
     33c:	05400000 	strbeq	r0, [r0, #-0]
     340:	056c0000 	strbeq	r0, [ip, #-0]!
     344:	00010000 	andeq	r0, r1, r0
     348:	00056c50 	andeq	r6, r5, r0, asr ip
     34c:	00062400 	andeq	r2, r6, r0, lsl #8
     350:	79000400 	stmdbvc	r0, {sl}
     354:	409f7dc8 	addsmi	r7, pc, r8, asr #27
     358:	44000006 	strmi	r0, [r0], #-6
     35c:	01000006 	tsteq	r0, r6
     360:	06445000 	strbeq	r5, [r4], -r0
     364:	06740000 	ldrbteq	r0, [r4], -r0
     368:	00040000 	andeq	r0, r4, r0
     36c:	9f7dc879 	svcls	0x007dc879
     370:	00000674 	andeq	r0, r0, r4, ror r6
     374:	00000678 	andeq	r0, r0, r8, ror r6
     378:	78500001 	ldmdavc	r0, {r0}^
     37c:	18000006 	stmdane	r0, {r1, r2}
     380:	04000007 	streq	r0, [r0], #-7
     384:	7dc87900 	vstrvc.16	s15, [r8]	; <UNPREDICTABLE>
     388:	0000009f 	muleq	r0, pc, r0	; <UNPREDICTABLE>
	...
     394:	00054400 	andeq	r4, r5, r0, lsl #8
     398:	00062400 	andeq	r2, r6, r0, lsl #8
     39c:	59000100 	stmdbpl	r0, {r8}
     3a0:	00000640 	andeq	r0, r0, r0, asr #12
     3a4:	00000718 	andeq	r0, r0, r8, lsl r7
     3a8:	00590001 	subseq	r0, r9, r1
	...
     3b4:	44000000 	strmi	r0, [r0], #-0
     3b8:	5b000004 	blpl	3d0 <_start-0x7c30>
     3bc:	01000004 	tsteq	r0, r4
     3c0:	045b5000 	ldrbeq	r5, [fp], #-0
     3c4:	04fc0000 	ldrbteq	r0, [ip], #0
     3c8:	00010000 	andeq	r0, r1, r0
     3cc:	00000055 	andeq	r0, r0, r5, asr r0
	...
     3d8:	00044400 	andeq	r4, r4, r0, lsl #8
     3dc:	00045b00 	andeq	r5, r4, r0, lsl #22
     3e0:	51000100 	mrspl	r0, (UNDEF: 16)
     3e4:	0000045b 	andeq	r0, r0, fp, asr r4
     3e8:	000004fc 	strdeq	r0, [r0], -ip
     3ec:	00570001 	subseq	r0, r7, r1
	...
     3f8:	44000000 	strmi	r0, [r0], #-0
     3fc:	5b000004 	blpl	414 <_start-0x7bec>
     400:	01000004 	tsteq	r0, r4
     404:	045b5200 	ldrbeq	r5, [fp], #-512	; 0xfffffe00
     408:	04fc0000 	ldrbteq	r0, [ip], #0
     40c:	00010000 	andeq	r0, r1, r0
     410:	00000056 	andeq	r0, r0, r6, asr r0
	...
     41c:	00044400 	andeq	r4, r4, r0, lsl #8
     420:	00045b00 	andeq	r5, r4, r0, lsl #22
     424:	53000100 	movwpl	r0, #256	; 0x100
     428:	0000045b 	andeq	r0, r0, fp, asr r4
     42c:	000004fc 	strdeq	r0, [r0], -ip
     430:	00580001 	subseq	r0, r8, r1
	...
     440:	00045c00 	andeq	r5, r4, r0, lsl #24
     444:	00047400 	andeq	r7, r4, r0, lsl #8
     448:	50000100 	andpl	r0, r0, r0, lsl #2
     44c:	00000474 	andeq	r0, r0, r4, ror r4
     450:	000004c8 	andeq	r0, r0, r8, asr #9
     454:	c8540001 	ldmdagt	r4, {r0}^
     458:	cb000004 	blgt	470 <_start-0x7b90>
     45c:	01000004 	tsteq	r0, r4
     460:	00005000 	andeq	r5, r0, r0
	...
     46c:	036c0000 	cmneq	ip, #0
     470:	03770000 	cmneq	r7, #0
     474:	00010000 	andeq	r0, r1, r0
     478:	00037750 	andeq	r7, r3, r0, asr r7
     47c:	0003d000 	andeq	sp, r3, r0
     480:	54000100 	strpl	r0, [r0], #-256	; 0xffffff00
	...
     490:	00000150 	andeq	r0, r0, r0, asr r1
     494:	0000015f 	andeq	r0, r0, pc, asr r1
     498:	5f500001 	svcpl	0x00500001
     49c:	64000001 	strvs	r0, [r0], #-1
     4a0:	04000001 	streq	r0, [r0], #-1
     4a4:	5001f300 	andpl	pc, r1, r0, lsl #6
     4a8:	0000009f 	muleq	r0, pc, r0	; <UNPREDICTABLE>
	...
     4b4:	50000000 	andpl	r0, r0, r0
     4b8:	5c000001 	stcpl	0, cr0, [r0], {1}
     4bc:	01000001 	tsteq	r0, r1
     4c0:	015c5100 	cmpeq	ip, r0, lsl #2
     4c4:	015f0000 	cmpeq	pc, r0
     4c8:	00010000 	andeq	r0, r1, r0
     4cc:	00015f52 	andeq	r5, r1, r2, asr pc
     4d0:	00016400 	andeq	r6, r1, r0, lsl #8
     4d4:	f3000400 	vshl.u8	d0, d0, d0
     4d8:	009f5101 	addseq	r5, pc, r1, lsl #2
	...
     4e8:	44000000 	strmi	r0, [r0], #-0
     4ec:	70000000 	andvc	r0, r0, r0
     4f0:	01000000 	mrseq	r0, (UNDEF: 0)
     4f4:	00705000 	rsbseq	r5, r0, r0
     4f8:	012c0000 			; <UNDEFINED> instruction: 0x012c0000
     4fc:	00010000 	andeq	r0, r1, r0
     500:	00012c55 	andeq	r2, r1, r5, asr ip
     504:	00013000 	andeq	r3, r1, r0
     508:	50000100 	andpl	r0, r0, r0, lsl #2
     50c:	00000130 	andeq	r0, r0, r0, lsr r1
     510:	00000150 	andeq	r0, r0, r0, asr r1
     514:	00550001 	subseq	r0, r5, r1
	...
     524:	00004400 	andeq	r4, r0, r0, lsl #8
     528:	00007300 	andeq	r7, r0, r0, lsl #6
     52c:	51000100 	mrspl	r0, (UNDEF: 16)
     530:	00000073 	andeq	r0, r0, r3, ror r0
     534:	0000012c 	andeq	r0, r0, ip, lsr #2
     538:	01f30004 	mvnseq	r0, r4
     53c:	012c9f51 			; <UNDEFINED> instruction: 0x012c9f51
     540:	01500000 	cmpeq	r0, r0
     544:	00010000 	andeq	r0, r1, r0
     548:	00000051 	andeq	r0, r0, r1, asr r0
	...
     554:	44000000 	strmi	r0, [r0], #-0
     558:	73000000 	movwvc	r0, #0
     55c:	01000000 	mrseq	r0, (UNDEF: 0)
     560:	00735200 	rsbseq	r5, r3, r0, lsl #4
     564:	012c0000 			; <UNDEFINED> instruction: 0x012c0000
     568:	00010000 	andeq	r0, r1, r0
     56c:	00012c56 	andeq	r2, r1, r6, asr ip
     570:	00015000 	andeq	r5, r1, r0
     574:	52000100 	andpl	r0, r0, #0, 2
	...
     580:	00000002 	andeq	r0, r0, r2
     584:	00500000 	subseq	r0, r0, r0
     588:	00540000 	subseq	r0, r4, r0
     58c:	00020000 	andeq	r0, r2, r0
     590:	00549f30 	subseq	r9, r4, r0, lsr pc
     594:	007c0000 	rsbseq	r0, ip, r0
     598:	00010000 	andeq	r0, r1, r0
     59c:	00012c54 	andeq	r2, r1, r4, asr ip
     5a0:	00015000 	andeq	r5, r1, r0
     5a4:	54000100 	strpl	r0, [r0], #-256	; 0xffffff00
	...
     5b0:	007c0000 	rsbseq	r0, ip, r0
     5b4:	012c0000 			; <UNDEFINED> instruction: 0x012c0000
     5b8:	00010000 	andeq	r0, r1, r0
     5bc:	00000054 	andeq	r0, r0, r4, asr r0
     5c0:	00000000 	andeq	r0, r0, r0
     5c4:	00010100 	andeq	r0, r1, r0, lsl #2
     5c8:	0000a000 	andeq	sl, r0, r0
     5cc:	0000e800 	andeq	lr, r0, r0, lsl #16
     5d0:	56000100 	strpl	r0, [r0], -r0, lsl #2
     5d4:	00000100 	andeq	r0, r0, r0, lsl #2
     5d8:	0000012c 	andeq	r0, r0, ip, lsr #2
     5dc:	00560001 	subseq	r0, r6, r1
     5e0:	00000000 	andeq	r0, r0, r0
     5e4:	02000000 	andeq	r0, r0, #0
     5e8:	b4000202 	strlt	r0, [r0], #-514	; 0xfffffdfe
     5ec:	dc000000 	stcle	0, cr0, [r0], {-0}
     5f0:	03000000 	movweq	r0, #0
     5f4:	9f107600 	svcls	0x00107600
     5f8:	000000dc 	ldrdeq	r0, [r0], -ip
     5fc:	0000012c 	andeq	r0, r0, ip, lsr #2
     600:	1c760003 	ldclne	0, cr0, [r6], #-12
     604:	0000009f 	muleq	r0, pc, r0	; <UNPREDICTABLE>
	...
     614:	00027000 	andeq	r7, r2, r0
     618:	00029c00 	andeq	r9, r2, r0, lsl #24
     61c:	50000100 	andpl	r0, r0, r0, lsl #2
     620:	0000029c 	muleq	r0, ip, r2
     624:	0000034c 	andeq	r0, r0, ip, asr #6
     628:	4c550001 	mrrcmi	0, 0, r0, r5, cr1
     62c:	50000003 	andpl	r0, r0, r3
     630:	01000003 	tsteq	r0, r3
     634:	03505000 	cmpeq	r0, #0
     638:	036c0000 	cmneq	ip, #0
     63c:	00010000 	andeq	r0, r1, r0
     640:	00000055 	andeq	r0, r0, r5, asr r0
	...
     64c:	70000000 	andvc	r0, r0, r0
     650:	9f000002 	svcls	0x00000002
     654:	01000002 	tsteq	r0, r2
     658:	029f5100 	addseq	r5, pc, #0, 2
     65c:	034c0000 	movteq	r0, #49152	; 0xc000
     660:	00040000 	andeq	r0, r4, r0
     664:	9f5101f3 	svcls	0x005101f3
     668:	0000034c 	andeq	r0, r0, ip, asr #6
     66c:	0000036c 	andeq	r0, r0, ip, ror #6
     670:	00510001 	subseq	r0, r1, r1
	...
     680:	00027000 	andeq	r7, r2, r0
     684:	00029f00 	andeq	r9, r2, r0, lsl #30
     688:	52000100 	andpl	r0, r0, #0, 2
     68c:	0000029f 	muleq	r0, pc, r2	; <UNPREDICTABLE>
     690:	0000034c 	andeq	r0, r0, ip, asr #6
     694:	4c560001 	mrrcmi	0, 0, r0, r6, cr1
     698:	6c000003 	stcvs	0, cr0, [r0], {3}
     69c:	01000003 	tsteq	r0, r3
     6a0:	00005200 	andeq	r5, r0, r0, lsl #4
     6a4:	00000000 	andeq	r0, r0, r0
     6a8:	00020000 	andeq	r0, r2, r0
     6ac:	00000000 	andeq	r0, r0, r0
     6b0:	0000027c 	andeq	r0, r0, ip, ror r2
     6b4:	00000280 	andeq	r0, r0, r0, lsl #5
     6b8:	9f300002 	svcls	0x00300002
     6bc:	00000280 	andeq	r0, r0, r0, lsl #5
     6c0:	000002a8 	andeq	r0, r0, r8, lsr #5
     6c4:	4c540001 	mrrcmi	0, 0, r0, r4, cr1
     6c8:	6c000003 	stcvs	0, cr0, [r0], {3}
     6cc:	01000003 	tsteq	r0, r3
     6d0:	00005400 	andeq	r5, r0, r0, lsl #8
	...
     6dc:	000002a8 	andeq	r0, r0, r8, lsr #5
     6e0:	0000034c 	andeq	r0, r0, ip, asr #6
     6e4:	00540001 	subseq	r0, r4, r1
     6e8:	00000000 	andeq	r0, r0, r0
     6ec:	01000000 	mrseq	r0, (UNDEF: 0)
     6f0:	0002d000 	andeq	sp, r2, r0
     6f4:	00034c00 	andeq	r4, r3, r0, lsl #24
     6f8:	56000100 	strpl	r0, [r0], -r0, lsl #2
	...
     704:	00020202 	andeq	r0, r2, r2, lsl #4
     708:	000002e4 	andeq	r0, r0, r4, ror #5
     70c:	0000030c 	andeq	r0, r0, ip, lsl #6
     710:	10760003 	rsbsne	r0, r6, r3
     714:	00030c9f 	muleq	r3, pc, ip	; <UNPREDICTABLE>
     718:	00034c00 	andeq	r4, r3, r0, lsl #24
     71c:	76000300 	strvc	r0, [r0], -r0, lsl #6
     720:	00009f1c 	andeq	r9, r0, ip, lsl pc
	...
     72c:	01880000 	orreq	r0, r8, r0
     730:	01a70000 			; <UNDEFINED> instruction: 0x01a70000
     734:	00010000 	andeq	r0, r1, r0
     738:	0001a750 	andeq	sl, r1, r0, asr r7
     73c:	00027000 	andeq	r7, r2, r0
     740:	54000100 	strpl	r0, [r0], #-256	; 0xffffff00
	...
     74c:	01d40001 	bicseq	r0, r4, r1
     750:	02500000 	subseq	r0, r0, #0
     754:	00010000 	andeq	r0, r1, r0
     758:	00000054 	andeq	r0, r0, r4, asr r0
     75c:	00000000 	andeq	r0, r0, r0
     760:	02020200 	andeq	r0, r2, #0, 4
     764:	0001e800 	andeq	lr, r1, r0, lsl #16
     768:	00021000 	andeq	r1, r2, r0
     76c:	74000300 	strvc	r0, [r0], #-768	; 0xfffffd00
     770:	02109f10 	andseq	r9, r0, #16, 30	; 0x40
     774:	02500000 	subseq	r0, r0, #0
     778:	00030000 	andeq	r0, r3, r0
     77c:	009f1c74 	addseq	r1, pc, r4, ror ip	; <UNPREDICTABLE>
	...
     788:	64000000 	strvs	r0, [r0], #-0
     78c:	7f000001 	svcvc	0x00000001
     790:	01000001 	tsteq	r0, r1
     794:	017f5000 	cmneq	pc, r0
     798:	01880000 	orreq	r0, r8, r0
     79c:	00010000 	andeq	r0, r1, r0
     7a0:	00000054 	andeq	r0, r0, r4, asr r0
     7a4:	00000000 	andeq	r0, r0, r0
     7a8:	70000000 	andvc	r0, r0, r0
     7ac:	88000001 	stmdahi	r0, {r0}
     7b0:	01000001 	tsteq	r0, r1
     7b4:	00005500 	andeq	r5, r0, r0, lsl #10
	...
     7c0:	00000180 	andeq	r0, r0, r0, lsl #3
     7c4:	00000188 	andeq	r0, r0, r8, lsl #3
     7c8:	00500001 	subseq	r0, r0, r1
	...
     7d4:	3c000000 	stccc	0, cr0, [r0], {-0}
     7d8:	40000000 	andmi	r0, r0, r0
     7dc:	01000000 	mrseq	r0, (UNDEF: 0)
     7e0:	00405000 	subeq	r5, r0, r0
     7e4:	00440000 	subeq	r0, r4, r0
     7e8:	00040000 	andeq	r0, r4, r0
     7ec:	9f01b870 	svcls	0x0001b870
	...
     7fc:	00000030 	andeq	r0, r0, r0, lsr r0
     800:	00000034 	andeq	r0, r0, r4, lsr r0
     804:	34500001 	ldrbcc	r0, [r0], #-1
     808:	3c000000 	stccc	0, cr0, [r0], {-0}
     80c:	04000000 	streq	r0, [r0], #-0
     810:	5001f300 	andpl	pc, r1, r0, lsl #6
     814:	0000009f 	muleq	r0, pc, r0	; <UNPREDICTABLE>
	...
     820:	00001800 	andeq	r1, r0, r0, lsl #16
     824:	00002300 	andeq	r2, r0, r0, lsl #6
     828:	50000100 	andpl	r0, r0, r0, lsl #2
     82c:	00000023 	andeq	r0, r0, r3, lsr #32
     830:	00000030 	andeq	r0, r0, r0, lsr r0
     834:	00540001 	subseq	r0, r4, r1
	...
     840:	08000000 	stmdaeq	r0, {}	; <UNPREDICTABLE>
     844:	0f000000 	svceq	0x00000000
     848:	01000000 	mrseq	r0, (UNDEF: 0)
     84c:	000f5000 	andeq	r5, pc, r0
     850:	00180000 	andseq	r0, r8, r0
     854:	00040000 	andeq	r0, r4, r0
     858:	9f5001f3 	svcls	0x005001f3
	...
     86c:	00000004 	andeq	r0, r0, r4
     870:	04500001 	ldrbeq	r0, [r0], #-1
     874:	08000000 	stmdaeq	r0, {}	; <UNPREDICTABLE>
     878:	03000000 	movweq	r0, #0
     87c:	9f487000 	svcls	0x00487000
	...
     890:	03d00000 	bicseq	r0, r0, #0
     894:	03f80000 	mvnseq	r0, #0
     898:	00010000 	andeq	r0, r1, r0
     89c:	0003f850 	andeq	pc, r3, r0, asr r8	; <UNPREDICTABLE>
     8a0:	00040c00 	andeq	r0, r4, r0, lsl #24
     8a4:	54000100 	strpl	r0, [r0], #-256	; 0xffffff00
     8a8:	0000040c 	andeq	r0, r0, ip, lsl #8
     8ac:	00000414 	andeq	r0, r0, r4, lsl r4
     8b0:	64030005 	strvs	r0, [r3], #-5
     8b4:	1400009c 	strne	r0, [r0], #-156	; 0xffffff64
     8b8:	17000004 	strne	r0, [r0, -r4]
     8bc:	01000004 	tsteq	r0, r4
     8c0:	04175000 	ldreq	r5, [r7], #-0
     8c4:	04440000 	strbeq	r0, [r4], #-0
     8c8:	00040000 	andeq	r0, r4, r0
     8cc:	9f5001f3 	svcls	0x005001f3
	...
     8e0:	000003d0 	ldrdeq	r0, [r0], -r0	; <UNPREDICTABLE>
     8e4:	000003f4 	strdeq	r0, [r0], -r4
     8e8:	f4510001 			; <UNDEFINED> instruction: 0xf4510001
     8ec:	14000003 	strne	r0, [r0], #-3
     8f0:	01000004 	tsteq	r0, r4
     8f4:	04145500 	ldreq	r5, [r4], #-1280	; 0xfffffb00
     8f8:	04170000 	ldreq	r0, [r7], #-0
     8fc:	00010000 	andeq	r0, r1, r0
     900:	00041751 	andeq	r1, r4, r1, asr r7
     904:	00044400 	andeq	r4, r4, r0, lsl #8
     908:	f3000400 	vshl.u8	d0, d0, d0
     90c:	009f5101 	addseq	r5, pc, r1, lsl #2
	...
     918:	00000101 	andeq	r0, r0, r1, lsl #2
     91c:	00000000 	andeq	r0, r0, r0
     920:	20000000 	andcs	r0, r0, r0
     924:	01000000 	mrseq	r0, (UNDEF: 0)
     928:	00205000 	eoreq	r5, r0, r0
     92c:	00e40000 	rsceq	r0, r4, r0
     930:	00040000 	andeq	r0, r4, r0
     934:	9f5001f3 	svcls	0x005001f3
     938:	000000e4 	andeq	r0, r0, r4, ror #1
     93c:	000000e8 	andeq	r0, r0, r8, ror #1
     940:	e8500001 	ldmda	r0, {r0}^
     944:	ec000000 	stc	0, cr0, [r0], {-0}
     948:	04000000 	streq	r0, [r0], #-0
     94c:	5001f300 	andpl	pc, r1, r0, lsl #6
     950:	0000009f 	muleq	r0, pc, r0	; <UNPREDICTABLE>
	...
     964:	20000000 	andcs	r0, r0, r0
     968:	01000000 	mrseq	r0, (UNDEF: 0)
     96c:	00205100 	eoreq	r5, r0, r0, lsl #2
     970:	00740000 	rsbseq	r0, r4, r0
     974:	00010000 	andeq	r0, r1, r0
     978:	00009051 	andeq	r9, r0, r1, asr r0
     97c:	00009400 	andeq	r9, r0, r0, lsl #8
     980:	51000100 	mrspl	r0, (UNDEF: 16)
     984:	000000b4 	strheq	r0, [r0], -r4
     988:	000000b8 	strheq	r0, [r0], -r8
     98c:	d0510001 	subsle	r0, r1, r1
     990:	ec000000 	stc	0, cr0, [r0], {-0}
     994:	01000000 	mrseq	r0, (UNDEF: 0)
     998:	00005100 	andeq	r5, r0, r0, lsl #2
     99c:	00000000 	andeq	r0, r0, r0
     9a0:	01020000 	mrseq	r0, (UNDEF: 2)
     9a4:	00000001 	andeq	r0, r0, r1
     9a8:	00000000 	andeq	r0, r0, r0
     9ac:	00200000 	eoreq	r0, r0, r0
     9b0:	00010000 	andeq	r0, r1, r0
     9b4:	00002050 	andeq	r2, r0, r0, asr r0
     9b8:	0000e400 	andeq	lr, r0, r0, lsl #8
     9bc:	5c000100 	stfpls	f0, [r0], {-0}
     9c0:	000000e4 	andeq	r0, r0, r4, ror #1
     9c4:	000000e8 	andeq	r0, r0, r8, ror #1
     9c8:	e8500001 	ldmda	r0, {r0}^
     9cc:	ec000000 	stc	0, cr0, [r0], {-0}
     9d0:	04000000 	streq	r0, [r0], #-0
     9d4:	5001f300 	andpl	pc, r1, r0, lsl #6
     9d8:	0000009f 	muleq	r0, pc, r0	; <UNPREDICTABLE>
     9dc:	00000000 	andeq	r0, r0, r0
     9e0:	00000300 	andeq	r0, r0, r0, lsl #6
	...
     9f0:	20000000 	andcs	r0, r0, r0
     9f4:	01000000 	mrseq	r0, (UNDEF: 0)
     9f8:	00205100 	eoreq	r5, r0, r0, lsl #2
     9fc:	00380000 	eorseq	r0, r8, r0
     a00:	00010000 	andeq	r0, r1, r0
     a04:	00003853 	andeq	r3, r0, r3, asr r8
     a08:	00004c00 	andeq	r4, r0, r0, lsl #24
     a0c:	52000100 	andpl	r0, r0, #0, 2
     a10:	0000004c 	andeq	r0, r0, ip, asr #32
     a14:	00000078 	andeq	r0, r0, r8, ror r0
     a18:	78530001 	ldmdavc	r3, {r0}^
     a1c:	90000000 	andls	r0, r0, r0
     a20:	01000000 	mrseq	r0, (UNDEF: 0)
     a24:	00905000 	addseq	r5, r0, r0
     a28:	00e40000 	rsceq	r0, r4, r0
     a2c:	00010000 	andeq	r0, r1, r0
     a30:	0000e453 	andeq	lr, r0, r3, asr r4
     a34:	0000ec00 	andeq	lr, r0, r0, lsl #24
     a38:	51000100 	mrspl	r0, (UNDEF: 16)
	...
     a48:	00480000 	subeq	r0, r8, r0
     a4c:	004c0000 	subeq	r0, ip, r0
     a50:	00010000 	andeq	r0, r1, r0
     a54:	00004c53 	andeq	r4, r0, r3, asr ip
     a58:	00005000 	andeq	r5, r0, r0
     a5c:	70001200 	andvc	r1, r0, r0, lsl #4
     a60:	7c243800 	stcvc	8, cr3, [r4], #-0
     a64:	08019402 	stmdaeq	r1, {r1, sl, ip, pc}
     a68:	3b221aff 	blcc	88766c <__bss_end__+0x87d5fc>
     a6c:	27007224 	strcs	r7, [r0, -r4, lsr #4]
     a70:	0000509f 	muleq	r0, pc, r0	; <UNPREDICTABLE>
     a74:	00005c00 	andeq	r5, r0, r0, lsl #24
     a78:	70001200 	andvc	r1, r0, r0, lsl #4
     a7c:	7c243800 	stcvc	8, cr3, [r4], #-0
     a80:	0801947e 	stmdaeq	r1, {r1, r2, r3, r4, r5, r6, sl, ip, pc}
     a84:	3b221aff 	blcc	887688 <__bss_end__+0x87d618>
     a88:	27007224 	strcs	r7, [r0, -r4, lsr #4]
     a8c:	0000009f 	muleq	r0, pc, r0	; <UNPREDICTABLE>
     a90:	00000000 	andeq	r0, r0, r0
     a94:	1c000000 	stcne	0, cr0, [r0], {-0}
     a98:	e4000000 	str	r0, [r0], #-0
     a9c:	01000000 	mrseq	r0, (UNDEF: 0)
     aa0:	00005e00 	andeq	r5, r0, r0, lsl #28
	...
     ab0:	00040000 	andeq	r0, r4, r0
     ab4:	00010000 	andeq	r0, r1, r0
     ab8:	00000452 	andeq	r0, r0, r2, asr r4
     abc:	00001800 	andeq	r1, r0, r0, lsl #16
     ac0:	f3000400 	vshl.u8	d0, d0, d0
     ac4:	009f5201 	addseq	r5, pc, r1, lsl #4
     ac8:	00000000 	andeq	r0, r0, r0
     acc:	02000000 	andeq	r0, r0, #0
     ad0:	01010000 	mrseq	r0, (UNDEF: 1)
     ad4:	00000000 	andeq	r0, r0, r0
     ad8:	08000000 	stmdaeq	r0, {}	; <UNPREDICTABLE>
     adc:	01000000 	mrseq	r0, (UNDEF: 0)
     ae0:	00085000 	andeq	r5, r8, r0
     ae4:	00100000 	andseq	r0, r0, r0
     ae8:	00010000 	andeq	r0, r1, r0
     aec:	00001053 	andeq	r1, r0, r3, asr r0
     af0:	00001400 	andeq	r1, r0, r0, lsl #8
     af4:	73000300 	movwvc	r0, #768	; 0x300
     af8:	00149f01 	andseq	r9, r4, r1, lsl #30
     afc:	00180000 	andseq	r0, r8, r0
     b00:	00010000 	andeq	r0, r1, r0
     b04:	00000053 	andeq	r0, r0, r3, asr r0
     b08:	00000000 	andeq	r0, r0, r0
     b0c:	04000000 	streq	r0, [r0], #-0
     b10:	18000000 	stmdane	r0, {}	; <UNPREDICTABLE>
     b14:	01000000 	mrseq	r0, (UNDEF: 0)
     b18:	00005200 	andeq	r5, r0, r0, lsl #4
	...
     b28:	0000002c 	andeq	r0, r0, ip, lsr #32
     b2c:	00000038 	andeq	r0, r0, r8, lsr r0
     b30:	38500001 	ldmdacc	r0, {r0}^
     b34:	48000000 	stmdami	r0, {}	; <UNPREDICTABLE>
     b38:	01000000 	mrseq	r0, (UNDEF: 0)
     b3c:	00485400 	subeq	r5, r8, r0, lsl #8
     b40:	00580000 	subseq	r0, r8, r0
     b44:	00010000 	andeq	r0, r1, r0
     b48:	00000050 	andeq	r0, r0, r0, asr r0
	...
     b58:	00000b00 	andeq	r0, r0, r0, lsl #22
     b5c:	50000100 	andpl	r0, r0, r0, lsl #2
     b60:	0000000b 	andeq	r0, r0, fp
     b64:	00000014 	andeq	r0, r0, r4, lsl r0
     b68:	00540001 	subseq	r0, r4, r1
	...
     b74:	00000101 	andeq	r0, r0, r1, lsl #2
     b78:	08000000 	stmdaeq	r0, {}	; <UNPREDICTABLE>
     b7c:	01000000 	mrseq	r0, (UNDEF: 0)
     b80:	00085000 	andeq	r5, r8, r0
     b84:	00340000 	eorseq	r0, r4, r0
     b88:	00010000 	andeq	r0, r1, r0
     b8c:	00000054 	andeq	r0, r0, r4, asr r0
	...
     b98:	70000000 	andvc	r0, r0, r0
     b9c:	9c000002 	stcls	0, cr0, [r0], {2}
     ba0:	01000002 	tsteq	r0, r2
     ba4:	029c5000 	addseq	r5, ip, #0
     ba8:	050c0000 	streq	r0, [ip, #-0]
     bac:	00010000 	andeq	r0, r1, r0
     bb0:	00050c57 	andeq	r0, r5, r7, asr ip
     bb4:	00052000 	andeq	r2, r5, r0
     bb8:	f3000400 	vshl.u8	d0, d0, d0
     bbc:	009f5001 	addseq	r5, pc, r1
	...
     bcc:	00027000 	andeq	r7, r2, r0
     bd0:	00028800 	andeq	r8, r2, r0, lsl #16
     bd4:	51000100 	mrspl	r0, (UNDEF: 16)
     bd8:	00000288 	andeq	r0, r0, r8, lsl #5
     bdc:	0000029c 	muleq	r0, ip, r2
     be0:	01710003 	cmneq	r1, r3
     be4:	00029c9f 	muleq	r2, pc, ip	; <UNPREDICTABLE>
     be8:	00052000 	andeq	r2, r5, r0
     bec:	f3000400 	vshl.u8	d0, d0, d0
     bf0:	009f5101 	addseq	r5, pc, r1, lsl #2
	...
     bfc:	70000000 	andvc	r0, r0, r0
     c00:	9c000002 	stcls	0, cr0, [r0], {2}
     c04:	01000002 	tsteq	r0, r2
     c08:	029c5200 	addseq	r5, ip, #0, 4
     c0c:	050c0000 	streq	r0, [ip, #-0]
     c10:	00010000 	andeq	r0, r1, r0
     c14:	00000059 	andeq	r0, r0, r9, asr r0
     c18:	00000000 	andeq	r0, r0, r0
     c1c:	00000100 	andeq	r0, r0, r0, lsl #2
     c20:	00000000 	andeq	r0, r0, r0
     c24:	00000101 	andeq	r0, r0, r1, lsl #2
     c28:	00000000 	andeq	r0, r0, r0
     c2c:	00000202 	andeq	r0, r0, r2, lsl #4
     c30:	00028400 	andeq	r8, r2, r0, lsl #8
     c34:	00029c00 	andeq	r9, r2, r0, lsl #24
     c38:	50000100 	andpl	r0, r0, r0, lsl #2
     c3c:	0000029c 	muleq	r0, ip, r2
     c40:	000002a0 	andeq	r0, r0, r0, lsr #5
     c44:	a0540001 	subsge	r0, r4, r1
     c48:	a4000002 	strge	r0, [r0], #-2
     c4c:	03000002 	movweq	r0, #2
     c50:	9f017400 	svcls	0x00017400
     c54:	000002a4 	andeq	r0, r0, r4, lsr #5
     c58:	000002c8 	andeq	r0, r0, r8, asr #5
     c5c:	c8540001 	ldmdagt	r4, {r0}^
     c60:	cc000002 	stcgt	0, cr0, [r0], {2}
     c64:	03000002 	movweq	r0, #2
     c68:	9f017400 	svcls	0x00017400
     c6c:	000002cc 	andeq	r0, r0, ip, asr #5
     c70:	000003f8 	strdeq	r0, [r0], -r8
     c74:	f8540001 			; <UNDEFINED> instruction: 0xf8540001
     c78:	fc000003 	stc2	0, cr0, [r0], {3}
     c7c:	03000003 	movweq	r0, #3
     c80:	9f017400 	svcls	0x00017400
     c84:	000003fc 	strdeq	r0, [r0], -ip
     c88:	000004f8 	strdeq	r0, [r0], -r8
     c8c:	f8540001 			; <UNDEFINED> instruction: 0xf8540001
     c90:	00000004 	andeq	r0, r0, r4
     c94:	03000005 	movweq	r0, #5
     c98:	9f017400 	svcls	0x00017400
     c9c:	00000500 	andeq	r0, r0, r0, lsl #10
     ca0:	0000050c 	andeq	r0, r0, ip, lsl #10
     ca4:	00540001 	subseq	r0, r4, r1
	...
     cb0:	8c000000 	stchi	0, cr0, [r0], {-0}
     cb4:	0c000002 	stceq	0, cr0, [r0], {2}
     cb8:	01000005 	tsteq	r0, r5
     cbc:	050c5800 	streq	r5, [ip, #-2048]	; 0xfffff800
     cc0:	05200000 	streq	r0, [r0, #-0]!
     cc4:	000a0000 	andeq	r0, sl, r0
     cc8:	f35101f3 	vbsl	q8, <illegal reg q8.5>, <illegal reg q9.5>
     ccc:	31225001 			; <UNDEFINED> instruction: 0x31225001
     cd0:	00009f1c 	andeq	r9, r0, ip, lsl pc
	...
     ce4:	000003dc 	ldrdeq	r0, [r0], -ip
     ce8:	00000400 	andeq	r0, r0, r0, lsl #8
     cec:	2c500001 	mrrccs	0, 0, r0, r0, cr1	; <UNPREDICTABLE>
     cf0:	30000004 	andcc	r0, r0, r4
     cf4:	01000004 	tsteq	r0, r4
     cf8:	045c5000 	ldrbeq	r5, [ip], #-0
     cfc:	04600000 	strbteq	r0, [r0], #-0
     d00:	00010000 	andeq	r0, r1, r0
     d04:	00048c50 	andeq	r8, r4, r0, asr ip
     d08:	00049000 	andeq	r9, r4, r0
     d0c:	50000100 	andpl	r0, r0, r0, lsl #2
     d10:	000004d0 	ldrdeq	r0, [r0], -r0	; <UNPREDICTABLE>
     d14:	000004d4 	ldrdeq	r0, [r0], -r4
     d18:	00500001 	subseq	r0, r0, r1
     d1c:	00000000 	andeq	r0, r0, r0
     d20:	02000000 	andeq	r0, r0, #0
     d24:	00000000 	andeq	r0, r0, r0
     d28:	0002d800 	andeq	sp, r2, r0, lsl #16
     d2c:	0002e000 	andeq	lr, r2, r0
     d30:	30000200 	andcc	r0, r0, r0, lsl #4
     d34:	0002e09f 	muleq	r2, pc, r0	; <UNPREDICTABLE>
     d38:	0002e400 	andeq	lr, r2, r0, lsl #8
     d3c:	56000100 	strpl	r0, [r0], -r0, lsl #2
     d40:	000002ec 	andeq	r0, r0, ip, ror #5
     d44:	000004f8 	strdeq	r0, [r0], -r8
     d48:	00560001 	subseq	r0, r6, r1
	...
     d58:	00007000 	andeq	r7, r0, r0
     d5c:	00009400 	andeq	r9, r0, r0, lsl #8
     d60:	50000100 	andpl	r0, r0, r0, lsl #2
     d64:	00000094 	muleq	r0, r4, r0
     d68:	000000fc 	strdeq	r0, [r0], -ip
     d6c:	02700003 	rsbseq	r0, r0, #3
     d70:	0000fc9f 	muleq	r0, pc, ip	; <UNPREDICTABLE>
     d74:	00021c00 	andeq	r1, r2, r0, lsl #24
     d78:	f3000400 	vshl.u8	d0, d0, d0
     d7c:	009f5001 	addseq	r5, pc, r1
	...
     d94:	70000000 	andvc	r0, r0, r0
     d98:	e0000000 	and	r0, r0, r0
     d9c:	01000000 	mrseq	r0, (UNDEF: 0)
     da0:	00e05100 	rsceq	r5, r0, r0, lsl #2
     da4:	01540000 	cmpeq	r4, r0
     da8:	00010000 	andeq	r0, r1, r0
     dac:	00015455 	andeq	r5, r1, r5, asr r4
     db0:	00015800 	andeq	r5, r1, r0, lsl #16
     db4:	51000100 	mrspl	r0, (UNDEF: 16)
     db8:	00000158 	andeq	r0, r0, r8, asr r1
     dbc:	000001b0 			; <UNDEFINED> instruction: 0x000001b0
     dc0:	b0550001 	subslt	r0, r5, r1
     dc4:	c0000001 	andgt	r0, r0, r1
     dc8:	01000001 	tsteq	r0, r1
     dcc:	01c05100 	biceq	r5, r0, r0, lsl #2
     dd0:	01e40000 	mvneq	r0, r0
     dd4:	00010000 	andeq	r0, r1, r0
     dd8:	0001e455 	andeq	lr, r1, r5, asr r4
     ddc:	0001e700 	andeq	lr, r1, r0, lsl #14
     de0:	51000100 	mrspl	r0, (UNDEF: 16)
     de4:	000001e7 	andeq	r0, r0, r7, ror #3
     de8:	0000021c 	andeq	r0, r0, ip, lsl r2
     dec:	00550001 	subseq	r0, r5, r1
	...
     df8:	70000000 	andvc	r0, r0, r0
     dfc:	84000000 	strhi	r0, [r0], #-0
     e00:	01000000 	mrseq	r0, (UNDEF: 0)
     e04:	00845200 	addeq	r5, r4, r0, lsl #4
     e08:	021c0000 	andseq	r0, ip, #0
     e0c:	00010000 	andeq	r0, r1, r0
     e10:	00000054 	andeq	r0, r0, r4, asr r0
	...
     e1c:	00010000 	andeq	r0, r1, r0
     e20:	70000000 	andvc	r0, r0, r0
     e24:	f4000000 	vst4.8	{d0-d3}, [r0], r0
     e28:	01000000 	mrseq	r0, (UNDEF: 0)
     e2c:	014c5300 	mrseq	r5, SPSR_mon
     e30:	01800000 	orreq	r0, r0, r0
     e34:	00010000 	andeq	r0, r1, r0
     e38:	00018053 	andeq	r8, r1, r3, asr r0
     e3c:	00018c00 	andeq	r8, r1, r0, lsl #24
     e40:	f3000400 	vshl.u8	d0, d0, d0
     e44:	b09f5301 	addslt	r5, pc, r1, lsl #6
     e48:	e7000001 	str	r0, [r0, -r1]
     e4c:	01000001 	tsteq	r0, r1
     e50:	01e75300 	mvneq	r5, r0, lsl #6
     e54:	021c0000 	andseq	r0, ip, #0
     e58:	00040000 	andeq	r0, r4, r0
     e5c:	9f5301f3 	svcls	0x005301f3
	...
     e6c:	00700000 	rsbseq	r0, r0, r0
     e70:	008c0000 	addeq	r0, ip, r0
     e74:	00020000 	andeq	r0, r2, r0
     e78:	008c0091 	umulleq	r0, ip, r1, r0
     e7c:	01930000 	orrseq	r0, r3, r0
     e80:	00010000 	andeq	r0, r1, r0
     e84:	0001b052 	andeq	fp, r1, r2, asr r0
     e88:	0001e700 	andeq	lr, r1, r0, lsl #14
     e8c:	52000100 	andpl	r0, r0, #0, 2
	...
     e98:	01000001 	tsteq	r0, r1
     e9c:	00000001 	andeq	r0, r0, r1
     ea0:	00000000 	andeq	r0, r0, r0
     ea4:	01010100 	mrseq	r0, (UNDEF: 17)
     ea8:	01000001 	tsteq	r0, r1
     eac:	00000001 	andeq	r0, r0, r1
	...
     eb8:	0000008c 	andeq	r0, r0, ip, lsl #1
     ebc:	000000fc 	strdeq	r0, [r0], -ip
     ec0:	fc5d0001 	mrrc2	0, 0, r0, sp, cr1
     ec4:	3c000000 	stccc	0, cr0, [r0], {-0}
     ec8:	01000001 	tsteq	r0, r1
     ecc:	013c5000 	teqeq	ip, r0
     ed0:	01480000 	mrseq	r0, (UNDEF: 72)
     ed4:	00030000 	andeq	r0, r3, r0
     ed8:	489f0271 	ldmmi	pc, {r0, r4, r5, r6, r9}	; <UNPREDICTABLE>
     edc:	4c000001 	stcmi	0, cr0, [r0], {1}
     ee0:	01000001 	tsteq	r0, r1
     ee4:	014c5000 	mrseq	r5, (UNDEF: 76)
     ee8:	01580000 	cmpeq	r8, r0
     eec:	00010000 	andeq	r0, r1, r0
     ef0:	0001585d 	andeq	r5, r1, sp, asr r8
     ef4:	00016c00 	andeq	r6, r1, r0, lsl #24
     ef8:	51000100 	mrspl	r0, (UNDEF: 16)
     efc:	0000016c 	andeq	r0, r0, ip, ror #2
     f00:	00000178 	andeq	r0, r0, r8, ror r1
     f04:	7f710003 	svcvc	0x00710003
     f08:	0001789f 	muleq	r1, pc, r8	; <UNPREDICTABLE>
     f0c:	00018400 	andeq	r8, r1, r0, lsl #8
     f10:	71000300 	mrsvc	r0, LR_irq
     f14:	01849f01 	orreq	r9, r4, r1, lsl #30
     f18:	01930000 	orrseq	r0, r3, r0
     f1c:	00010000 	andeq	r0, r1, r0
     f20:	0001b050 	andeq	fp, r1, r0, asr r0
     f24:	0001b000 	andeq	fp, r1, r0
     f28:	5d000100 	stfpls	f0, [r0, #-0]
     f2c:	000001b0 			; <UNDEFINED> instruction: 0x000001b0
     f30:	000001b8 			; <UNDEFINED> instruction: 0x000001b8
     f34:	a1910004 	orrsge	r0, r1, r4
     f38:	01b89f7f 			; <UNDEFINED> instruction: 0x01b89f7f
     f3c:	01bc0000 			; <UNDEFINED> instruction: 0x01bc0000
     f40:	00010000 	andeq	r0, r1, r0
     f44:	0001bc50 	andeq	fp, r1, r0, asr ip
     f48:	0001c000 	andeq	ip, r1, r0
     f4c:	5d000100 	stfpls	f0, [r0, #-0]
     f50:	000001c0 	andeq	r0, r0, r0, asr #3
     f54:	000001d4 	ldrdeq	r0, [r0], -r4
     f58:	d4500001 	ldrble	r0, [r0], #-1
     f5c:	e4000001 	str	r0, [r0], #-1
     f60:	03000001 	movweq	r0, #1
     f64:	9f7f7000 	svcls	0x007f7000
     f68:	000001e4 	andeq	r0, r0, r4, ror #3
     f6c:	0000021c 	andeq	r0, r0, ip, lsl r2
     f70:	005d0001 	subseq	r0, sp, r1
	...
     f7c:	01010000 	mrseq	r0, (UNDEF: 1)
	...
     f8c:	00009000 	andeq	r9, r0, r0
     f90:	0000dc00 	andeq	sp, r0, r0, lsl #24
     f94:	5c000100 	stfpls	f0, [r0], {-0}
     f98:	000000dc 	ldrdeq	r0, [r0], -ip
     f9c:	000000f4 	strdeq	r0, [r0], -r4
     fa0:	f4530001 			; <UNDEFINED> instruction: 0xf4530001
     fa4:	4c000000 	stcmi	0, cr0, [r0], {-0}
     fa8:	01000001 	tsteq	r0, r1
     fac:	014c5c00 	cmpeq	ip, r0, lsl #24
     fb0:	01580000 	cmpeq	r8, r0
     fb4:	00010000 	andeq	r0, r1, r0
     fb8:	00015853 	andeq	r5, r1, r3, asr r8
     fbc:	00017400 	andeq	r7, r1, r0, lsl #8
     fc0:	5c000100 	stfpls	f0, [r0], {-0}
     fc4:	000001b0 			; <UNDEFINED> instruction: 0x000001b0
     fc8:	000001c0 	andeq	r0, r0, r0, asr #3
     fcc:	c0530001 	subsgt	r0, r3, r1
     fd0:	dc000001 	stcle	0, cr0, [r0], {1}
     fd4:	01000001 	tsteq	r0, r1
     fd8:	01e45c00 	mvneq	r5, r0, lsl #24
     fdc:	01e70000 	mvneq	r0, r0
     fe0:	00010000 	andeq	r0, r1, r0
     fe4:	0001e753 	andeq	lr, r1, r3, asr r7
     fe8:	00021c00 	andeq	r1, r2, r0, lsl #24
     fec:	f3000400 	vshl.u8	d0, d0, d0
     ff0:	009f5301 	addseq	r5, pc, r1, lsl #6
     ff4:	00000000 	andeq	r0, r0, r0
     ff8:	01000000 	mrseq	r0, (UNDEF: 0)
     ffc:	00000101 	andeq	r0, r0, r1, lsl #2
    1000:	dc000000 	stcle	0, cr0, [r0], {-0}
    1004:	f0000000 			; <UNDEFINED> instruction: 0xf0000000
    1008:	02000000 	andeq	r0, r0, #0
    100c:	f09f3000 			; <UNDEFINED> instruction: 0xf09f3000
    1010:	f8000000 			; <UNDEFINED> instruction: 0xf8000000
    1014:	02000000 	andeq	r0, r0, #0
    1018:	fc9f3100 	ldc2	1, cr3, [pc], {0}
    101c:	4c000000 	stcmi	0, cr0, [r0], {-0}
    1020:	01000001 	tsteq	r0, r1
    1024:	014c5600 	cmpeq	ip, r0, lsl #12
    1028:	01540000 	cmpeq	r4, r0
    102c:	00020000 	andeq	r0, r2, r0
    1030:	00009f30 	andeq	r9, r0, r0, lsr pc
	...
    103c:	00010100 	andeq	r0, r1, r0, lsl #2
    1040:	00010100 	andeq	r0, r1, r0, lsl #2
    1044:	00000038 	andeq	r0, r0, r8, lsr r0
    1048:	00000054 	andeq	r0, r0, r4, asr r0
    104c:	54500001 	ldrbpl	r0, [r0], #-1
    1050:	58000000 	stmdapl	r0, {}	; <UNPREDICTABLE>
    1054:	01000000 	mrseq	r0, (UNDEF: 0)
    1058:	00585200 	subseq	r5, r8, r0, lsl #4
    105c:	00600000 	rsbeq	r0, r0, r0
    1060:	00030000 	andeq	r0, r3, r0
    1064:	609f0172 	addsvs	r0, pc, r2, ror r1	; <UNPREDICTABLE>
    1068:	64000000 	strvs	r0, [r0], #-0
    106c:	01000000 	mrseq	r0, (UNDEF: 0)
    1070:	00645200 	rsbeq	r5, r4, r0, lsl #4
    1074:	00700000 	rsbseq	r0, r0, r0
    1078:	00030000 	andeq	r0, r3, r0
    107c:	009f0172 	addseq	r0, pc, r2, ror r1	; <UNPREDICTABLE>
	...
    1088:	38000000 	stmdacc	r0, {}	; <UNPREDICTABLE>
    108c:	50000000 	andpl	r0, r0, r0
    1090:	01000000 	mrseq	r0, (UNDEF: 0)
    1094:	00505100 	subseq	r5, r0, r0, lsl #2
    1098:	00700000 	rsbseq	r0, r0, r0
    109c:	00040000 	andeq	r0, r4, r0
    10a0:	9f5101f3 	svcls	0x005101f3
	...
    10b0:	00010100 	andeq	r0, r1, r0, lsl #2
    10b4:	00000038 	andeq	r0, r0, r8, lsr r0
    10b8:	00000050 	andeq	r0, r0, r0, asr r0
    10bc:	50520001 	subspl	r0, r2, r1
    10c0:	5c000000 	stcpl	0, cr0, [r0], {-0}
    10c4:	01000000 	mrseq	r0, (UNDEF: 0)
    10c8:	005c5100 	subseq	r5, ip, r0, lsl #2
    10cc:	00600000 	rsbeq	r0, r0, r0
    10d0:	00030000 	andeq	r0, r3, r0
    10d4:	609f0171 	addsvs	r0, pc, r1, ror r1	; <UNPREDICTABLE>
    10d8:	70000000 	andvc	r0, r0, r0
    10dc:	01000000 	mrseq	r0, (UNDEF: 0)
    10e0:	00005100 	andeq	r5, r0, r0, lsl #2
	...
    10ec:	00380000 	eorseq	r0, r8, r0
    10f0:	004c0000 	subeq	r0, ip, r0
    10f4:	00010000 	andeq	r0, r1, r0
    10f8:	00004c53 	andeq	r4, r0, r3, asr ip
    10fc:	00006800 	andeq	r6, r0, r0, lsl #16
    1100:	53000100 	movwpl	r0, #256	; 0x100
	...
    1114:	00000040 	andeq	r0, r0, r0, asr #32
    1118:	00000048 	andeq	r0, r0, r8, asr #32
    111c:	485c0001 	ldmdami	ip, {r0}^
    1120:	4c000000 	stcmi	0, cr0, [r0], {-0}
    1124:	08000000 	stmdaeq	r0, {}	; <UNPREDICTABLE>
    1128:	73007200 	movwvc	r7, #512	; 0x200
    112c:	01231c00 			; <UNDEFINED> instruction: 0x01231c00
    1130:	00004c9f 	muleq	r0, pc, ip	; <UNPREDICTABLE>
    1134:	00005400 	andeq	r5, r0, r0, lsl #8
    1138:	72000900 	andvc	r0, r0, #0, 18
    113c:	5301f300 	movwpl	pc, #4864	; 0x1300	; <UNPREDICTABLE>
    1140:	9f01231c 	svcls	0x0001231c
    1144:	00000054 	andeq	r0, r0, r4, asr r0
    1148:	00000070 	andeq	r0, r0, r0, ror r0
    114c:	01f3000a 	mvnseq	r0, sl
    1150:	5301f352 	movwpl	pc, #4946	; 0x1352	; <UNPREDICTABLE>
    1154:	9f01231c 	svcls	0x0001231c
	...
    1160:	004c0001 	subeq	r0, ip, r1
    1164:	00700000 	rsbseq	r0, r0, r0
    1168:	00010000 	andeq	r0, r1, r0
    116c:	00000050 	andeq	r0, r0, r0, asr r0
    1170:	00000000 	andeq	r0, r0, r0
    1174:	01010000 	mrseq	r0, (UNDEF: 1)
    1178:	14000000 	strne	r0, [r0], #-0
    117c:	1c000000 	stcne	0, cr0, [r0], {-0}
    1180:	01000000 	mrseq	r0, (UNDEF: 0)
    1184:	001c5000 	andseq	r5, ip, r0
    1188:	00240000 	eoreq	r0, r4, r0
    118c:	00030000 	andeq	r0, r3, r0
    1190:	249f0170 	ldrcs	r0, [pc], #368	; 1198 <_start-0x6e68>
    1194:	38000000 	stmdacc	r0, {}	; <UNPREDICTABLE>
    1198:	01000000 	mrseq	r0, (UNDEF: 0)
    119c:	00005000 	andeq	r5, r0, r0
	...
    11a8:	00140000 	andseq	r0, r4, r0
    11ac:	00180000 	andseq	r0, r8, r0
    11b0:	00010000 	andeq	r0, r1, r0
    11b4:	00001851 	andeq	r1, r0, r1, asr r8
    11b8:	00003800 	andeq	r3, r0, r0, lsl #16
    11bc:	f3000400 	vshl.u8	d0, d0, d0
    11c0:	009f5101 	addseq	r5, pc, r1, lsl #2
	...
    11cc:	00001800 	andeq	r1, r0, r0, lsl #16
    11d0:	00003800 	andeq	r3, r0, r0, lsl #16
    11d4:	51000100 	mrspl	r0, (UNDEF: 16)
	...
    11e8:	00040000 	andeq	r0, r4, r0
    11ec:	00010000 	andeq	r0, r1, r0
    11f0:	00000450 	andeq	r0, r0, r0, asr r4
    11f4:	00000c00 	andeq	r0, r0, r0, lsl #24
    11f8:	70000300 	andvc	r0, r0, r0, lsl #6
    11fc:	000c9f30 	andeq	r9, ip, r0, lsr pc
    1200:	00140000 	andseq	r0, r4, r0
    1204:	00040000 	andeq	r0, r4, r0
    1208:	9f5001f3 	svcls	0x005001f3
	...
    1218:	0000021c 	andeq	r0, r0, ip, lsl r2
    121c:	00000243 	andeq	r0, r0, r3, asr #4
    1220:	43500001 	cmpmi	r0, #1
    1224:	70000002 	andvc	r0, r0, r2
    1228:	04000002 	streq	r0, [r0], #-2
    122c:	5001f300 	andpl	pc, r1, r0, lsl #6
    1230:	0000009f 	muleq	r0, pc, r0	; <UNPREDICTABLE>
	...
    123c:	00021c00 	andeq	r1, r2, r0, lsl #24
    1240:	00024300 	andeq	r4, r2, r0, lsl #6
    1244:	51000100 	mrspl	r0, (UNDEF: 16)
    1248:	00000243 	andeq	r0, r0, r3, asr #4
    124c:	00000270 	andeq	r0, r0, r0, ror r2
    1250:	01f30004 	mvnseq	r0, r4
    1254:	00009f51 	andeq	r9, r0, r1, asr pc
    1258:	00000000 	andeq	r0, r0, r0
    125c:	01000000 	mrseq	r0, (UNDEF: 0)
    1260:	00000001 	andeq	r0, r0, r1
    1264:	00000008 	andeq	r0, r0, r8
    1268:	00000010 	andeq	r0, r0, r0, lsl r0
    126c:	10530001 	subsne	r0, r3, r1
    1270:	18000000 	stmdane	r0, {}	; <UNPREDICTABLE>
    1274:	03000000 	movweq	r0, #0
    1278:	9f047300 	svcls	0x00047300
    127c:	00000018 	andeq	r0, r0, r8, lsl r0
    1280:	0000001f 	andeq	r0, r0, pc, lsl r0
    1284:	00530001 	subseq	r0, r3, r1
    1288:	00000000 	andeq	r0, r0, r0
    128c:	01000000 	mrseq	r0, (UNDEF: 0)
    1290:	00913c00 	addseq	r3, r1, r0, lsl #24
    1294:	00915800 	addseq	r5, r1, r0, lsl #16
    1298:	0c000600 	stceq	6, cr0, [r0], {-0}
    129c:	2010001c 	andscs	r0, r0, ip, lsl r0
    12a0:	0000009f 	muleq	r0, pc, r0	; <UNPREDICTABLE>
    12a4:	00000000 	andeq	r0, r0, r0
    12a8:	3c000200 	sfmcc	f0, 4, [r0], {-0}
    12ac:	58000091 	stmdapl	r0, {r0, r4, r7}
    12b0:	06000091 			; <UNDEFINED> instruction: 0x06000091
    12b4:	00240c00 	eoreq	r0, r4, r0, lsl #24
    12b8:	009f2010 	addseq	r2, pc, r0, lsl r0	; <UNPREDICTABLE>
    12bc:	00000000 	andeq	r0, r0, r0
    12c0:	03000000 	movweq	r0, #0
    12c4:	00913c00 	addseq	r3, r1, r0, lsl #24
    12c8:	00915800 	addseq	r5, r1, r0, lsl #16
    12cc:	08000500 	stmdaeq	r0, {r8, sl}
    12d0:	9f2447b4 	svcls	0x002447b4
	...
    12dc:	913c0004 	teqls	ip, r4
    12e0:	91580000 	cmpls	r8, r0
    12e4:	00030000 	andeq	r0, r3, r0
    12e8:	009f2008 	addseq	r2, pc, r8
    12ec:	00000000 	andeq	r0, r0, r0
    12f0:	02000000 	andeq	r0, r0, #0
    12f4:	00000000 	andeq	r0, r0, r0
    12f8:	00911000 	addseq	r1, r1, r0
    12fc:	00911400 	addseq	r1, r1, r0, lsl #8
    1300:	30000200 	andcc	r0, r0, r0, lsl #4
    1304:	0091149f 	umullseq	r1, r1, pc, r4	; <UNPREDICTABLE>
    1308:	00911800 	addseq	r1, r1, r0, lsl #16
    130c:	53000100 	movwpl	r0, #256	; 0x100
    1310:	0000911c 	andeq	r9, r0, ip, lsl r1
    1314:	00009124 	andeq	r9, r0, r4, lsr #2
    1318:	00530001 	subseq	r0, r3, r1
    131c:	00000000 	andeq	r0, r0, r0
    1320:	02000000 	andeq	r0, r0, #0
    1324:	f8000000 			; <UNDEFINED> instruction: 0xf8000000
    1328:	fc000090 	stc2	0, cr0, [r0], {144}	; 0x90
    132c:	02000090 	andeq	r0, r0, #144	; 0x90
    1330:	fc9f3000 	ldc2	0, cr3, [pc], {0}
    1334:	00000090 	muleq	r0, r0, r0
    1338:	01000091 	swpeq	r0, r1, [r0]	; <UNPREDICTABLE>
    133c:	00005000 	andeq	r5, r0, r0
	...
    1348:	00740000 	rsbseq	r0, r4, r0
    134c:	00800000 	addeq	r0, r0, r0
    1350:	00010000 	andeq	r0, r1, r0
    1354:	00008050 	andeq	r8, r0, r0, asr r0
    1358:	00008c00 	andeq	r8, r0, r0, lsl #24
    135c:	f3000400 	vshl.u8	d0, d0, d0
    1360:	009f5001 	addseq	r5, pc, r1
	...
    136c:	5c000000 	stcpl	0, cr0, [r0], {-0}
    1370:	68000000 	stmdavs	r0, {}	; <UNPREDICTABLE>
    1374:	01000000 	mrseq	r0, (UNDEF: 0)
    1378:	00685000 	rsbeq	r5, r8, r0
    137c:	00740000 	rsbseq	r0, r4, r0
    1380:	00040000 	andeq	r0, r4, r0
    1384:	9f5001f3 	svcls	0x005001f3
	...
    1394:	00000038 	andeq	r0, r0, r8, lsr r0
    1398:	00000043 	andeq	r0, r0, r3, asr #32
    139c:	43500001 	cmpmi	r0, #1
    13a0:	5c000000 	stcpl	0, cr0, [r0], {-0}
    13a4:	01000000 	mrseq	r0, (UNDEF: 0)
    13a8:	00005500 	andeq	r5, r0, r0, lsl #10
	...
    13b4:	00000048 	andeq	r0, r0, r8, asr #32
    13b8:	0000005c 	andeq	r0, r0, ip, asr r0
    13bc:	00540001 	subseq	r0, r4, r1
	...
    13c8:	00004c00 	andeq	r4, r0, r0, lsl #24
    13cc:	00005000 	andeq	r5, r0, r0
    13d0:	50000100 	andpl	r0, r0, r0, lsl #2
	...
    13dc:	00340000 	eorseq	r0, r4, r0
    13e0:	00380000 	eorseq	r0, r8, r0
    13e4:	00010000 	andeq	r0, r1, r0
    13e8:	00000050 	andeq	r0, r0, r0, asr r0
	...
    13f8:	00000400 	andeq	r0, r0, r0, lsl #8
    13fc:	50000100 	andpl	r0, r0, r0, lsl #2
    1400:	00000004 	andeq	r0, r0, r4
    1404:	00000018 	andeq	r0, r0, r8, lsl r0
    1408:	00530001 	subseq	r0, r3, r1
    140c:	00000000 	andeq	r0, r0, r0
    1410:	38000000 	stmdacc	r0, {}	; <UNPREDICTABLE>
    1414:	43000001 	movwmi	r0, #1
    1418:	01000001 	tsteq	r0, r1
    141c:	01435000 	mrseq	r5, (UNDEF: 67)
    1420:	01680000 	cmneq	r8, r0
    1424:	00010000 	andeq	r0, r1, r0
    1428:	00000054 	andeq	r0, r0, r4, asr r0
	...
    1434:	00000f00 	andeq	r0, r0, r0, lsl #30
    1438:	50000100 	andpl	r0, r0, r0, lsl #2
    143c:	0000000f 	andeq	r0, r0, pc
    1440:	00000020 	andeq	r0, r0, r0, lsr #32
    1444:	00540001 	subseq	r0, r4, r1
	...
    1450:	0f000000 	svceq	0x00000000
    1454:	01000000 	mrseq	r0, (UNDEF: 0)
    1458:	000f5100 	andeq	r5, pc, r0, lsl #2
    145c:	00200000 	eoreq	r0, r0, r0
    1460:	00010000 	andeq	r0, r1, r0
    1464:	00000055 	andeq	r0, r0, r5, asr r0
    1468:	00000000 	andeq	r0, r0, r0
    146c:	0000ec00 	andeq	lr, r0, r0, lsl #24
    1470:	00010400 	andeq	r0, r1, r0, lsl #8
    1474:	50000100 	andpl	r0, r0, r0, lsl #2
    1478:	00000104 	andeq	r0, r0, r4, lsl #2
    147c:	00000114 	andeq	r0, r0, r4, lsl r1
    1480:	01f30004 	mvnseq	r0, r4
    1484:	01149f50 	tsteq	r4, r0, asr pc
    1488:	01180000 	tsteq	r8, r0
    148c:	00010000 	andeq	r0, r1, r0
    1490:	00011850 	andeq	r1, r1, r0, asr r8
    1494:	00012000 	andeq	r2, r1, r0
    1498:	f3000400 	vshl.u8	d0, d0, d0
    149c:	009f5001 	addseq	r5, pc, r1
    14a0:	00000000 	andeq	r0, r0, r0
    14a4:	f8000000 			; <UNDEFINED> instruction: 0xf8000000
    14a8:	04000000 	streq	r0, [r0], #-0
    14ac:	0b000001 	bleq	14b8 <_start-0x6b48>
    14b0:	35007000 	strcc	r7, [r0, #-0]
    14b4:	80b42325 	adcshi	r2, r4, r5, lsr #6
    14b8:	9f028180 	svcls	0x00028180
    14bc:	00000104 	andeq	r0, r0, r4, lsl #2
    14c0:	00000107 	andeq	r0, r0, r7, lsl #2
    14c4:	07500001 	ldrbeq	r0, [r0, -r1]
    14c8:	14000001 	strne	r0, [r0], #-1
    14cc:	0c000001 	stceq	0, cr0, [r0], {1}
    14d0:	5001f300 	andpl	pc, r1, r0, lsl #6
    14d4:	b4232535 	strtlt	r2, [r3], #-1333	; 0xfffffacb
    14d8:	02818080 	addeq	r8, r1, #128	; 0x80
    14dc:	0000009f 	muleq	r0, pc, r0	; <UNPREDICTABLE>
    14e0:	00000000 	andeq	r0, r0, r0
    14e4:	0000fc00 	andeq	pc, r0, r0, lsl #24
    14e8:	00011400 	andeq	r1, r1, r0, lsl #8
    14ec:	54000100 	strpl	r0, [r0], #-256	; 0xffffff00
	...
    14f8:	000000d0 	ldrdeq	r0, [r0], -r0	; <UNPREDICTABLE>
    14fc:	000000df 	ldrdeq	r0, [r0], -pc	; <UNPREDICTABLE>
    1500:	df500001 	svcle	0x00500001
    1504:	e4000000 	str	r0, [r0], #-0
    1508:	04000000 	streq	r0, [r0], #-0
    150c:	5001f300 	andpl	pc, r1, r0, lsl #6
    1510:	0000e49f 	muleq	r0, pc, r4	; <UNPREDICTABLE>
    1514:	0000e700 	andeq	lr, r0, r0, lsl #14
    1518:	50000100 	andpl	r0, r0, r0, lsl #2
    151c:	000000e7 	andeq	r0, r0, r7, ror #1
    1520:	000000ec 	andeq	r0, r0, ip, ror #1
    1524:	01f30004 	mvnseq	r0, r4
    1528:	00009f50 	andeq	r9, r0, r0, asr pc
    152c:	00000000 	andeq	r0, r0, r0
    1530:	00d00000 	sbcseq	r0, r0, r0
    1534:	00df0000 	sbcseq	r0, pc, r0
    1538:	00010000 	andeq	r0, r1, r0
    153c:	0000df51 	andeq	sp, r0, r1, asr pc
    1540:	0000e400 	andeq	lr, r0, r0, lsl #8
    1544:	f3000400 	vshl.u8	d0, d0, d0
    1548:	e49f5101 	ldr	r5, [pc], #257	; 1550 <_start-0x6ab0>
    154c:	e7000000 	str	r0, [r0, -r0]
    1550:	01000000 	mrseq	r0, (UNDEF: 0)
    1554:	00e75100 	rsceq	r5, r7, r0, lsl #2
    1558:	00ec0000 	rsceq	r0, ip, r0
    155c:	00040000 	andeq	r0, r4, r0
    1560:	9f5101f3 	svcls	0x005101f3
	...
    156c:	000000c0 	andeq	r0, r0, r0, asr #1
    1570:	000000cb 	andeq	r0, r0, fp, asr #1
    1574:	cb500001 	blgt	1401580 <__bss_end__+0x13f7510>
    1578:	d0000000 	andle	r0, r0, r0
    157c:	04000000 	streq	r0, [r0], #-0
    1580:	5001f300 	andpl	pc, r1, r0, lsl #6
    1584:	0000009f 	muleq	r0, pc, r0	; <UNPREDICTABLE>
    1588:	00000000 	andeq	r0, r0, r0
    158c:	00009c00 	andeq	r9, r0, r0, lsl #24
    1590:	0000b400 	andeq	fp, r0, r0, lsl #8
    1594:	50000100 	andpl	r0, r0, r0, lsl #2
    1598:	000000b4 	strheq	r0, [r0], -r4
    159c:	000000c0 	andeq	r0, r0, r0, asr #1
    15a0:	01f30004 	mvnseq	r0, r4
    15a4:	00009f50 	andeq	r9, r0, r0, asr pc
    15a8:	00000000 	andeq	r0, r0, r0
    15ac:	00780000 	rsbseq	r0, r8, r0
    15b0:	00900000 	addseq	r0, r0, r0
    15b4:	00010000 	andeq	r0, r1, r0
    15b8:	00009050 	andeq	r9, r0, r0, asr r0
    15bc:	00009c00 	andeq	r9, r0, r0, lsl #24
    15c0:	f3000400 	vshl.u8	d0, d0, d0
    15c4:	009f5001 	addseq	r5, pc, r1
    15c8:	00000000 	andeq	r0, r0, r0
    15cc:	68000000 	stmdavs	r0, {}	; <UNPREDICTABLE>
    15d0:	73000000 	movwvc	r0, #0
    15d4:	01000000 	mrseq	r0, (UNDEF: 0)
    15d8:	00735000 	rsbseq	r5, r3, r0
    15dc:	00780000 	rsbseq	r0, r8, r0
    15e0:	00040000 	andeq	r0, r4, r0
    15e4:	9f5001f3 	svcls	0x005001f3
	...
    15f4:	00000048 	andeq	r0, r0, r8, asr #32
    15f8:	48500001 	ldmdami	r0, {r0}^
    15fc:	68000000 	stmdavs	r0, {}	; <UNPREDICTABLE>
    1600:	04000000 	streq	r0, [r0], #-0
    1604:	5001f300 	andpl	pc, r1, r0, lsl #6
    1608:	0000009f 	muleq	r0, pc, r0	; <UNPREDICTABLE>
	...
    1614:	00004b00 	andeq	r4, r0, r0, lsl #22
    1618:	51000100 	mrspl	r0, (UNDEF: 16)
    161c:	0000004b 	andeq	r0, r0, fp, asr #32
    1620:	00000068 	andeq	r0, r0, r8, rrx
    1624:	01f30004 	mvnseq	r0, r4
    1628:	00009f51 	andeq	r9, r0, r1, asr pc
    162c:	00000000 	andeq	r0, r0, r0
    1630:	004c0000 	subeq	r0, ip, r0
    1634:	00540000 	subseq	r0, r4, r0
    1638:	00010000 	andeq	r0, r1, r0
    163c:	00005450 	andeq	r5, r0, r0, asr r4
    1640:	00005800 	andeq	r5, r0, r0, lsl #16
    1644:	75000900 	strvc	r0, [r0, #-2304]	; 0xfffff700
    1648:	24007400 	strcs	r7, [r0], #-1024	; 0xfffffc00
    164c:	9f210071 	svcls	0x00210071
    1650:	00000058 	andeq	r0, r0, r8, asr r0
    1654:	0000005f 	andeq	r0, r0, pc, asr r0
    1658:	00510001 	subseq	r0, r1, r1
    165c:	00000000 	andeq	r0, r0, r0
    1660:	e0000000 	and	r0, r0, r0
    1664:	1b000000 	blne	166c <_start-0x6994>
    1668:	01000001 	tsteq	r0, r1
    166c:	011b5000 	tsteq	fp, r0
    1670:	01200000 			; <UNDEFINED> instruction: 0x01200000
    1674:	00040000 	andeq	r0, r4, r0
    1678:	9f5001f3 	svcls	0x005001f3
    167c:	00000120 	andeq	r0, r0, r0, lsr #2
    1680:	00000123 	andeq	r0, r0, r3, lsr #2
    1684:	23500001 	cmpcs	r0, #1
    1688:	3c000001 	stccc	0, cr0, [r0], {1}
    168c:	04000001 	streq	r0, [r0], #-1
    1690:	5001f300 	andpl	pc, r1, r0, lsl #6
    1694:	00013c9f 	muleq	r1, pc, ip	; <UNPREDICTABLE>
    1698:	00013f00 	andeq	r3, r1, r0, lsl #30
    169c:	50000100 	andpl	r0, r0, r0, lsl #2
    16a0:	0000013f 	andeq	r0, r0, pc, lsr r1
    16a4:	0000016c 	andeq	r0, r0, ip, ror #2
    16a8:	01f30004 	mvnseq	r0, r4
    16ac:	00009f50 	andeq	r9, r0, r0, asr pc
    16b0:	00000000 	andeq	r0, r0, r0
    16b4:	00e00000 	rsceq	r0, r0, r0
    16b8:	01080000 	mrseq	r0, (UNDEF: 8)
    16bc:	00010000 	andeq	r0, r1, r0
    16c0:	00010851 	andeq	r0, r1, r1, asr r8
    16c4:	00011b00 	andeq	r1, r1, r0, lsl #22
    16c8:	71000300 	mrsvc	r0, LR_irq
    16cc:	011b9f01 	tsteq	fp, r1, lsl #30
    16d0:	01200000 			; <UNDEFINED> instruction: 0x01200000
    16d4:	00040000 	andeq	r0, r4, r0
    16d8:	9f5101f3 	svcls	0x005101f3
    16dc:	00000120 	andeq	r0, r0, r0, lsr #2
    16e0:	00000123 	andeq	r0, r0, r3, lsr #2
    16e4:	23510001 	cmpcs	r1, #1
    16e8:	6c000001 	stcvs	0, cr0, [r0], {1}
    16ec:	04000001 	streq	r0, [r0], #-1
    16f0:	5101f300 	mrspl	pc, SP_irq	; <UNPREDICTABLE>
    16f4:	0000009f 	muleq	r0, pc, r0	; <UNPREDICTABLE>
    16f8:	00000000 	andeq	r0, r0, r0
    16fc:	0000f800 	andeq	pc, r0, r0, lsl #16
    1700:	0000fc00 	andeq	pc, r0, r0, lsl #24
    1704:	52000100 	andpl	r0, r0, #0, 2
    1708:	000000fc 	strdeq	r0, [r0], -ip
    170c:	00000104 	andeq	r0, r0, r4, lsl #2
    1710:	94030005 	strls	r0, [r3], #-5
    1714:	04000096 	streq	r0, [r0], #-150	; 0xffffff6a
    1718:	1b000001 	blne	1724 <_start-0x68dc>
    171c:	01000001 	tsteq	r0, r1
    1720:	013c5300 	teqeq	ip, r0, lsl #6
    1724:	013f0000 	teqeq	pc, r0
    1728:	00010000 	andeq	r0, r1, r0
    172c:	00000053 	andeq	r0, r0, r3, asr r0
    1730:	00000000 	andeq	r0, r0, r0
    1734:	00006c00 	andeq	r6, r0, r0, lsl #24
    1738:	00008000 	andeq	r8, r0, r0
    173c:	50000100 	andpl	r0, r0, r0, lsl #2
    1740:	00000080 	andeq	r0, r0, r0, lsl #1
    1744:	0000009b 	muleq	r0, fp, r0
    1748:	9b520001 	blls	1481754 <__bss_end__+0x14776e4>
    174c:	a4000000 	strge	r0, [r0], #-0
    1750:	09000000 	stmdbeq	r0, {}	; <UNPREDICTABLE>
    1754:	5001f300 	andpl	pc, r1, r0, lsl #6
    1758:	f8090723 			; <UNDEFINED> instruction: 0xf8090723
    175c:	00a49f1a 	adceq	r9, r4, sl, lsl pc
    1760:	00a70000 	adceq	r0, r7, r0
    1764:	00010000 	andeq	r0, r1, r0
    1768:	0000a750 	andeq	sl, r0, r0, asr r7
    176c:	0000d000 	andeq	sp, r0, r0
    1770:	f3000400 	vshl.u8	d0, d0, d0
    1774:	009f5001 	addseq	r5, pc, r1
    1778:	00000000 	andeq	r0, r0, r0
    177c:	88000000 	stmdahi	r0, {}	; <UNPREDICTABLE>
    1780:	a4000000 	strge	r0, [r0], #-0
    1784:	01000000 	mrseq	r0, (UNDEF: 0)
    1788:	00005400 	andeq	r5, r0, r0, lsl #8
    178c:	00000000 	andeq	r0, r0, r0
    1790:	001c0000 	andseq	r0, ip, r0
    1794:	00430000 	subeq	r0, r3, r0
    1798:	00010000 	andeq	r0, r1, r0
    179c:	00004350 	andeq	r4, r0, r0, asr r3
    17a0:	00006c00 	andeq	r6, r0, r0, lsl #24
    17a4:	f3000400 	vshl.u8	d0, d0, d0
    17a8:	009f5001 	addseq	r5, pc, r1
    17ac:	00000000 	andeq	r0, r0, r0
    17b0:	1c000000 	stcne	0, cr0, [r0], {-0}
    17b4:	43000000 	movwmi	r0, #0
    17b8:	01000000 	mrseq	r0, (UNDEF: 0)
    17bc:	00435000 	subeq	r5, r3, r0
    17c0:	006c0000 	rsbeq	r0, ip, r0
    17c4:	00040000 	andeq	r0, r4, r0
    17c8:	9f5001f3 	svcls	0x005001f3
	...

Disassembly of section .debug_aranges:

00000000 <.debug_aranges>:
   0:	0000001c 	andeq	r0, r0, ip, lsl r0
   4:	00000002 	andeq	r0, r0, r2
   8:	00040000 	andeq	r0, r4, r0
   c:	00000000 	andeq	r0, r0, r0
  10:	00008010 	andeq	r8, r0, r0, lsl r0
  14:	000000d0 	ldrdeq	r0, [r0], -r0	; <UNPREDICTABLE>
	...
  20:	0000001c 	andeq	r0, r0, ip, lsl r0
  24:	0b6c0002 	bleq	1b00034 <__bss_end__+0x1af5fc4>
  28:	00040000 	andeq	r0, r4, r0
  2c:	00000000 	andeq	r0, r0, r0
  30:	000080e0 	andeq	r8, r0, r0, ror #1
  34:	000008d8 	ldrdeq	r0, [r0], -r8
	...
  40:	0000001c 	andeq	r0, r0, ip, lsl r0
  44:	25a20002 	strcs	r0, [r2, #2]!
  48:	00040000 	andeq	r0, r4, r0
  4c:	00000000 	andeq	r0, r0, r0
  50:	000089b8 			; <UNDEFINED> instruction: 0x000089b8
  54:	000000ec 	andeq	r0, r0, ip, ror #1
	...
  60:	0000001c 	andeq	r0, r0, ip, lsl r0
  64:	2fa40002 	svccs	0x00a40002
  68:	00040000 	andeq	r0, r4, r0
  6c:	00000000 	andeq	r0, r0, r0
  70:	00008aa4 	andeq	r8, r0, r4, lsr #21
  74:	00000018 	andeq	r0, r0, r8, lsl r0
	...
  80:	0000001c 	andeq	r0, r0, ip, lsl r0
  84:	39240002 	stmdbcc	r4!, {r1}
  88:	00040000 	andeq	r0, r4, r0
  8c:	00000000 	andeq	r0, r0, r0
  90:	00008abc 			; <UNDEFINED> instruction: 0x00008abc
  94:	00000058 	andeq	r0, r0, r8, asr r0
	...
  a0:	0000001c 	andeq	r0, r0, ip, lsl r0
  a4:	43530002 	cmpmi	r3, #2
  a8:	00040000 	andeq	r0, r4, r0
  ac:	00000000 	andeq	r0, r0, r0
  b0:	00008b14 	andeq	r8, r0, r4, lsl fp
  b4:	0000003c 	andeq	r0, r0, ip, lsr r0
	...
  c0:	0000001c 	andeq	r0, r0, ip, lsl r0
  c4:	4d300002 	ldcmi	0, cr0, [r0, #-8]!
  c8:	00040000 	andeq	r0, r4, r0
  cc:	00000000 	andeq	r0, r0, r0
  d0:	00008b50 	andeq	r8, r0, r0, asr fp
  d4:	00000034 	andeq	r0, r0, r4, lsr r0
	...
  e0:	0000001c 	andeq	r0, r0, ip, lsl r0
  e4:	56b70002 	ldrtpl	r0, [r7], r2
  e8:	00040000 	andeq	r0, r4, r0
  ec:	00000000 	andeq	r0, r0, r0
  f0:	00008b84 	andeq	r8, r0, r4, lsl #23
  f4:	00000520 	andeq	r0, r0, r0, lsr #10
	...
 100:	0000001c 	andeq	r0, r0, ip, lsl r0
 104:	665b0002 	ldrbvs	r0, [fp], -r2
 108:	00040000 	andeq	r0, r4, r0
 10c:	00000000 	andeq	r0, r0, r0
 110:	000090a4 	andeq	r9, r0, r4, lsr #1
 114:	00000028 	andeq	r0, r0, r8, lsr #32
	...
 120:	0000001c 	andeq	r0, r0, ip, lsl r0
 124:	700a0002 	andvc	r0, sl, r2
 128:	00040000 	andeq	r0, r4, r0
 12c:	00000000 	andeq	r0, r0, r0
 130:	000090cc 	andeq	r9, r0, ip, asr #1
 134:	0000002c 	andeq	r0, r0, ip, lsr #32
	...
 140:	0000001c 	andeq	r0, r0, ip, lsl r0
 144:	79e10002 	stmibvc	r1!, {r1}^
 148:	00040000 	andeq	r0, r4, r0
 14c:	00000000 	andeq	r0, r0, r0
 150:	000090f8 	strdeq	r9, [r0], -r8
 154:	00000078 	andeq	r0, r0, r8, ror r0
	...
 160:	0000001c 	andeq	r0, r0, ip, lsl r0
 164:	84800002 	strhi	r0, [r0], #2
 168:	00040000 	andeq	r0, r4, r0
 16c:	00000000 	andeq	r0, r0, r0
 170:	00009170 	andeq	r9, r0, r0, ror r1
 174:	0000008c 	andeq	r0, r0, ip, lsl #1
	...
 180:	0000001c 	andeq	r0, r0, ip, lsl r0
 184:	8f6e0002 	svchi	0x006e0002
 188:	00040000 	andeq	r0, r4, r0
 18c:	00000000 	andeq	r0, r0, r0
 190:	00009248 	andeq	r9, r0, r8, asr #4
 194:	00000178 	andeq	r0, r0, r8, ror r1
	...
 1a0:	0000001c 	andeq	r0, r0, ip, lsl r0
 1a4:	9c370002 	ldcls	0, cr0, [r7], #-8
 1a8:	00040000 	andeq	r0, r4, r0
 1ac:	00000000 	andeq	r0, r0, r0
 1b0:	000093c0 	andeq	r9, r0, r0, asr #7
 1b4:	00000120 	andeq	r0, r0, r0, lsr #2
	...
 1c0:	0000001c 	andeq	r0, r0, ip, lsl r0
 1c4:	a7ab0002 	strge	r0, [fp, r2]!
 1c8:	00040000 	andeq	r0, r4, r0
 1cc:	00000000 	andeq	r0, r0, r0
 1d0:	000094e0 	andeq	r9, r0, r0, ror #9
 1d4:	00000194 	muleq	r0, r4, r1
	...

Disassembly of section .debug_line:

00000000 <.debug_line>:
       0:	00000147 	andeq	r0, r0, r7, asr #2
       4:	00fa0003 	rscseq	r0, sl, r3
       8:	01020000 	mrseq	r0, (UNDEF: 2)
       c:	000d0efb 	strdeq	r0, [sp], -fp
      10:	01010101 	tsteq	r1, r1, lsl #2
      14:	01000000 	mrseq	r0, (UNDEF: 0)
      18:	2f010000 	svccs	0x00010000
      1c:	2f727375 	svccs	0x00727375
      20:	2d6d7261 	sfmcs	f7, 2, [sp, #-388]!	; 0xfffffe7c
      24:	656e6f6e 	strbvs	r6, [lr, #-3950]!	; 0xfffff092
      28:	6261652d 	rsbvs	r6, r1, #188743680	; 0xb400000
      2c:	6e692f69 	cdpvs	15, 6, cr2, cr9, cr9, {3}
      30:	64756c63 	ldrbtvs	r6, [r5], #-3171	; 0xfffff39d
      34:	79732f65 	ldmdbvc	r3!, {r0, r2, r5, r6, r8, r9, sl, fp, sp}^
      38:	752f0073 	strvc	r0, [pc, #-115]!	; ffffffcd <__bss_end__+0xffff5f5d>
      3c:	6c2f7273 	sfmvs	f7, 4, [pc], #-460	; fffffe78 <__bss_end__+0xffff5e08>
      40:	672f6269 	strvs	r6, [pc, -r9, ror #4]!
      44:	612f6363 			; <UNDEFINED> instruction: 0x612f6363
      48:	6e2d6d72 	mcrvs	13, 1, r6, cr13, cr2, {3}
      4c:	2d656e6f 	stclcs	14, cr6, [r5, #-444]!	; 0xfffffe44
      50:	69626165 	stmdbvs	r2!, {r0, r2, r5, r6, r8, sp, lr}^
      54:	322e392f 	eorcc	r3, lr, #770048	; 0xbc000
      58:	692f302e 	stmdbvs	pc!, {r1, r2, r3, r5, ip, sp}	; <UNPREDICTABLE>
      5c:	756c636e 	strbvc	r6, [ip, #-878]!	; 0xfffffc92
      60:	2f006564 	svccs	0x00006564
      64:	656d6f68 	strbvs	r6, [sp, #-3944]!	; 0xfffff098
      68:	6573752f 	ldrbvs	r7, [r3, #-1327]!	; 0xfffffad1
      6c:	65442f72 	strbvs	r2, [r4, #-3954]	; 0xfffff08e
      70:	53432f76 	movtpl	r2, #16246	; 0x3f76
      74:	58303432 	ldmdapl	r0!, {r1, r4, r5, sl, ip, sp}
      78:	62696c2f 	rsbvs	r6, r9, #12032	; 0x2f00
      7c:	692f6970 	stmdbvs	pc!, {r4, r5, r6, r8, fp, sp, lr}	; <UNPREDICTABLE>
      80:	756c636e 	strbvc	r6, [ip, #-878]!	; 0xfffffc92
      84:	2f006564 	svccs	0x00006564
      88:	2f727375 	svccs	0x00727375
      8c:	2d6d7261 	sfmcs	f7, 2, [sp, #-388]!	; 0xfffffe7c
      90:	656e6f6e 	strbvs	r6, [lr, #-3950]!	; 0xfffff092
      94:	6261652d 	rsbvs	r6, r1, #188743680	; 0xb400000
      98:	6e692f69 	cdpvs	15, 6, cr2, cr9, cr9, {3}
      9c:	64756c63 	ldrbtvs	r6, [r5], #-3171	; 0xfffff39d
      a0:	70000065 	andvc	r0, r0, r5, rrx
      a4:	31747261 	cmncc	r4, r1, ror #4
      a8:	7365742d 	cmnvc	r5, #754974720	; 0x2d000000
      ac:	632e3374 			; <UNDEFINED> instruction: 0x632e3374
      b0:	00000000 	andeq	r0, r0, r0
      b4:	6b636f6c 	blvs	18dbe6c <__bss_end__+0x18d1dfc>
      b8:	0100682e 	tsteq	r0, lr, lsr #16
      bc:	745f0000 	ldrbvc	r0, [pc], #-0	; c4 <_start-0x7f3c>
      c0:	73657079 	cmnvc	r5, #121	; 0x79
      c4:	0100682e 	tsteq	r0, lr, lsr #16
      c8:	74730000 	ldrbtvc	r0, [r3], #-0
      cc:	66656464 	strbtvs	r6, [r5], -r4, ror #8
      d0:	0200682e 	andeq	r6, r0, #3014656	; 0x2e0000
      d4:	65720000 	ldrbvs	r0, [r2, #-0]!
      d8:	2e746e65 	cdpcs	14, 7, cr6, cr4, cr5, {3}
      dc:	00010068 	andeq	r0, r1, r8, rrx
      e0:	69707200 	ldmdbvs	r0!, {r9, ip, sp, lr}^
      e4:	0300682e 	movweq	r6, #2094	; 0x82e
      e8:	6b630000 	blvs	18c00f0 <__bss_end__+0x18b6080>
      ec:	6f6c6c61 	svcvs	0x006c6c61
      f0:	00682e63 	rsbeq	r2, r8, r3, ror #28
      f4:	73000000 	movwvc	r0, #0
      f8:	6e697274 	mcrvs	2, 3, r7, cr9, cr4, {3}
      fc:	00682e67 	rsbeq	r2, r8, r7, ror #28
     100:	00000004 	andeq	r0, r0, r4
     104:	05001405 	streq	r1, [r0, #-1029]	; 0xfffffbfb
     108:	00801002 	addeq	r1, r0, r2
     10c:	05051600 	streq	r1, [r5, #-1536]	; 0xfffffa00
     110:	134b4d4b 	movtne	r4, #48459	; 0xbd4b
     114:	060f0584 	streq	r0, [pc], -r4, lsl #11
     118:	06050501 	streq	r0, [r5], -r1, lsl #10
     11c:	05a067f3 	streq	r6, [r0, #2035]!	; 0x7f3
     120:	0501060a 	streq	r0, [r1, #-1546]	; 0xfffff9f6
     124:	134b0605 	movtne	r0, #46597	; 0xb605
     128:	01061005 	tsteq	r6, r5
     12c:	052e0705 	streq	r0, [lr, #-1797]!	; 0xfffff8fb
     130:	144b0609 	strbne	r0, [fp], #-1545	; 0xfffff9f7
     134:	062e0601 	strteq	r0, [lr], -r1, lsl #12
     138:	01054a2e 	tsteq	r5, lr, lsr #20
     13c:	054a1306 	strbeq	r1, [sl, #-774]	; 0xfffffcfa
     140:	012b0609 			; <UNDEFINED> instruction: 0x012b0609
     144:	0e02ba2e 	vmlaeq.f32	s22, s4, s29
     148:	88010100 	stmdahi	r1, {r8}
     14c:	03000007 	movweq	r0, #7
     150:	00013700 	andeq	r3, r1, r0, lsl #14
     154:	fb010200 	blx	4095e <__bss_end__+0x368ee>
     158:	01000d0e 	tsteq	r0, lr, lsl #26
     15c:	00010101 	andeq	r0, r1, r1, lsl #2
     160:	00010000 	andeq	r0, r1, r0
     164:	752f0100 	strvc	r0, [pc, #-256]!	; 6c <_start-0x7f94>
     168:	6c2f7273 	sfmvs	f7, 4, [pc], #-460	; ffffffa4 <__bss_end__+0xffff5f34>
     16c:	672f6269 	strvs	r6, [pc, -r9, ror #4]!
     170:	612f6363 			; <UNDEFINED> instruction: 0x612f6363
     174:	6e2d6d72 	mcrvs	13, 1, r6, cr13, cr2, {3}
     178:	2d656e6f 	stclcs	14, cr6, [r5, #-444]!	; 0xfffffe44
     17c:	69626165 	stmdbvs	r2!, {r0, r2, r5, r6, r8, sp, lr}^
     180:	322e392f 	eorcc	r3, lr, #770048	; 0xbc000
     184:	692f302e 	stmdbvs	pc!, {r1, r2, r3, r5, ip, sp}	; <UNPREDICTABLE>
     188:	756c636e 	strbvc	r6, [ip, #-878]!	; 0xfffffc92
     18c:	2f006564 	svccs	0x00006564
     190:	2f727375 	svccs	0x00727375
     194:	2d6d7261 	sfmcs	f7, 2, [sp, #-388]!	; 0xfffffe7c
     198:	656e6f6e 	strbvs	r6, [lr, #-3950]!	; 0xfffff092
     19c:	6261652d 	rsbvs	r6, r1, #188743680	; 0xb400000
     1a0:	6e692f69 	cdpvs	15, 6, cr2, cr9, cr9, {3}
     1a4:	64756c63 	ldrbtvs	r6, [r5], #-3171	; 0xfffff39d
     1a8:	79732f65 	ldmdbvc	r3!, {r0, r2, r5, r6, r8, r9, sl, fp, sp}^
     1ac:	682f0073 	stmdavs	pc!, {r0, r1, r4, r5, r6}	; <UNPREDICTABLE>
     1b0:	2f656d6f 	svccs	0x00656d6f
     1b4:	72657375 	rsbvc	r7, r5, #-738197503	; 0xd4000001
     1b8:	7665442f 	strbtvc	r4, [r5], -pc, lsr #8
     1bc:	3253432f 	subscc	r4, r3, #-1140850688	; 0xbc000000
     1c0:	2f583034 	svccs	0x00583034
     1c4:	7062696c 	rsbvc	r6, r2, ip, ror #18
     1c8:	6e692f69 	cdpvs	15, 6, cr2, cr9, cr9, {3}
     1cc:	64756c63 	ldrbtvs	r6, [r5], #-3171	; 0xfffff39d
     1d0:	752f0065 	strvc	r0, [pc, #-101]!	; 173 <_start-0x7e8d>
     1d4:	612f7273 			; <UNDEFINED> instruction: 0x612f7273
     1d8:	6e2d6d72 	mcrvs	13, 1, r6, cr13, cr2, {3}
     1dc:	2d656e6f 	stclcs	14, cr6, [r5, #-444]!	; 0xfffffe44
     1e0:	69626165 	stmdbvs	r2!, {r0, r2, r5, r6, r8, sp, lr}^
     1e4:	636e692f 	cmnvs	lr, #770048	; 0xbc000
     1e8:	6564756c 	strbvs	r7, [r4, #-1388]!	; 0xfffffa94
     1ec:	6f682f00 	svcvs	0x00682f00
     1f0:	752f656d 	strvc	r6, [pc, #-1389]!	; fffffc8b <__bss_end__+0xffff5c1b>
     1f4:	2f726573 	svccs	0x00726573
     1f8:	2f766544 	svccs	0x00766544
     1fc:	34325343 	ldrtcc	r5, [r2], #-835	; 0xfffffcbd
     200:	6c2f5830 	stcvs	8, cr5, [pc], #-192	; 148 <_start-0x7eb8>
     204:	69706269 	ldmdbvs	r0!, {r0, r3, r5, r6, r9, sp, lr}^
     208:	62696c2f 	rsbvs	r6, r9, #12032	; 0x2f00
     20c:	63000063 	movwvs	r0, #99	; 0x63
     210:	6c6c616b 	stfvse	f6, [ip], #-428	; 0xfffffe54
     214:	632e636f 			; <UNDEFINED> instruction: 0x632e636f
     218:	00000000 	andeq	r0, r0, r0
     21c:	6c616b63 			; <UNDEFINED> instruction: 0x6c616b63
     220:	2e636f6c 	cdpcs	15, 6, cr6, cr3, cr12, {3}
     224:	00000068 	andeq	r0, r0, r8, rrx
     228:	64747300 	ldrbtvs	r7, [r4], #-768	; 0xfffffd00
     22c:	2d746e69 	ldclcs	14, cr6, [r4, #-420]!	; 0xfffffe5c
     230:	2e636367 	cdpcs	3, 6, cr6, cr3, cr7, {3}
     234:	00010068 	andeq	r0, r1, r8, rrx
     238:	636f6c00 	cmnvs	pc, #0, 24
     23c:	00682e6b 	rsbeq	r2, r8, fp, ror #28
     240:	5f000002 	svcpl	0x00000002
     244:	65707974 	ldrbvs	r7, [r0, #-2420]!	; 0xfffff68c
     248:	00682e73 	rsbeq	r2, r8, r3, ror lr
     24c:	73000002 	movwvc	r0, #2
     250:	65646474 	strbvs	r6, [r4, #-1140]!	; 0xfffffb8c
     254:	00682e66 	rsbeq	r2, r8, r6, ror #28
     258:	72000001 	andvc	r0, r0, #1
     25c:	746e6565 	strbtvc	r6, [lr], #-1381	; 0xfffffa9b
     260:	0200682e 	andeq	r6, r0, #3014656	; 0x2e0000
     264:	70720000 	rsbsvc	r0, r2, r0
     268:	00682e69 	rsbeq	r2, r8, r9, ror #28
     26c:	73000003 	movwvc	r0, #3
     270:	6e697274 	mcrvs	2, 3, r7, cr9, cr4, {3}
     274:	00682e67 	rsbeq	r2, r8, r7, ror #28
     278:	6c000004 	stcvs	0, cr0, [r0], {4}
     27c:	2d636269 	sfmcs	f6, 2, [r3, #-420]!	; 0xfffffe5c
     280:	72747865 	rsbsvc	r7, r4, #6619136	; 0x650000
     284:	00682e61 	rsbeq	r2, r8, r1, ror #28
     288:	00000005 	andeq	r0, r0, r5
     28c:	05002205 	streq	r2, [r0, #-517]	; 0xfffffdfb
     290:	0080e002 	addeq	lr, r0, r2
     294:	01120300 	tsteq	r2, r0, lsl #6
     298:	05012405 	streq	r2, [r1, #-1029]	; 0xfffffbfb
     29c:	2e010601 	cfmadd32cs	mvax0, mvfx0, mvfx1, mvfx1
     2a0:	30062405 	andcc	r2, r6, r5, lsl #8
     2a4:	26050106 	strcs	r0, [r5], -r6, lsl #2
     2a8:	2d052e06 	stccs	14, cr2, [r5, #-24]	; 0xffffffe8
     2ac:	01050106 	tsteq	r5, r6, lsl #2
     2b0:	0622052e 	strteq	r0, [r2], -lr, lsr #10
     2b4:	0501064c 	streq	r0, [r1, #-1612]	; 0xfffff9b4
     2b8:	054a0624 	strbeq	r0, [sl, #-1572]	; 0xfffff9dc
     2bc:	0501062b 	streq	r0, [r1, #-1579]	; 0xfffff9d5
     2c0:	01052e3d 	tsteq	r5, sp, lsr lr
     2c4:	0628052e 	strteq	r0, [r8], -lr, lsr #10
     2c8:	012a054c 			; <UNDEFINED> instruction: 0x012a054c
     2cc:	01063c05 	tsteq	r6, r5, lsl #24
     2d0:	052e0105 	streq	r0, [lr, #-261]!	; 0xfffffefb
     2d4:	054d0629 	strbeq	r0, [sp, #-1577]	; 0xfffff9d7
     2d8:	01051305 	tsteq	r5, r5, lsl #6
     2dc:	052e1306 	streq	r1, [lr, #-774]!	; 0xfffffcfa
     2e0:	23030642 	movwcs	r0, #13890	; 0x3642
     2e4:	0501062e 	streq	r0, [r1, #-1582]	; 0xfffff9d2
     2e8:	13670605 	cmnne	r7, #5242880	; 0x500000
     2ec:	01060b05 	tsteq	r6, r5, lsl #22
     2f0:	02001005 	andeq	r1, r0, #5
     2f4:	2e060104 	adfcss	f0, f6, f4
     2f8:	02000505 	andeq	r0, r0, #20971520	; 0x1400000
     2fc:	01060104 	tsteq	r6, r4, lsl #2
     300:	4b060905 	blmi	18271c <__bss_end__+0x1786ac>
     304:	01060d05 	tsteq	r6, r5, lsl #26
     308:	052e0b05 	streq	r0, [lr, #-2821]!	; 0xfffff4fb
     30c:	0402001c 	streq	r0, [r2], #-28	; 0xffffffe4
     310:	052d0602 	streq	r0, [sp, #-1538]!	; 0xfffff9fe
     314:	0402001d 	streq	r0, [r2], #-29	; 0xffffffe3
     318:	00010602 	andeq	r0, r1, r2, lsl #12
     31c:	2e020402 	cdpcs	4, 0, cr0, cr2, cr2, {0}
     320:	30060d05 	andcc	r0, r6, r5, lsl #26
     324:	01062405 	tsteq	r6, r5, lsl #8
     328:	2e1a052e 	cfmul64cs	mvdx0, mvdx10, mvdx14
     32c:	052e1105 	streq	r1, [lr, #-261]!	; 0xfffffefb
     330:	012f060d 			; <UNDEFINED> instruction: 0x012f060d
     334:	014a6601 	cmpeq	sl, r1, lsl #12
     338:	05020482 	streq	r0, [r2, #-1154]	; 0xfffffb7e
     33c:	010f0314 	tsteq	pc, r4, lsl r3	; <UNPREDICTABLE>
     340:	01130505 	tsteq	r3, r5, lsl #10
     344:	1313664a 	tstne	r3, #77594624	; 0x4a00000
     348:	01060905 	tsteq	r6, r5, lsl #18
     34c:	052e0705 	streq	r0, [lr, #-1797]!	; 0xfffff8fb
     350:	014b0609 	cmpeq	fp, r9, lsl #12
     354:	05059e4a 	streq	r9, [r5, #-3658]	; 0xfffff1b6
     358:	09051314 	stmdbeq	r5, {r2, r4, r8, r9, ip}
     35c:	07050106 	streq	r0, [r5, -r6, lsl #2]
     360:	0609052e 	streq	r0, [r9], -lr, lsr #10
     364:	0401064b 	streq	r0, [r1], #-1611	; 0xfffff9b5
     368:	060d0501 	streq	r0, [sp], -r1, lsl #10
     36c:	13016903 	movwne	r6, #6403	; 0x1903
     370:	134a4a01 	movtne	r4, #43521	; 0xaa01
     374:	01061405 	tsteq	r6, r5, lsl #8
     378:	1e050204 	cdpne	2, 0, cr0, cr5, cr4, {0}
     37c:	054a1403 	strbeq	r1, [sl, #-1027]	; 0xfffffbfd
     380:	09052e1a 	stmdbeq	r5, {r1, r3, r4, r9, sl, fp, sp}
     384:	4a014b06 	bmi	52fa4 <__bss_end__+0x48f34>
     388:	0104ba06 	tsteq	r4, r6, lsl #20
     38c:	6f030c05 	svcvs	0x00030c05
     390:	2f010501 	svccs	0x00010501
     394:	f4063005 	vst4.8	{d3-d6}, [r6], r5
     398:	05050106 	streq	r0, [r5, #-262]	; 0xfffffefa
     39c:	2e064b06 	vmlacs.f64	d4, d6, d6
     3a0:	052f0105 	streq	r0, [pc, #-261]!	; 2a3 <_start-0x7d5d>
     3a4:	50030625 	andpl	r0, r3, r5, lsr #12
     3a8:	0501062e 	streq	r0, [r1, #-1582]	; 0xfffff9d2
     3ac:	054b0605 	strbeq	r0, [fp, #-1541]	; 0xfffff9fb
     3b0:	0501060e 	streq	r0, [r1, #-1550]	; 0xfffff9f2
     3b4:	052f0605 	streq	r0, [pc, #-1541]!	; fffffdb7 <__bss_end__+0xffff5d47>
     3b8:	0501060e 	streq	r0, [r1, #-1550]	; 0xfffff9f2
     3bc:	054b0605 	strbeq	r0, [fp, #-1541]	; 0xfffff9fb
     3c0:	05010616 	streq	r0, [r1, #-1558]	; 0xfffff9ea
     3c4:	054b0605 	strbeq	r0, [fp, #-1541]	; 0xfffff9fb
     3c8:	0501060e 	streq	r0, [r1, #-1550]	; 0xfffff9f2
     3cc:	052f0605 	streq	r0, [pc, #-1541]!	; fffffdcf <__bss_end__+0xffff5d5f>
     3d0:	05130601 	ldreq	r0, [r3, #-1537]	; 0xfffff9ff
     3d4:	06310620 	ldrteq	r0, [r1], -r0, lsr #12
     3d8:	06050501 	streq	r0, [r5], -r1, lsl #10
     3dc:	060c054b 	streq	r0, [ip], -fp, asr #10
     3e0:	2e1f0501 	cfmul32cs	mvfx0, mvfx15, mvfx1
     3e4:	052e0905 	streq	r0, [lr, #-2309]!	; 0xfffff6fb
     3e8:	04020039 	streq	r0, [r2], #-57	; 0xffffffc7
     3ec:	44054a01 	strmi	r4, [r5], #-2561	; 0xfffff5ff
     3f0:	01040200 	mrseq	r0, R12_usr
     3f4:	0035052e 	eorseq	r0, r5, lr, lsr #10
     3f8:	2e010402 	cdpcs	4, 0, cr0, cr1, cr2, {0}
     3fc:	4c060905 			; <UNDEFINED> instruction: 0x4c060905
     400:	4a660101 	bmi	198080c <__bss_end__+0x197679c>
     404:	02048201 	andeq	r8, r4, #268435456	; 0x10000000
     408:	28031405 	stmdacs	r3, {r0, r2, sl, ip}
     40c:	13050501 	movwne	r0, #21761	; 0x5501
     410:	13664a01 	cmnne	r6, #4096	; 0x1000
     414:	06090513 			; <UNDEFINED> instruction: 0x06090513
     418:	2e070501 	cfsh32cs	mvfx0, mvfx7, #1
     41c:	4b060905 	blmi	182838 <__bss_end__+0x1787c8>
     420:	059e4a01 	ldreq	r4, [lr, #2561]	; 0xa01
     424:	05131405 	ldreq	r1, [r3, #-1029]	; 0xfffffbfb
     428:	05010609 	streq	r0, [r1, #-1545]	; 0xfffff9f7
     42c:	09052e07 	stmdbeq	r5, {r0, r1, r2, r9, sl, fp, sp}
     430:	01044b06 	tsteq	r4, r6, lsl #22
     434:	03061005 	movweq	r1, #24581	; 0x6005
     438:	02040151 	andeq	r0, r4, #1073741844	; 0x40000014
     43c:	30030105 	andcc	r0, r3, r5, lsl #2
     440:	2c1e052e 	cfldr32cs	mvfx0, [lr], {46}	; 0x2e
     444:	052e1a05 	streq	r1, [lr, #-2565]!	; 0xfffff5fb
     448:	014b0609 	cmpeq	fp, r9, lsl #12
     44c:	04ba064a 	ldrteq	r0, [sl], #1610	; 0x64a
     450:	030c0501 	movweq	r0, #50433	; 0xc501
     454:	01050154 	tsteq	r5, r4, asr r1
     458:	063a052f 	ldrteq	r0, [sl], -pc, lsr #10
     45c:	050106d8 	streq	r0, [r1, #-1752]	; 0xfffff928
     460:	13670605 	cmnne	r7, #5242880	; 0x500000
     464:	01060b05 	tsteq	r6, r5, lsl #22
     468:	02001005 	andeq	r1, r0, #5
     46c:	2e060104 	adfcss	f0, f6, f4
     470:	02000505 	andeq	r0, r0, #20971520	; 0x1400000
     474:	01060104 	tsteq	r6, r4, lsl #2
     478:	4b060905 	blmi	182894 <__bss_end__+0x178824>
     47c:	01060d05 	tsteq	r6, r5, lsl #26
     480:	052e0b05 	streq	r0, [lr, #-2821]!	; 0xfffff4fb
     484:	0402001c 	streq	r0, [r2], #-28	; 0xffffffe4
     488:	052d0602 	streq	r0, [sp, #-1538]!	; 0xfffff9fe
     48c:	0402001d 	streq	r0, [r2], #-29	; 0xffffffe3
     490:	00010602 	andeq	r0, r1, r2, lsl #12
     494:	2e020402 	cdpcs	4, 0, cr0, cr2, cr2, {0}
     498:	30060d05 	andcc	r0, r6, r5, lsl #26
     49c:	01062405 	tsteq	r6, r5, lsl #8
     4a0:	2e1a052e 	cfmul64cs	mvdx0, mvdx10, mvdx14
     4a4:	052e1105 	streq	r1, [lr, #-261]!	; 0xfffffefb
     4a8:	012f060d 			; <UNDEFINED> instruction: 0x012f060d
     4ac:	014a6601 	cmpeq	sl, r1, lsl #12
     4b0:	0502049e 	streq	r0, [r2, #-1182]	; 0xfffffb62
     4b4:	011c0314 	tsteq	ip, r4, lsl r3
     4b8:	01130505 	tsteq	r3, r5, lsl #10
     4bc:	1313664a 	tstne	r3, #77594624	; 0x4a00000
     4c0:	01060905 	tsteq	r6, r5, lsl #18
     4c4:	052e0705 	streq	r0, [lr, #-1797]!	; 0xfffff8fb
     4c8:	014b0609 	cmpeq	fp, r9, lsl #12
     4cc:	05059e4a 	streq	r9, [r5, #-3658]	; 0xfffff1b6
     4d0:	09051314 	stmdbeq	r5, {r2, r4, r8, r9, ip}
     4d4:	07050106 	streq	r0, [r5, -r6, lsl #2]
     4d8:	0609052e 	streq	r0, [r9], -lr, lsr #10
     4dc:	0501044b 	streq	r0, [r1, #-1099]	; 0xfffffbb5
     4e0:	5d030614 	stcpl	6, cr0, [r3, #-80]	; 0xffffffb0
     4e4:	05020401 	streq	r0, [r2, #-1025]	; 0xfffffbff
     4e8:	2e240301 	cdpcs	3, 2, cr0, cr4, cr1, {0}
     4ec:	052c1e05 	streq	r1, [ip, #-3589]!	; 0xfffff1fb
     4f0:	09052e1a 	stmdbeq	r5, {r1, r3, r4, r9, sl, fp, sp}
     4f4:	4a014b06 	bmi	53114 <__bss_end__+0x490a4>
     4f8:	0104ba06 	tsteq	r4, r6, lsl #20
     4fc:	61030c05 	tstvs	r3, r5, lsl #24
     500:	2f010501 	svccs	0x00010501
     504:	03062205 	movweq	r2, #25093	; 0x6205
     508:	0106d61a 	tsteq	r6, sl, lsl r6
     50c:	4c060505 	cfstr32mi	mvfx0, [r6], {5}
     510:	01060c05 	tsteq	r6, r5, lsl #24
     514:	05300905 	ldreq	r0, [r0, #-2309]!	; 0xfffff6fb
     518:	0c054916 			; <UNDEFINED> instruction: 0x0c054916
     51c:	6609054a 	strvs	r0, [r9], -sl, asr #10
     520:	02001605 	andeq	r1, r0, #5242880	; 0x500000
     524:	054b0304 	strbeq	r0, [fp, #-772]	; 0xfffffcfc
     528:	0402000c 	streq	r0, [r2], #-12
     52c:	09056603 	stmdbeq	r5, {r0, r1, r9, sl, sp, lr}
     530:	03040200 	movweq	r0, #16896	; 0x4200
     534:	01054aba 			; <UNDEFINED> instruction: 0x01054aba
     538:	0627052f 	strteq	r0, [r7], -pc, lsr #10
     53c:	2e7fab03 	vaddcs.f64	d26, d15, d3
     540:	05050106 	streq	r0, [r5, #-262]	; 0xfffffefa
     544:	00012f06 	andeq	r2, r1, r6, lsl #30
     548:	ba020402 	blt	81558 <__bss_end__+0x774e8>
     54c:	02040200 	andeq	r0, r4, #0, 4
     550:	04020001 	streq	r0, [r2], #-1
     554:	02001302 	andeq	r1, r0, #134217728	; 0x8000000
     558:	4a060204 	bmi	180d70 <__bss_end__+0x176d00>
     55c:	02040200 	andeq	r0, r4, #0, 4
     560:	0402002e 	streq	r0, [r2], #-46	; 0xffffffd2
     564:	052f0602 	streq	r0, [pc, #-1538]!	; ffffff6a <__bss_end__+0xffff5efa>
     568:	04020017 	streq	r0, [r2], #-23	; 0xffffffe9
     56c:	05010602 	streq	r0, [r1, #-1538]	; 0xfffff9fe
     570:	0402000a 	streq	r0, [r2], #-10
     574:	05054a02 	streq	r4, [r5, #-2562]	; 0xfffff5fe
     578:	02040200 	andeq	r0, r4, #0, 4
     57c:	15052f06 	strne	r2, [r5, #-3846]	; 0xfffff0fa
     580:	02040200 	andeq	r0, r4, #0, 4
     584:	0e050106 	adfeqs	f0, f5, f6
     588:	02040200 	andeq	r0, r4, #0, 4
     58c:	0001052e 	andeq	r0, r1, lr, lsr #10
     590:	2f020402 	svccs	0x00020402
     594:	02000505 	andeq	r0, r0, #20971520	; 0x1400000
     598:	2a060104 	bcs	1809b0 <__bss_end__+0x176940>
     59c:	01040200 	mrseq	r0, R12_usr
     5a0:	04020001 	streq	r0, [r2], #-1
     5a4:	02002e01 	andeq	r2, r0, #1, 28
     5a8:	059e0104 	ldreq	r0, [lr, #260]	; 0x104
     5ac:	00e70350 	rsceq	r0, r7, r0, asr r3
     5b0:	050106ba 	streq	r0, [r1, #-1722]	; 0xfffff946
     5b4:	059f0605 	ldreq	r0, [pc, #1541]	; bc1 <_start-0x743f>
     5b8:	05010610 	streq	r0, [r1, #-1552]	; 0xfffff9f0
     5bc:	01300605 	teqeq	r0, r5, lsl #12
     5c0:	02040200 	andeq	r0, r4, #0, 4
     5c4:	0402009e 	streq	r0, [r2], #-158	; 0xffffff62
     5c8:	02001302 	andeq	r1, r0, #134217728	; 0x8000000
     5cc:	00010204 	andeq	r0, r1, r4, lsl #4
     5d0:	06020402 	streq	r0, [r2], -r2, lsl #8
     5d4:	0402002e 	streq	r0, [r2], #-46	; 0xffffffd2
     5d8:	002e0602 	eoreq	r0, lr, r2, lsl #12
     5dc:	66020402 	strvs	r0, [r2], -r2, lsl #8
     5e0:	02040200 	andeq	r0, r4, #0, 4
     5e4:	000a0513 	andeq	r0, sl, r3, lsl r5
     5e8:	06020402 	streq	r0, [r2], -r2, lsl #8
     5ec:	00080501 	andeq	r0, r8, r1, lsl #10
     5f0:	4a020402 	bmi	81600 <__bss_end__+0x77590>
     5f4:	4c060505 	cfstr32mi	mvfx0, [r6], {5}
     5f8:	01061105 	tsteq	r6, r5, lsl #2
     5fc:	6b060505 	blvs	181a18 <__bss_end__+0x1779a8>
     600:	01060e05 	tsteq	r6, r5, lsl #28
     604:	4b060505 	blmi	181a20 <__bss_end__+0x1779b0>
     608:	06100583 	ldreq	r0, [r0], -r3, lsl #11
     60c:	4a0e0501 	bmi	381a18 <__bss_end__+0x3779a8>
     610:	052f0105 	streq	r0, [pc, #-261]!	; 513 <_start-0x7aed>
     614:	04020005 	streq	r0, [r2], #-5
     618:	74030601 	strvc	r0, [r3], #-1537	; 0xfffff9ff
     61c:	0402002e 	streq	r0, [r2], #-46	; 0xffffffd2
     620:	02002e01 	andeq	r2, r0, #1, 28
     624:	059e0104 	ldreq	r0, [lr, #260]	; 0x104
     628:	d60f0357 			; <UNDEFINED> instruction: 0xd60f0357
     62c:	05050106 	streq	r0, [r5, #-262]	; 0xfffffefa
     630:	14136706 	ldrne	r6, [r3], #-1798	; 0xfffff8fa
     634:	002e0601 	eoreq	r0, lr, r1, lsl #12
     638:	06020402 	streq	r0, [r2], -r2, lsl #8
     63c:	040200ba 	streq	r0, [r2], #-186	; 0xffffff46
     640:	02001302 	andeq	r1, r0, #134217728	; 0x8000000
     644:	00010204 	andeq	r0, r1, r4, lsl #4
     648:	06020402 	streq	r0, [r2], -r2, lsl #8
     64c:	0402002e 	streq	r0, [r2], #-46	; 0xffffffd2
     650:	002e0602 	eoreq	r0, lr, r2, lsl #12
     654:	66020402 	strvs	r0, [r2], -r2, lsl #8
     658:	02040200 	andeq	r0, r4, #0, 4
     65c:	00140514 	andseq	r0, r4, r4, lsl r5
     660:	06020402 	streq	r0, [r2], -r2, lsl #8
     664:	000e0501 	andeq	r0, lr, r1, lsl #10
     668:	2e020402 	cdpcs	4, 0, cr0, cr2, cr2, {0}
     66c:	02000505 	andeq	r0, r0, #20971520	; 0x1400000
     670:	2f060204 	svccs	0x00060204
     674:	02000e05 	andeq	r0, r0, #5, 28	; 0x50
     678:	01060204 	tsteq	r6, r4, lsl #4
     67c:	02000505 	andeq	r0, r0, #20971520	; 0x1400000
     680:	31060204 	tstcc	r6, r4, lsl #4
     684:	02000705 	andeq	r0, r0, #1310720	; 0x140000
     688:	01060204 	tsteq	r6, r4, lsl #4
     68c:	4b060905 	blmi	182aa8 <__bss_end__+0x178a38>
     690:	14050501 	strne	r0, [r5], #-1281	; 0xfffffaff
     694:	01060e05 	tsteq	r6, r5, lsl #28
     698:	05661305 	strbeq	r1, [r6, #-773]!	; 0xfffffcfb
     69c:	09052e07 	stmdbeq	r5, {r0, r1, r2, r9, sl, fp, sp}
     6a0:	05014b06 	streq	r4, [r1, #-2822]	; 0xfffff4fa
     6a4:	05131505 	ldreq	r1, [r3, #-1285]	; 0xfffffafb
     6a8:	05010615 	streq	r0, [r1, #-1557]	; 0xfffff9eb
     6ac:	052f0605 	streq	r0, [pc, #-1541]!	; af <_start-0x7f51>
     6b0:	05010619 	streq	r0, [r1, #-1561]	; 0xfffff9e7
     6b4:	05052e13 	streq	r2, [r5, #-3603]	; 0xfffff1ed
     6b8:	0e052f06 	cdpeq	15, 0, cr2, cr5, cr6, {0}
     6bc:	05050106 	streq	r0, [r5, #-262]	; 0xfffffefa
     6c0:	12054b06 	andne	r4, r5, #6144	; 0x1800
     6c4:	05050106 	streq	r0, [r5, #-262]	; 0xfffffefa
     6c8:	13056706 	movwne	r6, #22278	; 0x5706
     6cc:	05050106 	streq	r0, [r5, #-262]	; 0xfffffefa
     6d0:	14054b06 	strne	r4, [r5], #-2822	; 0xfffff4fa
     6d4:	05050106 	streq	r0, [r5, #-262]	; 0xfffffefa
     6d8:	06834b06 	streq	r4, [r3], r6, lsl #22
     6dc:	059f0666 	ldreq	r0, [pc, #1638]	; d4a <_start-0x72b6>
     6e0:	05010610 	streq	r0, [r1, #-1552]	; 0xfffff9f0
     6e4:	05054a0e 	streq	r4, [r5, #-2574]	; 0xfffff5f2
     6e8:	0a053006 	beq	14c708 <__bss_end__+0x142698>
     6ec:	05050106 	streq	r0, [r5, #-262]	; 0xfffffefa
     6f0:	00018306 	andeq	r8, r1, r6, lsl #6
     6f4:	82020402 	andhi	r0, r2, #33554432	; 0x2000000
     6f8:	02040200 	andeq	r0, r4, #0, 4
     6fc:	04020001 	streq	r0, [r2], #-1
     700:	0b051302 	bleq	145310 <__bss_end__+0x13b2a0>
     704:	02040200 	andeq	r0, r4, #0, 4
     708:	05050106 	streq	r0, [r5, #-262]	; 0xfffffefa
     70c:	02040200 	andeq	r0, r4, #0, 4
     710:	02006706 	andeq	r6, r0, #1572864	; 0x180000
     714:	00010204 	andeq	r0, r1, r4, lsl #4
     718:	06020402 	streq	r0, [r2], -r2, lsl #8
     71c:	0402002e 	streq	r0, [r2], #-46	; 0xffffffd2
     720:	002e0602 	eoreq	r0, lr, r2, lsl #12
     724:	9e020402 	cdpls	4, 0, cr0, cr2, cr2, {0}
     728:	02040200 	andeq	r0, r4, #0, 4
     72c:	00010513 	andeq	r0, r1, r3, lsl r5
     730:	06020402 	streq	r0, [r2], -r2, lsl #8
     734:	00050513 	andeq	r0, r5, r3, lsl r5
     738:	06010402 	streq	r0, [r1], -r2, lsl #8
     73c:	00666203 	rsbeq	r6, r6, r3, lsl #4
     740:	2e010402 	cdpcs	4, 0, cr0, cr1, cr2, {0}
     744:	01040200 	mrseq	r0, R12_usr
     748:	3609059e 			; <UNDEFINED> instruction: 0x3609059e
     74c:	062e0601 	strteq	r0, [lr], -r1, lsl #12
     750:	2e01662e 	cfmadd32cs	mvax1, mvfx6, mvfx1, mvfx14
     754:	060131ba 			; <UNDEFINED> instruction: 0x060131ba
     758:	d62e062e 	strtle	r0, [lr], -lr, lsr #12
     75c:	3c082e01 	stccc	14, cr2, [r8], {1}
     760:	02000505 	andeq	r0, r0, #20971520	; 0x1400000
     764:	0f030104 	svceq	0x00030104
     768:	0402002e 	streq	r0, [r2], #-46	; 0xffffffd2
     76c:	02000101 	andeq	r0, r0, #1073741824	; 0x40000000
     770:	002e0104 	eoreq	r0, lr, r4, lsl #2
     774:	9e010402 	cdpls	4, 0, cr0, cr1, cr2, {0}
     778:	b2081b05 	andlt	r1, r8, #5120	; 0x1400
     77c:	052f0505 	streq	r0, [pc, #-1285]!	; 27f <_start-0x7d81>
     780:	0501060c 	streq	r0, [r1, #-1548]	; 0xfffff9f4
     784:	054b0605 	strbeq	r0, [fp, #-1541]	; 0xfffff9fb
     788:	0501060c 	streq	r0, [r1, #-1548]	; 0xfffff9f4
     78c:	01054a21 	tsteq	r5, r1, lsr #20
     790:	4921054b 	stmdbmi	r1!, {r0, r1, r3, r6, r8, sl}
     794:	061e052e 	ldreq	r0, [lr], -lr, lsr #10
     798:	0501064d 	streq	r0, [r1, #-1613]	; 0xfffff9b3
     79c:	052f0605 	streq	r0, [pc, #-1541]!	; 19f <_start-0x7e61>
     7a0:	0501062c 	streq	r0, [r1, #-1580]	; 0xfffff9d4
     7a4:	3b052e3e 	blcc	14c0a4 <__bss_end__+0x142034>
     7a8:	2e4b052e 	cdpcs	5, 4, cr0, cr11, cr14, {1}
     7ac:	052e0c05 	streq	r0, [lr, #-3077]!	; 0xfffff3fb
     7b0:	052f0605 	streq	r0, [pc, #-1541]!	; 1b3 <_start-0x7e4d>
     7b4:	05010612 	streq	r0, [r1, #-1554]	; 0xfffff9ee
     7b8:	24054a39 	strcs	r4, [r5], #-2617	; 0xfffff5c7
     7bc:	01040200 	mrseq	r0, R12_usr
     7c0:	0402004a 	streq	r0, [r2], #-74	; 0xffffffb6
     7c4:	21052e01 	tstcs	r5, r1, lsl #28
     7c8:	01040200 	mrseq	r0, R12_usr
     7cc:	2e39052e 	cdpcs	5, 3, cr0, cr9, cr14, {1}
     7d0:	01052e2e 	tsteq	r5, lr, lsr #28
     7d4:	061a052f 	ldreq	r0, [sl], -pc, lsr #10
     7d8:	2f05056b 	svccs	0x0005056b
     7dc:	01061d05 	tsteq	r6, r5, lsl #26
     7e0:	83060505 	movwhi	r0, #25861	; 0x6505
     7e4:	01061e05 	tsteq	r6, r5, lsl #28
     7e8:	4c060505 	cfstr32mi	mvfx0, [r6], {5}
     7ec:	14824a01 	strne	r4, [r2], #2561	; 0xa01
     7f0:	0a051513 	beq	145c44 <__bss_end__+0x13bbd4>
     7f4:	06190501 	ldreq	r0, [r9], -r1, lsl #10
     7f8:	0e054a01 	vmlaeq.f32	s8, s10, s2
     7fc:	05052d0f 	streq	r2, [r5, #-3343]	; 0xfffff2f1
     800:	060d0532 			; <UNDEFINED> instruction: 0x060d0532
     804:	06140532 			; <UNDEFINED> instruction: 0x06140532
     808:	060d0501 	streq	r0, [sp], -r1, lsl #10
     80c:	0612052f 	ldreq	r0, [r2], -pc, lsr #10
     810:	060d0501 	streq	r0, [sp], -r1, lsl #10
     814:	0501062f 	streq	r0, [r1, #-1583]	; 0xfffff9d1
     818:	0f030605 	svceq	0x00030605
     81c:	06070501 	streq	r0, [r7], -r1, lsl #10
     820:	06090501 	streq	r0, [r9], -r1, lsl #10
     824:	824a014b 	subhi	r0, sl, #-1073741806	; 0xc0000012
     828:	01040200 	mrseq	r0, R12_usr
     82c:	00050514 	andeq	r0, r5, r4, lsl r5
     830:	13010402 	movwne	r0, #5122	; 0x1402
     834:	02000105 	andeq	r0, r0, #1073741825	; 0x40000001
     838:	13060104 	movwne	r0, #24836	; 0x6104
     83c:	03060d05 	movweq	r0, #27909	; 0x6d05
     840:	14054a70 	strne	r4, [r5], #-2672	; 0xfffff590
     844:	09050106 	stmdbeq	r5, {r1, r2, r8}
     848:	02040200 	andeq	r0, r4, #0, 4
     84c:	0e053506 	cfsh32eq	mvfx3, mvfx5, #6
     850:	02040200 	andeq	r0, r4, #0, 4
     854:	30050106 	andcc	r0, r5, r6, lsl #2
     858:	02040200 	andeq	r0, r4, #0, 4
     85c:	2e6f0306 	cdpcs	3, 6, cr0, cr15, cr6, {0}
     860:	02003805 	andeq	r3, r0, #327680	; 0x50000
     864:	01060204 	tsteq	r6, r4, lsl #4
     868:	02002905 	andeq	r2, r0, #81920	; 0x14000
     86c:	66060104 	strvs	r0, [r6], -r4, lsl #2
     870:	02000505 	andeq	r0, r0, #20971520	; 0x1400000
     874:	01060104 	tsteq	r6, r4, lsl #2
     878:	4c060905 			; <UNDEFINED> instruction: 0x4c060905
     87c:	01060e05 	tsteq	r6, r5, lsl #28
     880:	2e0c052e 	cfsh32cs	mvfx0, mvfx12, #30
     884:	51060905 	tstpl	r6, r5, lsl #18
     888:	01061805 	tsteq	r6, r5, lsl #16
     88c:	054a0e05 	strbeq	r0, [sl, #-3589]	; 0xfffff1fb
     890:	4805660c 	stmdami	r5, {r2, r3, r9, sl, sp, lr}
     894:	01040200 	mrseq	r0, R12_usr
     898:	003e054a 	eorseq	r0, lr, sl, asr #10
     89c:	66010402 	strvs	r0, [r1], -r2, lsl #8
     8a0:	02003a05 	andeq	r3, r0, #20480	; 0x5000
     8a4:	05ba0104 	ldreq	r0, [sl, #260]!	; 0x104
     8a8:	054c060e 	strbeq	r0, [ip, #-1550]	; 0xfffff9f2
     8ac:	05010617 	streq	r0, [r1, #-1559]	; 0xfffff9e9
     8b0:	0d052e11 	stceq	14, cr2, [r5, #-68]	; 0xffffffbc
     8b4:	24054c06 	strcs	r4, [r5], #-3078	; 0xfffff3fa
     8b8:	12050106 	andne	r0, r5, #-2147483647	; 0x80000001
     8bc:	6610054a 	ldrvs	r0, [r0], -sl, asr #10
     8c0:	2f061105 	svccs	0x00061105
     8c4:	01061805 	tsteq	r6, r5, lsl #16
     8c8:	09052e2e 	stmdbeq	r5, {r1, r2, r3, r5, r9, sl, fp, sp}
     8cc:	010a0306 	tsteq	sl, r6, lsl #6
     8d0:	12024a01 	andne	r4, r2, #4096	; 0x1000
     8d4:	3c010100 	stfccs	f0, [r1], {-0}
     8d8:	03000002 	movweq	r0, #2
     8dc:	0000d400 	andeq	sp, r0, r0, lsl #8
     8e0:	fb010200 	blx	410ea <__bss_end__+0x3707a>
     8e4:	01000d0e 	tsteq	r0, lr, lsl #26
     8e8:	00010101 	andeq	r0, r1, r1, lsl #2
     8ec:	00010000 	andeq	r0, r1, r0
     8f0:	696c0100 	stmdbvs	ip!, {r8}^
     8f4:	2f006362 	svccs	0x00006362
     8f8:	2f727375 	svccs	0x00727375
     8fc:	2f62696c 	svccs	0x0062696c
     900:	2f636367 	svccs	0x00636367
     904:	2d6d7261 	sfmcs	f7, 2, [sp, #-388]!	; 0xfffffe7c
     908:	656e6f6e 	strbvs	r6, [lr, #-3950]!	; 0xfffff092
     90c:	6261652d 	rsbvs	r6, r1, #188743680	; 0xb400000
     910:	2e392f69 	cdpcs	15, 3, cr2, cr9, cr9, {3}
     914:	2f302e32 	svccs	0x00302e32
     918:	6c636e69 	stclvs	14, cr6, [r3], #-420	; 0xfffffe5c
     91c:	00656475 	rsbeq	r6, r5, r5, ror r4
     920:	7273752f 	rsbsvc	r7, r3, #197132288	; 0xbc00000
     924:	6d72612f 	ldfvse	f6, [r2, #-188]!	; 0xffffff44
     928:	6e6f6e2d 	cdpvs	14, 6, cr6, cr15, cr13, {1}
     92c:	61652d65 	cmnvs	r5, r5, ror #26
     930:	692f6962 	stmdbvs	pc!, {r1, r5, r6, r8, fp, sp, lr}	; <UNPREDICTABLE>
     934:	756c636e 	strbvc	r6, [ip, #-878]!	; 0xfffffc92
     938:	732f6564 			; <UNDEFINED> instruction: 0x732f6564
     93c:	2f007379 	svccs	0x00007379
     940:	656d6f68 	strbvs	r6, [sp, #-3944]!	; 0xfffff098
     944:	6573752f 	ldrbvs	r7, [r3, #-1327]!	; 0xfffffad1
     948:	65442f72 	strbvs	r2, [r4, #-3954]	; 0xfffff08e
     94c:	53432f76 	movtpl	r2, #16246	; 0x3f76
     950:	58303432 	ldmdapl	r0!, {r1, r4, r5, sl, ip, sp}
     954:	62696c2f 	rsbvs	r6, r9, #12032	; 0x2f00
     958:	692f6970 	stmdbvs	pc!, {r4, r5, r6, r8, fp, sp, lr}	; <UNPREDICTABLE>
     95c:	756c636e 	strbvc	r6, [ip, #-878]!	; 0xfffffc92
     960:	00006564 	andeq	r6, r0, r4, ror #10
     964:	68736168 	ldmdavs	r3!, {r3, r5, r6, r8, sp, lr}^
     968:	0100632e 	tsteq	r0, lr, lsr #6
     96c:	74730000 	ldrbtvc	r0, [r3], #-0
     970:	746e6964 	strbtvc	r6, [lr], #-2404	; 0xfffff69c
     974:	6363672d 	cmnvs	r3, #11796480	; 0xb40000
     978:	0200682e 	andeq	r6, r0, #3014656	; 0x2e0000
     97c:	6f6c0000 	svcvs	0x006c0000
     980:	682e6b63 	stmdavs	lr!, {r0, r1, r5, r6, r8, r9, fp, sp, lr}
     984:	00000300 	andeq	r0, r0, r0, lsl #6
     988:	7079745f 	rsbsvc	r7, r9, pc, asr r4
     98c:	682e7365 	stmdavs	lr!, {r0, r2, r5, r6, r8, r9, ip, sp, lr}
     990:	00000300 	andeq	r0, r0, r0, lsl #6
     994:	64647473 	strbtvs	r7, [r4], #-1139	; 0xfffffb8d
     998:	682e6665 	stmdavs	lr!, {r0, r2, r5, r6, r9, sl, sp, lr}
     99c:	00000200 	andeq	r0, r0, r0, lsl #4
     9a0:	6e656572 	mcrvs	5, 3, r6, cr5, cr2, {3}
     9a4:	00682e74 	rsbeq	r2, r8, r4, ror lr
     9a8:	72000003 	andvc	r0, r0, #3
     9ac:	682e6970 	stmdavs	lr!, {r4, r5, r6, r8, fp, sp, lr}
     9b0:	00000400 	andeq	r0, r0, r0, lsl #8
     9b4:	00310500 	eorseq	r0, r1, r0, lsl #10
     9b8:	89b80205 	ldmibhi	r8!, {r0, r2, r9}
     9bc:	0e030000 	cdpeq	0, 0, cr0, cr3, cr0, {0}
     9c0:	13050501 	movwne	r0, #21761	; 0x5501
     9c4:	13130105 	tstne	r3, #1073741825	; 0x40000001
     9c8:	05140505 	ldreq	r0, [r4, #-1285]	; 0xfffffafb
     9cc:	05010608 	streq	r0, [r1, #-1544]	; 0xfffff9f8
     9d0:	05056131 	streq	r6, [r5, #-305]	; 0xfffffecf
     9d4:	09056d06 	stmdbeq	r5, {r1, r2, r8, sl, fp, sp, lr}
     9d8:	05050106 	streq	r0, [r5, #-262]	; 0xfffffefa
     9dc:	09052f06 	stmdbeq	r5, {r1, r2, r8, r9, sl, fp, sp}
     9e0:	05050106 	streq	r0, [r5, #-262]	; 0xfffffefa
     9e4:	0b053106 	bleq	14ce04 <__bss_end__+0x142d94>
     9e8:	01040200 	mrseq	r0, R12_usr
     9ec:	00050501 	andeq	r0, r5, r1, lsl #10
     9f0:	06010402 	streq	r0, [r1], -r2, lsl #8
     9f4:	00090501 	andeq	r0, r9, r1, lsl #10
     9f8:	06020402 	streq	r0, [r2], -r2, lsl #8
     9fc:	0012054b 	andseq	r0, r2, fp, asr #10
     a00:	06020402 	streq	r0, [r2], -r2, lsl #8
     a04:	000f0501 	andeq	r0, pc, r1, lsl #10
     a08:	66020402 	strvs	r0, [r2], -r2, lsl #8
     a0c:	02000905 	andeq	r0, r0, #81920	; 0x14000
     a10:	2f060204 	svccs	0x00060204
     a14:	02001305 	andeq	r1, r0, #335544320	; 0x14000000
     a18:	01060204 	tsteq	r6, r4, lsl #4
     a1c:	02001005 	andeq	r1, r0, #5
     a20:	05660204 	strbeq	r0, [r6, #-516]!	; 0xfffffdfc
     a24:	04020009 	streq	r0, [r2], #-9
     a28:	052f0602 	streq	r0, [pc, #-1538]!	; 42e <_start-0x7bd2>
     a2c:	04020010 	streq	r0, [r2], #-16
     a30:	05010602 	streq	r0, [r1, #-1538]	; 0xfffff9fe
     a34:	04020009 	streq	r0, [r2], #-9
     a38:	052f0602 	streq	r0, [pc, #-1538]!	; 43e <_start-0x7bc2>
     a3c:	0402000f 	streq	r0, [r2], #-15
     a40:	05010602 	streq	r0, [r1, #-1538]	; 0xfffff9fe
     a44:	04020009 	streq	r0, [r2], #-9
     a48:	052f0602 	streq	r0, [pc, #-1538]!	; 44e <_start-0x7bb2>
     a4c:	0402000f 	streq	r0, [r2], #-15
     a50:	05010602 	streq	r0, [r1, #-1538]	; 0xfffff9fe
     a54:	04020014 	streq	r0, [r2], #-20	; 0xffffffec
     a58:	05290602 	streq	r0, [r9, #-1538]!	; 0xfffff9fe
     a5c:	04020017 	streq	r0, [r2], #-23	; 0xffffffe9
     a60:	00010602 	andeq	r0, r1, r2, lsl #12
     a64:	2e020402 	cdpcs	4, 0, cr0, cr2, cr2, {0}
     a68:	03060505 	movweq	r0, #25861	; 0x6505
     a6c:	10032e09 	andne	r2, r3, r9, lsl #28
     a70:	060a05ba 			; <UNDEFINED> instruction: 0x060a05ba
     a74:	06050501 	streq	r0, [r5], -r1, lsl #10
     a78:	060a052f 	streq	r0, [sl], -pc, lsr #10
     a7c:	06050501 	streq	r0, [r5], -r1, lsl #10
     a80:	060a052f 	streq	r0, [sl], -pc, lsr #10
     a84:	06050501 	streq	r0, [r5], -r1, lsl #10
     a88:	060a052f 	streq	r0, [sl], -pc, lsr #10
     a8c:	06050501 	streq	r0, [r5], -r1, lsl #10
     a90:	060a052f 	streq	r0, [sl], -pc, lsr #10
     a94:	06050501 	streq	r0, [r5], -r1, lsl #10
     a98:	060a052f 	streq	r0, [sl], -pc, lsr #10
     a9c:	06050501 	streq	r0, [r5], -r1, lsl #10
     aa0:	06010530 			; <UNDEFINED> instruction: 0x06010530
     aa4:	06110513 			; <UNDEFINED> instruction: 0x06110513
     aa8:	052e6903 	streq	r6, [lr, #-2307]!	; 0xfffff6fd
     aac:	2e010619 	mcrcs	6, 0, r0, cr1, cr9, {0}
     ab0:	054a1605 	strbeq	r1, [sl, #-1541]	; 0xfffff9fb
     ab4:	052f0611 	streq	r0, [pc, #-1553]!	; 4ab <_start-0x7b55>
     ab8:	05010616 	streq	r0, [r1, #-1558]	; 0xfffff9ea
     abc:	052f0611 	streq	r0, [pc, #-1553]!	; 4b3 <_start-0x7b4d>
     ac0:	0501061a 	streq	r0, [r1, #-1562]	; 0xfffff9e6
     ac4:	11052e16 	tstne	r5, r6, lsl lr
     ac8:	16052f06 	strne	r2, [r5], -r6, lsl #30
     acc:	11050106 	tstne	r5, r6, lsl #2
     ad0:	052f2f06 	streq	r2, [pc, #-3846]!	; fffffbd2 <__bss_end__+0xffff5b62>
     ad4:	2e010619 	mcrcs	6, 0, r0, cr1, cr9, {0}
     ad8:	054a1605 	strbeq	r1, [sl, #-1541]	; 0xfffff9fb
     adc:	052f0611 	streq	r0, [pc, #-1553]!	; 4d3 <_start-0x7b2d>
     ae0:	05010616 	streq	r0, [r1, #-1558]	; 0xfffff9ea
     ae4:	052f0611 	streq	r0, [pc, #-1553]!	; 4db <_start-0x7b25>
     ae8:	05010616 	streq	r0, [r1, #-1558]	; 0xfffff9ea
     aec:	2f2f0611 	svccs	0x002f0611
     af0:	01061905 	tsteq	r6, r5, lsl #18
     af4:	052e1605 	streq	r1, [lr, #-1541]!	; 0xfffff9fb
     af8:	052f0611 	streq	r0, [pc, #-1553]!	; 4ef <_start-0x7b11>
     afc:	05010616 	streq	r0, [r1, #-1558]	; 0xfffff9ea
     b00:	052f0611 	streq	r0, [pc, #-1553]!	; 4f7 <_start-0x7b09>
     b04:	2e010616 	mcrcs	6, 0, r0, cr1, cr6, {0}
     b08:	65032a05 	strvs	r2, [r3, #-2565]	; 0xfffff5fb
     b0c:	0301052e 	movweq	r0, #5422	; 0x152e
     b10:	02022e27 	andeq	r2, r2, #624	; 0x270
     b14:	f0010100 			; <UNDEFINED> instruction: 0xf0010100
     b18:	03000000 	movweq	r0, #0
     b1c:	0000c000 	andeq	ip, r0, r0
     b20:	fb010200 	blx	4132a <__bss_end__+0x372ba>
     b24:	01000d0e 	tsteq	r0, lr, lsl #26
     b28:	00010101 	andeq	r0, r1, r1, lsl #2
     b2c:	00010000 	andeq	r0, r1, r0
     b30:	696c0100 	stmdbvs	ip!, {r8}^
     b34:	2f006362 	svccs	0x00006362
     b38:	2f727375 	svccs	0x00727375
     b3c:	2f62696c 	svccs	0x0062696c
     b40:	2f636367 	svccs	0x00636367
     b44:	2d6d7261 	sfmcs	f7, 2, [sp, #-388]!	; 0xfffffe7c
     b48:	656e6f6e 	strbvs	r6, [lr, #-3950]!	; 0xfffff092
     b4c:	6261652d 	rsbvs	r6, r1, #188743680	; 0xb400000
     b50:	2e392f69 	cdpcs	15, 3, cr2, cr9, cr9, {3}
     b54:	2f302e32 	svccs	0x00302e32
     b58:	6c636e69 	stclvs	14, cr6, [r3], #-420	; 0xfffffe5c
     b5c:	00656475 	rsbeq	r6, r5, r5, ror r4
     b60:	7273752f 	rsbsvc	r7, r3, #197132288	; 0xbc00000
     b64:	6d72612f 	ldfvse	f6, [r2, #-188]!	; 0xffffff44
     b68:	6e6f6e2d 	cdpvs	14, 6, cr6, cr15, cr13, {1}
     b6c:	61652d65 	cmnvs	r5, r5, ror #26
     b70:	692f6962 	stmdbvs	pc!, {r1, r5, r6, r8, fp, sp, lr}	; <UNPREDICTABLE>
     b74:	756c636e 	strbvc	r6, [ip, #-878]!	; 0xfffffc92
     b78:	732f6564 			; <UNDEFINED> instruction: 0x732f6564
     b7c:	2f007379 	svccs	0x00007379
     b80:	2f727375 	svccs	0x00727375
     b84:	2d6d7261 	sfmcs	f7, 2, [sp, #-388]!	; 0xfffffe7c
     b88:	656e6f6e 	strbvs	r6, [lr, #-3950]!	; 0xfffff092
     b8c:	6261652d 	rsbvs	r6, r1, #188743680	; 0xb400000
     b90:	6e692f69 	cdpvs	15, 6, cr2, cr9, cr9, {3}
     b94:	64756c63 	ldrbtvs	r6, [r5], #-3171	; 0xfffff39d
     b98:	6d000065 	stcvs	0, cr0, [r0, #-404]	; 0xfffffe6c
     b9c:	65736d65 	ldrbvs	r6, [r3, #-3429]!	; 0xfffff29b
     ba0:	00632e74 	rsbeq	r2, r3, r4, ror lr
     ba4:	73000001 	movwvc	r0, #1
     ba8:	65646474 	strbvs	r6, [r4, #-1140]!	; 0xfffffb8c
     bac:	00682e66 	rsbeq	r2, r8, r6, ror #28
     bb0:	6c000002 	stcvs	0, cr0, [r0], {2}
     bb4:	2e6b636f 	cdpcs	3, 6, cr6, cr11, cr15, {3}
     bb8:	00030068 	andeq	r0, r3, r8, rrx
     bbc:	79745f00 	ldmdbvc	r4!, {r8, r9, sl, fp, ip, lr}^
     bc0:	2e736570 	mrccs	5, 3, r6, cr3, cr0, {3}
     bc4:	00030068 	andeq	r0, r3, r8, rrx
     bc8:	65657200 	strbvs	r7, [r5, #-512]!	; 0xfffffe00
     bcc:	682e746e 	stmdavs	lr!, {r1, r2, r3, r5, r6, sl, ip, sp, lr}
     bd0:	00000300 	andeq	r0, r0, r0, lsl #6
     bd4:	69727473 	ldmdbvs	r2!, {r0, r1, r4, r5, r6, sl, ip, sp, lr}^
     bd8:	682e676e 	stmdavs	lr!, {r1, r2, r3, r5, r6, r8, r9, sl, sp, lr}
     bdc:	00000400 	andeq	r0, r0, r0, lsl #8
     be0:	00290500 	eoreq	r0, r9, r0, lsl #10
     be4:	8aa40205 	bhi	fe901400 <__bss_end__+0xfe8f7390>
     be8:	05140000 	ldreq	r0, [r4, #-0]
     bec:	14051305 	strne	r1, [r5], #-773	; 0xfffffcfb
     bf0:	05050106 	streq	r0, [r5, #-262]	; 0xfffffefa
     bf4:	0b053006 	bleq	14cc14 <__bss_end__+0x142ba4>
     bf8:	0a051006 	beq	144c18 <__bss_end__+0x13aba8>
     bfc:	09053006 	stmdbeq	r5, {r1, r2, ip, sp}
     c00:	060e054b 	streq	r0, [lr], -fp, asr #10
     c04:	02022e01 	andeq	r2, r2, #1, 28
     c08:	21010100 	mrscs	r0, (UNDEF: 17)
     c0c:	03000001 	movweq	r0, #1
     c10:	0000ef00 	andeq	lr, r0, r0, lsl #30
     c14:	fb010200 	blx	4141e <__bss_end__+0x373ae>
     c18:	01000d0e 	tsteq	r0, lr, lsl #26
     c1c:	00010101 	andeq	r0, r1, r1, lsl #2
     c20:	00010000 	andeq	r0, r1, r0
     c24:	696c0100 	stmdbvs	ip!, {r8}^
     c28:	2f006362 	svccs	0x00006362
     c2c:	2f727375 	svccs	0x00727375
     c30:	2f62696c 	svccs	0x0062696c
     c34:	2f636367 	svccs	0x00636367
     c38:	2d6d7261 	sfmcs	f7, 2, [sp, #-388]!	; 0xfffffe7c
     c3c:	656e6f6e 	strbvs	r6, [lr, #-3950]!	; 0xfffff092
     c40:	6261652d 	rsbvs	r6, r1, #188743680	; 0xb400000
     c44:	2e392f69 	cdpcs	15, 3, cr2, cr9, cr9, {3}
     c48:	2f302e32 	svccs	0x00302e32
     c4c:	6c636e69 	stclvs	14, cr6, [r3], #-420	; 0xfffffe5c
     c50:	00656475 	rsbeq	r6, r5, r5, ror r4
     c54:	7273752f 	rsbsvc	r7, r3, #197132288	; 0xbc00000
     c58:	6d72612f 	ldfvse	f6, [r2, #-188]!	; 0xffffff44
     c5c:	6e6f6e2d 	cdpvs	14, 6, cr6, cr15, cr13, {1}
     c60:	61652d65 	cmnvs	r5, r5, ror #26
     c64:	692f6962 	stmdbvs	pc!, {r1, r5, r6, r8, fp, sp, lr}	; <UNPREDICTABLE>
     c68:	756c636e 	strbvc	r6, [ip, #-878]!	; 0xfffffc92
     c6c:	732f6564 			; <UNDEFINED> instruction: 0x732f6564
     c70:	2f007379 	svccs	0x00007379
     c74:	656d6f68 	strbvs	r6, [sp, #-3944]!	; 0xfffff098
     c78:	6573752f 	ldrbvs	r7, [r3, #-1327]!	; 0xfffffad1
     c7c:	65442f72 	strbvs	r2, [r4, #-3954]	; 0xfffff08e
     c80:	53432f76 	movtpl	r2, #16246	; 0x3f76
     c84:	58303432 	ldmdapl	r0!, {r1, r4, r5, sl, ip, sp}
     c88:	62696c2f 	rsbvs	r6, r9, #12032	; 0x2f00
     c8c:	692f6970 	stmdbvs	pc!, {r4, r5, r6, r8, fp, sp, lr}	; <UNPREDICTABLE>
     c90:	756c636e 	strbvc	r6, [ip, #-878]!	; 0xfffffc92
     c94:	00006564 	andeq	r6, r0, r4, ror #10
     c98:	6e697270 	mcrvs	2, 3, r7, cr9, cr0, {3}
     c9c:	632e6b74 			; <UNDEFINED> instruction: 0x632e6b74
     ca0:	00000100 	andeq	r0, r0, r0, lsl #2
     ca4:	61647473 	smcvs	18243	; 0x4743
     ca8:	682e6772 	stmdavs	lr!, {r1, r4, r5, r6, r8, r9, sl, sp, lr}
     cac:	00000200 	andeq	r0, r0, r0, lsl #4
     cb0:	6b636f6c 	blvs	18dca68 <__bss_end__+0x18d29f8>
     cb4:	0300682e 	movweq	r6, #2094	; 0x82e
     cb8:	745f0000 	ldrbvc	r0, [pc], #-0	; cc0 <_start-0x7340>
     cbc:	73657079 	cmnvc	r5, #121	; 0x79
     cc0:	0300682e 	movweq	r6, #2094	; 0x82e
     cc4:	74730000 	ldrbtvc	r0, [r3], #-0
     cc8:	66656464 	strbtvs	r6, [r5], -r4, ror #8
     ccc:	0200682e 	andeq	r6, r0, #3014656	; 0x2e0000
     cd0:	65720000 	ldrbvs	r0, [r2, #-0]!
     cd4:	2e746e65 	cdpcs	14, 7, cr6, cr4, cr5, {3}
     cd8:	00030068 	andeq	r0, r3, r8, rrx
     cdc:	69707200 	ldmdbvs	r0!, {r9, ip, sp, lr}^
     ce0:	0400682e 	streq	r6, [r0], #-2094	; 0xfffff7d2
     ce4:	623c0000 	eorsvs	r0, ip, #0
     ce8:	746c6975 	strbtvc	r6, [ip], #-2421	; 0xfffff68b
     cec:	3e6e692d 	vmulcc.f16	s13, s28, s27	; <UNPREDICTABLE>
     cf0:	00000000 	andeq	r0, r0, r0
     cf4:	702d6176 	eorvc	r6, sp, r6, ror r1
     cf8:	746e6972 	strbtvc	r6, [lr], #-2418	; 0xfffff68e
     cfc:	00682e6b 	rsbeq	r2, r8, fp, ror #28
     d00:	00000001 	andeq	r0, r0, r1
     d04:	05002205 	streq	r2, [r0, #-517]	; 0xfffffdfb
     d08:	008abc02 	addeq	fp, sl, r2, lsl #24
     d0c:	01061700 	tsteq	r6, r0, lsl #14
     d10:	68060505 	stmdavs	r6, {r0, r2, r8, sl}
     d14:	09051413 	stmdbeq	r5, {r0, r1, r4, sl, ip}
     d18:	0612054b 	ldreq	r0, [r2], -fp, asr #10
     d1c:	06050501 	streq	r0, [r5], -r1, lsl #10
     d20:	660616bb 			; <UNDEFINED> instruction: 0x660616bb
     d24:	01053406 	tsteq	r5, r6, lsl #8
     d28:	02661306 	rsbeq	r1, r6, #402653184	; 0x18000000
     d2c:	01010008 	tsteq	r1, r8
     d30:	00000105 	andeq	r0, r0, r5, lsl #2
     d34:	00c70003 	sbceq	r0, r7, r3
     d38:	01020000 	mrseq	r0, (UNDEF: 2)
     d3c:	000d0efb 	strdeq	r0, [sp], -fp
     d40:	01010101 	tsteq	r1, r1, lsl #2
     d44:	01000000 	mrseq	r0, (UNDEF: 0)
     d48:	6c010000 	stcvs	0, cr0, [r1], {-0}
     d4c:	00636269 	rsbeq	r6, r3, r9, ror #4
     d50:	7273752f 	rsbsvc	r7, r3, #197132288	; 0xbc00000
     d54:	6d72612f 	ldfvse	f6, [r2, #-188]!	; 0xffffff44
     d58:	6e6f6e2d 	cdpvs	14, 6, cr6, cr15, cr13, {1}
     d5c:	61652d65 	cmnvs	r5, r5, ror #26
     d60:	692f6962 	stmdbvs	pc!, {r1, r5, r6, r8, fp, sp, lr}	; <UNPREDICTABLE>
     d64:	756c636e 	strbvc	r6, [ip, #-878]!	; 0xfffffc92
     d68:	732f6564 			; <UNDEFINED> instruction: 0x732f6564
     d6c:	2f007379 	svccs	0x00007379
     d70:	2f727375 	svccs	0x00727375
     d74:	2f62696c 	svccs	0x0062696c
     d78:	2f636367 	svccs	0x00636367
     d7c:	2d6d7261 	sfmcs	f7, 2, [sp, #-388]!	; 0xfffffe7c
     d80:	656e6f6e 	strbvs	r6, [lr, #-3950]!	; 0xfffff092
     d84:	6261652d 	rsbvs	r6, r1, #188743680	; 0xb400000
     d88:	2e392f69 	cdpcs	15, 3, cr2, cr9, cr9, {3}
     d8c:	2f302e32 	svccs	0x00302e32
     d90:	6c636e69 	stclvs	14, cr6, [r3], #-420	; 0xfffffe5c
     d94:	00656475 	rsbeq	r6, r5, r5, ror r4
     d98:	6d6f682f 	stclvs	8, cr6, [pc, #-188]!	; ce4 <_start-0x731c>
     d9c:	73752f65 	cmnvc	r5, #404	; 0x194
     da0:	442f7265 	strtmi	r7, [pc], #-613	; da8 <_start-0x7258>
     da4:	432f7665 			; <UNDEFINED> instruction: 0x432f7665
     da8:	30343253 	eorscc	r3, r4, r3, asr r2
     dac:	696c2f58 	stmdbvs	ip!, {r3, r4, r6, r8, r9, sl, fp, sp}^
     db0:	2f697062 	svccs	0x00697062
     db4:	6c636e69 	stclvs	14, cr6, [r3], #-420	; 0xfffffe5c
     db8:	00656475 	rsbeq	r6, r5, r5, ror r4
     dbc:	74757000 	ldrbtvc	r7, [r5], #-0
     dc0:	72616863 	rsbvc	r6, r1, #6488064	; 0x630000
     dc4:	0100632e 	tsteq	r0, lr, lsr #6
     dc8:	6f6c0000 	svcvs	0x006c0000
     dcc:	682e6b63 	stmdavs	lr!, {r0, r1, r5, r6, r8, r9, fp, sp, lr}
     dd0:	00000200 	andeq	r0, r0, r0, lsl #4
     dd4:	7079745f 	rsbsvc	r7, r9, pc, asr r4
     dd8:	682e7365 	stmdavs	lr!, {r0, r2, r5, r6, r8, r9, ip, sp, lr}
     ddc:	00000200 	andeq	r0, r0, r0, lsl #4
     de0:	64647473 	strbtvs	r7, [r4], #-1139	; 0xfffffb8d
     de4:	682e6665 	stmdavs	lr!, {r0, r2, r5, r6, r9, sl, sp, lr}
     de8:	00000300 	andeq	r0, r0, r0, lsl #6
     dec:	6e656572 	mcrvs	5, 3, r6, cr5, cr2, {3}
     df0:	00682e74 	rsbeq	r2, r8, r4, ror lr
     df4:	72000002 	andvc	r0, r0, #2
     df8:	682e6970 	stmdavs	lr!, {r4, r5, r6, r8, fp, sp, lr}
     dfc:	00000400 	andeq	r0, r0, r0, lsl #8
     e00:	00240500 	eoreq	r0, r4, r0, lsl #10
     e04:	8b140205 	blhi	501620 <__bss_end__+0x4f75b0>
     e08:	06140000 	ldreq	r0, [r4], -r0
     e0c:	06260501 	strteq	r0, [r6], -r1, lsl #10
     e10:	2e34054a 	cdpcs	5, 3, cr0, cr4, cr10, {2}
     e14:	01060105 	tsteq	r6, r5, lsl #2
     e18:	4f061b05 	svcmi	0x00061b05
     e1c:	05130505 	ldreq	r0, [r3, #-1285]	; 0xfffffafb
     e20:	05010611 	streq	r0, [r1, #-1553]	; 0xfffff9ef
     e24:	23056701 	movwcs	r6, #22273	; 0x5701
     e28:	05056706 	streq	r6, [r5, #-1798]	; 0xfffff8fa
     e2c:	06110513 			; <UNDEFINED> instruction: 0x06110513
     e30:	4b010501 	blmi	4223c <__bss_end__+0x381cc>
     e34:	01000402 	tsteq	r0, r2, lsl #8
     e38:	00011201 	andeq	r1, r1, r1, lsl #4
     e3c:	c4000300 	strgt	r0, [r0], #-768	; 0xfffffd00
     e40:	02000000 	andeq	r0, r0, #0
     e44:	0d0efb01 	vstreq	d15, [lr, #-4]
     e48:	01010100 	mrseq	r0, (UNDEF: 17)
     e4c:	00000001 	andeq	r0, r0, r1
     e50:	01000001 	tsteq	r0, r1
     e54:	6362696c 	cmnvs	r2, #108, 18	; 0x1b0000
     e58:	73752f00 	cmnvc	r5, #0, 30
     e5c:	72612f72 	rsbvc	r2, r1, #456	; 0x1c8
     e60:	6f6e2d6d 	svcvs	0x006e2d6d
     e64:	652d656e 	strvs	r6, [sp, #-1390]!	; 0xfffffa92
     e68:	2f696261 	svccs	0x00696261
     e6c:	6c636e69 	stclvs	14, cr6, [r3], #-420	; 0xfffffe5c
     e70:	2f656475 	svccs	0x00656475
     e74:	00737973 	rsbseq	r7, r3, r3, ror r9
     e78:	7273752f 	rsbsvc	r7, r3, #197132288	; 0xbc00000
     e7c:	62696c2f 	rsbvs	r6, r9, #12032	; 0x2f00
     e80:	6363672f 	cmnvs	r3, #12320768	; 0xbc0000
     e84:	6d72612f 	ldfvse	f6, [r2, #-188]!	; 0xffffff44
     e88:	6e6f6e2d 	cdpvs	14, 6, cr6, cr15, cr13, {1}
     e8c:	61652d65 	cmnvs	r5, r5, ror #26
     e90:	392f6962 	stmdbcc	pc!, {r1, r5, r6, r8, fp, sp, lr}	; <UNPREDICTABLE>
     e94:	302e322e 	eorcc	r3, lr, lr, lsr #4
     e98:	636e692f 	cmnvs	lr, #770048	; 0xbc000
     e9c:	6564756c 	strbvs	r7, [r4, #-1388]!	; 0xfffffa94
     ea0:	6f682f00 	svcvs	0x00682f00
     ea4:	752f656d 	strvc	r6, [pc, #-1389]!	; 93f <_start-0x76c1>
     ea8:	2f726573 	svccs	0x00726573
     eac:	2f766544 	svccs	0x00766544
     eb0:	34325343 	ldrtcc	r5, [r2], #-835	; 0xfffffcbd
     eb4:	6c2f5830 	stcvs	8, cr5, [pc], #-192	; dfc <_start-0x7204>
     eb8:	69706269 	ldmdbvs	r0!, {r0, r3, r5, r6, r9, sp, lr}^
     ebc:	636e692f 	cmnvs	lr, #770048	; 0xbc000
     ec0:	6564756c 	strbvs	r7, [r4, #-1388]!	; 0xfffffa94
     ec4:	75700000 	ldrbvc	r0, [r0, #-0]!
     ec8:	632e6b74 			; <UNDEFINED> instruction: 0x632e6b74
     ecc:	00000100 	andeq	r0, r0, r0, lsl #2
     ed0:	6b636f6c 	blvs	18dcc88 <__bss_end__+0x18d2c18>
     ed4:	0200682e 	andeq	r6, r0, #3014656	; 0x2e0000
     ed8:	745f0000 	ldrbvc	r0, [pc], #-0	; ee0 <_start-0x7120>
     edc:	73657079 	cmnvc	r5, #121	; 0x79
     ee0:	0200682e 	andeq	r6, r0, #3014656	; 0x2e0000
     ee4:	74730000 	ldrbtvc	r0, [r3], #-0
     ee8:	66656464 	strbtvs	r6, [r5], -r4, ror #8
     eec:	0300682e 	movweq	r6, #2094	; 0x82e
     ef0:	65720000 	ldrbvs	r0, [r2, #-0]!
     ef4:	2e746e65 	cdpcs	14, 7, cr6, cr4, cr5, {3}
     ef8:	00020068 	andeq	r0, r2, r8, rrx
     efc:	69707200 	ldmdbvs	r0!, {r9, ip, sp, lr}^
     f00:	0400682e 	streq	r6, [r0], #-2094	; 0xfffff7d2
     f04:	05000000 	streq	r0, [r0, #-0]
     f08:	02050022 	andeq	r0, r5, #34	; 0x22
     f0c:	00008b50 	andeq	r8, r0, r0, asr fp
     f10:	05010615 	streq	r0, [r1, #-1557]	; 0xfffff9eb
     f14:	054b0605 	strbeq	r0, [fp, #-1541]	; 0xfffff9fb
     f18:	0402000b 	streq	r0, [r2], #-11
     f1c:	05050101 	streq	r0, [r5, #-257]	; 0xfffffeff
     f20:	01040200 	mrseq	r0, R12_usr
     f24:	09052e06 	stmdbeq	r5, {r1, r2, r9, sl, fp, sp}
     f28:	02040200 	andeq	r0, r4, #0, 4
     f2c:	0f054b06 	svceq	0x00054b06
     f30:	02040200 	andeq	r0, r4, #0, 4
     f34:	00100565 	andseq	r0, r0, r5, ror #10
     f38:	06020402 	streq	r0, [r2], -r2, lsl #8
     f3c:	04020001 	streq	r0, [r2], #-1
     f40:	05052e02 	streq	r2, [r5, #-3586]	; 0xfffff1fe
     f44:	01053206 	tsteq	r5, r6, lsl #4
     f48:	06021306 	streq	r1, [r2], -r6, lsl #6
     f4c:	0d010100 	stfeqs	f0, [r1, #-0]
     f50:	03000005 	movweq	r0, #5
     f54:	0000e300 	andeq	lr, r0, r0, lsl #6
     f58:	fb010200 	blx	41762 <__bss_end__+0x376f2>
     f5c:	01000d0e 	tsteq	r0, lr, lsl #26
     f60:	00010101 	andeq	r0, r1, r1, lsl #2
     f64:	00010000 	andeq	r0, r1, r0
     f68:	696c0100 	stmdbvs	ip!, {r8}^
     f6c:	2f006362 	svccs	0x00006362
     f70:	2f727375 	svccs	0x00727375
     f74:	2d6d7261 	sfmcs	f7, 2, [sp, #-388]!	; 0xfffffe7c
     f78:	656e6f6e 	strbvs	r6, [lr, #-3950]!	; 0xfffff092
     f7c:	6261652d 	rsbvs	r6, r1, #188743680	; 0xb400000
     f80:	6e692f69 	cdpvs	15, 6, cr2, cr9, cr9, {3}
     f84:	64756c63 	ldrbtvs	r6, [r5], #-3171	; 0xfffff39d
     f88:	79732f65 	ldmdbvc	r3!, {r0, r2, r5, r6, r8, r9, sl, fp, sp}^
     f8c:	752f0073 	strvc	r0, [pc, #-115]!	; f21 <_start-0x70df>
     f90:	6c2f7273 	sfmvs	f7, 4, [pc], #-460	; dcc <_start-0x7234>
     f94:	672f6269 	strvs	r6, [pc, -r9, ror #4]!
     f98:	612f6363 			; <UNDEFINED> instruction: 0x612f6363
     f9c:	6e2d6d72 	mcrvs	13, 1, r6, cr13, cr2, {3}
     fa0:	2d656e6f 	stclcs	14, cr6, [r5, #-444]!	; 0xfffffe44
     fa4:	69626165 	stmdbvs	r2!, {r0, r2, r5, r6, r8, sp, lr}^
     fa8:	322e392f 	eorcc	r3, lr, #770048	; 0xbc000
     fac:	692f302e 	stmdbvs	pc!, {r1, r2, r3, r5, ip, sp}	; <UNPREDICTABLE>
     fb0:	756c636e 	strbvc	r6, [ip, #-878]!	; 0xfffffc92
     fb4:	2f006564 	svccs	0x00006564
     fb8:	656d6f68 	strbvs	r6, [sp, #-3944]!	; 0xfffff098
     fbc:	6573752f 	ldrbvs	r7, [r3, #-1327]!	; 0xfffffad1
     fc0:	65442f72 	strbvs	r2, [r4, #-3954]	; 0xfffff08e
     fc4:	53432f76 	movtpl	r2, #16246	; 0x3f76
     fc8:	58303432 	ldmdapl	r0!, {r1, r4, r5, sl, ip, sp}
     fcc:	62696c2f 	rsbvs	r6, r9, #12032	; 0x2f00
     fd0:	692f6970 	stmdbvs	pc!, {r4, r5, r6, r8, fp, sp, lr}	; <UNPREDICTABLE>
     fd4:	756c636e 	strbvc	r6, [ip, #-878]!	; 0xfffffc92
     fd8:	00006564 	andeq	r6, r0, r4, ror #10
     fdc:	702d6176 	eorvc	r6, sp, r6, ror r1
     fe0:	746e6972 	strbtvc	r6, [lr], #-2418	; 0xfffff68e
     fe4:	00632e6b 	rsbeq	r2, r3, fp, ror #28
     fe8:	6c000001 	stcvs	0, cr0, [r0], {1}
     fec:	2e6b636f 	cdpcs	3, 6, cr6, cr11, cr15, {3}
     ff0:	00020068 	andeq	r0, r2, r8, rrx
     ff4:	79745f00 	ldmdbvc	r4!, {r8, r9, sl, fp, ip, lr}^
     ff8:	2e736570 	mrccs	5, 3, r6, cr3, cr0, {3}
     ffc:	00020068 	andeq	r0, r2, r8, rrx
    1000:	64747300 	ldrbtvs	r7, [r4], #-768	; 0xfffffd00
    1004:	2e666564 	cdpcs	5, 6, cr6, cr6, cr4, {3}
    1008:	00030068 	andeq	r0, r3, r8, rrx
    100c:	65657200 	strbvs	r7, [r5, #-512]!	; 0xfffffe00
    1010:	682e746e 	stmdavs	lr!, {r1, r2, r3, r5, r6, sl, ip, sp, lr}
    1014:	00000200 	andeq	r0, r0, r0, lsl #4
    1018:	2e697072 	mcrcs	0, 3, r7, cr9, cr2, {3}
    101c:	00040068 	andeq	r0, r4, r8, rrx
    1020:	64747300 	ldrbtvs	r7, [r4], #-768	; 0xfffffd00
    1024:	2e677261 	cdpcs	2, 6, cr7, cr7, cr1, {3}
    1028:	00030068 	andeq	r0, r3, r8, rrx
    102c:	75623c00 	strbvc	r3, [r2, #-3072]!	; 0xfffff400
    1030:	2d746c69 	ldclcs	12, cr6, [r4, #-420]!	; 0xfffffe5c
    1034:	003e6e69 	eorseq	r6, lr, r9, ror #28
    1038:	00000000 	andeq	r0, r0, r0
    103c:	05001b05 	streq	r1, [r0, #-2821]	; 0xfffff4fb
    1040:	008b8402 	addeq	r8, fp, r2, lsl #8
    1044:	01260300 			; <UNDEFINED> instruction: 0x01260300
    1048:	05011d05 	streq	r1, [r1, #-3333]	; 0xfffff2fb
    104c:	0501062d 	streq	r0, [r1, #-1581]	; 0xfffff9d3
    1050:	054a2e01 	strbeq	r2, [sl, #-3585]	; 0xfffff1ff
    1054:	05510633 	ldrbeq	r0, [r1, #-1587]	; 0xfffff9cd
    1058:	06051302 	streq	r1, [r5], -r2, lsl #6
    105c:	02050106 	andeq	r0, r5, #-2147483647	; 0x80000001
    1060:	08053006 	stmdaeq	r5, {r1, r2, ip, sp}
    1064:	01040200 	mrseq	r0, R12_usr
    1068:	00020501 	andeq	r0, r2, r1, lsl #10
    106c:	06010402 	streq	r0, [r1], -r2, lsl #8
    1070:	00030501 	andeq	r0, r3, r1, lsl #10
    1074:	06020402 	streq	r0, [r2], -r2, lsl #8
    1078:	0008052f 	andeq	r0, r8, pc, lsr #10
    107c:	06020402 	streq	r0, [r2], -r2, lsl #8
    1080:	00150501 	andseq	r0, r5, r1, lsl #10
    1084:	06020402 	streq	r0, [r2], -r2, lsl #8
    1088:	00180549 	andseq	r0, r8, r9, asr #10
    108c:	06020402 	streq	r0, [r2], -r2, lsl #8
    1090:	04020001 	streq	r0, [r2], #-1
    1094:	02052e02 	andeq	r2, r5, #2, 28
    1098:	05053006 	streq	r3, [r5, #-6]
    109c:	02050106 	andeq	r0, r5, #-2147483647	; 0x80000001
    10a0:	01054b06 	tsteq	r5, r6, lsl #22
    10a4:	3e051306 	cdpcc	3, 0, cr1, cr5, cr6, {0}
    10a8:	02053006 	andeq	r3, r5, #6
    10ac:	060e0514 			; <UNDEFINED> instruction: 0x060e0514
    10b0:	2e060501 	cfsh32cs	mvfx0, mvfx6, #1
    10b4:	2f060205 	svccs	0x00060205
    10b8:	01060405 	tsteq	r6, r5, lsl #8
    10bc:	2f060305 	svccs	0x00060305
    10c0:	01061105 	tsteq	r6, r5, lsl #2
    10c4:	052e0905 	streq	r0, [lr, #-2309]!	; 0xfffff6fb
    10c8:	15300602 	ldrne	r0, [r0, #-1538]!	; 0xfffff9fe
    10cc:	01060705 	tsteq	r6, r5, lsl #14
    10d0:	052e0205 	streq	r0, [lr, #-517]!	; 0xfffffdfb
    10d4:	0402000b 	streq	r0, [r2], #-11
    10d8:	052e0601 	streq	r0, [lr, #-1537]!	; 0xfffff9ff
    10dc:	04020002 	streq	r0, [r2], #-2
    10e0:	05010601 	streq	r0, [r1, #-1537]	; 0xfffff9ff
    10e4:	04020003 	streq	r0, [r2], #-3
    10e8:	052f0603 	streq	r0, [pc, #-1539]!	; aed <_start-0x7513>
    10ec:	0402000c 	streq	r0, [r2], #-12
    10f0:	05010603 	streq	r0, [r1, #-1539]	; 0xfffff9fd
    10f4:	0402000a 	streq	r0, [r2], #-10
    10f8:	17052e03 	strne	r2, [r5, -r3, lsl #28]
    10fc:	03040200 	movweq	r0, #16896	; 0x4200
    1100:	02002d06 	andeq	r2, r0, #384	; 0x180
    1104:	01060304 	tsteq	r6, r4, lsl #6
    1108:	30060205 	andcc	r0, r6, r5, lsl #4
    110c:	01060905 	tsteq	r6, r5, lsl #18
    1110:	0602052e 	streq	r0, [r2], -lr, lsr #10
    1114:	06010530 			; <UNDEFINED> instruction: 0x06010530
    1118:	06560513 			; <UNDEFINED> instruction: 0x06560513
    111c:	05010630 	streq	r0, [r1, #-1584]	; 0xfffff9d0
    1120:	05a00602 	streq	r0, [r0, #1538]!	; 0x602
    1124:	05010604 	streq	r0, [r1, #-1540]	; 0xfffff9fc
    1128:	052f0603 	streq	r0, [pc, #-1539]!	; b2d <_start-0x74d3>
    112c:	05010609 	streq	r0, [r1, #-1545]	; 0xfffff9f7
    1130:	13300602 	teqne	r0, #2097152	; 0x200000
    1134:	01060b05 	tsteq	r6, r5, lsl #22
    1138:	30060205 	andcc	r0, r6, r5, lsl #4
    113c:	04052e06 	streq	r2, [r5], #-3590	; 0xfffff1fa
    1140:	15240206 	strne	r0, [r4, #-518]!	; 0xfffffdfa
    1144:	060f0513 			; <UNDEFINED> instruction: 0x060f0513
    1148:	06052e01 	streq	r2, [r5], -r1, lsl #28
    114c:	0605054a 	streq	r0, [r5], -sl, asr #10
    1150:	0905134b 	stmdbeq	r5, {r0, r1, r3, r6, r8, r9, ip}
    1154:	05050106 	streq	r0, [r5, #-262]	; 0xfffffefa
    1158:	0b052f06 	bleq	14cd78 <__bss_end__+0x142d08>
    115c:	0d051006 	stceq	0, cr1, [r5, #-24]	; 0xffffffe8
    1160:	01040200 	mrseq	r0, R12_usr
    1164:	0004052c 	andeq	r0, r4, ip, lsr #10
    1168:	06010402 	streq	r0, [r1], -r2, lsl #8
    116c:	00050534 	andeq	r0, r5, r4, lsr r5
    1170:	13010402 	movwne	r0, #5122	; 0x1402
    1174:	02001b05 	andeq	r1, r0, #5120	; 0x1400
    1178:	01060104 	tsteq	r6, r4, lsl #2
    117c:	02000705 	andeq	r0, r0, #1310720	; 0x140000
    1180:	05d60104 	ldrbeq	r0, [r6, #260]	; 0x104
    1184:	04020018 	streq	r0, [r2], #-24	; 0xffffffe8
    1188:	0a052e01 	beq	14c994 <__bss_end__+0x142924>
    118c:	01040200 	mrseq	r0, R12_usr
    1190:	000b054a 	andeq	r0, fp, sl, asr #10
    1194:	06010402 	streq	r0, [r1], -r2, lsl #8
    1198:	000e052f 	andeq	r0, lr, pc, lsr #10
    119c:	06010402 	streq	r0, [r1], -r2, lsl #8
    11a0:	0004052e 	andeq	r0, r4, lr, lsr #10
    11a4:	2e010402 	cdpcs	4, 0, cr0, cr1, cr2, {0}
    11a8:	06054b06 	streq	r4, [r5], -r6, lsl #22
    11ac:	05050106 	streq	r0, [r5, #-262]	; 0xfffffefa
    11b0:	0a052f06 	beq	14cdd0 <__bss_end__+0x142d60>
    11b4:	07050106 	streq	r0, [r5, -r6, lsl #2]
    11b8:	0d052e4a 	stceq	14, cr2, [r5, #-296]	; 0xfffffed8
    11bc:	4a2e7603 	bmi	b9e9d0 <__bss_end__+0xb94960>
    11c0:	050d0b05 	streq	r0, [sp, #-2821]	; 0xfffff4fb
    11c4:	0402000d 	streq	r0, [r2], #-13
    11c8:	14030601 	strne	r0, [r3], #-1537	; 0xfffff9ff
    11cc:	0011052e 	andseq	r0, r1, lr, lsr #10
    11d0:	13010402 	movwne	r0, #5122	; 0x1402
    11d4:	02002d05 	andeq	r2, r0, #320	; 0x140
    11d8:	01060104 	tsteq	r6, r4, lsl #2
    11dc:	02002a05 	andeq	r2, r0, #20480	; 0x5000
    11e0:	052e0104 	streq	r0, [lr, #-260]!	; 0xfffffefc
    11e4:	04020016 	streq	r0, [r2], #-22	; 0xffffffea
    11e8:	14054a01 	strne	r4, [r5], #-2561	; 0xfffff5ff
    11ec:	01040200 	mrseq	r0, R12_usr
    11f0:	0d054b06 	vstreq	d4, [r5, #-24]	; 0xffffffe8
    11f4:	01040200 	mrseq	r0, R12_usr
    11f8:	02000106 	andeq	r0, r0, #-2147483647	; 0x80000001
    11fc:	064a0104 	strbeq	r0, [sl], -r4, lsl #2
    1200:	0612052f 	ldreq	r0, [r2], -pc, lsr #10
    1204:	0d054a01 	vstreq	s8, [r5, #-4]
    1208:	12052f06 	andne	r2, r5, #6, 30
    120c:	19050106 	stmdbne	r5, {r1, r2, r8}
    1210:	04054b06 	streq	r4, [r5], #-2822	; 0xfffff4fa
    1214:	02040200 	andeq	r0, r4, #0, 4
    1218:	00011103 	andeq	r1, r1, r3, lsl #2
    121c:	01020402 	tsteq	r2, r2, lsl #8
    1220:	02000205 	andeq	r0, r0, #1342177280	; 0x50000000
    1224:	05150204 	ldreq	r0, [r5, #-516]	; 0xfffffdfc
    1228:	04020009 	streq	r0, [r2], #-9
    122c:	00010602 	andeq	r0, r1, r2, lsl #12
    1230:	4a020402 	bmi	82240 <__bss_end__+0x781d0>
    1234:	02000105 	andeq	r0, r0, #1073741825	; 0x40000001
    1238:	059f0204 	ldreq	r0, [pc, #516]	; 1444 <_start-0x6bbc>
    123c:	6e030604 	cfmadd32vs	mvax0, mvfx0, mvfx3, mvfx4
    1240:	0609054a 	streq	r0, [r9], -sl, asr #10
    1244:	06040501 	streq	r0, [r4], -r1, lsl #10
    1248:	0606052f 	streq	r0, [r6], -pc, lsr #10
    124c:	2f040511 	svccs	0x00040511
    1250:	63030b05 	movwvs	r0, #15109	; 0x3b05
    1254:	0019052e 	andseq	r0, r9, lr, lsr #10
    1258:	06010402 	streq	r0, [r1], -r2, lsl #8
    125c:	052e2403 	streq	r2, [lr, #-1027]!	; 0xfffffbfd
    1260:	0402001a 	streq	r0, [r2], #-26	; 0xffffffe6
    1264:	28051301 	stmdacs	r5, {r0, r8, r9, ip}
    1268:	01040200 	mrseq	r0, R12_usr
    126c:	25050106 	strcs	r0, [r5, #-262]	; 0xfffffefa
    1270:	01040200 	mrseq	r0, R12_usr
    1274:	001f052e 	andseq	r0, pc, lr, lsr #10
    1278:	4a010402 	bmi	42288 <__bss_end__+0x38218>
    127c:	02000b05 	andeq	r0, r0, #5120	; 0x1400
    1280:	4b060104 	blmi	181698 <__bss_end__+0x177628>
    1284:	02000405 	andeq	r0, r0, #83886080	; 0x5000000
    1288:	01060104 	tsteq	r6, r4, lsl #2
    128c:	01040200 	mrseq	r0, R12_usr
    1290:	0402004a 	streq	r0, [r2], #-74	; 0xffffffb6
    1294:	004e0601 	subeq	r0, lr, r1, lsl #12
    1298:	01010402 	tsteq	r1, r2, lsl #8
    129c:	01040200 	mrseq	r0, R12_usr
    12a0:	04020001 	streq	r0, [r2], #-1
    12a4:	02000101 	andeq	r0, r0, #1073741824	; 0x40000000
    12a8:	002e0104 	eoreq	r0, lr, r4, lsl #2
    12ac:	9e010402 	cdpls	4, 0, cr0, cr1, cr2, {0}
    12b0:	a8034805 	stmdage	r3, {r0, r2, fp, lr}
    12b4:	0505f27f 	streq	pc, [r5, #-639]	; 0xfffffd81
    12b8:	2e060113 	mcrcs	1, 0, r0, cr6, cr3, {0}
    12bc:	02040200 	andeq	r0, r4, #0, 4
    12c0:	02002e06 	andeq	r2, r0, #6, 28	; 0x60
    12c4:	00010204 	andeq	r0, r1, r4, lsl #4
    12c8:	13020402 	movwne	r0, #9218	; 0x2402
    12cc:	02001105 	andeq	r1, r0, #1073741825	; 0x40000001
    12d0:	01060204 	tsteq	r6, r4, lsl #4
    12d4:	02000505 	andeq	r0, r0, #20971520	; 0x1400000
    12d8:	4b060204 	blmi	181af0 <__bss_end__+0x177a80>
    12dc:	02000705 	andeq	r0, r0, #1310720	; 0x140000
    12e0:	01060204 	tsteq	r6, r4, lsl #4
    12e4:	2f060905 	svccs	0x00060905
    12e8:	01060e05 	tsteq	r6, r5, lsl #28
    12ec:	02004805 	andeq	r4, r0, #327680	; 0x50000
    12f0:	05620104 	strbeq	r0, [r2, #-260]!	; 0xfffffefc
    12f4:	04020005 	streq	r0, [r2], #-5
    12f8:	002f0601 	eoreq	r0, pc, r1, lsl #12
    12fc:	01010402 	tsteq	r1, r2, lsl #8
    1300:	01040200 	mrseq	r0, R12_usr
    1304:	0402002e 	streq	r0, [r2], #-46	; 0xffffffd2
    1308:	40059e01 	andmi	r9, r5, r1, lsl #28
    130c:	ba00df03 	blt	38f20 <__bss_end__+0x2eeb0>
    1310:	02050106 	andeq	r0, r5, #-2147483647	; 0x80000001
    1314:	1e059f06 	cdpne	15, 0, cr9, cr5, cr6, {0}
    1318:	12050106 	andne	r0, r5, #-2147483647	; 0x80000001
    131c:	0602052e 	streq	r0, [r2], -lr, lsr #10
    1320:	06090530 			; <UNDEFINED> instruction: 0x06090530
    1324:	06020501 	streq	r0, [r2], -r1, lsl #10
    1328:	0608054b 	streq	r0, [r8], -fp, asr #10
    132c:	3102050f 	tstcc	r2, pc, lsl #10
    1330:	30060405 	andcc	r0, r6, r5, lsl #8
    1334:	01060f05 	tsteq	r6, r5, lsl #30
    1338:	052e0905 	streq	r0, [lr, #-2309]!	; 0xfffff6fb
    133c:	052c0608 	streq	r0, [ip, #-1544]!	; 0xfffff9f8
    1340:	052e0602 	streq	r0, [lr, #-1538]!	; 0xfffff9fe
    1344:	0402000d 	streq	r0, [r2], #-13
    1348:	03054a01 	movweq	r4, #23041	; 0x5a01
    134c:	05054b06 	streq	r4, [r5, #-2822]	; 0xfffff4fa
    1350:	08050106 	stmdaeq	r5, {r1, r2, r8}
    1354:	0e054d06 	cdpeq	13, 0, cr4, cr5, cr6, {0}
    1358:	0a050106 	beq	141778 <__bss_end__+0x137708>
    135c:	0604052e 	streq	r0, [r4], -lr, lsr #10
    1360:	0609052f 	streq	r0, [r9], -pc, lsr #10
    1364:	06040501 	streq	r0, [r4], -r1, lsl #10
    1368:	0607052f 	streq	r0, [r7], -pc, lsr #10
    136c:	04052e01 	streq	r2, [r5], #-3585	; 0xfffff1ff
    1370:	07053006 	streq	r3, [r5, -r6]
    1374:	04050106 	streq	r0, [r5], #-262	; 0xfffffefa
    1378:	14133006 	ldrne	r3, [r3], #-6
    137c:	10060d05 	andne	r0, r6, r5, lsl #26
    1380:	05300905 	ldreq	r0, [r0, #-2309]!	; 0xfffff6fb
    1384:	052f0605 	streq	r0, [pc, #-1541]!	; d87 <_start-0x7279>
    1388:	05010612 	streq	r0, [r1, #-1554]	; 0xfffff9ee
    138c:	0b052e16 	bleq	14cbec <__bss_end__+0x142b7c>
    1390:	0605052e 	streq	r0, [r5], -lr, lsr #10
    1394:	0608052f 	streq	r0, [r8], -pc, lsr #10
    1398:	06090501 	streq	r0, [r9], -r1, lsl #10
    139c:	0612052c 	ldreq	r0, [r2], -ip, lsr #10
    13a0:	2e0a0501 	cfsh32cs	mvfx0, mvfx10, #1
    13a4:	054a0905 	strbeq	r0, [sl, #-2309]	; 0xfffff6fb
    13a8:	014e0604 	cmpeq	lr, r4, lsl #12
    13ac:	0014014a 	andseq	r0, r4, sl, asr #2
    13b0:	02010402 	andeq	r0, r1, #33554432	; 0x2000000
    13b4:	02001036 	andeq	r1, r0, #54	; 0x36
    13b8:	00010104 	andeq	r0, r1, r4, lsl #2
    13bc:	2e010402 	cdpcs	4, 0, cr0, cr1, cr2, {0}
    13c0:	01040200 	mrseq	r0, R12_usr
    13c4:	3405059e 	strcc	r0, [r5], #-1438	; 0xfffffa62
    13c8:	2e9e2e01 	cdpcs	14, 9, cr2, cr14, cr1, {0}
    13cc:	05010e03 	streq	r0, [r1, #-3587]	; 0xfffff1fd
    13d0:	05010609 	streq	r0, [r1, #-1545]	; 0xfffff9f7
    13d4:	59080605 	stmdbpl	r8, {r0, r2, r9, sl}
    13d8:	15030405 	strne	r0, [r3, #-1029]	; 0xfffffbfb
    13dc:	06070501 	streq	r0, [r7], -r1, lsl #10
    13e0:	06040501 	streq	r0, [r4], -r1, lsl #10
    13e4:	010a0531 	tsteq	sl, r1, lsr r5
    13e8:	01060405 	tsteq	r6, r5, lsl #8
    13ec:	02001305 	andeq	r1, r0, #335544320	; 0x14000000
    13f0:	054a0104 	strbeq	r0, [sl, #-260]	; 0xfffffefc
    13f4:	04020010 	streq	r0, [r2], #-16
    13f8:	05052e01 	streq	r2, [r5, #-3585]	; 0xfffff1ff
    13fc:	0e054b06 	vmlaeq.f64	d4, d5, d6
    1400:	0a050106 	beq	141820 <__bss_end__+0x1377b0>
    1404:	05052e2e 	streq	r2, [r5, #-3630]	; 0xfffff1d2
    1408:	2e690306 	cdpcs	3, 6, cr0, cr9, cr6, {0}
    140c:	01061c05 	tsteq	r6, r5, lsl #24
    1410:	05820905 	streq	r0, [r2, #2309]	; 0x905
    1414:	31d70605 	bicscc	r0, r7, r5, lsl #12
    1418:	01061c05 	tsteq	r6, r5, lsl #24
    141c:	05820905 	streq	r0, [r2, #2309]	; 0x905
    1420:	30d70605 	sbcscc	r0, r7, r5, lsl #12
    1424:	01061b05 	tsteq	r6, r5, lsl #22
    1428:	05820905 	streq	r0, [r2, #2309]	; 0x905
    142c:	30d70605 	sbcscc	r0, r7, r5, lsl #12
    1430:	01060705 	tsteq	r6, r5, lsl #14
    1434:	83060505 	movwhi	r0, #25861	; 0x6505
    1438:	06090530 			; <UNDEFINED> instruction: 0x06090530
    143c:	06050501 	streq	r0, [r5], -r1, lsl #10
    1440:	01305908 	teqeq	r0, r8, lsl #18
    1444:	2e06d62e 	cfmadd32cs	mvax1, mvfx13, mvfx6, mvfx14
    1448:	03060205 	movweq	r0, #25093	; 0x6205
    144c:	0705010a 	streq	r0, [r5, -sl, lsl #2]
    1450:	02050106 	andeq	r0, r5, #-2147483647	; 0x80000001
    1454:	01054b06 	tsteq	r5, r6, lsl #22
    1458:	02661306 	rsbeq	r1, r6, #402653184	; 0x18000000
    145c:	0101000a 	tsteq	r1, sl
    1460:	000000eb 	andeq	r0, r0, fp, ror #1
    1464:	00d10003 	sbcseq	r0, r1, r3
    1468:	01020000 	mrseq	r0, (UNDEF: 2)
    146c:	000d0efb 	strdeq	r0, [sp], -fp
    1470:	01010101 	tsteq	r1, r1, lsl #2
    1474:	01000000 	mrseq	r0, (UNDEF: 0)
    1478:	73010000 	movwvc	r0, #4096	; 0x1000
    147c:	66666174 			; <UNDEFINED> instruction: 0x66666174
    1480:	6372732d 	cmnvs	r2, #-1275068416	; 0xb4000000
    1484:	73752f00 	cmnvc	r5, #0, 30
    1488:	72612f72 	rsbvc	r2, r1, #456	; 0x1c8
    148c:	6f6e2d6d 	svcvs	0x006e2d6d
    1490:	652d656e 	strvs	r6, [sp, #-1390]!	; 0xfffffa92
    1494:	2f696261 	svccs	0x00696261
    1498:	6c636e69 	stclvs	14, cr6, [r3], #-420	; 0xfffffe5c
    149c:	2f656475 	svccs	0x00656475
    14a0:	00737973 	rsbseq	r7, r3, r3, ror r9
    14a4:	7273752f 	rsbsvc	r7, r3, #197132288	; 0xbc00000
    14a8:	62696c2f 	rsbvs	r6, r9, #12032	; 0x2f00
    14ac:	6363672f 	cmnvs	r3, #12320768	; 0xbc0000
    14b0:	6d72612f 	ldfvse	f6, [r2, #-188]!	; 0xffffff44
    14b4:	6e6f6e2d 	cdpvs	14, 6, cr6, cr15, cr13, {1}
    14b8:	61652d65 	cmnvs	r5, r5, ror #26
    14bc:	392f6962 	stmdbcc	pc!, {r1, r5, r6, r8, fp, sp, lr}	; <UNPREDICTABLE>
    14c0:	302e322e 	eorcc	r3, lr, lr, lsr #4
    14c4:	636e692f 	cmnvs	lr, #770048	; 0xbc000
    14c8:	6564756c 	strbvs	r7, [r4, #-1388]!	; 0xfffffa94
    14cc:	6f682f00 	svcvs	0x00682f00
    14d0:	752f656d 	strvc	r6, [pc, #-1389]!	; f6b <_start-0x7095>
    14d4:	2f726573 	svccs	0x00726573
    14d8:	2f766544 	svccs	0x00766544
    14dc:	34325343 	ldrtcc	r5, [r2], #-835	; 0xfffffcbd
    14e0:	6c2f5830 	stcvs	8, cr5, [pc], #-192	; 1428 <_start-0x6bd8>
    14e4:	69706269 	ldmdbvs	r0!, {r0, r3, r5, r6, r9, sp, lr}^
    14e8:	636e692f 	cmnvs	lr, #770048	; 0xbc000
    14ec:	6564756c 	strbvs	r7, [r4, #-1388]!	; 0xfffffa94
    14f0:	6c630000 	stclvs	0, cr0, [r3], #-0
    14f4:	2d6e6165 	stfcse	f6, [lr, #-404]!	; 0xfffffe6c
    14f8:	6f626572 	svcvs	0x00626572
    14fc:	632e746f 			; <UNDEFINED> instruction: 0x632e746f
    1500:	00000100 	andeq	r0, r0, r0, lsl #2
    1504:	6b636f6c 	blvs	18dd2bc <__bss_end__+0x18d324c>
    1508:	0200682e 	andeq	r6, r0, #3014656	; 0x2e0000
    150c:	745f0000 	ldrbvc	r0, [pc], #-0	; 1514 <_start-0x6aec>
    1510:	73657079 	cmnvc	r5, #121	; 0x79
    1514:	0200682e 	andeq	r6, r0, #3014656	; 0x2e0000
    1518:	74730000 	ldrbtvc	r0, [r3], #-0
    151c:	66656464 	strbtvs	r6, [r5], -r4, ror #8
    1520:	0300682e 	movweq	r6, #2094	; 0x82e
    1524:	65720000 	ldrbvs	r0, [r2, #-0]!
    1528:	2e746e65 	cdpcs	14, 7, cr6, cr4, cr5, {3}
    152c:	00020068 	andeq	r0, r2, r8, rrx
    1530:	69707200 	ldmdbvs	r0!, {r9, ip, sp, lr}^
    1534:	0400682e 	streq	r6, [r0], #-2094	; 0xfffff7d2
    1538:	05000000 	streq	r0, [r0, #-0]
    153c:	02050019 	andeq	r0, r5, #25
    1540:	000090a4 	andeq	r9, r0, r4, lsr #1
    1544:	2f050515 	svccs	0x00050515
    1548:	06024b83 	streq	r4, [r2], -r3, lsl #23
    154c:	04010100 	streq	r0, [r1], #-256	; 0xffffff00
    1550:	03000001 	movweq	r0, #1
    1554:	0000cb00 	andeq	ip, r0, r0, lsl #22
    1558:	fb010200 	blx	41d62 <__bss_end__+0x37cf2>
    155c:	01000d0e 	tsteq	r0, lr, lsl #26
    1560:	00010101 	andeq	r0, r1, r1, lsl #2
    1564:	00010000 	andeq	r0, r1, r0
    1568:	74730100 	ldrbtvc	r0, [r3], #-256	; 0xffffff00
    156c:	2d666661 	stclcs	6, cr6, [r6, #-388]!	; 0xfffffe7c
    1570:	00637273 	rsbeq	r7, r3, r3, ror r2
    1574:	7273752f 	rsbsvc	r7, r3, #197132288	; 0xbc00000
    1578:	6d72612f 	ldfvse	f6, [r2, #-188]!	; 0xffffff44
    157c:	6e6f6e2d 	cdpvs	14, 6, cr6, cr15, cr13, {1}
    1580:	61652d65 	cmnvs	r5, r5, ror #26
    1584:	692f6962 	stmdbvs	pc!, {r1, r5, r6, r8, fp, sp, lr}	; <UNPREDICTABLE>
    1588:	756c636e 	strbvc	r6, [ip, #-878]!	; 0xfffffc92
    158c:	732f6564 			; <UNDEFINED> instruction: 0x732f6564
    1590:	2f007379 	svccs	0x00007379
    1594:	2f727375 	svccs	0x00727375
    1598:	2f62696c 	svccs	0x0062696c
    159c:	2f636367 	svccs	0x00636367
    15a0:	2d6d7261 	sfmcs	f7, 2, [sp, #-388]!	; 0xfffffe7c
    15a4:	656e6f6e 	strbvs	r6, [lr, #-3950]!	; 0xfffff092
    15a8:	6261652d 	rsbvs	r6, r1, #188743680	; 0xb400000
    15ac:	2e392f69 	cdpcs	15, 3, cr2, cr9, cr9, {3}
    15b0:	2f302e32 	svccs	0x00302e32
    15b4:	6c636e69 	stclvs	14, cr6, [r3], #-420	; 0xfffffe5c
    15b8:	00656475 	rsbeq	r6, r5, r5, ror r4
    15bc:	6d6f682f 	stclvs	8, cr6, [pc, #-188]!	; 1508 <_start-0x6af8>
    15c0:	73752f65 	cmnvc	r5, #404	; 0x194
    15c4:	442f7265 	strtmi	r7, [pc], #-613	; 15cc <_start-0x6a34>
    15c8:	432f7665 			; <UNDEFINED> instruction: 0x432f7665
    15cc:	30343253 	eorscc	r3, r4, r3, asr r2
    15d0:	696c2f58 	stmdbvs	ip!, {r3, r4, r6, r8, r9, sl, fp, sp}^
    15d4:	2f697062 	svccs	0x00697062
    15d8:	6c636e69 	stclvs	14, cr6, [r3], #-420	; 0xfffffe5c
    15dc:	00656475 	rsbeq	r6, r5, r5, ror r4
    15e0:	74736300 	ldrbtvc	r6, [r3], #-768	; 0xfffffd00
    15e4:	2e747261 	cdpcs	2, 7, cr7, cr4, cr1, {3}
    15e8:	00010063 	andeq	r0, r1, r3, rrx
    15ec:	636f6c00 	cmnvs	pc, #0, 24
    15f0:	00682e6b 	rsbeq	r2, r8, fp, ror #28
    15f4:	5f000002 	svcpl	0x00000002
    15f8:	65707974 	ldrbvs	r7, [r0, #-2420]!	; 0xfffff68c
    15fc:	00682e73 	rsbeq	r2, r8, r3, ror lr
    1600:	73000002 	movwvc	r0, #2
    1604:	65646474 	strbvs	r6, [r4, #-1140]!	; 0xfffffb8c
    1608:	00682e66 	rsbeq	r2, r8, r6, ror #28
    160c:	72000003 	andvc	r0, r0, #3
    1610:	746e6565 	strbtvc	r6, [lr], #-1381	; 0xfffffa9b
    1614:	0200682e 	andeq	r6, r0, #3014656	; 0x2e0000
    1618:	70720000 	rsbsvc	r0, r2, r0
    161c:	00682e69 	rsbeq	r2, r8, r9, ror #28
    1620:	00000004 	andeq	r0, r0, r4
    1624:	05001005 	streq	r1, [r0, #-5]
    1628:	0090cc02 	addseq	ip, r0, r2, lsl #24
    162c:	010c0300 	mrseq	r0, LR_mon
    1630:	052f0505 	streq	r0, [pc, #-1285]!	; 1133 <_start-0x6ecd>
    1634:	05051302 	streq	r1, [r5, #-770]	; 0xfffffcfe
    1638:	05141314 	ldreq	r1, [r4, #-788]	; 0xfffffcec
    163c:	060f060a 	streq	r0, [pc], -sl, lsl #12
    1640:	4b090531 	blmi	242b0c <__bss_end__+0x238a9c>
    1644:	01061005 	tsteq	r6, r5
    1648:	0605054a 	streq	r0, [r5], -sl, asr #10
    164c:	052e1403 	streq	r1, [lr, #-1027]!	; 0xfffffbfd
    1650:	06022f02 	streq	r2, [r2], -r2, lsl #30
    1654:	38010100 	stmdacc	r1, {r8}
    1658:	03000001 	movweq	r0, #1
    165c:	0000cb00 	andeq	ip, r0, r0, lsl #22
    1660:	fb010200 	blx	41e6a <__bss_end__+0x37dfa>
    1664:	01000d0e 	tsteq	r0, lr, lsl #26
    1668:	00010101 	andeq	r0, r1, r1, lsl #2
    166c:	00010000 	andeq	r0, r1, r0
    1670:	74730100 	ldrbtvc	r0, [r3], #-256	; 0xffffff00
    1674:	2d666661 	stclcs	6, cr6, [r6, #-388]!	; 0xfffffe7c
    1678:	00637273 	rsbeq	r7, r3, r3, ror r2
    167c:	7273752f 	rsbsvc	r7, r3, #197132288	; 0xbc00000
    1680:	6d72612f 	ldfvse	f6, [r2, #-188]!	; 0xffffff44
    1684:	6e6f6e2d 	cdpvs	14, 6, cr6, cr15, cr13, {1}
    1688:	61652d65 	cmnvs	r5, r5, ror #26
    168c:	692f6962 	stmdbvs	pc!, {r1, r5, r6, r8, fp, sp, lr}	; <UNPREDICTABLE>
    1690:	756c636e 	strbvc	r6, [ip, #-878]!	; 0xfffffc92
    1694:	732f6564 			; <UNDEFINED> instruction: 0x732f6564
    1698:	2f007379 	svccs	0x00007379
    169c:	2f727375 	svccs	0x00727375
    16a0:	2f62696c 	svccs	0x0062696c
    16a4:	2f636367 	svccs	0x00636367
    16a8:	2d6d7261 	sfmcs	f7, 2, [sp, #-388]!	; 0xfffffe7c
    16ac:	656e6f6e 	strbvs	r6, [lr, #-3950]!	; 0xfffff092
    16b0:	6261652d 	rsbvs	r6, r1, #188743680	; 0xb400000
    16b4:	2e392f69 	cdpcs	15, 3, cr2, cr9, cr9, {3}
    16b8:	2f302e32 	svccs	0x00302e32
    16bc:	6c636e69 	stclvs	14, cr6, [r3], #-420	; 0xfffffe5c
    16c0:	00656475 	rsbeq	r6, r5, r5, ror r4
    16c4:	6d6f682f 	stclvs	8, cr6, [pc, #-188]!	; 1610 <_start-0x69f0>
    16c8:	73752f65 	cmnvc	r5, #404	; 0x194
    16cc:	442f7265 	strtmi	r7, [pc], #-613	; 16d4 <_start-0x692c>
    16d0:	432f7665 			; <UNDEFINED> instruction: 0x432f7665
    16d4:	30343253 	eorscc	r3, r4, r3, asr r2
    16d8:	696c2f58 	stmdbvs	ip!, {r3, r4, r6, r8, r9, sl, fp, sp}^
    16dc:	2f697062 	svccs	0x00697062
    16e0:	6c636e69 	stclvs	14, cr6, [r3], #-420	; 0xfffffe5c
    16e4:	00656475 	rsbeq	r6, r5, r5, ror r4
    16e8:	62657200 	rsbvs	r7, r5, #0, 4
    16ec:	2e746f6f 	cdpcs	15, 7, cr6, cr4, cr15, {3}
    16f0:	00010063 	andeq	r0, r1, r3, rrx
    16f4:	636f6c00 	cmnvs	pc, #0, 24
    16f8:	00682e6b 	rsbeq	r2, r8, fp, ror #28
    16fc:	5f000002 	svcpl	0x00000002
    1700:	65707974 	ldrbvs	r7, [r0, #-2420]!	; 0xfffff68c
    1704:	00682e73 	rsbeq	r2, r8, r3, ror lr
    1708:	73000002 	movwvc	r0, #2
    170c:	65646474 	strbvs	r6, [r4, #-1140]!	; 0xfffffb8c
    1710:	00682e66 	rsbeq	r2, r8, r6, ror #28
    1714:	72000003 	andvc	r0, r0, #3
    1718:	746e6565 	strbtvc	r6, [lr], #-1381	; 0xfffffa9b
    171c:	0200682e 	andeq	r6, r0, #3014656	; 0x2e0000
    1720:	70720000 	rsbsvc	r0, r2, r0
    1724:	00682e69 	rsbeq	r2, r8, r9, ror #28
    1728:	00000004 	andeq	r0, r0, r4
    172c:	05001905 	streq	r1, [r0, #-2309]	; 0xfffff6fb
    1730:	0090f802 	addseq	pc, r0, r2, lsl #16
    1734:	010d0300 	mrseq	r0, SP_mon
    1738:	13130505 	tstne	r3, #20971520	; 0x1400000
    173c:	06130531 			; <UNDEFINED> instruction: 0x06130531
    1740:	2f010501 	svccs	0x00010501
    1744:	85061b05 	strhi	r1, [r6, #-2821]	; 0xfffff4fb
    1748:	14130505 	ldrne	r0, [r3], #-1285	; 0xfffffafb
    174c:	052f0905 	streq	r0, [pc, #-2309]!	; e4f <_start-0x71b1>
    1750:	05010616 	streq	r0, [r1, #-1558]	; 0xfffff9ea
    1754:	05052e0e 	streq	r2, [r5, #-3598]	; 0xfffff1f2
    1758:	01052f06 	tsteq	r5, r6, lsl #30
    175c:	17052f06 	strne	r2, [r5, -r6, lsl #30]
    1760:	05053006 	streq	r3, [r5, #-6]
    1764:	0608052f 	streq	r0, [r8], -pc, lsr #10
    1768:	2e070501 	cfsh32cs	mvfx0, mvfx7, #1
    176c:	52060505 	andpl	r0, r6, #20971520	; 0x1400000
    1770:	1313134c 	tstne	r3, #76, 6	; 0x30000001
    1774:	02006715 	andeq	r6, r0, #5505024	; 0x540000
    1778:	05670104 	strbeq	r0, [r7, #-260]!	; 0xfffffefc
    177c:	0402000d 	streq	r0, [r2], #-13
    1780:	0a050101 	beq	141b8c <__bss_end__+0x137b1c>
    1784:	01040200 	mrseq	r0, R12_usr
    1788:	03090501 	movweq	r0, #38145	; 0x9501
    178c:	0c022e6f 	stceq	14, cr2, [r2], {111}	; 0x6f
    1790:	5a010100 	bpl	41b98 <__bss_end__+0x37b28>
    1794:	03000001 	movweq	r0, #1
    1798:	0000ca00 	andeq	ip, r0, r0, lsl #20
    179c:	fb010200 	blx	41fa6 <__bss_end__+0x37f36>
    17a0:	01000d0e 	tsteq	r0, lr, lsl #26
    17a4:	00010101 	andeq	r0, r1, r1, lsl #2
    17a8:	00010000 	andeq	r0, r1, r0
    17ac:	74730100 	ldrbtvc	r0, [r3], #-256	; 0xffffff00
    17b0:	2d666661 	stclcs	6, cr6, [r6, #-388]!	; 0xfffffe7c
    17b4:	00637273 	rsbeq	r7, r3, r3, ror r2
    17b8:	7273752f 	rsbsvc	r7, r3, #197132288	; 0xbc00000
    17bc:	6d72612f 	ldfvse	f6, [r2, #-188]!	; 0xffffff44
    17c0:	6e6f6e2d 	cdpvs	14, 6, cr6, cr15, cr13, {1}
    17c4:	61652d65 	cmnvs	r5, r5, ror #26
    17c8:	692f6962 	stmdbvs	pc!, {r1, r5, r6, r8, fp, sp, lr}	; <UNPREDICTABLE>
    17cc:	756c636e 	strbvc	r6, [ip, #-878]!	; 0xfffffc92
    17d0:	732f6564 			; <UNDEFINED> instruction: 0x732f6564
    17d4:	2f007379 	svccs	0x00007379
    17d8:	2f727375 	svccs	0x00727375
    17dc:	2f62696c 	svccs	0x0062696c
    17e0:	2f636367 	svccs	0x00636367
    17e4:	2d6d7261 	sfmcs	f7, 2, [sp, #-388]!	; 0xfffffe7c
    17e8:	656e6f6e 	strbvs	r6, [lr, #-3950]!	; 0xfffff092
    17ec:	6261652d 	rsbvs	r6, r1, #188743680	; 0xb400000
    17f0:	2e392f69 	cdpcs	15, 3, cr2, cr9, cr9, {3}
    17f4:	2f302e32 	svccs	0x00302e32
    17f8:	6c636e69 	stclvs	14, cr6, [r3], #-420	; 0xfffffe5c
    17fc:	00656475 	rsbeq	r6, r5, r5, ror r4
    1800:	6d6f682f 	stclvs	8, cr6, [pc, #-188]!	; 174c <_start-0x68b4>
    1804:	73752f65 	cmnvc	r5, #404	; 0x194
    1808:	442f7265 	strtmi	r7, [pc], #-613	; 1810 <_start-0x67f0>
    180c:	432f7665 			; <UNDEFINED> instruction: 0x432f7665
    1810:	30343253 	eorscc	r3, r4, r3, asr r2
    1814:	696c2f58 	stmdbvs	ip!, {r3, r4, r6, r8, r9, sl, fp, sp}^
    1818:	2f697062 	svccs	0x00697062
    181c:	6c636e69 	stclvs	14, cr6, [r3], #-420	; 0xfffffe5c
    1820:	00656475 	rsbeq	r6, r5, r5, ror r4
    1824:	6d697400 	cfstrdvs	mvd7, [r9, #-0]
    1828:	632e7265 			; <UNDEFINED> instruction: 0x632e7265
    182c:	00000100 	andeq	r0, r0, r0, lsl #2
    1830:	6b636f6c 	blvs	18dd5e8 <__bss_end__+0x18d3578>
    1834:	0200682e 	andeq	r6, r0, #3014656	; 0x2e0000
    1838:	745f0000 	ldrbvc	r0, [pc], #-0	; 1840 <_start-0x67c0>
    183c:	73657079 	cmnvc	r5, #121	; 0x79
    1840:	0200682e 	andeq	r6, r0, #3014656	; 0x2e0000
    1844:	74730000 	ldrbtvc	r0, [r3], #-0
    1848:	66656464 	strbtvs	r6, [r5], -r4, ror #8
    184c:	0300682e 	movweq	r6, #2094	; 0x82e
    1850:	65720000 	ldrbvs	r0, [r2, #-0]!
    1854:	2e746e65 	cdpcs	14, 7, cr6, cr4, cr5, {3}
    1858:	00020068 	andeq	r0, r2, r8, rrx
    185c:	69707200 	ldmdbvs	r0!, {r9, ip, sp, lr}^
    1860:	0400682e 	streq	r6, [r0], #-2094	; 0xfffff7d2
    1864:	05000000 	streq	r0, [r0, #-0]
    1868:	02050023 	andeq	r0, r5, #35	; 0x23
    186c:	00009170 	andeq	r9, r0, r0, ror r1
    1870:	14050516 	strne	r0, [r5], #-1302	; 0xfffffaea
    1874:	05010a05 	streq	r0, [r1, #-2565]	; 0xfffff5fb
    1878:	05010610 	streq	r0, [r1, #-1552]	; 0xfffff9f0
    187c:	09052e0a 	stmdbeq	r5, {r1, r3, r9, sl, fp, sp}
    1880:	10054b06 	andne	r4, r5, r6, lsl #22
    1884:	23052d06 	movwcs	r2, #23814	; 0x5d06
    1888:	4a0a0306 	bmi	2824a8 <__bss_end__+0x278438>
    188c:	052f0505 	streq	r0, [pc, #-1285]!	; 138f <_start-0x6c71>
    1890:	0501060c 	streq	r0, [r1, #-1548]	; 0xfffff9f4
    1894:	1f054b01 	svcne	0x00054b01
    1898:	05054d06 	streq	r4, [r5, #-3334]	; 0xfffff2fa
    189c:	06120532 			; <UNDEFINED> instruction: 0x06120532
    18a0:	06050501 	streq	r0, [r5], -r1, lsl #10
    18a4:	06010530 			; <UNDEFINED> instruction: 0x06010530
    18a8:	061c0513 			; <UNDEFINED> instruction: 0x061c0513
    18ac:	05010630 	streq	r0, [r1, #-1584]	; 0xfffff9d0
    18b0:	054b0605 	strbeq	r0, [fp, #-1541]	; 0xfffff9fb
    18b4:	2e010613 	mcrcs	6, 0, r0, cr1, cr3, {0}
    18b8:	2f060505 	svccs	0x00060505
    18bc:	05130905 	ldreq	r0, [r3, #-2309]	; 0xfffff6fb
    18c0:	05010617 	streq	r0, [r1, #-1559]	; 0xfffff9e9
    18c4:	052f0609 	streq	r0, [pc, #-1545]!	; 12c3 <_start-0x6d3d>
    18c8:	05010611 	streq	r0, [r1, #-1553]	; 0xfffff9ef
    18cc:	1c052e0c 	stcne	14, cr2, [r5], {12}
    18d0:	01066b06 	tsteq	r6, r6, lsl #22
    18d4:	2f060505 	svccs	0x00060505
    18d8:	01054a06 	tsteq	r5, r6, lsl #20
    18dc:	061e054b 	ldreq	r0, [lr], -fp, asr #10
    18e0:	0501062f 	streq	r0, [r1, #-1583]	; 0xfffff9d1
    18e4:	062f0605 	strteq	r0, [pc], -r5, lsl #12
    18e8:	4b01054a 	blmi	42e18 <__bss_end__+0x38da8>
    18ec:	01000202 	tsteq	r0, r2, lsl #4
    18f0:	00014801 	andeq	r4, r1, r1, lsl #16
    18f4:	02000200 	andeq	r0, r0, #0, 4
    18f8:	02000001 	andeq	r0, r0, #1
    18fc:	0d0efb01 	vstreq	d15, [lr, #-4]
    1900:	01010100 	mrseq	r0, (UNDEF: 17)
    1904:	00000001 	andeq	r0, r0, r1
    1908:	01000001 	tsteq	r0, r1
    190c:	7273752f 	rsbsvc	r7, r3, #197132288	; 0xbc00000
    1910:	636e692f 	cmnvs	lr, #770048	; 0xbc000
    1914:	6564756c 	strbvs	r7, [r4, #-1388]!	; 0xfffffa94
    1918:	77656e2f 	strbvc	r6, [r5, -pc, lsr #28]!
    191c:	2f62696c 	svccs	0x0062696c
    1920:	00737973 	rsbseq	r7, r3, r3, ror r9
    1924:	7273752f 	rsbsvc	r7, r3, #197132288	; 0xbc00000
    1928:	62696c2f 	rsbvs	r6, r9, #12032	; 0x2f00
    192c:	6363672f 	cmnvs	r3, #12320768	; 0xbc0000
    1930:	6d72612f 	ldfvse	f6, [r2, #-188]!	; 0xffffff44
    1934:	6e6f6e2d 	cdpvs	14, 6, cr6, cr15, cr13, {1}
    1938:	61652d65 	cmnvs	r5, r5, ror #26
    193c:	362f6962 	strtcc	r6, [pc], -r2, ror #18
    1940:	312e332e 			; <UNDEFINED> instruction: 0x312e332e
    1944:	636e692f 	cmnvs	lr, #770048	; 0xbc000
    1948:	6564756c 	strbvs	r7, [r4, #-1388]!	; 0xfffffa94
    194c:	6f682f00 	svcvs	0x00682f00
    1950:	652f656d 	strvs	r6, [pc, #-1389]!	; 13eb <_start-0x6c15>
    1954:	656c676e 	strbvs	r6, [ip, #-1902]!	; 0xfffff892
    1958:	6c632f72 	stclvs	15, cr2, [r3], #-456	; 0xfffffe38
    195c:	2f737361 	svccs	0x00737361
    1960:	34327363 	ldrtcc	r7, [r2], #-867	; 0xfffffc9d
    1964:	2d786c30 	ldclcs	12, cr6, [r8, #-192]!	; 0xffffff40
    1968:	70733032 	rsbsvc	r3, r3, r2, lsr r0
    196c:	6c2f2f72 	stcvs	15, cr2, [pc], #-456	; 17ac <_start-0x6854>
    1970:	69706269 	ldmdbvs	r0!, {r0, r3, r5, r6, r9, sp, lr}^
    1974:	6f682f00 	svcvs	0x00682f00
    1978:	652f656d 	strvs	r6, [pc, #-1389]!	; 1413 <_start-0x6bed>
    197c:	656c676e 	strbvs	r6, [ip, #-1902]!	; 0xfffff892
    1980:	6c632f72 	stclvs	15, cr2, [r3], #-456	; 0xfffffe38
    1984:	2f737361 	svccs	0x00737361
    1988:	34327363 	ldrtcc	r7, [r2], #-867	; 0xfffffc9d
    198c:	2d786c30 	ldclcs	12, cr6, [r8, #-192]!	; 0xffffff40
    1990:	70733032 	rsbsvc	r3, r3, r2, lsr r0
    1994:	6c2f2f72 	stcvs	15, cr2, [pc], #-456	; 17d4 <_start-0x682c>
    1998:	69706269 	ldmdbvs	r0!, {r0, r3, r5, r6, r9, sp, lr}^
    199c:	6174732f 	cmnvs	r4, pc, lsr #6
    19a0:	732d6666 			; <UNDEFINED> instruction: 0x732d6666
    19a4:	00006372 	andeq	r6, r0, r2, ror r3
    19a8:	74726175 	ldrbtvc	r6, [r2], #-373	; 0xfffffe8b
    19ac:	0000632e 	andeq	r6, r0, lr, lsr #6
    19b0:	6f6c0000 	svcvs	0x006c0000
    19b4:	682e6b63 	stmdavs	lr!, {r0, r1, r5, r6, r8, r9, fp, sp, lr}
    19b8:	00000100 	andeq	r0, r0, r0, lsl #2
    19bc:	7079745f 	rsbsvc	r7, r9, pc, asr r4
    19c0:	682e7365 	stmdavs	lr!, {r0, r2, r5, r6, r8, r9, ip, sp, lr}
    19c4:	00000100 	andeq	r0, r0, r0, lsl #2
    19c8:	64647473 	strbtvs	r7, [r4], #-1139	; 0xfffffb8d
    19cc:	682e6665 	stmdavs	lr!, {r0, r2, r5, r6, r9, sl, sp, lr}
    19d0:	00000200 	andeq	r0, r0, r0, lsl #4
    19d4:	6e656572 	mcrvs	5, 3, r6, cr5, cr2, {3}
    19d8:	00682e74 	rsbeq	r2, r8, r4, ror lr
    19dc:	72000001 	andvc	r0, r0, #1
    19e0:	682e6970 	stmdavs	lr!, {r4, r5, r6, r8, fp, sp, lr}
    19e4:	00000300 	andeq	r0, r0, r0, lsl #6
    19e8:	74726175 	ldrbtvc	r6, [r2], #-373	; 0xfffffe8b
    19ec:	0400682e 	streq	r6, [r0], #-2094	; 0xfffff7d2
    19f0:	70670000 	rsbvc	r0, r7, r0
    19f4:	682e6f69 	stmdavs	lr!, {r0, r3, r5, r6, r8, r9, sl, fp, sp, lr}
    19f8:	00000400 	andeq	r0, r0, r0, lsl #8
    19fc:	02050000 	andeq	r0, r5, #0
    1a00:	00009248 	andeq	r9, r0, r8, asr #4
    1a04:	67012c03 	strvs	r2, [r1, -r3, lsl #24]
    1a08:	359e0c03 	ldrcc	r0, [lr, #3075]	; 0xc03
    1a0c:	68356867 	ldmdavs	r5!, {r0, r1, r2, r5, r6, fp, sp, lr}
    1a10:	852e0c03 	strhi	r0, [lr, #-3075]!	; 0xfffff3fd
    1a14:	0369696b 	cmneq	r9, #1753088	; 0x1ac000
    1a18:	676b660c 	strbvs	r6, [fp, -ip, lsl #12]!
    1a1c:	68344208 	ldmdavs	r4!, {r3, r9, lr}
    1a20:	8768364b 	strbhi	r3, [r8, -fp, asr #12]!
    1a24:	0402002f 	streq	r0, [r2], #-47	; 0xffffffd1
    1a28:	67682f01 	strbvs	r2, [r8, -r1, lsl #30]!
    1a2c:	004b6730 	subeq	r6, fp, r0, lsr r7
    1a30:	2f010402 	svccs	0x00010402
    1a34:	2e696768 	cdpcs	7, 6, cr6, cr9, cr8, {3}
    1a38:	01000602 	tsteq	r0, r2, lsl #12
    1a3c:	00012b01 	andeq	r2, r1, r1, lsl #22
    1a40:	f8000200 			; <UNDEFINED> instruction: 0xf8000200
    1a44:	02000000 	andeq	r0, r0, #0
    1a48:	0d0efb01 	vstreq	d15, [lr, #-4]
    1a4c:	01010100 	mrseq	r0, (UNDEF: 17)
    1a50:	00000001 	andeq	r0, r0, r1
    1a54:	01000001 	tsteq	r0, r1
    1a58:	7273752f 	rsbsvc	r7, r3, #197132288	; 0xbc00000
    1a5c:	636e692f 	cmnvs	lr, #770048	; 0xbc000
    1a60:	6564756c 	strbvs	r7, [r4, #-1388]!	; 0xfffffa94
    1a64:	77656e2f 	strbvc	r6, [r5, -pc, lsr #28]!
    1a68:	2f62696c 	svccs	0x0062696c
    1a6c:	00737973 	rsbseq	r7, r3, r3, ror r9
    1a70:	7273752f 	rsbsvc	r7, r3, #197132288	; 0xbc00000
    1a74:	62696c2f 	rsbvs	r6, r9, #12032	; 0x2f00
    1a78:	6363672f 	cmnvs	r3, #12320768	; 0xbc0000
    1a7c:	6d72612f 	ldfvse	f6, [r2, #-188]!	; 0xffffff44
    1a80:	6e6f6e2d 	cdpvs	14, 6, cr6, cr15, cr13, {1}
    1a84:	61652d65 	cmnvs	r5, r5, ror #26
    1a88:	362f6962 	strtcc	r6, [pc], -r2, ror #18
    1a8c:	312e332e 			; <UNDEFINED> instruction: 0x312e332e
    1a90:	636e692f 	cmnvs	lr, #770048	; 0xbc000
    1a94:	6564756c 	strbvs	r7, [r4, #-1388]!	; 0xfffffa94
    1a98:	6f682f00 	svcvs	0x00682f00
    1a9c:	652f656d 	strvs	r6, [pc, #-1389]!	; 1537 <_start-0x6ac9>
    1aa0:	656c676e 	strbvs	r6, [ip, #-1902]!	; 0xfffff892
    1aa4:	6c632f72 	stclvs	15, cr2, [r3], #-456	; 0xfffffe38
    1aa8:	2f737361 	svccs	0x00737361
    1aac:	34327363 	ldrtcc	r7, [r2], #-867	; 0xfffffc9d
    1ab0:	2d786c30 	ldclcs	12, cr6, [r8, #-192]!	; 0xffffff40
    1ab4:	70733032 	rsbsvc	r3, r3, r2, lsr r0
    1ab8:	6c2f2f72 	stcvs	15, cr2, [pc], #-456	; 18f8 <_start-0x6708>
    1abc:	69706269 	ldmdbvs	r0!, {r0, r3, r5, r6, r9, sp, lr}^
    1ac0:	6f682f00 	svcvs	0x00682f00
    1ac4:	652f656d 	strvs	r6, [pc, #-1389]!	; 155f <_start-0x6aa1>
    1ac8:	656c676e 	strbvs	r6, [ip, #-1902]!	; 0xfffff892
    1acc:	6c632f72 	stclvs	15, cr2, [r3], #-456	; 0xfffffe38
    1ad0:	2f737361 	svccs	0x00737361
    1ad4:	34327363 	ldrtcc	r7, [r2], #-867	; 0xfffffc9d
    1ad8:	2d786c30 	ldclcs	12, cr6, [r8, #-192]!	; 0xffffff40
    1adc:	70733032 	rsbsvc	r3, r3, r2, lsr r0
    1ae0:	6c2f2f72 	stcvs	15, cr2, [pc], #-456	; 1920 <_start-0x66e0>
    1ae4:	69706269 	ldmdbvs	r0!, {r0, r3, r5, r6, r9, sp, lr}^
    1ae8:	6174732f 	cmnvs	r4, pc, lsr #6
    1aec:	732d6666 			; <UNDEFINED> instruction: 0x732d6666
    1af0:	00006372 	andeq	r6, r0, r2, ror r3
    1af4:	6f697067 	svcvs	0x00697067
    1af8:	0000632e 	andeq	r6, r0, lr, lsr #6
    1afc:	6f6c0000 	svcvs	0x006c0000
    1b00:	682e6b63 	stmdavs	lr!, {r0, r1, r5, r6, r8, r9, fp, sp, lr}
    1b04:	00000100 	andeq	r0, r0, r0, lsl #2
    1b08:	7079745f 	rsbsvc	r7, r9, pc, asr r4
    1b0c:	682e7365 	stmdavs	lr!, {r0, r2, r5, r6, r8, r9, ip, sp, lr}
    1b10:	00000100 	andeq	r0, r0, r0, lsl #2
    1b14:	64647473 	strbtvs	r7, [r4], #-1139	; 0xfffffb8d
    1b18:	682e6665 	stmdavs	lr!, {r0, r2, r5, r6, r9, sl, sp, lr}
    1b1c:	00000200 	andeq	r0, r0, r0, lsl #4
    1b20:	6e656572 	mcrvs	5, 3, r6, cr5, cr2, {3}
    1b24:	00682e74 	rsbeq	r2, r8, r4, ror lr
    1b28:	72000001 	andvc	r0, r0, #1
    1b2c:	682e6970 	stmdavs	lr!, {r4, r5, r6, r8, fp, sp, lr}
    1b30:	00000300 	andeq	r0, r0, r0, lsl #6
    1b34:	6f697067 	svcvs	0x00697067
    1b38:	0400682e 	streq	r6, [r0], #-2094	; 0xfffff7d2
    1b3c:	00000000 	andeq	r0, r0, r0
    1b40:	93c00205 	bicls	r0, r0, #1342177280	; 0x50000000
    1b44:	27030000 	strcs	r0, [r3, -r0]
    1b48:	474c1301 	strbmi	r1, [ip, -r1, lsl #6]
    1b4c:	4b68f44f 	blmi	1a3ec90 <__bss_end__+0x1a34c20>
    1b50:	6a2fa14c 	bvs	bea088 <__bss_end__+0xbe0018>
    1b54:	be314913 			; <UNDEFINED> instruction: 0xbe314913
    1b58:	be314913 			; <UNDEFINED> instruction: 0xbe314913
    1b5c:	4d2f6a2f 	vstmdbmi	pc!, {s12-s58}
    1b60:	49134f48 	ldmdbmi	r3, {r3, r6, r8, r9, sl, fp, lr}
    1b64:	02b72f32 	adcseq	r2, r7, #50, 30	; 0xc8
    1b68:	01010006 	tsteq	r1, r6
    1b6c:	00000134 	andeq	r0, r0, r4, lsr r1
    1b70:	00df0002 	sbcseq	r0, pc, r2
    1b74:	01020000 	mrseq	r0, (UNDEF: 2)
    1b78:	000d0efb 	strdeq	r0, [sp], -fp
    1b7c:	01010101 	tsteq	r1, r1, lsl #2
    1b80:	01000000 	mrseq	r0, (UNDEF: 0)
    1b84:	2f010000 	svccs	0x00010000
    1b88:	2f727375 	svccs	0x00727375
    1b8c:	6c636e69 	stclvs	14, cr6, [r3], #-420	; 0xfffffe5c
    1b90:	2f656475 	svccs	0x00656475
    1b94:	6c77656e 	cfldr64vs	mvdx6, [r7], #-440	; 0xfffffe48
    1b98:	732f6269 			; <UNDEFINED> instruction: 0x732f6269
    1b9c:	2f007379 	svccs	0x00007379
    1ba0:	2f727375 	svccs	0x00727375
    1ba4:	2f62696c 	svccs	0x0062696c
    1ba8:	2f636367 	svccs	0x00636367
    1bac:	2d6d7261 	sfmcs	f7, 2, [sp, #-388]!	; 0xfffffe7c
    1bb0:	656e6f6e 	strbvs	r6, [lr, #-3950]!	; 0xfffff092
    1bb4:	6261652d 	rsbvs	r6, r1, #188743680	; 0xb400000
    1bb8:	2e362f69 	cdpcs	15, 3, cr2, cr6, cr9, {3}
    1bbc:	2f312e33 	svccs	0x00312e33
    1bc0:	6c636e69 	stclvs	14, cr6, [r3], #-420	; 0xfffffe5c
    1bc4:	00656475 	rsbeq	r6, r5, r5, ror r4
    1bc8:	6d6f682f 	stclvs	8, cr6, [pc, #-188]!	; 1b14 <_start-0x64ec>
    1bcc:	6e652f65 	cdpvs	15, 6, cr2, cr5, cr5, {3}
    1bd0:	72656c67 	rsbvc	r6, r5, #26368	; 0x6700
    1bd4:	616c632f 	cmnvs	ip, pc, lsr #6
    1bd8:	632f7373 			; <UNDEFINED> instruction: 0x632f7373
    1bdc:	30343273 	eorscc	r3, r4, r3, ror r2
    1be0:	322d786c 	eorcc	r7, sp, #108, 16	; 0x6c0000
    1be4:	72707330 	rsbsvc	r7, r0, #48, 6	; 0xc0000000
    1be8:	696c2f2f 	stmdbvs	ip!, {r0, r1, r2, r3, r5, r8, r9, sl, fp, sp}^
    1bec:	00697062 	rsbeq	r7, r9, r2, rrx
    1bf0:	7273752f 	rsbsvc	r7, r3, #197132288	; 0xbc00000
    1bf4:	636e692f 	cmnvs	lr, #770048	; 0xbc000
    1bf8:	6564756c 	strbvs	r7, [r4, #-1388]!	; 0xfffffa94
    1bfc:	77656e2f 	strbvc	r6, [r5, -pc, lsr #28]!
    1c00:	0062696c 	rsbeq	r6, r2, ip, ror #18
    1c04:	616d6b00 	cmnvs	sp, r0, lsl #22
    1c08:	636f6c6c 	cmnvs	pc, #108, 24	; 0x6c00
    1c0c:	0000632e 	andeq	r6, r0, lr, lsr #6
    1c10:	6f6c0000 	svcvs	0x006c0000
    1c14:	682e6b63 	stmdavs	lr!, {r0, r1, r5, r6, r8, r9, fp, sp, lr}
    1c18:	00000100 	andeq	r0, r0, r0, lsl #2
    1c1c:	7079745f 	rsbsvc	r7, r9, pc, asr r4
    1c20:	682e7365 	stmdavs	lr!, {r0, r2, r5, r6, r8, r9, ip, sp, lr}
    1c24:	00000100 	andeq	r0, r0, r0, lsl #2
    1c28:	64647473 	strbtvs	r7, [r4], #-1139	; 0xfffffb8d
    1c2c:	682e6665 	stmdavs	lr!, {r0, r2, r5, r6, r9, sl, sp, lr}
    1c30:	00000200 	andeq	r0, r0, r0, lsl #4
    1c34:	6e656572 	mcrvs	5, 3, r6, cr5, cr2, {3}
    1c38:	00682e74 	rsbeq	r2, r8, r4, ror lr
    1c3c:	72000001 	andvc	r0, r0, #1
    1c40:	682e6970 	stmdavs	lr!, {r4, r5, r6, r8, fp, sp, lr}
    1c44:	00000300 	andeq	r0, r0, r0, lsl #6
    1c48:	69727473 	ldmdbvs	r2!, {r0, r1, r4, r5, r6, sl, ip, sp, lr}^
    1c4c:	682e676e 	stmdavs	lr!, {r1, r2, r3, r5, r6, r8, r9, sl, sp, lr}
    1c50:	00000400 	andeq	r0, r0, r0, lsl #8
    1c54:	02050000 	andeq	r0, r5, #0
    1c58:	000094e0 	andeq	r9, r0, r0, ror #9
    1c5c:	01011003 	tsteq	r1, r3
    1c60:	14680183 	strbtne	r0, [r8], #-387	; 0xfffffe7d
    1c64:	04020083 	streq	r0, [r2], #-131	; 0xffffff7d
    1c68:	02007f01 	andeq	r7, r0, #1, 30
    1c6c:	08300104 	ldmdaeq	r0!, {r2, r8}
    1c70:	4c4b2f5c 	mcrrmi	15, 5, r2, fp, cr12
    1c74:	00684b4b 	rsbeq	r4, r8, fp, asr #22
    1c78:	03010402 	movweq	r0, #5122	; 0x1402
    1c7c:	09034a79 	stmdbeq	r3, {r0, r3, r4, r5, r6, r9, fp, lr}
    1c80:	012f5808 			; <UNDEFINED> instruction: 0x012f5808
    1c84:	6a2f4e2e 	bvs	bd5544 <__bss_end__+0xbcb4d4>
    1c88:	4c67674b 	stclmi	7, cr6, [r7], #-300	; 0xfffffed4
    1c8c:	0402002f 	streq	r0, [r2], #-47	; 0xffffffd1
    1c90:	2e760301 	cdpcs	3, 7, cr0, cr6, cr1, {0}
    1c94:	01040200 	mrseq	r0, R12_usr
    1c98:	2f7a08dc 	svccs	0x007a08dc
    1c9c:	02019f01 	andeq	r9, r1, #1, 30
    1ca0:	01010008 	tsteq	r1, r8

Disassembly of section .debug_str:

00000000 <.debug_str>:
   0:	6f73645f 	svcvs	0x0073645f
   4:	6e61685f 	mcrvs	8, 3, r6, cr1, cr15, {2}
   8:	00656c64 	rsbeq	r6, r5, r4, ror #24
   c:	685f6b63 	ldmdavs	pc, {r0, r1, r5, r6, r8, r9, fp, sp, lr}^	; <UNPREDICTABLE>
  10:	5f706165 	svcpl	0x00706165
  14:	6f727265 	svcvs	0x00727265
  18:	5f007372 	svcpl	0x00007372
  1c:	657a6973 	ldrbvs	r6, [sl, #-2419]!	; 0xfffff68d
  20:	72617000 	rsbvc	r7, r1, #0
  24:	742d3174 	strtvc	r3, [sp], #-372	; 0xfffffe8c
  28:	33747365 	cmncc	r4, #-1811939327	; 0x94000001
  2c:	5f00632e 	svcpl	0x0000632e
  30:	646e6172 	strbtvs	r6, [lr], #-370	; 0xfffffe8e
  34:	5f003834 	svcpl	0x00003834
  38:	72656d65 	rsbvc	r6, r5, #6464	; 0x1940
  3c:	636e6567 	cmnvs	lr, #432013312	; 0x19c00000
  40:	6f6e0079 	svcvs	0x006e0079
  44:	69616d74 	stmdbvs	r1!, {r2, r4, r5, r6, r8, sl, fp, sp, lr}^
  48:	775f006e 	ldrbvc	r0, [pc, -lr, rrx]
  4c:	6f747263 	svcvs	0x00747263
  50:	735f626d 	cmpvc	pc, #-805306362	; 0xd0000006
  54:	65746174 	ldrbvs	r6, [r4, #-372]!	; 0xfffffe8c
  58:	63775f00 	cmnvs	r7, #0, 30
  5c:	6f747273 	svcvs	0x00747273
  60:	5f73626d 	svcpl	0x0073626d
  64:	74617473 	strbtvc	r7, [r1], #-1139	; 0xfffffb8d
  68:	6f6c0065 	svcvs	0x006c0065
  6c:	6c20676e 	stcvs	7, cr6, [r0], #-440	; 0xfffffe48
  70:	20676e6f 	rsbcs	r6, r7, pc, ror #28
  74:	69736e75 	ldmdbvs	r3!, {r0, r2, r4, r5, r6, r9, sl, fp, sp, lr}^
  78:	64656e67 	strbtvs	r6, [r5], #-3687	; 0xfffff199
  7c:	746e6920 	strbtvc	r6, [lr], #-2336	; 0xfffff6e0
  80:	616b6300 	cmnvs	fp, r0, lsl #6
  84:	636f6c6c 	cmnvs	pc, #108, 24	; 0x6c00
  88:	626c5f00 	rsbvs	r5, ip, #0, 30
  8c:	7a697366 	bvc	1a5ce2c <__bss_end__+0x1a52dbc>
  90:	5f5f0065 	svcpl	0x005f0065
  94:	61636f6c 	cmnvs	r3, ip, ror #30
  98:	745f656c 	ldrbvc	r6, [pc], #-1388	; a0 <_start-0x7f60>
  9c:	626d5f00 	rsbvs	r5, sp, #0, 30
  a0:	776f7472 			; <UNDEFINED> instruction: 0x776f7472
  a4:	74735f63 	ldrbtvc	r5, [r3], #-3939	; 0xfffff09d
  a8:	00657461 	rsbeq	r7, r5, r1, ror #8
  ac:	6d745f5f 	ldclvs	15, cr5, [r4, #-380]!	; 0xfffffe84
  b0:	6365735f 	cmnvs	r5, #2080374785	; 0x7c000001
  b4:	6e6f6c00 	cdpvs	12, 6, cr6, cr15, cr0, {0}
  b8:	6f6c2067 	svcvs	0x006c2067
  bc:	6920676e 	stmdbvs	r0!, {r1, r2, r3, r5, r6, r8, r9, sl, sp, lr}
  c0:	5f00746e 	svcpl	0x0000746e
  c4:	66756275 			; <UNDEFINED> instruction: 0x66756275
  c8:	61625f00 	cmnvs	r2, r0, lsl #30
  cc:	5f006573 	svcpl	0x00006573
  d0:	5f6d745f 	svcpl	0x006d745f
  d4:	72756f68 	rsbsvc	r6, r5, #104, 30	; 0x1a0
  d8:	6f682f00 	svcvs	0x00682f00
  dc:	752f656d 	strvc	r6, [pc, #-1389]!	; fffffb77 <__bss_end__+0xffff5b07>
  e0:	2f726573 	svccs	0x00726573
  e4:	2f766544 	svccs	0x00766544
  e8:	34325343 	ldrtcc	r5, [r2], #-835	; 0xfffffcbd
  ec:	6c2f5830 	stcvs	8, cr5, [pc], #-192	; 34 <_start-0x7fcc>
  f0:	2f736261 	svccs	0x00736261
  f4:	6d2d3031 	stcvs	0, cr3, [sp, #-196]!	; 0xffffff3c
  f8:	68636d65 	stmdavs	r3!, {r0, r2, r5, r6, r8, sl, fp, sp, lr}^
  fc:	2d6b6365 	stclcs	3, cr6, [fp, #-404]!	; 0xfffffe6c
 100:	74617473 	strbtvc	r7, [r1], #-1139	; 0xfffffb8d
 104:	646f632f 	strbtvs	r6, [pc], #-815	; 10c <_start-0x7ef4>
 108:	5f5f0065 	svcpl	0x005f0065
 10c:	5f006673 	svcpl	0x00006673
 110:	655f6e6f 	ldrbvs	r6, [pc, #-3695]	; fffff2a9 <__bss_end__+0xffff5239>
 114:	5f746978 	svcpl	0x00746978
 118:	73677261 	cmnvc	r7, #268435462	; 0x10000006
 11c:	6f635f00 	svcvs	0x00635f00
 120:	65696b6f 	strbvs	r6, [r9, #-2927]!	; 0xfffff491
 124:	735f5f00 	cmpvc	pc, #0, 30
 128:	65756c67 	ldrbvs	r6, [r5, #-3175]!	; 0xfffff399
 12c:	6c665f00 	stclvs	15, cr5, [r6], #-0
 130:	00736761 	rsbseq	r6, r3, r1, ror #14
 134:	5f73695f 	svcpl	0x0073695f
 138:	00617863 	rsbeq	r7, r1, r3, ror #16
 13c:	6474735f 	ldrbtvs	r7, [r4], #-863	; 0xfffffca1
 140:	63006e69 	movwvs	r6, #3689	; 0xe69
 144:	6e695f6b 	cdpvs	15, 6, cr5, cr9, cr11, {3}
 148:	5f007469 	svcpl	0x00007469
 14c:	736b6c62 	cmnvc	fp, #25088	; 0x6200
 150:	00657a69 	rsbeq	r7, r5, r9, ror #20
 154:	7476635f 	ldrbtvc	r6, [r6], #-863	; 0xfffffca1
 158:	00667562 	rsbeq	r7, r6, r2, ror #10
 15c:	66666f5f 	uqsaxvs	r6, r6, pc	; <UNPREDICTABLE>
 160:	00746573 	rsbseq	r6, r4, r3, ror r5
 164:	6c616d6b 	stclvs	13, cr6, [r1], #-428	; 0xfffffe54
 168:	5f636f6c 	svcpl	0x00636f6c
 16c:	74696e69 	strbtvc	r6, [r9], #-3689	; 0xfffff197
 170:	7465735f 	strbtvc	r7, [r5], #-863	; 0xfffffca1
 174:	6174735f 	cmnvs	r4, pc, asr r3
 178:	5f007472 	svcpl	0x00007472
 17c:	7273626d 	rsbsvc	r6, r3, #-805306362	; 0xd0000006
 180:	63776f74 	cmnvs	r7, #116, 30	; 0x1d0
 184:	74735f73 	ldrbtvc	r5, [r3], #-3955	; 0xfffff08d
 188:	00657461 	rsbeq	r7, r5, r1, ror #8
 18c:	72626d5f 	rsbvc	r6, r2, #6080	; 0x17c0
 190:	5f6e656c 	svcpl	0x006e656c
 194:	74617473 	strbtvc	r7, [r1], #-1139	; 0xfffffb8d
 198:	665f0065 	ldrbvs	r0, [pc], -r5, rrx
 19c:	6772616e 	ldrbvs	r6, [r2, -lr, ror #2]!
 1a0:	665f0073 			; <UNDEFINED> instruction: 0x665f0073
 1a4:	5f00736e 	svcpl	0x0000736e
 1a8:	6e676973 			; <UNDEFINED> instruction: 0x6e676973
 1ac:	6c665f00 	stclvs	15, cr5, [r6], #-0
 1b0:	5f6b636f 	svcpl	0x006b636f
 1b4:	735f0074 	cmpvc	pc, #116	; 0x74
 1b8:	72656474 	rsbvc	r6, r5, #116, 8	; 0x74000000
 1bc:	425f0072 	subsmi	r0, pc, #114	; 0x72
 1c0:	6e696769 	cdpvs	7, 6, cr6, cr9, cr9, {3}
 1c4:	675f0074 			; <UNDEFINED> instruction: 0x675f0074
 1c8:	616d6d61 	cmnvs	sp, r1, ror #26
 1cc:	6769735f 			; <UNDEFINED> instruction: 0x6769735f
 1d0:	6d61676e 	stclvs	7, cr6, [r1, #-440]!	; 0xfffffe48
 1d4:	65725f00 	ldrbvs	r5, [r2, #-3840]!	; 0xfffff100
 1d8:	746c7573 	strbtvc	r7, [ip], #-1395	; 0xfffffa8d
 1dc:	72006b5f 	andvc	r6, r0, #97280	; 0x17c00
 1e0:	705f6970 	subsvc	r6, pc, r0, ror r9	; <UNPREDICTABLE>
 1e4:	68637475 	stmdavs	r3!, {r0, r2, r4, r5, r6, sl, ip, sp, lr}^
 1e8:	5f007261 	svcpl	0x00007261
 1ec:	006d745f 	rsbeq	r7, sp, pc, asr r4
 1f0:	63775f5f 	cmnvs	r7, #380	; 0x17c
 1f4:	72006268 	andvc	r6, r0, #104, 4	; 0x80000006
 1f8:	725f6970 	subsvc	r6, pc, #112, 18	; 0x1c0000
 1fc:	74657365 	strbtvc	r7, [r5], #-869	; 0xfffffc9b
 200:	7475705f 	ldrbtvc	r7, [r5], #-95	; 0xffffffa1
 204:	735f0063 	cmpvc	pc, #99	; 0x63
 208:	756f6474 	strbvc	r6, [pc, #-1140]!	; fffffd9c <__bss_end__+0xffff5d2c>
 20c:	635f0074 	cmpvs	pc, #116	; 0x74
 210:	656c7476 	strbvs	r7, [ip, #-1142]!	; 0xfffffb8a
 214:	665f006e 	ldrbvs	r0, [pc], -lr, rrx
 218:	00656c69 	rsbeq	r6, r5, r9, ror #24
 21c:	55465f5f 	strbpl	r5, [r6, #-3935]	; 0xfffff0a1
 220:	4954434e 	ldmdbmi	r4, {r1, r2, r3, r6, r8, r9, lr}^
 224:	5f5f4e4f 	svcpl	0x005f4e4f
 228:	696e5f00 	stmdbvs	lr!, {r8, r9, sl, fp, ip, lr}^
 22c:	0073626f 	rsbseq	r6, r3, pc, ror #4
 230:	726f6873 	rsbvc	r6, pc, #7536640	; 0x730000
 234:	6e752074 	mrcvs	0, 3, r2, cr5, cr4, {3}
 238:	6e676973 			; <UNDEFINED> instruction: 0x6e676973
 23c:	69206465 	stmdbvs	r0!, {r0, r2, r5, r6, sl, sp, lr}
 240:	5f00746e 	svcpl	0x0000746e
 244:	78657461 	stmdavc	r5!, {r0, r5, r6, sl, ip, sp, lr}^
 248:	00307469 	eorseq	r7, r0, r9, ror #8
 24c:	6769735f 			; <UNDEFINED> instruction: 0x6769735f
 250:	5f6c616e 	svcpl	0x006c616e
 254:	00667562 	rsbeq	r7, r6, r2, ror #10
 258:	6373615f 	cmnvs	r3, #-1073741801	; 0xc0000017
 25c:	656d6974 	strbvs	r6, [sp, #-2420]!	; 0xfffff68c
 260:	6675625f 			; <UNDEFINED> instruction: 0x6675625f
 264:	65725f00 	ldrbvs	r5, [r2, #-3840]!	; 0xfffff100
 268:	746c7573 	strbtvc	r7, [ip], #-1395	; 0xfffffa8d
 26c:	775f5f00 	ldrbvc	r5, [pc, -r0, lsl #30]
 270:	5f006863 	svcpl	0x00006863
 274:	4b434f4c 	blmi	10d3fac <__bss_end__+0x10c9f3c>
 278:	7700545f 	smlsdvc	r0, pc, r4, r5	; <UNPREDICTABLE>
 27c:	5f746e69 	svcpl	0x00746e69
 280:	6b630074 	blvs	18c0458 <__bss_end__+0x18b63e8>
 284:	65657266 	strbvs	r7, [r5, #-614]!	; 0xfffffd9a
 288:	72656e00 	rsbvc	r6, r5, #0, 28
 28c:	665f0072 			; <UNDEFINED> instruction: 0x665f0072
 290:	7367616c 	cmnvc	r7, #108, 2
 294:	5f5f0032 	svcpl	0x005f0032
 298:	795f6d74 	ldmdbvc	pc, {r2, r4, r5, r6, r8, sl, fp, sp, lr}^	; <UNPREDICTABLE>
 29c:	00726165 	rsbseq	r6, r2, r5, ror #2
 2a0:	61656c63 	cmnvs	r5, r3, ror #24
 2a4:	65725f6e 	ldrbvs	r5, [r2, #-3950]!	; 0xfffff092
 2a8:	746f6f62 	strbtvc	r6, [pc], #-3938	; 2b0 <_start-0x7d50>
 2ac:	656e5f00 	strbvs	r5, [lr, #-3840]!	; 0xfffff100
 2b0:	00667478 	rsbeq	r7, r6, r8, ror r4
 2b4:	6d745f5f 	ldclvs	15, cr5, [r4, #-380]!	; 0xfffffe84
 2b8:	6e6f6d5f 	mcrvs	13, 3, r6, cr15, cr15, {2}
 2bc:	74615f00 	strbtvc	r5, [r1], #-3840	; 0xfffff100
 2c0:	74697865 	strbtvc	r7, [r9], #-2149	; 0xfffff79b
 2c4:	735f5f00 	cmpvc	pc, #0, 30
 2c8:	69646964 	stmdbvs	r4!, {r2, r5, r6, r8, fp, sp, lr}^
 2cc:	0074696e 	rsbseq	r6, r4, lr, ror #18
 2d0:	66666f5f 	uqsaxvs	r6, r6, pc	; <UNPREDICTABLE>
 2d4:	5f00745f 	svcpl	0x0000745f
 2d8:	65657266 	strbvs	r7, [r5, #-614]!	; 0xfffffd9a
 2dc:	7473696c 	ldrbtvc	r6, [r3], #-2412	; 0xfffff694
 2e0:	63775f00 	cmnvs	r7, #0, 30
 2e4:	626d6f74 	rsbvs	r6, sp, #116, 30	; 0x1d0
 2e8:	6174735f 	cmnvs	r4, pc, asr r3
 2ec:	75006574 	strvc	r6, [r0, #-1396]	; 0xfffffa8c
 2f0:	6769736e 	strbvs	r7, [r9, -lr, ror #6]!
 2f4:	2064656e 	rsbcs	r6, r4, lr, ror #10
 2f8:	72616863 	rsbvc	r6, r1, #6488064	; 0x630000
 2fc:	656e5f00 	strbvs	r5, [lr, #-3840]!	; 0xfffff100
 300:	4e470077 	mcrmi	0, 2, r0, cr7, cr7, {3}
 304:	39432055 	stmdbcc	r3, {r0, r2, r4, r6, sp}^
 308:	2e392039 	mrccs	0, 1, r2, cr9, cr9, {1}
 30c:	20302e32 	eorscs	r2, r0, r2, lsr lr
 310:	70636d2d 	rsbvc	r6, r3, sp, lsr #26
 314:	72613d75 	rsbvc	r3, r1, #7488	; 0x1d40
 318:	3731316d 	ldrcc	r3, [r1, -sp, ror #2]!
 31c:	667a6a36 			; <UNDEFINED> instruction: 0x667a6a36
 320:	2d20732d 	stccs	3, cr7, [r0, #-180]!	; 0xffffff4c
 324:	6e75746d 	cdpvs	4, 7, cr7, cr5, cr13, {3}
 328:	72613d65 	rsbvc	r3, r1, #6464	; 0x1940
 32c:	3731316d 	ldrcc	r3, [r1, -sp, ror #2]!
 330:	667a6a36 			; <UNDEFINED> instruction: 0x667a6a36
 334:	2d20732d 	stccs	3, cr7, [r0, #-180]!	; 0xffffff4c
 338:	6f6c666d 	svcvs	0x006c666d
 33c:	612d7461 			; <UNDEFINED> instruction: 0x612d7461
 340:	733d6962 	teqvc	sp, #1605632	; 0x188000
 344:	2074666f 	rsbscs	r6, r4, pc, ror #12
 348:	72616d2d 	rsbvc	r6, r1, #2880	; 0xb40
 34c:	6d2d206d 	stcvs	0, cr2, [sp, #-436]!	; 0xfffffe4c
 350:	68637261 	stmdavs	r3!, {r0, r5, r6, r9, ip, sp, lr}^
 354:	6d72613d 	ldfvse	f6, [r2, #-244]!	; 0xffffff0c
 358:	7a6b3676 	bvc	1acdd38 <__bss_end__+0x1ac3cc8>
 35c:	67672d20 	strbvs	r2, [r7, -r0, lsr #26]!
 360:	2d206264 	sfmcs	f6, 4, [r0, #-400]!	; 0xfffffe70
 364:	2d20674f 	stccs	7, cr6, [r0, #-316]!	; 0xfffffec4
 368:	3d647473 	cfstrdcc	mvd7, [r4, #-460]!	; 0xfffffe34
 36c:	39756e67 	ldmdbcc	r5!, {r0, r1, r2, r5, r6, r9, sl, fp, sp, lr}^
 370:	662d2039 			; <UNDEFINED> instruction: 0x662d2039
 374:	65657266 	strbvs	r7, [r5, #-614]!	; 0xfffffd9a
 378:	6e617473 	mcrvs	4, 3, r7, cr1, cr3, {3}
 37c:	676e6964 	strbvs	r6, [lr, -r4, ror #18]!
 380:	5f685f00 	svcpl	0x00685f00
 384:	6e727265 	cdpvs	2, 7, cr7, cr2, cr5, {3}
 388:	6873006f 	ldmdavs	r3!, {r0, r1, r2, r3, r5, r6}^
 38c:	2074726f 	rsbscs	r7, r4, pc, ror #4
 390:	00746e69 	rsbseq	r6, r4, r9, ror #28
 394:	6d745f5f 	ldclvs	15, cr5, [r4, #-380]!	; 0xfffffe84
 398:	6164795f 	cmnvs	r4, pc, asr r9
 39c:	5f5f0079 	svcpl	0x005f0079
 3a0:	66756273 			; <UNDEFINED> instruction: 0x66756273
 3a4:	6f695f00 	svcvs	0x00695f00
 3a8:	5f007362 	svcpl	0x00007362
 3ac:	4c49465f 	mcrrmi	6, 5, r4, r9, cr15
 3b0:	6d5f0045 	ldclvs	0, cr0, [pc, #-276]	; 2a4 <_start-0x7d5c>
 3b4:	61747362 	cmnvs	r4, r2, ror #6
 3b8:	745f6574 	ldrbvc	r6, [pc], #-1396	; 3c0 <_start-0x7c40>
 3bc:	735f5f00 	cmpvc	pc, #0, 30
 3c0:	454c4946 	strbmi	r4, [ip, #-2374]	; 0xfffff6ba
 3c4:	626d5f00 	rsbvs	r5, sp, #0, 30
 3c8:	74617473 	strbtvc	r7, [r1], #-1139	; 0xfffffb8d
 3cc:	725f0065 	subsvc	r0, pc, #101	; 0x65
 3d0:	5f646e61 	svcpl	0x00646e61
 3d4:	7478656e 	ldrbtvc	r6, [r8], #-1390	; 0xfffffa92
 3d8:	626d5f00 	rsbvs	r5, sp, #0, 30
 3dc:	5f6e656c 	svcpl	0x006e656c
 3e0:	74617473 	strbtvc	r7, [r1], #-1139	; 0xfffffb8d
 3e4:	695f0065 	ldmdbvs	pc, {r0, r2, r5, r6}^	; <UNPREDICTABLE>
 3e8:	5f00636e 	svcpl	0x0000636e
 3ec:	00646e69 	rsbeq	r6, r4, r9, ror #28
 3f0:	6c635f5f 	stclvs	15, cr5, [r3], #-380	; 0xfffffe84
 3f4:	756e6165 	strbvc	r6, [lr, #-357]!	; 0xfffffe9b
 3f8:	755f0070 	ldrbvc	r0, [pc, #-112]	; 390 <_start-0x7c70>
 3fc:	6570736e 	ldrbvs	r7, [r0, #-878]!	; 0xfffffc92
 400:	69666963 	stmdbvs	r6!, {r0, r1, r5, r6, r8, fp, sp, lr}^
 404:	6c5f6465 	cfldrdvs	mvd6, [pc], {101}	; 0x65
 408:	6c61636f 	stclvs	3, cr6, [r1], #-444	; 0xfffffe44
 40c:	6e695f65 	cdpvs	15, 6, cr5, cr9, cr5, {3}
 410:	5f006f66 	svcpl	0x00006f66
 414:	7778616d 	ldrbvc	r6, [r8, -sp, ror #2]!
 418:	5f007364 	svcpl	0x00007364
 41c:	6e656572 	mcrvs	5, 3, r6, cr5, cr2, {3}
 420:	735f0074 	cmpvc	pc, #116	; 0x74
 424:	00646565 	rsbeq	r6, r4, r5, ror #10
 428:	6f635f5f 	svcvs	0x00635f5f
 42c:	00746e75 	rsbseq	r6, r4, r5, ror lr
 430:	6f6c5f5f 	svcvs	0x006c5f5f
 434:	5f006b63 	svcpl	0x00006b63
 438:	6c61765f 	stclvs	6, cr7, [r1], #-380	; 0xfffffe84
 43c:	5f006575 	svcpl	0x00006575
 440:	6b656573 	blvs	1959a14 <__bss_end__+0x194f9a4>
 444:	70665f00 	rsbvc	r5, r6, r0, lsl #30
 448:	745f736f 	ldrbvc	r7, [pc], #-879	; 450 <_start-0x7bb0>
 44c:	745f5f00 	ldrbvc	r5, [pc], #-3840	; 454 <_start-0x7bac>
 450:	696d5f6d 	stmdbvs	sp!, {r0, r2, r3, r5, r6, r8, r9, sl, fp, ip, lr}^
 454:	6d5f006e 	ldclvs	0, cr0, [pc, #-440]	; 2a4 <_start-0x7d5c>
 458:	00746c75 	rsbseq	r6, r4, r5, ror ip
 45c:	7274735f 	rsbsvc	r7, r4, #2080374785	; 0x7c000001
 460:	5f6b6f74 	svcpl	0x006b6f74
 464:	7473616c 	ldrbtvc	r6, [r3], #-364	; 0xfffffe94
 468:	6e665f00 	cdpvs	15, 6, cr5, cr6, cr0, {0}
 46c:	65707974 	ldrbvs	r7, [r0, #-2420]!	; 0xfffff68c
 470:	615f0073 	cmpvs	pc, r3, ror r0	; <UNPREDICTABLE>
 474:	5f006464 	svcpl	0x00006464
 478:	6f4c555f 	svcvs	0x004c555f
 47c:	5f00676e 	svcpl	0x0000676e
 480:	64746567 	ldrbtvs	r6, [r4], #-1383	; 0xfffffa99
 484:	5f657461 	svcpl	0x00657461
 488:	00727265 	rsbseq	r7, r2, r5, ror #4
 48c:	6f6c675f 	svcvs	0x006c675f
 490:	5f6c6162 	svcpl	0x006c6162
 494:	75706d69 	ldrbvc	r6, [r0, #-3433]!	; 0xfffff297
 498:	705f6572 	subsvc	r6, pc, r2, ror r5	; <UNPREDICTABLE>
 49c:	6d007274 	sfmvs	f7, 4, [r0, #-464]	; 0xfffffe30
 4a0:	65736d65 	ldrbvs	r6, [r3, #-3429]!	; 0xfffff29b
 4a4:	755f0074 	ldrbvc	r0, [pc, #-116]	; 438 <_start-0x7bc8>
 4a8:	6573756e 	ldrbvs	r7, [r3, #-1390]!	; 0xfffffa92
 4ac:	61725f64 	cmnvs	r2, r4, ror #30
 4b0:	5f00646e 	svcpl	0x0000646e
 4b4:	00736477 	rsbseq	r6, r3, r7, ror r4
 4b8:	6d745f5f 	ldclvs	15, cr5, [r4, #-380]!	; 0xfffffe84
 4bc:	6164775f 	cmnvs	r4, pc, asr r7
 4c0:	675f0079 			; <UNDEFINED> instruction: 0x675f0079
 4c4:	0065756c 	rsbeq	r7, r5, ip, ror #10
 4c8:	616d6e5f 	cmnvs	sp, pc, asr lr
 4cc:	636f6c6c 	cmnvs	pc, #108, 24	; 0x6c00
 4d0:	366c5f00 	strbtcc	r5, [ip], -r0, lsl #30
 4d4:	625f6134 	subsvs	r6, pc, #52, 2
 4d8:	5f006675 	svcpl	0x00006675
 4dc:	5f676973 	svcpl	0x00676973
 4e0:	636e7566 	cmnvs	lr, #427819008	; 0x19800000
 4e4:	616d6b00 	cmnvs	sp, r0, lsl #22
 4e8:	636f6c6c 	cmnvs	pc, #108, 24	; 0x6c00
 4ec:	626e5f00 	rsbvs	r5, lr, #0, 30
 4f0:	5f006675 	svcpl	0x00006675
 4f4:	73756e75 	cmnvc	r5, #1872	; 0x750
 4f8:	5f006465 	svcpl	0x00006465
 4fc:	5f6d745f 	svcpl	0x006d745f
 500:	73647369 	cmnvc	r4, #-1543503871	; 0xa4000001
 504:	6c5f0074 	mrrcvs	0, 7, r0, pc, cr4	; <UNPREDICTABLE>
 508:	6c61636f 	stclvs	3, cr6, [r1], #-444	; 0xfffffe44
 50c:	656d6974 	strbvs	r6, [sp, #-2420]!	; 0xfffff68c
 510:	6675625f 			; <UNDEFINED> instruction: 0x6675625f
 514:	6c635f00 	stclvs	15, cr5, [r3], #-0
 518:	0065736f 	rsbeq	r7, r5, pc, ror #6
 51c:	3834725f 	ldmdacc	r4!, {r0, r1, r2, r3, r4, r6, r9, ip, sp, lr}
 520:	626d5f00 	rsbvs	r5, sp, #0, 30
 524:	63776f74 	cmnvs	r7, #116, 30	; 0x1d0
 528:	6174735f 	cmnvs	r4, pc, asr r3
 52c:	5f006574 	svcpl	0x00006574
 530:	00733570 	rsbseq	r3, r3, r0, ror r5
 534:	6d745f5f 	ldclvs	15, cr5, [r4, #-380]!	; 0xfffffe84
 538:	61646d5f 	cmnvs	r4, pc, asr sp
 53c:	61700079 	cmnvs	r0, r9, ror r0
 540:	6e696464 	cdpvs	4, 6, cr6, cr9, cr4, {3}
 544:	696c0067 	stmdbvs	ip!, {r0, r1, r2, r5, r6}^
 548:	6f6e656e 	svcvs	0x006e656e
 54c:	5f6b6300 	svcpl	0x006b6300
 550:	73726966 	cmnvc	r2, #1671168	; 0x198000
 554:	64685f74 	strbtvs	r5, [r8], #-3956	; 0xfffff08c
 558:	72700072 	rsbsvc	r0, r0, #114	; 0x72
 55c:	66007665 	strvs	r7, [r0], -r5, ror #12
 560:	5f747361 	svcpl	0x00747361
 564:	68736168 	ldmdavs	r3!, {r3, r5, r6, r8, sp, lr}^
 568:	65726600 	ldrbvs	r6, [r2, #-1536]!	; 0xfffffa00
 56c:	6f6c5f65 	svcvs	0x006c5f65
 570:	5f620063 	svcpl	0x00620063
 574:	5f317a72 	svcpl	0x00317a72
 578:	00727470 	rsbseq	r7, r2, r0, ror r4
 57c:	45455246 	strbmi	r5, [r5, #-582]	; 0xfffffdba
 580:	4c410044 	mcrrmi	0, 4, r0, r1, cr4
 584:	45434f4c 	strbmi	r4, [r3, #-3916]	; 0xfffff0b4
 588:	65720044 	ldrbvs	r0, [r2, #-68]!	; 0xffffffbc
 58c:	6d5f7366 	ldclvs	3, cr7, [pc, #-408]	; 3fc <_start-0x7c04>
 590:	6c646469 	cfstrdvs	mvd6, [r4], #-420	; 0xfffffe5c
 594:	65720065 	ldrbvs	r0, [r2, #-101]!	; 0xffffff9b
 598:	735f7366 	cmpvc	pc, #-1744830463	; 0x98000001
 59c:	74726174 	ldrbtvc	r6, [r2], #-372	; 0xfffffe8c
 5a0:	6c6c6100 	stfvse	f6, [ip], #-0
 5a4:	6465636f 	strbtvs	r6, [r5], #-879	; 0xfffffc91
 5a8:	45564f00 	ldrbmi	r4, [r6, #-3840]	; 0xfffff100
 5ac:	41454852 	cmpmi	r5, r2, asr r8
 5b0:	424e5f44 	submi	r5, lr, #68, 30	; 0x110
 5b4:	53455459 	movtpl	r5, #21593	; 0x5459
 5b8:	44455200 	strbmi	r5, [r5], #-512	; 0xfffffe00
 5bc:	454e4f5a 	strbmi	r4, [lr, #-3930]	; 0xfffff0a6
 5c0:	4c4c4100 	stfmie	f4, [ip], {-0}
 5c4:	4f5f434f 	svcmi	0x005f434f
 5c8:	45534646 	ldrbmi	r4, [r3, #-1606]	; 0xfffff9ba
 5cc:	616d0054 	qdsubvs	r0, r4, sp
 5d0:	6d5f6b72 	vldrvs	d22, [pc, #-456]	; 410 <_start-0x7bf0>
 5d4:	62006d65 	andvs	r6, r0, #6464	; 0x1940
 5d8:	6464615f 	strbtvs	r6, [r4], #-351	; 0xfffffea1
 5dc:	6f745f72 	svcvs	0x00745f72
 5e0:	7264685f 	rsbvc	r6, r4, #6225920	; 0x5f0000
 5e4:	616b6300 	cmnvs	fp, r0, lsl #6
 5e8:	636f6c6c 	cmnvs	pc, #108, 24	; 0x6c00
 5ec:	6f00632e 	svcvs	0x0000632e
 5f0:	00736666 	rsbseq	r6, r3, r6, ror #12
 5f4:	6e5f6b63 	vnmlavs.f64	d22, d15, d19
 5f8:	5f747865 	svcpl	0x00747865
 5fc:	00726468 	rsbseq	r6, r2, r8, ror #8
 600:	6f6c6c61 	svcvs	0x006c6c61
 604:	6f6c5f63 	svcvs	0x006c5f63
 608:	64680063 	strbtvs	r0, [r8], #-99	; 0xffffff9d
 60c:	6b635f72 	blvs	18d83dc <__bss_end__+0x18ce36c>
 610:	006d7573 	rsbeq	r7, sp, r3, ror r5
 614:	7479626e 	ldrbtvc	r6, [r9], #-622	; 0xfffffd92
 618:	615f7365 	cmpvs	pc, r5, ror #6
 61c:	636f6c6c 	cmnvs	pc, #108, 24	; 0x6c00
 620:	615f6200 	cmpvs	pc, r0, lsl #4
 624:	636f6c6c 	cmnvs	pc, #108, 24	; 0x6c00
 628:	7274705f 	rsbsvc	r7, r4, #95	; 0x5f
 62c:	65686300 	strbvs	r6, [r8, #-768]!	; 0xfffffd00
 630:	665f6b63 	ldrbvs	r6, [pc], -r3, ror #22
 634:	5f656572 	svcpl	0x00656572
 638:	74697277 	strbtvc	r7, [r9], #-631	; 0xfffffd89
 63c:	68630065 	stmdavs	r3!, {r0, r2, r5, r6}^
 640:	5f6b6365 	svcpl	0x006b6365
 644:	00726468 	rsbseq	r6, r2, r8, ror #8
 648:	7a725f62 	bvc	1c983d8 <__bss_end__+0x1c8e368>
 64c:	74705f32 	ldrbtvc	r5, [r0], #-3890	; 0xfffff0ce
 650:	626e0072 	rsbvs	r0, lr, #114	; 0x72
 654:	00736b6c 	rsbseq	r6, r3, ip, ror #22
 658:	5f637273 	svcpl	0x00637273
 65c:	5f636f6c 	svcpl	0x00636f6c
 660:	69750074 	ldmdbvs	r5!, {r2, r4, r5, r6}^
 664:	3233746e 	eorscc	r7, r3, #1845493760	; 0x6e000000
 668:	6e00745f 	cfmvsrvs	mvf0, r7
 66c:	6f727265 	svcvs	0x00727265
 670:	68007372 	stmdavs	r0, {r1, r4, r5, r6, r8, r9, ip, sp, lr}
 674:	705f7264 	subsvc	r7, pc, r4, ror #4
 678:	746e6972 	strbtvc	r6, [lr], #-2418	; 0xfffff68e
 67c:	61656800 	cmnvs	r5, r0, lsl #16
 680:	45530070 	ldrbmi	r0, [r3, #-112]	; 0xffffff90
 684:	4e49544e 	cdpmi	4, 4, cr5, cr9, cr14, {2}
 688:	63004c41 	movwvs	r4, #3137	; 0xc41
 68c:	6b636568 	blvs	18d9c34 <__bss_end__+0x18cfbc4>
 690:	6f6c625f 	svcvs	0x006c625f
 694:	62006b63 	andvs	r6, r0, #101376	; 0x18c00
 698:	327a725f 	rsbscc	r7, sl, #-268435451	; 0xf0000005
 69c:	79626e5f 	stmdbvc	r2!, {r0, r1, r2, r3, r4, r6, r9, sl, fp, sp, lr}^
 6a0:	00736574 	rsbseq	r6, r3, r4, ror r5
 6a4:	746e6975 	strbtvc	r6, [lr], #-2421	; 0xfffff68b
 6a8:	00745f38 	rsbseq	r5, r4, r8, lsr pc
 6ac:	5f726468 	svcpl	0x00726468
 6b0:	626e0074 	rsbvs	r0, lr, #116	; 0x74
 6b4:	73657479 	cmnvc	r5, #2030043136	; 0x79000000
 6b8:	6d65725f 	sfmvs	f7, 2, [r5, #-380]!	; 0xfffffe84
 6bc:	66656c00 	strbtvs	r6, [r5], -r0, lsl #24
 6c0:	68630074 	stmdavs	r3!, {r2, r4, r5, r6}^
 6c4:	5f6b6365 	svcpl	0x006b6365
 6c8:	006d656d 	rsbeq	r6, sp, sp, ror #10
 6cc:	64616568 	strbtvs	r6, [r1], #-1384	; 0xfffffa98
 6d0:	6c007265 	sfmvs	f7, 4, [r0], {101}	; 0x65
 6d4:	2f636269 	svccs	0x00636269
 6d8:	68736168 	ldmdavs	r3!, {r3, r5, r6, r8, sp, lr}^
 6dc:	2f00632e 	svccs	0x0000632e
 6e0:	656d6f68 	strbvs	r6, [sp, #-3944]!	; 0xfffff098
 6e4:	6573752f 	ldrbvs	r7, [r3, #-1327]!	; 0xfffffad1
 6e8:	65442f72 	strbvs	r2, [r4, #-3954]	; 0xfffff08e
 6ec:	53432f76 	movtpl	r2, #16246	; 0x3f76
 6f0:	58303432 	ldmdapl	r0!, {r1, r4, r5, sl, ip, sp}
 6f4:	62696c2f 	rsbvs	r6, r9, #12032	; 0x2f00
 6f8:	73006970 	movwvc	r6, #2416	; 0x970
 6fc:	5f657a69 	svcpl	0x00657a69
 700:	696c0074 	stmdbvs	ip!, {r2, r4, r5, r6}^
 704:	6d2f6362 	stcvs	3, cr6, [pc, #-392]!	; 584 <_start-0x7a7c>
 708:	65736d65 	ldrbvs	r6, [r3, #-3429]!	; 0xfffff29b
 70c:	00632e74 	rsbeq	r2, r3, r4, ror lr
 710:	61765f5f 	cmnvs	r6, pc, asr pc
 714:	73696c5f 	cmnvc	r9, #24320	; 0x5f00
 718:	61760074 	cmnvs	r6, r4, ror r0
 71c:	6972705f 	ldmdbvs	r2!, {r0, r1, r2, r3, r4, r6, ip, sp, lr}^
 720:	006b746e 	rsbeq	r7, fp, lr, ror #8
 724:	6e675f5f 	mcrvs	15, 3, r5, cr7, cr15, {2}
 728:	765f6375 			; <UNDEFINED> instruction: 0x765f6375
 72c:	696c5f61 	stmdbvs	ip!, {r0, r5, r6, r8, r9, sl, fp, ip, lr}^
 730:	5f007473 	svcpl	0x00007473
 734:	0070615f 	rsbseq	r6, r0, pc, asr r1
 738:	6362696c 	cmnvs	r2, #108, 18	; 0x1b0000
 73c:	6972702f 	ldmdbvs	r2!, {r0, r1, r2, r3, r5, ip, sp, lr}^
 740:	2e6b746e 	cdpcs	4, 6, cr7, cr11, cr14, {3}
 744:	70720063 	rsbsvc	r0, r2, r3, rrx
 748:	65735f69 	ldrbvs	r5, [r3, #-3945]!	; 0xfffff097
 74c:	75705f74 	ldrbvc	r5, [r0, #-3956]!	; 0xfffff08c
 750:	75006374 	strvc	r6, [r0, #-884]	; 0xfffffc8c
 754:	5f747261 	svcpl	0x00747261
 758:	63747570 	cmnvs	r4, #112, 10	; 0x1c000000
 75c:	746e6900 	strbtvc	r6, [lr], #-2304	; 0xfffff700
 760:	616e7265 	cmnvs	lr, r5, ror #4
 764:	75705f6c 	ldrbvc	r5, [r0, #-3948]!	; 0xfffff094
 768:	61686374 	smcvs	34356	; 0x8634
 76c:	696c0072 	stmdbvs	ip!, {r1, r4, r5, r6}^
 770:	702f6362 	eorvc	r6, pc, r2, ror #6
 774:	68637475 	stmdavs	r3!, {r0, r2, r4, r5, r6, sl, ip, sp, lr}^
 778:	632e7261 			; <UNDEFINED> instruction: 0x632e7261
 77c:	746e6900 	strbtvc	r6, [lr], #-2304	; 0xfffff700
 780:	616e7265 	cmnvs	lr, r5, ror #4
 784:	75705f6c 	ldrbvc	r5, [r0, #-3948]!	; 0xfffff094
 788:	6c006b74 			; <UNDEFINED> instruction: 0x6c006b74
 78c:	2f636269 	svccs	0x00636269
 790:	6b747570 	blvs	1d1dd58 <__bss_end__+0x1d13ce8>
 794:	6c00632e 	stcvs	3, cr6, [r0], {46}	; 0x2e
 798:	2f636269 	svccs	0x00636269
 79c:	702d6176 	eorvc	r6, sp, r6, ror r1
 7a0:	746e6972 	strbtvc	r6, [lr], #-2418	; 0xfffff68e
 7a4:	00632e6b 	rsbeq	r2, r3, fp, ror #28
 7a8:	5f697072 	svcpl	0x00697072
 7ac:	5f746573 	svcpl	0x00746573
 7b0:	7074756f 	rsbsvc	r7, r4, pc, ror #10
 7b4:	73007475 	movwvc	r7, #1141	; 0x475
 7b8:	656e6769 	strbvs	r6, [lr, #-1897]!	; 0xfffff897
 7bc:	00705f64 	rsbseq	r5, r0, r4, ror #30
 7c0:	65766572 	ldrbvs	r6, [r6, #-1394]!	; 0xfffffa8e
 7c4:	00657372 	rsbeq	r7, r5, r2, ror r3
 7c8:	74646977 	strbtvc	r6, [r4], #-2423	; 0xfffff689
 7cc:	75700068 	ldrbvc	r0, [r0, #-104]!	; 0xffffff98
 7d0:	665f7374 			; <UNDEFINED> instruction: 0x665f7374
 7d4:	656e0070 	strbvs	r0, [lr, #-112]!	; 0xffffff90
 7d8:	00705f67 	rsbseq	r5, r0, r7, ror #30
 7dc:	63747570 	cmnvs	r4, #112, 10	; 0x1c000000
 7e0:	0070665f 	rsbseq	r6, r0, pc, asr r6
 7e4:	69647369 	stmdbvs	r4!, {r0, r3, r5, r6, r8, r9, ip, sp, lr}^
 7e8:	00746967 	rsbseq	r6, r4, r7, ror #18
 7ec:	74696d65 	strbtvc	r6, [r9], #-3429	; 0xfffff29b
 7f0:	61747300 	cmnvs	r4, r0, lsl #6
 7f4:	732d6666 			; <UNDEFINED> instruction: 0x732d6666
 7f8:	632f6372 			; <UNDEFINED> instruction: 0x632f6372
 7fc:	6e61656c 	cdpvs	5, 6, cr6, cr1, cr12, {3}
 800:	6265722d 	rsbvs	r7, r5, #-805306366	; 0xd0000002
 804:	2e746f6f 	cdpcs	15, 7, cr6, cr4, cr15, {3}
 808:	65640063 	strbvs	r0, [r4, #-99]!	; 0xffffff9d
 80c:	5f79616c 	svcpl	0x0079616c
 810:	7200736d 	andvc	r7, r0, #-1275068415	; 0xb4000001
 814:	725f6970 	subsvc	r6, pc, #112, 18	; 0x1c0000
 818:	6f6f6265 	svcvs	0x006f6265
 81c:	74730074 	ldrbtvc	r0, [r3], #-116	; 0xffffff8c
 820:	2d666661 	stclcs	6, cr6, [r6, #-388]!	; 0xfffffe7c
 824:	2f637273 	svccs	0x00637273
 828:	61747363 	cmnvs	r4, r3, ror #6
 82c:	632e7472 			; <UNDEFINED> instruction: 0x632e7472
 830:	73635f00 	cmnvc	r3, #0, 30
 834:	74726174 	ldrbtvc	r6, [r2], #-372	; 0xfffffe8c
 838:	73736200 	cmnvc	r3, #0, 4
 83c:	646e655f 	strbtvs	r6, [lr], #-1375	; 0xfffffaa1
 840:	625f5f00 	subsvs	r5, pc, #0, 30
 844:	735f7373 	cmpvc	pc, #-872415231	; 0xcc000001
 848:	74726174 	ldrbtvc	r6, [r2], #-372	; 0xfffffe8c
 84c:	5f005f5f 	svcpl	0x00005f5f
 850:	7373625f 	cmnvc	r3, #-268435451	; 0xf0000005
 854:	646e655f 	strbtvs	r6, [lr], #-1375	; 0xfffffaa1
 858:	50005f5f 	andpl	r5, r0, pc, asr pc
 85c:	53525f4d 	cmppl	r2, #308	; 0x134
 860:	50004354 	andpl	r4, r0, r4, asr r3
 864:	32335455 	eorscc	r5, r3, #1426063360	; 0x55000000
 868:	5f4d5000 	svcpl	0x004d5000
 86c:	43545352 	cmpmi	r4, #1207959553	; 0x48000001
 870:	4352575f 	cmpmi	r2, #24903680	; 0x17c0000
 874:	465f4746 	ldrbmi	r4, [pc], -r6, asr #14
 878:	5f4c4c55 	svcpl	0x004c4c55
 87c:	45534552 	ldrbmi	r4, [r3, #-1362]	; 0xfffffaae
 880:	4d500054 	ldclmi	0, cr0, [r0, #-336]	; 0xfffffeb0
 884:	4f44575f 	svcmi	0x0044575f
 888:	70630047 	rsbvc	r0, r3, r7, asr #32
 88c:	50007273 	andpl	r7, r0, r3, ror r2
 890:	41505f4d 	cmpmi	r0, sp, asr #30
 894:	4f575353 	svcmi	0x00575353
 898:	73004452 	movwvc	r4, #1106	; 0x452
 89c:	66666174 			; <UNDEFINED> instruction: 0x66666174
 8a0:	6372732d 	cmnvs	r2, #-1275068416	; 0xb4000000
 8a4:	6265722f 	rsbvs	r7, r5, #-268435454	; 0xf0000002
 8a8:	2e746f6f 	cdpcs	15, 7, cr6, cr4, cr15, {3}
 8ac:	65730063 	ldrbvs	r0, [r3, #-99]!	; 0xffffff9d
 8b0:	73755f74 	cmnvc	r5, #116, 30	; 0x1d0
 8b4:	6c5f7265 	lfmvs	f7, 2, [pc], {101}	; 0x65
 8b8:	6c657665 	stclvs	6, cr7, [r5], #-404	; 0xfffffe6c
 8bc:	5f746100 	svcpl	0x00746100
 8c0:	72657375 	rsbvc	r7, r5, #-738197503	; 0xd4000001
 8c4:	76656c5f 			; <UNDEFINED> instruction: 0x76656c5f
 8c8:	74006c65 	strvc	r6, [r0], #-3173	; 0xfffff39b
 8cc:	72656d69 	rsbvc	r6, r5, #6720	; 0x1a40
 8d0:	7465675f 	strbtvc	r6, [r5], #-1887	; 0xfffff8a1
 8d4:	6573755f 	ldrbvs	r7, [r3, #-1375]!	; 0xfffffaa1
 8d8:	65640063 	strbvs	r0, [r4, #-99]!	; 0xffffff9d
 8dc:	5f79616c 	svcpl	0x0079616c
 8e0:	00636573 	rsbeq	r6, r3, r3, ror r5
 8e4:	616c6564 	cmnvs	ip, r4, ror #10
 8e8:	79635f79 	stmdbvc	r3!, {r0, r3, r4, r5, r6, r8, r9, sl, fp, ip, lr}^
 8ec:	73656c63 	cmnvc	r5, #25344	; 0x6300
 8f0:	61747300 	cmnvs	r4, r0, lsl #6
 8f4:	732d6666 			; <UNDEFINED> instruction: 0x732d6666
 8f8:	742f6372 	strtvc	r6, [pc], #-882	; 900 <_start-0x7700>
 8fc:	72656d69 	rsbvc	r6, r5, #6720	; 0x1a40
 900:	7400632e 	strvc	r6, [r0], #-814	; 0xfffffcd2
 904:	736b6369 	cmnvc	fp, #-1543503871	; 0xa4000001
 908:	54454700 	strbpl	r4, [r5], #-1792	; 0xfffff900
 90c:	74003233 	strvc	r3, [r0], #-563	; 0xfffffdcd
 910:	72656d69 	rsbvc	r6, r5, #6720	; 0x1a40
 914:	7465675f 	strbtvc	r6, [r5], #-1887	; 0xfffff8a1
 918:	6573755f 	ldrbvs	r7, [r3, #-1375]!	; 0xfffffaa1
 91c:	61725f63 	cmnvs	r2, r3, ror #30
 920:	65640077 	strbvs	r0, [r4, #-119]!	; 0xffffff89
 924:	5f79616c 	svcpl	0x0079616c
 928:	75007375 	strvc	r7, [r0, #-885]	; 0xfffffc8b
 92c:	5f747261 	svcpl	0x00747261
 930:	74696e69 	strbtvc	r6, [r9], #-3689	; 0xfffff197
 934:	49504700 	ldmdbmi	r0, {r8, r9, sl, lr}^
 938:	55465f4f 	strbpl	r5, [r6, #-3919]	; 0xfffff0b1
 93c:	495f434e 	ldmdbmi	pc, {r1, r2, r3, r6, r8, r9, lr}^	; <UNPREDICTABLE>
 940:	5455504e 	ldrbpl	r5, [r5], #-78	; 0xffffffb2
 944:	61747300 	cmnvs	r4, r0, lsl #6
 948:	50470074 	subpl	r0, r7, r4, ror r0
 94c:	465f4f49 	ldrbmi	r4, [pc], -r9, asr #30
 950:	5f434e55 	svcpl	0x00434e55
 954:	31544c41 	cmpcc	r4, r1, asr #24
 958:	746e6300 	strbtvc	r6, [lr], #-768	; 0xfffffd00
 95c:	6175006c 	cmnvs	r5, ip, rrx
 960:	632e7472 			; <UNDEFINED> instruction: 0x632e7472
 964:	78756100 	ldmdavc	r5!, {r8, sp, lr}^
 968:	7265705f 	rsbvc	r7, r5, #95	; 0x5f
 96c:	73687069 	cmnvc	r8, #105	; 0x69
 970:	6f682f00 	svcvs	0x00682f00
 974:	652f656d 	strvs	r6, [pc, #-1389]!	; 40f <_start-0x7bf1>
 978:	656c676e 	strbvs	r6, [ip, #-1902]!	; 0xfffff892
 97c:	6c632f72 	stclvs	15, cr2, [r3], #-456	; 0xfffffe38
 980:	2f737361 	svccs	0x00737361
 984:	34327363 	ldrtcc	r7, [r2], #-867	; 0xfffffc9d
 988:	2d786c30 	ldclcs	12, cr6, [r8, #-192]!	; 0xffffff40
 98c:	70733032 	rsbsvc	r3, r3, r2, lsr r0
 990:	696c2f72 	stmdbvs	ip!, {r1, r4, r5, r6, r8, r9, sl, fp, sp}^
 994:	2f697062 	svccs	0x00697062
 998:	66617473 			; <UNDEFINED> instruction: 0x66617473
 99c:	72702d66 	rsbsvc	r2, r0, #6528	; 0x1980
 9a0:	74617669 	strbtvc	r7, [r1], #-1641	; 0xfffff997
 9a4:	75610065 	strbvc	r0, [r1, #-101]!	; 0xffffff9b
 9a8:	6e655f78 	mcrvs	15, 3, r5, cr5, cr8, {3}
 9ac:	656c6261 	strbvs	r6, [ip, #-609]!	; 0xfffffd9f
 9b0:	61750073 	cmnvs	r5, r3, ror r0
 9b4:	635f7472 	cmpvs	pc, #1912602624	; 0x72000000
 9b8:	705f6e61 	subsvc	r6, pc, r1, ror #28
 9bc:	00637475 	rsbeq	r7, r3, r5, ror r4
 9c0:	74726175 	ldrbtvc	r6, [r2], #-373	; 0xfffffe8b
 9c4:	7465675f 	strbtvc	r6, [r5], #-1887	; 0xfffff8a1
 9c8:	65640063 	strbvs	r0, [r4, #-99]!	; 0xffffff9d
 9cc:	61625f76 	smcvs	9718	; 0x25f6
 9d0:	65697272 	strbvs	r7, [r9, #-626]!	; 0xfffffd8e
 9d4:	50470072 	subpl	r0, r7, r2, ror r0
 9d8:	465f4f49 	ldrbmi	r4, [pc], -r9, asr #30
 9dc:	5f434e55 	svcpl	0x00434e55
 9e0:	32544c41 	subscc	r4, r4, #16640	; 0x4100
 9e4:	7a697300 	bvc	1a5d5ec <__bss_end__+0x1a5357c>
 9e8:	70797465 	rsbsvc	r7, r9, r5, ror #8
 9ec:	70670065 	rsbvc	r0, r7, r5, rrx
 9f0:	735f6f69 	cmpvc	pc, #420	; 0x1a4
 9f4:	665f7465 	ldrbvs	r7, [pc], -r5, ror #8
 9f8:	74636e75 	strbtvc	r6, [r3], #-3701	; 0xfffff18b
 9fc:	006e6f69 	rsbeq	r6, lr, r9, ror #30
 a00:	74726175 	ldrbtvc	r6, [r2], #-373	; 0xfffffe8b
 a04:	4f4c5f00 	svcmi	0x004c5f00
 a08:	525f4b43 	subspl	r4, pc, #68608	; 0x10c00
 a0c:	52554345 	subspl	r4, r5, #335544321	; 0x14000001
 a10:	45564953 	ldrbmi	r4, [r6, #-2387]	; 0xfffff6ad
 a14:	5f00545f 	svcpl	0x0000545f
 a18:	72727563 	rsbsvc	r7, r2, #415236096	; 0x18c00000
 a1c:	5f746e65 	svcpl	0x00746e65
 a20:	61636f6c 	cmnvs	r3, ip, ror #30
 a24:	6200656c 	andvs	r6, r0, #108, 10	; 0x1b000000
 a28:	00647561 	rsbeq	r7, r4, r1, ror #10
 a2c:	61726373 	cmnvs	r2, r3, ror r3
 a30:	00686374 	rsbeq	r6, r8, r4, ror r3
 a34:	33747570 	cmncc	r4, #112, 10	; 0x1c000000
 a38:	4e470032 	mcrmi	0, 2, r0, cr7, cr2, {1}
 a3c:	39432055 	stmdbcc	r3, {r0, r2, r4, r6, sp}^
 a40:	2e362039 	mrccs	0, 1, r2, cr6, cr9, {1}
 a44:	20312e33 	eorscs	r2, r1, r3, lsr lr
 a48:	37313032 			; <UNDEFINED> instruction: 0x37313032
 a4c:	30323630 	eorscc	r3, r2, r0, lsr r6
 a50:	636d2d20 	cmnvs	sp, #32, 26	; 0x800
 a54:	613d7570 	teqvs	sp, r0, ror r5
 a58:	31316d72 	teqcc	r1, r2, ror sp
 a5c:	7a6a3637 	bvc	1a8e340 <__bss_end__+0x1a842d0>
 a60:	20732d66 	rsbscs	r2, r3, r6, ror #26
 a64:	75746d2d 	ldrbvc	r6, [r4, #-3373]!	; 0xfffff2d3
 a68:	613d656e 	teqvs	sp, lr, ror #10
 a6c:	31316d72 	teqcc	r1, r2, ror sp
 a70:	7a6a3637 	bvc	1a8e354 <__bss_end__+0x1a842e4>
 a74:	20732d66 	rsbscs	r2, r3, r6, ror #26
 a78:	6467672d 	strbtvs	r6, [r7], #-1837	; 0xfffff8d3
 a7c:	4f2d2062 	svcmi	0x002d2062
 a80:	732d2067 			; <UNDEFINED> instruction: 0x732d2067
 a84:	673d6474 			; <UNDEFINED> instruction: 0x673d6474
 a88:	3939756e 	ldmdbcc	r9!, {r1, r2, r3, r5, r6, r8, sl, ip, sp, lr}
 a8c:	66662d20 	strbtvs	r2, [r6], -r0, lsr #26
 a90:	73656572 	cmnvc	r5, #478150656	; 0x1c800000
 a94:	646e6174 	strbtvs	r6, [lr], #-372	; 0xfffffe8c
 a98:	00676e69 	rsbeq	r6, r7, r9, ror #28
 a9c:	7275635f 	rsbsvc	r6, r5, #2080374785	; 0x7c000001
 aa0:	746e6572 	strbtvc	r6, [lr], #-1394	; 0xfffffa8e
 aa4:	7461635f 	strbtvc	r6, [r1], #-863	; 0xfffffca1
 aa8:	726f6765 	rsbvc	r6, pc, #26476544	; 0x1940000
 aac:	50470079 	subpl	r0, r7, r9, ror r0
 ab0:	465f4f49 	ldrbmi	r4, [pc], -r9, asr #30
 ab4:	5f434e55 	svcpl	0x00434e55
 ab8:	5054554f 	subspl	r5, r4, pc, asr #10
 abc:	67005455 	smlsdvs	r0, r5, r4, r5
 ac0:	32337465 	eorscc	r7, r3, #1694498816	; 0x65000000
 ac4:	72617500 	rsbvc	r7, r1, #0, 10
 ac8:	61635f74 	smcvs	13812	; 0x35f4
 acc:	65675f6e 	strbvs	r5, [r7, #-3950]!	; 0xfffff092
 ad0:	6f006374 	svcvs	0x00006374
 ad4:	6e695f72 	mcrvs	15, 3, r5, cr9, cr2, {3}
 ad8:	75003233 	strvc	r3, [r0, #-563]	; 0xfffffdcd
 adc:	5f747261 	svcpl	0x00747261
 ae0:	5f736168 	svcpl	0x00736168
 ae4:	61746164 	cmnvs	r4, r4, ror #2
 ae8:	49504700 	ldmdbmi	r0, {r8, r9, sl, lr}^
 aec:	55465f4f 	strbpl	r5, [r6, #-3919]	; 0xfffff0b1
 af0:	415f434e 	cmpmi	pc, lr, asr #6
 af4:	0030544c 	eorseq	r5, r0, ip, asr #8
 af8:	4f495047 	svcmi	0x00495047
 afc:	4e55465f 	mrcmi	6, 2, r4, cr5, cr15, {2}
 b00:	4c415f43 	mcrrmi	15, 4, r5, r1, cr3
 b04:	47003354 	smlsdmi	r0, r4, r3, r3
 b08:	5f4f4950 	svcpl	0x004f4950
 b0c:	434e5546 	movtmi	r5, #58694	; 0xe546
 b10:	544c415f 	strbpl	r4, [ip], #-351	; 0xfffffea1
 b14:	50470034 	subpl	r0, r7, r4, lsr r0
 b18:	465f4f49 	ldrbmi	r4, [pc], -r9, asr #30
 b1c:	5f434e55 	svcpl	0x00434e55
 b20:	35544c41 	ldrbcc	r4, [r4, #-3137]	; 0xfffff3bf
 b24:	69706700 	ldmdbvs	r0!, {r8, r9, sl, sp, lr}^
 b28:	65735f6f 	ldrbvs	r5, [r3, #-3951]!	; 0xfffff091
 b2c:	666f5f74 	uqsub16vs	r5, pc, r4	; <UNPREDICTABLE>
 b30:	61620066 	cmnvs	r2, r6, rrx
 b34:	67006b6e 	strvs	r6, [r0, -lr, ror #22]
 b38:	2e6f6970 			; <UNDEFINED> instruction: 0x2e6f6970
 b3c:	70670063 	rsbvc	r0, r7, r3, rrx
 b40:	725f6f69 	subsvc	r6, pc, #420	; 0x1a4
 b44:	00646165 	rsbeq	r6, r4, r5, ror #2
 b48:	6f697067 	svcvs	0x00697067
 b4c:	7465735f 	strbtvc	r7, [r5], #-863	; 0xfffffca1
 b50:	74756f5f 	ldrbtvc	r6, [r5], #-3935	; 0xfffff0a1
 b54:	00747570 	rsbseq	r7, r4, r0, ror r5
 b58:	6f697067 	svcvs	0x00697067
 b5c:	6972775f 	ldmdbvs	r2!, {r0, r1, r2, r3, r4, r6, r8, r9, sl, ip, sp, lr}^
 b60:	67006574 	smlsdxvs	r0, r4, r5, r6
 b64:	5f6f6970 	svcpl	0x006f6970
 b68:	30746573 	rsbscc	r6, r4, r3, ror r5
 b6c:	69706700 	ldmdbvs	r0!, {r8, r9, sl, sp, lr}^
 b70:	656c5f6f 	strbvs	r5, [ip, #-3951]!	; 0xfffff091
 b74:	67003076 	smlsdxvs	r0, r6, r0, r3
 b78:	5f6f6970 	svcpl	0x006f6970
 b7c:	5f746573 	svcpl	0x00746573
 b80:	75706e69 	ldrbvc	r6, [r0, #-3689]!	; 0xfffff197
 b84:	70670074 	rsbvc	r0, r7, r4, ror r0
 b88:	735f6f69 	cmpvc	pc, #420	; 0x1a4
 b8c:	6f5f7465 	svcvs	0x005f7465
 b90:	7067006e 	rsbvc	r0, r7, lr, rrx
 b94:	665f6f69 	ldrbvs	r6, [pc], -r9, ror #30
 b98:	5f636e75 	svcpl	0x00636e75
 b9c:	70670074 	rsbvc	r0, r7, r4, ror r0
 ba0:	635f6f69 	cmpvs	pc, #420	; 0x1a4
 ba4:	0030726c 	eorseq	r7, r0, ip, ror #4
 ba8:	6c616d6b 	stclvs	13, cr6, [r1], #-428	; 0xfffffe54
 bac:	2e636f6c 	cdpcs	15, 6, cr6, cr3, cr12, {3}
 bb0:	6d6b0063 	stclvs	0, cr0, [fp, #-396]!	; 0xfffffe74
 bb4:	6f6c6c61 	svcvs	0x006c6c61
 bb8:	6e695f63 	cdpvs	15, 6, cr5, cr9, cr3, {3}
 bbc:	6b007469 	blvs	1dd68 <__bss_end__+0x13cf8>
 bc0:	6c6c616d 	stfvse	f6, [ip], #-436	; 0xfffffe4c
 bc4:	615f636f 	cmpvs	pc, pc, ror #6
 bc8:	6e67696c 	vnmulvs.f16	s13, s14, s25	; <UNPREDICTABLE>
 bcc:	64006465 	strvs	r6, [r0], #-1125	; 0xfffffb9b
 bd0:	6c62756f 	cfstr64vs	mvdx7, [r2], #-444	; 0xfffffe44
 bd4:	666b0065 	strbtvs	r0, [fp], -r5, rrx
 bd8:	5f656572 	svcpl	0x00656572
 bdc:	006c6c61 	rsbeq	r6, ip, r1, ror #24
 be0:	6572666b 	ldrbvs	r6, [r2, #-1643]!	; 0xfffff995
 be4:	66615f65 	strbtvs	r5, [r1], -r5, ror #30
 be8:	00726574 	rsbseq	r6, r2, r4, ror r5
 bec:	6c616d6b 	stclvs	13, cr6, [r1], #-428	; 0xfffffe54
 bf0:	5f636f6c 	svcpl	0x00636f6c
 bf4:	70616568 	rsbvc	r6, r1, r8, ror #10
 bf8:	7274705f 	rsbsvc	r7, r4, #95	; 0x5f
 bfc:	696c6100 	stmdbvs	ip!, {r8, sp, lr}^
 c00:	656d6e67 	strbvs	r6, [sp, #-3687]!	; 0xfffff199
 c04:	5f00746e 	svcpl	0x0000746e
 c08:	6165685f 	cmnvs	r5, pc, asr r8
 c0c:	74735f70 	ldrbtvc	r5, [r3], #-3952	; 0xfffff090
 c10:	5f747261 	svcpl	0x00747261
 c14:	6d6b005f 	stclvs	0, cr0, [fp, #-380]!	; 0xfffffe84
 c18:	6f6c6c61 	svcvs	0x006c6c61
 c1c:	65685f63 	strbvs	r5, [r8, #-3939]!	; 0xfffff09d
 c20:	735f7061 	cmpvc	pc, #97	; 0x61
 c24:	74726174 	ldrbtvc	r6, [r2], #-372	; 0xfffffe8c
 c28:	64615f00 	strbtvs	r5, [r1], #-3840	; 0xfffff100
 c2c:	6b007264 	blvs	1d5c4 <__bss_end__+0x13554>
 c30:	6c6c616d 	stfvse	f6, [ip], #-436	; 0xfffffe4c
 c34:	685f636f 	ldmdavs	pc, {r0, r1, r2, r3, r5, r6, r8, r9, sp, lr}^	; <UNPREDICTABLE>
 c38:	5f706165 	svcpl	0x00706165
 c3c:	00646e65 	rsbeq	r6, r4, r5, ror #28

Disassembly of section .debug_frame:

00000000 <.debug_frame>:
   0:	0000000c 	andeq	r0, r0, ip
   4:	ffffffff 			; <UNDEFINED> instruction: 0xffffffff
   8:	7c020001 	stcvc	0, cr0, [r2], {1}
   c:	000d0c0e 	andeq	r0, sp, lr, lsl #24
  10:	00000024 	andeq	r0, r0, r4, lsr #32
  14:	00000000 	andeq	r0, r0, r0
  18:	00008010 	andeq	r8, r0, r0, lsl r0
  1c:	000000d0 	ldrdeq	r0, [r0], -r0	; <UNPREDICTABLE>
  20:	84100e42 	ldrhi	r0, [r0], #-3650	; 0xfffff1be
  24:	86038504 	strhi	r8, [r3], -r4, lsl #10
  28:	42018e02 	andmi	r8, r1, #2, 28
  2c:	4402180e 	strmi	r1, [r2], #-2062	; 0xfffff7f2
  30:	42100e0a 	andsmi	r0, r0, #10, 28	; 0xa0
  34:	0000000b 	andeq	r0, r0, fp
  38:	0000000c 	andeq	r0, r0, ip
  3c:	ffffffff 			; <UNDEFINED> instruction: 0xffffffff
  40:	7c020001 	stcvc	0, cr0, [r2], {1}
  44:	000d0c0e 	andeq	r0, sp, lr, lsl #24
  48:	0000000c 	andeq	r0, r0, ip
  4c:	00000038 	andeq	r0, r0, r8, lsr r0
  50:	000080e0 	andeq	r8, r0, r0, ror #1
  54:	00000008 	andeq	r0, r0, r8
  58:	00000014 	andeq	r0, r0, r4, lsl r0
  5c:	00000038 	andeq	r0, r0, r8, lsr r0
  60:	000080e8 	andeq	r8, r0, r8, ror #1
  64:	00000010 	andeq	r0, r0, r0, lsl r0
  68:	84080e42 	strhi	r0, [r8], #-3650	; 0xfffff1be
  6c:	00018e02 	andeq	r8, r1, r2, lsl #28
  70:	00000014 	andeq	r0, r0, r4, lsl r0
  74:	00000038 	andeq	r0, r0, r8, lsr r0
  78:	000080f8 	strdeq	r8, [r0], -r8	; <UNPREDICTABLE>
  7c:	00000018 	andeq	r0, r0, r8, lsl r0
  80:	84080e42 	strhi	r0, [r8], #-3650	; 0xfffff1be
  84:	00018e02 	andeq	r8, r1, r2, lsl #28
  88:	0000000c 	andeq	r0, r0, ip
  8c:	00000038 	andeq	r0, r0, r8, lsr r0
  90:	00008110 	andeq	r8, r0, r0, lsl r1
  94:	0000000c 	andeq	r0, r0, ip
  98:	0000000c 	andeq	r0, r0, ip
  9c:	00000038 	andeq	r0, r0, r8, lsr r0
  a0:	0000811c 	andeq	r8, r0, ip, lsl r1
  a4:	00000008 	andeq	r0, r0, r8
  a8:	0000001c 	andeq	r0, r0, ip, lsl r0
  ac:	00000038 	andeq	r0, r0, r8, lsr r0
  b0:	00008124 	andeq	r8, r0, r4, lsr #2
  b4:	0000010c 	andeq	r0, r0, ip, lsl #2
  b8:	84180e42 	ldrhi	r0, [r8], #-3650	; 0xfffff1be
  bc:	86058506 	strhi	r8, [r5], -r6, lsl #10
  c0:	88038704 	stmdahi	r3, {r2, r8, r9, sl, pc}
  c4:	00018e02 	andeq	r8, r1, r2, lsl #28
  c8:	00000014 	andeq	r0, r0, r4, lsl r0
  cc:	00000038 	andeq	r0, r0, r8, lsr r0
  d0:	00008230 	andeq	r8, r0, r0, lsr r2
  d4:	00000014 	andeq	r0, r0, r4, lsl r0
  d8:	84080e42 	strhi	r0, [r8], #-3650	; 0xfffff1be
  dc:	00018e02 	andeq	r8, r1, r2, lsl #28
  e0:	00000018 	andeq	r0, r0, r8, lsl r0
  e4:	00000038 	andeq	r0, r0, r8, lsr r0
  e8:	00008244 	andeq	r8, r0, r4, asr #4
  ec:	00000024 	andeq	r0, r0, r4, lsr #32
  f0:	84100e42 	ldrhi	r0, [r0], #-3650	; 0xfffff1be
  f4:	86038504 	strhi	r8, [r3], -r4, lsl #10
  f8:	00018e02 	andeq	r8, r1, r2, lsl #28
  fc:	00000018 	andeq	r0, r0, r8, lsl r0
 100:	00000038 	andeq	r0, r0, r8, lsr r0
 104:	00008268 	andeq	r8, r0, r8, ror #4
 108:	000000e8 	andeq	r0, r0, r8, ror #1
 10c:	84100e42 	ldrhi	r0, [r0], #-3650	; 0xfffff1be
 110:	86038504 	strhi	r8, [r3], -r4, lsl #10
 114:	00018e02 	andeq	r8, r1, r2, lsl #28
 118:	0000001c 	andeq	r0, r0, ip, lsl r0
 11c:	00000038 	andeq	r0, r0, r8, lsr r0
 120:	00008350 	andeq	r8, r0, r0, asr r3
 124:	000000fc 	strdeq	r0, [r0], -ip
 128:	84180e42 	ldrhi	r0, [r8], #-3650	; 0xfffff1be
 12c:	86058506 	strhi	r8, [r5], -r6, lsl #10
 130:	88038704 	stmdahi	r3, {r2, r8, r9, sl, pc}
 134:	00018e02 	andeq	r8, r1, r2, lsl #28
 138:	00000018 	andeq	r0, r0, r8, lsl r0
 13c:	00000038 	andeq	r0, r0, r8, lsr r0
 140:	0000844c 	andeq	r8, r0, ip, asr #8
 144:	00000064 	andeq	r0, r0, r4, rrx
 148:	84100e42 	ldrhi	r0, [r0], #-3650	; 0xfffff1be
 14c:	86038504 	strhi	r8, [r3], -r4, lsl #10
 150:	00018e02 	andeq	r8, r1, r2, lsl #28
 154:	00000018 	andeq	r0, r0, r8, lsl r0
 158:	00000038 	andeq	r0, r0, r8, lsr r0
 15c:	000084b0 			; <UNDEFINED> instruction: 0x000084b0
 160:	00000074 	andeq	r0, r0, r4, ror r0
 164:	84100e42 	ldrhi	r0, [r0], #-3650	; 0xfffff1be
 168:	86038504 	strhi	r8, [r3], -r4, lsl #10
 16c:	00018e02 	andeq	r8, r1, r2, lsl #28
 170:	0000001c 	andeq	r0, r0, ip, lsl r0
 174:	00000038 	andeq	r0, r0, r8, lsr r0
 178:	00008524 	andeq	r8, r0, r4, lsr #10
 17c:	000000b8 	strheq	r0, [r0], -r8
 180:	84180e42 	ldrhi	r0, [r8], #-3650	; 0xfffff1be
 184:	86058506 	strhi	r8, [r5], -r6, lsl #10
 188:	88038704 	stmdahi	r3, {r2, r8, r9, sl, pc}
 18c:	00018e02 	andeq	r8, r1, r2, lsl #28
 190:	00000028 	andeq	r0, r0, r8, lsr #32
 194:	00000038 	andeq	r0, r0, r8, lsr r0
 198:	000085dc 	ldrdeq	r8, [r0], -ip
 19c:	0000021c 	andeq	r0, r0, ip, lsl r2
 1a0:	841c0e42 	ldrhi	r0, [ip], #-3650	; 0xfffff1be
 1a4:	86068507 	strhi	r8, [r6], -r7, lsl #10
 1a8:	88048705 	stmdahi	r4, {r0, r2, r8, r9, sl, pc}
 1ac:	8e028903 	vmlahi.f16	s16, s4, s6	; <UNPREDICTABLE>
 1b0:	280e4201 	stmdacs	lr, {r0, r9, lr}
 1b4:	0e0a8e02 	cdpeq	14, 0, cr8, cr10, cr2, {0}
 1b8:	000b421c 	andeq	r4, fp, ip, lsl r2
 1bc:	00000014 	andeq	r0, r0, r4, lsl r0
 1c0:	00000038 	andeq	r0, r0, r8, lsr r0
 1c4:	000087f8 	strdeq	r8, [r0], -r8	; <UNPREDICTABLE>
 1c8:	00000030 	andeq	r0, r0, r0, lsr r0
 1cc:	84080e42 	strhi	r0, [r8], #-3650	; 0xfffff1be
 1d0:	00018e02 	andeq	r8, r1, r2, lsl #28
 1d4:	00000014 	andeq	r0, r0, r4, lsl r0
 1d8:	00000038 	andeq	r0, r0, r8, lsr r0
 1dc:	00008828 	andeq	r8, r0, r8, lsr #16
 1e0:	0000004c 	andeq	r0, r0, ip, asr #32
 1e4:	84080e42 	strhi	r0, [r8], #-3650	; 0xfffff1be
 1e8:	00018e02 	andeq	r8, r1, r2, lsl #28
 1ec:	0000001c 	andeq	r0, r0, ip, lsl r0
 1f0:	00000038 	andeq	r0, r0, r8, lsr r0
 1f4:	00008874 	andeq	r8, r0, r4, ror r8
 1f8:	00000144 	andeq	r0, r0, r4, asr #2
 1fc:	84180e42 	ldrhi	r0, [r8], #-3650	; 0xfffff1be
 200:	86058506 	strhi	r8, [r5], -r6, lsl #10
 204:	88038704 	stmdahi	r3, {r2, r8, r9, sl, pc}
 208:	00018e02 	andeq	r8, r1, r2, lsl #28
 20c:	0000000c 	andeq	r0, r0, ip
 210:	ffffffff 			; <UNDEFINED> instruction: 0xffffffff
 214:	7c020001 	stcvc	0, cr0, [r2], {1}
 218:	000d0c0e 	andeq	r0, sp, lr, lsl #24
 21c:	00000018 	andeq	r0, r0, r8, lsl r0
 220:	0000020c 	andeq	r0, r0, ip, lsl #4
 224:	000089b8 			; <UNDEFINED> instruction: 0x000089b8
 228:	000000ec 	andeq	r0, r0, ip, ror #1
 22c:	8e040e48 	cdphi	14, 0, cr0, cr4, cr8, {2}
 230:	0e6a0201 	cdpeq	2, 6, cr0, cr10, cr1, {0}
 234:	0000ce00 	andeq	ip, r0, r0, lsl #28
 238:	0000000c 	andeq	r0, r0, ip
 23c:	ffffffff 			; <UNDEFINED> instruction: 0xffffffff
 240:	7c020001 	stcvc	0, cr0, [r2], {1}
 244:	000d0c0e 	andeq	r0, sp, lr, lsl #24
 248:	0000000c 	andeq	r0, r0, ip
 24c:	00000238 	andeq	r0, r0, r8, lsr r2
 250:	00008aa4 	andeq	r8, r0, r4, lsr #21
 254:	00000018 	andeq	r0, r0, r8, lsl r0
 258:	0000000c 	andeq	r0, r0, ip
 25c:	ffffffff 			; <UNDEFINED> instruction: 0xffffffff
 260:	7c020001 	stcvc	0, cr0, [r2], {1}
 264:	000d0c0e 	andeq	r0, sp, lr, lsl #24
 268:	00000034 	andeq	r0, r0, r4, lsr r0
 26c:	00000258 	andeq	r0, r0, r8, asr r2
 270:	00008abc 			; <UNDEFINED> instruction: 0x00008abc
 274:	00000058 	andeq	r0, r0, r8, asr r0
 278:	80100e42 	andshi	r0, r0, r2, asr #28
 27c:	82038104 	andhi	r8, r3, #4, 2
 280:	42018302 	andmi	r8, r1, #134217728	; 0x8000000
 284:	07841c0e 	streq	r1, [r4, lr, lsl #24]
 288:	058e0685 	streq	r0, [lr, #1669]	; 0x685
 28c:	5c280e42 	stcpl	14, cr0, [r8], #-264	; 0xfffffef8
 290:	ce421c0e 	cdpgt	12, 4, cr1, cr2, cr14, {0}
 294:	100ec4c5 	andne	ip, lr, r5, asr #9
 298:	c1c2c342 	bicgt	ip, r2, r2, asr #6
 29c:	00000ec0 	andeq	r0, r0, r0, asr #29
 2a0:	0000000c 	andeq	r0, r0, ip
 2a4:	ffffffff 			; <UNDEFINED> instruction: 0xffffffff
 2a8:	7c020001 	stcvc	0, cr0, [r2], {1}
 2ac:	000d0c0e 	andeq	r0, sp, lr, lsl #24
 2b0:	00000014 	andeq	r0, r0, r4, lsl r0
 2b4:	000002a0 	andeq	r0, r0, r0, lsr #5
 2b8:	00008b14 	andeq	r8, r0, r4, lsl fp
 2bc:	00000014 	andeq	r0, r0, r4, lsl r0
 2c0:	84080e42 	strhi	r0, [r8], #-3650	; 0xfffff1be
 2c4:	00018e02 	andeq	r8, r1, r2, lsl #28
 2c8:	0000000c 	andeq	r0, r0, ip
 2cc:	000002a0 	andeq	r0, r0, r0, lsr #5
 2d0:	00008b28 	andeq	r8, r0, r8, lsr #22
 2d4:	00000018 	andeq	r0, r0, r8, lsl r0
 2d8:	0000000c 	andeq	r0, r0, ip
 2dc:	000002a0 	andeq	r0, r0, r0, lsr #5
 2e0:	00008b40 	andeq	r8, r0, r0, asr #22
 2e4:	00000010 	andeq	r0, r0, r0, lsl r0
 2e8:	0000000c 	andeq	r0, r0, ip
 2ec:	ffffffff 			; <UNDEFINED> instruction: 0xffffffff
 2f0:	7c020001 	stcvc	0, cr0, [r2], {1}
 2f4:	000d0c0e 	andeq	r0, sp, lr, lsl #24
 2f8:	00000014 	andeq	r0, r0, r4, lsl r0
 2fc:	000002e8 	andeq	r0, r0, r8, ror #5
 300:	00008b50 	andeq	r8, r0, r0, asr fp
 304:	00000034 	andeq	r0, r0, r4, lsr r0
 308:	84080e42 	strhi	r0, [r8], #-3650	; 0xfffff1be
 30c:	00018e02 	andeq	r8, r1, r2, lsl #28
 310:	0000000c 	andeq	r0, r0, ip
 314:	ffffffff 			; <UNDEFINED> instruction: 0xffffffff
 318:	7c020001 	stcvc	0, cr0, [r2], {1}
 31c:	000d0c0e 	andeq	r0, sp, lr, lsl #24
 320:	0000000c 	andeq	r0, r0, ip
 324:	00000310 	andeq	r0, r0, r0, lsl r3
 328:	00008b84 	andeq	r8, r0, r4, lsl #23
 32c:	00000014 	andeq	r0, r0, r4, lsl r0
 330:	0000000c 	andeq	r0, r0, ip
 334:	00000310 	andeq	r0, r0, r0, lsl r3
 338:	00008b98 	muleq	r0, r8, fp
 33c:	00000024 	andeq	r0, r0, r4, lsr #32
 340:	0000000c 	andeq	r0, r0, ip
 344:	00000310 	andeq	r0, r0, r0, lsl r3
 348:	00008bbc 			; <UNDEFINED> instruction: 0x00008bbc
 34c:	00000038 	andeq	r0, r0, r8, lsr r0
 350:	00000024 	andeq	r0, r0, r4, lsr #32
 354:	00000310 	andeq	r0, r0, r0, lsl r3
 358:	00008bf4 	strdeq	r8, [r0], -r4
 35c:	000001ac 	andeq	r0, r0, ip, lsr #3
 360:	84140e42 	ldrhi	r0, [r4], #-3650	; 0xfffff1be
 364:	86048505 	strhi	r8, [r4], -r5, lsl #10
 368:	8e028703 	cdphi	7, 0, cr8, cr2, cr3, {0}
 36c:	580e4201 	stmdapl	lr, {r0, r9, lr}
 370:	0e0a9a02 	vmlaeq.f32	s18, s20, s4
 374:	000b4214 	andeq	r4, fp, r4, lsl r2
 378:	00000014 	andeq	r0, r0, r4, lsl r0
 37c:	00000310 	andeq	r0, r0, r0, lsl r3
 380:	00008da0 	andeq	r8, r0, r0, lsr #27
 384:	00000054 	andeq	r0, r0, r4, asr r0
 388:	84080e52 	strhi	r0, [r8], #-3666	; 0xfffff1ae
 38c:	00018e02 	andeq	r8, r1, r2, lsl #28
 390:	00000028 	andeq	r0, r0, r8, lsr #32
 394:	00000310 	andeq	r0, r0, r0, lsl r3
 398:	00008df4 	strdeq	r8, [r0], -r4
 39c:	000002b0 			; <UNDEFINED> instruction: 0x000002b0
 3a0:	841c0e42 	ldrhi	r0, [ip], #-3650	; 0xfffff1be
 3a4:	86068507 	strhi	r8, [r6], -r7, lsl #10
 3a8:	88048705 	stmdahi	r4, {r0, r2, r8, r9, sl, pc}
 3ac:	8e028903 	vmlahi.f16	s16, s4, s6	; <UNPREDICTABLE>
 3b0:	b00e4201 	andlt	r4, lr, r1, lsl #4
 3b4:	01480301 	cmpeq	r8, r1, lsl #6
 3b8:	00001c0e 	andeq	r1, r0, lr, lsl #24
 3bc:	0000000c 	andeq	r0, r0, ip
 3c0:	ffffffff 			; <UNDEFINED> instruction: 0xffffffff
 3c4:	7c020001 	stcvc	0, cr0, [r2], {1}
 3c8:	000d0c0e 	andeq	r0, sp, lr, lsl #24
 3cc:	00000014 	andeq	r0, r0, r4, lsl r0
 3d0:	000003bc 			; <UNDEFINED> instruction: 0x000003bc
 3d4:	000090a4 	andeq	r9, r0, r4, lsr #1
 3d8:	00000028 	andeq	r0, r0, r8, lsr #32
 3dc:	84080e42 	strhi	r0, [r8], #-3650	; 0xfffff1be
 3e0:	00018e02 	andeq	r8, r1, r2, lsl #28
 3e4:	0000000c 	andeq	r0, r0, ip
 3e8:	ffffffff 			; <UNDEFINED> instruction: 0xffffffff
 3ec:	7c020001 	stcvc	0, cr0, [r2], {1}
 3f0:	000d0c0e 	andeq	r0, sp, lr, lsl #24
 3f4:	00000014 	andeq	r0, r0, r4, lsl r0
 3f8:	000003e4 	andeq	r0, r0, r4, ror #7
 3fc:	000090cc 	andeq	r9, r0, ip, asr #1
 400:	0000002c 	andeq	r0, r0, ip, lsr #32
 404:	84080e42 	strhi	r0, [r8], #-3650	; 0xfffff1be
 408:	00018e02 	andeq	r8, r1, r2, lsl #28
 40c:	0000000c 	andeq	r0, r0, ip
 410:	ffffffff 			; <UNDEFINED> instruction: 0xffffffff
 414:	7c020001 	stcvc	0, cr0, [r2], {1}
 418:	000d0c0e 	andeq	r0, sp, lr, lsl #24
 41c:	0000000c 	andeq	r0, r0, ip
 420:	0000040c 	andeq	r0, r0, ip, lsl #8
 424:	000090f8 	strdeq	r9, [r0], -r8
 428:	00000018 	andeq	r0, r0, r8, lsl r0
 42c:	0000000c 	andeq	r0, r0, ip
 430:	0000040c 	andeq	r0, r0, ip, lsl #8
 434:	00009110 	andeq	r9, r0, r0, lsl r1
 438:	00000014 	andeq	r0, r0, r4, lsl r0
 43c:	00000014 	andeq	r0, r0, r4, lsl r0
 440:	0000040c 	andeq	r0, r0, ip, lsl #8
 444:	00009124 	andeq	r9, r0, r4, lsr #2
 448:	0000004c 	andeq	r0, r0, ip, asr #32
 44c:	84080e42 	strhi	r0, [r8], #-3650	; 0xfffff1be
 450:	00018e02 	andeq	r8, r1, r2, lsl #28
 454:	0000000c 	andeq	r0, r0, ip
 458:	ffffffff 			; <UNDEFINED> instruction: 0xffffffff
 45c:	7c020001 	stcvc	0, cr0, [r2], {1}
 460:	000d0c0e 	andeq	r0, sp, lr, lsl #24
 464:	0000000c 	andeq	r0, r0, ip
 468:	00000454 	andeq	r0, r0, r4, asr r4
 46c:	00009170 	andeq	r9, r0, r0, ror r1
 470:	00000018 	andeq	r0, r0, r8, lsl r0
 474:	00000014 	andeq	r0, r0, r4, lsl r0
 478:	00000454 	andeq	r0, r0, r4, asr r4
 47c:	00009188 	andeq	r9, r0, r8, lsl #3
 480:	00000014 	andeq	r0, r0, r4, lsl r0
 484:	84080e42 	strhi	r0, [r8], #-3650	; 0xfffff1be
 488:	00018e02 	andeq	r8, r1, r2, lsl #28
 48c:	00000014 	andeq	r0, r0, r4, lsl r0
 490:	00000454 	andeq	r0, r0, r4, asr r4
 494:	0000919c 	muleq	r0, ip, r1
 498:	0000000c 	andeq	r0, r0, ip
 49c:	84080e42 	strhi	r0, [r8], #-3650	; 0xfffff1be
 4a0:	00018e02 	andeq	r8, r1, r2, lsl #28
 4a4:	00000018 	andeq	r0, r0, r8, lsl r0
 4a8:	00000454 	andeq	r0, r0, r4, asr r4
 4ac:	000091a8 	andeq	r9, r0, r8, lsr #3
 4b0:	00000024 	andeq	r0, r0, r4, lsr #32
 4b4:	84100e42 	ldrhi	r0, [r0], #-3650	; 0xfffff1be
 4b8:	86038504 	strhi	r8, [r3], -r4, lsl #10
 4bc:	00018e02 	andeq	r8, r1, r2, lsl #28
 4c0:	00000014 	andeq	r0, r0, r4, lsl r0
 4c4:	00000454 	andeq	r0, r0, r4, asr r4
 4c8:	000091cc 	andeq	r9, r0, ip, asr #3
 4cc:	00000018 	andeq	r0, r0, r8, lsl r0
 4d0:	84080e42 	strhi	r0, [r8], #-3650	; 0xfffff1be
 4d4:	00018e02 	andeq	r8, r1, r2, lsl #28
 4d8:	00000014 	andeq	r0, r0, r4, lsl r0
 4dc:	00000454 	andeq	r0, r0, r4, asr r4
 4e0:	000091e4 	andeq	r9, r0, r4, ror #3
 4e4:	00000018 	andeq	r0, r0, r8, lsl r0
 4e8:	84080e42 	strhi	r0, [r8], #-3650	; 0xfffff1be
 4ec:	00018e02 	andeq	r8, r1, r2, lsl #28
 4f0:	0000000c 	andeq	r0, r0, ip
 4f4:	ffffffff 			; <UNDEFINED> instruction: 0xffffffff
 4f8:	7c020001 	stcvc	0, cr0, [r2], {1}
 4fc:	000d0c0e 	andeq	r0, sp, lr, lsl #24
 500:	00000018 	andeq	r0, r0, r8, lsl r0
 504:	000004f0 	strdeq	r0, [r0], -r0	; <UNPREDICTABLE>
 508:	00009248 	andeq	r9, r0, r8, asr #4
 50c:	00000020 	andeq	r0, r0, r0, lsr #32
 510:	84100e42 	ldrhi	r0, [r0], #-3650	; 0xfffff1be
 514:	86038504 	strhi	r8, [r3], -r4, lsl #10
 518:	00018e02 	andeq	r8, r1, r2, lsl #28
 51c:	00000014 	andeq	r0, r0, r4, lsl r0
 520:	000004f0 	strdeq	r0, [r0], -r0	; <UNPREDICTABLE>
 524:	00009268 	andeq	r9, r0, r8, ror #4
 528:	000000b0 	strheq	r0, [r0], -r0	; <UNPREDICTABLE>
 52c:	84080e42 	strhi	r0, [r8], #-3650	; 0xfffff1be
 530:	00018e02 	andeq	r8, r1, r2, lsl #28
 534:	00000014 	andeq	r0, r0, r4, lsl r0
 538:	000004f0 	strdeq	r0, [r0], -r0	; <UNPREDICTABLE>
 53c:	00009318 	andeq	r9, r0, r8, lsl r3
 540:	00000018 	andeq	r0, r0, r8, lsl r0
 544:	84080e42 	strhi	r0, [r8], #-3650	; 0xfffff1be
 548:	00018e02 	andeq	r8, r1, r2, lsl #28
 54c:	00000014 	andeq	r0, r0, r4, lsl r0
 550:	000004f0 	strdeq	r0, [r0], -r0	; <UNPREDICTABLE>
 554:	00009330 	andeq	r9, r0, r0, lsr r3
 558:	00000020 	andeq	r0, r0, r0, lsr #32
 55c:	84080e42 	strhi	r0, [r8], #-3650	; 0xfffff1be
 560:	00018e02 	andeq	r8, r1, r2, lsl #28
 564:	00000014 	andeq	r0, r0, r4, lsl r0
 568:	000004f0 	strdeq	r0, [r0], -r0	; <UNPREDICTABLE>
 56c:	00009350 	andeq	r9, r0, r0, asr r3
 570:	00000030 	andeq	r0, r0, r0, lsr r0
 574:	84080e42 	strhi	r0, [r8], #-3650	; 0xfffff1be
 578:	00018e02 	andeq	r8, r1, r2, lsl #28
 57c:	00000014 	andeq	r0, r0, r4, lsl r0
 580:	000004f0 	strdeq	r0, [r0], -r0	; <UNPREDICTABLE>
 584:	00009380 	andeq	r9, r0, r0, lsl #7
 588:	00000030 	andeq	r0, r0, r0, lsr r0
 58c:	84080e42 	strhi	r0, [r8], #-3650	; 0xfffff1be
 590:	00018e02 	andeq	r8, r1, r2, lsl #28
 594:	00000014 	andeq	r0, r0, r4, lsl r0
 598:	000004f0 	strdeq	r0, [r0], -r0	; <UNPREDICTABLE>
 59c:	000093b0 			; <UNDEFINED> instruction: 0x000093b0
 5a0:	00000010 	andeq	r0, r0, r0, lsl r0
 5a4:	84080e42 	strhi	r0, [r8], #-3650	; 0xfffff1be
 5a8:	00018e02 	andeq	r8, r1, r2, lsl #28
 5ac:	0000000c 	andeq	r0, r0, ip
 5b0:	ffffffff 			; <UNDEFINED> instruction: 0xffffffff
 5b4:	7c020001 	stcvc	0, cr0, [r2], {1}
 5b8:	000d0c0e 	andeq	r0, sp, lr, lsl #24
 5bc:	00000018 	andeq	r0, r0, r8, lsl r0
 5c0:	000005ac 	andeq	r0, r0, ip, lsr #11
 5c4:	000093c0 	andeq	r9, r0, r0, asr #7
 5c8:	00000068 	andeq	r0, r0, r8, rrx
 5cc:	84100e4a 	ldrhi	r0, [r0], #-3658	; 0xfffff1b6
 5d0:	86038504 	strhi	r8, [r3], -r4, lsl #10
 5d4:	00018e02 	andeq	r8, r1, r2, lsl #28
 5d8:	00000014 	andeq	r0, r0, r4, lsl r0
 5dc:	000005ac 	andeq	r0, r0, ip, lsr #11
 5e0:	00009428 	andeq	r9, r0, r8, lsr #8
 5e4:	00000010 	andeq	r0, r0, r0, lsl r0
 5e8:	84080e42 	strhi	r0, [r8], #-3650	; 0xfffff1be
 5ec:	00018e02 	andeq	r8, r1, r2, lsl #28
 5f0:	00000014 	andeq	r0, r0, r4, lsl r0
 5f4:	000005ac 	andeq	r0, r0, ip, lsr #11
 5f8:	00009438 	andeq	r9, r0, r8, lsr r4
 5fc:	00000024 	andeq	r0, r0, r4, lsr #32
 600:	84080e46 	strhi	r0, [r8], #-3654	; 0xfffff1ba
 604:	00018e02 	andeq	r8, r1, r2, lsl #28
 608:	00000014 	andeq	r0, r0, r4, lsl r0
 60c:	000005ac 	andeq	r0, r0, ip, lsr #11
 610:	0000945c 	andeq	r9, r0, ip, asr r4
 614:	00000024 	andeq	r0, r0, r4, lsr #32
 618:	84080e46 	strhi	r0, [r8], #-3654	; 0xfffff1ba
 61c:	00018e02 	andeq	r8, r1, r2, lsl #28
 620:	00000014 	andeq	r0, r0, r4, lsl r0
 624:	000005ac 	andeq	r0, r0, ip, lsr #11
 628:	00009480 	andeq	r9, r0, r0, lsl #9
 62c:	00000010 	andeq	r0, r0, r0, lsl r0
 630:	84080e42 	strhi	r0, [r8], #-3650	; 0xfffff1be
 634:	00018e02 	andeq	r8, r1, r2, lsl #28
 638:	00000014 	andeq	r0, r0, r4, lsl r0
 63c:	000005ac 	andeq	r0, r0, ip, lsr #11
 640:	00009490 	muleq	r0, r0, r4
 644:	0000001c 	andeq	r0, r0, ip, lsl r0
 648:	84080e42 	strhi	r0, [r8], #-3650	; 0xfffff1be
 64c:	00018e02 	andeq	r8, r1, r2, lsl #28
 650:	00000018 	andeq	r0, r0, r8, lsl r0
 654:	000005ac 	andeq	r0, r0, ip, lsr #11
 658:	000094ac 	andeq	r9, r0, ip, lsr #9
 65c:	00000034 	andeq	r0, r0, r4, lsr r0
 660:	84080e46 	strhi	r0, [r8], #-3654	; 0xfffff1ba
 664:	4e018e02 	cdpmi	14, 0, cr8, cr1, cr2, {0}
 668:	cec4000e 	cdpgt	0, 12, cr0, cr4, cr14, {0}
 66c:	0000000c 	andeq	r0, r0, ip
 670:	ffffffff 			; <UNDEFINED> instruction: 0xffffffff
 674:	7c020001 	stcvc	0, cr0, [r2], {1}
 678:	000d0c0e 	andeq	r0, sp, lr, lsl #24
 67c:	0000000c 	andeq	r0, r0, ip
 680:	0000066c 	andeq	r0, r0, ip, ror #12
 684:	000094e0 	andeq	r9, r0, r0, ror #9
 688:	00000010 	andeq	r0, r0, r0, lsl r0
 68c:	0000000c 	andeq	r0, r0, ip
 690:	0000066c 	andeq	r0, r0, ip, ror #12
 694:	000094f0 	strdeq	r9, [r0], -r0
 698:	0000000c 	andeq	r0, r0, ip
 69c:	00000014 	andeq	r0, r0, r4, lsl r0
 6a0:	0000066c 	andeq	r0, r0, ip, ror #12
 6a4:	000094fc 	strdeq	r9, [r0], -ip
 6a8:	00000050 	andeq	r0, r0, r0, asr r0
 6ac:	84080e52 	strhi	r0, [r8], #-3666	; 0xfffff1ae
 6b0:	00018e02 	andeq	r8, r1, r2, lsl #28
 6b4:	00000014 	andeq	r0, r0, r4, lsl r0
 6b8:	0000066c 	andeq	r0, r0, ip, ror #12
 6bc:	0000954c 	andeq	r9, r0, ip, asr #10
 6c0:	00000064 	andeq	r0, r0, r4, rrx
 6c4:	84080e42 	strhi	r0, [r8], #-3650	; 0xfffff1be
 6c8:	00018e02 	andeq	r8, r1, r2, lsl #28
 6cc:	0000000c 	andeq	r0, r0, ip
 6d0:	0000066c 	andeq	r0, r0, ip, ror #12
 6d4:	000095b0 			; <UNDEFINED> instruction: 0x000095b0
 6d8:	00000004 	andeq	r0, r0, r4
 6dc:	00000014 	andeq	r0, r0, r4, lsl r0
 6e0:	0000066c 	andeq	r0, r0, ip, ror #12
 6e4:	000095b4 			; <UNDEFINED> instruction: 0x000095b4
 6e8:	0000000c 	andeq	r0, r0, ip
 6ec:	84080e42 	strhi	r0, [r8], #-3650	; 0xfffff1be
 6f0:	00018e02 	andeq	r8, r1, r2, lsl #28
 6f4:	00000014 	andeq	r0, r0, r4, lsl r0
 6f8:	0000066c 	andeq	r0, r0, ip, ror #12
 6fc:	000095c0 	andeq	r9, r0, r0, asr #11
 700:	0000008c 	andeq	r0, r0, ip, lsl #1
 704:	84080e42 	strhi	r0, [r8], #-3650	; 0xfffff1be
 708:	00018e02 	andeq	r8, r1, r2, lsl #28
 70c:	0000000c 	andeq	r0, r0, ip
 710:	0000066c 	andeq	r0, r0, ip, ror #12
 714:	0000964c 	andeq	r9, r0, ip, asr #12
 718:	00000004 	andeq	r0, r0, r4
 71c:	0000000c 	andeq	r0, r0, ip
 720:	0000066c 	andeq	r0, r0, ip, ror #12
 724:	00009650 	andeq	r9, r0, r0, asr r6
 728:	00000014 	andeq	r0, r0, r4, lsl r0
 72c:	0000000c 	andeq	r0, r0, ip
 730:	0000066c 	andeq	r0, r0, ip, ror #12
 734:	00009664 	andeq	r9, r0, r4, ror #12
 738:	00000010 	andeq	r0, r0, r0, lsl r0

Disassembly of section .debug_ranges:

00000000 <.debug_ranges>:
   0:	000000a0 	andeq	r0, r0, r0, lsr #1
   4:	000000e8 	andeq	r0, r0, r8, ror #1
   8:	00000100 	andeq	r0, r0, r0, lsl #2
   c:	0000012c 	andeq	r0, r0, ip, lsr #2
	...
  18:	000001d4 	ldrdeq	r0, [r0], -r4
  1c:	0000021c 	andeq	r0, r0, ip, lsl r2
  20:	00000220 	andeq	r0, r0, r0, lsr #4
  24:	00000250 	andeq	r0, r0, r0, asr r2
	...
  30:	000002d0 	ldrdeq	r0, [r0], -r0	; <UNPREDICTABLE>
  34:	00000318 	andeq	r0, r0, r8, lsl r3
  38:	0000031c 	andeq	r0, r0, ip, lsl r3
  3c:	0000034c 	andeq	r0, r0, ip, asr #6
	...
  48:	000007c8 	andeq	r0, r0, r8, asr #15
  4c:	000007d0 	ldrdeq	r0, [r0], -r0	; <UNPREDICTABLE>
  50:	000007d8 	ldrdeq	r0, [r0], -r8
  54:	000007e4 	andeq	r0, r0, r4, ror #15
  58:	0000080c 	andeq	r0, r0, ip, lsl #16
  5c:	000008ac 	andeq	r0, r0, ip, lsr #17
	...
  68:	000090f8 	strdeq	r9, [r0], -r8
  6c:	00009170 	andeq	r9, r0, r0, ror r1
	...
