
accel.elf:     file format elf32-littlearm


Disassembly of section .text:

00008000 <_start>:
    8000:	e3a0d302 	mov	sp, #134217728	; 0x8000000
    8004:	e3a0b000 	mov	fp, #0
    8008:	eb000462 	bl	9198 <_cstart>
    800c:	eb000488 	bl	9234 <rpi_reboot>

00008010 <divide>:
    8010:	e1a02000 	mov	r2, r0
    8014:	e3a03001 	mov	r3, #1
    8018:	ea000001 	b	8024 <divide+0x14>
    801c:	e1a01081 	lsl	r1, r1, #1
    8020:	e1a03083 	lsl	r3, r3, #1
    8024:	e1510002 	cmp	r1, r2
    8028:	dafffffb 	ble	801c <divide+0xc>
    802c:	e3a00000 	mov	r0, #0
    8030:	e3530001 	cmp	r3, #1
    8034:	da000005 	ble	8050 <divide+0x40>
    8038:	e1a010c1 	asr	r1, r1, #1
    803c:	e1a030c3 	asr	r3, r3, #1
    8040:	e1520001 	cmp	r2, r1
    8044:	a0422001 	subge	r2, r2, r1
    8048:	a0800003 	addge	r0, r0, r3
    804c:	eafffff7 	b	8030 <divide+0x20>
    8050:	e12fff1e 	bx	lr

00008054 <mg_raw>:
    8054:	e1810400 	orr	r0, r1, r0, lsl #8
    8058:	e6bf0070 	sxth	r0, r0
    805c:	e12fff1e 	bx	lr

00008060 <xyz_mk>:
    8060:	e5801000 	str	r1, [r0]
    8064:	e5802004 	str	r2, [r0, #4]
    8068:	e5803008 	str	r3, [r0, #8]
    806c:	e12fff1e 	bx	lr

00008070 <mg_scaled>:
    8070:	e92d4010 	push	{r4, lr}
    8074:	e3510010 	cmp	r1, #16
    8078:	ca000009 	bgt	80a4 <mg_scaled+0x34>
    807c:	e1a04000 	mov	r4, r0
    8080:	e3500000 	cmp	r0, #0
    8084:	ba00000d 	blt	80c0 <mg_scaled+0x50>
    8088:	e3a00902 	mov	r0, #32768	; 0x8000
    808c:	ebffffdf 	bl	8010 <divide>
    8090:	e1a01000 	mov	r1, r0
    8094:	e3a00ffa 	mov	r0, #1000	; 0x3e8
    8098:	e0000490 	mul	r0, r0, r4
    809c:	ebffffdb 	bl	8010 <divide>
    80a0:	e8bd8010 	pop	{r4, pc}
    80a4:	eb000430 	bl	916c <rpi_reset_putc>
    80a8:	e3a03069 	mov	r3, #105	; 0x69
    80ac:	e59f202c 	ldr	r2, [pc, #44]	; 80e0 <mg_scaled+0x70>
    80b0:	e59f102c 	ldr	r1, [pc, #44]	; 80e4 <mg_scaled+0x74>
    80b4:	e59f002c 	ldr	r0, [pc, #44]	; 80e8 <mg_scaled+0x78>
    80b8:	eb0002b7 	bl	8b9c <printk>
    80bc:	eb00046f 	bl	9280 <clean_reboot>
    80c0:	e3a00902 	mov	r0, #32768	; 0x8000
    80c4:	ebffffd1 	bl	8010 <divide>
    80c8:	e1a01000 	mov	r1, r0
    80cc:	e59f0018 	ldr	r0, [pc, #24]	; 80ec <mg_scaled+0x7c>
    80d0:	e0000490 	mul	r0, r0, r4
    80d4:	ebffffcd 	bl	8010 <divide>
    80d8:	e2600000 	rsb	r0, r0, #0
    80dc:	e8bd8010 	pop	{r4, pc}
    80e0:	0000968c 	andeq	r9, r0, ip, lsl #13
    80e4:	000096b4 			; <UNDEFINED> instruction: 0x000096b4
    80e8:	000096bc 			; <UNDEFINED> instruction: 0x000096bc
    80ec:	fffffc18 			; <UNDEFINED> instruction: 0xfffffc18

000080f0 <test_mg>:
    80f0:	e92d4070 	push	{r4, r5, r6, lr}
    80f4:	e1a04000 	mov	r4, r0
    80f8:	e1a00001 	mov	r0, r1
    80fc:	e1a05003 	mov	r5, r3
    8100:	e1a01002 	mov	r1, r2
    8104:	ebffffd2 	bl	8054 <mg_raw>
    8108:	e1a01005 	mov	r1, r5
    810c:	ebffffd7 	bl	8070 <mg_scaled>
    8110:	e1a05000 	mov	r5, r0
    8114:	e1a02000 	mov	r2, r0
    8118:	e1a01004 	mov	r1, r4
    811c:	e59f0024 	ldr	r0, [pc, #36]	; 8148 <test_mg+0x58>
    8120:	eb00029d 	bl	8b9c <printk>
    8124:	e1550004 	cmp	r5, r4
    8128:	08bd8070 	popeq	{r4, r5, r6, pc}
    812c:	eb00040e 	bl	916c <rpi_reset_putc>
    8130:	e3a03078 	mov	r3, #120	; 0x78
    8134:	e59f2010 	ldr	r2, [pc, #16]	; 814c <test_mg+0x5c>
    8138:	e59f1010 	ldr	r1, [pc, #16]	; 8150 <test_mg+0x60>
    813c:	e59f0010 	ldr	r0, [pc, #16]	; 8154 <test_mg+0x64>
    8140:	eb000295 	bl	8b9c <printk>
    8144:	eb00044d 	bl	9280 <clean_reboot>
    8148:	000096dc 	ldrdeq	r9, [r0], -ip
    814c:	00009698 	muleq	r0, r8, r6
    8150:	000096b4 			; <UNDEFINED> instruction: 0x000096b4
    8154:	000096f4 	strdeq	r9, [r0], -r4

00008158 <imu_rd>:
    8158:	e92d4010 	push	{r4, lr}
    815c:	e24dd010 	sub	sp, sp, #16
    8160:	e1a04000 	mov	r4, r0
    8164:	e28d3010 	add	r3, sp, #16
    8168:	e5631009 	strb	r1, [r3, #-9]!
    816c:	e3a02001 	mov	r2, #1
    8170:	e1a01003 	mov	r1, r3
    8174:	eb0001f8 	bl	895c <i2c_write>
    8178:	e3a02001 	mov	r2, #1
    817c:	e28d100f 	add	r1, sp, #15
    8180:	e1a00004 	mov	r0, r4
    8184:	eb000225 	bl	8a20 <i2c_read>
    8188:	e5dd000f 	ldrb	r0, [sp, #15]
    818c:	e28dd010 	add	sp, sp, #16
    8190:	e8bd8010 	pop	{r4, pc}

00008194 <imu_wr>:
    8194:	e52de004 	push	{lr}		; (str lr, [sp, #-4]!)
    8198:	e24dd00c 	sub	sp, sp, #12
    819c:	e5cd1004 	strb	r1, [sp, #4]
    81a0:	e5cd2005 	strb	r2, [sp, #5]
    81a4:	e3a02002 	mov	r2, #2
    81a8:	e28d1004 	add	r1, sp, #4
    81ac:	eb0001ea 	bl	895c <i2c_write>
    81b0:	e28dd00c 	add	sp, sp, #12
    81b4:	e49df004 	pop	{pc}		; (ldr pc, [sp], #4)

000081b8 <imu_rd_n>:
    81b8:	e92d40f0 	push	{r4, r5, r6, r7, lr}
    81bc:	e24dd00c 	sub	sp, sp, #12
    81c0:	e1a07000 	mov	r7, r0
    81c4:	e1a06002 	mov	r6, r2
    81c8:	e1a05003 	mov	r5, r3
    81cc:	e28d3008 	add	r3, sp, #8
    81d0:	e5631001 	strb	r1, [r3, #-1]!
    81d4:	e3a02001 	mov	r2, #1
    81d8:	e1a01003 	mov	r1, r3
    81dc:	eb0001de 	bl	895c <i2c_write>
    81e0:	e3a04000 	mov	r4, #0
    81e4:	ea000006 	b	8204 <imu_rd_n+0x4c>
    81e8:	e5dd1007 	ldrb	r1, [sp, #7]
    81ec:	e0811004 	add	r1, r1, r4
    81f0:	e6ef1071 	uxtb	r1, r1
    81f4:	e1a00007 	mov	r0, r7
    81f8:	ebffffd6 	bl	8158 <imu_rd>
    81fc:	e7c60004 	strb	r0, [r6, r4]
    8200:	e2844001 	add	r4, r4, #1
    8204:	e1540005 	cmp	r4, r5
    8208:	3afffff6 	bcc	81e8 <imu_rd_n+0x30>
    820c:	e1a00005 	mov	r0, r5
    8210:	e28dd00c 	add	sp, sp, #12
    8214:	e8bd80f0 	pop	{r4, r5, r6, r7, pc}

00008218 <accel_scale>:
    8218:	e24dd008 	sub	sp, sp, #8
    821c:	e92d41f0 	push	{r4, r5, r6, r7, r8, lr}
    8220:	e1a05000 	mov	r5, r0
    8224:	e1a04001 	mov	r4, r1
    8228:	e28d1014 	add	r1, sp, #20
    822c:	e981000c 	stmib	r1, {r2, r3}
    8230:	e5941008 	ldr	r1, [r4, #8]
    8234:	e59d0018 	ldr	r0, [sp, #24]
    8238:	ebffff8c 	bl	8070 <mg_scaled>
    823c:	e1a06000 	mov	r6, r0
    8240:	e5941008 	ldr	r1, [r4, #8]
    8244:	e59d001c 	ldr	r0, [sp, #28]
    8248:	ebffff88 	bl	8070 <mg_scaled>
    824c:	e1a07000 	mov	r7, r0
    8250:	e5941008 	ldr	r1, [r4, #8]
    8254:	e59d0020 	ldr	r0, [sp, #32]
    8258:	ebffff84 	bl	8070 <mg_scaled>
    825c:	e1a03000 	mov	r3, r0
    8260:	e1a02007 	mov	r2, r7
    8264:	e1a01006 	mov	r1, r6
    8268:	e1a00005 	mov	r0, r5
    826c:	ebffff7b 	bl	8060 <xyz_mk>
    8270:	e1a00005 	mov	r0, r5
    8274:	e8bd41f0 	pop	{r4, r5, r6, r7, r8, lr}
    8278:	e28dd008 	add	sp, sp, #8
    827c:	e12fff1e 	bx	lr

00008280 <accel_has_data>:
    8280:	e92d4010 	push	{r4, lr}
    8284:	e3a0101e 	mov	r1, #30
    8288:	e5d00000 	ldrb	r0, [r0]
    828c:	ebffffb1 	bl	8158 <imu_rd>
    8290:	e2000001 	and	r0, r0, #1
    8294:	e8bd8010 	pop	{r4, pc}

00008298 <accel_rd>:
    8298:	e92d4070 	push	{r4, r5, r6, lr}
    829c:	e24dd008 	sub	sp, sp, #8
    82a0:	e1a05000 	mov	r5, r0
    82a4:	e1a04001 	mov	r4, r1
    82a8:	e1a00004 	mov	r0, r4
    82ac:	ebfffff3 	bl	8280 <accel_has_data>
    82b0:	e3500000 	cmp	r0, #0
    82b4:	0afffffb 	beq	82a8 <accel_rd+0x10>
    82b8:	e3a03006 	mov	r3, #6
    82bc:	e1a0200d 	mov	r2, sp
    82c0:	e3a01028 	mov	r1, #40	; 0x28
    82c4:	e5d40000 	ldrb	r0, [r4]
    82c8:	ebffffba 	bl	81b8 <imu_rd_n>
    82cc:	e5dd1000 	ldrb	r1, [sp]
    82d0:	e5dd0001 	ldrb	r0, [sp, #1]
    82d4:	ebffff5e 	bl	8054 <mg_raw>
    82d8:	e1a06000 	mov	r6, r0
    82dc:	e5dd1002 	ldrb	r1, [sp, #2]
    82e0:	e5dd0003 	ldrb	r0, [sp, #3]
    82e4:	ebffff5a 	bl	8054 <mg_raw>
    82e8:	e1a04000 	mov	r4, r0
    82ec:	e5dd1004 	ldrb	r1, [sp, #4]
    82f0:	e5dd0005 	ldrb	r0, [sp, #5]
    82f4:	ebffff56 	bl	8054 <mg_raw>
    82f8:	e5856000 	str	r6, [r5]
    82fc:	e5854004 	str	r4, [r5, #4]
    8300:	e5850008 	str	r0, [r5, #8]
    8304:	e1a00005 	mov	r0, r5
    8308:	e28dd008 	add	sp, sp, #8
    830c:	e8bd8070 	pop	{r4, r5, r6, pc}

00008310 <accel_init>:
    8310:	e92d40f0 	push	{r4, r5, r6, r7, lr}
    8314:	e24dd00c 	sub	sp, sp, #12
    8318:	e1a07000 	mov	r7, r0
    831c:	e1a06001 	mov	r6, r1
    8320:	e1a04002 	mov	r4, r2
    8324:	e1a05003 	mov	r5, r3
    8328:	eb000400 	bl	9330 <dev_barrier>
    832c:	e2453008 	sub	r3, r5, #8
    8330:	e3530002 	cmp	r3, #2
    8334:	9a00000a 	bls	8364 <accel_init+0x54>
    8338:	e59f313c 	ldr	r3, [pc, #316]	; 847c <accel_init+0x16c>
    833c:	e1540003 	cmp	r4, r3
    8340:	13540802 	cmpne	r4, #131072	; 0x20000
    8344:	0a00000e 	beq	8384 <accel_init+0x74>
    8348:	e59f3130 	ldr	r3, [pc, #304]	; 8480 <accel_init+0x170>
    834c:	e59f2130 	ldr	r2, [pc, #304]	; 8484 <accel_init+0x174>
    8350:	e1540003 	cmp	r4, r3
    8354:	11540002 	cmpne	r4, r2
    8358:	1a00002e 	bne	8418 <accel_init+0x108>
    835c:	e3a03001 	mov	r3, #1
    8360:	ea000008 	b	8388 <accel_init+0x78>
    8364:	eb000380 	bl	916c <rpi_reset_putc>
    8368:	e58d5000 	str	r5, [sp]
    836c:	e3a030b9 	mov	r3, #185	; 0xb9
    8370:	e59f2110 	ldr	r2, [pc, #272]	; 8488 <accel_init+0x178>
    8374:	e59f1110 	ldr	r1, [pc, #272]	; 848c <accel_init+0x17c>
    8378:	e59f0110 	ldr	r0, [pc, #272]	; 8490 <accel_init+0x180>
    837c:	eb000206 	bl	8b9c <printk>
    8380:	eb0003be 	bl	9280 <clean_reboot>
    8384:	e3a03001 	mov	r3, #1
    8388:	e3530000 	cmp	r3, #0
    838c:	0a000023 	beq	8420 <accel_init+0x110>
    8390:	e355000a 	cmp	r5, #10
    8394:	8a000029 	bhi	8440 <accel_init+0x130>
    8398:	e1a03824 	lsr	r3, r4, #16
    839c:	e6ef2074 	uxtb	r2, r4
    83a0:	e3520003 	cmp	r2, #3
    83a4:	8a00002d 	bhi	8460 <accel_init+0x150>
    83a8:	e5c76000 	strb	r6, [r7]
    83ac:	e5875004 	str	r5, [r7, #4]
    83b0:	e5873008 	str	r3, [r7, #8]
    83b4:	e3a02038 	mov	r2, #56	; 0x38
    83b8:	e3a01018 	mov	r1, #24
    83bc:	e1a00006 	mov	r0, r6
    83c0:	ebffff73 	bl	8194 <imu_wr>
    83c4:	e1a02205 	lsl	r2, r5, #4
    83c8:	e6ef2072 	uxtb	r2, r2
    83cc:	e1a04104 	lsl	r4, r4, #2
    83d0:	e6ef4074 	uxtb	r4, r4
    83d4:	e1822004 	orr	r2, r2, r4
    83d8:	e3a01010 	mov	r1, #16
    83dc:	e1a00006 	mov	r0, r6
    83e0:	ebffff6b 	bl	8194 <imu_wr>
    83e4:	e3a02040 	mov	r2, #64	; 0x40
    83e8:	e3a01012 	mov	r1, #18
    83ec:	e1a00006 	mov	r0, r6
    83f0:	ebffff67 	bl	8194 <imu_wr>
    83f4:	e3a02008 	mov	r2, #8
    83f8:	e3a01013 	mov	r1, #19
    83fc:	e1a00006 	mov	r0, r6
    8400:	ebffff63 	bl	8194 <imu_wr>
    8404:	e3a00014 	mov	r0, #20
    8408:	eb0003be 	bl	9308 <delay_ms>
    840c:	e1a00007 	mov	r0, r7
    8410:	e28dd00c 	add	sp, sp, #12
    8414:	e8bd80f0 	pop	{r4, r5, r6, r7, pc}
    8418:	e3a03000 	mov	r3, #0
    841c:	eaffffd9 	b	8388 <accel_init+0x78>
    8420:	eb000351 	bl	916c <rpi_reset_putc>
    8424:	e58d4000 	str	r4, [sp]
    8428:	e3a030be 	mov	r3, #190	; 0xbe
    842c:	e59f2054 	ldr	r2, [pc, #84]	; 8488 <accel_init+0x178>
    8430:	e59f1054 	ldr	r1, [pc, #84]	; 848c <accel_init+0x17c>
    8434:	e59f0058 	ldr	r0, [pc, #88]	; 8494 <accel_init+0x184>
    8438:	eb0001d7 	bl	8b9c <printk>
    843c:	eb00038f 	bl	9280 <clean_reboot>
    8440:	eb000349 	bl	916c <rpi_reset_putc>
    8444:	e58d5000 	str	r5, [sp]
    8448:	e3a030c0 	mov	r3, #192	; 0xc0
    844c:	e59f2034 	ldr	r2, [pc, #52]	; 8488 <accel_init+0x178>
    8450:	e59f1034 	ldr	r1, [pc, #52]	; 848c <accel_init+0x17c>
    8454:	e59f003c 	ldr	r0, [pc, #60]	; 8498 <accel_init+0x188>
    8458:	eb0001cf 	bl	8b9c <printk>
    845c:	eb000387 	bl	9280 <clean_reboot>
    8460:	eb000341 	bl	916c <rpi_reset_putc>
    8464:	e3a030c5 	mov	r3, #197	; 0xc5
    8468:	e59f2018 	ldr	r2, [pc, #24]	; 8488 <accel_init+0x178>
    846c:	e59f1018 	ldr	r1, [pc, #24]	; 848c <accel_init+0x17c>
    8470:	e59f0024 	ldr	r0, [pc, #36]	; 849c <accel_init+0x18c>
    8474:	eb0001c8 	bl	8b9c <printk>
    8478:	eb000380 	bl	9280 <clean_reboot>
    847c:	00040002 	andeq	r0, r4, r2
    8480:	00100001 	andseq	r0, r0, r1
    8484:	00080003 	andeq	r0, r8, r3
    8488:	000096a0 	andeq	r9, r0, r0, lsr #13
    848c:	000096b4 			; <UNDEFINED> instruction: 0x000096b4
    8490:	00009714 	andeq	r9, r0, r4, lsl r7
    8494:	00009758 	andeq	r9, r0, r8, asr r7
    8498:	00009780 	andeq	r9, r0, r0, lsl #15
    849c:	000097a0 	andeq	r9, r0, r0, lsr #15

000084a0 <do_accel_test>:
    84a0:	e92d4070 	push	{r4, r5, r6, lr}
    84a4:	e24dd030 	sub	sp, sp, #48	; 0x30
    84a8:	e3a03006 	mov	r3, #6
    84ac:	e3a02802 	mov	r2, #131072	; 0x20000
    84b0:	e3a0106b 	mov	r1, #107	; 0x6b
    84b4:	e28d0024 	add	r0, sp, #36	; 0x24
    84b8:	ebffff94 	bl	8310 <accel_init>
    84bc:	e3a03002 	mov	r3, #2
    84c0:	e3a02000 	mov	r2, #0
    84c4:	e1a01002 	mov	r1, r2
    84c8:	e1a00002 	mov	r0, r2
    84cc:	ebffff07 	bl	80f0 <test_mg>
    84d0:	e3a03002 	mov	r3, #2
    84d4:	e3a02069 	mov	r2, #105	; 0x69
    84d8:	e3a01016 	mov	r1, #22
    84dc:	e59f00bc 	ldr	r0, [pc, #188]	; 85a0 <do_accel_test+0x100>
    84e0:	ebffff02 	bl	80f0 <test_mg>
    84e4:	e3a03002 	mov	r3, #2
    84e8:	e3a02009 	mov	r2, #9
    84ec:	e3a01040 	mov	r1, #64	; 0x40
    84f0:	e3a00ffa 	mov	r0, #1000	; 0x3e8
    84f4:	ebfffefd 	bl	80f0 <test_mg>
    84f8:	e3a03002 	mov	r3, #2
    84fc:	e3a02097 	mov	r2, #151	; 0x97
    8500:	e3a010e9 	mov	r1, #233	; 0xe9
    8504:	e59f0098 	ldr	r0, [pc, #152]	; 85a4 <do_accel_test+0x104>
    8508:	ebfffef8 	bl	80f0 <test_mg>
    850c:	e3a03002 	mov	r3, #2
    8510:	e3a020f7 	mov	r2, #247	; 0xf7
    8514:	e3a010bf 	mov	r1, #191	; 0xbf
    8518:	e59f0088 	ldr	r0, [pc, #136]	; 85a8 <do_accel_test+0x108>
    851c:	ebfffef3 	bl	80f0 <test_mg>
    8520:	e3a06000 	mov	r6, #0
    8524:	ea000019 	b	8590 <do_accel_test+0xf0>
    8528:	e28d4018 	add	r4, sp, #24
    852c:	e28d1024 	add	r1, sp, #36	; 0x24
    8530:	e1a00004 	mov	r0, r4
    8534:	ebffff57 	bl	8298 <accel_rd>
    8538:	e59d3020 	ldr	r3, [sp, #32]
    853c:	e59d201c 	ldr	r2, [sp, #28]
    8540:	e59d1018 	ldr	r1, [sp, #24]
    8544:	e59f0060 	ldr	r0, [pc, #96]	; 85ac <do_accel_test+0x10c>
    8548:	eb000193 	bl	8b9c <printk>
    854c:	e28d5008 	add	r5, sp, #8
    8550:	e59d3020 	ldr	r3, [sp, #32]
    8554:	e58d3000 	str	r3, [sp]
    8558:	e894000c 	ldm	r4, {r2, r3}
    855c:	e28d1024 	add	r1, sp, #36	; 0x24
    8560:	e1a00005 	mov	r0, r5
    8564:	ebffff2b 	bl	8218 <accel_scale>
    8568:	e8950007 	ldm	r5, {r0, r1, r2}
    856c:	e8840007 	stm	r4, {r0, r1, r2}
    8570:	e59d3020 	ldr	r3, [sp, #32]
    8574:	e59d201c 	ldr	r2, [sp, #28]
    8578:	e59d1018 	ldr	r1, [sp, #24]
    857c:	e59f002c 	ldr	r0, [pc, #44]	; 85b0 <do_accel_test+0x110>
    8580:	eb000185 	bl	8b9c <printk>
    8584:	e3a00f7d 	mov	r0, #500	; 0x1f4
    8588:	eb00035e 	bl	9308 <delay_ms>
    858c:	e2866001 	add	r6, r6, #1
    8590:	e3560063 	cmp	r6, #99	; 0x63
    8594:	daffffe3 	ble	8528 <do_accel_test+0x88>
    8598:	e28dd030 	add	sp, sp, #48	; 0x30
    859c:	e8bd8070 	pop	{r4, r5, r6, pc}
    85a0:	0000015e 	andeq	r0, r0, lr, asr r1
    85a4:	fffffea2 			; <UNDEFINED> instruction: 0xfffffea2
    85a8:	fffffc18 			; <UNDEFINED> instruction: 0xfffffc18
    85ac:	000097c8 	andeq	r9, r0, r8, asr #15
    85b0:	000097ec 	andeq	r9, r0, ip, ror #15

000085b4 <notmain>:
    85b4:	e92d4010 	push	{r4, lr}
    85b8:	e24dd008 	sub	sp, sp, #8
    85bc:	eb00037c 	bl	93b4 <uart_init>
    85c0:	e3a00064 	mov	r0, #100	; 0x64
    85c4:	eb00034f 	bl	9308 <delay_ms>
    85c8:	eb000148 	bl	8af0 <i2c_init>
    85cc:	e3a00064 	mov	r0, #100	; 0x64
    85d0:	eb00034c 	bl	9308 <delay_ms>
    85d4:	e3a0100f 	mov	r1, #15
    85d8:	e3a0006b 	mov	r0, #107	; 0x6b
    85dc:	ebfffedd 	bl	8158 <imu_rd>
    85e0:	e3500069 	cmp	r0, #105	; 0x69
    85e4:	0a00000a 	beq	8614 <notmain+0x60>
    85e8:	e1a04000 	mov	r4, r0
    85ec:	eb0002de 	bl	916c <rpi_reset_putc>
    85f0:	e58d4004 	str	r4, [sp, #4]
    85f4:	e3a03069 	mov	r3, #105	; 0x69
    85f8:	e58d3000 	str	r3, [sp]
    85fc:	e3a030fb 	mov	r3, #251	; 0xfb
    8600:	e59f201c 	ldr	r2, [pc, #28]	; 8624 <notmain+0x70>
    8604:	e59f101c 	ldr	r1, [pc, #28]	; 8628 <notmain+0x74>
    8608:	e59f001c 	ldr	r0, [pc, #28]	; 862c <notmain+0x78>
    860c:	eb000162 	bl	8b9c <printk>
    8610:	eb00031a 	bl	9280 <clean_reboot>
    8614:	e59f0014 	ldr	r0, [pc, #20]	; 8630 <notmain+0x7c>
    8618:	eb00015f 	bl	8b9c <printk>
    861c:	ebffff9f 	bl	84a0 <do_accel_test>
    8620:	eb000316 	bl	9280 <clean_reboot>
    8624:	000096ac 	andeq	r9, r0, ip, lsr #13
    8628:	000096b4 			; <UNDEFINED> instruction: 0x000096b4
    862c:	00009818 	andeq	r9, r0, r8, lsl r8
    8630:	00009854 	andeq	r9, r0, r4, asr r8

00008634 <clear_c>:
    8634:	e3c0000e 	bic	r0, r0, #14
    8638:	e3c00040 	bic	r0, r0, #64	; 0x40
    863c:	e3c00b1e 	bic	r0, r0, #30720	; 0x7800
    8640:	e6ff0070 	uxth	r0, r0
    8644:	e12fff1e 	bx	lr

00008648 <clear_s>:
    8648:	e1a00b00 	lsl	r0, r0, #22
    864c:	e1a00b20 	lsr	r0, r0, #22
    8650:	e12fff1e 	bx	lr

00008654 <check_layout>:
    8654:	e52de004 	push	{lr}		; (str lr, [sp, #-4]!)
    8658:	e49df004 	pop	{pc}		; (ldr pc, [sp], #4)

0000865c <xfer_end>:
    865c:	e92d4010 	push	{r4, lr}
    8660:	e59f30c0 	ldr	r3, [pc, #192]	; 8728 <xfer_end+0xcc>
    8664:	e5933004 	ldr	r3, [r3, #4]
    8668:	e3130002 	tst	r3, #2
    866c:	1a000015 	bne	86c8 <xfer_end+0x6c>
    8670:	e59f30b0 	ldr	r3, [pc, #176]	; 8728 <xfer_end+0xcc>
    8674:	e5933004 	ldr	r3, [r3, #4]
    8678:	e3130c01 	tst	r3, #256	; 0x100
    867c:	1a00000a 	bne	86ac <xfer_end+0x50>
    8680:	e59f30a0 	ldr	r3, [pc, #160]	; 8728 <xfer_end+0xcc>
    8684:	e5933004 	ldr	r3, [r3, #4]
    8688:	e3130c02 	tst	r3, #512	; 0x200
    868c:	0afffff3 	beq	8660 <xfer_end+0x4>
    8690:	eb0002b5 	bl	916c <rpi_reset_putc>
    8694:	e59f3090 	ldr	r3, [pc, #144]	; 872c <xfer_end+0xd0>
    8698:	e59f2090 	ldr	r2, [pc, #144]	; 8730 <xfer_end+0xd4>
    869c:	e59f1090 	ldr	r1, [pc, #144]	; 8734 <xfer_end+0xd8>
    86a0:	e59f0090 	ldr	r0, [pc, #144]	; 8738 <xfer_end+0xdc>
    86a4:	eb00013c 	bl	8b9c <printk>
    86a8:	eb0002f4 	bl	9280 <clean_reboot>
    86ac:	eb0002ae 	bl	916c <rpi_reset_putc>
    86b0:	e59f3074 	ldr	r3, [pc, #116]	; 872c <xfer_end+0xd0>
    86b4:	e59f2074 	ldr	r2, [pc, #116]	; 8730 <xfer_end+0xd4>
    86b8:	e59f1074 	ldr	r1, [pc, #116]	; 8734 <xfer_end+0xd8>
    86bc:	e59f0078 	ldr	r0, [pc, #120]	; 873c <xfer_end+0xe0>
    86c0:	eb000135 	bl	8b9c <printk>
    86c4:	eb0002ed 	bl	9280 <clean_reboot>
    86c8:	e59f3058 	ldr	r3, [pc, #88]	; 8728 <xfer_end+0xcc>
    86cc:	e5933004 	ldr	r3, [r3, #4]
    86d0:	e3130001 	tst	r3, #1
    86d4:	1a000005 	bne	86f0 <xfer_end+0x94>
    86d8:	e59f3048 	ldr	r3, [pc, #72]	; 8728 <xfer_end+0xcc>
    86dc:	e5933004 	ldr	r3, [r3, #4]
    86e0:	e3130c01 	tst	r3, #256	; 0x100
    86e4:	1a000008 	bne	870c <xfer_end+0xb0>
    86e8:	eb000310 	bl	9330 <dev_barrier>
    86ec:	e8bd8010 	pop	{r4, pc}
    86f0:	eb00029d 	bl	916c <rpi_reset_putc>
    86f4:	e59f3044 	ldr	r3, [pc, #68]	; 8740 <xfer_end+0xe4>
    86f8:	e59f2030 	ldr	r2, [pc, #48]	; 8730 <xfer_end+0xd4>
    86fc:	e59f1030 	ldr	r1, [pc, #48]	; 8734 <xfer_end+0xd8>
    8700:	e59f003c 	ldr	r0, [pc, #60]	; 8744 <xfer_end+0xe8>
    8704:	eb000124 	bl	8b9c <printk>
    8708:	eb0002dc 	bl	9280 <clean_reboot>
    870c:	eb000296 	bl	916c <rpi_reset_putc>
    8710:	e3a03f46 	mov	r3, #280	; 0x118
    8714:	e59f2014 	ldr	r2, [pc, #20]	; 8730 <xfer_end+0xd4>
    8718:	e59f1014 	ldr	r1, [pc, #20]	; 8734 <xfer_end+0xd8>
    871c:	e59f0024 	ldr	r0, [pc, #36]	; 8748 <xfer_end+0xec>
    8720:	eb00011d 	bl	8b9c <printk>
    8724:	eb0002d5 	bl	9280 <clean_reboot>
    8728:	20804000 	addcs	r4, r0, r0
    872c:	00000113 	andeq	r0, r0, r3, lsl r1
    8730:	0000988c 	andeq	r9, r0, ip, lsl #17
    8734:	000098c8 	andeq	r9, r0, r8, asr #17
    8738:	000099e4 	andeq	r9, r0, r4, ror #19
    873c:	000099c0 	andeq	r9, r0, r0, asr #19
    8740:	00000116 	andeq	r0, r0, r6, lsl r1
    8744:	00009a14 	andeq	r9, r0, r4, lsl sl
    8748:	00009a38 	andeq	r9, r0, r8, lsr sl

0000874c <read_s>:
    874c:	e92d4010 	push	{r4, lr}
    8750:	eb000308 	bl	9378 <get32>
    8754:	ebffffbb 	bl	8648 <clear_s>
    8758:	e8bd8010 	pop	{r4, pc}

0000875c <reset_status>:
    875c:	e92d4010 	push	{r4, lr}
    8760:	e59f4018 	ldr	r4, [pc, #24]	; 8780 <reset_status+0x24>
    8764:	e1a00004 	mov	r0, r4
    8768:	ebfffff7 	bl	874c <read_s>
    876c:	e3801002 	orr	r1, r0, #2
    8770:	e3811c03 	orr	r1, r1, #768	; 0x300
    8774:	e1a00004 	mov	r0, r4
    8778:	eb0002f2 	bl	9348 <put32>
    877c:	e8bd8010 	pop	{r4, pc}
    8780:	20804004 	addcs	r4, r0, r4

00008784 <read_c>:
    8784:	e92d4010 	push	{r4, lr}
    8788:	eb0002fa 	bl	9378 <get32>
    878c:	ebffffa8 	bl	8634 <clear_c>
    8790:	e8bd8010 	pop	{r4, pc}

00008794 <xfer_start>:
    8794:	e92d4070 	push	{r4, r5, r6, lr}
    8798:	e1a06000 	mov	r6, r0
    879c:	e1a05001 	mov	r5, r1
    87a0:	e1a04002 	mov	r4, r2
    87a4:	eb0002e1 	bl	9330 <dev_barrier>
    87a8:	e59f3180 	ldr	r3, [pc, #384]	; 8930 <xfer_start+0x19c>
    87ac:	e5933004 	ldr	r3, [r3, #4]
    87b0:	e3130001 	tst	r3, #1
    87b4:	0a000015 	beq	8810 <xfer_start+0x7c>
    87b8:	e59f3170 	ldr	r3, [pc, #368]	; 8930 <xfer_start+0x19c>
    87bc:	e5933004 	ldr	r3, [r3, #4]
    87c0:	e3130c01 	tst	r3, #256	; 0x100
    87c4:	1a00000a 	bne	87f4 <xfer_start+0x60>
    87c8:	e59f3160 	ldr	r3, [pc, #352]	; 8930 <xfer_start+0x19c>
    87cc:	e5933004 	ldr	r3, [r3, #4]
    87d0:	e3130c02 	tst	r3, #512	; 0x200
    87d4:	0afffff3 	beq	87a8 <xfer_start+0x14>
    87d8:	eb000263 	bl	916c <rpi_reset_putc>
    87dc:	e3a030f3 	mov	r3, #243	; 0xf3
    87e0:	e59f214c 	ldr	r2, [pc, #332]	; 8934 <xfer_start+0x1a0>
    87e4:	e59f114c 	ldr	r1, [pc, #332]	; 8938 <xfer_start+0x1a4>
    87e8:	e59f014c 	ldr	r0, [pc, #332]	; 893c <xfer_start+0x1a8>
    87ec:	eb0000ea 	bl	8b9c <printk>
    87f0:	eb0002a2 	bl	9280 <clean_reboot>
    87f4:	eb00025c 	bl	916c <rpi_reset_putc>
    87f8:	e3a030f3 	mov	r3, #243	; 0xf3
    87fc:	e59f2130 	ldr	r2, [pc, #304]	; 8934 <xfer_start+0x1a0>
    8800:	e59f1130 	ldr	r1, [pc, #304]	; 8938 <xfer_start+0x1a4>
    8804:	e59f0134 	ldr	r0, [pc, #308]	; 8940 <xfer_start+0x1ac>
    8808:	eb0000e3 	bl	8b9c <printk>
    880c:	eb00029b 	bl	9280 <clean_reboot>
    8810:	e59f3118 	ldr	r3, [pc, #280]	; 8930 <xfer_start+0x19c>
    8814:	e5933004 	ldr	r3, [r3, #4]
    8818:	e3130040 	tst	r3, #64	; 0x40
    881c:	0a000026 	beq	88bc <xfer_start+0x128>
    8820:	ebffffcd 	bl	875c <reset_status>
    8824:	e1b033a6 	lsrs	r3, r6, #7
    8828:	1a00002a 	bne	88d8 <xfer_start+0x144>
    882c:	e1a01006 	mov	r1, r6
    8830:	e59f010c 	ldr	r0, [pc, #268]	; 8944 <xfer_start+0x1b0>
    8834:	eb0002c3 	bl	9348 <put32>
    8838:	e1b03825 	lsrs	r3, r5, #16
    883c:	1a00002c 	bne	88f4 <xfer_start+0x160>
    8840:	e1a01005 	mov	r1, r5
    8844:	e59f00fc 	ldr	r0, [pc, #252]	; 8948 <xfer_start+0x1b4>
    8848:	eb0002be 	bl	9348 <put32>
    884c:	e59f50dc 	ldr	r5, [pc, #220]	; 8930 <xfer_start+0x19c>
    8850:	e1a00005 	mov	r0, r5
    8854:	ebffffca 	bl	8784 <read_c>
    8858:	e38000b0 	orr	r0, r0, #176	; 0xb0
    885c:	e2041001 	and	r1, r4, #1
    8860:	e3c00001 	bic	r0, r0, #1
    8864:	e1811000 	orr	r1, r1, r0
    8868:	e1a00005 	mov	r0, r5
    886c:	eb0002b5 	bl	9348 <put32>
    8870:	e59f30b8 	ldr	r3, [pc, #184]	; 8930 <xfer_start+0x19c>
    8874:	e5933004 	ldr	r3, [r3, #4]
    8878:	e3130001 	tst	r3, #1
    887c:	1a00002a 	bne	892c <xfer_start+0x198>
    8880:	e59f30a8 	ldr	r3, [pc, #168]	; 8930 <xfer_start+0x19c>
    8884:	e5933004 	ldr	r3, [r3, #4]
    8888:	e3130c01 	tst	r3, #256	; 0x100
    888c:	1a00001f 	bne	8910 <xfer_start+0x17c>
    8890:	e59f3098 	ldr	r3, [pc, #152]	; 8930 <xfer_start+0x19c>
    8894:	e5933004 	ldr	r3, [r3, #4]
    8898:	e3130c02 	tst	r3, #512	; 0x200
    889c:	0afffff3 	beq	8870 <xfer_start+0xdc>
    88a0:	eb000231 	bl	916c <rpi_reset_putc>
    88a4:	e59f30a0 	ldr	r3, [pc, #160]	; 894c <xfer_start+0x1b8>
    88a8:	e59f2084 	ldr	r2, [pc, #132]	; 8934 <xfer_start+0x1a0>
    88ac:	e59f1084 	ldr	r1, [pc, #132]	; 8938 <xfer_start+0x1a4>
    88b0:	e59f0084 	ldr	r0, [pc, #132]	; 893c <xfer_start+0x1a8>
    88b4:	eb0000b8 	bl	8b9c <printk>
    88b8:	eb000270 	bl	9280 <clean_reboot>
    88bc:	eb00022a 	bl	916c <rpi_reset_putc>
    88c0:	e3a030f6 	mov	r3, #246	; 0xf6
    88c4:	e59f2068 	ldr	r2, [pc, #104]	; 8934 <xfer_start+0x1a0>
    88c8:	e59f1068 	ldr	r1, [pc, #104]	; 8938 <xfer_start+0x1a4>
    88cc:	e59f007c 	ldr	r0, [pc, #124]	; 8950 <xfer_start+0x1bc>
    88d0:	eb0000b1 	bl	8b9c <printk>
    88d4:	eb000269 	bl	9280 <clean_reboot>
    88d8:	eb000223 	bl	916c <rpi_reset_putc>
    88dc:	e3a030fb 	mov	r3, #251	; 0xfb
    88e0:	e59f204c 	ldr	r2, [pc, #76]	; 8934 <xfer_start+0x1a0>
    88e4:	e59f104c 	ldr	r1, [pc, #76]	; 8938 <xfer_start+0x1a4>
    88e8:	e59f0064 	ldr	r0, [pc, #100]	; 8954 <xfer_start+0x1c0>
    88ec:	eb0000aa 	bl	8b9c <printk>
    88f0:	eb000262 	bl	9280 <clean_reboot>
    88f4:	eb00021c 	bl	916c <rpi_reset_putc>
    88f8:	e3a030ff 	mov	r3, #255	; 0xff
    88fc:	e59f2030 	ldr	r2, [pc, #48]	; 8934 <xfer_start+0x1a0>
    8900:	e59f1030 	ldr	r1, [pc, #48]	; 8938 <xfer_start+0x1a4>
    8904:	e59f004c 	ldr	r0, [pc, #76]	; 8958 <xfer_start+0x1c4>
    8908:	eb0000a3 	bl	8b9c <printk>
    890c:	eb00025b 	bl	9280 <clean_reboot>
    8910:	eb000215 	bl	916c <rpi_reset_putc>
    8914:	e59f3030 	ldr	r3, [pc, #48]	; 894c <xfer_start+0x1b8>
    8918:	e59f2014 	ldr	r2, [pc, #20]	; 8934 <xfer_start+0x1a0>
    891c:	e59f1014 	ldr	r1, [pc, #20]	; 8938 <xfer_start+0x1a4>
    8920:	e59f0018 	ldr	r0, [pc, #24]	; 8940 <xfer_start+0x1ac>
    8924:	eb00009c 	bl	8b9c <printk>
    8928:	eb000254 	bl	9280 <clean_reboot>
    892c:	e8bd8070 	pop	{r4, r5, r6, pc}
    8930:	20804000 	addcs	r4, r0, r0
    8934:	00009898 	muleq	r0, r8, r8
    8938:	000098c8 	andeq	r9, r0, r8, asr #17
    893c:	000099e4 	andeq	r9, r0, r4, ror #19
    8940:	000099c0 	andeq	r9, r0, r0, asr #19
    8944:	2080400c 	addcs	r4, r0, ip
    8948:	20804008 	addcs	r4, r0, r8
    894c:	0000010e 	andeq	r0, r0, lr, lsl #2
    8950:	00009a5c 	andeq	r9, r0, ip, asr sl
    8954:	00009a84 	andeq	r9, r0, r4, lsl #21
    8958:	00009aa8 	andeq	r9, r0, r8, lsr #21

0000895c <i2c_write>:
    895c:	e92d4070 	push	{r4, r5, r6, lr}
    8960:	e1a05001 	mov	r5, r1
    8964:	e1a04002 	mov	r4, r2
    8968:	e3a02000 	mov	r2, #0
    896c:	e1a01004 	mov	r1, r4
    8970:	ebffff87 	bl	8794 <xfer_start>
    8974:	e3a02000 	mov	r2, #0
    8978:	ea00000a 	b	89a8 <i2c_write+0x4c>
    897c:	eb0001fa 	bl	916c <rpi_reset_putc>
    8980:	e59f3080 	ldr	r3, [pc, #128]	; 8a08 <i2c_write+0xac>
    8984:	e59f2080 	ldr	r2, [pc, #128]	; 8a0c <i2c_write+0xb0>
    8988:	e59f1080 	ldr	r1, [pc, #128]	; 8a10 <i2c_write+0xb4>
    898c:	e59f0080 	ldr	r0, [pc, #128]	; 8a14 <i2c_write+0xb8>
    8990:	eb000081 	bl	8b9c <printk>
    8994:	eb000239 	bl	9280 <clean_reboot>
    8998:	e7d51002 	ldrb	r1, [r5, r2]
    899c:	e59f3074 	ldr	r3, [pc, #116]	; 8a18 <i2c_write+0xbc>
    89a0:	e5831010 	str	r1, [r3, #16]
    89a4:	e2822001 	add	r2, r2, #1
    89a8:	e1520004 	cmp	r2, r4
    89ac:	2a000012 	bcs	89fc <i2c_write+0xa0>
    89b0:	e59f3060 	ldr	r3, [pc, #96]	; 8a18 <i2c_write+0xbc>
    89b4:	e5933004 	ldr	r3, [r3, #4]
    89b8:	e3130010 	tst	r3, #16
    89bc:	1afffff5 	bne	8998 <i2c_write+0x3c>
    89c0:	e59f3050 	ldr	r3, [pc, #80]	; 8a18 <i2c_write+0xbc>
    89c4:	e5933004 	ldr	r3, [r3, #4]
    89c8:	e3130c01 	tst	r3, #256	; 0x100
    89cc:	1affffea 	bne	897c <i2c_write+0x20>
    89d0:	e59f3040 	ldr	r3, [pc, #64]	; 8a18 <i2c_write+0xbc>
    89d4:	e5933004 	ldr	r3, [r3, #4]
    89d8:	e3130c02 	tst	r3, #512	; 0x200
    89dc:	0afffff3 	beq	89b0 <i2c_write+0x54>
    89e0:	eb0001e1 	bl	916c <rpi_reset_putc>
    89e4:	e59f301c 	ldr	r3, [pc, #28]	; 8a08 <i2c_write+0xac>
    89e8:	e59f201c 	ldr	r2, [pc, #28]	; 8a0c <i2c_write+0xb0>
    89ec:	e59f101c 	ldr	r1, [pc, #28]	; 8a10 <i2c_write+0xb4>
    89f0:	e59f0024 	ldr	r0, [pc, #36]	; 8a1c <i2c_write+0xc0>
    89f4:	eb000068 	bl	8b9c <printk>
    89f8:	eb000220 	bl	9280 <clean_reboot>
    89fc:	ebffff16 	bl	865c <xfer_end>
    8a00:	e3a00001 	mov	r0, #1
    8a04:	e8bd8070 	pop	{r4, r5, r6, pc}
    8a08:	00000123 	andeq	r0, r0, r3, lsr #2
    8a0c:	000098a4 	andeq	r9, r0, r4, lsr #17
    8a10:	000098c8 	andeq	r9, r0, r8, asr #17
    8a14:	000099c0 	andeq	r9, r0, r0, asr #19
    8a18:	20804000 	addcs	r4, r0, r0
    8a1c:	000099e4 	andeq	r9, r0, r4, ror #19

00008a20 <i2c_read>:
    8a20:	e92d4070 	push	{r4, r5, r6, lr}
    8a24:	e1a05001 	mov	r5, r1
    8a28:	e1a04002 	mov	r4, r2
    8a2c:	e3a02001 	mov	r2, #1
    8a30:	e1a01004 	mov	r1, r4
    8a34:	ebffff56 	bl	8794 <xfer_start>
    8a38:	e3a02000 	mov	r2, #0
    8a3c:	ea00000a 	b	8a6c <i2c_read+0x4c>
    8a40:	eb0001c9 	bl	916c <rpi_reset_putc>
    8a44:	e3a03f4d 	mov	r3, #308	; 0x134
    8a48:	e59f207c 	ldr	r2, [pc, #124]	; 8acc <i2c_read+0xac>
    8a4c:	e59f107c 	ldr	r1, [pc, #124]	; 8ad0 <i2c_read+0xb0>
    8a50:	e59f007c 	ldr	r0, [pc, #124]	; 8ad4 <i2c_read+0xb4>
    8a54:	eb000050 	bl	8b9c <printk>
    8a58:	eb000208 	bl	9280 <clean_reboot>
    8a5c:	e59f3074 	ldr	r3, [pc, #116]	; 8ad8 <i2c_read+0xb8>
    8a60:	e5933010 	ldr	r3, [r3, #16]
    8a64:	e7c53002 	strb	r3, [r5, r2]
    8a68:	e2822001 	add	r2, r2, #1
    8a6c:	e1520004 	cmp	r2, r4
    8a70:	2a000012 	bcs	8ac0 <i2c_read+0xa0>
    8a74:	e59f305c 	ldr	r3, [pc, #92]	; 8ad8 <i2c_read+0xb8>
    8a78:	e5933004 	ldr	r3, [r3, #4]
    8a7c:	e3130020 	tst	r3, #32
    8a80:	1afffff5 	bne	8a5c <i2c_read+0x3c>
    8a84:	e59f304c 	ldr	r3, [pc, #76]	; 8ad8 <i2c_read+0xb8>
    8a88:	e5933004 	ldr	r3, [r3, #4]
    8a8c:	e3130c01 	tst	r3, #256	; 0x100
    8a90:	1affffea 	bne	8a40 <i2c_read+0x20>
    8a94:	e59f303c 	ldr	r3, [pc, #60]	; 8ad8 <i2c_read+0xb8>
    8a98:	e5933004 	ldr	r3, [r3, #4]
    8a9c:	e3130c02 	tst	r3, #512	; 0x200
    8aa0:	0afffff3 	beq	8a74 <i2c_read+0x54>
    8aa4:	eb0001b0 	bl	916c <rpi_reset_putc>
    8aa8:	e3a03f4d 	mov	r3, #308	; 0x134
    8aac:	e59f2018 	ldr	r2, [pc, #24]	; 8acc <i2c_read+0xac>
    8ab0:	e59f1018 	ldr	r1, [pc, #24]	; 8ad0 <i2c_read+0xb0>
    8ab4:	e59f0020 	ldr	r0, [pc, #32]	; 8adc <i2c_read+0xbc>
    8ab8:	eb000037 	bl	8b9c <printk>
    8abc:	eb0001ef 	bl	9280 <clean_reboot>
    8ac0:	ebfffee5 	bl	865c <xfer_end>
    8ac4:	e3a00001 	mov	r0, #1
    8ac8:	e8bd8070 	pop	{r4, r5, r6, pc}
    8acc:	000098b0 			; <UNDEFINED> instruction: 0x000098b0
    8ad0:	000098c8 	andeq	r9, r0, r8, asr #17
    8ad4:	000099c0 	andeq	r9, r0, r0, asr #19
    8ad8:	20804000 	addcs	r4, r0, r0
    8adc:	000099e4 	andeq	r9, r0, r4, ror #19

00008ae0 <i2c_is_initialized>:
    8ae0:	e59f3004 	ldr	r3, [pc, #4]	; 8aec <i2c_is_initialized+0xc>
    8ae4:	e5930000 	ldr	r0, [r3]
    8ae8:	e12fff1e 	bx	lr
    8aec:	00009bec 	andeq	r9, r0, ip, ror #23

00008af0 <i2c_init>:
    8af0:	e92d4010 	push	{r4, lr}
    8af4:	ebfffed6 	bl	8654 <check_layout>
    8af8:	eb00020c 	bl	9330 <dev_barrier>
    8afc:	e3a01004 	mov	r1, #4
    8b00:	e3a00002 	mov	r0, #2
    8b04:	eb00027a 	bl	94f4 <gpio_set_function>
    8b08:	e3a01004 	mov	r1, #4
    8b0c:	e3a00003 	mov	r0, #3
    8b10:	eb000277 	bl	94f4 <gpio_set_function>
    8b14:	eb000205 	bl	9330 <dev_barrier>
    8b18:	e59f404c 	ldr	r4, [pc, #76]	; 8b6c <i2c_init+0x7c>
    8b1c:	e3a01902 	mov	r1, #32768	; 0x8000
    8b20:	e1a00004 	mov	r0, r4
    8b24:	eb000207 	bl	9348 <put32>
    8b28:	eb000200 	bl	9330 <dev_barrier>
    8b2c:	ebffff0a 	bl	875c <reset_status>
    8b30:	eb0001fe 	bl	9330 <dev_barrier>
    8b34:	e5943004 	ldr	r3, [r4, #4]
    8b38:	e3130001 	tst	r3, #1
    8b3c:	1a000003 	bne	8b50 <i2c_init+0x60>
    8b40:	e3a02001 	mov	r2, #1
    8b44:	e59f3024 	ldr	r3, [pc, #36]	; 8b70 <i2c_init+0x80>
    8b48:	e5832000 	str	r2, [r3]
    8b4c:	e8bd8010 	pop	{r4, pc}
    8b50:	eb000185 	bl	916c <rpi_reset_putc>
    8b54:	e59f3018 	ldr	r3, [pc, #24]	; 8b74 <i2c_init+0x84>
    8b58:	e59f2018 	ldr	r2, [pc, #24]	; 8b78 <i2c_init+0x88>
    8b5c:	e59f1018 	ldr	r1, [pc, #24]	; 8b7c <i2c_init+0x8c>
    8b60:	e59f0018 	ldr	r0, [pc, #24]	; 8b80 <i2c_init+0x90>
    8b64:	eb00000c 	bl	8b9c <printk>
    8b68:	eb0001c4 	bl	9280 <clean_reboot>
    8b6c:	20804000 	addcs	r4, r0, r0
    8b70:	00009bec 	andeq	r9, r0, ip, ror #23
    8b74:	00000162 	andeq	r0, r0, r2, ror #2
    8b78:	000098bc 			; <UNDEFINED> instruction: 0x000098bc
    8b7c:	000098c8 	andeq	r9, r0, r8, asr #17
    8b80:	00009a14 	andeq	r9, r0, r4, lsl sl

00008b84 <i2c_init_once>:
    8b84:	e92d4010 	push	{r4, lr}
    8b88:	ebffffd4 	bl	8ae0 <i2c_is_initialized>
    8b8c:	e3500000 	cmp	r0, #0
    8b90:	18bd8010 	popne	{r4, pc}
    8b94:	ebffffd5 	bl	8af0 <i2c_init>
    8b98:	e8bd8010 	pop	{r4, pc}

00008b9c <printk>:
    8b9c:	e92d000f 	push	{r0, r1, r2, r3}
    8ba0:	e92d4030 	push	{r4, r5, lr}
    8ba4:	e24dd00c 	sub	sp, sp, #12
    8ba8:	e28d301c 	add	r3, sp, #28
    8bac:	e58d3004 	str	r3, [sp, #4]
    8bb0:	e59f4034 	ldr	r4, [pc, #52]	; 8bec <printk+0x50>
    8bb4:	e59d2018 	ldr	r2, [sp, #24]
    8bb8:	e3a01b01 	mov	r1, #1024	; 0x400
    8bbc:	e1a00004 	mov	r0, r4
    8bc0:	eb0000a7 	bl	8e64 <va_printk>
    8bc4:	e1a05000 	mov	r5, r0
    8bc8:	e59f3020 	ldr	r3, [pc, #32]	; 8bf0 <printk+0x54>
    8bcc:	e5933000 	ldr	r3, [r3]
    8bd0:	e1a00004 	mov	r0, r4
    8bd4:	e12fff33 	blx	r3
    8bd8:	e1a00005 	mov	r0, r5
    8bdc:	e28dd00c 	add	sp, sp, #12
    8be0:	e8bd4030 	pop	{r4, r5, lr}
    8be4:	e28dd010 	add	sp, sp, #16
    8be8:	e12fff1e 	bx	lr
    8bec:	00009bf0 	strdeq	r9, [r0], -r0
    8bf0:	00009684 	andeq	r9, r0, r4, lsl #13

00008bf4 <isdigit>:
    8bf4:	e2400030 	sub	r0, r0, #48	; 0x30
    8bf8:	e3500009 	cmp	r0, #9
    8bfc:	83a00000 	movhi	r0, #0
    8c00:	93a00001 	movls	r0, #1
    8c04:	e12fff1e 	bx	lr

00008c08 <pad>:
    8c08:	e0401001 	sub	r1, r0, r1
    8c0c:	ea000003 	b	8c20 <pad+0x18>
    8c10:	e3a03020 	mov	r3, #32
    8c14:	e5c03000 	strb	r3, [r0]
    8c18:	e2811001 	add	r1, r1, #1
    8c1c:	e2800001 	add	r0, r0, #1
    8c20:	e1510002 	cmp	r1, r2
    8c24:	bafffff9 	blt	8c10 <pad+0x8>
    8c28:	e3a03000 	mov	r3, #0
    8c2c:	e5c03000 	strb	r3, [r0]
    8c30:	e12fff1e 	bx	lr

00008c34 <reverse>:
    8c34:	e042c003 	sub	ip, r2, r3
    8c38:	e28cc001 	add	ip, ip, #1
    8c3c:	e15c0001 	cmp	ip, r1
    8c40:	c04cc001 	subgt	ip, ip, r1
    8c44:	c083300c 	addgt	r3, r3, ip
    8c48:	e2422001 	sub	r2, r2, #1
    8c4c:	e1a01000 	mov	r1, r0
    8c50:	ea000002 	b	8c60 <reverse+0x2c>
    8c54:	e452c001 	ldrb	ip, [r2], #-1
    8c58:	e5c1c000 	strb	ip, [r1]
    8c5c:	e2811001 	add	r1, r1, #1
    8c60:	e1520003 	cmp	r2, r3
    8c64:	2afffffa 	bcs	8c54 <reverse+0x20>
    8c68:	e3a03000 	mov	r3, #0
    8c6c:	e5c13000 	strb	r3, [r1]
    8c70:	e12fff1e 	bx	lr

00008c74 <emit>:
    8c74:	e92d40f0 	push	{r4, r5, r6, r7, lr}
    8c78:	e24dd044 	sub	sp, sp, #68	; 0x44
    8c7c:	e1a05001 	mov	r5, r1
    8c80:	e1a04002 	mov	r4, r2
    8c84:	e59d2058 	ldr	r2, [sp, #88]	; 0x58
    8c88:	e1520004 	cmp	r2, r4
    8c8c:	c2442001 	subgt	r2, r4, #1
    8c90:	e1a01003 	mov	r1, r3
    8c94:	e2400002 	sub	r0, r0, #2
    8c98:	e350000e 	cmp	r0, #14
    8c9c:	979ff100 	ldrls	pc, [pc, r0, lsl #2]
    8ca0:	ea00004c 	b	8dd8 <emit+0x164>
    8ca4:	00008db0 			; <UNDEFINED> instruction: 0x00008db0
    8ca8:	00008dd8 	ldrdeq	r8, [r0], -r8	; <UNPREDICTABLE>
    8cac:	00008dd8 	ldrdeq	r8, [r0], -r8	; <UNPREDICTABLE>
    8cb0:	00008dd8 	ldrdeq	r8, [r0], -r8	; <UNPREDICTABLE>
    8cb4:	00008dd8 	ldrdeq	r8, [r0], -r8	; <UNPREDICTABLE>
    8cb8:	00008dd8 	ldrdeq	r8, [r0], -r8	; <UNPREDICTABLE>
    8cbc:	00008da4 	andeq	r8, r0, r4, lsr #27
    8cc0:	00008dd8 	ldrdeq	r8, [r0], -r8	; <UNPREDICTABLE>
    8cc4:	00008ce0 	andeq	r8, r0, r0, ror #25
    8cc8:	00008dd8 	ldrdeq	r8, [r0], -r8	; <UNPREDICTABLE>
    8ccc:	00008dd8 	ldrdeq	r8, [r0], -r8	; <UNPREDICTABLE>
    8cd0:	00008dd8 	ldrdeq	r8, [r0], -r8	; <UNPREDICTABLE>
    8cd4:	00008dd8 	ldrdeq	r8, [r0], -r8	; <UNPREDICTABLE>
    8cd8:	00008dd8 	ldrdeq	r8, [r0], -r8	; <UNPREDICTABLE>
    8cdc:	00008d5c 	andeq	r8, r0, ip, asr sp
    8ce0:	e59d005c 	ldr	r0, [sp, #92]	; 0x5c
    8ce4:	e2900000 	adds	r0, r0, #0
    8ce8:	13a00001 	movne	r0, #1
    8cec:	e0100fa3 	ands	r0, r0, r3, lsr #31
    8cf0:	0a000003 	beq	8d04 <emit+0x90>
    8cf4:	e2631000 	rsb	r1, r3, #0
    8cf8:	e3a07001 	mov	r7, #1
    8cfc:	e1a0c00d 	mov	ip, sp
    8d00:	ea000002 	b	8d10 <emit+0x9c>
    8d04:	e3a07000 	mov	r7, #0
    8d08:	eafffffb 	b	8cfc <emit+0x88>
    8d0c:	e1a0c000 	mov	ip, r0
    8d10:	e28c0001 	add	r0, ip, #1
    8d14:	e59f30d8 	ldr	r3, [pc, #216]	; 8df4 <emit+0x180>
    8d18:	e083e193 	umull	lr, r3, r3, r1
    8d1c:	e1a031a3 	lsr	r3, r3, #3
    8d20:	e1a0e003 	mov	lr, r3
    8d24:	e0833103 	add	r3, r3, r3, lsl #2
    8d28:	e1a06083 	lsl	r6, r3, #1
    8d2c:	e0413006 	sub	r3, r1, r6
    8d30:	e59f10c0 	ldr	r1, [pc, #192]	; 8df8 <emit+0x184>
    8d34:	e7d13003 	ldrb	r3, [r1, r3]
    8d38:	e5cc3000 	strb	r3, [ip]
    8d3c:	e1a0100e 	mov	r1, lr
    8d40:	e35e0000 	cmp	lr, #0
    8d44:	1afffff0 	bne	8d0c <emit+0x98>
    8d48:	e3570000 	cmp	r7, #0
    8d4c:	13a0302d 	movne	r3, #45	; 0x2d
    8d50:	15c03000 	strbne	r3, [r0]
    8d54:	128c0002 	addne	r0, ip, #2
    8d58:	ea000008 	b	8d80 <emit+0x10c>
    8d5c:	e1a0300d 	mov	r3, sp
    8d60:	e2830001 	add	r0, r3, #1
    8d64:	e201c00f 	and	ip, r1, #15
    8d68:	e59fe08c 	ldr	lr, [pc, #140]	; 8dfc <emit+0x188>
    8d6c:	e7dec00c 	ldrb	ip, [lr, ip]
    8d70:	e5c3c000 	strb	ip, [r3]
    8d74:	e1a03000 	mov	r3, r0
    8d78:	e1b01221 	lsrs	r1, r1, #4
    8d7c:	1afffff7 	bne	8d60 <emit+0xec>
    8d80:	e1a0100d 	mov	r1, sp
    8d84:	ebffff9f 	bl	8c08 <pad>
    8d88:	e1a0300d 	mov	r3, sp
    8d8c:	e1a02000 	mov	r2, r0
    8d90:	e1a01004 	mov	r1, r4
    8d94:	e1a00005 	mov	r0, r5
    8d98:	ebffffa5 	bl	8c34 <reverse>
    8d9c:	e28dd044 	add	sp, sp, #68	; 0x44
    8da0:	e8bd80f0 	pop	{r4, r5, r6, r7, pc}
    8da4:	e5cd3000 	strb	r3, [sp]
    8da8:	e28d0001 	add	r0, sp, #1
    8dac:	eafffff3 	b	8d80 <emit+0x10c>
    8db0:	e1a0300d 	mov	r3, sp
    8db4:	e2830001 	add	r0, r3, #1
    8db8:	e201c001 	and	ip, r1, #1
    8dbc:	e59fe03c 	ldr	lr, [pc, #60]	; 8e00 <emit+0x18c>
    8dc0:	e7dec00c 	ldrb	ip, [lr, ip]
    8dc4:	e5c3c000 	strb	ip, [r3]
    8dc8:	e1a03000 	mov	r3, r0
    8dcc:	e1b010a1 	lsrs	r1, r1, #1
    8dd0:	1afffff7 	bne	8db4 <emit+0x140>
    8dd4:	eaffffe9 	b	8d80 <emit+0x10c>
    8dd8:	eb0000e3 	bl	916c <rpi_reset_putc>
    8ddc:	e3a03075 	mov	r3, #117	; 0x75
    8de0:	e59f201c 	ldr	r2, [pc, #28]	; 8e04 <emit+0x190>
    8de4:	e59f101c 	ldr	r1, [pc, #28]	; 8e08 <emit+0x194>
    8de8:	e59f001c 	ldr	r0, [pc, #28]	; 8e0c <emit+0x198>
    8dec:	ebffff6a 	bl	8b9c <printk>
    8df0:	eb000122 	bl	9280 <clean_reboot>
    8df4:	cccccccd 	stclgt	12, cr12, [ip], {205}	; 0xcd
    8df8:	00009b1c 	andeq	r9, r0, ip, lsl fp
    8dfc:	00009b28 	andeq	r9, r0, r8, lsr #22
    8e00:	00009b3c 	andeq	r9, r0, ip, lsr fp
    8e04:	00009ad0 	ldrdeq	r9, [r0], -r0
    8e08:	00009af4 	strdeq	r9, [r0], -r4
    8e0c:	00009b08 	andeq	r9, r0, r8, lsl #22

00008e10 <rpi_set_output>:
    8e10:	e3500000 	cmp	r0, #0
    8e14:	0a000005 	beq	8e30 <rpi_set_output+0x20>
    8e18:	e59f3030 	ldr	r3, [pc, #48]	; 8e50 <rpi_set_output+0x40>
    8e1c:	e5830000 	str	r0, [r3]
    8e20:	e3510000 	cmp	r1, #0
    8e24:	159f3028 	ldrne	r3, [pc, #40]	; 8e54 <rpi_set_output+0x44>
    8e28:	15831000 	strne	r1, [r3]
    8e2c:	e12fff1e 	bx	lr
    8e30:	e92d4010 	push	{r4, lr}
    8e34:	eb0000cc 	bl	916c <rpi_reset_putc>
    8e38:	e3a03020 	mov	r3, #32
    8e3c:	e59f2014 	ldr	r2, [pc, #20]	; 8e58 <rpi_set_output+0x48>
    8e40:	e59f1014 	ldr	r1, [pc, #20]	; 8e5c <rpi_set_output+0x4c>
    8e44:	e59f0014 	ldr	r0, [pc, #20]	; 8e60 <rpi_set_output+0x50>
    8e48:	ebffff53 	bl	8b9c <printk>
    8e4c:	eb00010b 	bl	9280 <clean_reboot>
    8e50:	00009688 	andeq	r9, r0, r8, lsl #13
    8e54:	00009684 	andeq	r9, r0, r4, lsl #13
    8e58:	00009ad8 	ldrdeq	r9, [r0], -r8
    8e5c:	00009af4 	strdeq	r9, [r0], -r4
    8e60:	00009b40 	andeq	r9, r0, r0, asr #22

00008e64 <va_printk>:
    8e64:	e92d43f0 	push	{r4, r5, r6, r7, r8, r9, lr}
    8e68:	e24dd094 	sub	sp, sp, #148	; 0x94
    8e6c:	e1a09000 	mov	r9, r0
    8e70:	e58d300c 	str	r3, [sp, #12]
    8e74:	e2411001 	sub	r1, r1, #1
    8e78:	e0808001 	add	r8, r0, r1
    8e7c:	e3a03000 	mov	r3, #0
    8e80:	e5c03000 	strb	r3, [r0]
    8e84:	e1a06000 	mov	r6, r0
    8e88:	e5d23000 	ldrb	r3, [r2]
    8e8c:	e3530000 	cmp	r3, #0
    8e90:	0a000098 	beq	90f8 <va_printk+0x294>
    8e94:	e1560008 	cmp	r6, r8
    8e98:	2a000096 	bcs	90f8 <va_printk+0x294>
    8e9c:	e3530025 	cmp	r3, #37	; 0x25
    8ea0:	12822001 	addne	r2, r2, #1
    8ea4:	15c63000 	strbne	r3, [r6]
    8ea8:	12866001 	addne	r6, r6, #1
    8eac:	1afffff5 	bne	8e88 <va_printk+0x24>
    8eb0:	e5d21001 	ldrb	r1, [r2, #1]
    8eb4:	e3510025 	cmp	r1, #37	; 0x25
    8eb8:	12825001 	addne	r5, r2, #1
    8ebc:	13a04000 	movne	r4, #0
    8ec0:	1a000008 	bne	8ee8 <va_printk+0x84>
    8ec4:	e5c63000 	strb	r3, [r6]
    8ec8:	e2822002 	add	r2, r2, #2
    8ecc:	e2866001 	add	r6, r6, #1
    8ed0:	eaffffec 	b	8e88 <va_printk+0x24>
    8ed4:	e0844104 	add	r4, r4, r4, lsl #2
    8ed8:	e1a03084 	lsl	r3, r4, #1
    8edc:	e0834007 	add	r4, r3, r7
    8ee0:	e2444030 	sub	r4, r4, #48	; 0x30
    8ee4:	e2855001 	add	r5, r5, #1
    8ee8:	e5d57000 	ldrb	r7, [r5]
    8eec:	e1a00007 	mov	r0, r7
    8ef0:	ebffff3f 	bl	8bf4 <isdigit>
    8ef4:	e3500000 	cmp	r0, #0
    8ef8:	1afffff5 	bne	8ed4 <va_printk+0x70>
    8efc:	e354001f 	cmp	r4, #31
    8f00:	8a00001a 	bhi	8f70 <va_printk+0x10c>
    8f04:	e2477062 	sub	r7, r7, #98	; 0x62
    8f08:	e3570016 	cmp	r7, #22
    8f0c:	979ff107 	ldrls	pc, [pc, r7, lsl #2]
    8f10:	ea000066 	b	90b0 <va_printk+0x24c>
    8f14:	0000903c 	andeq	r9, r0, ip, lsr r0
    8f18:	00009080 	andeq	r9, r0, r0, lsl #1
    8f1c:	00008fa8 	andeq	r8, r0, r8, lsr #31
    8f20:	000090b0 	strheq	r9, [r0], -r0
    8f24:	00008f8c 	andeq	r8, r0, ip, lsl #31
    8f28:	000090b0 	strheq	r9, [r0], -r0
    8f2c:	000090b0 	strheq	r9, [r0], -r0
    8f30:	000090b0 	strheq	r9, [r0], -r0
    8f34:	000090b0 	strheq	r9, [r0], -r0
    8f38:	000090b0 	strheq	r9, [r0], -r0
    8f3c:	000090b0 	strheq	r9, [r0], -r0
    8f40:	000090b0 	strheq	r9, [r0], -r0
    8f44:	000090b0 	strheq	r9, [r0], -r0
    8f48:	000090b0 	strheq	r9, [r0], -r0
    8f4c:	0000900c 	andeq	r9, r0, ip
    8f50:	000090b0 	strheq	r9, [r0], -r0
    8f54:	000090b0 	strheq	r9, [r0], -r0
    8f58:	0000906c 	andeq	r9, r0, ip, rrx
    8f5c:	000090b0 	strheq	r9, [r0], -r0
    8f60:	00008fdc 	ldrdeq	r8, [r0], -ip
    8f64:	000090b0 	strheq	r9, [r0], -r0
    8f68:	000090b0 	strheq	r9, [r0], -r0
    8f6c:	0000900c 	andeq	r9, r0, ip
    8f70:	eb00007d 	bl	916c <rpi_reset_putc>
    8f74:	e3a03092 	mov	r3, #146	; 0x92
    8f78:	e59f2190 	ldr	r2, [pc, #400]	; 9110 <va_printk+0x2ac>
    8f7c:	e59f1190 	ldr	r1, [pc, #400]	; 9114 <va_printk+0x2b0>
    8f80:	e59f0190 	ldr	r0, [pc, #400]	; 9118 <va_printk+0x2b4>
    8f84:	ebffff04 	bl	8b9c <printk>
    8f88:	eb0000bc 	bl	9280 <clean_reboot>
    8f8c:	eb000076 	bl	916c <rpi_reset_putc>
    8f90:	e3a03098 	mov	r3, #152	; 0x98
    8f94:	e59f2174 	ldr	r2, [pc, #372]	; 9110 <va_printk+0x2ac>
    8f98:	e59f1174 	ldr	r1, [pc, #372]	; 9114 <va_printk+0x2b0>
    8f9c:	e59f0178 	ldr	r0, [pc, #376]	; 911c <va_printk+0x2b8>
    8fa0:	ebfffefd 	bl	8b9c <printk>
    8fa4:	eb0000b5 	bl	9280 <clean_reboot>
    8fa8:	e59d300c 	ldr	r3, [sp, #12]
    8fac:	e2832004 	add	r2, r3, #4
    8fb0:	e58d200c 	str	r2, [sp, #12]
    8fb4:	e5933000 	ldr	r3, [r3]
    8fb8:	e3a02001 	mov	r2, #1
    8fbc:	e58d2004 	str	r2, [sp, #4]
    8fc0:	e58d4000 	str	r4, [sp]
    8fc4:	e3a02080 	mov	r2, #128	; 0x80
    8fc8:	e28d1010 	add	r1, sp, #16
    8fcc:	e3a0000a 	mov	r0, #10
    8fd0:	ebffff27 	bl	8c74 <emit>
    8fd4:	e2852001 	add	r2, r5, #1
    8fd8:	ea000040 	b	90e0 <va_printk+0x27c>
    8fdc:	e59d300c 	ldr	r3, [sp, #12]
    8fe0:	e2832004 	add	r2, r3, #4
    8fe4:	e58d200c 	str	r2, [sp, #12]
    8fe8:	e5933000 	ldr	r3, [r3]
    8fec:	e3a02000 	mov	r2, #0
    8ff0:	e58d2004 	str	r2, [sp, #4]
    8ff4:	e58d4000 	str	r4, [sp]
    8ff8:	e3a02080 	mov	r2, #128	; 0x80
    8ffc:	e28d1010 	add	r1, sp, #16
    9000:	e3a0000a 	mov	r0, #10
    9004:	ebffff1a 	bl	8c74 <emit>
    9008:	eafffff1 	b	8fd4 <va_printk+0x170>
    900c:	e59d300c 	ldr	r3, [sp, #12]
    9010:	e2832004 	add	r2, r3, #4
    9014:	e58d200c 	str	r2, [sp, #12]
    9018:	e5933000 	ldr	r3, [r3]
    901c:	e3a02000 	mov	r2, #0
    9020:	e58d2004 	str	r2, [sp, #4]
    9024:	e58d4000 	str	r4, [sp]
    9028:	e3a02080 	mov	r2, #128	; 0x80
    902c:	e28d1010 	add	r1, sp, #16
    9030:	e3a00010 	mov	r0, #16
    9034:	ebffff0e 	bl	8c74 <emit>
    9038:	eaffffe5 	b	8fd4 <va_printk+0x170>
    903c:	e59d300c 	ldr	r3, [sp, #12]
    9040:	e2832004 	add	r2, r3, #4
    9044:	e58d200c 	str	r2, [sp, #12]
    9048:	e5933000 	ldr	r3, [r3]
    904c:	e3a02000 	mov	r2, #0
    9050:	e58d2004 	str	r2, [sp, #4]
    9054:	e58d4000 	str	r4, [sp]
    9058:	e3a02080 	mov	r2, #128	; 0x80
    905c:	e28d1010 	add	r1, sp, #16
    9060:	e3a00002 	mov	r0, #2
    9064:	ebffff02 	bl	8c74 <emit>
    9068:	eaffffd9 	b	8fd4 <va_printk+0x170>
    906c:	e59d300c 	ldr	r3, [sp, #12]
    9070:	e2832004 	add	r2, r3, #4
    9074:	e58d200c 	str	r2, [sp, #12]
    9078:	e5930000 	ldr	r0, [r3]
    907c:	eaffffd4 	b	8fd4 <va_printk+0x170>
    9080:	e59d300c 	ldr	r3, [sp, #12]
    9084:	e2832004 	add	r2, r3, #4
    9088:	e58d200c 	str	r2, [sp, #12]
    908c:	e5933000 	ldr	r3, [r3]
    9090:	e3a02000 	mov	r2, #0
    9094:	e58d2004 	str	r2, [sp, #4]
    9098:	e58d4000 	str	r4, [sp]
    909c:	e3a02080 	mov	r2, #128	; 0x80
    90a0:	e28d1010 	add	r1, sp, #16
    90a4:	e3a00008 	mov	r0, #8
    90a8:	ebfffef1 	bl	8c74 <emit>
    90ac:	eaffffc8 	b	8fd4 <va_printk+0x170>
    90b0:	eb00002d 	bl	916c <rpi_reset_putc>
    90b4:	e5d53000 	ldrb	r3, [r5]
    90b8:	e58d3000 	str	r3, [sp]
    90bc:	e3a030b9 	mov	r3, #185	; 0xb9
    90c0:	e59f2048 	ldr	r2, [pc, #72]	; 9110 <va_printk+0x2ac>
    90c4:	e59f1048 	ldr	r1, [pc, #72]	; 9114 <va_printk+0x2b0>
    90c8:	e59f0050 	ldr	r0, [pc, #80]	; 9120 <va_printk+0x2bc>
    90cc:	ebfffeb2 	bl	8b9c <printk>
    90d0:	eb00006a 	bl	9280 <clean_reboot>
    90d4:	e2800001 	add	r0, r0, #1
    90d8:	e5c63000 	strb	r3, [r6]
    90dc:	e2866001 	add	r6, r6, #1
    90e0:	e1560008 	cmp	r6, r8
    90e4:	2affff67 	bcs	8e88 <va_printk+0x24>
    90e8:	e5d03000 	ldrb	r3, [r0]
    90ec:	e3530000 	cmp	r3, #0
    90f0:	1afffff7 	bne	90d4 <va_printk+0x270>
    90f4:	eaffff63 	b	8e88 <va_printk+0x24>
    90f8:	e2860001 	add	r0, r6, #1
    90fc:	e3a03000 	mov	r3, #0
    9100:	e5c63000 	strb	r3, [r6]
    9104:	e0400009 	sub	r0, r0, r9
    9108:	e28dd094 	add	sp, sp, #148	; 0x94
    910c:	e8bd83f0 	pop	{r4, r5, r6, r7, r8, r9, pc}
    9110:	00009ae8 	andeq	r9, r0, r8, ror #21
    9114:	00009af4 	strdeq	r9, [r0], -r4
    9118:	00009b58 	andeq	r9, r0, r8, asr fp
    911c:	00009b74 	andeq	r9, r0, r4, ror fp
    9120:	00009b9c 	muleq	r0, ip, fp

00009124 <internal_putk>:
    9124:	e92d4010 	push	{r4, lr}
    9128:	e1a04000 	mov	r4, r0
    912c:	ea000003 	b	9140 <internal_putk+0x1c>
    9130:	e59f301c 	ldr	r3, [pc, #28]	; 9154 <internal_putk+0x30>
    9134:	e5933000 	ldr	r3, [r3]
    9138:	e12fff33 	blx	r3
    913c:	e2844001 	add	r4, r4, #1
    9140:	e5d40000 	ldrb	r0, [r4]
    9144:	e3500000 	cmp	r0, #0
    9148:	1afffff8 	bne	9130 <internal_putk+0xc>
    914c:	e3a00001 	mov	r0, #1
    9150:	e8bd8010 	pop	{r4, pc}
    9154:	00009688 	andeq	r9, r0, r8, lsl #13

00009158 <internal_putchar>:
    9158:	e92d4010 	push	{r4, lr}
    915c:	e1a04000 	mov	r4, r0
    9160:	eb0000d6 	bl	94c0 <uart_putc>
    9164:	e1a00004 	mov	r0, r4
    9168:	e8bd8010 	pop	{r4, pc}

0000916c <rpi_reset_putc>:
    916c:	e59f2008 	ldr	r2, [pc, #8]	; 917c <rpi_reset_putc+0x10>
    9170:	e59f3008 	ldr	r3, [pc, #8]	; 9180 <rpi_reset_putc+0x14>
    9174:	e5832000 	str	r2, [r3]
    9178:	e12fff1e 	bx	lr
    917c:	00009158 	andeq	r9, r0, r8, asr r1
    9180:	00009688 	andeq	r9, r0, r8, lsl #13

00009184 <rpi_set_putc>:
    9184:	e59f3004 	ldr	r3, [pc, #4]	; 9190 <rpi_set_putc+0xc>
    9188:	e5830000 	str	r0, [r3]
    918c:	e12fff1e 	bx	lr
    9190:	00009688 	andeq	r9, r0, r8, lsl #13

00009194 <internal_sw_putchar>:
    9194:	e12fff1e 	bx	lr

00009198 <_cstart>:
    9198:	e92d4010 	push	{r4, lr}
    919c:	e59f3050 	ldr	r3, [pc, #80]	; 91f4 <_cstart+0x5c>
    91a0:	ea000002 	b	91b0 <_cstart+0x18>
    91a4:	e3a02000 	mov	r2, #0
    91a8:	e5832000 	str	r2, [r3]
    91ac:	e2833004 	add	r3, r3, #4
    91b0:	e59f2040 	ldr	r2, [pc, #64]	; 91f8 <_cstart+0x60>
    91b4:	e1530002 	cmp	r3, r2
    91b8:	3afffff9 	bcc	91a4 <_cstart+0xc>
    91bc:	eb00011e 	bl	963c <cb_get_block>
    91c0:	e3500000 	cmp	r0, #0
    91c4:	0a000002 	beq	91d4 <_cstart+0x3c>
    91c8:	e5d03004 	ldrb	r3, [r0, #4]
    91cc:	e3530002 	cmp	r3, #2
    91d0:	0a000001 	beq	91dc <_cstart+0x44>
    91d4:	ebfffcf6 	bl	85b4 <notmain>
    91d8:	eb000015 	bl	9234 <rpi_reboot>
    91dc:	e59f2018 	ldr	r2, [pc, #24]	; 91fc <_cstart+0x64>
    91e0:	e59f3018 	ldr	r3, [pc, #24]	; 9200 <_cstart+0x68>
    91e4:	e5832000 	str	r2, [r3]
    91e8:	e59f0014 	ldr	r0, [pc, #20]	; 9204 <_cstart+0x6c>
    91ec:	ebfffe6a 	bl	8b9c <printk>
    91f0:	eafffff7 	b	91d4 <_cstart+0x3c>
    91f4:	00009bec 	andeq	r9, r0, ip, ror #23
    91f8:	00009ff0 	strdeq	r9, [r0], -r0
    91fc:	00009194 	muleq	r0, r4, r1
    9200:	00009688 	andeq	r9, r0, r8, lsl #13
    9204:	00009bd4 	ldrdeq	r9, [r0], -r4

00009208 <at_user_level>:
    9208:	e10f0000 	mrs	r0, CPSR
    920c:	e200001f 	and	r0, r0, #31
    9210:	e3500010 	cmp	r0, #16
    9214:	13a00000 	movne	r0, #0
    9218:	03a00001 	moveq	r0, #1
    921c:	e12fff1e 	bx	lr

00009220 <set_user_level>:
    9220:	e10f3000 	mrs	r3, CPSR
    9224:	e3c3301f 	bic	r3, r3, #31
    9228:	e3833010 	orr	r3, r3, #16
    922c:	e129f003 	msr	CPSR_fc, r3
    9230:	e12fff1e 	bx	lr

00009234 <rpi_reboot>:
    9234:	e92d4010 	push	{r4, lr}
    9238:	ebfffff2 	bl	9208 <at_user_level>
    923c:	e3500000 	cmp	r0, #0
    9240:	1a000008 	bne	9268 <rpi_reboot+0x34>
    9244:	e3a0001e 	mov	r0, #30
    9248:	eb00002e 	bl	9308 <delay_ms>
    924c:	e59f101c 	ldr	r1, [pc, #28]	; 9270 <rpi_reboot+0x3c>
    9250:	e59f001c 	ldr	r0, [pc, #28]	; 9274 <rpi_reboot+0x40>
    9254:	eb00003d 	bl	9350 <PUT32>
    9258:	e59f1018 	ldr	r1, [pc, #24]	; 9278 <rpi_reboot+0x44>
    925c:	e59f0018 	ldr	r0, [pc, #24]	; 927c <rpi_reboot+0x48>
    9260:	eb00003a 	bl	9350 <PUT32>
    9264:	eafffffe 	b	9264 <rpi_reboot+0x30>
    9268:	ebffffec 	bl	9220 <set_user_level>
    926c:	eafffff4 	b	9244 <rpi_reboot+0x10>
    9270:	5a000001 	bpl	927c <rpi_reboot+0x48>
    9274:	20100024 	andscs	r0, r0, r4, lsr #32
    9278:	5a000020 	bpl	9300 <delay_us+0x1c>
    927c:	2010001c 	andscs	r0, r0, ip, lsl r0

00009280 <clean_reboot>:
    9280:	e92d4010 	push	{r4, lr}
    9284:	e59f3014 	ldr	r3, [pc, #20]	; 92a0 <clean_reboot+0x20>
    9288:	e5933000 	ldr	r3, [r3]
    928c:	e59f0010 	ldr	r0, [pc, #16]	; 92a4 <clean_reboot+0x24>
    9290:	e12fff33 	blx	r3
    9294:	e3a00064 	mov	r0, #100	; 0x64
    9298:	eb00001a 	bl	9308 <delay_ms>
    929c:	ebffffe4 	bl	9234 <rpi_reboot>
    92a0:	00009684 	andeq	r9, r0, r4, lsl #13
    92a4:	00009be0 	andeq	r9, r0, r0, ror #23

000092a8 <delay_cycles>:
    92a8:	ea000001 	b	92b4 <delay_cycles+0xc>
    92ac:	e2811000 	add	r1, r1, #0
    92b0:	e1a00003 	mov	r0, r3
    92b4:	e2403001 	sub	r3, r0, #1
    92b8:	e3500000 	cmp	r0, #0
    92bc:	1afffffa 	bne	92ac <delay_cycles+0x4>
    92c0:	e12fff1e 	bx	lr

000092c4 <timer_get_usec_raw>:
    92c4:	e92d4010 	push	{r4, lr}
    92c8:	e59f0004 	ldr	r0, [pc, #4]	; 92d4 <timer_get_usec_raw+0x10>
    92cc:	eb00002b 	bl	9380 <GET32>
    92d0:	e8bd8010 	pop	{r4, pc}
    92d4:	20003004 	andcs	r3, r0, r4

000092d8 <timer_get_usec>:
    92d8:	e92d4010 	push	{r4, lr}
    92dc:	ebfffff8 	bl	92c4 <timer_get_usec_raw>
    92e0:	e8bd8010 	pop	{r4, pc}

000092e4 <delay_us>:
    92e4:	e92d4070 	push	{r4, r5, r6, lr}
    92e8:	e1a05000 	mov	r5, r0
    92ec:	ebfffff9 	bl	92d8 <timer_get_usec>
    92f0:	e1a04000 	mov	r4, r0
    92f4:	ebfffff7 	bl	92d8 <timer_get_usec>
    92f8:	e0400004 	sub	r0, r0, r4
    92fc:	e1500005 	cmp	r0, r5
    9300:	3afffffb 	bcc	92f4 <delay_us+0x10>
    9304:	e8bd8070 	pop	{r4, r5, r6, pc}

00009308 <delay_ms>:
    9308:	e92d4010 	push	{r4, lr}
    930c:	e3a03ffa 	mov	r3, #1000	; 0x3e8
    9310:	e0000093 	mul	r0, r3, r0
    9314:	ebfffff2 	bl	92e4 <delay_us>
    9318:	e8bd8010 	pop	{r4, pc}

0000931c <delay_sec>:
    931c:	e92d4010 	push	{r4, lr}
    9320:	e3a03ffa 	mov	r3, #1000	; 0x3e8
    9324:	e0000093 	mul	r0, r3, r0
    9328:	ebfffff6 	bl	9308 <delay_ms>
    932c:	e8bd8010 	pop	{r4, pc}

00009330 <dev_barrier>:
    9330:	ea000002 	b	9340 <dsb>

00009334 <dmb>:
    9334:	e3a00000 	mov	r0, #0
    9338:	ee070fba 	mcr	15, 0, r0, cr7, cr10, {5}
    933c:	e12fff1e 	bx	lr

00009340 <dsb>:
    9340:	ee070f9a 	mcr	15, 0, r0, cr7, cr10, {4}
    9344:	e12fff1e 	bx	lr

00009348 <put32>:
    9348:	e5801000 	str	r1, [r0]
    934c:	e12fff1e 	bx	lr

00009350 <PUT32>:
    9350:	e5801000 	str	r1, [r0]
    9354:	e12fff1e 	bx	lr

00009358 <put16>:
    9358:	e1c010b0 	strh	r1, [r0]
    935c:	e12fff1e 	bx	lr

00009360 <PUT16>:
    9360:	e1c010b0 	strh	r1, [r0]
    9364:	e12fff1e 	bx	lr

00009368 <put8>:
    9368:	e5c01000 	strb	r1, [r0]
    936c:	e12fff1e 	bx	lr

00009370 <PUT8>:
    9370:	e5c01000 	strb	r1, [r0]
    9374:	e12fff1e 	bx	lr

00009378 <get32>:
    9378:	e5900000 	ldr	r0, [r0]
    937c:	e12fff1e 	bx	lr

00009380 <GET32>:
    9380:	e5900000 	ldr	r0, [r0]
    9384:	e12fff1e 	bx	lr

00009388 <GETPC>:
    9388:	e1a0000e 	mov	r0, lr
    938c:	e12fff1e 	bx	lr

00009390 <dummy>:
    9390:	e12fff1e 	bx	lr

00009394 <or_in32>:
    9394:	e92d4070 	push	{r4, r5, r6, lr}
    9398:	e1a04000 	mov	r4, r0
    939c:	e1a05001 	mov	r5, r1
    93a0:	ebfffff4 	bl	9378 <get32>
    93a4:	e1801005 	orr	r1, r0, r5
    93a8:	e1a00004 	mov	r0, r4
    93ac:	ebffffe5 	bl	9348 <put32>
    93b0:	e8bd8070 	pop	{r4, r5, r6, pc}

000093b4 <uart_init>:
    93b4:	e92d4010 	push	{r4, lr}
    93b8:	e3a01002 	mov	r1, #2
    93bc:	e3a0000e 	mov	r0, #14
    93c0:	eb00004b 	bl	94f4 <gpio_set_function>
    93c4:	e3a01002 	mov	r1, #2
    93c8:	e3a0000f 	mov	r0, #15
    93cc:	eb000048 	bl	94f4 <gpio_set_function>
    93d0:	ebffffd6 	bl	9330 <dev_barrier>
    93d4:	e3a01001 	mov	r1, #1
    93d8:	e59f0064 	ldr	r0, [pc, #100]	; 9444 <uart_init+0x90>
    93dc:	ebffffec 	bl	9394 <or_in32>
    93e0:	ebffffd2 	bl	9330 <dev_barrier>
    93e4:	e59f405c 	ldr	r4, [pc, #92]	; 9448 <uart_init+0x94>
    93e8:	e3a01000 	mov	r1, #0
    93ec:	e1a00004 	mov	r0, r4
    93f0:	ebffffd4 	bl	9348 <put32>
    93f4:	e3a01000 	mov	r1, #0
    93f8:	e59f004c 	ldr	r0, [pc, #76]	; 944c <uart_init+0x98>
    93fc:	ebffffd1 	bl	9348 <put32>
    9400:	e3a01003 	mov	r1, #3
    9404:	e59f0044 	ldr	r0, [pc, #68]	; 9450 <uart_init+0x9c>
    9408:	ebffffce 	bl	9348 <put32>
    940c:	e3a01000 	mov	r1, #0
    9410:	e59f003c 	ldr	r0, [pc, #60]	; 9454 <uart_init+0xa0>
    9414:	ebffffcb 	bl	9348 <put32>
    9418:	e3a010c7 	mov	r1, #199	; 0xc7
    941c:	e59f0034 	ldr	r0, [pc, #52]	; 9458 <uart_init+0xa4>
    9420:	ebffffc8 	bl	9348 <put32>
    9424:	e59f1030 	ldr	r1, [pc, #48]	; 945c <uart_init+0xa8>
    9428:	e59f0030 	ldr	r0, [pc, #48]	; 9460 <uart_init+0xac>
    942c:	ebffffc5 	bl	9348 <put32>
    9430:	e3a01003 	mov	r1, #3
    9434:	e1a00004 	mov	r0, r4
    9438:	ebffffc2 	bl	9348 <put32>
    943c:	ebffffbb 	bl	9330 <dev_barrier>
    9440:	e8bd8010 	pop	{r4, pc}
    9444:	20215004 	eorcs	r5, r1, r4
    9448:	20215060 	eorcs	r5, r1, r0, rrx
    944c:	20215044 	eorcs	r5, r1, r4, asr #32
    9450:	2021504c 	eorcs	r5, r1, ip, asr #32
    9454:	20215050 	eorcs	r5, r1, r0, asr r0
    9458:	20215048 	eorcs	r5, r1, r8, asr #32
    945c:	0000010e 	andeq	r0, r0, lr, lsl #2
    9460:	20215068 	eorcs	r5, r1, r8, rrx

00009464 <uart_can_getc>:
    9464:	e92d4010 	push	{r4, lr}
    9468:	e59f0008 	ldr	r0, [pc, #8]	; 9478 <uart_can_getc+0x14>
    946c:	ebffffc1 	bl	9378 <get32>
    9470:	e2000001 	and	r0, r0, #1
    9474:	e8bd8010 	pop	{r4, pc}
    9478:	20215064 	eorcs	r5, r1, r4, rrx

0000947c <uart_can_putc>:
    947c:	e92d4010 	push	{r4, lr}
    9480:	e59f0010 	ldr	r0, [pc, #16]	; 9498 <uart_can_putc+0x1c>
    9484:	ebffffbb 	bl	9378 <get32>
    9488:	e3100002 	tst	r0, #2
    948c:	13a00001 	movne	r0, #1
    9490:	03a00000 	moveq	r0, #0
    9494:	e8bd8010 	pop	{r4, pc}
    9498:	20215064 	eorcs	r5, r1, r4, rrx

0000949c <uart_getc>:
    949c:	e92d4010 	push	{r4, lr}
    94a0:	ebffffef 	bl	9464 <uart_can_getc>
    94a4:	e3500000 	cmp	r0, #0
    94a8:	0afffffc 	beq	94a0 <uart_getc+0x4>
    94ac:	e59f0008 	ldr	r0, [pc, #8]	; 94bc <uart_getc+0x20>
    94b0:	ebffffb0 	bl	9378 <get32>
    94b4:	e6ef0070 	uxtb	r0, r0
    94b8:	e8bd8010 	pop	{r4, pc}
    94bc:	20215040 	eorcs	r5, r1, r0, asr #32

000094c0 <uart_putc>:
    94c0:	e92d4010 	push	{r4, lr}
    94c4:	e1a04000 	mov	r4, r0
    94c8:	ebffffeb 	bl	947c <uart_can_putc>
    94cc:	e3500000 	cmp	r0, #0
    94d0:	0afffffc 	beq	94c8 <uart_putc+0x8>
    94d4:	e6ef1074 	uxtb	r1, r4
    94d8:	e59f0004 	ldr	r0, [pc, #4]	; 94e4 <uart_putc+0x24>
    94dc:	ebffff99 	bl	9348 <put32>
    94e0:	e8bd8010 	pop	{r4, pc}
    94e4:	20215040 	eorcs	r5, r1, r0, asr #32

000094e8 <uart_has_data>:
    94e8:	e92d4010 	push	{r4, lr}
    94ec:	ebffffdc 	bl	9464 <uart_can_getc>
    94f0:	e8bd8010 	pop	{r4, pc}

000094f4 <gpio_set_function>:
    94f4:	e350001f 	cmp	r0, #31
    94f8:	812fff1e 	bxhi	lr
    94fc:	e3d13007 	bics	r3, r1, #7
    9500:	112fff1e 	bxne	lr
    9504:	e92d4070 	push	{r4, r5, r6, lr}
    9508:	e1a04001 	mov	r4, r1
    950c:	e59f2044 	ldr	r2, [pc, #68]	; 9558 <gpio_set_function+0x64>
    9510:	e0832290 	umull	r2, r3, r0, r2
    9514:	e1a031a3 	lsr	r3, r3, #3
    9518:	e1a02003 	mov	r2, r3
    951c:	e0833103 	add	r3, r3, r3, lsl #2
    9520:	e1a01083 	lsl	r1, r3, #1
    9524:	e0403001 	sub	r3, r0, r1
    9528:	e0835083 	add	r5, r3, r3, lsl #1
    952c:	e2820302 	add	r0, r2, #134217728	; 0x8000000
    9530:	e2800702 	add	r0, r0, #524288	; 0x80000
    9534:	e1a06100 	lsl	r6, r0, #2
    9538:	e1a00006 	mov	r0, r6
    953c:	ebffff8f 	bl	9380 <GET32>
    9540:	e3a01007 	mov	r1, #7
    9544:	e1c01511 	bic	r1, r0, r1, lsl r5
    9548:	e1811514 	orr	r1, r1, r4, lsl r5
    954c:	e1a00006 	mov	r0, r6
    9550:	ebffff7e 	bl	9350 <PUT32>
    9554:	e8bd8070 	pop	{r4, r5, r6, pc}
    9558:	cccccccd 	stclgt	12, cr12, [ip], {205}	; 0xcd

0000955c <gpio_set_output>:
    955c:	e92d4010 	push	{r4, lr}
    9560:	e3a01001 	mov	r1, #1
    9564:	ebffffe2 	bl	94f4 <gpio_set_function>
    9568:	e8bd8010 	pop	{r4, pc}

0000956c <gpio_set_on>:
    956c:	e350001f 	cmp	r0, #31
    9570:	812fff1e 	bxhi	lr
    9574:	e92d4010 	push	{r4, lr}
    9578:	e3a01001 	mov	r1, #1
    957c:	e1a01011 	lsl	r1, r1, r0
    9580:	e59f0004 	ldr	r0, [pc, #4]	; 958c <gpio_set_on+0x20>
    9584:	ebffff71 	bl	9350 <PUT32>
    9588:	e8bd8010 	pop	{r4, pc}
    958c:	2020001c 	eorcs	r0, r0, ip, lsl r0

00009590 <gpio_set_off>:
    9590:	e350001f 	cmp	r0, #31
    9594:	812fff1e 	bxhi	lr
    9598:	e92d4010 	push	{r4, lr}
    959c:	e3a01001 	mov	r1, #1
    95a0:	e1a01011 	lsl	r1, r1, r0
    95a4:	e59f0004 	ldr	r0, [pc, #4]	; 95b0 <gpio_set_off+0x20>
    95a8:	ebffff68 	bl	9350 <PUT32>
    95ac:	e8bd8010 	pop	{r4, pc}
    95b0:	20200028 	eorcs	r0, r0, r8, lsr #32

000095b4 <gpio_set_input>:
    95b4:	e92d4010 	push	{r4, lr}
    95b8:	e3a01000 	mov	r1, #0
    95bc:	ebffffcc 	bl	94f4 <gpio_set_function>
    95c0:	e8bd8010 	pop	{r4, pc}

000095c4 <gpio_write>:
    95c4:	e92d4010 	push	{r4, lr}
    95c8:	e3510000 	cmp	r1, #0
    95cc:	1a000001 	bne	95d8 <gpio_write+0x14>
    95d0:	ebffffee 	bl	9590 <gpio_set_off>
    95d4:	e8bd8010 	pop	{r4, pc}
    95d8:	ebffffe3 	bl	956c <gpio_set_on>
    95dc:	e8bd8010 	pop	{r4, pc}

000095e0 <gpio_read>:
    95e0:	e350001f 	cmp	r0, #31
    95e4:	8a000007 	bhi	9608 <gpio_read+0x28>
    95e8:	e92d4010 	push	{r4, lr}
    95ec:	e200401f 	and	r4, r0, #31
    95f0:	e59f3018 	ldr	r3, [pc, #24]	; 9610 <gpio_read+0x30>
    95f4:	e08302a0 	add	r0, r3, r0, lsr #5
    95f8:	ebffff60 	bl	9380 <GET32>
    95fc:	e1a00430 	lsr	r0, r0, r4
    9600:	e2000001 	and	r0, r0, #1
    9604:	e8bd8010 	pop	{r4, pc}
    9608:	e3e00000 	mvn	r0, #0
    960c:	e12fff1e 	bx	lr
    9610:	20200034 	eorcs	r0, r0, r4, lsr r0

00009614 <cb_new>:
    9614:	e92d4010 	push	{r4, lr}
    9618:	e3a02004 	mov	r2, #4
    961c:	e3a01000 	mov	r1, #0
    9620:	e3a00409 	mov	r0, #150994944	; 0x9000000
    9624:	eb00000e 	bl	9664 <memset>
    9628:	e3a00409 	mov	r0, #150994944	; 0x9000000
    962c:	e59f3004 	ldr	r3, [pc, #4]	; 9638 <cb_new+0x24>
    9630:	e5803000 	str	r3, [r0]
    9634:	e8bd8010 	pop	{r4, pc}
    9638:	12345678 	eorsne	r5, r4, #120, 12	; 0x7800000

0000963c <cb_get_block>:
    963c:	e3a03409 	mov	r3, #150994944	; 0x9000000
    9640:	e5932000 	ldr	r2, [r3]
    9644:	e59f3014 	ldr	r3, [pc, #20]	; 9660 <cb_get_block+0x24>
    9648:	e1520003 	cmp	r2, r3
    964c:	1a000001 	bne	9658 <cb_get_block+0x1c>
    9650:	e3a00409 	mov	r0, #150994944	; 0x9000000
    9654:	e12fff1e 	bx	lr
    9658:	e3a00000 	mov	r0, #0
    965c:	e12fff1e 	bx	lr
    9660:	12345678 	eorsne	r5, r4, #120, 12	; 0x7800000

00009664 <memset>:
    9664:	e0802002 	add	r2, r0, r2
    9668:	e1a03000 	mov	r3, r0
    966c:	ea000001 	b	9678 <memset+0x14>
    9670:	e5c31000 	strb	r1, [r3]
    9674:	e2833001 	add	r3, r3, #1
    9678:	e1530002 	cmp	r3, r2
    967c:	3afffffb 	bcc	9670 <memset+0xc>
    9680:	e12fff1e 	bx	lr

Disassembly of section .data:

00009684 <putk>:
    9684:	00009124 	andeq	r9, r0, r4, lsr #2

00009688 <rpi_putchar>:
    9688:	00009158 	andeq	r9, r0, r8, asr r1

Disassembly of section .rodata:

0000968c <__FUNCTION__.4395>:
    968c:	735f676d 	cmpvc	pc, #28573696	; 0x1b40000
    9690:	656c6163 	strbvs	r6, [ip, #-355]!	; 0xfffffe9d
    9694:	00000064 	andeq	r0, r0, r4, rrx

00009698 <__FUNCTION__.4405>:
    9698:	74736574 	ldrbtvc	r6, [r3], #-1396	; 0xfffffa8c
    969c:	00676d5f 	rsbeq	r6, r7, pc, asr sp

000096a0 <__FUNCTION__.4440>:
    96a0:	65636361 	strbvs	r6, [r3, #-865]!	; 0xfffffc9f
    96a4:	6e695f6c 	cdpvs	15, 6, cr5, cr9, cr12, {3}
    96a8:	00007469 	andeq	r7, r0, r9, ror #8

000096ac <__FUNCTION__.4464>:
    96ac:	6d746f6e 	ldclvs	15, cr6, [r4, #-440]!	; 0xfffffe48
    96b0:	006e6961 	rsbeq	r6, lr, r1, ror #18
    96b4:	65636361 	strbvs	r6, [r3, #-865]!	; 0xfffffc9f
    96b8:	00632e6c 	rsbeq	r2, r3, ip, ror #28
    96bc:	494e4150 	stmdbmi	lr, {r4, r6, r8, lr}^
    96c0:	73253a43 			; <UNDEFINED> instruction: 0x73253a43
    96c4:	3a73253a 	bcc	1cd2bb4 <__bss_end__+0x1cc8bc4>
    96c8:	6d3a6425 	cfldrsvs	mvf6, [sl, #-148]!	; 0xffffff6c
    96cc:	63735f67 	cmnvs	r3, #412	; 0x19c
    96d0:	20656c61 	rsbcs	r6, r5, r1, ror #24
    96d4:	31203d3c 			; <UNDEFINED> instruction: 0x31203d3c
    96d8:	00000a36 	andeq	r0, r0, r6, lsr sl
    96dc:	65707865 	ldrbvs	r7, [r0, #-2149]!	; 0xfffff79b
    96e0:	3d207463 	cfstrscc	mvf7, [r0, #-396]!	; 0xfffffe74
    96e4:	2c642520 	cfstr64cs	mvdx2, [r4], #-128	; 0xffffff80
    96e8:	746f6720 	strbtvc	r6, [pc], #-1824	; 96f0 <__FUNCTION__.4464+0x44>
    96ec:	0a642520 	beq	1912b74 <__bss_end__+0x1908b84>
    96f0:	00000000 	andeq	r0, r0, r0
    96f4:	494e4150 	stmdbmi	lr, {r4, r6, r8, lr}^
    96f8:	73253a43 			; <UNDEFINED> instruction: 0x73253a43
    96fc:	3a73253a 	bcc	1cd2bec <__bss_end__+0x1cc8bfc>
    9700:	733a6425 	teqvc	sl, #620756992	; 0x25000000
    9704:	3d20695f 			; <UNDEFINED> instruction: 0x3d20695f
    9708:	7865203d 	stmdavc	r5!, {r0, r2, r3, r4, r5, sp}^
    970c:	74636570 	strbtvc	r6, [r3], #-1392	; 0xfffffa90
    9710:	000a6465 	andeq	r6, sl, r5, ror #8
    9714:	494e4150 	stmdbmi	lr, {r4, r6, r8, lr}^
    9718:	73253a43 			; <UNDEFINED> instruction: 0x73253a43
    971c:	3a73253a 	bcc	1cd2c0c <__bss_end__+0x1cc8c1c>
    9720:	613a6425 	teqvs	sl, r5, lsr #8
    9724:	6c656363 	stclvs	3, cr6, [r5], #-396	; 0xfffffe74
    9728:	7a68203a 	bvc	1a11818 <__bss_end__+0x1a07828>
    972c:	74657320 	strbtvc	r7, [r5], #-800	; 0xfffffce0
    9730:	676e6974 			; <UNDEFINED> instruction: 0x676e6974
    9734:	20666f20 	rsbcs	r6, r6, r0, lsr #30
    9738:	64207825 	strtvs	r7, [r0], #-2085	; 0xfffff7db
    973c:	2073656f 	rsbscs	r6, r3, pc, ror #10
    9740:	20746f6e 	rsbscs	r6, r4, lr, ror #30
    9744:	65707061 	ldrbvs	r7, [r0, #-97]!	; 0xffffff9f
    9748:	74207261 	strtvc	r7, [r0], #-609	; 0xfffffd9f
    974c:	6f77206f 	svcvs	0x0077206f
    9750:	0a0a6b72 	beq	2a4520 <__bss_end__+0x29a530>
    9754:	00000000 	andeq	r0, r0, r0
    9758:	494e4150 	stmdbmi	lr, {r4, r6, r8, lr}^
    975c:	73253a43 			; <UNDEFINED> instruction: 0x73253a43
    9760:	3a73253a 	bcc	1cd2c50 <__bss_end__+0x1cc8c60>
    9764:	693a6425 	ldmdbvs	sl!, {r0, r2, r5, sl, sp, lr}
    9768:	6c61766e 	stclvs	6, cr7, [r1], #-440	; 0xfffffe48
    976c:	47206469 	strmi	r6, [r0, -r9, ror #8]!
    9770:	6c617620 	stclvs	6, cr7, [r1], #-128	; 0xffffff80
    9774:	203a6575 	eorscs	r6, sl, r5, ror r5
    9778:	0a0a7825 	beq	2a7814 <__bss_end__+0x29d824>
    977c:	00000000 	andeq	r0, r0, r0
    9780:	494e4150 	stmdbmi	lr, {r4, r6, r8, lr}^
    9784:	73253a43 			; <UNDEFINED> instruction: 0x73253a43
    9788:	3a73253a 	bcc	1cd2c78 <__bss_end__+0x1cc8c88>
    978c:	693a6425 	ldmdbvs	sl!, {r0, r2, r5, sl, sp, lr}
    9790:	6c61766e 	stclvs	6, cr7, [r1], #-440	; 0xfffffe48
    9794:	68206469 	stmdavs	r0!, {r0, r3, r5, r6, sl, sp, lr}
    9798:	25203a7a 	strcs	r3, [r0, #-2682]!	; 0xfffff586
    979c:	000a0a78 	andeq	r0, sl, r8, ror sl
    97a0:	494e4150 	stmdbmi	lr, {r4, r6, r8, lr}^
    97a4:	73253a43 			; <UNDEFINED> instruction: 0x73253a43
    97a8:	3a73253a 	bcc	1cd2c98 <__bss_end__+0x1cc8ca8>
    97ac:	6c3a6425 	cfldrsvs	mvf6, [sl], #-148	; 0xffffff6c
    97b0:	6c616765 	stclvs	7, cr6, [r1], #-404	; 0xfffffe6c
    97b4:	625f675f 	subsvs	r6, pc, #24903680	; 0x17c0000
    97b8:	28737469 	ldmdacs	r3!, {r0, r3, r5, r6, sl, ip, sp, lr}^
    97bc:	69625f67 	stmdbvs	r2!, {r0, r1, r2, r5, r6, r8, r9, sl, fp, ip, lr}^
    97c0:	0a297374 	beq	a66598 <__bss_end__+0xa5c5a8>
    97c4:	00000000 	andeq	r0, r0, r0
    97c8:	65636361 	strbvs	r6, [r3, #-865]!	; 0xfffffc9f
    97cc:	6172206c 	cmnvs	r2, ip, rrx
    97d0:	61762077 	cmnvs	r6, r7, ror r0
    97d4:	7365756c 	cmnvc	r5, #108, 10	; 0x1b000000
    97d8:	3d78203a 	ldclcc	0, cr2, [r8, #-232]!	; 0xffffff18
    97dc:	792c6425 	stmdbvc	ip!, {r0, r2, r5, sl, sp, lr}
    97e0:	2c64253d 	cfstr64cs	mvdx2, [r4], #-244	; 0xffffff0c
    97e4:	64253d7a 	strtvs	r3, [r5], #-3450	; 0xfffff286
    97e8:	0000000a 	andeq	r0, r0, sl
    97ec:	65636361 	strbvs	r6, [r3, #-865]!	; 0xfffffc9f
    97f0:	6373206c 	cmnvs	r3, #108	; 0x6c
    97f4:	64656c61 	strbtvs	r6, [r5], #-3169	; 0xfffff39f
    97f8:	6c617620 	stclvs	6, cr7, [r1], #-128	; 0xffffff80
    97fc:	20736575 	rsbscs	r6, r3, r5, ror r5
    9800:	6d206e69 	stcvs	14, cr6, [r0, #-420]!	; 0xfffffe5c
    9804:	78203a67 	stmdavc	r0!, {r0, r1, r2, r5, r6, r9, fp, ip, sp}
    9808:	2c64253d 	cfstr64cs	mvdx2, [r4], #-244	; 0xffffff0c
    980c:	64253d79 	strtvs	r3, [r5], #-3449	; 0xfffff287
    9810:	253d7a2c 	ldrcs	r7, [sp, #-2604]!	; 0xfffff5d4
    9814:	00000a64 	andeq	r0, r0, r4, ror #20
    9818:	494e4150 	stmdbmi	lr, {r4, r6, r8, lr}^
    981c:	73253a43 			; <UNDEFINED> instruction: 0x73253a43
    9820:	3a73253a 	bcc	1cd2d10 <__bss_end__+0x1cc8d20>
    9824:	493a6425 	ldmdbmi	sl!, {r0, r2, r5, sl, sp, lr}
    9828:	6974696e 	ldmdbvs	r4!, {r1, r2, r3, r5, r6, r8, fp, sp, lr}^
    982c:	70206c61 	eorvc	r6, r0, r1, ror #24
    9830:	65626f72 	strbvs	r6, [r2, #-3954]!	; 0xfffff08e
    9834:	69616620 	stmdbvs	r1!, {r5, r9, sl, sp, lr}^
    9838:	3a64656c 	bcc	1922df0 <__bss_end__+0x1918e00>
    983c:	70786520 	rsbsvc	r6, r8, r0, lsr #10
    9840:	65746365 	ldrbvs	r6, [r4, #-869]!	; 0xfffffc9b
    9844:	78252064 	stmdavc	r5!, {r2, r5, r6, sp}
    9848:	6f67202c 	svcvs	0x0067202c
    984c:	78252074 	stmdavc	r5!, {r2, r4, r5, r6, sp}
    9850:	00000a0a 	andeq	r0, r0, sl, lsl #20
    9854:	43435553 	movtmi	r5, #13651	; 0x3553
    9858:	3a535345 	bcc	14de574 <__bss_end__+0x14d4584>
    985c:	6d736c20 	ldclvs	12, cr6, [r3, #-128]!	; 0xffffff80
    9860:	6b636120 	blvs	18e1ce8 <__bss_end__+0x18d7cf8>
    9864:	6c776f6e 	ldclvs	15, cr6, [r7], #-440	; 0xfffffe48
    9868:	65676465 	strbvs	r6, [r7, #-1125]!	; 0xfffffb9b
    986c:	756f2064 	strbvc	r2, [pc, #-100]!	; 9810 <__FUNCTION__.4464+0x164>
    9870:	69702072 	ldmdbvs	r0!, {r1, r4, r5, r6, sp}^
    9874:	2121676e 			; <UNDEFINED> instruction: 0x2121676e
    9878:	0000000a 	andeq	r0, r0, sl

0000987c <__FUNCTION__.4436>:
    987c:	63656863 	cmnvs	r5, #6488064	; 0x630000
    9880:	616c5f6b 	cmnvs	ip, fp, ror #30
    9884:	74756f79 	ldrbtvc	r6, [r5], #-3961	; 0xfffff087
    9888:	00000000 	andeq	r0, r0, r0

0000988c <__FUNCTION__.4342>:
    988c:	72656678 	rsbvc	r6, r5, #120, 12	; 0x7800000
    9890:	646e655f 	strbtvs	r6, [lr], #-1375	; 0xfffffaa1
    9894:	00000000 	andeq	r0, r0, r0

00009898 <__FUNCTION__.4321>:
    9898:	72656678 	rsbvc	r6, r5, #120, 12	; 0x7800000
    989c:	6174735f 	cmnvs	r4, pc, asr r3
    98a0:	00007472 	andeq	r7, r0, r2, ror r4

000098a4 <__FUNCTION__.4352>:
    98a4:	5f633269 	svcpl	0x00633269
    98a8:	74697277 	strbtvc	r7, [r9], #-631	; 0xfffffd89
    98ac:	00000065 	andeq	r0, r0, r5, rrx

000098b0 <__FUNCTION__.4365>:
    98b0:	5f633269 	svcpl	0x00633269
    98b4:	64616572 	strbtvs	r6, [r1], #-1394	; 0xfffffa8e
    98b8:	00000000 	andeq	r0, r0, r0

000098bc <__FUNCTION__.4407>:
    98bc:	5f633269 	svcpl	0x00633269
    98c0:	74696e69 	strbtvc	r6, [r9], #-3689	; 0xfffff197
    98c4:	00000000 	andeq	r0, r0, r0
    98c8:	2e633269 	cdpcs	2, 6, cr3, cr3, cr9, {3}
    98cc:	00000063 	andeq	r0, r0, r3, rrx
    98d0:	494e4150 	stmdbmi	lr, {r4, r6, r8, lr}^
    98d4:	73253a43 			; <UNDEFINED> instruction: 0x73253a43
    98d8:	3a73253a 	bcc	1cd2dc8 <__bss_end__+0x1cc8dd8>
    98dc:	6f3a6425 	svcvs	0x003a6425
    98e0:	65736666 	ldrbvs	r6, [r3, #-1638]!	; 0xfffff99a
    98e4:	72772074 	rsbsvc	r2, r7, #116	; 0x74
    98e8:	3a676e6f 	bcc	19e52ac <__bss_end__+0x19db2bc>
    98ec:	70786520 	rsbsvc	r6, r8, r0, lsr #10
    98f0:	20746365 	rsbscs	r6, r4, r5, ror #6
    98f4:	67207825 	strvs	r7, [r0, -r5, lsr #16]!
    98f8:	2520746f 	strcs	r7, [r0, #-1135]!	; 0xfffffb91
    98fc:	73252078 			; <UNDEFINED> instruction: 0x73252078
    9900:	666f5b20 	strbtvs	r5, [pc], -r0, lsr #22
    9904:	64253d66 	strtvs	r3, [r5], #-3430	; 0xfffff29a
    9908:	69626e2c 	stmdbvs	r2!, {r2, r3, r5, r9, sl, fp, sp, lr}^
    990c:	253d7374 	ldrcs	r7, [sp, #-884]!	; 0xfffffc8c
    9910:	0a0a5d64 	beq	2a0ea8 <__bss_end__+0x296eb8>
    9914:	00000000 	andeq	r0, r0, r0
    9918:	64616572 	strbtvs	r6, [r1], #-1394	; 0xfffffa8e
    991c:	00000000 	andeq	r0, r0, r0
    9920:	61656c63 	cmnvs	r5, r3, ror #24
    9924:	00000072 	andeq	r0, r0, r2, ror r0
    9928:	494e4150 	stmdbmi	lr, {r4, r6, r8, lr}^
    992c:	73253a43 			; <UNDEFINED> instruction: 0x73253a43
    9930:	3a73253a 	bcc	1cd2e20 <__bss_end__+0x1cc8e30>
    9934:	773a6425 	ldrvc	r6, [sl, -r5, lsr #8]!
    9938:	68746469 	ldmdavs	r4!, {r0, r3, r5, r6, sl, sp, lr}^
    993c:	6f727720 	svcvs	0x00727720
    9940:	203a676e 	eorscs	r6, sl, lr, ror #14
    9944:	65707865 	ldrbvs	r7, [r0, #-2149]!	; 0xfffff79b
    9948:	25207463 	strcs	r7, [r0, #-1123]!	; 0xfffffb9d
    994c:	6f672078 	svcvs	0x00672078
    9950:	78252074 	stmdavc	r5!, {r2, r4, r5, r6, sp}
    9954:	20732520 	rsbscs	r2, r3, r0, lsr #10
    9958:	66666f5b 	uqsaxvs	r6, r6, fp
    995c:	2c64253d 	cfstr64cs	mvdx2, [r4], #-244	; 0xffffff0c
    9960:	7469626e 	strbtvc	r6, [r9], #-622	; 0xfffffd92
    9964:	64253d73 	strtvs	r3, [r5], #-3443	; 0xfffff28d
    9968:	000a0a5d 	andeq	r0, sl, sp, asr sl
    996c:	00007473 	andeq	r7, r0, r3, ror r4
    9970:	64746e69 	ldrbtvs	r6, [r4], #-3689	; 0xfffff197
    9974:	00000000 	andeq	r0, r0, r0
    9978:	74746e69 	ldrbtvc	r6, [r4], #-3689	; 0xfffff197
    997c:	00000000 	andeq	r0, r0, r0
    9980:	72746e69 	rsbsvc	r6, r4, #1680	; 0x690
    9984:	00000000 	andeq	r0, r0, r0
    9988:	65633269 	strbvs	r3, [r3, #-617]!	; 0xfffffd97
    998c:	0000006e 	andeq	r0, r0, lr, rrx
    9990:	00006174 	andeq	r6, r0, r4, ror r1
    9994:	656e6f64 	strbvs	r6, [lr, #-3940]!	; 0xfffff09c
    9998:	00000000 	andeq	r0, r0, r0
    999c:	00777874 	rsbseq	r7, r7, r4, ror r8
    99a0:	00727872 	rsbseq	r7, r2, r2, ror r8
    99a4:	00647874 	rsbeq	r7, r4, r4, ror r8
    99a8:	00647872 	rsbeq	r7, r4, r2, ror r8
    99ac:	00657874 	rsbeq	r7, r5, r4, ror r8
    99b0:	00667872 	rsbeq	r7, r6, r2, ror r8
    99b4:	00727265 	rsbseq	r7, r2, r5, ror #4
    99b8:	746b6c63 	strbtvc	r6, [fp], #-3171	; 0xfffff39d
    99bc:	0000006b 	andeq	r0, r0, fp, rrx
    99c0:	494e4150 	stmdbmi	lr, {r4, r6, r8, lr}^
    99c4:	73253a43 			; <UNDEFINED> instruction: 0x73253a43
    99c8:	3a73253a 	bcc	1cd2eb8 <__bss_end__+0x1cc8ec8>
    99cc:	693a6425 	ldmdbvs	sl!, {r0, r2, r5, sl, sp, lr}
    99d0:	73206332 			; <UNDEFINED> instruction: 0x73206332
    99d4:	6576616c 	ldrbvs	r6, [r6, #-364]!	; 0xfffffe94
    99d8:	6b636120 	blvs	18e1e60 <__bss_end__+0x18d7e70>
    99dc:	72726520 	rsbsvc	r6, r2, #32, 10	; 0x8000000
    99e0:	000a726f 	andeq	r7, sl, pc, ror #4
    99e4:	494e4150 	stmdbmi	lr, {r4, r6, r8, lr}^
    99e8:	73253a43 			; <UNDEFINED> instruction: 0x73253a43
    99ec:	3a73253a 	bcc	1cd2edc <__bss_end__+0x1cc8eec>
    99f0:	693a6425 	ldmdbvs	sl!, {r0, r2, r5, sl, sp, lr}
    99f4:	73206332 			; <UNDEFINED> instruction: 0x73206332
    99f8:	6576616c 	ldrbvs	r6, [r6, #-364]!	; 0xfffffe94
    99fc:	6c656820 	stclvs	8, cr6, [r5], #-128	; 0xffffff80
    9a00:	696c2064 	stmdbvs	ip!, {r2, r5, r6, sp}^
    9a04:	7420656e 	strtvc	r6, [r0], #-1390	; 0xfffffa92
    9a08:	6c206f6f 	stcvs	15, cr6, [r0], #-444	; 0xfffffe44
    9a0c:	0a676e6f 	beq	19e53d0 <__bss_end__+0x19db3e0>
    9a10:	00000000 	andeq	r0, r0, r0
    9a14:	494e4150 	stmdbmi	lr, {r4, r6, r8, lr}^
    9a18:	73253a43 			; <UNDEFINED> instruction: 0x73253a43
    9a1c:	3a73253a 	bcc	1cd2f0c <__bss_end__+0x1cc8f1c>
    9a20:	693a6425 	ldmdbvs	sl!, {r0, r2, r5, sl, sp, lr}
    9a24:	3e2d6332 	mcrcc	3, 1, r6, cr13, cr2, {1}
    9a28:	74617473 	strbtvc	r7, [r1], #-1139	; 0xfffffb8d
    9a2c:	742e7375 	strtvc	r7, [lr], #-885	; 0xfffffc8b
    9a30:	3d3d2061 	ldccc	0, cr2, [sp, #-388]!	; 0xfffffe7c
    9a34:	000a3020 	andeq	r3, sl, r0, lsr #32
    9a38:	494e4150 	stmdbmi	lr, {r4, r6, r8, lr}^
    9a3c:	73253a43 			; <UNDEFINED> instruction: 0x73253a43
    9a40:	3a73253a 	bcc	1cd2f30 <__bss_end__+0x1cc8f40>
    9a44:	213a6425 	teqcs	sl, r5, lsr #8
    9a48:	2d633269 	sfmcs	f3, 2, [r3, #-420]!	; 0xfffffe5c
    9a4c:	6174733e 	cmnvs	r4, lr, lsr r3
    9a50:	2e737574 	mrccs	5, 3, r7, cr3, cr4, {3}
    9a54:	0a727265 	beq	1ca63f0 <__bss_end__+0x1c9c400>
    9a58:	00000000 	andeq	r0, r0, r0
    9a5c:	494e4150 	stmdbmi	lr, {r4, r6, r8, lr}^
    9a60:	73253a43 			; <UNDEFINED> instruction: 0x73253a43
    9a64:	3a73253a 	bcc	1cd2f54 <__bss_end__+0x1cc8f64>
    9a68:	693a6425 	ldmdbvs	sl!, {r0, r2, r5, sl, sp, lr}
    9a6c:	3e2d6332 	mcrcc	3, 1, r6, cr13, cr2, {1}
    9a70:	74617473 	strbtvc	r7, [r1], #-1139	; 0xfffffb8d
    9a74:	742e7375 	strtvc	r7, [lr], #-885	; 0xfffffc8b
    9a78:	3d206578 	cfstr32cc	mvfx6, [r0, #-480]!	; 0xfffffe20
    9a7c:	0a31203d 	beq	c51b78 <__bss_end__+0xc47b88>
    9a80:	00000000 	andeq	r0, r0, r0
    9a84:	494e4150 	stmdbmi	lr, {r4, r6, r8, lr}^
    9a88:	73253a43 			; <UNDEFINED> instruction: 0x73253a43
    9a8c:	3a73253a 	bcc	1cd2f7c <__bss_end__+0x1cc8f8c>
    9a90:	283a6425 	ldmdacs	sl!, {r0, r2, r5, sl, sp, lr}
    9a94:	64646128 	strbtvs	r6, [r4], #-296	; 0xfffffed8
    9a98:	3e202972 			; <UNDEFINED> instruction: 0x3e202972
    9a9c:	2937203e 	ldmdbcs	r7!, {r1, r2, r3, r4, r5, sp}
    9aa0:	203d3d20 	eorscs	r3, sp, r0, lsr #26
    9aa4:	00000a30 	andeq	r0, r0, r0, lsr sl
    9aa8:	494e4150 	stmdbmi	lr, {r4, r6, r8, lr}^
    9aac:	73253a43 			; <UNDEFINED> instruction: 0x73253a43
    9ab0:	3a73253a 	bcc	1cd2fa0 <__bss_end__+0x1cc8fb0>
    9ab4:	283a6425 	ldmdacs	sl!, {r0, r2, r5, sl, sp, lr}
    9ab8:	79626e28 	stmdbvc	r2!, {r3, r5, r9, sl, fp, sp, lr}^
    9abc:	29736574 	ldmdbcs	r3!, {r2, r4, r5, r6, r8, sl, sp, lr}^
    9ac0:	203e3e20 	eorscs	r3, lr, r0, lsr #28
    9ac4:	20293631 	eorcs	r3, r9, r1, lsr r6
    9ac8:	30203d3d 	eorcc	r3, r0, sp, lsr sp
    9acc:	0000000a 	andeq	r0, r0, sl

00009ad0 <__FUNCTION__.4273>:
    9ad0:	74696d65 	strbtvc	r6, [r9], #-3429	; 0xfffff29b
    9ad4:	00000000 	andeq	r0, r0, r0

00009ad8 <__FUNCTION__.4221>:
    9ad8:	5f697072 	svcpl	0x00697072
    9adc:	5f746573 	svcpl	0x00746573
    9ae0:	7074756f 	rsbsvc	r7, r4, pc, ror #10
    9ae4:	00007475 	andeq	r7, r0, r5, ror r4

00009ae8 <__FUNCTION__.4295>:
    9ae8:	705f6176 	subsvc	r6, pc, r6, ror r1	; <UNPREDICTABLE>
    9aec:	746e6972 	strbtvc	r6, [lr], #-2418	; 0xfffff68e
    9af0:	0000006b 	andeq	r0, r0, fp, rrx
    9af4:	6362696c 	cmnvs	r2, #108, 18	; 0x1b0000
    9af8:	2d61762f 	stclcs	6, cr7, [r1, #-188]!	; 0xffffff44
    9afc:	6e697270 	mcrvs	2, 3, r7, cr9, cr0, {3}
    9b00:	632e6b74 			; <UNDEFINED> instruction: 0x632e6b74
    9b04:	00000000 	andeq	r0, r0, r0
    9b08:	494e4150 	stmdbmi	lr, {r4, r6, r8, lr}^
    9b0c:	73253a43 			; <UNDEFINED> instruction: 0x73253a43
    9b10:	3a73253a 	bcc	1cd3000 <__bss_end__+0x1cc9010>
    9b14:	303a6425 	eorscc	r6, sl, r5, lsr #8
    9b18:	0000000a 	andeq	r0, r0, sl
    9b1c:	33323130 	teqcc	r2, #48, 2
    9b20:	37363534 			; <UNDEFINED> instruction: 0x37363534
    9b24:	00003938 	andeq	r3, r0, r8, lsr r9
    9b28:	33323130 	teqcc	r2, #48, 2
    9b2c:	37363534 			; <UNDEFINED> instruction: 0x37363534
    9b30:	62613938 	rsbvs	r3, r1, #56, 18	; 0xe0000
    9b34:	66656463 	strbtvs	r6, [r5], -r3, ror #8
    9b38:	00000000 	andeq	r0, r0, r0
    9b3c:	00003130 	andeq	r3, r0, r0, lsr r1
    9b40:	494e4150 	stmdbmi	lr, {r4, r6, r8, lr}^
    9b44:	73253a43 			; <UNDEFINED> instruction: 0x73253a43
    9b48:	3a73253a 	bcc	1cd3038 <__bss_end__+0x1cc9048>
    9b4c:	703a6425 	eorsvc	r6, sl, r5, lsr #8
    9b50:	5f637475 	svcpl	0x00637475
    9b54:	000a7066 	andeq	r7, sl, r6, rrx
    9b58:	494e4150 	stmdbmi	lr, {r4, r6, r8, lr}^
    9b5c:	73253a43 			; <UNDEFINED> instruction: 0x73253a43
    9b60:	3a73253a 	bcc	1cd3050 <__bss_end__+0x1cc9060>
    9b64:	773a6425 	ldrvc	r6, [sl, -r5, lsr #8]!
    9b68:	68746469 	ldmdavs	r4!, {r0, r3, r5, r6, sl, sp, lr}^
    9b6c:	33203c20 			; <UNDEFINED> instruction: 0x33203c20
    9b70:	00000a32 	andeq	r0, r0, r2, lsr sl
    9b74:	494e4150 	stmdbmi	lr, {r4, r6, r8, lr}^
    9b78:	73253a43 			; <UNDEFINED> instruction: 0x73253a43
    9b7c:	3a73253a 	bcc	1cd306c <__bss_end__+0x1cc907c>
    9b80:	663a6425 	ldrtvs	r6, [sl], -r5, lsr #8
    9b84:	74616f6c 	strbtvc	r6, [r1], #-3948	; 0xfffff094
    9b88:	746f6e20 	strbtvc	r6, [pc], #-3616	; 9b90 <__FUNCTION__.4295+0xa8>
    9b8c:	616e6520 	cmnvs	lr, r0, lsr #10
    9b90:	64656c62 	strbtvs	r6, [r5], #-3170	; 0xfffff39e
    9b94:	0a212121 	beq	852020 <__bss_end__+0x848030>
    9b98:	00000000 	andeq	r0, r0, r0
    9b9c:	494e4150 	stmdbmi	lr, {r4, r6, r8, lr}^
    9ba0:	73253a43 			; <UNDEFINED> instruction: 0x73253a43
    9ba4:	3a73253a 	bcc	1cd3094 <__bss_end__+0x1cc90a4>
    9ba8:	703a6425 	eorsvc	r6, sl, r5, lsr #8
    9bac:	746e6972 	strbtvc	r6, [lr], #-2418	; 0xfffff68e
    9bb0:	6e203a6b 	vnmulvs.f32	s6, s0, s23
    9bb4:	6820746f 	stmdavs	r0!, {r0, r1, r2, r3, r5, r6, sl, ip, sp, lr}
    9bb8:	6c646e61 	stclvs	14, cr6, [r4], #-388	; 0xfffffe7c
    9bbc:	20676e69 	rsbcs	r6, r7, r9, ror #28
    9bc0:	63657073 	cmnvs	r5, #115	; 0x73
    9bc4:	65696669 	strbvs	r6, [r9, #-1641]!	; 0xfffff997
    9bc8:	25272072 	strcs	r2, [r7, #-114]!	; 0xffffff8e
    9bcc:	0a0a2763 	beq	293960 <__bss_end__+0x289970>
    9bd0:	00000000 	andeq	r0, r0, r0
    9bd4:	63637573 	cmnvs	r3, #482344960	; 0x1cc00000
    9bd8:	21737365 	cmncs	r3, r5, ror #6
    9bdc:	0000000a 	andeq	r0, r0, sl
    9be0:	454e4f44 	strbmi	r4, [lr, #-3908]	; 0xfffff0bc
    9be4:	0a212121 	beq	852070 <__bss_end__+0x848080>
    9be8:	00000000 	andeq	r0, r0, r0

Disassembly of section .bss:

00009bec <__bss_start__>:
    9bec:	00000000 	andeq	r0, r0, r0

00009bf0 <buf.4221>:
	...

Disassembly of section .ARM.attributes:

00000000 <.ARM.attributes>:
   0:	00002a41 	andeq	r2, r0, r1, asr #20
   4:	61656100 	cmnvs	r5, r0, lsl #2
   8:	01006962 	tsteq	r0, r2, ror #18
   c:	00000020 	andeq	r0, r0, r0, lsr #32
  10:	4b5a3605 	blmi	168d82c <__bss_end__+0x168383c>
  14:	08070600 	stmdaeq	r7, {r9, sl}
  18:	12010901 	andne	r0, r1, #16384	; 0x4000
  1c:	15011404 	strne	r1, [r1, #-1028]	; 0xfffffbfc
  20:	18031701 	stmdane	r3, {r0, r8, r9, sl, ip}
  24:	22011a01 	andcs	r1, r1, #4096	; 0x1000
  28:	Address 0x0000000000000028 is out of bounds.


Disassembly of section .comment:

00000000 <.comment>:
   0:	3a434347 	bcc	10d0d24 <__bss_end__+0x10c6d34>
   4:	35312820 	ldrcc	r2, [r1, #-2080]!	; 0xfffff7e0
   8:	332e363a 			; <UNDEFINED> instruction: 0x332e363a
   c:	732b312e 			; <UNDEFINED> instruction: 0x732b312e
  10:	35326e76 	ldrcc	r6, [r2, #-3702]!	; 0xfffff18a
  14:	39333033 	ldmdbcc	r3!, {r0, r1, r4, r5, ip, sp}
  18:	7562312d 	strbvc	r3, [r2, #-301]!	; 0xfffffed3
  1c:	31646c69 	cmncc	r4, r9, ror #24
  20:	2e362029 	cdpcs	0, 3, cr2, cr6, cr9, {1}
  24:	20312e33 	eorscs	r2, r1, r3, lsr lr
  28:	37313032 			; <UNDEFINED> instruction: 0x37313032
  2c:	30323630 	eorscc	r3, r2, r0, lsr r6
  30:	43434700 	movtmi	r4, #14080	; 0x3700
  34:	4728203a 			; <UNDEFINED> instruction: 0x4728203a
  38:	5420554e 	strtpl	r5, [r0], #-1358	; 0xfffffab2
  3c:	736c6f6f 	cmnvc	ip, #444	; 0x1bc
  40:	726f6620 	rsbvc	r6, pc, #32, 12	; 0x2000000
  44:	6d724120 	ldfvse	f4, [r2, #-128]!	; 0xffffff80
  48:	626d4520 	rsbvs	r4, sp, #32, 10	; 0x8000000
  4c:	65646465 	strbvs	r6, [r4, #-1125]!	; 0xfffffb9b
  50:	72502064 	subsvc	r2, r0, #100	; 0x64
  54:	7365636f 	cmnvc	r5, #-1140850687	; 0xbc000001
  58:	73726f73 	cmnvc	r2, #460	; 0x1cc
  5c:	322d3720 	eorcc	r3, sp, #32, 14	; 0x800000
  60:	2d383130 	ldfcss	f3, [r8, #-192]!	; 0xffffff40
  64:	752d3371 	strvc	r3, [sp, #-881]!	; 0xfffffc8f
  68:	74616470 	strbtvc	r6, [r1], #-1136	; 0xfffffb90
  6c:	37202965 	strcc	r2, [r0, -r5, ror #18]!
  70:	312e332e 			; <UNDEFINED> instruction: 0x312e332e
  74:	31303220 	teqcc	r0, r0, lsr #4
  78:	32363038 	eorscc	r3, r6, #56	; 0x38
  7c:	72282032 	eorvc	r2, r8, #50	; 0x32
  80:	61656c65 	cmnvs	r5, r5, ror #24
  84:	20296573 	eorcs	r6, r9, r3, ror r5
  88:	4d52415b 	ldfmie	f4, [r2, #-364]	; 0xfffffe94
  8c:	626d652f 	rsbvs	r6, sp, #197132288	; 0xbc00000
  90:	65646465 	strbvs	r6, [r4, #-1125]!	; 0xfffffb9b
  94:	2d372d64 	ldccs	13, cr2, [r7, #-400]!	; 0xfffffe70
  98:	6e617262 	cdpvs	2, 6, cr7, cr1, cr2, {3}
  9c:	72206863 	eorvc	r6, r0, #6488064	; 0x630000
  a0:	73697665 	cmnvc	r9, #105906176	; 0x6500000
  a4:	206e6f69 	rsbcs	r6, lr, r9, ror #30
  a8:	39313632 	ldmdbcc	r1!, {r1, r4, r5, r9, sl, ip, sp}
  ac:	005d3730 	subseq	r3, sp, r0, lsr r7

Disassembly of section .debug_info:

00000000 <.debug_info>:
       0:	000017de 	ldrdeq	r1, [r0], -lr
       4:	00000004 	andeq	r0, r0, r4
       8:	01040000 	mrseq	r0, (UNDEF: 4)
       c:	00000023 	andeq	r0, r0, r3, lsr #32
      10:	0007fe0c 	andeq	pc, r7, ip, lsl #28
      14:	00052600 	andeq	r2, r5, r0, lsl #12
      18:	00801000 	addeq	r1, r0, r0
      1c:	00062400 	andeq	r2, r6, r0, lsl #8
      20:	00000000 	andeq	r0, r0, r0
      24:	05040200 	streq	r0, [r4, #-512]	; 0xfffffe00
      28:	00746e69 	rsbseq	r6, r4, r9, ror #28
      2c:	0000b703 	andeq	fp, r0, r3, lsl #14
      30:	37d80300 	ldrbcc	r0, [r8, r0, lsl #6]
      34:	04000000 	streq	r0, [r0], #-0
      38:	014a0704 	cmpeq	sl, r4, lsl #14
      3c:	01040000 	mrseq	r0, (UNDEF: 4)
      40:	00062006 	andeq	r2, r6, r6
      44:	05020400 	streq	r0, [r2, #-1024]	; 0xfffffc00
      48:	0000066b 	andeq	r0, r0, fp, ror #12
      4c:	c8050404 	stmdagt	r5, {r2, sl}
      50:	04000001 	streq	r0, [r0], #-1
      54:	01c30508 	biceq	r0, r3, r8, lsl #10
      58:	e3030000 	movw	r0, #12288	; 0x3000
      5c:	04000008 	streq	r0, [r0], #-8
      60:	0000652e 	andeq	r6, r0, lr, lsr #10
      64:	08010400 	stmdaeq	r1, {sl}
      68:	0000061e 	andeq	r0, r0, lr, lsl r6
      6c:	00028503 	andeq	r8, r2, r3, lsl #10
      70:	77310400 	ldrvc	r0, [r1, -r0, lsl #8]!
      74:	04000000 	streq	r0, [r0], #-0
      78:	041a0702 	ldreq	r0, [sl], #-1794	; 0xfffff8fe
      7c:	4d030000 	stcmi	0, cr0, [r3, #-0]
      80:	04000007 	streq	r0, [r0], #-7
      84:	00008934 	andeq	r8, r0, r4, lsr r9
      88:	07040400 	streq	r0, [r4, -r0, lsl #8]
      8c:	00000145 	andeq	r0, r0, r5, asr #2
      90:	40070804 	andmi	r0, r7, r4, lsl #16
      94:	03000001 	movweq	r0, #1
      98:	000005e2 	andeq	r0, r0, r2, ror #11
      9c:	00250705 	eoreq	r0, r5, r5, lsl #14
      a0:	9e030000 	cdpls	0, 0, cr0, cr3, cr0, {0}
      a4:	06000005 	streq	r0, [r0], -r5
      a8:	00004c2c 	andeq	r4, r0, ip, lsr #24
      ac:	07690300 	strbeq	r0, [r9, -r0, lsl #6]!
      b0:	72060000 	andvc	r0, r6, #0
      b4:	0000004c 	andeq	r0, r0, ip, asr #32
      b8:	00047e05 	andeq	r7, r4, r5, lsl #28
      bc:	01650300 	cmneq	r5, r0, lsl #6
      c0:	00000037 	andeq	r0, r0, r7, lsr r0
      c4:	a6060406 	strge	r0, [r6], -r6, lsl #8
      c8:	000000e3 	andeq	r0, r0, r3, ror #1
      cc:	00046b07 	andeq	r6, r4, r7, lsl #22
      d0:	b8a80600 	stmialt	r8!, {r9, sl}
      d4:	07000000 	streq	r0, [r0, -r0]
      d8:	0000037e 	andeq	r0, r0, lr, ror r3
      dc:	00e3a906 	rsceq	sl, r3, r6, lsl #18
      e0:	08000000 	stmdaeq	r0, {}	; <UNPREDICTABLE>
      e4:	00000065 	andeq	r0, r0, r5, rrx
      e8:	000000f3 	strdeq	r0, [r0], -r3
      ec:	0000f309 	andeq	pc, r0, r9, lsl #6
      f0:	04000300 	streq	r0, [r0], #-768	; 0xfffffd00
      f4:	050e0704 	streq	r0, [lr, #-1796]	; 0xfffff8fc
      f8:	080a0000 	stmdaeq	sl, {}	; <UNPREDICTABLE>
      fc:	011ba306 	tsteq	fp, r6, lsl #6
     100:	450b0000 	strmi	r0, [fp, #-0]
     104:	06000007 	streq	r0, [r0], -r7
     108:	000025a5 	andeq	r2, r0, r5, lsr #11
     10c:	ec0b0000 	stc	0, cr0, [fp], {-0}
     110:	06000007 	streq	r0, [r0], -r7
     114:	0000c4aa 	andeq	ip, r0, sl, lsr #9
     118:	03000400 	movweq	r0, #1024	; 0x400
     11c:	000006a0 	andeq	r0, r0, r0, lsr #13
     120:	00faab06 	rscseq	sl, sl, r6, lsl #22
     124:	1c030000 	stcne	0, cr0, [r3], {-0}
     128:	06000003 	streq	r0, [r0], -r3
     12c:	000097af 	andeq	r9, r0, pc, lsr #15
     130:	0d040c00 	stceq	12, cr0, [r4, #-0]
     134:	00013904 	andeq	r3, r1, r4, lsl #18
     138:	08010400 	stmdaeq	r1, {sl}
     13c:	00000627 	andeq	r0, r0, r7, lsr #12
     140:	0001390e 	andeq	r3, r1, lr, lsl #18
     144:	08260300 	stmdaeq	r6!, {r8, r9}
     148:	16070000 	strne	r0, [r7], -r0
     14c:	00000089 	andeq	r0, r0, r9, lsl #1
     150:	00032d0f 	andeq	r2, r3, pc, lsl #26
     154:	2d071800 	stccs	8, cr1, [r7, #-0]
     158:	000001a3 	andeq	r0, r0, r3, lsr #3
     15c:	0006d10b 	andeq	sp, r6, fp, lsl #2
     160:	a32f0700 			; <UNDEFINED> instruction: 0xa32f0700
     164:	00000001 	andeq	r0, r0, r1
     168:	006b5f10 	rsbeq	r5, fp, r0, lsl pc
     16c:	00253007 	eoreq	r3, r5, r7
     170:	0b040000 	bleq	100178 <__bss_end__+0xf6188>
     174:	0000071e 	andeq	r0, r0, lr, lsl r7
     178:	00253007 	eoreq	r3, r5, r7
     17c:	0b080000 	bleq	200184 <__bss_end__+0x1f6194>
     180:	00000316 	andeq	r0, r0, r6, lsl r3
     184:	00253007 	eoreq	r3, r5, r7
     188:	0b0c0000 	bleq	300190 <__bss_end__+0x2f61a0>
     18c:	000008c5 	andeq	r0, r0, r5, asr #17
     190:	00253007 	eoreq	r3, r5, r7
     194:	10100000 	andsne	r0, r0, r0
     198:	0700785f 	smlsdeq	r0, pc, r8, r7	; <UNPREDICTABLE>
     19c:	0001a931 	andeq	sl, r1, r1, lsr r9
     1a0:	0d001400 	cfstrseq	mvf1, [r0, #-0]
     1a4:	00015004 	andeq	r5, r1, r4
     1a8:	01450800 	cmpeq	r5, r0, lsl #16
     1ac:	01b90000 			; <UNDEFINED> instruction: 0x01b90000
     1b0:	f3090000 	vhadd.u8	d0, d9, d0
     1b4:	00000000 	andeq	r0, r0, r0
     1b8:	03700f00 	cmneq	r0, #0, 30
     1bc:	07240000 	streq	r0, [r4, -r0]!
     1c0:	00023235 	andeq	r3, r2, r5, lsr r2
     1c4:	01ba0b00 			; <UNDEFINED> instruction: 0x01ba0b00
     1c8:	37070000 	strcc	r0, [r7, -r0]
     1cc:	00000025 	andeq	r0, r0, r5, lsr #32
     1d0:	07910b00 	ldreq	r0, [r1, r0, lsl #22]
     1d4:	38070000 	stmdacc	r7, {}	; <UNPREDICTABLE>
     1d8:	00000025 	andeq	r0, r0, r5, lsr #32
     1dc:	02040b04 	andeq	r0, r4, #4, 22	; 0x1000
     1e0:	39070000 	stmdbcc	r7, {}	; <UNPREDICTABLE>
     1e4:	00000025 	andeq	r0, r0, r5, lsr #32
     1e8:	09d90b08 	ldmibeq	r9, {r3, r8, r9, fp}^
     1ec:	3a070000 	bcc	1c01f4 <__bss_end__+0x1b6204>
     1f0:	00000025 	andeq	r0, r0, r5, lsr #32
     1f4:	05630b0c 	strbeq	r0, [r3, #-2828]!	; 0xfffff4f4
     1f8:	3b070000 	blcc	1c0200 <__bss_end__+0x1b6210>
     1fc:	00000025 	andeq	r0, r0, r5, lsr #32
     200:	04d10b10 	ldrbeq	r0, [r1], #2832	; 0xb10
     204:	3c070000 	stccc	0, cr0, [r7], {-0}
     208:	00000025 	andeq	r0, r0, r5, lsr #32
     20c:	08ca0b14 	stmiaeq	sl, {r2, r4, r8, r9, fp}^
     210:	3d070000 	stccc	0, cr0, [r7, #-0]
     214:	00000025 	andeq	r0, r0, r5, lsr #32
     218:	06750b18 			; <UNDEFINED> instruction: 0x06750b18
     21c:	3e070000 	cdpcc	0, 0, cr0, cr7, cr0, {0}
     220:	00000025 	andeq	r0, r0, r5, lsr #32
     224:	09530b1c 	ldmdbeq	r3, {r2, r3, r4, r8, r9, fp}^
     228:	3f070000 	svccc	0x00070000
     22c:	00000025 	andeq	r0, r0, r5, lsr #32
     230:	13110020 	tstne	r1, #32
     234:	08000002 	stmdaeq	r0, {r1}
     238:	72480701 	subvc	r0, r8, #262144	; 0x40000
     23c:	0b000002 	bleq	24c <_start-0x7db4>
     240:	000002e8 	andeq	r0, r0, r8, ror #5
     244:	02724907 	rsbseq	r4, r2, #114688	; 0x1c000
     248:	0b000000 	bleq	250 <_start-0x7db0>
     24c:	00000000 	andeq	r0, r0, r0
     250:	02724a07 	rsbseq	r4, r2, #28672	; 0x7000
     254:	12800000 	addne	r0, r0, #0
     258:	000007b3 			; <UNDEFINED> instruction: 0x000007b3
     25c:	01454c07 	cmpeq	r5, r7, lsl #24
     260:	01000000 	mrseq	r0, (UNDEF: 0)
     264:	00025d12 	andeq	r5, r2, r2, lsl sp
     268:	454f0700 	strbmi	r0, [pc, #-1792]	; fffffb70 <__bss_end__+0xffff5b80>
     26c:	04000001 	streq	r0, [r0], #-1
     270:	31080001 	tstcc	r8, r1
     274:	82000001 	andhi	r0, r0, #1
     278:	09000002 	stmdbeq	r0, {r1}
     27c:	000000f3 	strdeq	r0, [r0], -r3
     280:	7d11001f 	ldcvc	0, cr0, [r1, #-124]	; 0xffffff84
     284:	90000005 	andls	r0, r0, r5
     288:	c05b0701 	subsgt	r0, fp, r1, lsl #14
     28c:	0b000002 	bleq	29c <_start-0x7d64>
     290:	000006d1 	ldrdeq	r0, [r0], -r1
     294:	02c05c07 	sbceq	r5, r0, #1792	; 0x700
     298:	0b000000 	bleq	2a0 <_start-0x7d60>
     29c:	000006ff 	strdeq	r0, [r0], -pc	; <UNPREDICTABLE>
     2a0:	00255d07 	eoreq	r5, r5, r7, lsl #26
     2a4:	0b040000 	bleq	1002ac <__bss_end__+0xf62bc>
     2a8:	00000311 	andeq	r0, r0, r1, lsl r3
     2ac:	02c65f07 	sbceq	r5, r6, #7, 30
     2b0:	0b080000 	bleq	2002b8 <__bss_end__+0x1f62c8>
     2b4:	00000213 	andeq	r0, r0, r3, lsl r2
     2b8:	02326007 	eorseq	r6, r2, #7
     2bc:	00880000 	addeq	r0, r8, r0
     2c0:	0282040d 	addeq	r0, r2, #218103808	; 0xd000000
     2c4:	d6080000 	strle	r0, [r8], -r0
     2c8:	d6000002 	strle	r0, [r0], -r2
     2cc:	09000002 	stmdbeq	r0, {r1}
     2d0:	000000f3 	strdeq	r0, [r0], -r3
     2d4:	040d001f 	streq	r0, [sp], #-31	; 0xffffffe1
     2d8:	000002dc 	ldrdeq	r0, [r0], -ip
     2dc:	067f0f13 	uhadd16eq	r0, pc, r3	; <UNPREDICTABLE>
     2e0:	07080000 	streq	r0, [r8, -r0]
     2e4:	00030273 	andeq	r0, r3, r3, ror r2
     2e8:	01fe0b00 	mvnseq	r0, r0, lsl #22
     2ec:	74070000 	strvc	r0, [r7], #-0
     2f0:	00000302 	andeq	r0, r0, r2, lsl #6
     2f4:	00a60b00 	adceq	r0, r6, r0, lsl #22
     2f8:	75070000 	strvc	r0, [r7, #-0]
     2fc:	00000025 	andeq	r0, r0, r5, lsr #32
     300:	040d0004 	streq	r0, [sp], #-4
     304:	00000065 	andeq	r0, r0, r5, rrx
     308:	0006ab0f 	andeq	sl, r6, pc, lsl #22
     30c:	b3076800 	movwlt	r6, #30720	; 0x7800
     310:	00000432 	andeq	r0, r0, r2, lsr r4
     314:	00705f10 	rsbseq	r5, r0, r0, lsl pc
     318:	0302b407 	movweq	fp, #9223	; 0x2407
     31c:	10000000 	andne	r0, r0, r0
     320:	0700725f 	smlsdeq	r0, pc, r2, r7	; <UNPREDICTABLE>
     324:	000025b5 			; <UNDEFINED> instruction: 0x000025b5
     328:	5f100400 	svcpl	0x00100400
     32c:	b6070077 			; <UNDEFINED> instruction: 0xb6070077
     330:	00000025 	andeq	r0, r0, r5, lsr #32
     334:	02560b08 	subseq	r0, r6, #8, 22	; 0x2000
     338:	b7070000 	strlt	r0, [r7, -r0]
     33c:	00000045 	andeq	r0, r0, r5, asr #32
     340:	03af0b0c 			; <UNDEFINED> instruction: 0x03af0b0c
     344:	b8070000 	stmdalt	r7, {}	; <UNPREDICTABLE>
     348:	00000045 	andeq	r0, r0, r5, asr #32
     34c:	625f100e 	subsvs	r1, pc, #14
     350:	b9070066 	stmdblt	r7, {r1, r2, r5, r6}
     354:	000002dd 	ldrdeq	r0, [r0], -sp
     358:	01600b10 	cmneq	r0, r0, lsl fp
     35c:	ba070000 	blt	1c0364 <__bss_end__+0x1b6374>
     360:	00000025 	andeq	r0, r0, r5, lsr #32
     364:	02210b18 	eoreq	r0, r1, #24, 22	; 0x6000
     368:	c1070000 	mrsgt	r0, (UNDEF: 7)
     36c:	00000131 	andeq	r0, r0, r1, lsr r1
     370:	08ad0b1c 	stmiaeq	sp!, {r2, r3, r4, r8, r9, fp}
     374:	c3070000 	movwgt	r0, #28672	; 0x7000
     378:	0000058d 	andeq	r0, r0, sp, lsl #11
     37c:	01760b20 	cmneq	r6, r0, lsr #22
     380:	c5070000 	strgt	r0, [r7, #-0]
     384:	000005b7 			; <UNDEFINED> instruction: 0x000005b7
     388:	07560b24 	ldrbeq	r0, [r6, -r4, lsr #22]
     38c:	c8070000 	stmdagt	r7, {}	; <UNPREDICTABLE>
     390:	000005db 	ldrdeq	r0, [r0], -fp
     394:	096d0b28 	stmdbeq	sp!, {r3, r5, r8, r9, fp}^
     398:	c9070000 	stmdbgt	r7, {}	; <UNPREDICTABLE>
     39c:	000005f5 	strdeq	r0, [r0], -r5
     3a0:	755f102c 	ldrbvc	r1, [pc, #-44]	; 37c <_start-0x7c84>
     3a4:	cc070062 	stcgt	0, cr0, [r7], {98}	; 0x62
     3a8:	000002dd 	ldrdeq	r0, [r0], -sp
     3ac:	755f1030 	ldrbvc	r1, [pc, #-48]	; 384 <_start-0x7c7c>
     3b0:	cd070070 	stcgt	0, cr0, [r7, #-448]	; 0xfffffe40
     3b4:	00000302 	andeq	r0, r0, r2, lsl #6
     3b8:	755f1038 	ldrbvc	r1, [pc, #-56]	; 388 <_start-0x7c78>
     3bc:	ce070072 	mcrgt	0, 0, r0, cr7, cr2, {3}
     3c0:	00000025 	andeq	r0, r0, r5, lsr #32
     3c4:	01f00b3c 	mvnseq	r0, ip, lsr fp
     3c8:	d1070000 	mrsle	r0, (UNDEF: 7)
     3cc:	000005fb 	strdeq	r0, [r0], -fp
     3d0:	09240b40 	stmdbeq	r4!, {r6, r8, r9, fp}
     3d4:	d2070000 	andle	r0, r7, #0
     3d8:	0000060b 	andeq	r0, r0, fp, lsl #12
     3dc:	6c5f1043 	mrrcvs	0, 4, r1, pc, cr3	; <UNPREDICTABLE>
     3e0:	d5070062 	strle	r0, [r7, #-98]	; 0xffffff9e
     3e4:	000002dd 	ldrdeq	r0, [r0], -sp
     3e8:	02730b44 	rsbseq	r0, r3, #68, 22	; 0x11000
     3ec:	d8070000 	stmdale	r7, {}	; <UNPREDICTABLE>
     3f0:	00000025 	andeq	r0, r0, r5, lsr #32
     3f4:	02a90b4c 	adceq	r0, r9, #76, 22	; 0x13000
     3f8:	d9070000 	stmdble	r7, {}	; <UNPREDICTABLE>
     3fc:	000000a2 	andeq	r0, r0, r2, lsr #1
     400:	064c0b50 			; <UNDEFINED> instruction: 0x064c0b50
     404:	dc070000 	stcle	0, cr0, [r7], {-0}
     408:	00000450 	andeq	r0, r0, r0, asr r4
     40c:	10900b54 	addsne	r0, r0, r4, asr fp
     410:	e0070000 	and	r0, r7, r0
     414:	00000126 	andeq	r0, r0, r6, lsr #2
     418:	06c30b58 			; <UNDEFINED> instruction: 0x06c30b58
     41c:	e2070000 	and	r0, r7, #0
     420:	0000011b 	andeq	r0, r0, fp, lsl r1
     424:	049f0b5c 	ldreq	r0, [pc], #2908	; 42c <_start-0x7bd4>
     428:	e3070000 	movw	r0, #28672	; 0x7000
     42c:	00000025 	andeq	r0, r0, r5, lsr #32
     430:	25140064 	ldrcs	r0, [r4, #-100]	; 0xffffff9c
     434:	50000000 	andpl	r0, r0, r0
     438:	15000004 	strne	r0, [r0, #-4]
     43c:	00000450 	andeq	r0, r0, r0, asr r4
     440:	00013115 	andeq	r3, r1, r5, lsl r1
     444:	01331500 	teqeq	r3, r0, lsl #10
     448:	25150000 	ldrcs	r0, [r5, #-0]
     44c:	00000000 	andeq	r0, r0, r0
     450:	045b040d 	ldrbeq	r0, [fp], #-1037	; 0xfffffbf3
     454:	500e0000 	andpl	r0, lr, r0
     458:	16000004 	strne	r0, [r0], -r4
     45c:	00000726 	andeq	r0, r0, r6, lsr #14
     460:	38070428 	stmdacc	r7, {r3, r5, sl}
     464:	00058d02 	andeq	r8, r5, r2, lsl #26
     468:	06641700 	strbteq	r1, [r4], -r0, lsl #14
     46c:	3a070000 	bcc	1c0474 <__bss_end__+0x1b6484>
     470:	00002502 	andeq	r2, r0, r2, lsl #10
     474:	65170000 	ldrvs	r0, [r7, #-0]
     478:	07000002 	streq	r0, [r0, -r2]
     47c:	0662023f 			; <UNDEFINED> instruction: 0x0662023f
     480:	17040000 	strne	r0, [r4, -r0]
     484:	00000394 	muleq	r0, r4, r3
     488:	62023f07 	andvs	r3, r2, #7, 30
     48c:	08000006 	stmdaeq	r0, {r1, r2}
     490:	00032517 	andeq	r2, r3, r7, lsl r5
     494:	023f0700 	eorseq	r0, pc, #0, 14
     498:	00000662 	andeq	r0, r0, r2, ror #12
     49c:	06fa170c 	ldrbteq	r1, [sl], ip, lsl #14
     4a0:	41070000 	mrsmi	r0, (UNDEF: 7)
     4a4:	00002502 	andeq	r2, r0, r2, lsl #10
     4a8:	e5171000 	ldr	r1, [r7, #-0]
     4ac:	07000000 	streq	r0, [r0, -r0]
     4b0:	08440242 	stmdaeq	r4, {r1, r6, r9}^
     4b4:	17140000 	ldrne	r0, [r4, -r0]
     4b8:	0000086f 	andeq	r0, r0, pc, ror #16
     4bc:	25024407 	strcs	r4, [r2, #-1031]	; 0xfffffbf9
     4c0:	30000000 	andcc	r0, r0, r0
     4c4:	00070417 	andeq	r0, r7, r7, lsl r4
     4c8:	02450700 	subeq	r0, r5, #0, 14
     4cc:	000005b1 			; <UNDEFINED> instruction: 0x000005b1
     4d0:	05931734 	ldreq	r1, [r3, #1844]	; 0x734
     4d4:	47070000 	strmi	r0, [r7, -r0]
     4d8:	00002502 	andeq	r2, r0, r2, lsl #10
     4dc:	14173800 	ldrne	r3, [r7], #-2048	; 0xfffff800
     4e0:	07000007 	streq	r0, [r0, -r7]
     4e4:	085f0249 	ldmdaeq	pc, {r0, r3, r6, r9}^	; <UNPREDICTABLE>
     4e8:	173c0000 	ldrne	r0, [ip, -r0]!
     4ec:	00000463 	andeq	r0, r0, r3, ror #8
     4f0:	a3024c07 	movwge	r4, #11271	; 0x2c07
     4f4:	40000001 	andmi	r0, r0, r1
     4f8:	00035a17 	andeq	r5, r3, r7, lsl sl
     4fc:	024d0700 	subeq	r0, sp, #0, 14
     500:	00000025 	andeq	r0, r0, r5, lsr #32
     504:	09901744 	ldmibeq	r0, {r2, r6, r8, r9, sl, ip}
     508:	4e070000 	cdpmi	0, 0, cr0, cr7, cr0, {0}
     50c:	0001a302 	andeq	sl, r1, r2, lsl #6
     510:	c8174800 	ldmdagt	r7, {fp, lr}
     514:	07000005 	streq	r0, [r0, -r5]
     518:	0865024f 	stmdaeq	r5!, {r0, r1, r2, r3, r6, r9}^
     51c:	174c0000 	strbne	r0, [ip, -r0]
     520:	0000039c 	muleq	r0, ip, r3
     524:	25025207 	strcs	r5, [r2, #-519]	; 0xfffffdf9
     528:	50000000 	andpl	r0, r0, r0
     52c:	0002a117 	andeq	sl, r2, r7, lsl r1
     530:	02530700 	subseq	r0, r3, #0, 14
     534:	00000133 	andeq	r0, r0, r3, lsr r1
     538:	11521754 	cmpne	r2, r4, asr r7
     53c:	76070000 	strvc	r0, [r7], -r0
     540:	00082202 	andeq	r2, r8, r2, lsl #4
     544:	7d185800 	ldcvc	8, cr5, [r8, #-0]
     548:	07000005 	streq	r0, [r0, -r5]
     54c:	02c0027a 	sbceq	r0, r0, #-1610612729	; 0xa0000007
     550:	01480000 	mrseq	r0, (UNDEF: 72)
     554:	00042d18 	andeq	r2, r4, r8, lsl sp
     558:	027b0700 	rsbseq	r0, fp, #0, 14
     55c:	00000282 	andeq	r0, r0, r2, lsl #5
     560:	f518014c 			; <UNDEFINED> instruction: 0xf518014c
     564:	07000008 	streq	r0, [r0, -r8]
     568:	0876027f 	ldmdaeq	r6!, {r0, r1, r2, r3, r4, r5, r6, r9}^
     56c:	02dc0000 	sbcseq	r0, ip, #0
     570:	00022918 	andeq	r2, r2, r8, lsl r9
     574:	02840700 	addeq	r0, r4, #0, 14
     578:	00000627 	andeq	r0, r0, r7, lsr #12
     57c:	0e1802e0 	cdpeq	2, 1, cr0, cr8, cr0, {7}
     580:	07000002 	streq	r0, [r0, -r2]
     584:	08820285 	stmeq	r2, {r0, r2, r7, r9}
     588:	02ec0000 	rsceq	r0, ip, #0
     58c:	32040d00 	andcc	r0, r4, #0, 26
     590:	14000004 	strne	r0, [r0], #-4
     594:	00000025 	andeq	r0, r0, r5, lsr #32
     598:	000005b1 			; <UNDEFINED> instruction: 0x000005b1
     59c:	00045015 	andeq	r5, r4, r5, lsl r0
     5a0:	01311500 	teqeq	r1, r0, lsl #10
     5a4:	b1150000 	tstlt	r5, r0
     5a8:	15000005 	strne	r0, [r0, #-5]
     5ac:	00000025 	andeq	r0, r0, r5, lsr #32
     5b0:	40040d00 	andmi	r0, r4, r0, lsl #26
     5b4:	0d000001 	stceq	0, cr0, [r0, #-4]
     5b8:	00059304 	andeq	r9, r5, r4, lsl #6
     5bc:	00ad1400 	adceq	r1, sp, r0, lsl #8
     5c0:	05db0000 	ldrbeq	r0, [fp]
     5c4:	50150000 	andspl	r0, r5, r0
     5c8:	15000004 	strne	r0, [r0, #-4]
     5cc:	00000131 	andeq	r0, r0, r1, lsr r1
     5d0:	0000ad15 	andeq	sl, r0, r5, lsl sp
     5d4:	00251500 	eoreq	r1, r5, r0, lsl #10
     5d8:	0d000000 	stceq	0, cr0, [r0, #-0]
     5dc:	0005bd04 	andeq	fp, r5, r4, lsl #26
     5e0:	00251400 	eoreq	r1, r5, r0, lsl #8
     5e4:	05f50000 	ldrbeq	r0, [r5, #0]!
     5e8:	50150000 	andspl	r0, r5, r0
     5ec:	15000004 	strne	r0, [r0, #-4]
     5f0:	00000131 	andeq	r0, r0, r1, lsr r1
     5f4:	e1040d00 	tst	r4, r0, lsl #26
     5f8:	08000005 	stmdaeq	r0, {r0, r2}
     5fc:	00000065 	andeq	r0, r0, r5, rrx
     600:	0000060b 	andeq	r0, r0, fp, lsl #12
     604:	0000f309 	andeq	pc, r0, r9, lsl #6
     608:	08000200 	stmdaeq	r0, {r9}
     60c:	00000065 	andeq	r0, r0, r5, rrx
     610:	0000061b 	andeq	r0, r0, fp, lsl r6
     614:	0000f309 	andeq	pc, r0, r9, lsl #6
     618:	05000000 	streq	r0, [r0, #-0]
     61c:	00000699 	muleq	r0, r9, r6
     620:	08011d07 	stmdaeq	r1, {r0, r1, r2, r8, sl, fp, ip}
     624:	19000003 	stmdbne	r0, {r0, r1}
     628:	000008d4 	ldrdeq	r0, [r0], -r4
     62c:	0121070c 			; <UNDEFINED> instruction: 0x0121070c
     630:	0000065c 	andeq	r0, r0, ip, asr r6
     634:	0006d117 	andeq	sp, r6, r7, lsl r1
     638:	01230700 			; <UNDEFINED> instruction: 0x01230700
     63c:	0000065c 	andeq	r0, r0, ip, asr r6
     640:	03fd1700 	mvnseq	r1, #0, 14
     644:	24070000 	strcs	r0, [r7], #-0
     648:	00002501 	andeq	r2, r0, r1, lsl #10
     64c:	93170400 	tstls	r7, #0, 8
     650:	07000006 	streq	r0, [r0, -r6]
     654:	06620125 	strbteq	r0, [r2], -r5, lsr #2
     658:	00080000 	andeq	r0, r8, r0
     65c:	0627040d 	strteq	r0, [r7], -sp, lsl #8
     660:	040d0000 	streq	r0, [sp], #-0
     664:	0000061b 	andeq	r0, r0, fp, lsl r6
     668:	0000c919 	andeq	ip, r0, r9, lsl r9
     66c:	3d070e00 	stccc	14, cr0, [r7, #-0]
     670:	00069d01 	andeq	r9, r6, r1, lsl #26
     674:	07361700 	ldreq	r1, [r6, -r0, lsl #14]!
     678:	3e070000 	cdpcc	0, 0, cr0, cr7, cr0, {0}
     67c:	00069d01 	andeq	r9, r6, r1, lsl #26
     680:	d9170000 	ldmdble	r7, {}	; <UNPREDICTABLE>
     684:	07000007 	streq	r0, [r0, -r7]
     688:	069d013f 			; <UNDEFINED> instruction: 0x069d013f
     68c:	17060000 	strne	r0, [r6, -r0]
     690:	00000818 	andeq	r0, r0, r8, lsl r8
     694:	77014007 	strvc	r4, [r1, -r7]
     698:	0c000000 	stceq	0, cr0, [r0], {-0}
     69c:	00770800 	rsbseq	r0, r7, r0, lsl #16
     6a0:	06ad0000 	strteq	r0, [sp], r0
     6a4:	f3090000 	vhadd.u8	d0, d9, d0
     6a8:	02000000 	andeq	r0, r0, #0
     6ac:	07d01a00 	ldrbeq	r1, [r0, r0, lsl #20]
     6b0:	07ae0257 	sbfxeq	r0, r7, #4, #15
     6b4:	9d170000 	ldcls	0, cr0, [r7, #-0]
     6b8:	07000008 	streq	r0, [r0, -r8]
     6bc:	00370259 	eorseq	r0, r7, r9, asr r2
     6c0:	17000000 	strne	r0, [r0, -r0]
     6c4:	000007df 	ldrdeq	r0, [r0], -pc	; <UNPREDICTABLE>
     6c8:	33025a07 	movwcc	r5, #10759	; 0x2a07
     6cc:	04000001 	streq	r0, [r0], #-1
     6d0:	00044217 	andeq	r4, r4, r7, lsl r2
     6d4:	025b0700 	subseq	r0, fp, #0, 14
     6d8:	000007ae 	andeq	r0, r0, lr, lsr #15
     6dc:	095e1708 	ldmdbeq	lr, {r3, r8, r9, sl, ip}^
     6e0:	5c070000 	stcpl	0, cr0, [r7], {-0}
     6e4:	0001b902 	andeq	fp, r1, r2, lsl #18
     6e8:	35172400 	ldrcc	r2, [r7, #-1024]	; 0xfffffc00
     6ec:	07000003 	streq	r0, [r0, -r3]
     6f0:	0025025d 	eoreq	r0, r5, sp, asr r2
     6f4:	17480000 	strbne	r0, [r8, -r0]
     6f8:	000006cc 	andeq	r0, r0, ip, asr #13
     6fc:	90025e07 	andls	r5, r2, r7, lsl #28
     700:	50000000 	andpl	r0, r0, r0
     704:	00097417 	andeq	r7, r9, r7, lsl r4
     708:	025f0700 	subseq	r0, pc, #0, 14
     70c:	00000668 	andeq	r0, r0, r8, ror #12
     710:	06ed1758 	usateq	r1, #13, r8, asr #14
     714:	60070000 	andvs	r0, r7, r0
     718:	00011b02 	andeq	r1, r1, r2, lsl #22
     71c:	82176800 	andshi	r6, r7, #0, 16
     720:	07000009 	streq	r0, [r0, -r9]
     724:	011b0261 	tsteq	fp, r1, ror #4
     728:	17700000 	ldrbne	r0, [r0, -r0]!
     72c:	000001ac 	andeq	r0, r0, ip, lsr #3
     730:	1b026207 	blne	98f54 <__bss_end__+0x8ef64>
     734:	78000001 	stmdavc	r0, {r0}
     738:	0008eb17 	andeq	lr, r8, r7, lsl fp
     73c:	02630700 	rsbeq	r0, r3, #0, 14
     740:	000007be 			; <UNDEFINED> instruction: 0x000007be
     744:	04361780 	ldrteq	r1, [r6], #-1920	; 0xfffff880
     748:	64070000 	strvs	r0, [r7], #-0
     74c:	0007ce02 	andeq	ip, r7, r2, lsl #28
     750:	2e178800 	cdpcs	8, 1, cr8, cr7, cr0, {0}
     754:	07000008 	streq	r0, [r0, -r8]
     758:	00250265 	eoreq	r0, r5, r5, ror #4
     75c:	17a00000 	strne	r0, [r0, r0]!
     760:	000002da 	ldrdeq	r0, [r0], -sl
     764:	1b026607 	blne	99f88 <__bss_end__+0x8ff98>
     768:	a4000001 	strge	r0, [r0], #-1
     76c:	00018817 	andeq	r8, r1, r7, lsl r8
     770:	02670700 	rsbeq	r0, r7, #0, 14
     774:	0000011b 	andeq	r0, r0, fp, lsl r1
     778:	02c017ac 	sbceq	r1, r0, #172, 14	; 0x2b00000
     77c:	68070000 	stmdavs	r7, {}	; <UNPREDICTABLE>
     780:	00011b02 	andeq	r1, r1, r2, lsl #22
     784:	2017b400 	andscs	fp, r7, r0, lsl #8
     788:	07000001 	streq	r0, [r0, -r1]
     78c:	011b0269 	tsteq	fp, r9, ror #4
     790:	17bc0000 	ldrne	r0, [ip, r0]!
     794:	0000012f 	andeq	r0, r0, pc, lsr #2
     798:	1b026a07 	blne	9afbc <__bss_end__+0x90fcc>
     79c:	c4000001 	strgt	r0, [r0], #-1
     7a0:	00066217 	andeq	r6, r6, r7, lsl r2
     7a4:	026b0700 	rsbeq	r0, fp, #0, 14
     7a8:	00000025 	andeq	r0, r0, r5, lsr #32
     7ac:	390800cc 	stmdbcc	r8, {r2, r3, r6, r7}
     7b0:	be000001 	cdplt	0, 0, cr0, cr0, cr1, {0}
     7b4:	09000007 	stmdbeq	r0, {r0, r1, r2}
     7b8:	000000f3 	strdeq	r0, [r0], -r3
     7bc:	39080019 	stmdbcc	r8, {r0, r3, r4}
     7c0:	ce000001 	cdpgt	0, 0, cr0, cr0, cr1, {0}
     7c4:	09000007 	stmdbeq	r0, {r0, r1, r2}
     7c8:	000000f3 	strdeq	r0, [r0], -r3
     7cc:	39080007 	stmdbcc	r8, {r0, r1, r2}
     7d0:	de000001 	cdple	0, 0, cr0, cr0, cr1, {0}
     7d4:	09000007 	stmdbeq	r0, {r0, r1, r2}
     7d8:	000000f3 	strdeq	r0, [r0], -r3
     7dc:	f01a0017 			; <UNDEFINED> instruction: 0xf01a0017
     7e0:	02027007 	andeq	r7, r2, #7
     7e4:	17000008 	strne	r0, [r0, -r8]
     7e8:	00000552 	andeq	r0, r0, r2, asr r5
     7ec:	02027307 	andeq	r7, r2, #469762048	; 0x1c000000
     7f0:	00000008 	andeq	r0, r0, r8
     7f4:	0004f917 	andeq	pc, r4, r7, lsl r9	; <UNPREDICTABLE>
     7f8:	02740700 	rsbseq	r0, r4, #0, 14
     7fc:	00000812 	andeq	r0, r0, r2, lsl r8
     800:	02080078 	andeq	r0, r8, #120	; 0x78
     804:	12000003 	andne	r0, r0, #3
     808:	09000008 	stmdbeq	r0, {r3}
     80c:	000000f3 	strdeq	r0, [r0], -r3
     810:	3708001d 	smladcc	r8, sp, r0, r0
     814:	22000000 	andcs	r0, r0, #0
     818:	09000008 	stmdbeq	r0, {r3}
     81c:	000000f3 	strdeq	r0, [r0], -r3
     820:	f01b001d 			; <UNDEFINED> instruction: 0xf01b001d
     824:	44025507 	strmi	r5, [r2], #-1287	; 0xfffffaf9
     828:	1c000008 	stcne	0, cr0, [r0], {8}
     82c:	00000726 	andeq	r0, r0, r6, lsr #14
     830:	ad026c07 	stcge	12, cr6, [r2, #-28]	; 0xffffffe4
     834:	1c000006 	stcne	0, cr0, [r0], {6}
     838:	0000092a 	andeq	r0, r0, sl, lsr #18
     83c:	de027507 	cfsh32le	mvfx7, mvfx2, #7
     840:	00000007 	andeq	r0, r0, r7
     844:	00013908 	andeq	r3, r1, r8, lsl #18
     848:	00085400 	andeq	r5, r8, r0, lsl #8
     84c:	00f30900 	rscseq	r0, r3, r0, lsl #18
     850:	00180000 	andseq	r0, r8, r0
     854:	00085f1d 	andeq	r5, r8, sp, lsl pc
     858:	04501500 	ldrbeq	r1, [r0], #-1280	; 0xfffffb00
     85c:	0d000000 	stceq	0, cr0, [r0, #-0]
     860:	00085404 	andeq	r5, r8, r4, lsl #8
     864:	a3040d00 	movwge	r0, #19712	; 0x4d00
     868:	1d000001 	stcne	0, cr0, [r0, #-4]
     86c:	00000876 	andeq	r0, r0, r6, ror r8
     870:	00002515 	andeq	r2, r0, r5, lsl r5
     874:	040d0000 	streq	r0, [sp], #-0
     878:	0000087c 	andeq	r0, r0, ip, ror r8
     87c:	086b040d 	stmdaeq	fp!, {r0, r2, r3, sl}^
     880:	1b080000 	blne	200888 <__bss_end__+0x1f6898>
     884:	92000006 	andls	r0, r0, #6
     888:	09000008 	stmdbeq	r0, {r3}
     88c:	000000f3 	strdeq	r0, [r0], -r3
     890:	631e0002 	tstvs	lr, #2
     894:	07000008 	streq	r0, [r0, -r8]
     898:	045002fd 	ldrbeq	r0, [r0], #-765	; 0xfffffd03
     89c:	5c1e0000 	ldcpl	0, cr0, [lr], {-0}
     8a0:	07000008 	streq	r0, [r0, -r8]
     8a4:	045602fe 	ldrbeq	r0, [r6], #-766	; 0xfffffd02
     8a8:	25140000 	ldrcs	r0, [r4, #-0]
     8ac:	b9000000 	stmdblt	r0, {}	; <UNPREDICTABLE>
     8b0:	15000008 	strne	r0, [r0, #-8]
     8b4:	00000025 	andeq	r0, r0, r5, lsr #32
     8b8:	03641f00 	cmneq	r4, #0, 30
     8bc:	1d080000 	stcne	0, cr0, [r8, #-0]
     8c0:	000008c4 	andeq	r0, r0, r4, asr #17
     8c4:	08aa040d 	stmiaeq	sl!, {r0, r2, r3, sl}
     8c8:	25140000 	ldrcs	r0, [r4, #-0]
     8cc:	d9000000 	stmdble	r0, {}	; <UNPREDICTABLE>
     8d0:	15000008 	strne	r0, [r0, #-8]
     8d4:	000005b1 			; <UNDEFINED> instruction: 0x000005b1
     8d8:	0d2b1f00 	stceq	15, cr1, [fp, #-0]
     8dc:	22080000 	andcs	r0, r8, #0
     8e0:	000008e4 	andeq	r0, r0, r4, ror #17
     8e4:	08ca040d 	stmiaeq	sl, {r0, r2, r3, sl}^
     8e8:	01200000 			; <UNDEFINED> instruction: 0x01200000
     8ec:	00000065 	andeq	r0, r0, r5, rrx
     8f0:	08fd0402 	ldmeq	sp!, {r1, sl}^
     8f4:	3b210000 	blcc	8408fc <__bss_end__+0x83690c>
     8f8:	6b000008 	blvs	920 <_start-0x76e0>
     8fc:	37042000 	strcc	r2, [r4, -r0]
     900:	02000000 	andeq	r0, r0, #0
     904:	00092e07 	andeq	r2, r9, r7, lsl #28
     908:	05022200 	streq	r2, [r2, #-512]	; 0xfffffe00
     90c:	00000000 	andeq	r0, r0, r0
     910:	b2220002 	eorlt	r0, r2, #2
     914:	02000005 	andeq	r0, r0, #5
     918:	22000400 	andcs	r0, r0, #0, 8
     91c:	00000114 	andeq	r0, r0, r4, lsl r1
     920:	00080003 	andeq	r0, r8, r3
     924:	00040d22 	andeq	r0, r4, r2, lsr #26
     928:	10000100 	andne	r0, r0, r0, lsl #2
     92c:	f0030000 			; <UNDEFINED> instruction: 0xf0030000
     930:	02000000 	andeq	r0, r0, #0
     934:	0008fd0f 	andeq	pc, r8, pc, lsl #26
     938:	65012000 	strvs	r2, [r1, #-0]
     93c:	02000000 	andeq	r0, r0, #0
     940:	0009882c 	andeq	r8, r9, ip, lsr #16
     944:	05a52100 	streq	r2, [r5, #256]!	; 0x100
     948:	21000000 	mrscs	r0, (UNDEF: 0)
     94c:	00000585 	andeq	r0, r0, r5, lsl #11
     950:	08ff2101 	ldmeq	pc!, {r0, r8, sp}^	; <UNPREDICTABLE>
     954:	21020000 	mrscs	r0, (UNDEF: 2)
     958:	0000034c 	andeq	r0, r0, ip, asr #6
     95c:	03d92103 	bicseq	r2, r9, #-1073741824	; 0xc0000000
     960:	21040000 	mrscs	r0, (UNDEF: 4)
     964:	000002f8 	strdeq	r0, [r0], -r8
     968:	079a2105 	ldreq	r2, [sl, r5, lsl #2]
     96c:	21060000 	mrscs	r0, (UNDEF: 6)
     970:	00000490 	muleq	r0, r0, r4
     974:	088d2107 	stmeq	sp, {r0, r1, r2, r8, sp}
     978:	21080000 	mrscs	r0, (UNDEF: 8)
     97c:	000007c9 	andeq	r0, r0, r9, asr #15
     980:	05d22109 	ldrbeq	r2, [r2, #265]	; 0x109
     984:	000a0000 	andeq	r0, sl, r0
     988:	0004eb03 	andeq	lr, r4, r3, lsl #22
     98c:	393a0200 	ldmdbcc	sl!, {r9}
     990:	23000009 	movwcs	r0, #9
     994:	000004db 	ldrdeq	r0, [r0], -fp
     998:	00006501 	andeq	r6, r0, r1, lsl #10
     99c:	0c570200 	lfmeq	f0, 2, [r7], {-0}
     9a0:	2100000b 	tstcs	r0, fp
     9a4:	00000652 	andeq	r0, r0, r2, asr r6
     9a8:	00ac2101 	adceq	r2, ip, r1, lsl #2
     9ac:	21060000 	mrscs	r0, (UNDEF: 6)
     9b0:	00000485 	andeq	r0, r0, r5, lsl #9
     9b4:	00be2107 	adcseq	r2, lr, r7, lsl #2
     9b8:	21080000 	mrscs	r0, (UNDEF: 8)
     9bc:	00000851 	andeq	r0, r0, r1, asr r8
     9c0:	00d12109 	sbcseq	r2, r1, r9, lsl #2
     9c4:	210a0000 	mrscs	r0, (UNDEF: 10)
     9c8:	00000771 	andeq	r0, r0, r1, ror r7
     9cc:	0297210b 	addseq	r2, r7, #-1073741822	; 0xc0000002
     9d0:	210d0000 	mrscs	r0, (UNDEF: 13)
     9d4:	000009c7 	andeq	r0, r0, r7, asr #19
     9d8:	0760210e 	strbeq	r2, [r0, -lr, lsl #2]!
     9dc:	210f0000 	mrscs	r0, CPSR
     9e0:	000001dc 	ldrdeq	r0, [r0], -ip
     9e4:	03f52110 	mvnseq	r2, #16, 2
     9e8:	21110000 	tstcs	r1, r0
     9ec:	000009d1 	ldrdeq	r0, [r0], -r1
     9f0:	000c2112 	andeq	r2, ip, r2, lsl r1
     9f4:	21130000 	tstcs	r3, r0
     9f8:	00000806 	andeq	r0, r0, r6, lsl #16
     9fc:	063b2114 			; <UNDEFINED> instruction: 0x063b2114
     a00:	21150000 	tstcs	r5, r0
     a04:	000004c9 	andeq	r0, r0, r9, asr #9
     a08:	02312116 	eorseq	r2, r1, #-2147483643	; 0x80000005
     a0c:	21170000 	tstcs	r7, r0
     a10:	000000dc 	ldrdeq	r0, [r0], -ip
     a14:	081d2118 	ldmdaeq	sp, {r3, r4, r8, sp}
     a18:	21190000 	tstcs	r9, r0
     a1c:	00000785 	andeq	r0, r0, r5, lsl #15
     a20:	02f0211b 	rscseq	r2, r0, #-1073741818	; 0xc0000006
     a24:	211c0000 	tstcs	ip, r0
     a28:	00000941 	andeq	r0, r0, r1, asr #18
     a2c:	03a4211d 			; <UNDEFINED> instruction: 0x03a4211d
     a30:	211e0000 	tstcs	lr, r0
     a34:	000001e5 	andeq	r0, r0, r5, ror #3
     a38:	01d12120 	bicseq	r2, r1, r0, lsr #2
     a3c:	21210000 			; <UNDEFINED> instruction: 0x21210000
     a40:	0000027c 	andeq	r0, r0, ip, ror r2
     a44:	072d2122 	streq	r2, [sp, -r2, lsr #2]!
     a48:	21230000 			; <UNDEFINED> instruction: 0x21230000
     a4c:	000005ff 	strdeq	r0, [r0], -pc	; <UNPREDICTABLE>
     a50:	09792124 	ldmdbeq	r9!, {r2, r5, r8, sp}^
     a54:	21250000 			; <UNDEFINED> instruction: 0x21250000
     a58:	000002d1 	ldrdeq	r0, [r0], -r1
     a5c:	09be2126 	ldmibeq	lr!, {r1, r2, r5, r8, sp}
     a60:	21270000 			; <UNDEFINED> instruction: 0x21270000
     a64:	0000080e 	andeq	r0, r0, lr, lsl #16
     a68:	03072128 	movweq	r2, #28968	; 0x7128
     a6c:	21290000 			; <UNDEFINED> instruction: 0x21290000
     a70:	000003b5 			; <UNDEFINED> instruction: 0x000003b5
     a74:	06d7212a 	ldrbeq	r2, [r7], sl, lsr #2
     a78:	212b0000 			; <UNDEFINED> instruction: 0x212b0000
     a7c:	000007a9 	andeq	r0, r0, r9, lsr #15
     a80:	07f4212c 	ldrbeq	r2, [r4, ip, lsr #2]!
     a84:	212d0000 			; <UNDEFINED> instruction: 0x212d0000
     a88:	000003bf 			; <UNDEFINED> instruction: 0x000003bf
     a8c:	03cc213a 	biceq	r2, ip, #-2147483634	; 0x8000000e
     a90:	213b0000 	teqcs	fp, r0
     a94:	000007bc 			; <UNDEFINED> instruction: 0x000007bc
     a98:	03e8213c 	mvneq	r2, #60, 2
     a9c:	213d0000 	teqcs	sp, r0
     aa0:	000009ae 	andeq	r0, r0, lr, lsr #19
     aa4:	0995213e 	ldmibeq	r5, {r1, r2, r3, r4, r5, r8, sp}
     aa8:	213f0000 	teqcs	pc, r0
     aac:	00000014 	andeq	r0, r0, r4, lsl r0
     ab0:	09322140 	ldmdbeq	r2!, {r6, r8, sp}
     ab4:	21410000 	mrscs	r0, (UNDEF: 65)
     ab8:	00000915 	andeq	r0, r0, r5, lsl r9
     abc:	056c2142 	strbeq	r2, [ip, #-322]!	; 0xfffffebe
     ac0:	21490000 	mrscs	r0, (UNDEF: 73)
     ac4:	0000023a 	andeq	r0, r0, sl, lsr r2
     ac8:	062c214a 	strteq	r2, [ip], -sl, asr #2
     acc:	214b0000 	mrscs	r0, (UNDEF: 75)
     ad0:	00000608 	andeq	r0, r0, r8, lsl #12
     ad4:	08da214c 	ldmeq	sl, {r2, r3, r6, r8, sp}^
     ad8:	21530000 	cmpcs	r3, r0
     adc:	000004e3 	andeq	r0, r0, r3, ror #9
     ae0:	024b2158 	subeq	r2, fp, #88, 2
     ae4:	21590000 	cmpcs	r9, r0
     ae8:	000009a5 	andeq	r0, r0, r5, lsr #19
     aec:	0881215a 	stmeq	r1, {r1, r3, r4, r6, r8, sp}
     af0:	215b0000 	cmpcs	fp, r0
     af4:	000006e1 	andeq	r0, r0, r1, ror #13
     af8:	0559215c 	ldrbeq	r2, [r9, #-348]	; 0xfffffea4
     afc:	215d0000 	cmpcs	sp, r0
     b00:	000001f6 	strdeq	r0, [r0], -r6
     b04:	090d215e 	stmdbeq	sp, {r1, r2, r3, r4, r6, r8, sp}
     b08:	005f0000 	subseq	r0, pc, r0
     b0c:	a1020c0a 	tstge	r2, sl, lsl #24
     b10:	00000b33 	andeq	r0, r0, r3, lsr fp
     b14:	02007810 	andeq	r7, r0, #16, 16	; 0x100000
     b18:	000025a1 	andeq	r2, r0, r1, lsr #11
     b1c:	79100000 	ldmdbvc	r0, {}	; <UNPREDICTABLE>
     b20:	25a10200 	strcs	r0, [r1, #512]!	; 0x200
     b24:	04000000 	streq	r0, [r0], #-0
     b28:	02007a10 	andeq	r7, r0, #16, 20	; 0x10000
     b2c:	000025a1 	andeq	r2, r0, r1, lsr #11
     b30:	03000800 	movweq	r0, #2048	; 0x800
     b34:	000005be 			; <UNDEFINED> instruction: 0x000005be
     b38:	0b0ca102 	bleq	328f48 <__bss_end__+0x31ef58>
     b3c:	0c0a0000 	stceq	0, cr0, [sl], {-0}
     b40:	0b68a602 	bleq	1a2a350 <__bss_end__+0x1a20360>
     b44:	4c0b0000 	stcmi	0, cr0, [fp], {-0}
     b48:	02000008 	andeq	r0, r0, #8
     b4c:	00005aa7 	andeq	r5, r0, r7, lsr #21
     b50:	68100000 	ldmdavs	r0, {}	; <UNPREDICTABLE>
     b54:	a802007a 	stmdage	r2, {r1, r3, r4, r5, r6}
     b58:	00000037 	andeq	r0, r0, r7, lsr r0
     b5c:	00671004 	rsbeq	r1, r7, r4
     b60:	0037a902 	eorseq	sl, r7, r2, lsl #18
     b64:	00080000 	andeq	r0, r8, r0
     b68:	00034403 	andeq	r4, r3, r3, lsl #8
     b6c:	3eaa0200 	cdpcc	2, 10, cr0, cr10, cr0, {0}
     b70:	2000000b 	andcs	r0, r0, fp
     b74:	00006501 	andeq	r6, r0, r1, lsl #10
     b78:	a41d0100 	ldrge	r0, [sp], #-256	; 0xffffff00
     b7c:	2100000b 	tstcs	r0, fp
     b80:	000006b3 			; <UNDEFINED> instruction: 0x000006b3
     b84:	09e32138 	stmibeq	r3!, {r3, r4, r5, r8, sp}^
     b88:	21010000 	mrscs	r0, (UNDEF: 1)
     b8c:	00000099 	muleq	r0, r9, r0
     b90:	02b12101 	adcseq	r2, r1, #1073741824	; 0x40000000
     b94:	21060000 	mrscs	r0, (UNDEF: 6)
     b98:	0000017d 	andeq	r0, r0, sp, ror r1
     b9c:	09492140 	stmdbeq	r9, {r6, r8, sp}^
     ba0:	00080000 	andeq	r0, r8, r0
     ba4:	00650120 	rsbeq	r0, r5, r0, lsr #2
     ba8:	25010000 	strcs	r0, [r1, #-0]
     bac:	00000bb7 			; <UNDEFINED> instruction: 0x00000bb7
     bb0:	00075c21 	andeq	r5, r7, r1, lsr #24
     bb4:	24006900 	strcs	r6, [r0], #-2304	; 0xfffff700
     bb8:	00000107 	andeq	r0, r0, r7, lsl #2
     bbc:	85b4f001 	ldrhi	pc, [r4, #1]!
     bc0:	00800000 	addeq	r0, r0, r0
     bc4:	9c010000 	stcls	0, cr0, [r1], {-0}
     bc8:	00000cc0 	andeq	r0, r0, r0, asr #25
     bcc:	0004a725 	andeq	sl, r4, r5, lsr #14
     bd0:	5af80100 	bpl	ffe00fd8 <__bss_end__+0xffdf6fe8>
     bd4:	6b000000 	blvs	bdc <_start-0x7424>
     bd8:	01007626 	tsteq	r0, r6, lsr #12
     bdc:	00005af9 	strdeq	r5, [r0], -r9
     be0:	00000000 	andeq	r0, r0, r0
     be4:	04712700 	ldrbteq	r2, [r1], #-1792	; 0xfffff900
     be8:	0cd00000 	ldcleq	0, cr0, [r0], {0}
     bec:	03050000 	movweq	r0, #20480	; 0x5000
     bf0:	000096ac 	andeq	r9, r0, ip, lsr #13
     bf4:	0085c028 	addeq	ip, r5, r8, lsr #32
     bf8:	00177e00 	andseq	r7, r7, r0, lsl #28
     bfc:	85c82900 	strbhi	r2, [r8, #2304]	; 0x900
     c00:	17890000 	strne	r0, [r9, r0]
     c04:	0c110000 	ldceq	0, cr0, [r1], {-0}
     c08:	012a0000 			; <UNDEFINED> instruction: 0x012a0000
     c0c:	64080250 	strvs	r0, [r8], #-592	; 0xfffffdb0
     c10:	85cc2800 	strbhi	r2, [ip, #2048]	; 0x800
     c14:	17940000 	ldrne	r0, [r4, r0]
     c18:	d4290000 	strtle	r0, [r9], #-0
     c1c:	89000085 	stmdbhi	r0, {r0, r2, r7}
     c20:	2e000017 	mcrcs	0, 0, r0, cr0, cr7, {0}
     c24:	2a00000c 	bcs	c5c <_start-0x73a4>
     c28:	08025001 	stmdaeq	r2, {r0, ip, lr}
     c2c:	e0290064 	eor	r0, r9, r4, rrx
     c30:	cc000085 	stcgt	0, cr0, [r0], {133}	; 0x85
     c34:	47000016 	smladmi	r0, r6, r0, r0
     c38:	2a00000c 	bcs	c70 <_start-0x7390>
     c3c:	08025001 	stmdaeq	r2, {r0, ip, lr}
     c40:	51012a6b 	tstpl	r1, fp, ror #20
     c44:	28003f01 	stmdacs	r0, {r0, r8, r9, sl, fp, ip, sp}
     c48:	000085f0 	strdeq	r8, [r0], -r0
     c4c:	0000179f 	muleq	r0, pc, r7	; <UNPREDICTABLE>
     c50:	00861029 	addeq	r1, r6, r9, lsr #32
     c54:	0017aa00 	andseq	sl, r7, r0, lsl #20
     c58:	000c8d00 	andeq	r8, ip, r0, lsl #26
     c5c:	50012a00 	andpl	r2, r1, r0, lsl #20
     c60:	98180305 	ldmdals	r8, {r0, r2, r8, r9}
     c64:	012a0000 			; <UNDEFINED> instruction: 0x012a0000
     c68:	b4030551 	strlt	r0, [r3], #-1361	; 0xfffffaaf
     c6c:	2a000096 	bcs	ecc <_start-0x7134>
     c70:	03055201 	movweq	r5, #20993	; 0x5201
     c74:	000096ac 	andeq	r9, r0, ip, lsr #13
     c78:	0253012a 	subseq	r0, r3, #-2147483638	; 0x8000000a
     c7c:	022afb08 	eoreq	pc, sl, #8, 22	; 0x2000
     c80:	0802007d 	stmdaeq	r2, {r0, r2, r3, r4, r5, r6}
     c84:	7d022a69 	vstrvc	s4, [r2, #-420]	; 0xfffffe5c
     c88:	00740204 	rsbseq	r0, r4, r4, lsl #4
     c8c:	86142800 	ldrhi	r2, [r4], -r0, lsl #16
     c90:	17b50000 	ldrne	r0, [r5, r0]!
     c94:	1c290000 	stcne	0, cr0, [r9], #-0
     c98:	aa000086 	bge	eb8 <_start-0x7148>
     c9c:	ad000017 	stcge	0, cr0, [r0, #-92]	; 0xffffffa4
     ca0:	2a00000c 	bcs	cd8 <_start-0x7328>
     ca4:	03055001 	movweq	r5, #20481	; 0x5001
     ca8:	00009854 	andeq	r9, r0, r4, asr r8
     cac:	86202800 	strthi	r2, [r0], -r0, lsl #16
     cb0:	0cd50000 	ldcleq	0, cr0, [r5], {0}
     cb4:	24280000 	strtcs	r0, [r8], #-0
     cb8:	b5000086 	strlt	r0, [r0, #-134]	; 0xffffff7a
     cbc:	00000017 	andeq	r0, r0, r7, lsl r0
     cc0:	00014008 	andeq	r4, r1, r8
     cc4:	000cd000 	andeq	sp, ip, r0
     cc8:	00f30900 	rscseq	r0, r3, r0, lsl #18
     ccc:	00070000 	andeq	r0, r7, r0
     cd0:	000cc00e 	andeq	ip, ip, lr
     cd4:	019e2400 	orrseq	r2, lr, r0, lsl #8
     cd8:	d5010000 	strle	r0, [r1, #-0]
     cdc:	000084a0 	andeq	r8, r0, r0, lsr #9
     ce0:	00000114 	andeq	r0, r0, r4, lsl r1
     ce4:	0eba9c01 	cdpeq	12, 11, cr9, cr10, cr1, {0}
     ce8:	682b0000 	stmdavs	fp!, {}	; <UNPREDICTABLE>
     cec:	68d70100 	ldmvs	r7, {r8}^
     cf0:	0200000b 	andeq	r0, r0, #11
     cf4:	782c6491 	stmdavc	ip!, {r0, r4, r7, sl, sp, lr}
     cf8:	25d90100 	ldrbcs	r0, [r9, #256]	; 0x100
     cfc:	2c000000 	stccs	0, cr0, [r0], {-0}
     d00:	d9010079 	stmdble	r1, {r0, r3, r4, r5, r6}
     d04:	00000025 	andeq	r0, r0, r5, lsr #32
     d08:	01007a2c 	tsteq	r0, ip, lsr #20
     d0c:	000025d9 	ldrdeq	r2, [r0], -r9
     d10:	85202d00 	strhi	r2, [r0, #-3328]!	; 0xfffff300
     d14:	00780000 	rsbseq	r0, r8, r0
     d18:	0ddf0000 	ldcleq	0, cr0, [pc]	; d20 <_start-0x72e0>
     d1c:	69260000 	stmdbvs	r6!, {}	; <UNPREDICTABLE>
     d20:	25e20100 	strbcs	r0, [r2, #256]!	; 0x100
     d24:	1e000000 	cdpne	0, 0, cr0, cr0, cr0, {0}
     d28:	2e000000 	cdpcs	0, 0, cr0, cr0, cr0, {0}
     d2c:	00008528 	andeq	r8, r0, r8, lsr #10
     d30:	00000064 	andeq	r0, r0, r4, rrx
     d34:	0100762b 	tsteq	r0, fp, lsr #12
     d38:	000b33e3 	andeq	r3, fp, r3, ror #7
     d3c:	58910200 	ldmpl	r1, {r9}
     d40:	00853829 	addeq	r3, r5, r9, lsr #16
     d44:	00112300 	andseq	r2, r1, r0, lsl #6
     d48:	000d5a00 	andeq	r5, sp, r0, lsl #20
     d4c:	50012a00 	andpl	r2, r1, r0, lsl #20
     d50:	2a007402 	bcs	1dd60 <__bss_end__+0x13d70>
     d54:	91025101 	tstls	r2, r1, lsl #2
     d58:	4c29005c 	stcmi	0, cr0, [r9], #-368	; 0xfffffe90
     d5c:	aa000085 	bge	f78 <_start-0x7088>
     d60:	86000017 			; <UNDEFINED> instruction: 0x86000017
     d64:	2a00000d 	bcs	da0 <_start-0x7260>
     d68:	03055001 	movweq	r5, #20481	; 0x5001
     d6c:	000097c8 	andeq	r9, r0, r8, asr #15
     d70:	0351012a 	cmpeq	r1, #-2147483638	; 0x8000000a
     d74:	2a060074 	bcs	180f4c <__bss_end__+0x176f5c>
     d78:	91035201 	tstls	r3, r1, lsl #4
     d7c:	012a0654 			; <UNDEFINED> instruction: 0x012a0654
     d80:	58910353 	ldmpl	r1, {r0, r1, r4, r6, r8, r9}
     d84:	68290006 	stmdavs	r9!, {r1, r2}
     d88:	01000085 	smlabbeq	r0, r5, r0, r0
     d8c:	a0000012 	andge	r0, r0, r2, lsl r0
     d90:	2a00000d 	bcs	dcc <_start-0x7234>
     d94:	75025001 	strvc	r5, [r2, #-1]
     d98:	51012a00 	tstpl	r1, r0, lsl #20
     d9c:	005c9102 	subseq	r9, ip, r2, lsl #2
     da0:	00858429 	addeq	r8, r5, r9, lsr #8
     da4:	0017aa00 	andseq	sl, r7, r0, lsl #20
     da8:	000dcc00 	andeq	ip, sp, r0, lsl #24
     dac:	50012a00 	andpl	r2, r1, r0, lsl #20
     db0:	97ec0305 	strbls	r0, [ip, r5, lsl #6]!
     db4:	012a0000 			; <UNDEFINED> instruction: 0x012a0000
     db8:	00740351 	rsbseq	r0, r4, r1, asr r3
     dbc:	52012a06 	andpl	r2, r1, #24576	; 0x6000
     dc0:	06549103 	ldrbeq	r9, [r4], -r3, lsl #2
     dc4:	0353012a 	cmpeq	r3, #-2147483638	; 0x8000000a
     dc8:	00065891 	muleq	r6, r1, r8
     dcc:	00858c2f 	addeq	r8, r5, pc, lsr #24
     dd0:	00178900 	andseq	r8, r7, r0, lsl #18
     dd4:	50012a00 	andpl	r2, r1, r0, lsl #20
     dd8:	01f40a03 	mvnseq	r0, r3, lsl #20
     ddc:	29000000 	stmdbcs	r0, {}	; <UNPREDICTABLE>
     de0:	000084bc 			; <UNDEFINED> instruction: 0x000084bc
     de4:	00000eba 			; <UNDEFINED> instruction: 0x00000eba
     de8:	00000e05 	andeq	r0, r0, r5, lsl #28
     dec:	0250012a 	subseq	r0, r0, #-2147483638	; 0x8000000a
     df0:	012a5c91 			; <UNDEFINED> instruction: 0x012a5c91
     df4:	6b080251 	blvs	201740 <__bss_end__+0x1f7750>
     df8:	0352012a 	cmpeq	r2, #-2147483638	; 0x8000000a
     dfc:	2a243d40 	bcs	910304 <__bss_end__+0x906314>
     e00:	36015301 	strcc	r5, [r1], -r1, lsl #6
     e04:	84d02900 	ldrbhi	r2, [r0], #2304	; 0x900
     e08:	13000000 	movwne	r0, #0
     e0c:	0e270000 	cdpeq	0, 2, cr0, cr7, cr0, {0}
     e10:	012a0000 			; <UNDEFINED> instruction: 0x012a0000
     e14:	2a300150 	bcs	c0135c <__bss_end__+0xbf736c>
     e18:	30015101 	andcc	r5, r1, r1, lsl #2
     e1c:	0152012a 	cmpeq	r2, sl, lsr #2
     e20:	53012a30 	movwpl	r2, #6704	; 0x1a30
     e24:	29003201 	stmdbcs	r0, {r0, r9, ip, sp}
     e28:	000084e4 	andeq	r8, r0, r4, ror #9
     e2c:	00001300 	andeq	r1, r0, r0, lsl #6
     e30:	00000e4c 	andeq	r0, r0, ip, asr #28
     e34:	0350012a 	cmpeq	r0, #-2147483638	; 0x8000000a
     e38:	2a015e0a 	bcs	58668 <__bss_end__+0x4e678>
     e3c:	46015101 	strmi	r5, [r1], -r1, lsl #2
     e40:	0252012a 	subseq	r0, r2, #-2147483638	; 0x8000000a
     e44:	012a6908 			; <UNDEFINED> instruction: 0x012a6908
     e48:	00320153 	eorseq	r0, r2, r3, asr r1
     e4c:	0084f829 	addeq	pc, r4, r9, lsr #16
     e50:	00130000 	andseq	r0, r3, r0
     e54:	000e7100 	andeq	r7, lr, r0, lsl #2
     e58:	50012a00 	andpl	r2, r1, r0, lsl #20
     e5c:	03e80a03 	mvneq	r0, #12288	; 0x3000
     e60:	0251012a 	subseq	r0, r1, #-2147483638	; 0x8000000a
     e64:	012a4008 			; <UNDEFINED> instruction: 0x012a4008
     e68:	2a390152 	bcs	e413b8 <__bss_end__+0xe373c8>
     e6c:	32015301 	andcc	r5, r1, #67108864	; 0x4000000
     e70:	850c2900 	strhi	r2, [ip, #-2304]	; 0xfffff700
     e74:	13000000 	movwne	r0, #0
     e78:	0e970000 	cdpeq	0, 9, cr0, cr7, cr0, {0}
     e7c:	012a0000 			; <UNDEFINED> instruction: 0x012a0000
     e80:	a20b0350 	andge	r0, fp, #80, 6	; 0x40000001
     e84:	51012afe 	strdpl	r2, [r1, -lr]
     e88:	2ae90902 	bcs	ffa43298 <__bss_end__+0xffa392a8>
     e8c:	09025201 	stmdbeq	r2, {r0, r9, ip, lr}
     e90:	53012a97 	movwpl	r2, #6807	; 0x1a97
     e94:	2f003201 	svccs	0x00003201
     e98:	00008520 	andeq	r8, r0, r0, lsr #10
     e9c:	00001300 	andeq	r1, r0, r0, lsl #6
     ea0:	0350012a 	cmpeq	r0, #-2147483638	; 0x8000000a
     ea4:	2afc180b 	bcs	fff06ed8 <__bss_end__+0xffefcee8>
     ea8:	09025101 	stmdbeq	r2, {r0, r8, ip, lr}
     eac:	52012abf 	andpl	r2, r1, #782336	; 0xbf000
     eb0:	2af70902 	bcs	ffdc32c0 <__bss_end__+0xffdb92d0>
     eb4:	32015301 	andcc	r5, r1, #67108864	; 0x4000000
     eb8:	f4300000 			; <UNDEFINED> instruction: 0xf4300000
     ebc:	01000005 	tsteq	r0, r5
     ec0:	000b68b0 			; <UNDEFINED> instruction: 0x000b68b0
     ec4:	00831000 	addeq	r1, r3, r0
     ec8:	00019000 	andeq	r9, r1, r0
     ecc:	0e9c0100 	fmleqe	f0, f4, f0
     ed0:	31000011 	tstcc	r0, r1, lsl r0
     ed4:	0000084c 	andeq	r0, r0, ip, asr #16
     ed8:	005ab001 	subseq	fp, sl, r1
     edc:	003d0000 	eorseq	r0, sp, r0
     ee0:	67320000 	ldrvs	r0, [r2, -r0]!
     ee4:	2eb00100 	frdcss	f0, f0, f0
     ee8:	5e000009 	cdppl	0, 0, cr0, cr0, cr9, {0}
     eec:	32000000 	andcc	r0, r0, #0
     ef0:	01007a68 	tsteq	r0, r8, ror #20
     ef4:	000988b0 			; <UNDEFINED> instruction: 0x000988b0
     ef8:	00009500 	andeq	r9, r0, r0, lsl #10
     efc:	04712700 	ldrbteq	r2, [r1], #-1792	; 0xfffff900
     f00:	111e0000 	tstne	lr, r0
     f04:	03050000 	movweq	r0, #20480	; 0x5000
     f08:	000096a0 	andeq	r9, r0, r0, lsr #13
     f0c:	00028f33 	andeq	r8, r2, r3, lsr pc
     f10:	37c30100 	strbcc	r0, [r3, r0, lsl #2]
     f14:	b6000000 	strlt	r0, [r0], -r0
     f18:	33000000 	movwcc	r0, #0
     f1c:	000004b6 			; <UNDEFINED> instruction: 0x000004b6
     f20:	0037c401 	eorseq	ip, r7, r1, lsl #8
     f24:	00ef0000 	rsceq	r0, pc, r0
     f28:	68260000 	stmdavs	r6!, {}	; <UNPREDICTABLE>
     f2c:	68c70100 	stmiavs	r7, {r8}^
     f30:	2d00000b 	stccs	0, cr0, [r0, #-44]	; 0xffffffd4
     f34:	34000001 	strcc	r0, [r0], #-1
     f38:	00001764 	andeq	r1, r0, r4, ror #14
     f3c:	00008338 	andeq	r8, r0, r8, lsr r3
     f40:	00000000 	andeq	r0, r0, r0
     f44:	0f54bd01 	svceq	0x0054bd01
     f48:	74350000 	ldrtvc	r0, [r5], #-0
     f4c:	4d000017 	stcmi	0, cr0, [r0, #-92]	; 0xffffffa4
     f50:	00000001 	andeq	r0, r0, r1
     f54:	00832c28 	addeq	r2, r3, r8, lsr #24
     f58:	0017c000 	andseq	ip, r7, r0
     f5c:	83682800 	cmnhi	r8, #0, 16
     f60:	179f0000 	ldrne	r0, [pc, r0]
     f64:	80290000 	eorhi	r0, r9, r0
     f68:	aa000083 	bge	117c <_start-0x6e84>
     f6c:	9c000017 	stcls	0, cr0, [r0], {23}
     f70:	2a00000f 	bcs	fb4 <_start-0x704c>
     f74:	03055001 	movweq	r5, #20481	; 0x5001
     f78:	00009714 	andeq	r9, r0, r4, lsl r7
     f7c:	0551012a 	ldrbeq	r0, [r1, #-298]	; 0xfffffed6
     f80:	0096b403 	addseq	fp, r6, r3, lsl #8
     f84:	52012a00 	andpl	r2, r1, #0, 20
     f88:	96a00305 	strtls	r0, [r0], r5, lsl #6
     f8c:	012a0000 			; <UNDEFINED> instruction: 0x012a0000
     f90:	b9080253 	stmdblt	r8, {r0, r1, r4, r6, r9}
     f94:	007d022a 	rsbseq	r0, sp, sl, lsr #4
     f98:	00007502 	andeq	r7, r0, r2, lsl #10
     f9c:	00838428 	addeq	r8, r3, r8, lsr #8
     fa0:	0017b500 	andseq	fp, r7, r0, lsl #10
     fa4:	83c42900 	bichi	r2, r4, #0, 18
     fa8:	16580000 	ldrbne	r0, [r8], -r0
     fac:	0fc40000 	svceq	0x00c40000
     fb0:	012a0000 			; <UNDEFINED> instruction: 0x012a0000
     fb4:	00760250 	rsbseq	r0, r6, r0, asr r2
     fb8:	0151012a 	cmpeq	r1, sl, lsr #2
     fbc:	52012a48 	andpl	r2, r1, #72, 20	; 0x48000
     fc0:	00380802 	eorseq	r0, r8, r2, lsl #16
     fc4:	0083e429 	addeq	lr, r3, r9, lsr #8
     fc8:	00165800 	andseq	r5, r6, r0, lsl #16
     fcc:	000fec00 	andeq	lr, pc, r0, lsl #24
     fd0:	50012a00 	andpl	r2, r1, r0, lsl #20
     fd4:	2a007602 	bcs	1e7e4 <__bss_end__+0x147f4>
     fd8:	40015101 	andmi	r5, r1, r1, lsl #2
     fdc:	0b52012a 	bleq	148148c <__bss_end__+0x147749c>
     fe0:	34060477 	strcc	r0, [r6], #-1143	; 0xfffffb89
     fe4:	1aff0824 	bne	fffc307c <__bss_end__+0xfffb908c>
     fe8:	00210074 	eoreq	r0, r1, r4, ror r0
     fec:	0083f429 	addeq	pc, r3, r9, lsr #8
     ff0:	00165800 	andseq	r5, r6, r0, lsl #16
     ff4:	00100b00 	andseq	r0, r0, r0, lsl #22
     ff8:	50012a00 	andpl	r2, r1, r0, lsl #20
     ffc:	2a007602 	bcs	1e80c <__bss_end__+0x1481c>
    1000:	42015101 	andmi	r5, r1, #1073741824	; 0x40000000
    1004:	0252012a 	subseq	r0, r2, #-2147483638	; 0x8000000a
    1008:	29004008 	stmdbcs	r0, {r3, lr}
    100c:	00008404 	andeq	r8, r0, r4, lsl #8
    1010:	00001658 	andeq	r1, r0, r8, asr r6
    1014:	00001029 	andeq	r1, r0, r9, lsr #32
    1018:	0250012a 	subseq	r0, r0, #-2147483638	; 0x8000000a
    101c:	012a0076 			; <UNDEFINED> instruction: 0x012a0076
    1020:	2a430151 	bcs	10c156c <__bss_end__+0x10b757c>
    1024:	38015201 	stmdacc	r1, {r0, r9, ip, lr}
    1028:	840c2900 	strhi	r2, [ip], #-2304	; 0xfffff700
    102c:	17890000 	strne	r0, [r9, r0]
    1030:	103c0000 	eorsne	r0, ip, r0
    1034:	012a0000 			; <UNDEFINED> instruction: 0x012a0000
    1038:	00440150 	subeq	r0, r4, r0, asr r1
    103c:	00842428 	addeq	r2, r4, r8, lsr #8
    1040:	00179f00 	andseq	r9, r7, r0, lsl #30
    1044:	843c2900 	ldrthi	r2, [ip], #-2304	; 0xfffff700
    1048:	17aa0000 	strne	r0, [sl, r0]!
    104c:	107b0000 	rsbsne	r0, fp, r0
    1050:	012a0000 			; <UNDEFINED> instruction: 0x012a0000
    1054:	58030550 	stmdapl	r3, {r4, r6, r8, sl}
    1058:	2a000097 	bcs	12bc <_start-0x6d44>
    105c:	03055101 	movweq	r5, #20737	; 0x5101
    1060:	000096b4 			; <UNDEFINED> instruction: 0x000096b4
    1064:	0552012a 	ldrbeq	r0, [r2, #-298]	; 0xfffffed6
    1068:	0096a003 	addseq	sl, r6, r3
    106c:	53012a00 	movwpl	r2, #6656	; 0x1a00
    1070:	2abe0802 	bcs	fef83080 <__bss_end__+0xfef79090>
    1074:	02007d02 	andeq	r7, r0, #2, 26	; 0x80
    1078:	28000074 	stmdacs	r0, {r2, r4, r5, r6}
    107c:	00008440 	andeq	r8, r0, r0, asr #8
    1080:	000017b5 			; <UNDEFINED> instruction: 0x000017b5
    1084:	00844428 	addeq	r4, r4, r8, lsr #8
    1088:	00179f00 	andseq	r9, r7, r0, lsl #30
    108c:	845c2900 	ldrbhi	r2, [ip], #-2304	; 0xfffff700
    1090:	17aa0000 	strne	r0, [sl, r0]!
    1094:	10c30000 	sbcne	r0, r3, r0
    1098:	012a0000 			; <UNDEFINED> instruction: 0x012a0000
    109c:	80030550 	andhi	r0, r3, r0, asr r5
    10a0:	2a000097 	bcs	1304 <_start-0x6cfc>
    10a4:	03055101 	movweq	r5, #20737	; 0x5101
    10a8:	000096b4 			; <UNDEFINED> instruction: 0x000096b4
    10ac:	0552012a 	ldrbeq	r0, [r2, #-298]	; 0xfffffed6
    10b0:	0096a003 	addseq	sl, r6, r3
    10b4:	53012a00 	movwpl	r2, #6656	; 0x1a00
    10b8:	2ac00802 	bcs	ff0030c8 <__bss_end__+0xfeff90d8>
    10bc:	02007d02 	andeq	r7, r0, #2, 26	; 0x80
    10c0:	28000075 	stmdacs	r0, {r0, r2, r4, r5, r6}
    10c4:	00008460 	andeq	r8, r0, r0, ror #8
    10c8:	000017b5 			; <UNDEFINED> instruction: 0x000017b5
    10cc:	00846428 	addeq	r6, r4, r8, lsr #8
    10d0:	00179f00 	andseq	r9, r7, r0, lsl #30
    10d4:	84782900 	ldrbthi	r2, [r8], #-2304	; 0xfffff700
    10d8:	17aa0000 	strne	r0, [sl, r0]!
    10dc:	11040000 	mrsne	r0, (UNDEF: 4)
    10e0:	012a0000 			; <UNDEFINED> instruction: 0x012a0000
    10e4:	a0030550 	andge	r0, r3, r0, asr r5
    10e8:	2a000097 	bcs	134c <_start-0x6cb4>
    10ec:	03055101 	movweq	r5, #20737	; 0x5101
    10f0:	000096b4 			; <UNDEFINED> instruction: 0x000096b4
    10f4:	0552012a 	ldrbeq	r0, [r2, #-298]	; 0xfffffed6
    10f8:	0096a003 	addseq	sl, r6, r3
    10fc:	53012a00 	movwpl	r2, #6656	; 0x1a00
    1100:	00c50802 	sbceq	r0, r5, r2, lsl #16
    1104:	00847c28 	addeq	r7, r4, r8, lsr #24
    1108:	0017b500 	andseq	fp, r7, r0, lsl #10
    110c:	40080000 	andmi	r0, r8, r0
    1110:	1e000001 	cdpne	0, 0, cr0, cr0, cr1, {0}
    1114:	09000011 	stmdbeq	r0, {r0, r4}
    1118:	000000f3 	strdeq	r0, [r0], -r3
    111c:	0e0e000a 	cdpeq	0, 0, cr0, cr14, cr10, {0}
    1120:	30000011 	andcc	r0, r0, r1, lsl r0
    1124:	000008b3 			; <UNDEFINED> instruction: 0x000008b3
    1128:	0b339701 	bleq	ce6d34 <__bss_end__+0xcdcd44>
    112c:	82980000 	addshi	r0, r8, #0
    1130:	00780000 	rsbseq	r0, r8, r0
    1134:	9c010000 	stcls	0, cr0, [r1], {-0}
    1138:	000011a6 	andeq	r1, r0, r6, lsr #3
    113c:	01006832 	tsteq	r0, r2, lsr r8
    1140:	0011a697 	mulseq	r1, r7, r6
    1144:	00017600 	andeq	r7, r1, r0, lsl #12
    1148:	75622b00 	strbvc	r2, [r2, #-2816]!	; 0xfffff500
    114c:	a0010066 	andge	r0, r1, r6, rrx
    1150:	000011ac 	andeq	r1, r0, ip, lsr #3
    1154:	29689102 	stmdbcs	r8!, {r1, r8, ip, pc}^
    1158:	000082b0 			; <UNDEFINED> instruction: 0x000082b0
    115c:	000011bc 			; <UNDEFINED> instruction: 0x000011bc
    1160:	0000116b 	andeq	r1, r0, fp, ror #2
    1164:	0250012a 	subseq	r0, r0, #-2147483638	; 0x8000000a
    1168:	29000074 	stmdbcs	r0, {r2, r4, r5, r6}
    116c:	000082cc 	andeq	r8, r0, ip, asr #5
    1170:	000015ae 	andeq	r1, r0, lr, lsr #11
    1174:	0000118a 	andeq	r1, r0, sl, lsl #3
    1178:	0251012a 	subseq	r0, r1, #-2147483638	; 0x8000000a
    117c:	012a2808 			; <UNDEFINED> instruction: 0x012a2808
    1180:	007d0252 	rsbseq	r0, sp, r2, asr r2
    1184:	0153012a 	cmpeq	r3, sl, lsr #2
    1188:	d8280036 	stmdale	r8!, {r1, r2, r4, r5}
    118c:	17000082 	strne	r0, [r0, -r2, lsl #1]
    1190:	28000015 	stmdacs	r0, {r0, r2, r4}
    1194:	000082e8 	andeq	r8, r0, r8, ror #5
    1198:	00001517 	andeq	r1, r0, r7, lsl r5
    119c:	0082f828 	addeq	pc, r2, r8, lsr #16
    11a0:	00151700 	andseq	r1, r5, r0, lsl #14
    11a4:	040d0000 	streq	r0, [sp], #-0
    11a8:	00000b68 	andeq	r0, r0, r8, ror #22
    11ac:	00005a08 	andeq	r5, r0, r8, lsl #20
    11b0:	0011bc00 	andseq	fp, r1, r0, lsl #24
    11b4:	00f30900 	rscseq	r0, r3, r0, lsl #18
    11b8:	00050000 	andeq	r0, r5, r0
    11bc:	00064330 	andeq	r4, r6, r0, lsr r3
    11c0:	25890100 	strcs	r0, [r9, #256]	; 0x100
    11c4:	80000000 	andhi	r0, r0, r0
    11c8:	18000082 	stmdane	r0, {r1, r7}
    11cc:	01000000 	mrseq	r0, (UNDEF: 0)
    11d0:	0012019c 	mulseq	r2, ip, r1
    11d4:	00683200 	rsbeq	r3, r8, r0, lsl #4
    11d8:	11a68901 			; <UNDEFINED> instruction: 0x11a68901
    11dc:	01a20000 			; <UNDEFINED> instruction: 0x01a20000
    11e0:	e3330000 	teq	r3, #0
    11e4:	0100000a 	tsteq	r0, sl
    11e8:	00005a8a 	andeq	r5, r0, sl, lsl #21
    11ec:	0001c300 	andeq	ip, r1, r0, lsl #6
    11f0:	82902f00 	addshi	r2, r0, #0, 30
    11f4:	16cc0000 	strbne	r0, [ip], r0
    11f8:	012a0000 			; <UNDEFINED> instruction: 0x012a0000
    11fc:	004e0151 	subeq	r0, lr, r1, asr r1
    1200:	04bd3000 	ldrteq	r3, [sp], #0
    1204:	80010000 	andhi	r0, r1, r0
    1208:	00000b33 	andeq	r0, r0, r3, lsr fp
    120c:	00008218 	andeq	r8, r0, r8, lsl r2
    1210:	00000068 	andeq	r0, r0, r8, rrx
    1214:	12c59c01 	sbcne	r9, r5, #256	; 0x100
    1218:	68320000 	ldmdavs	r2!, {}	; <UNPREDICTABLE>
    121c:	a6800100 	strge	r0, [r0], r0, lsl #2
    1220:	d6000011 			; <UNDEFINED> instruction: 0xd6000011
    1224:	36000001 	strcc	r0, [r0], -r1
    1228:	007a7978 	rsbseq	r7, sl, r8, ror r9
    122c:	0b338001 	bleq	ce1238 <__bss_end__+0xcd7248>
    1230:	91020000 	mrsls	r0, (UNDEF: 2)
    1234:	00672678 	rsbeq	r2, r7, r8, ror r6
    1238:	00258101 	eoreq	r8, r5, r1, lsl #2
    123c:	02020000 	andeq	r0, r2, #0
    1240:	78260000 	stmdavc	r6!, {}	; <UNPREDICTABLE>
    1244:	25820100 	strcs	r0, [r2, #256]	; 0x100
    1248:	16000000 	strne	r0, [r0], -r0
    124c:	26000002 	strcs	r0, [r0], -r2
    1250:	83010079 	movwhi	r0, #4217	; 0x1079
    1254:	00000025 	andeq	r0, r0, r5, lsr #32
    1258:	00000234 	andeq	r0, r0, r4, lsr r2
    125c:	01007a26 	tsteq	r0, r6, lsr #20
    1260:	00002584 	andeq	r2, r0, r4, lsl #11
    1264:	00025200 	andeq	r5, r2, r0, lsl #4
    1268:	823c2900 	eorshi	r2, ip, #0, 18
    126c:	13eb0000 	mvnne	r0, #0
    1270:	127e0000 	rsbsne	r0, lr, #0
    1274:	012a0000 			; <UNDEFINED> instruction: 0x012a0000
    1278:	60910350 	addsvs	r0, r1, r0, asr r3
    127c:	4c290006 	stcmi	0, cr0, [r9], #-24	; 0xffffffe8
    1280:	eb000082 	bl	1490 <_start-0x6b70>
    1284:	93000013 	movwls	r0, #19
    1288:	2a000012 	bcs	12d8 <_start-0x6d28>
    128c:	91035001 	tstls	r3, r1
    1290:	29000664 	stmdbcs	r0, {r2, r5, r6, r9, sl}
    1294:	0000825c 	andeq	r8, r0, ip, asr r2
    1298:	000013eb 	andeq	r1, r0, fp, ror #7
    129c:	000012a8 	andeq	r1, r0, r8, lsr #5
    12a0:	0350012a 	cmpeq	r0, #-2147483638	; 0x8000000a
    12a4:	00066891 	muleq	r6, r1, r8
    12a8:	0082702f 	addeq	r7, r2, pc, lsr #32
    12ac:	0012c500 	andseq	ip, r2, r0, lsl #10
    12b0:	50012a00 	andpl	r2, r1, r0, lsl #20
    12b4:	2a007502 	bcs	1e6c4 <__bss_end__+0x146d4>
    12b8:	76025101 	strvc	r5, [r2], -r1, lsl #2
    12bc:	52012a00 	andpl	r2, r1, #0, 20
    12c0:	00007702 	andeq	r7, r0, r2, lsl #14
    12c4:	026c3700 	rsbeq	r3, ip, #0, 14
    12c8:	7b010000 	blvc	412d0 <__bss_end__+0x372e0>
    12cc:	00000b33 	andeq	r0, r0, r3, lsr fp
    12d0:	00008060 	andeq	r8, r0, r0, rrx
    12d4:	00000010 	andeq	r0, r0, r0, lsl r0
    12d8:	13009c01 	movwne	r9, #3073	; 0xc01
    12dc:	78360000 	ldmdavc	r6!, {}	; <UNPREDICTABLE>
    12e0:	257b0100 	ldrbcs	r0, [fp, #-256]!	; 0xffffff00
    12e4:	01000000 	mrseq	r0, (UNDEF: 0)
    12e8:	00793651 	rsbseq	r3, r9, r1, asr r6
    12ec:	00257b01 	eoreq	r7, r5, r1, lsl #22
    12f0:	52010000 	andpl	r0, r1, #0
    12f4:	01007a36 	tsteq	r0, r6, lsr sl
    12f8:	0000257b 	andeq	r2, r0, fp, ror r5
    12fc:	00530100 	subseq	r0, r3, r0, lsl #2
    1300:	00051738 	andeq	r1, r5, r8, lsr r7
    1304:	f0750100 			; <UNDEFINED> instruction: 0xf0750100
    1308:	68000080 	stmdavs	r0, {r7}
    130c:	01000000 	mrseq	r0, (UNDEF: 0)
    1310:	0013eb9c 	mulseq	r3, ip, fp
    1314:	04043100 	streq	r3, [r4], #-256	; 0xffffff00
    1318:	75010000 	strvc	r0, [r1, #-0]
    131c:	00000025 	andeq	r0, r0, r5, lsr #32
    1320:	00000270 	andeq	r0, r0, r0, ror r2
    1324:	01006832 	tsteq	r0, r2, lsr r8
    1328:	00005a75 	andeq	r5, r0, r5, ror sl
    132c:	00028e00 	andeq	r8, r2, r0, lsl #28
    1330:	006c3200 	rsbeq	r3, ip, r0, lsl #4
    1334:	005a7501 	subseq	r7, sl, r1, lsl #10
    1338:	02af0000 	adceq	r0, pc, #0
    133c:	67320000 	ldrvs	r0, [r2, -r0]!
    1340:	37750100 	ldrbcc	r0, [r5, -r0, lsl #2]!
    1344:	d0000000 	andle	r0, r0, r0
    1348:	26000002 	strcs	r0, [r0], -r2
    134c:	00695f73 	rsbeq	r5, r9, r3, ror pc
    1350:	00257601 	eoreq	r7, r5, r1, lsl #12
    1354:	02fc0000 	rscseq	r0, ip, #0
    1358:	71270000 			; <UNDEFINED> instruction: 0x71270000
    135c:	d0000004 	andle	r0, r0, r4
    1360:	0500000c 	streq	r0, [r0, #-12]
    1364:	00969803 	addseq	r9, r6, r3, lsl #16
    1368:	81082800 	tsthi	r8, r0, lsl #16
    136c:	15170000 	ldrne	r0, [r7, #-0]
    1370:	10290000 	eorne	r0, r9, r0
    1374:	eb000081 	bl	1580 <_start-0x6a80>
    1378:	86000013 			; <UNDEFINED> instruction: 0x86000013
    137c:	2a000013 	bcs	13d0 <_start-0x6c30>
    1380:	75025101 	strvc	r5, [r2, #-257]	; 0xfffffeff
    1384:	24290000 	strtcs	r0, [r9], #-0
    1388:	aa000081 	bge	1594 <_start-0x6a6c>
    138c:	a9000017 	stmdbge	r0, {r0, r1, r2, r4}
    1390:	2a000013 	bcs	13e4 <_start-0x6c1c>
    1394:	03055001 	movweq	r5, #20481	; 0x5001
    1398:	000096dc 	ldrdeq	r9, [r0], -ip
    139c:	0251012a 	subseq	r0, r1, #-2147483638	; 0x8000000a
    13a0:	012a0074 			; <UNDEFINED> instruction: 0x012a0074
    13a4:	00750252 	rsbseq	r0, r5, r2, asr r2
    13a8:	81302800 	teqhi	r0, r0, lsl #16
    13ac:	179f0000 	ldrne	r0, [pc, r0]
    13b0:	44290000 	strtmi	r0, [r9], #-0
    13b4:	aa000081 	bge	15c0 <_start-0x6a40>
    13b8:	e1000017 	tst	r0, r7, lsl r0
    13bc:	2a000013 	bcs	1410 <_start-0x6bf0>
    13c0:	03055001 	movweq	r5, #20481	; 0x5001
    13c4:	000096f4 	strdeq	r9, [r0], -r4
    13c8:	0551012a 	ldrbeq	r0, [r1, #-298]	; 0xfffffed6
    13cc:	0096b403 	addseq	fp, r6, r3, lsl #8
    13d0:	52012a00 	andpl	r2, r1, #0, 20
    13d4:	96980305 	ldrls	r0, [r8], r5, lsl #6
    13d8:	012a0000 			; <UNDEFINED> instruction: 0x012a0000
    13dc:	78080253 	stmdavc	r8, {r0, r1, r4, r6, r9}
    13e0:	81482800 	cmphi	r8, r0, lsl #16
    13e4:	17b50000 	ldrne	r0, [r5, r0]!
    13e8:	37000000 	strcc	r0, [r0, -r0]
    13ec:	000000fd 	strdeq	r0, [r0], -sp
    13f0:	00256801 	eoreq	r6, r5, r1, lsl #16
    13f4:	80700000 	rsbshi	r0, r0, r0
    13f8:	00800000 	addeq	r0, r0, r0
    13fc:	9c010000 	stcls	0, cr0, [r1], {-0}
    1400:	00001502 	andeq	r1, r0, r2, lsl #10
    1404:	01007632 	tsteq	r0, r2, lsr r6
    1408:	00002568 	andeq	r2, r0, r8, ror #10
    140c:	00032500 	andeq	r2, r3, r0, lsl #10
    1410:	028e3100 	addeq	r3, lr, #0, 2
    1414:	68010000 	stmdavs	r1, {}	; <UNPREDICTABLE>
    1418:	00000025 	andeq	r0, r0, r5, lsr #32
    141c:	00000378 	andeq	r0, r0, r8, ror r3
    1420:	00047127 	andeq	r7, r4, r7, lsr #2
    1424:	00151200 	andseq	r1, r5, r0, lsl #4
    1428:	8c030500 	cfstr32hi	mvfx0, [r3], {-0}
    142c:	2d000096 	stccs	0, cr0, [r0, #-600]	; 0xfffffda8
    1430:	00008088 	andeq	r8, r0, r8, lsl #1
    1434:	0000001c 	andeq	r0, r0, ip, lsl r0
    1438:	0000147b 	andeq	r1, r0, fp, ror r4
    143c:	00656426 	rsbeq	r6, r5, r6, lsr #8
    1440:	00256b01 	eoreq	r6, r5, r1, lsl #22
    1444:	03cb0000 	biceq	r0, fp, #0
    1448:	90290000 	eorls	r0, r9, r0
    144c:	5a000080 	bpl	1654 <_start-0x69ac>
    1450:	66000015 			; <UNDEFINED> instruction: 0x66000015
    1454:	2a000014 	bcs	14ac <_start-0x6b54>
    1458:	0a035001 	beq	d5464 <__bss_end__+0xcb474>
    145c:	012a8000 			; <UNDEFINED> instruction: 0x012a8000
    1460:	01f30351 	mvnseq	r0, r1, asr r3
    1464:	a02f0051 	eorge	r0, pc, r1, asr r0	; <UNPREDICTABLE>
    1468:	5a000080 	bpl	1670 <_start-0x6990>
    146c:	2a000015 	bcs	14c8 <_start-0x6b38>
    1470:	74065001 	strvc	r5, [r6], #-1
    1474:	03e80a00 	mvneq	r0, #0, 20
    1478:	2d00001e 	stccs	0, cr0, [r0, #-120]	; 0xffffff88
    147c:	000080c0 	andeq	r8, r0, r0, asr #1
    1480:	0000001c 	andeq	r0, r0, ip, lsl r0
    1484:	000014c0 	andeq	r1, r0, r0, asr #9
    1488:	00656426 	rsbeq	r6, r5, r6, lsr #8
    148c:	00256f01 	eoreq	r6, r5, r1, lsl #30
    1490:	03e90000 	mvneq	r0, #0
    1494:	c8290000 	stmdagt	r9!, {}	; <UNPREDICTABLE>
    1498:	5a000080 	bpl	16a0 <_start-0x6960>
    149c:	ab000015 	blge	14f8 <_start-0x6b08>
    14a0:	2a000014 	bcs	14f8 <_start-0x6b08>
    14a4:	0a035001 	beq	d54b0 <__bss_end__+0xcb4c0>
    14a8:	2f008000 	svccs	0x00008000
    14ac:	000080d8 	ldrdeq	r8, [r0], -r8	; <UNPREDICTABLE>
    14b0:	0000155a 	andeq	r1, r0, sl, asr r5
    14b4:	0650012a 	ldrbeq	r0, [r0], -sl, lsr #2
    14b8:	180b0074 	stmdane	fp, {r2, r4, r5, r6}
    14bc:	00001efc 	strdeq	r1, [r0], -ip
    14c0:	0080a828 	addeq	sl, r0, r8, lsr #16
    14c4:	00179f00 	andseq	r9, r7, r0, lsl #30
    14c8:	80bc2900 	adcshi	r2, ip, r0, lsl #18
    14cc:	17aa0000 	strne	r0, [sl, r0]!
    14d0:	14f80000 	ldrbtne	r0, [r8], #0
    14d4:	012a0000 			; <UNDEFINED> instruction: 0x012a0000
    14d8:	bc030550 	cfstr32lt	mvfx0, [r3], {80}	; 0x50
    14dc:	2a000096 	bcs	173c <_start-0x68c4>
    14e0:	03055101 	movweq	r5, #20737	; 0x5101
    14e4:	000096b4 			; <UNDEFINED> instruction: 0x000096b4
    14e8:	0552012a 	ldrbeq	r0, [r2, #-298]	; 0xfffffed6
    14ec:	00968c03 	addseq	r8, r6, r3, lsl #24
    14f0:	53012a00 	movwpl	r2, #6656	; 0x1a00
    14f4:	00690802 	rsbeq	r0, r9, r2, lsl #16
    14f8:	0080c028 	addeq	ip, r0, r8, lsr #32
    14fc:	0017b500 	andseq	fp, r7, r0, lsl #10
    1500:	40080000 	andmi	r0, r8, r0
    1504:	12000001 	andne	r0, r0, #1
    1508:	09000015 	stmdbeq	r0, {r0, r2, r4}
    150c:	000000f3 	strdeq	r0, [r0], -r3
    1510:	020e0009 	andeq	r0, lr, #9
    1514:	37000015 	smladcc	r0, r5, r0, r0
    1518:	00000197 	muleq	r0, r7, r1
    151c:	00456101 	subeq	r6, r5, r1, lsl #2
    1520:	80540000 	subshi	r0, r4, r0
    1524:	000c0000 	andeq	r0, ip, r0
    1528:	9c010000 	stcls	0, cr0, [r1], {-0}
    152c:	0000155a 	andeq	r1, r0, sl, asr r5
    1530:	00696832 	rsbeq	r6, r9, r2, lsr r8
    1534:	005a6101 	subseq	r6, sl, r1, lsl #2
    1538:	04070000 	streq	r0, [r7], #-0
    153c:	6c360000 	ldcvs	0, cr0, [r6], #-0
    1540:	6101006f 	tstvs	r1, pc, rrx
    1544:	0000005a 	andeq	r0, r0, sl, asr r0
    1548:	72265101 	eorvc	r5, r6, #1073741824	; 0x40000000
    154c:	01007365 	tsteq	r0, r5, ror #6
    1550:	00006c62 	andeq	r6, r0, r2, ror #24
    1554:	00042800 	andeq	r2, r4, r0, lsl #16
    1558:	17370000 	ldrne	r0, [r7, -r0]!
    155c:	01000006 	tsteq	r0, r6
    1560:	00002547 	andeq	r2, r0, r7, asr #10
    1564:	00801000 	addeq	r1, r0, r0
    1568:	00004400 	andeq	r4, r0, r0, lsl #8
    156c:	ae9c0100 	fmlgee	f0, f4, f0
    1570:	32000015 	andcc	r0, r0, #21
    1574:	0100756e 	tsteq	r0, lr, ror #10
    1578:	00002547 	andeq	r2, r0, r7, asr #10
    157c:	00044a00 	andeq	r4, r4, r0, lsl #20
    1580:	65643200 	strbvs	r3, [r4, #-512]!	; 0xfffffe00
    1584:	25470100 	strbcs	r0, [r7, #-256]	; 0xffffff00
    1588:	68000000 	stmdavs	r0, {}	; <UNPREDICTABLE>
    158c:	33000004 	movwcc	r0, #4
    1590:	0000010f 	andeq	r0, r0, pc, lsl #2
    1594:	00254901 	eoreq	r4, r5, r1, lsl #18
    1598:	04860000 	streq	r0, [r6], #0
    159c:	f4330000 			; <UNDEFINED> instruction: 0xf4330000
    15a0:	01000009 	tsteq	r0, r9
    15a4:	0000254a 	andeq	r2, r0, sl, asr #10
    15a8:	0004a500 	andeq	sl, r4, r0, lsl #10
    15ac:	57300000 	ldrpl	r0, [r0, -r0]!
    15b0:	01000001 	tsteq	r0, r1
    15b4:	0000253a 	andeq	r2, r0, sl, lsr r5
    15b8:	0081b800 	addeq	fp, r1, r0, lsl #16
    15bc:	00006000 	andeq	r6, r0, r0
    15c0:	529c0100 	addspl	r0, ip, #0, 2
    15c4:	31000016 	tstcc	r0, r6, lsl r0
    15c8:	0000084c 	andeq	r0, r0, ip, asr #16
    15cc:	005a3a01 	subseq	r3, sl, r1, lsl #20
    15d0:	04c40000 	strbeq	r0, [r4], #0
    15d4:	bc310000 	ldclt	0, cr0, [r1], #-0
    15d8:	01000008 	tsteq	r0, r8
    15dc:	00005a3a 	andeq	r5, r0, sl, lsr sl
    15e0:	0004e500 	andeq	lr, r4, r0, lsl #10
    15e4:	00763200 	rsbseq	r3, r6, r0, lsl #4
    15e8:	16523a01 	ldrbne	r3, [r2], -r1, lsl #20
    15ec:	05040000 	streq	r0, [r4, #-0]
    15f0:	6e320000 	cdpvs	0, 3, cr0, cr2, cr0, {0}
    15f4:	7e3a0100 	rsfvce	f0, f2, f0
    15f8:	22000000 	andcs	r0, r0, #0
    15fc:	25000005 	strcs	r0, [r0, #-5]
    1600:	000008ae 	andeq	r0, r0, lr, lsr #17
    1604:	00253c01 	eoreq	r3, r5, r1, lsl #24
    1608:	2d000000 	stccs	0, cr0, [r0, #-0]
    160c:	000081e0 	andeq	r8, r0, r0, ror #3
    1610:	0000002c 	andeq	r0, r0, ip, lsr #32
    1614:	00001636 	andeq	r1, r0, r6, lsr r6
    1618:	01006926 	tsteq	r0, r6, lsr #18
    161c:	00002c3d 	andeq	r2, r0, sp, lsr ip
    1620:	00054000 	andeq	r4, r5, r0
    1624:	81fc2f00 	mvnshi	r2, r0, lsl #30
    1628:	16cc0000 	strbne	r0, [ip], r0
    162c:	012a0000 			; <UNDEFINED> instruction: 0x012a0000
    1630:	00770250 	rsbseq	r0, r7, r0, asr r2
    1634:	e02f0000 	eor	r0, pc, r0
    1638:	cb000081 	blgt	1844 <_start-0x67bc>
    163c:	2a000017 	bcs	16a0 <_start-0x6960>
    1640:	77025001 	strvc	r5, [r2, -r1]
    1644:	51012a00 	tstpl	r1, r0, lsl #20
    1648:	2a5f9102 	bcs	17e5a58 <__bss_end__+0x17dba68>
    164c:	31015201 	tstcc	r1, r1, lsl #4
    1650:	040d0000 	streq	r0, [sp], #-0
    1654:	0000005a 	andeq	r0, r0, sl, asr r0
    1658:	00077e24 	andeq	r7, r7, r4, lsr #28
    165c:	94310100 	ldrtls	r0, [r1], #-256	; 0xffffff00
    1660:	24000081 	strcs	r0, [r0], #-129	; 0xffffff7f
    1664:	01000000 	mrseq	r0, (UNDEF: 0)
    1668:	0016bc9c 	mulseq	r6, ip, ip
    166c:	084c3100 	stmdaeq	ip, {r8, ip, sp}^
    1670:	31010000 	mrscc	r0, (UNDEF: 1)
    1674:	0000005a 	andeq	r0, r0, sl, asr r0
    1678:	0000055f 	andeq	r0, r0, pc, asr r5
    167c:	67657232 			; <UNDEFINED> instruction: 0x67657232
    1680:	5a310100 	bpl	c41a88 <__bss_end__+0xc37a98>
    1684:	80000000 	andhi	r0, r0, r0
    1688:	32000005 	andcc	r0, r0, #5
    168c:	31010076 	tstcc	r1, r6, ror r0
    1690:	0000005a 	andeq	r0, r0, sl, asr r0
    1694:	000005ad 	andeq	r0, r0, sp, lsr #11
    1698:	00064d39 	andeq	r4, r6, r9, lsr sp
    169c:	bc320100 	ldflts	f0, [r2], #-0
    16a0:	02000016 	andeq	r0, r0, #22
    16a4:	b02f7491 	mlalt	pc, r1, r4, r7	; <UNPREDICTABLE>
    16a8:	cb000081 	blgt	18b4 <_start-0x674c>
    16ac:	2a000017 	bcs	1710 <_start-0x68f0>
    16b0:	91025101 	tstls	r2, r1, lsl #2
    16b4:	52012a6c 	andpl	r2, r1, #108, 20	; 0x6c000
    16b8:	00003201 	andeq	r3, r0, r1, lsl #4
    16bc:	00005a08 	andeq	r5, r0, r8, lsl #20
    16c0:	0016cc00 	andseq	ip, r6, r0, lsl #24
    16c4:	00f30900 	rscseq	r0, r3, r0, lsl #18
    16c8:	00010000 	andeq	r0, r1, r0
    16cc:	00051f30 	andeq	r1, r5, r0, lsr pc
    16d0:	5a280100 	bpl	a01ad8 <__bss_end__+0x9f7ae8>
    16d4:	58000000 	stmdapl	r0, {}	; <UNPREDICTABLE>
    16d8:	3c000081 	stccc	0, cr0, [r0], {129}	; 0x81
    16dc:	01000000 	mrseq	r0, (UNDEF: 0)
    16e0:	00174a9c 	mulseq	r7, ip, sl
    16e4:	084c3100 	stmdaeq	ip, {r8, ip, sp}^
    16e8:	28010000 	stmdacs	r1, {}	; <UNPREDICTABLE>
    16ec:	0000005a 	andeq	r0, r0, sl, asr r0
    16f0:	000005da 	ldrdeq	r0, [r0], -sl
    16f4:	67657232 			; <UNDEFINED> instruction: 0x67657232
    16f8:	5a280100 	bpl	a01b00 <__bss_end__+0x9f7b10>
    16fc:	fb000000 	blx	1706 <_start-0x68fa>
    1700:	2b000005 	blcs	171c <_start-0x68e4>
    1704:	2b010076 	blcs	418e4 <__bss_end__+0x378f4>
    1708:	0000005a 	andeq	r0, r0, sl, asr r0
    170c:	29779102 	ldmdbcs	r7!, {r1, r8, ip, pc}^
    1710:	00008178 	andeq	r8, r0, r8, ror r1
    1714:	000017cb 	andeq	r1, r0, fp, asr #15
    1718:	0000172e 	andeq	r1, r0, lr, lsr #14
    171c:	0250012a 	subseq	r0, r0, #-2147483638	; 0x8000000a
    1720:	012a0074 			; <UNDEFINED> instruction: 0x012a0074
    1724:	67910251 			; <UNDEFINED> instruction: 0x67910251
    1728:	0152012a 	cmpeq	r2, sl, lsr #2
    172c:	882f0031 	stmdahi	pc!, {r0, r4, r5}	; <UNPREDICTABLE>
    1730:	d6000081 	strle	r0, [r0], -r1, lsl #1
    1734:	2a000017 	bcs	1798 <_start-0x6868>
    1738:	74025001 	strvc	r5, [r2], #-1
    173c:	51012a00 	tstpl	r1, r0, lsl #20
    1740:	2a6f9102 	bcs	1be5b50 <__bss_end__+0x1bdbb60>
    1744:	31015201 	tstcc	r1, r1, lsl #4
    1748:	b03a0000 	eorslt	r0, sl, r0
    174c:	02000004 	andeq	r0, r0, #4
    1750:	0000251a 	andeq	r2, r0, sl, lsl r5
    1754:	17640300 	strbne	r0, [r4, -r0, lsl #6]!
    1758:	623b0000 	eorsvs	r0, fp, #0
    175c:	371a0200 	ldrcc	r0, [sl, -r0, lsl #4]
    1760:	00000000 	andeq	r0, r0, r0
    1764:	00045b3a 	andeq	r5, r4, sl, lsr fp
    1768:	25120200 	ldrcs	r0, [r2, #-512]	; 0xfffffe00
    176c:	03000000 	movweq	r0, #0
    1770:	0000177e 	andeq	r1, r0, lr, ror r7
    1774:	0200733b 	andeq	r7, r0, #-335544320	; 0xec000000
    1778:	00092e12 	andeq	r2, r9, r2, lsl lr
    177c:	693c0000 	ldmdbvs	ip!, {}	; <UNPREDICTABLE>
    1780:	69000001 	stmdbvs	r0, {r0}
    1784:	08000001 	stmdaeq	r0, {r0}
    1788:	073c3c3a 			; <UNDEFINED> instruction: 0x073c3c3a
    178c:	073c0000 	ldreq	r0, [ip, -r0]!
    1790:	4f080000 	svcmi	0x00080000
    1794:	0003753c 	andeq	r7, r3, ip, lsr r5
    1798:	00037500 	andeq	r7, r3, r0, lsl #10
    179c:	3c060900 			; <UNDEFINED> instruction: 0x3c060900
    17a0:	00000385 	andeq	r0, r0, r5, lsl #7
    17a4:	00000385 	andeq	r0, r0, r5, lsl #7
    17a8:	213c1e08 	teqcs	ip, r8, lsl #28
    17ac:	2100000c 	tstcs	r0, ip
    17b0:	0800000c 	stmdaeq	r0, {r2, r3}
    17b4:	06863c29 	streq	r3, [r6], r9, lsr #24
    17b8:	06860000 	streq	r0, [r6], r0
    17bc:	65080000 	strvs	r0, [r8, #-0]
    17c0:	00044f3c 	andeq	r4, r4, ip, lsr pc
    17c4:	00044f00 	andeq	r4, r4, r0, lsl #30
    17c8:	3c890800 	stccc	8, cr0, [r9], {0}
    17cc:	00000173 	andeq	r0, r0, r3, ror r1
    17d0:	00000173 	andeq	r0, r0, r3, ror r1
    17d4:	aa3c0c09 	bge	f04800 <__bss_end__+0xefa810>
    17d8:	aa000008 	bge	1800 <_start-0x6800>
    17dc:	09000008 	stmdbeq	r0, {r3}
    17e0:	1b5e000e 	blne	1781820 <__bss_end__+0x1777830>
    17e4:	00040000 	andeq	r0, r4, r0
    17e8:	00000340 	andeq	r0, r0, r0, asr #6
    17ec:	00230104 	eoreq	r0, r3, r4, lsl #2
    17f0:	a20c0000 	andge	r0, ip, #0
    17f4:	5500000a 	strpl	r0, [r0, #-10]
    17f8:	3400000b 	strcc	r0, [r0], #-11
    17fc:	68000086 	stmdavs	r0, {r1, r2, r7}
    1800:	d6000005 	strle	r0, [r0], -r5
    1804:	02000001 	andeq	r0, r0, #1
    1808:	6e690504 	cdpvs	5, 6, cr0, cr9, cr4, {0}
    180c:	04030074 	streq	r0, [r3], #-116	; 0xffffff8c
    1810:	00014a07 	andeq	r4, r1, r7, lsl #20
    1814:	002c0400 	eoreq	r0, ip, r0, lsl #8
    1818:	01030000 	mrseq	r0, (UNDEF: 3)
    181c:	00062006 	andeq	r2, r6, r6
    1820:	05020300 	streq	r0, [r2, #-768]	; 0xfffffd00
    1824:	0000066b 	andeq	r0, r0, fp, ror #12
    1828:	c8050403 	stmdagt	r5, {r0, r1, sl}
    182c:	03000001 	movweq	r0, #1
    1830:	01c30508 	biceq	r0, r3, r8, lsl #10
    1834:	e3050000 	movw	r0, #20480	; 0x5000
    1838:	02000008 	andeq	r0, r0, #8
    183c:	00005f2e 	andeq	r5, r0, lr, lsr #30
    1840:	08010300 	stmdaeq	r1, {r8, r9}
    1844:	0000061e 	andeq	r0, r0, lr, lsl r6
    1848:	1a070203 	bne	1c205c <__bss_end__+0x1b806c>
    184c:	05000004 	streq	r0, [r0, #-4]
    1850:	0000074d 	andeq	r0, r0, sp, asr #14
    1854:	00783402 	rsbseq	r3, r8, r2, lsl #8
    1858:	04030000 	streq	r0, [r3], #-0
    185c:	00014507 	andeq	r4, r1, r7, lsl #10
    1860:	07080300 	streq	r0, [r8, -r0, lsl #6]
    1864:	00000140 	andeq	r0, r0, r0, asr #2
    1868:	0005e205 	andeq	lr, r5, r5, lsl #4
    186c:	25070300 	strcs	r0, [r7, #-768]	; 0xfffffd00
    1870:	05000000 	streq	r0, [r0, #-0]
    1874:	0000059e 	muleq	r0, lr, r5
    1878:	00462c04 	subeq	r2, r6, r4, lsl #24
    187c:	69050000 	stmdbvs	r5, {}	; <UNPREDICTABLE>
    1880:	04000007 	streq	r0, [r0], #-7
    1884:	00004672 	andeq	r4, r0, r2, ror r6
    1888:	047e0600 	ldrbteq	r0, [lr], #-1536	; 0xfffffa00
    188c:	65050000 	strvs	r0, [r5, #-0]
    1890:	00002c01 	andeq	r2, r0, r1, lsl #24
    1894:	04040700 	streq	r0, [r4], #-1792	; 0xfffff900
    1898:	0000d2a6 	andeq	sp, r0, r6, lsr #5
    189c:	046b0800 	strbteq	r0, [fp], #-2048	; 0xfffff800
    18a0:	a8040000 	stmdage	r4, {}	; <UNPREDICTABLE>
    18a4:	000000a7 	andeq	r0, r0, r7, lsr #1
    18a8:	00037e08 	andeq	r7, r3, r8, lsl #28
    18ac:	d2a90400 	adcle	r0, r9, #0, 8
    18b0:	00000000 	andeq	r0, r0, r0
    18b4:	00005f09 	andeq	r5, r0, r9, lsl #30
    18b8:	0000e200 	andeq	lr, r0, r0, lsl #4
    18bc:	00e20a00 	rsceq	r0, r2, r0, lsl #20
    18c0:	00030000 	andeq	r0, r3, r0
    18c4:	0e070403 	cdpeq	4, 0, cr0, cr7, cr3, {0}
    18c8:	0b000005 	bleq	18e4 <_start-0x671c>
    18cc:	0aa30408 	beq	fe8c28f4 <__bss_end__+0xfe8b8904>
    18d0:	0c000001 	stceq	0, cr0, [r0], {1}
    18d4:	00000745 	andeq	r0, r0, r5, asr #14
    18d8:	0025a504 	eoreq	sl, r5, r4, lsl #10
    18dc:	0c000000 	stceq	0, cr0, [r0], {-0}
    18e0:	000007ec 	andeq	r0, r0, ip, ror #15
    18e4:	00b3aa04 	adcseq	sl, r3, r4, lsl #20
    18e8:	00040000 	andeq	r0, r4, r0
    18ec:	0006a005 	andeq	sl, r6, r5
    18f0:	e9ab0400 	stmib	fp!, {sl}
    18f4:	05000000 	streq	r0, [r0, #-0]
    18f8:	0000031c 	andeq	r0, r0, ip, lsl r3
    18fc:	0086af04 	addeq	sl, r6, r4, lsl #30
    1900:	040d0000 	streq	r0, [sp], #-0
    1904:	0128040e 			; <UNDEFINED> instruction: 0x0128040e
    1908:	01030000 	mrseq	r0, (UNDEF: 3)
    190c:	00062708 	andeq	r2, r6, r8, lsl #14
    1910:	01280400 			; <UNDEFINED> instruction: 0x01280400
    1914:	26050000 	strcs	r0, [r5], -r0
    1918:	06000008 	streq	r0, [r0], -r8
    191c:	00007816 	andeq	r7, r0, r6, lsl r8
    1920:	032d0f00 			; <UNDEFINED> instruction: 0x032d0f00
    1924:	06180000 	ldreq	r0, [r8], -r0
    1928:	0001922d 	andeq	r9, r1, sp, lsr #4
    192c:	06d10c00 	ldrbeq	r0, [r1], r0, lsl #24
    1930:	2f060000 	svccs	0x00060000
    1934:	00000192 	muleq	r0, r2, r1
    1938:	6b5f1000 	blvs	17c5940 <__bss_end__+0x17bb950>
    193c:	25300600 	ldrcs	r0, [r0, #-1536]!	; 0xfffffa00
    1940:	04000000 	streq	r0, [r0], #-0
    1944:	00071e0c 	andeq	r1, r7, ip, lsl #28
    1948:	25300600 	ldrcs	r0, [r0, #-1536]!	; 0xfffffa00
    194c:	08000000 	stmdaeq	r0, {}	; <UNPREDICTABLE>
    1950:	0003160c 	andeq	r1, r3, ip, lsl #12
    1954:	25300600 	ldrcs	r0, [r0, #-1536]!	; 0xfffffa00
    1958:	0c000000 	stceq	0, cr0, [r0], {-0}
    195c:	0008c50c 	andeq	ip, r8, ip, lsl #10
    1960:	25300600 	ldrcs	r0, [r0, #-1536]!	; 0xfffffa00
    1964:	10000000 	andne	r0, r0, r0
    1968:	00785f10 	rsbseq	r5, r8, r0, lsl pc
    196c:	01983106 	orrseq	r3, r8, r6, lsl #2
    1970:	00140000 	andseq	r0, r4, r0
    1974:	013f040e 	teqeq	pc, lr, lsl #8
    1978:	34090000 	strcc	r0, [r9], #-0
    197c:	a8000001 	stmdage	r0, {r0}
    1980:	0a000001 	beq	198c <_start-0x6674>
    1984:	000000e2 	andeq	r0, r0, r2, ror #1
    1988:	700f0000 	andvc	r0, pc, r0
    198c:	24000003 	strcs	r0, [r0], #-3
    1990:	02213506 	eoreq	r3, r1, #25165824	; 0x1800000
    1994:	ba0c0000 	blt	30199c <__bss_end__+0x2f79ac>
    1998:	06000001 	streq	r0, [r0], -r1
    199c:	00002537 	andeq	r2, r0, r7, lsr r5
    19a0:	910c0000 	mrsls	r0, (UNDEF: 12)
    19a4:	06000007 	streq	r0, [r0], -r7
    19a8:	00002538 	andeq	r2, r0, r8, lsr r5
    19ac:	040c0400 	streq	r0, [ip], #-1024	; 0xfffffc00
    19b0:	06000002 	streq	r0, [r0], -r2
    19b4:	00002539 	andeq	r2, r0, r9, lsr r5
    19b8:	d90c0800 	stmdble	ip, {fp}
    19bc:	06000009 	streq	r0, [r0], -r9
    19c0:	0000253a 	andeq	r2, r0, sl, lsr r5
    19c4:	630c0c00 	movwvs	r0, #52224	; 0xcc00
    19c8:	06000005 	streq	r0, [r0], -r5
    19cc:	0000253b 	andeq	r2, r0, fp, lsr r5
    19d0:	d10c1000 	mrsle	r1, (UNDEF: 12)
    19d4:	06000004 	streq	r0, [r0], -r4
    19d8:	0000253c 	andeq	r2, r0, ip, lsr r5
    19dc:	ca0c1400 	bgt	3069e4 <__bss_end__+0x2fc9f4>
    19e0:	06000008 	streq	r0, [r0], -r8
    19e4:	0000253d 	andeq	r2, r0, sp, lsr r5
    19e8:	750c1800 	strvc	r1, [ip, #-2048]	; 0xfffff800
    19ec:	06000006 	streq	r0, [r0], -r6
    19f0:	0000253e 	andeq	r2, r0, lr, lsr r5
    19f4:	530c1c00 	movwpl	r1, #52224	; 0xcc00
    19f8:	06000009 	streq	r0, [r0], -r9
    19fc:	0000253f 	andeq	r2, r0, pc, lsr r5
    1a00:	11002000 	mrsne	r2, (UNDEF: 0)
    1a04:	00000213 	andeq	r0, r0, r3, lsl r2
    1a08:	48060108 	stmdami	r6, {r3, r8}
    1a0c:	00000261 	andeq	r0, r0, r1, ror #4
    1a10:	0002e80c 	andeq	lr, r2, ip, lsl #16
    1a14:	61490600 	cmpvs	r9, r0, lsl #12
    1a18:	00000002 	andeq	r0, r0, r2
    1a1c:	0000000c 	andeq	r0, r0, ip
    1a20:	614a0600 	cmpvs	sl, r0, lsl #12
    1a24:	80000002 	andhi	r0, r0, r2
    1a28:	0007b312 	andeq	fp, r7, r2, lsl r3
    1a2c:	344c0600 	strbcc	r0, [ip], #-1536	; 0xfffffa00
    1a30:	00000001 	andeq	r0, r0, r1
    1a34:	025d1201 	subseq	r1, sp, #268435456	; 0x10000000
    1a38:	4f060000 	svcmi	0x00060000
    1a3c:	00000134 	andeq	r0, r0, r4, lsr r1
    1a40:	09000104 	stmdbeq	r0, {r2, r8}
    1a44:	00000120 	andeq	r0, r0, r0, lsr #2
    1a48:	00000271 	andeq	r0, r0, r1, ror r2
    1a4c:	0000e20a 	andeq	lr, r0, sl, lsl #4
    1a50:	11001f00 	tstne	r0, r0, lsl #30
    1a54:	0000057d 	andeq	r0, r0, sp, ror r5
    1a58:	5b060190 	blpl	1820a0 <__bss_end__+0x1780b0>
    1a5c:	000002af 	andeq	r0, r0, pc, lsr #5
    1a60:	0006d10c 	andeq	sp, r6, ip, lsl #2
    1a64:	af5c0600 	svcge	0x005c0600
    1a68:	00000002 	andeq	r0, r0, r2
    1a6c:	0006ff0c 	andeq	pc, r6, ip, lsl #30
    1a70:	255d0600 	ldrbcs	r0, [sp, #-1536]	; 0xfffffa00
    1a74:	04000000 	streq	r0, [r0], #-0
    1a78:	0003110c 	andeq	r1, r3, ip, lsl #2
    1a7c:	b55f0600 	ldrblt	r0, [pc, #-1536]	; 1484 <_start-0x6b7c>
    1a80:	08000002 	stmdaeq	r0, {r1}
    1a84:	0002130c 	andeq	r1, r2, ip, lsl #6
    1a88:	21600600 	cmncs	r0, r0, lsl #12
    1a8c:	88000002 	stmdahi	r0, {r1}
    1a90:	71040e00 	tstvc	r4, r0, lsl #28
    1a94:	09000002 	stmdbeq	r0, {r1}
    1a98:	000002c5 	andeq	r0, r0, r5, asr #5
    1a9c:	000002c5 	andeq	r0, r0, r5, asr #5
    1aa0:	0000e20a 	andeq	lr, r0, sl, lsl #4
    1aa4:	0e001f00 	cdpeq	15, 0, cr1, cr0, cr0, {0}
    1aa8:	0002cb04 	andeq	ip, r2, r4, lsl #22
    1aac:	7f0f1300 	svcvc	0x000f1300
    1ab0:	08000006 	stmdaeq	r0, {r1, r2}
    1ab4:	02f17306 	rscseq	r7, r1, #402653184	; 0x18000000
    1ab8:	fe0c0000 	cdp2	0, 0, cr0, cr12, cr0, {0}
    1abc:	06000001 	streq	r0, [r0], -r1
    1ac0:	0002f174 	andeq	pc, r2, r4, ror r1	; <UNPREDICTABLE>
    1ac4:	a60c0000 	strge	r0, [ip], -r0
    1ac8:	06000000 	streq	r0, [r0], -r0
    1acc:	00002575 	andeq	r2, r0, r5, ror r5
    1ad0:	0e000400 	cfcpyseq	mvf0, mvf0
    1ad4:	00005f04 	andeq	r5, r0, r4, lsl #30
    1ad8:	06ab0f00 	strteq	r0, [fp], r0, lsl #30
    1adc:	06680000 	strbteq	r0, [r8], -r0
    1ae0:	000421b3 			; <UNDEFINED> instruction: 0x000421b3
    1ae4:	705f1000 	subsvc	r1, pc, r0
    1ae8:	f1b40600 			; <UNDEFINED> instruction: 0xf1b40600
    1aec:	00000002 	andeq	r0, r0, r2
    1af0:	00725f10 	rsbseq	r5, r2, r0, lsl pc
    1af4:	0025b506 	eoreq	fp, r5, r6, lsl #10
    1af8:	10040000 	andne	r0, r4, r0
    1afc:	0600775f 			; <UNDEFINED> instruction: 0x0600775f
    1b00:	000025b6 			; <UNDEFINED> instruction: 0x000025b6
    1b04:	560c0800 	strpl	r0, [ip], -r0, lsl #16
    1b08:	06000002 	streq	r0, [r0], -r2
    1b0c:	00003fb7 			; <UNDEFINED> instruction: 0x00003fb7
    1b10:	af0c0c00 	svcge	0x000c0c00
    1b14:	06000003 	streq	r0, [r0], -r3
    1b18:	00003fb8 			; <UNDEFINED> instruction: 0x00003fb8
    1b1c:	5f100e00 	svcpl	0x00100e00
    1b20:	06006662 	streq	r6, [r0], -r2, ror #12
    1b24:	0002ccb9 			; <UNDEFINED> instruction: 0x0002ccb9
    1b28:	600c1000 	andvs	r1, ip, r0
    1b2c:	06000001 	streq	r0, [r0], -r1
    1b30:	000025ba 			; <UNDEFINED> instruction: 0x000025ba
    1b34:	210c1800 	tstcs	ip, r0, lsl #16
    1b38:	06000002 	streq	r0, [r0], -r2
    1b3c:	000120c1 	andeq	r2, r1, r1, asr #1
    1b40:	ad0c1c00 	stcge	12, cr1, [ip, #-0]
    1b44:	06000008 	streq	r0, [r0], -r8
    1b48:	00057cc3 	andeq	r7, r5, r3, asr #25
    1b4c:	760c2000 	strvc	r2, [ip], -r0
    1b50:	06000001 	streq	r0, [r0], -r1
    1b54:	0005a6c5 	andeq	sl, r5, r5, asr #13
    1b58:	560c2400 	strpl	r2, [ip], -r0, lsl #8
    1b5c:	06000007 	streq	r0, [r0], -r7
    1b60:	0005cac8 	andeq	ip, r5, r8, asr #21
    1b64:	6d0c2800 	stcvs	8, cr2, [ip, #-0]
    1b68:	06000009 	streq	r0, [r0], -r9
    1b6c:	0005e4c9 	andeq	lr, r5, r9, asr #9
    1b70:	5f102c00 	svcpl	0x00102c00
    1b74:	06006275 			; <UNDEFINED> instruction: 0x06006275
    1b78:	0002cccc 	andeq	ip, r2, ip, asr #25
    1b7c:	5f103000 	svcpl	0x00103000
    1b80:	06007075 			; <UNDEFINED> instruction: 0x06007075
    1b84:	0002f1cd 	andeq	pc, r2, sp, asr #3
    1b88:	5f103800 	svcpl	0x00103800
    1b8c:	06007275 			; <UNDEFINED> instruction: 0x06007275
    1b90:	000025ce 	andeq	r2, r0, lr, asr #11
    1b94:	f00c3c00 			; <UNDEFINED> instruction: 0xf00c3c00
    1b98:	06000001 	streq	r0, [r0], -r1
    1b9c:	0005ead1 	ldrdeq	lr, [r5], -r1
    1ba0:	240c4000 	strcs	r4, [ip], #-0
    1ba4:	06000009 	streq	r0, [r0], -r9
    1ba8:	0005fad2 	ldrdeq	pc, [r5], -r2
    1bac:	5f104300 	svcpl	0x00104300
    1bb0:	0600626c 	streq	r6, [r0], -ip, ror #4
    1bb4:	0002ccd5 	ldrdeq	ip, [r2], -r5
    1bb8:	730c4400 	movwvc	r4, #50176	; 0xc400
    1bbc:	06000002 	streq	r0, [r0], -r2
    1bc0:	000025d8 	ldrdeq	r2, [r0], -r8
    1bc4:	a90c4c00 	stmdbge	ip, {sl, fp, lr}
    1bc8:	06000002 	streq	r0, [r0], -r2
    1bcc:	000091d9 	ldrdeq	r9, [r0], -r9	; <UNPREDICTABLE>
    1bd0:	4c0c5000 	stcmi	0, cr5, [ip], {-0}
    1bd4:	06000006 	streq	r0, [r0], -r6
    1bd8:	00043fdc 	ldrdeq	r3, [r4], -ip
    1bdc:	900c5400 	andls	r5, ip, r0, lsl #8
    1be0:	06000010 			; <UNDEFINED> instruction: 0x06000010
    1be4:	000115e0 	andeq	r1, r1, r0, ror #11
    1be8:	c30c5800 	movwgt	r5, #51200	; 0xc800
    1bec:	06000006 	streq	r0, [r0], -r6
    1bf0:	00010ae2 	andeq	r0, r1, r2, ror #21
    1bf4:	9f0c5c00 	svcls	0x000c5c00
    1bf8:	06000004 	streq	r0, [r0], -r4
    1bfc:	000025e3 	andeq	r2, r0, r3, ror #11
    1c00:	14006400 	strne	r6, [r0], #-1024	; 0xfffffc00
    1c04:	00000025 	andeq	r0, r0, r5, lsr #32
    1c08:	0000043f 	andeq	r0, r0, pc, lsr r4
    1c0c:	00043f15 	andeq	r3, r4, r5, lsl pc
    1c10:	01201500 			; <UNDEFINED> instruction: 0x01201500
    1c14:	22150000 	andscs	r0, r5, #0
    1c18:	15000001 	strne	r0, [r0, #-1]
    1c1c:	00000025 	andeq	r0, r0, r5, lsr #32
    1c20:	4a040e00 	bmi	105428 <__bss_end__+0xfb438>
    1c24:	04000004 	streq	r0, [r0], #-4
    1c28:	0000043f 	andeq	r0, r0, pc, lsr r4
    1c2c:	00072616 	andeq	r2, r7, r6, lsl r6
    1c30:	06042800 	streq	r2, [r4], -r0, lsl #16
    1c34:	057c0238 	ldrbeq	r0, [ip, #-568]!	; 0xfffffdc8
    1c38:	64170000 	ldrvs	r0, [r7], #-0
    1c3c:	06000006 	streq	r0, [r0], -r6
    1c40:	0025023a 	eoreq	r0, r5, sl, lsr r2
    1c44:	17000000 	strne	r0, [r0, -r0]
    1c48:	00000265 	andeq	r0, r0, r5, ror #4
    1c4c:	51023f06 	tstpl	r2, r6, lsl #30
    1c50:	04000006 	streq	r0, [r0], #-6
    1c54:	00039417 	andeq	r9, r3, r7, lsl r4
    1c58:	023f0600 	eorseq	r0, pc, #0, 12
    1c5c:	00000651 	andeq	r0, r0, r1, asr r6
    1c60:	03251708 			; <UNDEFINED> instruction: 0x03251708
    1c64:	3f060000 	svccc	0x00060000
    1c68:	00065102 	andeq	r5, r6, r2, lsl #2
    1c6c:	fa170c00 	blx	5c4c74 <__bss_end__+0x5bac84>
    1c70:	06000006 	streq	r0, [r0], -r6
    1c74:	00250241 	eoreq	r0, r5, r1, asr #4
    1c78:	17100000 	ldrne	r0, [r0, -r0]
    1c7c:	000000e5 	andeq	r0, r0, r5, ror #1
    1c80:	33024206 	movwcc	r4, #8710	; 0x2206
    1c84:	14000008 	strne	r0, [r0], #-8
    1c88:	00086f17 	andeq	r6, r8, r7, lsl pc
    1c8c:	02440600 	subeq	r0, r4, #0, 12
    1c90:	00000025 	andeq	r0, r0, r5, lsr #32
    1c94:	07041730 	smladxeq	r4, r0, r7, r1
    1c98:	45060000 	strmi	r0, [r6, #-0]
    1c9c:	0005a002 	andeq	sl, r5, r2
    1ca0:	93173400 	tstls	r7, #0, 8
    1ca4:	06000005 	streq	r0, [r0], -r5
    1ca8:	00250247 	eoreq	r0, r5, r7, asr #4
    1cac:	17380000 	ldrne	r0, [r8, -r0]!
    1cb0:	00000714 	andeq	r0, r0, r4, lsl r7
    1cb4:	4e024906 	vmlami.f16	s8, s4, s12	; <UNPREDICTABLE>
    1cb8:	3c000008 	stccc	0, cr0, [r0], {8}
    1cbc:	00046317 	andeq	r6, r4, r7, lsl r3
    1cc0:	024c0600 	subeq	r0, ip, #0, 12
    1cc4:	00000192 	muleq	r0, r2, r1
    1cc8:	035a1740 	cmpeq	sl, #64, 14	; 0x1000000
    1ccc:	4d060000 	stcmi	0, cr0, [r6, #-0]
    1cd0:	00002502 	andeq	r2, r0, r2, lsl #10
    1cd4:	90174400 	andsls	r4, r7, r0, lsl #8
    1cd8:	06000009 	streq	r0, [r0], -r9
    1cdc:	0192024e 	orrseq	r0, r2, lr, asr #4
    1ce0:	17480000 	strbne	r0, [r8, -r0]
    1ce4:	000005c8 	andeq	r0, r0, r8, asr #11
    1ce8:	54024f06 	strpl	r4, [r2], #-3846	; 0xfffff0fa
    1cec:	4c000008 	stcmi	0, cr0, [r0], {8}
    1cf0:	00039c17 	andeq	r9, r3, r7, lsl ip
    1cf4:	02520600 	subseq	r0, r2, #0, 12
    1cf8:	00000025 	andeq	r0, r0, r5, lsr #32
    1cfc:	02a11750 	adceq	r1, r1, #80, 14	; 0x1400000
    1d00:	53060000 	movwpl	r0, #24576	; 0x6000
    1d04:	00012202 	andeq	r2, r1, r2, lsl #4
    1d08:	52175400 	andspl	r5, r7, #0, 8
    1d0c:	06000011 			; <UNDEFINED> instruction: 0x06000011
    1d10:	08110276 	ldmdaeq	r1, {r1, r2, r4, r5, r6, r9}
    1d14:	18580000 	ldmdane	r8, {}^	; <UNPREDICTABLE>
    1d18:	0000057d 	andeq	r0, r0, sp, ror r5
    1d1c:	af027a06 	svcge	0x00027a06
    1d20:	48000002 	stmdami	r0, {r1}
    1d24:	042d1801 	strteq	r1, [sp], #-2049	; 0xfffff7ff
    1d28:	7b060000 	blvc	181d30 <__bss_end__+0x177d40>
    1d2c:	00027102 	andeq	r7, r2, r2, lsl #2
    1d30:	18014c00 	stmdane	r1, {sl, fp, lr}
    1d34:	000008f5 	strdeq	r0, [r0], -r5
    1d38:	65027f06 	strvs	r7, [r2, #-3846]	; 0xfffff0fa
    1d3c:	dc000008 	stcle	0, cr0, [r0], {8}
    1d40:	02291802 	eoreq	r1, r9, #131072	; 0x20000
    1d44:	84060000 	strhi	r0, [r6], #-0
    1d48:	00061602 	andeq	r1, r6, r2, lsl #12
    1d4c:	1802e000 	stmdane	r2, {sp, lr, pc}
    1d50:	0000020e 	andeq	r0, r0, lr, lsl #4
    1d54:	71028506 	tstvc	r2, r6, lsl #10
    1d58:	ec000008 	stc	0, cr0, [r0], {8}
    1d5c:	040e0002 	streq	r0, [lr], #-2
    1d60:	00000421 	andeq	r0, r0, r1, lsr #8
    1d64:	00002514 	andeq	r2, r0, r4, lsl r5
    1d68:	0005a000 	andeq	sl, r5, r0
    1d6c:	043f1500 	ldrteq	r1, [pc], #-1280	; 1d74 <_start-0x628c>
    1d70:	20150000 	andscs	r0, r5, r0
    1d74:	15000001 	strne	r0, [r0, #-1]
    1d78:	000005a0 	andeq	r0, r0, r0, lsr #11
    1d7c:	00002515 	andeq	r2, r0, r5, lsl r5
    1d80:	040e0000 	streq	r0, [lr], #-0
    1d84:	0000012f 	andeq	r0, r0, pc, lsr #2
    1d88:	0582040e 	streq	r0, [r2, #1038]	; 0x40e
    1d8c:	9c140000 	ldcls	0, cr0, [r4], {-0}
    1d90:	ca000000 	bgt	1d98 <_start-0x6268>
    1d94:	15000005 	strne	r0, [r0, #-5]
    1d98:	0000043f 	andeq	r0, r0, pc, lsr r4
    1d9c:	00012015 	andeq	r2, r1, r5, lsl r0
    1da0:	009c1500 	addseq	r1, ip, r0, lsl #10
    1da4:	25150000 	ldrcs	r0, [r5, #-0]
    1da8:	00000000 	andeq	r0, r0, r0
    1dac:	05ac040e 	streq	r0, [ip, #1038]!	; 0x40e
    1db0:	25140000 	ldrcs	r0, [r4, #-0]
    1db4:	e4000000 	str	r0, [r0], #-0
    1db8:	15000005 	strne	r0, [r0, #-5]
    1dbc:	0000043f 	andeq	r0, r0, pc, lsr r4
    1dc0:	00012015 	andeq	r2, r1, r5, lsl r0
    1dc4:	040e0000 	streq	r0, [lr], #-0
    1dc8:	000005d0 	ldrdeq	r0, [r0], -r0	; <UNPREDICTABLE>
    1dcc:	00005f09 	andeq	r5, r0, r9, lsl #30
    1dd0:	0005fa00 	andeq	pc, r5, r0, lsl #20
    1dd4:	00e20a00 	rsceq	r0, r2, r0, lsl #20
    1dd8:	00020000 	andeq	r0, r2, r0
    1ddc:	00005f09 	andeq	r5, r0, r9, lsl #30
    1de0:	00060a00 	andeq	r0, r6, r0, lsl #20
    1de4:	00e20a00 	rsceq	r0, r2, r0, lsl #20
    1de8:	00000000 	andeq	r0, r0, r0
    1dec:	00069906 	andeq	r9, r6, r6, lsl #18
    1df0:	011d0600 	tsteq	sp, r0, lsl #12
    1df4:	000002f7 	strdeq	r0, [r0], -r7
    1df8:	0008d419 	andeq	sp, r8, r9, lsl r4
    1dfc:	21060c00 	tstcs	r6, r0, lsl #24
    1e00:	00064b01 	andeq	r4, r6, r1, lsl #22
    1e04:	06d11700 	ldrbeq	r1, [r1], r0, lsl #14
    1e08:	23060000 	movwcs	r0, #24576	; 0x6000
    1e0c:	00064b01 	andeq	r4, r6, r1, lsl #22
    1e10:	fd170000 	ldc2	0, cr0, [r7, #-0]
    1e14:	06000003 	streq	r0, [r0], -r3
    1e18:	00250124 	eoreq	r0, r5, r4, lsr #2
    1e1c:	17040000 	strne	r0, [r4, -r0]
    1e20:	00000693 	muleq	r0, r3, r6
    1e24:	51012506 	tstpl	r1, r6, lsl #10
    1e28:	08000006 	stmdaeq	r0, {r1, r2}
    1e2c:	16040e00 	strne	r0, [r4], -r0, lsl #28
    1e30:	0e000006 	cdpeq	0, 0, cr0, cr0, cr6, {0}
    1e34:	00060a04 	andeq	r0, r6, r4, lsl #20
    1e38:	00c91900 	sbceq	r1, r9, r0, lsl #18
    1e3c:	060e0000 	streq	r0, [lr], -r0
    1e40:	068c013d 			; <UNDEFINED> instruction: 0x068c013d
    1e44:	36170000 	ldrcc	r0, [r7], -r0
    1e48:	06000007 	streq	r0, [r0], -r7
    1e4c:	068c013e 			; <UNDEFINED> instruction: 0x068c013e
    1e50:	17000000 	strne	r0, [r0, -r0]
    1e54:	000007d9 	ldrdeq	r0, [r0], -r9
    1e58:	8c013f06 	stchi	15, cr3, [r1], {6}
    1e5c:	06000006 	streq	r0, [r0], -r6
    1e60:	00081817 	andeq	r1, r8, r7, lsl r8
    1e64:	01400600 	cmpeq	r0, r0, lsl #12
    1e68:	00000066 	andeq	r0, r0, r6, rrx
    1e6c:	6609000c 	strvs	r0, [r9], -ip
    1e70:	9c000000 	stcls	0, cr0, [r0], {-0}
    1e74:	0a000006 	beq	1e94 <_start-0x616c>
    1e78:	000000e2 	andeq	r0, r0, r2, ror #1
    1e7c:	d01a0002 	andsle	r0, sl, r2
    1e80:	9d025706 	stcls	7, cr5, [r2, #-24]	; 0xffffffe8
    1e84:	17000007 	strne	r0, [r0, -r7]
    1e88:	0000089d 	muleq	r0, sp, r8
    1e8c:	2c025906 			; <UNDEFINED> instruction: 0x2c025906
    1e90:	00000000 	andeq	r0, r0, r0
    1e94:	0007df17 	andeq	sp, r7, r7, lsl pc
    1e98:	025a0600 	subseq	r0, sl, #0, 12
    1e9c:	00000122 	andeq	r0, r0, r2, lsr #2
    1ea0:	04421704 	strbeq	r1, [r2], #-1796	; 0xfffff8fc
    1ea4:	5b060000 	blpl	181eac <__bss_end__+0x177ebc>
    1ea8:	00079d02 	andeq	r9, r7, r2, lsl #26
    1eac:	5e170800 	cdppl	8, 1, cr0, cr7, cr0, {0}
    1eb0:	06000009 	streq	r0, [r0], -r9
    1eb4:	01a8025c 			; <UNDEFINED> instruction: 0x01a8025c
    1eb8:	17240000 	strne	r0, [r4, -r0]!
    1ebc:	00000335 	andeq	r0, r0, r5, lsr r3
    1ec0:	25025d06 	strcs	r5, [r2, #-3334]	; 0xfffff2fa
    1ec4:	48000000 	stmdami	r0, {}	; <UNPREDICTABLE>
    1ec8:	0006cc17 	andeq	ip, r6, r7, lsl ip
    1ecc:	025e0600 	subseq	r0, lr, #0, 12
    1ed0:	0000007f 	andeq	r0, r0, pc, ror r0
    1ed4:	09741750 	ldmdbeq	r4!, {r4, r6, r8, r9, sl, ip}^
    1ed8:	5f060000 	svcpl	0x00060000
    1edc:	00065702 	andeq	r5, r6, r2, lsl #14
    1ee0:	ed175800 	ldc	8, cr5, [r7, #-0]
    1ee4:	06000006 	streq	r0, [r0], -r6
    1ee8:	010a0260 	tsteq	sl, r0, ror #4
    1eec:	17680000 	strbne	r0, [r8, -r0]!
    1ef0:	00000982 	andeq	r0, r0, r2, lsl #19
    1ef4:	0a026106 	beq	9a314 <__bss_end__+0x90324>
    1ef8:	70000001 	andvc	r0, r0, r1
    1efc:	0001ac17 	andeq	sl, r1, r7, lsl ip
    1f00:	02620600 	rsbeq	r0, r2, #0, 12
    1f04:	0000010a 	andeq	r0, r0, sl, lsl #2
    1f08:	08eb1778 	stmiaeq	fp!, {r3, r4, r5, r6, r8, r9, sl, ip}^
    1f0c:	63060000 	movwvs	r0, #24576	; 0x6000
    1f10:	0007ad02 	andeq	sl, r7, r2, lsl #26
    1f14:	36178000 	ldrcc	r8, [r7], -r0
    1f18:	06000004 	streq	r0, [r0], -r4
    1f1c:	07bd0264 	ldreq	r0, [sp, r4, ror #4]!
    1f20:	17880000 	strne	r0, [r8, r0]
    1f24:	0000082e 	andeq	r0, r0, lr, lsr #16
    1f28:	25026506 	strcs	r6, [r2, #-1286]	; 0xfffffafa
    1f2c:	a0000000 	andge	r0, r0, r0
    1f30:	0002da17 	andeq	sp, r2, r7, lsl sl
    1f34:	02660600 	rsbeq	r0, r6, #0, 12
    1f38:	0000010a 	andeq	r0, r0, sl, lsl #2
    1f3c:	018817a4 	orreq	r1, r8, r4, lsr #15
    1f40:	67060000 	strvs	r0, [r6, -r0]
    1f44:	00010a02 	andeq	r0, r1, r2, lsl #20
    1f48:	c017ac00 	andsgt	sl, r7, r0, lsl #24
    1f4c:	06000002 	streq	r0, [r0], -r2
    1f50:	010a0268 	tsteq	sl, r8, ror #4
    1f54:	17b40000 	ldrne	r0, [r4, r0]!
    1f58:	00000120 	andeq	r0, r0, r0, lsr #2
    1f5c:	0a026906 	beq	9c37c <__bss_end__+0x9238c>
    1f60:	bc000001 	stclt	0, cr0, [r0], {1}
    1f64:	00012f17 	andeq	r2, r1, r7, lsl pc
    1f68:	026a0600 	rsbeq	r0, sl, #0, 12
    1f6c:	0000010a 	andeq	r0, r0, sl, lsl #2
    1f70:	066217c4 	strbteq	r1, [r2], -r4, asr #15
    1f74:	6b060000 	blvs	181f7c <__bss_end__+0x177f8c>
    1f78:	00002502 	andeq	r2, r0, r2, lsl #10
    1f7c:	0900cc00 	stmdbeq	r0, {sl, fp, lr, pc}
    1f80:	00000128 	andeq	r0, r0, r8, lsr #2
    1f84:	000007ad 	andeq	r0, r0, sp, lsr #15
    1f88:	0000e20a 	andeq	lr, r0, sl, lsl #4
    1f8c:	09001900 	stmdbeq	r0, {r8, fp, ip}
    1f90:	00000128 	andeq	r0, r0, r8, lsr #2
    1f94:	000007bd 			; <UNDEFINED> instruction: 0x000007bd
    1f98:	0000e20a 	andeq	lr, r0, sl, lsl #4
    1f9c:	09000700 	stmdbeq	r0, {r8, r9, sl}
    1fa0:	00000128 	andeq	r0, r0, r8, lsr #2
    1fa4:	000007cd 	andeq	r0, r0, sp, asr #15
    1fa8:	0000e20a 	andeq	lr, r0, sl, lsl #4
    1fac:	1a001700 	bne	7bb4 <_start-0x44c>
    1fb0:	027006f0 	rsbseq	r0, r0, #240, 12	; 0xf000000
    1fb4:	000007f1 	strdeq	r0, [r0], -r1
    1fb8:	00055217 	andeq	r5, r5, r7, lsl r2
    1fbc:	02730600 	rsbseq	r0, r3, #0, 12
    1fc0:	000007f1 	strdeq	r0, [r0], -r1
    1fc4:	04f91700 	ldrbteq	r1, [r9], #1792	; 0x700
    1fc8:	74060000 	strvc	r0, [r6], #-0
    1fcc:	00080102 	andeq	r0, r8, r2, lsl #2
    1fd0:	09007800 	stmdbeq	r0, {fp, ip, sp, lr}
    1fd4:	000002f1 	strdeq	r0, [r0], -r1
    1fd8:	00000801 	andeq	r0, r0, r1, lsl #16
    1fdc:	0000e20a 	andeq	lr, r0, sl, lsl #4
    1fe0:	09001d00 	stmdbeq	r0, {r8, sl, fp, ip}
    1fe4:	0000002c 	andeq	r0, r0, ip, lsr #32
    1fe8:	00000811 	andeq	r0, r0, r1, lsl r8
    1fec:	0000e20a 	andeq	lr, r0, sl, lsl #4
    1ff0:	1b001d00 	blne	93f8 <uart_init+0x44>
    1ff4:	025506f0 	subseq	r0, r5, #240, 12	; 0xf000000
    1ff8:	00000833 	andeq	r0, r0, r3, lsr r8
    1ffc:	0007261c 	andeq	r2, r7, ip, lsl r6
    2000:	026c0600 	rsbeq	r0, ip, #0, 12
    2004:	0000069c 	muleq	r0, ip, r6
    2008:	00092a1c 	andeq	r2, r9, ip, lsl sl
    200c:	02750600 	rsbseq	r0, r5, #0, 12
    2010:	000007cd 	andeq	r0, r0, sp, asr #15
    2014:	01280900 			; <UNDEFINED> instruction: 0x01280900
    2018:	08430000 	stmdaeq	r3, {}^	; <UNPREDICTABLE>
    201c:	e20a0000 	and	r0, sl, #0
    2020:	18000000 	stmdane	r0, {}	; <UNPREDICTABLE>
    2024:	084e1d00 	stmdaeq	lr, {r8, sl, fp, ip}^
    2028:	3f150000 	svccc	0x00150000
    202c:	00000004 	andeq	r0, r0, r4
    2030:	0843040e 	stmdaeq	r3, {r1, r2, r3, sl}^
    2034:	040e0000 	streq	r0, [lr], #-0
    2038:	00000192 	muleq	r0, r2, r1
    203c:	0008651d 	andeq	r6, r8, sp, lsl r5
    2040:	00251500 	eoreq	r1, r5, r0, lsl #10
    2044:	0e000000 	cdpeq	0, 0, cr0, cr0, cr0, {0}
    2048:	00086b04 	andeq	r6, r8, r4, lsl #22
    204c:	5a040e00 	bpl	105854 <__bss_end__+0xfb864>
    2050:	09000008 	stmdbeq	r0, {r3}
    2054:	0000060a 	andeq	r0, r0, sl, lsl #12
    2058:	00000881 	andeq	r0, r0, r1, lsl #17
    205c:	0000e20a 	andeq	lr, r0, sl, lsl #4
    2060:	1e000200 	cdpne	2, 0, cr0, cr0, cr0, {0}
    2064:	00000863 	andeq	r0, r0, r3, ror #16
    2068:	3f02fd06 	svccc	0x0002fd06
    206c:	1e000004 	cdpne	0, 0, cr0, cr0, cr4, {0}
    2070:	0000085c 	andeq	r0, r0, ip, asr r8
    2074:	4502fe06 	strmi	pc, [r2, #-3590]	; 0xfffff1fa
    2078:	14000004 	strne	r0, [r0], #-4
    207c:	00000025 	andeq	r0, r0, r5, lsr #32
    2080:	000008a8 	andeq	r0, r0, r8, lsr #17
    2084:	00002515 	andeq	r2, r0, r5, lsl r5
    2088:	641f0000 	ldrvs	r0, [pc], #-0	; 2090 <_start-0x5f70>
    208c:	07000003 	streq	r0, [r0, -r3]
    2090:	0008b31d 	andeq	fp, r8, sp, lsl r3
    2094:	99040e00 	stmdbls	r4, {r9, sl, fp}
    2098:	14000008 	strne	r0, [r0], #-8
    209c:	00000025 	andeq	r0, r0, r5, lsr #32
    20a0:	000008c8 	andeq	r0, r0, r8, asr #17
    20a4:	0005a015 	andeq	sl, r5, r5, lsl r0
    20a8:	2b1f0000 	blcs	7c20b0 <__bss_end__+0x7b80c0>
    20ac:	0700000d 	streq	r0, [r0, -sp]
    20b0:	0008d322 	andeq	sp, r8, r2, lsr #6
    20b4:	b9040e00 	stmdblt	r4, {r9, sl, fp}
    20b8:	20000008 	andcs	r0, r0, r8
    20bc:	00005f01 	andeq	r5, r0, r1, lsl #30
    20c0:	160c0800 	strne	r0, [ip], -r0, lsl #16
    20c4:	21000009 	tstcs	r0, r9
    20c8:	00000a1a 	andeq	r0, r0, sl, lsl sl
    20cc:	0b972100 	bleq	fe5ca4d4 <__bss_end__+0xfe5c04e4>
    20d0:	21010000 	mrscs	r0, (UNDEF: 1)
    20d4:	00000bc5 	andeq	r0, r0, r5, asr #23
    20d8:	0a3d2104 	beq	f4a4f0 <__bss_end__+0xf40500>
    20dc:	21050000 	mrscs	r0, (UNDEF: 5)
    20e0:	00000af8 	strdeq	r0, [r0], -r8
    20e4:	0bd42106 	bleq	ff50a504 <__bss_end__+0xff500514>
    20e8:	21070000 	mrscs	r0, (UNDEF: 7)
    20ec:	00000be3 	andeq	r0, r0, r3, ror #23
    20f0:	0bf22103 	bleq	ffc8a504 <__bss_end__+0xffc80514>
    20f4:	00020000 	andeq	r0, r2, r0
    20f8:	5601040b 	strpl	r0, [r1], -fp, lsl #8
    20fc:	000009c3 	andeq	r0, r0, r3, asr #19
    2100:	0008ae22 	andeq	sl, r8, r2, lsr #28
    2104:	6d570100 	ldfvse	f0, [r7, #-0]
    2108:	04000000 	streq	r0, [r0], #-0
    210c:	22001f01 	andcs	r1, r0, #1, 30
    2110:	00000a7e 	andeq	r0, r0, lr, ror sl
    2114:	006d5901 	rsbeq	r5, sp, r1, lsl #18
    2118:	03040000 	movweq	r0, #16384	; 0x4000
    211c:	0c22001c 	stceq	0, cr0, [r2], #-112	; 0xffffff90
    2120:	0100000b 	tsteq	r0, fp
    2124:	00006d5a 	andeq	r6, r0, sl, asr sp
    2128:	1a020400 	bne	83130 <__bss_end__+0x79140>
    212c:	0a4c2200 	beq	130a934 <__bss_end__+0x1300944>
    2130:	60010000 	andvs	r0, r1, r0
    2134:	0000006d 	andeq	r0, r0, sp, rrx
    2138:	00190104 	andseq	r0, r9, r4, lsl #2
    213c:	00747323 	rsbseq	r7, r4, r3, lsr #6
    2140:	006d6101 	rsbeq	r6, sp, r1, lsl #2
    2144:	01040000 	mrseq	r0, (UNDEF: 4)
    2148:	07220018 			; <UNDEFINED> instruction: 0x07220018
    214c:	0100000b 	tsteq	r0, fp
    2150:	00006d65 	andeq	r6, r0, r5, ror #26
    2154:	17010400 	strne	r0, [r1, -r0, lsl #8]
    2158:	0b172200 	bleq	5ca960 <__bss_end__+0x5c0970>
    215c:	68010000 	stmdavs	r1, {}	; <UNPREDICTABLE>
    2160:	0000006d 	andeq	r0, r0, sp, rrx
    2164:	00160104 	andseq	r0, r6, r4, lsl #2
    2168:	000b1222 	andeq	r1, fp, r2, lsr #4
    216c:	6d6b0100 	stfvse	f0, [fp, #-0]
    2170:	04000000 	streq	r0, [r0], #-0
    2174:	22001501 	andcs	r1, r0, #4194304	; 0x400000
    2178:	00000a88 	andeq	r0, r0, r8, lsl #21
    217c:	006d6e01 	rsbeq	r6, sp, r1, lsl #28
    2180:	04040000 	streq	r0, [r4], #-0
    2184:	29220011 	stmdbcs	r2!, {r0, r4}
    2188:	0100000b 	tsteq	r0, fp
    218c:	00006d6f 	andeq	r6, r0, pc, ror #26
    2190:	10010400 	andne	r0, r1, r0, lsl #8
    2194:	0a922200 	beq	fe48a99c <__bss_end__+0xfe4809ac>
    2198:	72010000 	andvc	r0, r1, #0
    219c:	0000006d 	andeq	r0, r0, sp, rrx
    21a0:	00001004 	andeq	r1, r0, r4
    21a4:	0c090500 	cfstr32eq	mvfx0, [r9], {-0}
    21a8:	73010000 	movwvc	r0, #4096	; 0x1000
    21ac:	00000916 	andeq	r0, r0, r6, lsl r9
    21b0:	0009c324 	andeq	ip, r9, r4, lsr #6
    21b4:	01040b00 	tsteq	r4, r0, lsl #22
    21b8:	000a8081 	andeq	r8, sl, r1, lsl #1
    21bc:	61742300 	cmnvs	r4, r0, lsl #6
    21c0:	2c820100 	stfcss	f0, [r2], {0}
    21c4:	04000000 	streq	r0, [r0], #-0
    21c8:	22001f01 	andcs	r1, r0, #1, 30
    21cc:	00000a10 	andeq	r0, r0, r0, lsl sl
    21d0:	002c8501 	eoreq	r8, ip, r1, lsl #10
    21d4:	01040000 	mrseq	r0, (UNDEF: 4)
    21d8:	7423001e 	strtvc	r0, [r3], #-30	; 0xffffffe2
    21dc:	01007778 	tsteq	r0, r8, ror r7
    21e0:	00002c89 	andeq	r2, r0, r9, lsl #25
    21e4:	1d010400 	cfstrsne	mvf0, [r1, #-0]
    21e8:	78722300 	ldmdavc	r2!, {r8, r9, sp}^
    21ec:	8f010072 	svchi	0x00010072
    21f0:	0000002c 	andeq	r0, r0, ip, lsr #32
    21f4:	001c0104 	andseq	r0, ip, r4, lsl #2
    21f8:	64787423 	ldrbtvs	r7, [r8], #-1059	; 0xfffffbdd
    21fc:	2c950100 	ldfcss	f0, [r5], {0}
    2200:	04000000 	streq	r0, [r0], #-0
    2204:	23001b01 	movwcs	r1, #2817	; 0xb01
    2208:	00647872 	rsbeq	r7, r4, r2, ror r8
    220c:	002c9801 	eoreq	r9, ip, r1, lsl #16
    2210:	01040000 	mrseq	r0, (UNDEF: 4)
    2214:	7423001a 	strtvc	r0, [r3], #-26	; 0xffffffe6
    2218:	01006578 	tsteq	r0, r8, ror r5
    221c:	00002c9c 	muleq	r0, ip, ip
    2220:	19010400 	stmdbne	r1, {sl}
    2224:	78722300 	ldmdavc	r2!, {r8, r9, sp}^
    2228:	a1010066 	tstge	r1, r6, rrx
    222c:	0000002c 	andeq	r0, r0, ip, lsr #32
    2230:	00180104 	andseq	r0, r8, r4, lsl #2
    2234:	72726523 	rsbsvc	r6, r2, #146800640	; 0x8c00000
    2238:	2ca40100 	stfcss	f0, [r4]
    223c:	04000000 	streq	r0, [r0], #-0
    2240:	22001701 	andcs	r1, r0, #262144	; 0x40000
    2244:	00000bb7 			; <UNDEFINED> instruction: 0x00000bb7
    2248:	002ca801 	eoreq	sl, ip, r1, lsl #16
    224c:	01040000 	mrseq	r0, (UNDEF: 4)
    2250:	7e220016 	mcrvc	0, 1, r0, cr2, cr6, {0}
    2254:	0100000a 	tsteq	r0, sl
    2258:	00002cad 	andeq	r2, r0, sp, lsr #25
    225c:	00160400 	andseq	r0, r6, r0, lsl #8
    2260:	fd050000 	stc2	0, cr0, [r5, #-0]
    2264:	01000009 	tsteq	r0, r9
    2268:	0009d3ae 	andeq	sp, r9, lr, lsr #7
    226c:	0a802400 	beq	fe00b274 <__bss_end__+0xfe001284>
    2270:	080f0000 	stmdaeq	pc, {}	; <UNPREDICTABLE>
    2274:	2000000a 	andcs	r0, r0, sl
    2278:	0afdb901 	beq	fff70684 <__bss_end__+0xfff66694>
    227c:	470c0000 	strmi	r0, [ip, -r0]
    2280:	0100000b 	tsteq	r0, fp
    2284:	0009c3ba 			; <UNDEFINED> instruction: 0x0009c3ba
    2288:	e30c0000 	movw	r0, #49152	; 0xc000
    228c:	0100000a 	tsteq	r0, sl
    2290:	000a80bb 	strheq	r8, [sl], -fp
    2294:	360c0400 	strcc	r0, [ip], -r0, lsl #8
    2298:	0100000b 	tsteq	r0, fp
    229c:	00006dbe 			; <UNDEFINED> instruction: 0x00006dbe
    22a0:	a70c0800 	strge	r0, [ip, -r0, lsl #16]
    22a4:	01000004 	tsteq	r0, r4
    22a8:	00006dc7 	andeq	r6, r0, r7, asr #27
    22ac:	150c0c00 	strne	r0, [ip, #-3072]	; 0xfffff400
    22b0:	0100000a 	tsteq	r0, sl
    22b4:	00006dc9 	andeq	r6, r0, r9, asr #27
    22b8:	d30c1000 	movwle	r1, #49152	; 0xc000
    22bc:	0100000a 	tsteq	r0, sl
    22c0:	00006dcb 	andeq	r6, r0, fp, asr #27
    22c4:	3b0c1400 	blcc	3072cc <__bss_end__+0x2fd2dc>
    22c8:	0100000b 	tsteq	r0, fp
    22cc:	00006dcd 	andeq	r6, r0, sp, asr #27
    22d0:	560c1800 	strpl	r1, [ip], -r0, lsl #16
    22d4:	0100000a 	tsteq	r0, sl
    22d8:	00006dcf 	andeq	r6, r0, pc, asr #27
    22dc:	05001c00 	streq	r1, [r0, #-3072]	; 0xfffff400
    22e0:	00000a08 	andeq	r0, r0, r8, lsl #20
    22e4:	0a90d001 	beq	fe4362f0 <__bss_end__+0xfe42c300>
    22e8:	fd240000 	stc2	0, cr0, [r4, #-0]
    22ec:	2500000a 	strcs	r0, [r0, #-10]
    22f0:	00633269 	rsbeq	r3, r3, r9, ror #4
    22f4:	0b18d401 	bleq	637300 <__bss_end__+0x62d310>
    22f8:	040e0000 	streq	r0, [lr], #-0
    22fc:	00000b08 	andeq	r0, r0, r8, lsl #22
    2300:	000abd26 	andeq	fp, sl, r6, lsr #26
    2304:	013f0100 	teqeq	pc, r0, lsl #2
    2308:	00000025 	andeq	r0, r0, r5, lsr #32
    230c:	9bec0305 	blls	ffb02f28 <__bss_end__+0xffaf8f38>
    2310:	1c270000 	stcne	0, cr0, [r7], #-0
    2314:	0100000b 	tsteq	r0, fp
    2318:	86540169 	ldrbhi	r0, [r4], -r9, ror #2
    231c:	00080000 	andeq	r0, r8, r0
    2320:	9c010000 	stcls	0, cr0, [r1], {-0}
    2324:	00001101 	andeq	r1, r0, r1, lsl #2
    2328:	00047128 	andeq	r7, r4, r8, lsr #2
    232c:	00111100 	andseq	r1, r1, r0, lsl #2
    2330:	7c030500 	cfstr32vc	mvfx0, [r3], {-0}
    2334:	29000098 	stmdbcs	r0, {r3, r4, r7}
    2338:	00000baa 	andeq	r0, r0, sl, lsr #23
    233c:	00755f2a 	rsbseq	r5, r5, sl, lsr #30
    2340:	01740104 	cmneq	r4, r4, lsl #2
    2344:	00000b7b 	andeq	r0, r0, fp, ror fp
    2348:	0100732b 	tsteq	r0, fp, lsr #6
    234c:	09c30174 	stmibeq	r3, {r2, r4, r5, r6, r8}^
    2350:	752b0000 	strvc	r0, [fp, #-0]!
    2354:	01740100 	cmneq	r4, r0, lsl #2
    2358:	0000002c 	andeq	r0, r0, ip, lsr #32
    235c:	00782c00 	rsbseq	r2, r8, r0, lsl #24
    2360:	5a017401 	bpl	5f36c <__bss_end__+0x5537c>
    2364:	2c00000b 	stccs	0, cr0, [r0], {11}
    2368:	00707865 	rsbseq	r7, r0, r5, ror #16
    236c:	2c017401 	cfstrscs	mvf7, [r1], {1}
    2370:	2d000000 	stccs	0, cr0, [r0, #-0]
    2374:	00000a9c 	muleq	r0, ip, sl
    2378:	2c017401 	cfstrscs	mvf7, [r1], {1}
    237c:	2d000000 	stccs	0, cr0, [r0, #-0]
    2380:	00000acb 	andeq	r0, r0, fp, asr #21
    2384:	2c017401 	cfstrscs	mvf7, [r1], {1}
    2388:	00000000 	andeq	r0, r0, r0
    238c:	000bff29 	andeq	pc, fp, r9, lsr #30
    2390:	755f2a00 	ldrbvc	r2, [pc, #-2560]	; 1998 <_start-0x6668>
    2394:	75010400 	strvc	r0, [r1, #-1024]	; 0xfffffc00
    2398:	000bd001 	andeq	sp, fp, r1
    239c:	00732b00 	rsbseq	r2, r3, r0, lsl #22
    23a0:	c3017501 	movwgt	r7, #5377	; 0x1501
    23a4:	2b000009 	blcs	23d0 <_start-0x5c30>
    23a8:	75010075 	strvc	r0, [r1, #-117]	; 0xffffff8b
    23ac:	00002c01 	andeq	r2, r0, r1, lsl #24
    23b0:	782c0000 	stmdavc	ip!, {}	; <UNPREDICTABLE>
    23b4:	01750100 	cmneq	r5, r0, lsl #2
    23b8:	00000baf 	andeq	r0, r0, pc, lsr #23
    23bc:	7078652c 	rsbsvc	r6, r8, ip, lsr #10
    23c0:	01750100 	cmneq	r5, r0, lsl #2
    23c4:	0000002c 	andeq	r0, r0, ip, lsr #32
    23c8:	000a9c2d 	andeq	r9, sl, sp, lsr #24
    23cc:	01750100 	cmneq	r5, r0, lsl #2
    23d0:	0000002c 	andeq	r0, r0, ip, lsr #32
    23d4:	000acb2d 	andeq	ip, sl, sp, lsr #22
    23d8:	01750100 	cmneq	r5, r0, lsl #2
    23dc:	0000002c 	andeq	r0, r0, ip, lsr #32
    23e0:	0c542900 	mrrceq	9, 0, r2, r4, cr0	; <UNPREDICTABLE>
    23e4:	5f2a0000 	svcpl	0x002a0000
    23e8:	01040075 	tsteq	r4, r5, ror r0
    23ec:	0c250176 	stfeqs	f0, [r5], #-472	; 0xfffffe28
    23f0:	732b0000 			; <UNDEFINED> instruction: 0x732b0000
    23f4:	01760100 	cmneq	r6, r0, lsl #2
    23f8:	000009c3 	andeq	r0, r0, r3, asr #19
    23fc:	0100752b 	tsteq	r0, fp, lsr #10
    2400:	002c0176 	eoreq	r0, ip, r6, ror r1
    2404:	2c000000 	stccs	0, cr0, [r0], {-0}
    2408:	76010078 			; <UNDEFINED> instruction: 0x76010078
    240c:	000c0401 	andeq	r0, ip, r1, lsl #8
    2410:	78652c00 	stmdavc	r5!, {sl, fp, sp}^
    2414:	76010070 			; <UNDEFINED> instruction: 0x76010070
    2418:	00002c01 	andeq	r2, r0, r1, lsl #24
    241c:	0a9c2d00 	beq	fe70d824 <__bss_end__+0xfe703834>
    2420:	76010000 	strvc	r0, [r1], -r0
    2424:	00002c01 	andeq	r2, r0, r1, lsl #24
    2428:	0acb2d00 	beq	ff2cd830 <__bss_end__+0xff2c3840>
    242c:	76010000 	strvc	r0, [r1], -r0
    2430:	00002c01 	andeq	r2, r0, r1, lsl #24
    2434:	a9290000 	stmdbge	r9!, {}	; <UNPREDICTABLE>
    2438:	2a00000c 	bcs	2470 <_start-0x5b90>
    243c:	0400755f 	streq	r7, [r0], #-1375	; 0xfffffaa1
    2440:	7a017701 	bvc	6004c <__bss_end__+0x5605c>
    2444:	2b00000c 	blcs	247c <_start-0x5b84>
    2448:	77010073 	smlsdxvc	r1, r3, r0, r0
    244c:	0009c301 	andeq	ip, r9, r1, lsl #6
    2450:	00752b00 	rsbseq	r2, r5, r0, lsl #22
    2454:	2c017701 	stccs	7, cr7, [r1], {1}
    2458:	00000000 	andeq	r0, r0, r0
    245c:	0100782c 	tsteq	r0, ip, lsr #16
    2460:	0c590177 	ldfeqe	f0, [r9], {119}	; 0x77
    2464:	652c0000 	strvs	r0, [ip, #-0]!
    2468:	01007078 	tsteq	r0, r8, ror r0
    246c:	002c0177 	eoreq	r0, ip, r7, ror r1
    2470:	9c2d0000 	stcls	0, cr0, [sp], #-0
    2474:	0100000a 	tsteq	r0, sl
    2478:	002c0177 	eoreq	r0, ip, r7, ror r1
    247c:	cb2d0000 	blgt	b42484 <__bss_end__+0xb38494>
    2480:	0100000a 	tsteq	r0, sl
    2484:	002c0177 	eoreq	r0, ip, r7, ror r1
    2488:	29000000 	stmdbcs	r0, {}	; <UNPREDICTABLE>
    248c:	00000cfe 	strdeq	r0, [r0], -lr
    2490:	00755f2a 	rsbseq	r5, r5, sl, lsr #30
    2494:	01780104 	cmneq	r8, r4, lsl #2
    2498:	00000ccf 	andeq	r0, r0, pc, asr #25
    249c:	0100732b 	tsteq	r0, fp, lsr #6
    24a0:	09c30178 	stmibeq	r3, {r3, r4, r5, r6, r8}^
    24a4:	752b0000 	strvc	r0, [fp, #-0]!
    24a8:	01780100 	cmneq	r8, r0, lsl #2
    24ac:	0000002c 	andeq	r0, r0, ip, lsr #32
    24b0:	00782c00 	rsbseq	r2, r8, r0, lsl #24
    24b4:	ae017801 	cdpge	8, 0, cr7, cr1, cr1, {0}
    24b8:	2c00000c 	stccs	0, cr0, [r0], {12}
    24bc:	00707865 	rsbseq	r7, r0, r5, ror #16
    24c0:	2c017801 	stccs	8, cr7, [r1], {1}
    24c4:	2d000000 	stccs	0, cr0, [r0, #-0]
    24c8:	00000a9c 	muleq	r0, ip, sl
    24cc:	2c017801 	stccs	8, cr7, [r1], {1}
    24d0:	2d000000 	stccs	0, cr0, [r0, #-0]
    24d4:	00000acb 	andeq	r0, r0, fp, asr #21
    24d8:	2c017801 	stccs	8, cr7, [r1], {1}
    24dc:	00000000 	andeq	r0, r0, r0
    24e0:	000d5329 	andeq	r5, sp, r9, lsr #6
    24e4:	755f2a00 	ldrbvc	r2, [pc, #-2560]	; 1aec <_start-0x6514>
    24e8:	79010400 	stmdbvc	r1, {sl}
    24ec:	000d2401 	andeq	r2, sp, r1, lsl #8
    24f0:	00732b00 	rsbseq	r2, r3, r0, lsl #22
    24f4:	c3017901 	movwgt	r7, #6401	; 0x1901
    24f8:	2b000009 	blcs	2524 <_start-0x5adc>
    24fc:	79010075 	stmdbvc	r1, {r0, r2, r4, r5, r6}
    2500:	00002c01 	andeq	r2, r0, r1, lsl #24
    2504:	782c0000 	stmdavc	ip!, {}	; <UNPREDICTABLE>
    2508:	01790100 	cmneq	r9, r0, lsl #2
    250c:	00000d03 	andeq	r0, r0, r3, lsl #26
    2510:	7078652c 	rsbsvc	r6, r8, ip, lsr #10
    2514:	01790100 	cmneq	r9, r0, lsl #2
    2518:	0000002c 	andeq	r0, r0, ip, lsr #32
    251c:	000a9c2d 	andeq	r9, sl, sp, lsr #24
    2520:	01790100 	cmneq	r9, r0, lsl #2
    2524:	0000002c 	andeq	r0, r0, ip, lsr #32
    2528:	000acb2d 	andeq	ip, sl, sp, lsr #22
    252c:	01790100 	cmneq	r9, r0, lsl #2
    2530:	0000002c 	andeq	r0, r0, ip, lsr #32
    2534:	0da82900 			; <UNDEFINED> instruction: 0x0da82900
    2538:	5f2a0000 	svcpl	0x002a0000
    253c:	01040075 	tsteq	r4, r5, ror r0
    2540:	0d79017a 	ldfeqe	f0, [r9, #-488]!	; 0xfffffe18
    2544:	732b0000 			; <UNDEFINED> instruction: 0x732b0000
    2548:	017a0100 	cmneq	sl, r0, lsl #2
    254c:	000009c3 	andeq	r0, r0, r3, asr #19
    2550:	0100752b 	tsteq	r0, fp, lsr #10
    2554:	002c017a 	eoreq	r0, ip, sl, ror r1
    2558:	2c000000 	stccs	0, cr0, [r0], {-0}
    255c:	7a010078 	bvc	42744 <__bss_end__+0x38754>
    2560:	000d5801 	andeq	r5, sp, r1, lsl #16
    2564:	78652c00 	stmdavc	r5!, {sl, fp, sp}^
    2568:	7a010070 	bvc	42730 <__bss_end__+0x38740>
    256c:	00002c01 	andeq	r2, r0, r1, lsl #24
    2570:	0a9c2d00 	beq	fe70d978 <__bss_end__+0xfe703988>
    2574:	7a010000 	bvc	4257c <__bss_end__+0x3858c>
    2578:	00002c01 	andeq	r2, r0, r1, lsl #24
    257c:	0acb2d00 	beq	ff2cd984 <__bss_end__+0xff2c3994>
    2580:	7a010000 	bvc	42588 <__bss_end__+0x38598>
    2584:	00002c01 	andeq	r2, r0, r1, lsl #24
    2588:	fd290000 	stc2	0, cr0, [r9, #-0]
    258c:	2a00000d 	bcs	25c8 <_start-0x5a38>
    2590:	0400755f 	streq	r7, [r0], #-1375	; 0xfffffaa1
    2594:	ce017d01 	cdpgt	13, 0, cr7, cr1, cr1, {0}
    2598:	2b00000d 	blcs	25d4 <_start-0x5a2c>
    259c:	7d010073 	stcvc	0, cr0, [r1, #-460]	; 0xfffffe34
    25a0:	000a8001 	andeq	r8, sl, r1
    25a4:	00752b00 	rsbseq	r2, r5, r0, lsl #22
    25a8:	2c017d01 	stccs	13, cr7, [r1], {1}
    25ac:	00000000 	andeq	r0, r0, r0
    25b0:	0100782c 	tsteq	r0, ip, lsr #16
    25b4:	0dad017d 	stfeqs	f0, [sp, #500]!	; 0x1f4
    25b8:	652c0000 	strvs	r0, [ip, #-0]!
    25bc:	01007078 	tsteq	r0, r8, ror r0
    25c0:	002c017d 	eoreq	r0, ip, sp, ror r1
    25c4:	9c2d0000 	stcls	0, cr0, [sp], #-0
    25c8:	0100000a 	tsteq	r0, sl
    25cc:	002c017d 	eoreq	r0, ip, sp, ror r1
    25d0:	cb2d0000 	blgt	b425d8 <__bss_end__+0xb385e8>
    25d4:	0100000a 	tsteq	r0, sl
    25d8:	002c017d 	eoreq	r0, ip, sp, ror r1
    25dc:	29000000 	stmdbcs	r0, {}	; <UNPREDICTABLE>
    25e0:	00000e52 	andeq	r0, r0, r2, asr lr
    25e4:	00755f2a 	rsbseq	r5, r5, sl, lsr #30
    25e8:	017e0104 	cmneq	lr, r4, lsl #2
    25ec:	00000e23 	andeq	r0, r0, r3, lsr #28
    25f0:	0100732b 	tsteq	r0, fp, lsr #6
    25f4:	0a80017e 	beq	fe002bf4 <__bss_end__+0xfdff8c04>
    25f8:	752b0000 	strvc	r0, [fp, #-0]!
    25fc:	017e0100 	cmneq	lr, r0, lsl #2
    2600:	0000002c 	andeq	r0, r0, ip, lsr #32
    2604:	00782c00 	rsbseq	r2, r8, r0, lsl #24
    2608:	02017e01 	andeq	r7, r1, #1, 28
    260c:	2c00000e 	stccs	0, cr0, [r0], {14}
    2610:	00707865 	rsbseq	r7, r0, r5, ror #16
    2614:	2c017e01 	stccs	14, cr7, [r1], {1}
    2618:	2d000000 	stccs	0, cr0, [r0, #-0]
    261c:	00000a9c 	muleq	r0, ip, sl
    2620:	2c017e01 	stccs	14, cr7, [r1], {1}
    2624:	2d000000 	stccs	0, cr0, [r0, #-0]
    2628:	00000acb 	andeq	r0, r0, fp, asr #21
    262c:	2c017e01 	stccs	14, cr7, [r1], {1}
    2630:	00000000 	andeq	r0, r0, r0
    2634:	000ea729 	andeq	sl, lr, r9, lsr #14
    2638:	755f2a00 	ldrbvc	r2, [pc, #-2560]	; 1c40 <_start-0x63c0>
    263c:	7f010400 	svcvc	0x00010400
    2640:	000e7801 	andeq	r7, lr, r1, lsl #16
    2644:	00732b00 	rsbseq	r2, r3, r0, lsl #22
    2648:	80017f01 	andhi	r7, r1, r1, lsl #30
    264c:	2b00000a 	blcs	267c <_start-0x5984>
    2650:	7f010075 	svcvc	0x00010075
    2654:	00002c01 	andeq	r2, r0, r1, lsl #24
    2658:	782c0000 	stmdavc	ip!, {}	; <UNPREDICTABLE>
    265c:	017f0100 	cmneq	pc, r0, lsl #2
    2660:	00000e57 	andeq	r0, r0, r7, asr lr
    2664:	7078652c 	rsbsvc	r6, r8, ip, lsr #10
    2668:	017f0100 	cmneq	pc, r0, lsl #2
    266c:	0000002c 	andeq	r0, r0, ip, lsr #32
    2670:	000a9c2d 	andeq	r9, sl, sp, lsr #24
    2674:	017f0100 	cmneq	pc, r0, lsl #2
    2678:	0000002c 	andeq	r0, r0, ip, lsr #32
    267c:	000acb2d 	andeq	ip, sl, sp, lsr #22
    2680:	017f0100 	cmneq	pc, r0, lsl #2
    2684:	0000002c 	andeq	r0, r0, ip, lsr #32
    2688:	0efc2900 	vmoveq.f16	s5, #192	; 0xbe000000 -0.125	; <UNPREDICTABLE>
    268c:	5f2a0000 	svcpl	0x002a0000
    2690:	01040075 	tsteq	r4, r5, ror r0
    2694:	0ecd0180 	poleq<illegal precision>	f0, f5, f0
    2698:	732b0000 			; <UNDEFINED> instruction: 0x732b0000
    269c:	01800100 	orreq	r0, r0, r0, lsl #2
    26a0:	00000a80 	andeq	r0, r0, r0, lsl #21
    26a4:	0100752b 	tsteq	r0, fp, lsr #10
    26a8:	002c0180 	eoreq	r0, ip, r0, lsl #3
    26ac:	2c000000 	stccs	0, cr0, [r0], {-0}
    26b0:	80010078 	andhi	r0, r1, r8, ror r0
    26b4:	000eac01 	andeq	sl, lr, r1, lsl #24
    26b8:	78652c00 	stmdavc	r5!, {sl, fp, sp}^
    26bc:	80010070 	andhi	r0, r1, r0, ror r0
    26c0:	00002c01 	andeq	r2, r0, r1, lsl #24
    26c4:	0a9c2d00 	beq	fe70dacc <__bss_end__+0xfe703adc>
    26c8:	80010000 	andhi	r0, r1, r0
    26cc:	00002c01 	andeq	r2, r0, r1, lsl #24
    26d0:	0acb2d00 	beq	ff2cdad8 <__bss_end__+0xff2c3ae8>
    26d4:	80010000 	andhi	r0, r1, r0
    26d8:	00002c01 	andeq	r2, r0, r1, lsl #24
    26dc:	51290000 			; <UNDEFINED> instruction: 0x51290000
    26e0:	2a00000f 	bcs	2724 <_start-0x58dc>
    26e4:	0400755f 	streq	r7, [r0], #-1375	; 0xfffffaa1
    26e8:	22018101 	andcs	r8, r1, #1073741824	; 0x40000000
    26ec:	2b00000f 	blcs	2730 <_start-0x58d0>
    26f0:	81010073 	tsthi	r1, r3, ror r0
    26f4:	000a8001 	andeq	r8, sl, r1
    26f8:	00752b00 	rsbseq	r2, r5, r0, lsl #22
    26fc:	2c018101 	stfcsd	f0, [r1], {1}
    2700:	00000000 	andeq	r0, r0, r0
    2704:	0100782c 	tsteq	r0, ip, lsr #16
    2708:	0f010181 	svceq	0x00010181
    270c:	652c0000 	strvs	r0, [ip, #-0]!
    2710:	01007078 	tsteq	r0, r8, ror r0
    2714:	002c0181 	eoreq	r0, ip, r1, lsl #3
    2718:	9c2d0000 	stcls	0, cr0, [sp], #-0
    271c:	0100000a 	tsteq	r0, sl
    2720:	002c0181 	eoreq	r0, ip, r1, lsl #3
    2724:	cb2d0000 	blgt	b4272c <__bss_end__+0xb3873c>
    2728:	0100000a 	tsteq	r0, sl
    272c:	002c0181 	eoreq	r0, ip, r1, lsl #3
    2730:	29000000 	stmdbcs	r0, {}	; <UNPREDICTABLE>
    2734:	00000fa6 	andeq	r0, r0, r6, lsr #31
    2738:	00755f2a 	rsbseq	r5, r5, sl, lsr #30
    273c:	01820104 	orreq	r0, r2, r4, lsl #2
    2740:	00000f77 	andeq	r0, r0, r7, ror pc
    2744:	0100732b 	tsteq	r0, fp, lsr #6
    2748:	0a800182 	beq	fe002d58 <__bss_end__+0xfdff8d68>
    274c:	752b0000 	strvc	r0, [fp, #-0]!
    2750:	01820100 	orreq	r0, r2, r0, lsl #2
    2754:	0000002c 	andeq	r0, r0, ip, lsr #32
    2758:	00782c00 	rsbseq	r2, r8, r0, lsl #24
    275c:	56018201 	strpl	r8, [r1], -r1, lsl #4
    2760:	2c00000f 	stccs	0, cr0, [r0], {15}
    2764:	00707865 	rsbseq	r7, r0, r5, ror #16
    2768:	2c018201 	sfmcs	f0, 1, [r1], {1}
    276c:	2d000000 	stccs	0, cr0, [r0, #-0]
    2770:	00000a9c 	muleq	r0, ip, sl
    2774:	2c018201 	sfmcs	f0, 1, [r1], {1}
    2778:	2d000000 	stccs	0, cr0, [r0, #-0]
    277c:	00000acb 	andeq	r0, r0, fp, asr #21
    2780:	2c018201 	sfmcs	f0, 1, [r1], {1}
    2784:	00000000 	andeq	r0, r0, r0
    2788:	000ffb29 	andeq	pc, pc, r9, lsr #22
    278c:	755f2a00 	ldrbvc	r2, [pc, #-2560]	; 1d94 <_start-0x626c>
    2790:	83010400 	movwhi	r0, #5120	; 0x1400
    2794:	000fcc01 	andeq	ip, pc, r1, lsl #24
    2798:	00732b00 	rsbseq	r2, r3, r0, lsl #22
    279c:	80018301 	andhi	r8, r1, r1, lsl #6
    27a0:	2b00000a 	blcs	27d0 <_start-0x5830>
    27a4:	83010075 	movwhi	r0, #4213	; 0x1075
    27a8:	00002c01 	andeq	r2, r0, r1, lsl #24
    27ac:	782c0000 	stmdavc	ip!, {}	; <UNPREDICTABLE>
    27b0:	01830100 	orreq	r0, r3, r0, lsl #2
    27b4:	00000fab 	andeq	r0, r0, fp, lsr #31
    27b8:	7078652c 	rsbsvc	r6, r8, ip, lsr #10
    27bc:	01830100 	orreq	r0, r3, r0, lsl #2
    27c0:	0000002c 	andeq	r0, r0, ip, lsr #32
    27c4:	000a9c2d 	andeq	r9, sl, sp, lsr #24
    27c8:	01830100 	orreq	r0, r3, r0, lsl #2
    27cc:	0000002c 	andeq	r0, r0, ip, lsr #32
    27d0:	000acb2d 	andeq	ip, sl, sp, lsr #22
    27d4:	01830100 	orreq	r0, r3, r0, lsl #2
    27d8:	0000002c 	andeq	r0, r0, ip, lsr #32
    27dc:	10502900 	subsne	r2, r0, r0, lsl #18
    27e0:	5f2a0000 	svcpl	0x002a0000
    27e4:	01040075 	tsteq	r4, r5, ror r0
    27e8:	10210184 	eorne	r0, r1, r4, lsl #3
    27ec:	732b0000 			; <UNDEFINED> instruction: 0x732b0000
    27f0:	01840100 	orreq	r0, r4, r0, lsl #2
    27f4:	00000a80 	andeq	r0, r0, r0, lsl #21
    27f8:	0100752b 	tsteq	r0, fp, lsr #10
    27fc:	002c0184 	eoreq	r0, ip, r4, lsl #3
    2800:	2c000000 	stccs	0, cr0, [r0], {-0}
    2804:	84010078 	strhi	r0, [r1], #-120	; 0xffffff88
    2808:	00100001 	andseq	r0, r0, r1
    280c:	78652c00 	stmdavc	r5!, {sl, fp, sp}^
    2810:	84010070 	strhi	r0, [r1], #-112	; 0xffffff90
    2814:	00002c01 	andeq	r2, r0, r1, lsl #24
    2818:	0a9c2d00 	beq	fe70dc20 <__bss_end__+0xfe703c30>
    281c:	84010000 	strhi	r0, [r1], #-0
    2820:	00002c01 	andeq	r2, r0, r1, lsl #24
    2824:	0acb2d00 	beq	ff2cdc2c <__bss_end__+0xff2c3c3c>
    2828:	84010000 	strhi	r0, [r1], #-0
    282c:	00002c01 	andeq	r2, r0, r1, lsl #24
    2830:	a5290000 	strge	r0, [r9, #-0]!
    2834:	2a000010 	bcs	287c <_start-0x5784>
    2838:	0400755f 	streq	r7, [r0], #-1375	; 0xfffffaa1
    283c:	76018501 	strvc	r8, [r1], -r1, lsl #10
    2840:	2b000010 	blcs	2888 <_start-0x5778>
    2844:	85010073 	strhi	r0, [r1, #-115]	; 0xffffff8d
    2848:	000a8001 	andeq	r8, sl, r1
    284c:	00752b00 	rsbseq	r2, r5, r0, lsl #22
    2850:	2c018501 	cfstr32cs	mvfx8, [r1], {1}
    2854:	00000000 	andeq	r0, r0, r0
    2858:	0100782c 	tsteq	r0, ip, lsr #16
    285c:	10550185 	subsne	r0, r5, r5, lsl #3
    2860:	652c0000 	strvs	r0, [ip, #-0]!
    2864:	01007078 	tsteq	r0, r8, ror r0
    2868:	002c0185 	eoreq	r0, ip, r5, lsl #3
    286c:	9c2d0000 	stcls	0, cr0, [sp], #-0
    2870:	0100000a 	tsteq	r0, sl
    2874:	002c0185 	eoreq	r0, ip, r5, lsl #3
    2878:	cb2d0000 	blgt	b42880 <__bss_end__+0xb38890>
    287c:	0100000a 	tsteq	r0, sl
    2880:	002c0185 	eoreq	r0, ip, r5, lsl #3
    2884:	2e000000 	cdpcs	0, 0, cr0, cr0, cr0, {0}
    2888:	00008658 	andeq	r8, r0, r8, asr r6
    288c:	00000004 	andeq	r0, r0, r4
    2890:	00755f2a 	rsbseq	r5, r5, sl, lsr #30
    2894:	01860104 	orreq	r0, r6, r4, lsl #2
    2898:	000010cf 	andeq	r1, r0, pc, asr #1
    289c:	0100732b 	tsteq	r0, fp, lsr #6
    28a0:	0a800186 	beq	fe002ec0 <__bss_end__+0xfdff8ed0>
    28a4:	752b0000 	strvc	r0, [fp, #-0]!
    28a8:	01860100 	orreq	r0, r6, r0, lsl #2
    28ac:	0000002c 	andeq	r0, r0, ip, lsr #32
    28b0:	00782c00 	rsbseq	r2, r8, r0, lsl #24
    28b4:	ae018601 	cfmadd32ge	mvax0, mvfx8, mvfx1, mvfx1
    28b8:	2f000010 	svccs	0x00000010
    28bc:	00707865 	rsbseq	r7, r0, r5, ror #16
    28c0:	2c018601 	stccs	6, cr8, [r1], {1}
    28c4:	00000000 	andeq	r0, r0, r0
    28c8:	0a9c2d02 	beq	fe70dcd8 <__bss_end__+0xfe703ce8>
    28cc:	86010000 	strhi	r0, [r1], -r0
    28d0:	00002c01 	andeq	r2, r0, r1, lsl #24
    28d4:	0acb2d00 	beq	ff2cdcdc <__bss_end__+0xff2c3cec>
    28d8:	86010000 	strhi	r0, [r1], -r0
    28dc:	00002c01 	andeq	r2, r0, r1, lsl #24
    28e0:	09000000 	stmdbeq	r0, {}	; <UNPREDICTABLE>
    28e4:	0000012f 	andeq	r0, r0, pc, lsr #2
    28e8:	00001111 	andeq	r1, r0, r1, lsl r1
    28ec:	0000e20a 	andeq	lr, r0, sl, lsl #4
    28f0:	04000c00 	streq	r0, [r0], #-3072	; 0xfffff400
    28f4:	00001101 	andeq	r1, r0, r1, lsl #2
    28f8:	00037530 	andeq	r7, r3, r0, lsr r5
    28fc:	014b0100 	mrseq	r0, (UNDEF: 91)
    2900:	00008af0 	strdeq	r8, [r0], -r0
    2904:	00000094 	muleq	r0, r4, r0
    2908:	12879c01 	addne	r9, r7, #256	; 0x100
    290c:	53310000 	teqpl	r1, #0
    2910:	01004144 	tsteq	r0, r4, asr #2
    2914:	00330150 	eorseq	r0, r3, r0, asr r1
    2918:	31020000 	mrscc	r0, (UNDEF: 2)
    291c:	004c4353 	subeq	r4, ip, r3, asr r3
    2920:	33015101 	movwcc	r5, #4353	; 0x1101
    2924:	03000000 	movweq	r0, #0
    2928:	0100632c 	tsteq	r0, ip, lsr #6
    292c:	09c30159 	stmibeq	r3, {r0, r3, r4, r6, r8}^
    2930:	71280000 			; <UNDEFINED> instruction: 0x71280000
    2934:	97000004 	strls	r0, [r0, -r4]
    2938:	05000012 	streq	r0, [r0, #-18]	; 0xffffffee
    293c:	0098bc03 	addseq	fp, r8, r3, lsl #24
    2940:	11902900 	orrsne	r2, r0, r0, lsl #18
    2944:	5f2a0000 	svcpl	0x002a0000
    2948:	01040075 	tsteq	r4, r5, ror r0
    294c:	11850159 	orrne	r0, r5, r9, asr r1
    2950:	762b0000 	strtvc	r0, [fp], -r0
    2954:	01590100 	cmpeq	r9, r0, lsl #2
    2958:	000009c3 	andeq	r0, r0, r3, asr #19
    295c:	0100752b 	tsteq	r0, fp, lsr #10
    2960:	002c0159 	eoreq	r0, ip, r9, asr r1
    2964:	2c000000 	stccs	0, cr0, [r0], {-0}
    2968:	59010075 	stmdbpl	r1, {r0, r2, r4, r5, r6}
    296c:	00116401 	andseq	r6, r1, r1, lsl #8
    2970:	c3290000 			; <UNDEFINED> instruction: 0xc3290000
    2974:	2a000011 	bcs	29c0 <_start-0x5640>
    2978:	0400755f 	streq	r7, [r0], #-1375	; 0xfffffaa1
    297c:	b8015b01 	stmdalt	r1, {r0, r8, r9, fp, ip, lr}
    2980:	2b000011 	blcs	29cc <_start-0x5634>
    2984:	01007676 	tsteq	r0, r6, ror r6
    2988:	09c3015b 	stmibeq	r3, {r0, r1, r3, r4, r6, r8}^
    298c:	752b0000 	strvc	r0, [fp, #-0]!
    2990:	5b010075 	blpl	42b6c <__bss_end__+0x38b7c>
    2994:	00006d01 	andeq	r6, r0, r1, lsl #26
    2998:	752c0000 	strvc	r0, [ip, #-0]!
    299c:	015b0100 	cmpeq	fp, r0, lsl #2
    29a0:	00001195 	muleq	r0, r5, r1
    29a4:	8af83200 	bhi	ffe0f1ac <__bss_end__+0xffe051bc>
    29a8:	0b300000 	bleq	c029b0 <__bss_end__+0xbf89c0>
    29ac:	fc320000 	ldc2	0, cr0, [r2], #-0
    29b0:	1400008a 	strne	r0, [r0], #-138	; 0xffffff76
    29b4:	3300001b 	movwcc	r0, #27
    29b8:	00008b08 	andeq	r8, r0, r8, lsl #22
    29bc:	00001b1f 	andeq	r1, r0, pc, lsl fp
    29c0:	000011ed 	andeq	r1, r0, sp, ror #3
    29c4:	01500134 	cmpeq	r0, r4, lsr r1
    29c8:	51013432 	tstpl	r1, r2, lsr r4
    29cc:	33003401 	movwcc	r3, #1025	; 0x401
    29d0:	00008b14 	andeq	r8, r0, r4, lsl fp
    29d4:	00001b1f 	andeq	r1, r0, pc, lsl fp
    29d8:	00001205 	andeq	r1, r0, r5, lsl #4
    29dc:	01500134 	cmpeq	r0, r4, lsr r1
    29e0:	51013433 	tstpl	r1, r3, lsr r4
    29e4:	32003401 	andcc	r3, r0, #16777216	; 0x1000000
    29e8:	00008b18 	andeq	r8, r0, r8, lsl fp
    29ec:	00001b14 	andeq	r1, r0, r4, lsl fp
    29f0:	008b2833 	addeq	r2, fp, r3, lsr r8
    29f4:	001b2a00 	andseq	r2, fp, r0, lsl #20
    29f8:	00122900 	andseq	r2, r2, r0, lsl #18
    29fc:	50013400 	andpl	r3, r1, r0, lsl #8
    2a00:	34007402 	strcc	r7, [r0], #-1026	; 0xfffffbfe
    2a04:	0a035101 	beq	d6e10 <__bss_end__+0xcce20>
    2a08:	32008000 	andcc	r8, r0, #0
    2a0c:	00008b2c 	andeq	r8, r0, ip, lsr #22
    2a10:	00001b14 	andeq	r1, r0, r4, lsl fp
    2a14:	008b3032 	addeq	r3, fp, r2, lsr r0
    2a18:	00195800 	andseq	r5, r9, r0, lsl #16
    2a1c:	8b343200 	blhi	d0f224 <__bss_end__+0xd05234>
    2a20:	1b140000 	blne	502a28 <__bss_end__+0x4f8a38>
    2a24:	54320000 	ldrtpl	r0, [r2], #-0
    2a28:	3500008b 	strcc	r0, [r0, #-139]	; 0xffffff75
    2a2c:	3300001b 	movwcc	r0, #27
    2a30:	00008b68 	andeq	r8, r0, r8, ror #22
    2a34:	00001b40 	andeq	r1, r0, r0, asr #22
    2a38:	0000127d 	andeq	r1, r0, sp, ror r2
    2a3c:	05500134 	ldrbeq	r0, [r0, #-308]	; 0xfffffecc
    2a40:	009a1403 	addseq	r1, sl, r3, lsl #8
    2a44:	51013400 	tstpl	r1, r0, lsl #8
    2a48:	98c80305 	stmials	r8, {r0, r2, r8, r9}^
    2a4c:	01340000 	teqeq	r4, r0
    2a50:	bc030552 	cfstr32lt	mvfx0, [r3], {82}	; 0x52
    2a54:	34000098 	strcc	r0, [r0], #-152	; 0xffffff68
    2a58:	0a035301 	beq	d7664 <__bss_end__+0xcd674>
    2a5c:	32000162 	andcc	r0, r0, #-2147483624	; 0x80000018
    2a60:	00008b6c 	andeq	r8, r0, ip, ror #22
    2a64:	00001b4b 	andeq	r1, r0, fp, asr #22
    2a68:	012f0900 			; <UNDEFINED> instruction: 0x012f0900
    2a6c:	12970000 	addsne	r0, r7, #0
    2a70:	e20a0000 	and	r0, sl, #0
    2a74:	08000000 	stmdaeq	r0, {}	; <UNPREDICTABLE>
    2a78:	12870400 	addne	r0, r7, #0, 8
    2a7c:	ea300000 	b	c02a84 <__bss_end__+0xbf8a94>
    2a80:	0100000a 	tsteq	r0, sl
    2a84:	8b840144 	blhi	fe102f9c <__bss_end__+0xfe0f8fac>
    2a88:	00180000 	andseq	r0, r8, r0
    2a8c:	9c010000 	stcls	0, cr0, [r1], {-0}
    2a90:	000012c5 	andeq	r1, r0, r5, asr #5
    2a94:	008b8c32 	addeq	r8, fp, r2, lsr ip
    2a98:	0012c500 	andseq	ip, r2, r0, lsl #10
    2a9c:	8b983200 	blhi	fe60f2a4 <__bss_end__+0xfe6052b4>
    2aa0:	11160000 	tstne	r6, r0
    2aa4:	35000000 	strcc	r0, [r0, #-0]
    2aa8:	00000a2a 	andeq	r0, r0, sl, lsr #20
    2aac:	25014101 	strcs	r4, [r1, #-257]	; 0xfffffeff
    2ab0:	e0000000 	and	r0, r0, r0
    2ab4:	1000008a 	andne	r0, r0, sl, lsl #1
    2ab8:	01000000 	mrseq	r0, (UNDEF: 0)
    2abc:	08aa369c 	stmiaeq	sl!, {r2, r3, r4, r7, r9, sl, ip, sp}
    2ac0:	2e010000 	cdpcs	0, 0, cr0, cr1, cr0, {0}
    2ac4:	00002501 	andeq	r2, r0, r1, lsl #10
    2ac8:	008a2000 	addeq	r2, sl, r0
    2acc:	0000c000 	andeq	ip, r0, r0
    2ad0:	fe9c0100 	cdp2	1, 9, cr0, cr12, cr0, {0}
    2ad4:	37000013 	smladcc	r0, r3, r0, r0
    2ad8:	0000084c 	andeq	r0, r0, ip, asr #16
    2adc:	2c012e01 	stccs	14, cr2, [r1], {1}
    2ae0:	1a000000 	bne	2ae8 <_start-0x5518>
    2ae4:	37000006 	strcc	r0, [r0, -r6]
    2ae8:	0000064d 	andeq	r0, r0, sp, asr #12
    2aec:	fe012e01 	cdp2	14, 0, cr2, cr1, cr1, {0}
    2af0:	3b000013 	blcc	2b44 <_start-0x54bc>
    2af4:	37000006 	strcc	r0, [r0, -r6]
    2af8:	00000b2f 	andeq	r0, r0, pc, lsr #22
    2afc:	2c012e01 	stccs	14, cr2, [r1], {1}
    2b00:	59000000 	stmdbpl	r0, {}	; <UNPREDICTABLE>
    2b04:	28000006 	stmdacs	r0, {r1, r2}
    2b08:	00000471 	andeq	r0, r0, r1, ror r4
    2b0c:	00001297 	muleq	r0, r7, r2
    2b10:	98b00305 	ldmls	r0!, {r0, r2, r8, r9}
    2b14:	38380000 	ldmdacc	r8!, {}	; <UNPREDICTABLE>
    2b18:	8800008a 	stmdahi	r0, {r1, r3, r7}
    2b1c:	d4000000 	strle	r0, [r0], #-0
    2b20:	39000013 	stmdbcc	r0, {r0, r1, r4}
    2b24:	32010069 	andcc	r0, r1, #105	; 0x69
    2b28:	00002c01 	andeq	r2, r0, r1, lsl #24
    2b2c:	00067700 	andeq	r7, r6, r0, lsl #14
    2b30:	8a443200 	bhi	110f338 <__bss_end__+0x1105348>
    2b34:	1b350000 	blne	d42b3c <__bss_end__+0xd38b4c>
    2b38:	58330000 	ldmdapl	r3!, {}	; <UNPREDICTABLE>
    2b3c:	4000008a 	andmi	r0, r0, sl, lsl #1
    2b40:	8800001b 	stmdahi	r0, {r0, r1, r3, r4}
    2b44:	34000013 	strcc	r0, [r0], #-19	; 0xffffffed
    2b48:	03055001 	movweq	r5, #20481	; 0x5001
    2b4c:	000099c0 	andeq	r9, r0, r0, asr #19
    2b50:	05510134 	ldrbeq	r0, [r1, #-308]	; 0xfffffecc
    2b54:	0098c803 	addseq	ip, r8, r3, lsl #16
    2b58:	52013400 	andpl	r3, r1, #0, 8
    2b5c:	98b00305 	ldmls	r0!, {r0, r2, r8, r9}
    2b60:	01340000 	teqeq	r4, r0
    2b64:	340a0353 	strcc	r0, [sl], #-851	; 0xfffffcad
    2b68:	5c320001 	ldcpl	0, cr0, [r2], #-4
    2b6c:	4b00008a 	blmi	2d9c <_start-0x5264>
    2b70:	3200001b 	andcc	r0, r0, #27
    2b74:	00008aa8 	andeq	r8, r0, r8, lsr #21
    2b78:	00001b35 	andeq	r1, r0, r5, lsr fp
    2b7c:	008abc33 	addeq	fp, sl, r3, lsr ip
    2b80:	001b4000 	andseq	r4, fp, r0
    2b84:	0013ca00 	andseq	ip, r3, r0, lsl #20
    2b88:	50013400 	andpl	r3, r1, r0, lsl #8
    2b8c:	99e40305 	stmibls	r4!, {r0, r2, r8, r9}^
    2b90:	01340000 	teqeq	r4, r0
    2b94:	c8030551 	stmdagt	r3, {r0, r4, r6, r8, sl}
    2b98:	34000098 	strcc	r0, [r0], #-152	; 0xffffff68
    2b9c:	03055201 	movweq	r5, #20993	; 0x5201
    2ba0:	000098b0 			; <UNDEFINED> instruction: 0x000098b0
    2ba4:	03530134 	cmpeq	r3, #52, 2
    2ba8:	0001340a 	andeq	r3, r1, sl, lsl #8
    2bac:	008ac032 	addeq	ip, sl, r2, lsr r0
    2bb0:	001b4b00 	andseq	r4, fp, r0, lsl #22
    2bb4:	38330000 	ldmdacc	r3!, {}	; <UNPREDICTABLE>
    2bb8:	7300008a 	movwvc	r0, #138	; 0x8a
    2bbc:	f4000016 	vst4.8	{d0-d3}, [r0 :64], r6
    2bc0:	34000013 	strcc	r0, [r0], #-19	; 0xffffffed
    2bc4:	f3035001 	vhadd.u8	d5, d3, d1
    2bc8:	01345001 	teqeq	r4, r1
    2bcc:	00740251 	rsbseq	r0, r4, r1, asr r2
    2bd0:	01520134 	cmpeq	r2, r4, lsr r1
    2bd4:	c4320031 	ldrtgt	r0, [r2], #-49	; 0xffffffcf
    2bd8:	3c00008a 	stccc	0, cr0, [r0], {138}	; 0x8a
    2bdc:	00000015 	andeq	r0, r0, r5, lsl r0
    2be0:	0054040e 	subseq	r0, r4, lr, lsl #8
    2be4:	73360000 	teqvc	r6, #0
    2be8:	01000001 	tsteq	r0, r1
    2bec:	0025011e 	eoreq	r0, r5, lr, lsl r1
    2bf0:	895c0000 	ldmdbhi	ip, {}^	; <UNPREDICTABLE>
    2bf4:	00c40000 	sbceq	r0, r4, r0
    2bf8:	9c010000 	stcls	0, cr0, [r1], {-0}
    2bfc:	00001527 	andeq	r1, r0, r7, lsr #10
    2c00:	00084c37 	andeq	r4, r8, r7, lsr ip
    2c04:	011e0100 	tsteq	lr, r0, lsl #2
    2c08:	0000002c 	andeq	r0, r0, ip, lsr #32
    2c0c:	000006ac 	andeq	r0, r0, ip, lsr #13
    2c10:	00064d37 	andeq	r4, r6, r7, lsr sp
    2c14:	011e0100 	tsteq	lr, r0, lsl #2
    2c18:	000013fe 	strdeq	r1, [r0], -lr
    2c1c:	000006cd 	andeq	r0, r0, sp, asr #13
    2c20:	000b2f37 	andeq	r2, fp, r7, lsr pc
    2c24:	011e0100 	tsteq	lr, r0, lsl #2
    2c28:	0000002c 	andeq	r0, r0, ip, lsr #32
    2c2c:	000006eb 	andeq	r0, r0, fp, ror #13
    2c30:	00047128 	andeq	r7, r4, r8, lsr #2
    2c34:	00153700 	andseq	r3, r5, r0, lsl #14
    2c38:	a4030500 	strge	r0, [r3], #-1280	; 0xfffffb00
    2c3c:	38000098 	stmdacc	r0, {r3, r4, r7}
    2c40:	00008974 	andeq	r8, r0, r4, ror r9
    2c44:	00000088 	andeq	r0, r0, r8, lsl #1
    2c48:	000014fd 	strdeq	r1, [r0], -sp
    2c4c:	01006939 	tsteq	r0, r9, lsr r9
    2c50:	002c0121 	eoreq	r0, ip, r1, lsr #2
    2c54:	07090000 	streq	r0, [r9, -r0]
    2c58:	80320000 	eorshi	r0, r2, r0
    2c5c:	35000089 	strcc	r0, [r0, #-137]	; 0xffffff77
    2c60:	3300001b 	movwcc	r0, #27
    2c64:	00008994 	muleq	r0, r4, r9
    2c68:	00001b40 	andeq	r1, r0, r0, asr #22
    2c6c:	000014b1 			; <UNDEFINED> instruction: 0x000014b1
    2c70:	05500134 	ldrbeq	r0, [r0, #-308]	; 0xfffffecc
    2c74:	0099c003 	addseq	ip, r9, r3
    2c78:	51013400 	tstpl	r1, r0, lsl #8
    2c7c:	98c80305 	stmials	r8, {r0, r2, r8, r9}^
    2c80:	01340000 	teqeq	r4, r0
    2c84:	a4030552 	strge	r0, [r3], #-1362	; 0xfffffaae
    2c88:	34000098 	strcc	r0, [r0], #-152	; 0xffffff68
    2c8c:	0a035301 	beq	d7898 <__bss_end__+0xcd8a8>
    2c90:	32000123 	andcc	r0, r0, #-1073741816	; 0xc0000008
    2c94:	00008998 	muleq	r0, r8, r9
    2c98:	00001b4b 	andeq	r1, r0, fp, asr #22
    2c9c:	0089e432 	addeq	lr, r9, r2, lsr r4
    2ca0:	001b3500 	andseq	r3, fp, r0, lsl #10
    2ca4:	89f83300 	ldmibhi	r8!, {r8, r9, ip, sp}^
    2ca8:	1b400000 	blne	1002cb0 <__bss_end__+0xff8cc0>
    2cac:	14f30000 	ldrbtne	r0, [r3], #0
    2cb0:	01340000 	teqeq	r4, r0
    2cb4:	e4030550 	str	r0, [r3], #-1360	; 0xfffffab0
    2cb8:	34000099 	strcc	r0, [r0], #-153	; 0xffffff67
    2cbc:	03055101 	movweq	r5, #20737	; 0x5101
    2cc0:	000098c8 	andeq	r9, r0, r8, asr #17
    2cc4:	05520134 	ldrbeq	r0, [r2, #-308]	; 0xfffffecc
    2cc8:	0098a403 	addseq	sl, r8, r3, lsl #8
    2ccc:	53013400 	movwpl	r3, #5120	; 0x1400
    2cd0:	01230a03 			; <UNDEFINED> instruction: 0x01230a03
    2cd4:	89fc3200 	ldmibhi	ip!, {r9, ip, sp}^
    2cd8:	1b4b0000 	blne	12c2ce0 <__bss_end__+0x12b8cf0>
    2cdc:	33000000 	movwcc	r0, #0
    2ce0:	00008974 	andeq	r8, r0, r4, ror r9
    2ce4:	00001673 	andeq	r1, r0, r3, ror r6
    2ce8:	0000151d 	andeq	r1, r0, sp, lsl r5
    2cec:	03500134 	cmpeq	r0, #52, 2
    2cf0:	345001f3 	ldrbcc	r0, [r0], #-499	; 0xfffffe0d
    2cf4:	74025101 	strvc	r5, [r2], #-257	; 0xfffffeff
    2cf8:	52013400 	andpl	r3, r1, #0, 8
    2cfc:	32003001 	andcc	r3, r0, #1
    2d00:	00008a00 	andeq	r8, r0, r0, lsl #20
    2d04:	0000153c 	andeq	r1, r0, ip, lsr r5
    2d08:	012f0900 			; <UNDEFINED> instruction: 0x012f0900
    2d0c:	15370000 	ldrne	r0, [r7, #-0]!
    2d10:	e20a0000 	and	r0, sl, #0
    2d14:	09000000 	stmdbeq	r0, {}	; <UNPREDICTABLE>
    2d18:	15270400 	strne	r0, [r7, #-1024]!	; 0xfffffc00
    2d1c:	ae270000 	cdpge	0, 2, cr0, cr7, cr0, {0}
    2d20:	0100000b 	tsteq	r0, fp
    2d24:	865c0111 			; <UNDEFINED> instruction: 0x865c0111
    2d28:	00f00000 	rscseq	r0, r0, r0
    2d2c:	9c010000 	stcls	0, cr0, [r1], {-0}
    2d30:	00001673 	andeq	r1, r0, r3, ror r6
    2d34:	00047128 	andeq	r7, r4, r8, lsr #2
    2d38:	00129700 	andseq	r9, r2, r0, lsl #14
    2d3c:	8c030500 	cfstr32hi	mvfx0, [r3], {-0}
    2d40:	32000098 	andcc	r0, r0, #152	; 0x98
    2d44:	00008694 	muleq	r0, r4, r6
    2d48:	00001b35 	andeq	r1, r0, r5, lsr fp
    2d4c:	0086a833 	addeq	sl, r6, r3, lsr r8
    2d50:	001b4000 	andseq	r4, fp, r0
    2d54:	00159a00 	andseq	r9, r5, r0, lsl #20
    2d58:	50013400 	andpl	r3, r1, r0, lsl #8
    2d5c:	99e40305 	stmibls	r4!, {r0, r2, r8, r9}^
    2d60:	01340000 	teqeq	r4, r0
    2d64:	c8030551 	stmdagt	r3, {r0, r4, r6, r8, sl}
    2d68:	34000098 	strcc	r0, [r0], #-152	; 0xffffff68
    2d6c:	03055201 	movweq	r5, #20993	; 0x5201
    2d70:	0000988c 	andeq	r9, r0, ip, lsl #17
    2d74:	03530134 	cmpeq	r3, #52, 2
    2d78:	0001130a 	andeq	r1, r1, sl, lsl #6
    2d7c:	0086ac32 	addeq	sl, r6, r2, lsr ip
    2d80:	001b4b00 	andseq	r4, fp, r0, lsl #22
    2d84:	86b03200 	ldrthi	r3, [r0], r0, lsl #4
    2d88:	1b350000 	blne	d42d90 <__bss_end__+0xd38da0>
    2d8c:	c4330000 	ldrtgt	r0, [r3], #-0
    2d90:	40000086 	andmi	r0, r0, r6, lsl #1
    2d94:	dc00001b 	stcle	0, cr0, [r0], {27}
    2d98:	34000015 	strcc	r0, [r0], #-21	; 0xffffffeb
    2d9c:	03055001 	movweq	r5, #20481	; 0x5001
    2da0:	000099c0 	andeq	r9, r0, r0, asr #19
    2da4:	05510134 	ldrbeq	r0, [r1, #-308]	; 0xfffffecc
    2da8:	0098c803 	addseq	ip, r8, r3, lsl #16
    2dac:	52013400 	andpl	r3, r1, #0, 8
    2db0:	988c0305 	stmls	ip, {r0, r2, r8, r9}
    2db4:	01340000 	teqeq	r4, r0
    2db8:	130a0353 	movwne	r0, #41811	; 0xa353
    2dbc:	c8320001 	ldmdagt	r2!, {r0}
    2dc0:	4b000086 	blmi	2fe0 <_start-0x5020>
    2dc4:	3200001b 	andcc	r0, r0, #27
    2dc8:	000086ec 	andeq	r8, r0, ip, ror #13
    2dcc:	00001b14 	andeq	r1, r0, r4, lsl fp
    2dd0:	0086f432 	addeq	pc, r6, r2, lsr r4	; <UNPREDICTABLE>
    2dd4:	001b3500 	andseq	r3, fp, r0, lsl #10
    2dd8:	87083300 	strhi	r3, [r8, -r0, lsl #6]
    2ddc:	1b400000 	blne	1002de4 <__bss_end__+0xff8df4>
    2de0:	16270000 	strtne	r0, [r7], -r0
    2de4:	01340000 	teqeq	r4, r0
    2de8:	14030550 	strne	r0, [r3], #-1360	; 0xfffffab0
    2dec:	3400009a 	strcc	r0, [r0], #-154	; 0xffffff66
    2df0:	03055101 	movweq	r5, #20737	; 0x5101
    2df4:	000098c8 	andeq	r9, r0, r8, asr #17
    2df8:	05520134 	ldrbeq	r0, [r2, #-308]	; 0xfffffecc
    2dfc:	00988c03 	addseq	r8, r8, r3, lsl #24
    2e00:	53013400 	movwpl	r3, #5120	; 0x1400
    2e04:	01160a03 	tsteq	r6, r3, lsl #20
    2e08:	870c3200 	strhi	r3, [ip, -r0, lsl #4]
    2e0c:	1b4b0000 	blne	12c2e14 <__bss_end__+0x12b8e24>
    2e10:	10320000 	eorsne	r0, r2, r0
    2e14:	35000087 	strcc	r0, [r0, #-135]	; 0xffffff79
    2e18:	3300001b 	movwcc	r0, #27
    2e1c:	00008724 	andeq	r8, r0, r4, lsr #14
    2e20:	00001b40 	andeq	r1, r0, r0, asr #22
    2e24:	00001669 	andeq	r1, r0, r9, ror #12
    2e28:	05500134 	ldrbeq	r0, [r0, #-308]	; 0xfffffecc
    2e2c:	009a3803 	addseq	r3, sl, r3, lsl #16
    2e30:	51013400 	tstpl	r1, r0, lsl #8
    2e34:	98c80305 	stmials	r8, {r0, r2, r8, r9}^
    2e38:	01340000 	teqeq	r4, r0
    2e3c:	8c030552 	cfstr32hi	mvfx0, [r3], {82}	; 0x52
    2e40:	34000098 	strcc	r0, [r0], #-152	; 0xffffff68
    2e44:	0a035301 	beq	d7a50 <__bss_end__+0xcda60>
    2e48:	32000118 	andcc	r0, r0, #24, 2
    2e4c:	00008728 	andeq	r8, r0, r8, lsr #14
    2e50:	00001b4b 	andeq	r1, r0, fp, asr #22
    2e54:	0b8c3a00 	bleq	fe31165c <__bss_end__+0xfe30766c>
    2e58:	ef010000 	svc	0x00010000
    2e5c:	00008794 	muleq	r0, r4, r7
    2e60:	000001c8 	andeq	r0, r0, r8, asr #3
    2e64:	19439c01 	stmdbne	r3, {r0, sl, fp, ip, pc}^
    2e68:	4c3b0000 	ldcmi	0, cr0, [fp], #-0
    2e6c:	01000008 	tsteq	r0, r8
    2e70:	00002cef 	andeq	r2, r0, pc, ror #25
    2e74:	00073e00 	andeq	r3, r7, r0, lsl #28
    2e78:	0b2f3b00 	bleq	bd1a80 <__bss_end__+0xbc7a90>
    2e7c:	ef010000 	svc	0x00010000
    2e80:	0000002c 	andeq	r0, r0, ip, lsr #32
    2e84:	0000075c 	andeq	r0, r0, ip, asr r7
    2e88:	000ab63b 	andeq	fp, sl, fp, lsr r6
    2e8c:	25ef0100 	strbcs	r0, [pc, #256]!	; 2f94 <_start-0x506c>
    2e90:	a1000000 	mrsge	r0, (UNDEF: 0)
    2e94:	28000007 	stmdacs	r0, {r0, r1, r2}
    2e98:	00000471 	andeq	r0, r0, r1, ror r4
    2e9c:	00001953 	andeq	r1, r0, r3, asr r9
    2ea0:	98980305 	ldmls	r8, {r0, r2, r8, r9}
    2ea4:	63390000 	teqvs	r9, #0
    2ea8:	01020100 	mrseq	r0, (UNDEF: 18)
    2eac:	000009c3 	andeq	r0, r0, r3, asr #19
    2eb0:	000007bf 			; <UNDEFINED> instruction: 0x000007bf
    2eb4:	00170529 	andseq	r0, r7, r9, lsr #10
    2eb8:	755f2a00 	ldrbvc	r2, [pc, #-2560]	; 24c0 <_start-0x5b40>
    2ebc:	06010400 	streq	r0, [r1], -r0, lsl #8
    2ec0:	0016fa01 	andseq	pc, r6, r1, lsl #20
    2ec4:	76762b00 	ldrbtvc	r2, [r6], -r0, lsl #22
    2ec8:	01060100 	mrseq	r0, (UNDEF: 22)
    2ecc:	000009c3 	andeq	r0, r0, r3, asr #19
    2ed0:	0075752b 	rsbseq	r7, r5, fp, lsr #10
    2ed4:	6d010601 	stcvs	6, cr0, [r1, #-4]
    2ed8:	00000000 	andeq	r0, r0, r0
    2edc:	0100752c 	tsteq	r0, ip, lsr #10
    2ee0:	16d70106 	ldrbne	r0, [r7], r6, lsl #2
    2ee4:	32000000 	andcc	r0, r0, #0
    2ee8:	000087a8 	andeq	r8, r0, r8, lsr #15
    2eec:	00001b14 	andeq	r1, r0, r4, lsl fp
    2ef0:	0087dc32 	addeq	sp, r7, r2, lsr ip
    2ef4:	001b3500 	andseq	r3, fp, r0, lsl #10
    2ef8:	87f03300 	ldrbhi	r3, [r0, r0, lsl #6]!
    2efc:	1b400000 	blne	1002f04 <__bss_end__+0xff8f14>
    2f00:	17460000 	strbne	r0, [r6, -r0]
    2f04:	01340000 	teqeq	r4, r0
    2f08:	e4030550 	str	r0, [r3], #-1360	; 0xfffffab0
    2f0c:	34000099 	strcc	r0, [r0], #-153	; 0xffffff67
    2f10:	03055101 	movweq	r5, #20737	; 0x5101
    2f14:	000098c8 	andeq	r9, r0, r8, asr #17
    2f18:	05520134 	ldrbeq	r0, [r2, #-308]	; 0xfffffecc
    2f1c:	00989803 	addseq	r9, r8, r3, lsl #16
    2f20:	53013400 	movwpl	r3, #5120	; 0x1400
    2f24:	00f30802 	rscseq	r0, r3, r2, lsl #16
    2f28:	0087f432 	addeq	pc, r7, r2, lsr r4	; <UNPREDICTABLE>
    2f2c:	001b4b00 	andseq	r4, fp, r0, lsl #22
    2f30:	87f83200 	ldrbhi	r3, [r8, r0, lsl #4]!
    2f34:	1b350000 	blne	d42f3c <__bss_end__+0xd38f4c>
    2f38:	0c330000 	ldceq	0, cr0, [r3], #-0
    2f3c:	40000088 	andmi	r0, r0, r8, lsl #1
    2f40:	8700001b 	smladhi	r0, fp, r0, r0
    2f44:	34000017 	strcc	r0, [r0], #-23	; 0xffffffe9
    2f48:	03055001 	movweq	r5, #20481	; 0x5001
    2f4c:	000099c0 	andeq	r9, r0, r0, asr #19
    2f50:	05510134 	ldrbeq	r0, [r1, #-308]	; 0xfffffecc
    2f54:	0098c803 	addseq	ip, r8, r3, lsl #16
    2f58:	52013400 	andpl	r3, r1, #0, 8
    2f5c:	98980305 	ldmls	r8, {r0, r2, r8, r9}
    2f60:	01340000 	teqeq	r4, r0
    2f64:	f3080253 	vqsub.u8	q0, q4, <illegal reg q1.5>
    2f68:	88103200 	ldmdahi	r0, {r9, ip, sp}
    2f6c:	1b4b0000 	blne	12c2f74 <__bss_end__+0x12b8f84>
    2f70:	24320000 	ldrtcs	r0, [r2], #-0
    2f74:	58000088 	stmdapl	r0, {r3, r7}
    2f78:	33000019 	movwcc	r0, #25
    2f7c:	00008838 	andeq	r8, r0, r8, lsr r8
    2f80:	00001b2a 	andeq	r1, r0, sl, lsr #22
    2f84:	000017b6 			; <UNDEFINED> instruction: 0x000017b6
    2f88:	05500134 	ldrbeq	r0, [r0, #-308]	; 0xfffffecc
    2f8c:	80400c0c 	subhi	r0, r0, ip, lsl #24
    2f90:	51013420 	tstpl	r1, r0, lsr #8
    2f94:	00007602 	andeq	r7, r0, r2, lsl #12
    2f98:	00884c33 	addeq	r4, r8, r3, lsr ip
    2f9c:	001b2a00 	andseq	r2, fp, r0, lsl #20
    2fa0:	0017d300 	andseq	sp, r7, r0, lsl #6
    2fa4:	50013400 	andpl	r3, r1, r0, lsl #8
    2fa8:	40080c05 	andmi	r0, r8, r5, lsl #24
    2fac:	01342080 	teqeq	r4, r0, lsl #1
    2fb0:	00750251 	rsbseq	r0, r5, r1, asr r2
    2fb4:	88583300 	ldmdahi	r8, {r8, r9, ip, sp}^
    2fb8:	1a710000 	bne	1c42fc0 <__bss_end__+0x1c38fd0>
    2fbc:	17e70000 	strbne	r0, [r7, r0]!
    2fc0:	01340000 	teqeq	r4, r0
    2fc4:	00750250 	rsbseq	r0, r5, r0, asr r2
    2fc8:	88703300 	ldmdahi	r0!, {r8, r9, ip, sp}^
    2fcc:	1b2a0000 	blne	a82fd4 <__bss_end__+0xa78fe4>
    2fd0:	17fb0000 	ldrbne	r0, [fp, r0]!
    2fd4:	01340000 	teqeq	r4, r0
    2fd8:	00750250 	rsbseq	r0, r5, r0, asr r2
    2fdc:	88a43200 	stmiahi	r4!, {r9, ip, sp}
    2fe0:	1b350000 	blne	d42fe8 <__bss_end__+0xd38ff8>
    2fe4:	b8330000 	ldmdalt	r3!, {}	; <UNPREDICTABLE>
    2fe8:	40000088 	andmi	r0, r0, r8, lsl #1
    2fec:	3400001b 	strcc	r0, [r0], #-27	; 0xffffffe5
    2ff0:	34000018 	strcc	r0, [r0], #-24	; 0xffffffe8
    2ff4:	03055001 	movweq	r5, #20481	; 0x5001
    2ff8:	000099e4 	andeq	r9, r0, r4, ror #19
    2ffc:	05510134 	ldrbeq	r0, [r1, #-308]	; 0xfffffecc
    3000:	0098c803 	addseq	ip, r8, r3, lsl #16
    3004:	52013400 	andpl	r3, r1, #0, 8
    3008:	98980305 	ldmls	r8, {r0, r2, r8, r9}
    300c:	01340000 	teqeq	r4, r0
    3010:	0e0a0353 	mcreq	3, 0, r0, cr10, cr3, {2}
    3014:	bc320001 	ldclt	0, cr0, [r2], #-4
    3018:	4b000088 	blmi	3240 <_start-0x4dc0>
    301c:	3200001b 	andcc	r0, r0, #27
    3020:	000088c0 	andeq	r8, r0, r0, asr #17
    3024:	00001b35 	andeq	r1, r0, r5, lsr fp
    3028:	0088d433 	addeq	sp, r8, r3, lsr r4
    302c:	001b4000 	andseq	r4, fp, r0
    3030:	00187500 	andseq	r7, r8, r0, lsl #10
    3034:	50013400 	andpl	r3, r1, r0, lsl #8
    3038:	9a5c0305 	bls	1703c54 <__bss_end__+0x16f9c64>
    303c:	01340000 	teqeq	r4, r0
    3040:	c8030551 	stmdagt	r3, {r0, r4, r6, r8, sl}
    3044:	34000098 	strcc	r0, [r0], #-152	; 0xffffff68
    3048:	03055201 	movweq	r5, #20993	; 0x5201
    304c:	00009898 	muleq	r0, r8, r8
    3050:	02530134 	subseq	r0, r3, #52, 2
    3054:	3200f608 	andcc	pc, r0, #8, 12	; 0x800000
    3058:	000088d8 	ldrdeq	r8, [r0], -r8	; <UNPREDICTABLE>
    305c:	00001b4b 	andeq	r1, r0, fp, asr #22
    3060:	0088dc32 	addeq	sp, r8, r2, lsr ip
    3064:	001b3500 	andseq	r3, fp, r0, lsl #10
    3068:	88f03300 	ldmhi	r0!, {r8, r9, ip, sp}^
    306c:	1b400000 	blne	1003074 <__bss_end__+0xff9084>
    3070:	18b60000 	ldmne	r6!, {}	; <UNPREDICTABLE>
    3074:	01340000 	teqeq	r4, r0
    3078:	84030550 	strhi	r0, [r3], #-1360	; 0xfffffab0
    307c:	3400009a 	strcc	r0, [r0], #-154	; 0xffffff66
    3080:	03055101 	movweq	r5, #20737	; 0x5101
    3084:	000098c8 	andeq	r9, r0, r8, asr #17
    3088:	05520134 	ldrbeq	r0, [r2, #-308]	; 0xfffffecc
    308c:	00989803 	addseq	r9, r8, r3, lsl #16
    3090:	53013400 	movwpl	r3, #5120	; 0x1400
    3094:	00fb0802 	rscseq	r0, fp, r2, lsl #16
    3098:	0088f432 	addeq	pc, r8, r2, lsr r4	; <UNPREDICTABLE>
    309c:	001b4b00 	andseq	r4, fp, r0, lsl #22
    30a0:	88f83200 	ldmhi	r8!, {r9, ip, sp}^
    30a4:	1b350000 	blne	d430ac <__bss_end__+0xd390bc>
    30a8:	0c330000 	ldceq	0, cr0, [r3], #-0
    30ac:	40000089 	andmi	r0, r0, r9, lsl #1
    30b0:	f700001b 			; <UNDEFINED> instruction: 0xf700001b
    30b4:	34000018 	strcc	r0, [r0], #-24	; 0xffffffe8
    30b8:	03055001 	movweq	r5, #20481	; 0x5001
    30bc:	00009aa8 	andeq	r9, r0, r8, lsr #21
    30c0:	05510134 	ldrbeq	r0, [r1, #-308]	; 0xfffffecc
    30c4:	0098c803 	addseq	ip, r8, r3, lsl #16
    30c8:	52013400 	andpl	r3, r1, #0, 8
    30cc:	98980305 	ldmls	r8, {r0, r2, r8, r9}
    30d0:	01340000 	teqeq	r4, r0
    30d4:	ff080253 			; <UNDEFINED> instruction: 0xff080253
    30d8:	89103200 	ldmdbhi	r0, {r9, ip, sp}
    30dc:	1b4b0000 	blne	12c30e4 <__bss_end__+0x12b90f4>
    30e0:	14320000 	ldrtne	r0, [r2], #-0
    30e4:	35000089 	strcc	r0, [r0, #-137]	; 0xffffff77
    30e8:	3300001b 	movwcc	r0, #27
    30ec:	00008928 	andeq	r8, r0, r8, lsr #18
    30f0:	00001b40 	andeq	r1, r0, r0, asr #22
    30f4:	00001939 	andeq	r1, r0, r9, lsr r9
    30f8:	05500134 	ldrbeq	r0, [r0, #-308]	; 0xfffffecc
    30fc:	0099c003 	addseq	ip, r9, r3
    3100:	51013400 	tstpl	r1, r0, lsl #8
    3104:	98c80305 	stmials	r8, {r0, r2, r8, r9}^
    3108:	01340000 	teqeq	r4, r0
    310c:	98030552 	stmdals	r3, {r1, r4, r6, r8, sl}
    3110:	34000098 	strcc	r0, [r0], #-152	; 0xffffff68
    3114:	0a035301 	beq	d7d20 <__bss_end__+0xcdd30>
    3118:	3200010e 	andcc	r0, r0, #-2147483645	; 0x80000003
    311c:	0000892c 	andeq	r8, r0, ip, lsr #18
    3120:	00001b4b 	andeq	r1, r0, fp, asr #22
    3124:	012f0900 			; <UNDEFINED> instruction: 0x012f0900
    3128:	19530000 	ldmdbne	r3, {}^	; <UNPREDICTABLE>
    312c:	e20a0000 	and	r0, sl, #0
    3130:	0a000000 	beq	3138 <_start-0x4ec8>
    3134:	19430400 	stmdbne	r3, {sl}^
    3138:	dd3a0000 	ldcle	0, cr0, [sl, #-0]
    313c:	0100000a 	tsteq	r0, sl
    3140:	00875ce4 	addeq	r5, r7, r4, ror #25
    3144:	00002800 	andeq	r2, r0, r0, lsl #16
    3148:	ce9c0100 	fmlgte	f0, f4, f0
    314c:	3c000019 	stccc	0, cr0, [r0], {25}
    3150:	e5010073 	str	r0, [r1, #-115]	; 0xffffff8d
    3154:	00000a80 	andeq	r0, r0, r0, lsl #21
    3158:	000007d2 	ldrdeq	r0, [r0], -r2
    315c:	0019a929 	andseq	sl, r9, r9, lsr #18
    3160:	755f3d00 	ldrbvc	r3, [pc, #-3328]	; 2468 <_start-0x5b98>
    3164:	ec010400 	cfstrs	mvf0, [r1], {-0}
    3168:	0000199f 	muleq	r0, pc, r9	; <UNPREDICTABLE>
    316c:	0076763e 	rsbseq	r7, r6, lr, lsr r6
    3170:	0a80ec01 	beq	fe03e17c <__bss_end__+0xfe03418c>
    3174:	753e0000 	ldrvc	r0, [lr, #-0]!
    3178:	ec010075 	stc	0, cr0, [r1], {117}	; 0x75
    317c:	0000006d 	andeq	r0, r0, sp, rrx
    3180:	00752500 	rsbseq	r2, r5, r0, lsl #10
    3184:	197fec01 	ldmdbne	pc!, {r0, sl, fp, sp, lr, pc}^	; <UNPREDICTABLE>
    3188:	33000000 	movwcc	r0, #0
    318c:	0000876c 	andeq	r8, r0, ip, ror #14
    3190:	000019ce 	andeq	r1, r0, lr, asr #19
    3194:	000019bd 			; <UNDEFINED> instruction: 0x000019bd
    3198:	02500134 	subseq	r0, r0, #52, 2
    319c:	3f000074 	svccc	0x00000074
    31a0:	0000877c 	andeq	r8, r0, ip, ror r7
    31a4:	00001b2a 	andeq	r1, r0, sl, lsr #22
    31a8:	02500134 	subseq	r0, r0, #52, 2
    31ac:	00000074 	andeq	r0, r0, r4, ror r0
    31b0:	000aaf40 	andeq	sl, sl, r0, asr #30
    31b4:	80b50100 	adcshi	r0, r5, r0, lsl #2
    31b8:	4c00000a 	stcmi	0, cr0, [r0], {10}
    31bc:	10000087 	andne	r0, r0, r7, lsl #1
    31c0:	01000000 	mrseq	r0, (UNDEF: 0)
    31c4:	001a449c 	mulseq	sl, ip, r4
    31c8:	00734100 	rsbseq	r4, r3, r0, lsl #2
    31cc:	1a44b501 	bne	11305d8 <__bss_end__+0x11265e8>
    31d0:	07e50000 	strbeq	r0, [r5, r0]!
    31d4:	50380000 	eorspl	r0, r8, r0
    31d8:	04000087 	streq	r0, [r0], #-135	; 0xffffff79
    31dc:	3a000000 	bcc	31e4 <_start-0x4e1c>
    31e0:	3d00001a 	stccc	0, cr0, [r0, #-104]	; 0xffffff98
    31e4:	0400755f 	streq	r7, [r0], #-1375	; 0xfffffaa1
    31e8:	1a1fb601 	bne	7f09f4 <__bss_end__+0x7e6a04>
    31ec:	763e0000 	ldrtvc	r0, [lr], -r0
    31f0:	8bb60100 	blhi	fed835f8 <__bss_end__+0xfed79608>
    31f4:	3e00000a 	cdpcc	0, 0, cr0, cr0, cr10, {0}
    31f8:	b6010075 			; <UNDEFINED> instruction: 0xb6010075
    31fc:	0000002c 	andeq	r0, r0, ip, lsr #32
    3200:	00752500 	rsbseq	r2, r5, r0, lsl #10
    3204:	1a01b601 	bne	70a10 <__bss_end__+0x66a20>
    3208:	543f0000 	ldrtpl	r0, [pc], #-0	; 3210 <_start-0x4df0>
    320c:	56000087 	strpl	r0, [r0], -r7, lsl #1
    3210:	3400001b 	strcc	r0, [r0], #-27	; 0xffffffe5
    3214:	f3035001 	vhadd.u8	d5, d3, d1
    3218:	00005001 	andeq	r5, r0, r1
    321c:	00875832 	addeq	r5, r7, r2, lsr r8
    3220:	001a4a00 	andseq	r4, sl, r0, lsl #20
    3224:	040e0000 	streq	r0, [lr], #-0
    3228:	00000a8b 	andeq	r0, r0, fp, lsl #21
    322c:	000c0140 	andeq	r0, ip, r0, asr #2
    3230:	80b10100 	adcshi	r0, r1, r0, lsl #2
    3234:	4800000a 	stmdami	r0, {r1, r3}
    3238:	0c000086 	stceq	0, cr0, [r0], {134}	; 0x86
    323c:	01000000 	mrseq	r0, (UNDEF: 0)
    3240:	001a719c 	mulseq	sl, ip, r1
    3244:	00734100 	rsbseq	r4, r3, r0, lsl #2
    3248:	0a80b101 	beq	fe02f654 <__bss_end__+0xfe025664>
    324c:	08060000 	stmdaeq	r6, {}	; <UNPREDICTABLE>
    3250:	40000000 	andmi	r0, r0, r0
    3254:	00000aa8 	andeq	r0, r0, r8, lsr #21
    3258:	09c37b01 	stmibeq	r3, {r0, r8, r9, fp, ip, sp, lr}^
    325c:	87840000 	strhi	r0, [r4, r0]
    3260:	00100000 	andseq	r0, r0, r0
    3264:	9c010000 	stcls	0, cr0, [r1], {-0}
    3268:	00001ae7 	andeq	r1, r0, r7, ror #21
    326c:	01006341 	tsteq	r0, r1, asr #6
    3270:	001ae77b 	andseq	lr, sl, fp, ror r7
    3274:	00081900 	andeq	r1, r8, r0, lsl #18
    3278:	87883800 	strhi	r3, [r8, r0, lsl #16]
    327c:	00040000 	andeq	r0, r4, r0
    3280:	1add0000 	bne	ff743288 <__bss_end__+0xff739298>
    3284:	5f3d0000 	svcpl	0x003d0000
    3288:	01040075 	tsteq	r4, r5, ror r0
    328c:	001ac27c 	andseq	ip, sl, ip, ror r2
    3290:	00763e00 	rsbseq	r3, r6, r0, lsl #28
    3294:	09ce7c01 	stmibeq	lr, {r0, sl, fp, ip, sp, lr}^
    3298:	753e0000 	ldrvc	r0, [lr, #-0]!
    329c:	2c7c0100 	ldfcse	f0, [ip], #-0
    32a0:	00000000 	andeq	r0, r0, r0
    32a4:	01007525 	tsteq	r0, r5, lsr #10
    32a8:	001aa47c 	andseq	sl, sl, ip, ror r4
    32ac:	878c3f00 	strhi	r3, [ip, r0, lsl #30]
    32b0:	1b560000 	blne	15832b8 <__bss_end__+0x15792c8>
    32b4:	01340000 	teqeq	r4, r0
    32b8:	01f30350 	mvnseq	r0, r0, asr r3
    32bc:	32000050 	andcc	r0, r0, #80	; 0x50
    32c0:	00008790 	muleq	r0, r0, r7
    32c4:	00001aed 	andeq	r1, r0, sp, ror #21
    32c8:	ce040e00 	cdpgt	14, 0, cr0, cr4, cr0, {0}
    32cc:	40000009 	andmi	r0, r0, r9
    32d0:	00000bbd 			; <UNDEFINED> instruction: 0x00000bbd
    32d4:	09c37401 	stmibeq	r3, {r0, sl, ip, sp, lr}^
    32d8:	86340000 	ldrthi	r0, [r4], -r0
    32dc:	00140000 	andseq	r0, r4, r0
    32e0:	9c010000 	stcls	0, cr0, [r1], {-0}
    32e4:	00001b14 	andeq	r1, r0, r4, lsl fp
    32e8:	01006341 	tsteq	r0, r1, asr #6
    32ec:	0009c374 	andeq	ip, r9, r4, ror r3
    32f0:	00083a00 	andeq	r3, r8, r0, lsl #20
    32f4:	4f420000 	svcmi	0x00420000
    32f8:	4f000004 	svcmi	0x00000004
    32fc:	07000004 	streq	r0, [r0, -r4]
    3300:	0a6c4289 	beq	1b13d2c <__bss_end__+0x1b09d3c>
    3304:	0a6c0000 	beq	1b0330c <__bss_end__+0x1af931c>
    3308:	19080000 	stmdbne	r8, {}	; <UNPREDICTABLE>
    330c:	000b4f42 	andeq	r4, fp, r2, asr #30
    3310:	000b4f00 	andeq	r4, fp, r0, lsl #30
    3314:	429c0700 	addsmi	r0, ip, #0, 14
    3318:	00000385 	andeq	r0, r0, r5, lsl #7
    331c:	00000385 	andeq	r0, r0, r5, lsl #7
    3320:	21421e07 	cmpcs	r2, r7, lsl #28
    3324:	2100000c 	tstcs	r0, ip
    3328:	0700000c 	streq	r0, [r0, -ip]
    332c:	06864229 	streq	r4, [r6], r9, lsr #4
    3330:	06860000 	streq	r0, [r6], r0
    3334:	65070000 	strvs	r0, [r7, #-0]
    3338:	000ba842 	andeq	sl, fp, r2, asr #16
    333c:	000ba800 	andeq	sl, fp, r0, lsl #16
    3340:	00a80700 	adceq	r0, r8, r0, lsl #14
    3344:	0000098e 	andeq	r0, r0, lr, lsl #19
    3348:	06e80004 	strbteq	r0, [r8], r4
    334c:	01040000 	mrseq	r0, (UNDEF: 4)
    3350:	00000c37 	andeq	r0, r0, r7, lsr ip
    3354:	000cba0c 	andeq	fp, ip, ip, lsl #20
    3358:	000c9e00 	andeq	r9, ip, r0, lsl #28
    335c:	008b9c00 	addeq	r9, fp, r0, lsl #24
    3360:	00005800 	andeq	r5, r0, r0, lsl #16
    3364:	00041b00 	andeq	r1, r4, r0, lsl #22
    3368:	0c280200 	sfmeq	f0, 4, [r8], #-0
    336c:	28020000 	stmdacs	r2, {}	; <UNPREDICTABLE>
    3370:	00000030 	andeq	r0, r0, r0, lsr r0
    3374:	000c1403 	andeq	r1, ip, r3, lsl #8
    3378:	00070400 	andeq	r0, r7, r0, lsl #8
    337c:	00000047 	andeq	r0, r0, r7, asr #32
    3380:	000c9904 	andeq	r9, ip, r4, lsl #18
    3384:	00004700 	andeq	r4, r0, r0, lsl #14
    3388:	05000000 	streq	r0, [r0, #-0]
    338c:	0c160204 	lfmeq	f0, 4, [r6], {4}
    3390:	63020000 	movwvs	r0, #8192	; 0x2000
    3394:	00000025 	andeq	r0, r0, r5, lsr #32
    3398:	69050406 	stmdbvs	r5, {r1, r2, sl}
    339c:	0700746e 	streq	r7, [r0, -lr, ror #8]
    33a0:	014a0704 	cmpeq	sl, r4, lsl #14
    33a4:	01070000 	mrseq	r0, (UNDEF: 7)
    33a8:	00062006 	andeq	r2, r6, r6
    33ac:	05020700 	streq	r0, [r2, #-1792]	; 0xfffff900
    33b0:	0000066b 	andeq	r0, r0, fp, ror #12
    33b4:	c8050407 	stmdagt	r5, {r0, r1, r2, sl}
    33b8:	07000001 	streq	r0, [r0, -r1]
    33bc:	01c30508 	biceq	r0, r3, r8, lsl #10
    33c0:	01070000 	mrseq	r0, (UNDEF: 7)
    33c4:	00061e08 	andeq	r1, r6, r8, lsl #28
    33c8:	07020700 	streq	r0, [r2, -r0, lsl #14]
    33cc:	0000041a 	andeq	r0, r0, sl, lsl r4
    33d0:	45070407 	strmi	r0, [r7, #-1031]	; 0xfffffbf9
    33d4:	07000001 	streq	r0, [r0, -r1]
    33d8:	01400708 	cmpeq	r0, r8, lsl #14
    33dc:	e2020000 	and	r0, r2, #0
    33e0:	03000005 	movweq	r0, #5
    33e4:	00005407 	andeq	r5, r0, r7, lsl #8
    33e8:	059e0200 	ldreq	r0, [lr, #512]	; 0x200
    33ec:	2c040000 	stccs	0, cr0, [r4], {-0}
    33f0:	00000070 	andeq	r0, r0, r0, ror r0
    33f4:	00076902 	andeq	r6, r7, r2, lsl #18
    33f8:	70720400 	rsbsvc	r0, r2, r0, lsl #8
    33fc:	08000000 	stmdaeq	r0, {}	; <UNPREDICTABLE>
    3400:	0000047e 	andeq	r0, r0, lr, ror r4
    3404:	5b016505 	blpl	5c820 <__bss_end__+0x52830>
    3408:	09000000 	stmdbeq	r0, {}	; <UNPREDICTABLE>
    340c:	e6a60404 	strt	r0, [r6], r4, lsl #8
    3410:	0a000000 	beq	3418 <_start-0x4be8>
    3414:	0000046b 	andeq	r0, r0, fp, ror #8
    3418:	00bba804 	adcseq	sl, fp, r4, lsl #16
    341c:	7e0a0000 	cdpvc	0, 0, cr0, cr10, cr0, {0}
    3420:	04000003 	streq	r0, [r0], #-3
    3424:	0000e6a9 	andeq	lr, r0, r9, lsr #13
    3428:	7e0b0000 	cdpvc	0, 0, cr0, cr11, cr0, {0}
    342c:	f6000000 			; <UNDEFINED> instruction: 0xf6000000
    3430:	0c000000 	stceq	0, cr0, [r0], {-0}
    3434:	000000f6 	strdeq	r0, [r0], -r6
    3438:	04070003 	streq	r0, [r7], #-3
    343c:	00050e07 	andeq	r0, r5, r7, lsl #28
    3440:	04080d00 	streq	r0, [r8], #-3328	; 0xfffff300
    3444:	00011ea3 	andeq	r1, r1, r3, lsr #29
    3448:	07450e00 	strbeq	r0, [r5, -r0, lsl #28]
    344c:	a5040000 	strge	r0, [r4, #-0]
    3450:	00000054 	andeq	r0, r0, r4, asr r0
    3454:	07ec0e00 	strbeq	r0, [ip, r0, lsl #28]!
    3458:	aa040000 	bge	103460 <__bss_end__+0xf9470>
    345c:	000000c7 	andeq	r0, r0, r7, asr #1
    3460:	a0020004 	andge	r0, r2, r4
    3464:	04000006 	streq	r0, [r0], #-6
    3468:	0000fdab 	andeq	pc, r0, fp, lsr #27
    346c:	031c0200 	tsteq	ip, #0, 4
    3470:	af040000 	svcge	0x00040000
    3474:	0000009a 	muleq	r0, sl, r0
    3478:	013a040f 	teqeq	sl, pc, lsl #8
    347c:	01070000 	mrseq	r0, (UNDEF: 7)
    3480:	00062708 	andeq	r2, r6, r8, lsl #14
    3484:	013a1000 	teqeq	sl, r0
    3488:	26020000 	strcs	r0, [r2], -r0
    348c:	06000008 	streq	r0, [r0], -r8
    3490:	00008c16 	andeq	r8, r0, r6, lsl ip
    3494:	032d0300 			; <UNDEFINED> instruction: 0x032d0300
    3498:	06180000 	ldreq	r0, [r8], -r0
    349c:	0001a42d 	andeq	sl, r1, sp, lsr #8
    34a0:	06d10e00 	ldrbeq	r0, [r1], r0, lsl #28
    34a4:	2f060000 	svccs	0x00060000
    34a8:	000001a4 	andeq	r0, r0, r4, lsr #3
    34ac:	6b5f1100 	blvs	17c78b4 <__bss_end__+0x17bd8c4>
    34b0:	54300600 	ldrtpl	r0, [r0], #-1536	; 0xfffffa00
    34b4:	04000000 	streq	r0, [r0], #-0
    34b8:	00071e0e 	andeq	r1, r7, lr, lsl #28
    34bc:	54300600 	ldrtpl	r0, [r0], #-1536	; 0xfffffa00
    34c0:	08000000 	stmdaeq	r0, {}	; <UNPREDICTABLE>
    34c4:	0003160e 	andeq	r1, r3, lr, lsl #12
    34c8:	54300600 	ldrtpl	r0, [r0], #-1536	; 0xfffffa00
    34cc:	0c000000 	stceq	0, cr0, [r0], {-0}
    34d0:	0008c50e 	andeq	ip, r8, lr, lsl #10
    34d4:	54300600 	ldrtpl	r0, [r0], #-1536	; 0xfffffa00
    34d8:	10000000 	andne	r0, r0, r0
    34dc:	00785f11 	rsbseq	r5, r8, r1, lsl pc
    34e0:	01aa3106 			; <UNDEFINED> instruction: 0x01aa3106
    34e4:	00140000 	andseq	r0, r4, r0
    34e8:	0151040f 	cmpeq	r1, pc, lsl #8
    34ec:	460b0000 	strmi	r0, [fp], -r0
    34f0:	ba000001 	blt	34fc <_start-0x4b04>
    34f4:	0c000001 	stceq	0, cr0, [r0], {1}
    34f8:	000000f6 	strdeq	r0, [r0], -r6
    34fc:	70030000 	andvc	r0, r3, r0
    3500:	24000003 	strcs	r0, [r0], #-3
    3504:	02333506 	eorseq	r3, r3, #25165824	; 0x1800000
    3508:	ba0e0000 	blt	383510 <__bss_end__+0x379520>
    350c:	06000001 	streq	r0, [r0], -r1
    3510:	00005437 	andeq	r5, r0, r7, lsr r4
    3514:	910e0000 	mrsls	r0, (UNDEF: 14)
    3518:	06000007 	streq	r0, [r0], -r7
    351c:	00005438 	andeq	r5, r0, r8, lsr r4
    3520:	040e0400 	streq	r0, [lr], #-1024	; 0xfffffc00
    3524:	06000002 	streq	r0, [r0], -r2
    3528:	00005439 	andeq	r5, r0, r9, lsr r4
    352c:	d90e0800 	stmdble	lr, {fp}
    3530:	06000009 	streq	r0, [r0], -r9
    3534:	0000543a 	andeq	r5, r0, sl, lsr r4
    3538:	630e0c00 	movwvs	r0, #60416	; 0xec00
    353c:	06000005 	streq	r0, [r0], -r5
    3540:	0000543b 	andeq	r5, r0, fp, lsr r4
    3544:	d10e1000 	mrsle	r1, (UNDEF: 14)
    3548:	06000004 	streq	r0, [r0], -r4
    354c:	0000543c 	andeq	r5, r0, ip, lsr r4
    3550:	ca0e1400 	bgt	388558 <__bss_end__+0x37e568>
    3554:	06000008 	streq	r0, [r0], -r8
    3558:	0000543d 	andeq	r5, r0, sp, lsr r4
    355c:	750e1800 	strvc	r1, [lr, #-2048]	; 0xfffff800
    3560:	06000006 	streq	r0, [r0], -r6
    3564:	0000543e 	andeq	r5, r0, lr, lsr r4
    3568:	530e1c00 	movwpl	r1, #60416	; 0xec00
    356c:	06000009 	streq	r0, [r0], -r9
    3570:	0000543f 	andeq	r5, r0, pc, lsr r4
    3574:	12002000 	andne	r2, r0, #0
    3578:	00000213 	andeq	r0, r0, r3, lsl r2
    357c:	48060108 	stmdami	r6, {r3, r8}
    3580:	00000273 	andeq	r0, r0, r3, ror r2
    3584:	0002e80e 	andeq	lr, r2, lr, lsl #16
    3588:	73490600 	movtvc	r0, #38400	; 0x9600
    358c:	00000002 	andeq	r0, r0, r2
    3590:	0000000e 	andeq	r0, r0, lr
    3594:	734a0600 	movtvc	r0, #42496	; 0xa600
    3598:	80000002 	andhi	r0, r0, r2
    359c:	0007b313 	andeq	fp, r7, r3, lsl r3
    35a0:	464c0600 	strbmi	r0, [ip], -r0, lsl #12
    35a4:	00000001 	andeq	r0, r0, r1
    35a8:	025d1301 	subseq	r1, sp, #67108864	; 0x4000000
    35ac:	4f060000 	svcmi	0x00060000
    35b0:	00000146 	andeq	r0, r0, r6, asr #2
    35b4:	0b000104 	bleq	39cc <_start-0x4634>
    35b8:	00000047 	andeq	r0, r0, r7, asr #32
    35bc:	00000283 	andeq	r0, r0, r3, lsl #5
    35c0:	0000f60c 	andeq	pc, r0, ip, lsl #12
    35c4:	12001f00 	andne	r1, r0, #0, 30
    35c8:	0000057d 	andeq	r0, r0, sp, ror r5
    35cc:	5b060190 	blpl	183c14 <__bss_end__+0x179c24>
    35d0:	000002c1 	andeq	r0, r0, r1, asr #5
    35d4:	0006d10e 	andeq	sp, r6, lr, lsl #2
    35d8:	c15c0600 	cmpgt	ip, r0, lsl #12
    35dc:	00000002 	andeq	r0, r0, r2
    35e0:	0006ff0e 	andeq	pc, r6, lr, lsl #30
    35e4:	545d0600 	ldrbpl	r0, [sp], #-1536	; 0xfffffa00
    35e8:	04000000 	streq	r0, [r0], #-0
    35ec:	0003110e 	andeq	r1, r3, lr, lsl #2
    35f0:	c75f0600 	ldrbgt	r0, [pc, -r0, lsl #12]
    35f4:	08000002 	stmdaeq	r0, {r1}
    35f8:	0002130e 	andeq	r1, r2, lr, lsl #6
    35fc:	33600600 	cmncc	r0, #0, 12
    3600:	88000002 	stmdahi	r0, {r1}
    3604:	83040f00 	movwhi	r0, #20224	; 0x4f00
    3608:	0b000002 	bleq	3618 <_start-0x49e8>
    360c:	000002d7 	ldrdeq	r0, [r0], -r7
    3610:	000002d7 	ldrdeq	r0, [r0], -r7
    3614:	0000f60c 	andeq	pc, r0, ip, lsl #12
    3618:	0f001f00 	svceq	0x00001f00
    361c:	0002dd04 	andeq	sp, r2, r4, lsl #26
    3620:	7f031400 	svcvc	0x00031400
    3624:	08000006 	stmdaeq	r0, {r1, r2}
    3628:	03037306 	movweq	r7, #13062	; 0x3306
    362c:	fe0e0000 	cdp2	0, 0, cr0, cr14, cr0, {0}
    3630:	06000001 	streq	r0, [r0], -r1
    3634:	00030374 	andeq	r0, r3, r4, ror r3
    3638:	a60e0000 	strge	r0, [lr], -r0
    363c:	06000000 	streq	r0, [r0], -r0
    3640:	00005475 	andeq	r5, r0, r5, ror r4
    3644:	0f000400 	svceq	0x00000400
    3648:	00007e04 	andeq	r7, r0, r4, lsl #28
    364c:	06ab0300 	strteq	r0, [fp], r0, lsl #6
    3650:	06680000 	strbteq	r0, [r8], -r0
    3654:	000433b3 			; <UNDEFINED> instruction: 0x000433b3
    3658:	705f1100 	subsvc	r1, pc, r0, lsl #2
    365c:	03b40600 			; <UNDEFINED> instruction: 0x03b40600
    3660:	00000003 	andeq	r0, r0, r3
    3664:	00725f11 	rsbseq	r5, r2, r1, lsl pc
    3668:	0054b506 	subseq	fp, r4, r6, lsl #10
    366c:	11040000 	mrsne	r0, (UNDEF: 4)
    3670:	0600775f 			; <UNDEFINED> instruction: 0x0600775f
    3674:	000054b6 			; <UNDEFINED> instruction: 0x000054b6
    3678:	560e0800 	strpl	r0, [lr], -r0, lsl #16
    367c:	06000002 	streq	r0, [r0], -r2
    3680:	000069b7 			; <UNDEFINED> instruction: 0x000069b7
    3684:	af0e0c00 	svcge	0x000e0c00
    3688:	06000003 	streq	r0, [r0], -r3
    368c:	000069b8 			; <UNDEFINED> instruction: 0x000069b8
    3690:	5f110e00 	svcpl	0x00110e00
    3694:	06006662 	streq	r6, [r0], -r2, ror #12
    3698:	0002deb9 			; <UNDEFINED> instruction: 0x0002deb9
    369c:	600e1000 	andvs	r1, lr, r0
    36a0:	06000001 	streq	r0, [r0], -r1
    36a4:	000054ba 			; <UNDEFINED> instruction: 0x000054ba
    36a8:	210e1800 	tstcs	lr, r0, lsl #16
    36ac:	06000002 	streq	r0, [r0], -r2
    36b0:	000047c1 	andeq	r4, r0, r1, asr #15
    36b4:	ad0e1c00 	stcge	12, cr1, [lr, #-0]
    36b8:	06000008 	streq	r0, [r0], -r8
    36bc:	00058ec3 	andeq	r8, r5, r3, asr #29
    36c0:	760e2000 	strvc	r2, [lr], -r0
    36c4:	06000001 	streq	r0, [r0], -r1
    36c8:	0005b8c5 	andeq	fp, r5, r5, asr #17
    36cc:	560e2400 	strpl	r2, [lr], -r0, lsl #8
    36d0:	06000007 	streq	r0, [r0], -r7
    36d4:	0005dcc8 	andeq	sp, r5, r8, asr #25
    36d8:	6d0e2800 	stcvs	8, cr2, [lr, #-0]
    36dc:	06000009 	streq	r0, [r0], -r9
    36e0:	0005f6c9 	andeq	pc, r5, r9, asr #13
    36e4:	5f112c00 	svcpl	0x00112c00
    36e8:	06006275 			; <UNDEFINED> instruction: 0x06006275
    36ec:	0002decc 	andeq	sp, r2, ip, asr #29
    36f0:	5f113000 	svcpl	0x00113000
    36f4:	06007075 			; <UNDEFINED> instruction: 0x06007075
    36f8:	000303cd 	andeq	r0, r3, sp, asr #7
    36fc:	5f113800 	svcpl	0x00113800
    3700:	06007275 			; <UNDEFINED> instruction: 0x06007275
    3704:	000054ce 	andeq	r5, r0, lr, asr #9
    3708:	f00e3c00 			; <UNDEFINED> instruction: 0xf00e3c00
    370c:	06000001 	streq	r0, [r0], -r1
    3710:	0005fcd1 	ldrdeq	pc, [r5], -r1
    3714:	240e4000 	strcs	r4, [lr], #-0
    3718:	06000009 	streq	r0, [r0], -r9
    371c:	00060cd2 	ldrdeq	r0, [r6], -r2
    3720:	5f114300 	svcpl	0x00114300
    3724:	0600626c 	streq	r6, [r0], -ip, ror #4
    3728:	0002ded5 	ldrdeq	sp, [r2], -r5
    372c:	730e4400 	movwvc	r4, #58368	; 0xe400
    3730:	06000002 	streq	r0, [r0], -r2
    3734:	000054d8 	ldrdeq	r5, [r0], -r8
    3738:	a90e4c00 	stmdbge	lr, {sl, fp, lr}
    373c:	06000002 	streq	r0, [r0], -r2
    3740:	0000a5d9 	ldrdeq	sl, [r0], -r9
    3744:	4c0e5000 	stcmi	0, cr5, [lr], {-0}
    3748:	06000006 	streq	r0, [r0], -r6
    374c:	000451dc 	ldrdeq	r5, [r4], -ip
    3750:	900e5400 	andls	r5, lr, r0, lsl #8
    3754:	06000010 			; <UNDEFINED> instruction: 0x06000010
    3758:	000129e0 	andeq	r2, r1, r0, ror #19
    375c:	c30e5800 	movwgt	r5, #59392	; 0xe800
    3760:	06000006 	streq	r0, [r0], -r6
    3764:	00011ee2 	andeq	r1, r1, r2, ror #29
    3768:	9f0e5c00 	svcls	0x000e5c00
    376c:	06000004 	streq	r0, [r0], -r4
    3770:	000054e3 	andeq	r5, r0, r3, ror #9
    3774:	15006400 	strne	r6, [r0, #-1024]	; 0xfffffc00
    3778:	00000054 	andeq	r0, r0, r4, asr r0
    377c:	00000451 	andeq	r0, r0, r1, asr r4
    3780:	00045116 	andeq	r5, r4, r6, lsl r1
    3784:	00471600 	subeq	r1, r7, r0, lsl #12
    3788:	34160000 	ldrcc	r0, [r6], #-0
    378c:	16000001 	strne	r0, [r0], -r1
    3790:	00000054 	andeq	r0, r0, r4, asr r0
    3794:	5c040f00 	stcpl	15, cr0, [r4], {-0}
    3798:	10000004 	andne	r0, r0, r4
    379c:	00000451 	andeq	r0, r0, r1, asr r4
    37a0:	00072617 	andeq	r2, r7, r7, lsl r6
    37a4:	06042800 	streq	r2, [r4], -r0, lsl #16
    37a8:	058e0238 	streq	r0, [lr, #568]	; 0x238
    37ac:	64180000 	ldrvs	r0, [r8], #-0
    37b0:	06000006 	streq	r0, [r0], -r6
    37b4:	0054023a 	subseq	r0, r4, sl, lsr r2
    37b8:	18000000 	stmdane	r0, {}	; <UNPREDICTABLE>
    37bc:	00000265 	andeq	r0, r0, r5, ror #4
    37c0:	63023f06 	movwvs	r3, #12038	; 0x2f06
    37c4:	04000006 	streq	r0, [r0], #-6
    37c8:	00039418 	andeq	r9, r3, r8, lsl r4
    37cc:	023f0600 	eorseq	r0, pc, #0, 12
    37d0:	00000663 	andeq	r0, r0, r3, ror #12
    37d4:	03251808 			; <UNDEFINED> instruction: 0x03251808
    37d8:	3f060000 	svccc	0x00060000
    37dc:	00066302 	andeq	r6, r6, r2, lsl #6
    37e0:	fa180c00 	blx	6067e8 <__bss_end__+0x5fc7f8>
    37e4:	06000006 	streq	r0, [r0], -r6
    37e8:	00540241 	subseq	r0, r4, r1, asr #4
    37ec:	18100000 	ldmdane	r0, {}	; <UNPREDICTABLE>
    37f0:	000000e5 	andeq	r0, r0, r5, ror #1
    37f4:	45024206 	strmi	r4, [r2, #-518]	; 0xfffffdfa
    37f8:	14000008 	strne	r0, [r0], #-8
    37fc:	00086f18 	andeq	r6, r8, r8, lsl pc
    3800:	02440600 	subeq	r0, r4, #0, 12
    3804:	00000054 	andeq	r0, r0, r4, asr r0
    3808:	07041830 	smladxeq	r4, r0, r8, r1
    380c:	45060000 	strmi	r0, [r6, #-0]
    3810:	0005b202 	andeq	fp, r5, r2, lsl #4
    3814:	93183400 	tstls	r8, #0, 8
    3818:	06000005 	streq	r0, [r0], -r5
    381c:	00540247 	subseq	r0, r4, r7, asr #4
    3820:	18380000 	ldmdane	r8!, {}	; <UNPREDICTABLE>
    3824:	00000714 	andeq	r0, r0, r4, lsl r7
    3828:	60024906 	andvs	r4, r2, r6, lsl #18
    382c:	3c000008 	stccc	0, cr0, [r0], {8}
    3830:	00046318 	andeq	r6, r4, r8, lsl r3
    3834:	024c0600 	subeq	r0, ip, #0, 12
    3838:	000001a4 	andeq	r0, r0, r4, lsr #3
    383c:	035a1840 	cmpeq	sl, #64, 16	; 0x400000
    3840:	4d060000 	stcmi	0, cr0, [r6, #-0]
    3844:	00005402 	andeq	r5, r0, r2, lsl #8
    3848:	90184400 	andsls	r4, r8, r0, lsl #8
    384c:	06000009 	streq	r0, [r0], -r9
    3850:	01a4024e 			; <UNDEFINED> instruction: 0x01a4024e
    3854:	18480000 	stmdane	r8, {}^	; <UNPREDICTABLE>
    3858:	000005c8 	andeq	r0, r0, r8, asr #11
    385c:	66024f06 	strvs	r4, [r2], -r6, lsl #30
    3860:	4c000008 	stcmi	0, cr0, [r0], {8}
    3864:	00039c18 	andeq	r9, r3, r8, lsl ip
    3868:	02520600 	subseq	r0, r2, #0, 12
    386c:	00000054 	andeq	r0, r0, r4, asr r0
    3870:	02a11850 	adceq	r1, r1, #80, 16	; 0x500000
    3874:	53060000 	movwpl	r0, #24576	; 0x6000
    3878:	00013402 	andeq	r3, r1, r2, lsl #8
    387c:	52185400 	andspl	r5, r8, #0, 8
    3880:	06000011 			; <UNDEFINED> instruction: 0x06000011
    3884:	08230276 	stmdaeq	r3!, {r1, r2, r4, r5, r6, r9}
    3888:	19580000 	ldmdbne	r8, {}^	; <UNPREDICTABLE>
    388c:	0000057d 	andeq	r0, r0, sp, ror r5
    3890:	c1027a06 	tstgt	r2, r6, lsl #20
    3894:	48000002 	stmdami	r0, {r1}
    3898:	042d1901 	strteq	r1, [sp], #-2305	; 0xfffff6ff
    389c:	7b060000 	blvc	1838a4 <__bss_end__+0x1798b4>
    38a0:	00028302 	andeq	r8, r2, r2, lsl #6
    38a4:	19014c00 	stmdbne	r1, {sl, fp, lr}
    38a8:	000008f5 	strdeq	r0, [r0], -r5
    38ac:	77027f06 	strvc	r7, [r2, -r6, lsl #30]
    38b0:	dc000008 	stcle	0, cr0, [r0], {8}
    38b4:	02291902 	eoreq	r1, r9, #32768	; 0x8000
    38b8:	84060000 	strhi	r0, [r6], #-0
    38bc:	00062802 	andeq	r2, r6, r2, lsl #16
    38c0:	1902e000 	stmdbne	r2, {sp, lr, pc}
    38c4:	0000020e 	andeq	r0, r0, lr, lsl #4
    38c8:	83028506 	movwhi	r8, #9478	; 0x2506
    38cc:	ec000008 	stc	0, cr0, [r0], {8}
    38d0:	040f0002 	streq	r0, [pc], #-2	; 38d8 <_start-0x4728>
    38d4:	00000433 	andeq	r0, r0, r3, lsr r4
    38d8:	00005415 	andeq	r5, r0, r5, lsl r4
    38dc:	0005b200 	andeq	fp, r5, r0, lsl #4
    38e0:	04511600 	ldrbeq	r1, [r1], #-1536	; 0xfffffa00
    38e4:	47160000 	ldrmi	r0, [r6, -r0]
    38e8:	16000000 	strne	r0, [r0], -r0
    38ec:	000005b2 			; <UNDEFINED> instruction: 0x000005b2
    38f0:	00005416 	andeq	r5, r0, r6, lsl r4
    38f4:	040f0000 	streq	r0, [pc], #-0	; 38fc <_start-0x4704>
    38f8:	00000141 	andeq	r0, r0, r1, asr #2
    38fc:	0594040f 	ldreq	r0, [r4, #1039]	; 0x40f
    3900:	b0150000 	andslt	r0, r5, r0
    3904:	dc000000 	stcle	0, cr0, [r0], {-0}
    3908:	16000005 	strne	r0, [r0], -r5
    390c:	00000451 	andeq	r0, r0, r1, asr r4
    3910:	00004716 	andeq	r4, r0, r6, lsl r7
    3914:	00b01600 	adcseq	r1, r0, r0, lsl #12
    3918:	54160000 	ldrpl	r0, [r6], #-0
    391c:	00000000 	andeq	r0, r0, r0
    3920:	05be040f 	ldreq	r0, [lr, #1039]!	; 0x40f
    3924:	54150000 	ldrpl	r0, [r5], #-0
    3928:	f6000000 			; <UNDEFINED> instruction: 0xf6000000
    392c:	16000005 	strne	r0, [r0], -r5
    3930:	00000451 	andeq	r0, r0, r1, asr r4
    3934:	00004716 	andeq	r4, r0, r6, lsl r7
    3938:	040f0000 	streq	r0, [pc], #-0	; 3940 <_start-0x46c0>
    393c:	000005e2 	andeq	r0, r0, r2, ror #11
    3940:	00007e0b 	andeq	r7, r0, fp, lsl #28
    3944:	00060c00 	andeq	r0, r6, r0, lsl #24
    3948:	00f60c00 	rscseq	r0, r6, r0, lsl #24
    394c:	00020000 	andeq	r0, r2, r0
    3950:	00007e0b 	andeq	r7, r0, fp, lsl #28
    3954:	00061c00 	andeq	r1, r6, r0, lsl #24
    3958:	00f60c00 	rscseq	r0, r6, r0, lsl #24
    395c:	00000000 	andeq	r0, r0, r0
    3960:	00069908 	andeq	r9, r6, r8, lsl #18
    3964:	011d0600 	tsteq	sp, r0, lsl #12
    3968:	00000309 	andeq	r0, r0, r9, lsl #6
    396c:	0008d41a 	andeq	sp, r8, sl, lsl r4
    3970:	21060c00 	tstcs	r6, r0, lsl #24
    3974:	00065d01 	andeq	r5, r6, r1, lsl #26
    3978:	06d11800 	ldrbeq	r1, [r1], r0, lsl #16
    397c:	23060000 	movwcs	r0, #24576	; 0x6000
    3980:	00065d01 	andeq	r5, r6, r1, lsl #26
    3984:	fd180000 	ldc2	0, cr0, [r8, #-0]
    3988:	06000003 	streq	r0, [r0], -r3
    398c:	00540124 	subseq	r0, r4, r4, lsr #2
    3990:	18040000 	stmdane	r4, {}	; <UNPREDICTABLE>
    3994:	00000693 	muleq	r0, r3, r6
    3998:	63012506 	movwvs	r2, #5382	; 0x1506
    399c:	08000006 	stmdaeq	r0, {r1, r2}
    39a0:	28040f00 	stmdacs	r4, {r8, r9, sl, fp}
    39a4:	0f000006 	svceq	0x00000006
    39a8:	00061c04 	andeq	r1, r6, r4, lsl #24
    39ac:	00c91a00 	sbceq	r1, r9, r0, lsl #20
    39b0:	060e0000 	streq	r0, [lr], -r0
    39b4:	069e013d 			; <UNDEFINED> instruction: 0x069e013d
    39b8:	36180000 	ldrcc	r0, [r8], -r0
    39bc:	06000007 	streq	r0, [r0], -r7
    39c0:	069e013e 			; <UNDEFINED> instruction: 0x069e013e
    39c4:	18000000 	stmdane	r0, {}	; <UNPREDICTABLE>
    39c8:	000007d9 	ldrdeq	r0, [r0], -r9
    39cc:	9e013f06 	cdpls	15, 0, cr3, cr1, cr6, {0}
    39d0:	06000006 	streq	r0, [r0], -r6
    39d4:	00081818 	andeq	r1, r8, r8, lsl r8
    39d8:	01400600 	cmpeq	r0, r0, lsl #12
    39dc:	00000085 	andeq	r0, r0, r5, lsl #1
    39e0:	850b000c 	strhi	r0, [fp, #-12]
    39e4:	ae000000 	cdpge	0, 0, cr0, cr0, cr0, {0}
    39e8:	0c000006 	stceq	0, cr0, [r0], {6}
    39ec:	000000f6 	strdeq	r0, [r0], -r6
    39f0:	d01b0002 	andsle	r0, fp, r2
    39f4:	af025706 	svcge	0x00025706
    39f8:	18000007 	stmdane	r0, {r0, r1, r2}
    39fc:	0000089d 	muleq	r0, sp, r8
    3a00:	5b025906 	blpl	99e20 <__bss_end__+0x8fe30>
    3a04:	00000000 	andeq	r0, r0, r0
    3a08:	0007df18 	andeq	sp, r7, r8, lsl pc
    3a0c:	025a0600 	subseq	r0, sl, #0, 12
    3a10:	00000134 	andeq	r0, r0, r4, lsr r1
    3a14:	04421804 	strbeq	r1, [r2], #-2052	; 0xfffff7fc
    3a18:	5b060000 	blpl	183a20 <__bss_end__+0x179a30>
    3a1c:	0007af02 	andeq	sl, r7, r2, lsl #30
    3a20:	5e180800 	cdppl	8, 1, cr0, cr8, cr0, {0}
    3a24:	06000009 	streq	r0, [r0], -r9
    3a28:	01ba025c 			; <UNDEFINED> instruction: 0x01ba025c
    3a2c:	18240000 	stmdane	r4!, {}	; <UNPREDICTABLE>
    3a30:	00000335 	andeq	r0, r0, r5, lsr r3
    3a34:	54025d06 	strpl	r5, [r2], #-3334	; 0xfffff2fa
    3a38:	48000000 	stmdami	r0, {}	; <UNPREDICTABLE>
    3a3c:	0006cc18 	andeq	ip, r6, r8, lsl ip
    3a40:	025e0600 	subseq	r0, lr, #0, 12
    3a44:	00000093 	muleq	r0, r3, r0
    3a48:	09741850 	ldmdbeq	r4!, {r4, r6, fp, ip}^
    3a4c:	5f060000 	svcpl	0x00060000
    3a50:	00066902 	andeq	r6, r6, r2, lsl #18
    3a54:	ed185800 	ldc	8, cr5, [r8, #-0]
    3a58:	06000006 	streq	r0, [r0], -r6
    3a5c:	011e0260 	tsteq	lr, r0, ror #4
    3a60:	18680000 	stmdane	r8!, {}^	; <UNPREDICTABLE>
    3a64:	00000982 	andeq	r0, r0, r2, lsl #19
    3a68:	1e026106 	adfnes	f6, f2, f6
    3a6c:	70000001 	andvc	r0, r0, r1
    3a70:	0001ac18 	andeq	sl, r1, r8, lsl ip
    3a74:	02620600 	rsbeq	r0, r2, #0, 12
    3a78:	0000011e 	andeq	r0, r0, lr, lsl r1
    3a7c:	08eb1878 	stmiaeq	fp!, {r3, r4, r5, r6, fp, ip}^
    3a80:	63060000 	movwvs	r0, #24576	; 0x6000
    3a84:	0007bf02 	andeq	fp, r7, r2, lsl #30
    3a88:	36188000 	ldrcc	r8, [r8], -r0
    3a8c:	06000004 	streq	r0, [r0], -r4
    3a90:	07cf0264 	strbeq	r0, [pc, r4, ror #4]
    3a94:	18880000 	stmne	r8, {}	; <UNPREDICTABLE>
    3a98:	0000082e 	andeq	r0, r0, lr, lsr #16
    3a9c:	54026506 	strpl	r6, [r2], #-1286	; 0xfffffafa
    3aa0:	a0000000 	andge	r0, r0, r0
    3aa4:	0002da18 	andeq	sp, r2, r8, lsl sl
    3aa8:	02660600 	rsbeq	r0, r6, #0, 12
    3aac:	0000011e 	andeq	r0, r0, lr, lsl r1
    3ab0:	018818a4 	orreq	r1, r8, r4, lsr #17
    3ab4:	67060000 	strvs	r0, [r6, -r0]
    3ab8:	00011e02 	andeq	r1, r1, r2, lsl #28
    3abc:	c018ac00 	andsgt	sl, r8, r0, lsl #24
    3ac0:	06000002 	streq	r0, [r0], -r2
    3ac4:	011e0268 	tsteq	lr, r8, ror #4
    3ac8:	18b40000 	ldmne	r4!, {}	; <UNPREDICTABLE>
    3acc:	00000120 	andeq	r0, r0, r0, lsr #2
    3ad0:	1e026906 	vmlane.f16	s12, s4, s12	; <UNPREDICTABLE>
    3ad4:	bc000001 	stclt	0, cr0, [r0], {1}
    3ad8:	00012f18 	andeq	r2, r1, r8, lsl pc
    3adc:	026a0600 	rsbeq	r0, sl, #0, 12
    3ae0:	0000011e 	andeq	r0, r0, lr, lsl r1
    3ae4:	066218c4 	strbteq	r1, [r2], -r4, asr #17
    3ae8:	6b060000 	blvs	183af0 <__bss_end__+0x179b00>
    3aec:	00005402 	andeq	r5, r0, r2, lsl #8
    3af0:	0b00cc00 	bleq	36af8 <__bss_end__+0x2cb08>
    3af4:	0000013a 	andeq	r0, r0, sl, lsr r1
    3af8:	000007bf 			; <UNDEFINED> instruction: 0x000007bf
    3afc:	0000f60c 	andeq	pc, r0, ip, lsl #12
    3b00:	0b001900 	bleq	9f08 <buf.4221+0x318>
    3b04:	0000013a 	andeq	r0, r0, sl, lsr r1
    3b08:	000007cf 	andeq	r0, r0, pc, asr #15
    3b0c:	0000f60c 	andeq	pc, r0, ip, lsl #12
    3b10:	0b000700 	bleq	5718 <_start-0x28e8>
    3b14:	0000013a 	andeq	r0, r0, sl, lsr r1
    3b18:	000007df 	ldrdeq	r0, [r0], -pc	; <UNPREDICTABLE>
    3b1c:	0000f60c 	andeq	pc, r0, ip, lsl #12
    3b20:	1b001700 	blne	9728 <__FUNCTION__.4464+0x7c>
    3b24:	027006f0 	rsbseq	r0, r0, #240, 12	; 0xf000000
    3b28:	00000803 	andeq	r0, r0, r3, lsl #16
    3b2c:	00055218 	andeq	r5, r5, r8, lsl r2
    3b30:	02730600 	rsbseq	r0, r3, #0, 12
    3b34:	00000803 	andeq	r0, r0, r3, lsl #16
    3b38:	04f91800 	ldrbteq	r1, [r9], #2048	; 0x800
    3b3c:	74060000 	strvc	r0, [r6], #-0
    3b40:	00081302 	andeq	r1, r8, r2, lsl #6
    3b44:	0b007800 	bleq	21b4c <__bss_end__+0x17b5c>
    3b48:	00000303 	andeq	r0, r0, r3, lsl #6
    3b4c:	00000813 	andeq	r0, r0, r3, lsl r8
    3b50:	0000f60c 	andeq	pc, r0, ip, lsl #12
    3b54:	0b001d00 	bleq	af5c <__bss_end__+0xf6c>
    3b58:	0000005b 	andeq	r0, r0, fp, asr r0
    3b5c:	00000823 	andeq	r0, r0, r3, lsr #16
    3b60:	0000f60c 	andeq	pc, r0, ip, lsl #12
    3b64:	1c001d00 	stcne	13, cr1, [r0], {-0}
    3b68:	025506f0 	subseq	r0, r5, #240, 12	; 0xf000000
    3b6c:	00000845 	andeq	r0, r0, r5, asr #16
    3b70:	0007261d 	andeq	r2, r7, sp, lsl r6
    3b74:	026c0600 	rsbeq	r0, ip, #0, 12
    3b78:	000006ae 	andeq	r0, r0, lr, lsr #13
    3b7c:	00092a1d 	andeq	r2, r9, sp, lsl sl
    3b80:	02750600 	rsbseq	r0, r5, #0, 12
    3b84:	000007df 	ldrdeq	r0, [r0], -pc	; <UNPREDICTABLE>
    3b88:	013a0b00 	teqeq	sl, r0, lsl #22
    3b8c:	08550000 	ldmdaeq	r5, {}^	; <UNPREDICTABLE>
    3b90:	f60c0000 			; <UNDEFINED> instruction: 0xf60c0000
    3b94:	18000000 	stmdane	r0, {}	; <UNPREDICTABLE>
    3b98:	08601e00 	stmdaeq	r0!, {r9, sl, fp, ip}^
    3b9c:	51160000 	tstpl	r6, r0
    3ba0:	00000004 	andeq	r0, r0, r4
    3ba4:	0855040f 	ldmdaeq	r5, {r0, r1, r2, r3, sl}^
    3ba8:	040f0000 	streq	r0, [pc], #-0	; 3bb0 <_start-0x4450>
    3bac:	000001a4 	andeq	r0, r0, r4, lsr #3
    3bb0:	0008771e 	andeq	r7, r8, lr, lsl r7
    3bb4:	00541600 	subseq	r1, r4, r0, lsl #12
    3bb8:	0f000000 	svceq	0x00000000
    3bbc:	00087d04 	andeq	r7, r8, r4, lsl #26
    3bc0:	6c040f00 	stcvs	15, cr0, [r4], {-0}
    3bc4:	0b000008 	bleq	3bec <_start-0x4414>
    3bc8:	0000061c 	andeq	r0, r0, ip, lsl r6
    3bcc:	00000893 	muleq	r0, r3, r8
    3bd0:	0000f60c 	andeq	pc, r0, ip, lsl #12
    3bd4:	1f000200 	svcne	0x00000200
    3bd8:	00000863 	andeq	r0, r0, r3, ror #16
    3bdc:	5102fd06 	tstpl	r2, r6, lsl #26	; <UNPREDICTABLE>
    3be0:	1f000004 	svcne	0x00000004
    3be4:	0000085c 	andeq	r0, r0, ip, asr r8
    3be8:	5702fe06 	strpl	pc, [r2, -r6, lsl #28]
    3bec:	15000004 	strne	r0, [r0, #-4]
    3bf0:	00000054 	andeq	r0, r0, r4, asr r0
    3bf4:	000008ba 			; <UNDEFINED> instruction: 0x000008ba
    3bf8:	00005416 	andeq	r5, r0, r6, lsl r4
    3bfc:	64200000 	strtvs	r0, [r0], #-0
    3c00:	08000003 	stmdaeq	r0, {r0, r1}
    3c04:	0008c51d 	andeq	ip, r8, sp, lsl r5
    3c08:	ab040f00 	blge	107810 <__bss_end__+0xfd820>
    3c0c:	15000008 	strne	r0, [r0, #-8]
    3c10:	00000054 	andeq	r0, r0, r4, asr r0
    3c14:	000008da 	ldrdeq	r0, [r0], -sl
    3c18:	0005b216 	andeq	fp, r5, r6, lsl r2
    3c1c:	2b200000 	blcs	803c24 <__bss_end__+0x7f9c34>
    3c20:	0800000d 	stmdaeq	r0, {r0, r2, r3}
    3c24:	0008e522 	andeq	lr, r8, r2, lsr #10
    3c28:	cb040f00 	blgt	107830 <__bss_end__+0xfd840>
    3c2c:	21000008 	tstcs	r0, r8
    3c30:	00000c21 	andeq	r0, r0, r1, lsr #24
    3c34:	00540601 	subseq	r0, r4, r1, lsl #12
    3c38:	8b9c0000 	blhi	fe703c40 <__bss_end__+0xfe6f9c50>
    3c3c:	00580000 	subseq	r0, r8, r0
    3c40:	9c010000 	stcls	0, cr0, [r1], {-0}
    3c44:	00000975 	andeq	r0, r0, r5, ror r9
    3c48:	746d6622 	strbtvc	r6, [sp], #-1570	; 0xfffff9de
    3c4c:	b2060100 	andlt	r0, r6, #0, 2
    3c50:	02000005 	andeq	r0, r0, #5
    3c54:	24237091 	strtcs	r7, [r3], #-145	; 0xffffff6f
    3c58:	00667562 	rsbeq	r7, r6, r2, ror #10
    3c5c:	09750801 	ldmdbeq	r5!, {r0, fp}^
    3c60:	03050000 	movweq	r0, #20480	; 0x5000
    3c64:	00009bf0 	strdeq	r9, [r0], -r0
    3c68:	00021c25 	andeq	r1, r2, r5, lsr #24
    3c6c:	49090100 	stmdbmi	r9, {r8}
    3c70:	02000000 	andeq	r0, r0, #0
    3c74:	73265c91 			; <UNDEFINED> instruction: 0x73265c91
    3c78:	0c01007a 	stceq	0, cr0, [r1], {122}	; 0x7a
    3c7c:	00000054 	andeq	r0, r0, r4, asr r0
    3c80:	00000858 	andeq	r0, r0, r8, asr r8
    3c84:	008bc427 	addeq	ip, fp, r7, lsr #8
    3c88:	00098600 	andeq	r8, r9, r0, lsl #12
    3c8c:	00096800 	andeq	r6, r9, r0, lsl #16
    3c90:	50012800 	andpl	r2, r1, r0, lsl #16
    3c94:	28007402 	stmdacs	r0, {r1, sl, ip, sp, lr}
    3c98:	0a035101 	beq	d80a4 <__bss_end__+0xce0b4>
    3c9c:	01280400 			; <UNDEFINED> instruction: 0x01280400
    3ca0:	48910352 	ldmmi	r1, {r1, r4, r6, r8, r9}
    3ca4:	53012806 	movwpl	r2, #6150	; 0x1806
    3ca8:	004c9102 	subeq	r9, ip, r2, lsl #2
    3cac:	008bd829 	addeq	sp, fp, r9, lsr #16
    3cb0:	50012800 	andpl	r2, r1, r0, lsl #16
    3cb4:	00007402 	andeq	r7, r0, r2, lsl #8
    3cb8:	013a0b00 	teqeq	sl, r0, lsl #22
    3cbc:	09860000 	stmibeq	r6, {}	; <UNPREDICTABLE>
    3cc0:	f62a0000 			; <UNDEFINED> instruction: 0xf62a0000
    3cc4:	ff000000 			; <UNDEFINED> instruction: 0xff000000
    3cc8:	1e2b0003 	cdpne	0, 2, cr0, cr11, cr3, {0}
    3ccc:	1e00000c 	cdpne	0, 0, cr0, cr0, cr12, {0}
    3cd0:	0900000c 	stmdbeq	r0, {r2, r3}
    3cd4:	0e700002 	cdpeq	0, 7, cr0, cr0, cr2, {0}
    3cd8:	00040000 	andeq	r0, r4, r0
    3cdc:	00000914 	andeq	r0, r0, r4, lsl r9
    3ce0:	0c370104 	ldfeqs	f0, [r7], #-16
    3ce4:	c80c0000 	stmdagt	ip, {}	; <UNPREDICTABLE>
    3ce8:	9e00000c 	cdpls	0, 0, cr0, cr0, cr12, {0}
    3cec:	f400000c 	vst4.8	{d0-d3}, [r0], ip
    3cf0:	3000008b 	andcc	r0, r0, fp, lsl #1
    3cf4:	16000005 	strne	r0, [r0], -r5
    3cf8:	02000005 	andeq	r0, r0, #5
    3cfc:	6e690504 	cdpvs	5, 6, cr0, cr9, cr4, {0}
    3d00:	04030074 	streq	r0, [r3], #-116	; 0xffffff8c
    3d04:	00014a07 	andeq	r4, r1, r7, lsl #20
    3d08:	06010300 	streq	r0, [r1], -r0, lsl #6
    3d0c:	00000620 	andeq	r0, r0, r0, lsr #12
    3d10:	6b050203 	blvs	144524 <__bss_end__+0x13a534>
    3d14:	03000006 	movweq	r0, #6
    3d18:	01c80504 	biceq	r0, r8, r4, lsl #10
    3d1c:	08030000 	stmdaeq	r3, {}	; <UNPREDICTABLE>
    3d20:	0001c305 	andeq	ip, r1, r5, lsl #6
    3d24:	08010300 	stmdaeq	r1, {r8, r9}
    3d28:	0000061e 	andeq	r0, r0, lr, lsl r6
    3d2c:	1a070203 	bne	1c4540 <__bss_end__+0x1ba550>
    3d30:	03000004 	movweq	r0, #4
    3d34:	01450704 	cmpeq	r5, r4, lsl #14
    3d38:	08030000 	stmdaeq	r3, {}	; <UNPREDICTABLE>
    3d3c:	00014007 	andeq	r4, r1, r7
    3d40:	05e20400 	strbeq	r0, [r2, #1024]!	; 0x400
    3d44:	07020000 	streq	r0, [r2, -r0]
    3d48:	00000025 	andeq	r0, r0, r5, lsr #32
    3d4c:	00059e04 	andeq	r9, r5, r4, lsl #28
    3d50:	412c0300 			; <UNDEFINED> instruction: 0x412c0300
    3d54:	04000000 	streq	r0, [r0], #-0
    3d58:	00000769 	andeq	r0, r0, r9, ror #14
    3d5c:	00417203 	subeq	r7, r1, r3, lsl #4
    3d60:	7e050000 	cdpvc	0, 0, cr0, cr5, cr0, {0}
    3d64:	04000004 	streq	r0, [r0], #-4
    3d68:	002c0165 	eoreq	r0, ip, r5, ror #2
    3d6c:	04060000 	streq	r0, [r6], #-0
    3d70:	00b7a603 	adcseq	sl, r7, r3, lsl #12
    3d74:	6b070000 	blvs	1c3d7c <__bss_end__+0x1b9d8c>
    3d78:	03000004 	movweq	r0, #4
    3d7c:	00008ca8 	andeq	r8, r0, r8, lsr #25
    3d80:	037e0700 	cmneq	lr, #0, 14
    3d84:	a9030000 	stmdbge	r3, {}	; <UNPREDICTABLE>
    3d88:	000000b7 	strheq	r0, [r0], -r7
    3d8c:	004f0800 	subeq	r0, pc, r0, lsl #16
    3d90:	00c70000 	sbceq	r0, r7, r0
    3d94:	c7090000 	strgt	r0, [r9, -r0]
    3d98:	03000000 	movweq	r0, #0
    3d9c:	07040300 	streq	r0, [r4, -r0, lsl #6]
    3da0:	0000050e 	andeq	r0, r0, lr, lsl #10
    3da4:	a303080a 	movwge	r0, #14346	; 0x380a
    3da8:	000000ef 	andeq	r0, r0, pc, ror #1
    3dac:	0007450b 	andeq	r4, r7, fp, lsl #10
    3db0:	25a50300 	strcs	r0, [r5, #768]!	; 0x300
    3db4:	00000000 	andeq	r0, r0, r0
    3db8:	0007ec0b 	andeq	lr, r7, fp, lsl #24
    3dbc:	98aa0300 	stmials	sl!, {r8, r9}
    3dc0:	04000000 	streq	r0, [r0], #-0
    3dc4:	06a00400 	strteq	r0, [r0], r0, lsl #8
    3dc8:	ab030000 	blge	c3dd0 <__bss_end__+0xb9de0>
    3dcc:	000000ce 	andeq	r0, r0, lr, asr #1
    3dd0:	00031c04 	andeq	r1, r3, r4, lsl #24
    3dd4:	6baf0300 	blvs	febc49dc <__bss_end__+0xfebba9ec>
    3dd8:	0c000000 	stceq	0, cr0, [r0], {-0}
    3ddc:	0d040d04 	stceq	13, cr0, [r4, #-16]
    3de0:	03000001 	movweq	r0, #1
    3de4:	06270801 	strteq	r0, [r7], -r1, lsl #16
    3de8:	0d0e0000 	stceq	0, cr0, [lr, #-0]
    3dec:	04000001 	streq	r0, [r0], #-1
    3df0:	00000826 	andeq	r0, r0, r6, lsr #16
    3df4:	005d1605 	subseq	r1, sp, r5, lsl #12
    3df8:	2d0f0000 	stccs	0, cr0, [pc, #-0]	; 3e00 <_start-0x4200>
    3dfc:	18000003 	stmdane	r0, {r0, r1}
    3e00:	01772d05 	cmneq	r7, r5, lsl #26
    3e04:	d10b0000 	mrsle	r0, (UNDEF: 11)
    3e08:	05000006 	streq	r0, [r0, #-6]
    3e0c:	0001772f 	andeq	r7, r1, pc, lsr #14
    3e10:	5f100000 	svcpl	0x00100000
    3e14:	3005006b 	andcc	r0, r5, fp, rrx
    3e18:	00000025 	andeq	r0, r0, r5, lsr #32
    3e1c:	071e0b04 	ldreq	r0, [lr, -r4, lsl #22]
    3e20:	30050000 	andcc	r0, r5, r0
    3e24:	00000025 	andeq	r0, r0, r5, lsr #32
    3e28:	03160b08 	tsteq	r6, #8, 22	; 0x2000
    3e2c:	30050000 	andcc	r0, r5, r0
    3e30:	00000025 	andeq	r0, r0, r5, lsr #32
    3e34:	08c50b0c 	stmiaeq	r5, {r2, r3, r8, r9, fp}^
    3e38:	30050000 	andcc	r0, r5, r0
    3e3c:	00000025 	andeq	r0, r0, r5, lsr #32
    3e40:	785f1010 	ldmdavc	pc, {r4, ip}^	; <UNPREDICTABLE>
    3e44:	7d310500 	cfldr32vc	mvfx0, [r1, #-0]
    3e48:	14000001 	strne	r0, [r0], #-1
    3e4c:	24040d00 	strcs	r0, [r4], #-3328	; 0xfffff300
    3e50:	08000001 	stmdaeq	r0, {r0}
    3e54:	00000119 	andeq	r0, r0, r9, lsl r1
    3e58:	0000018d 	andeq	r0, r0, sp, lsl #3
    3e5c:	0000c709 	andeq	ip, r0, r9, lsl #14
    3e60:	0f000000 	svceq	0x00000000
    3e64:	00000370 	andeq	r0, r0, r0, ror r3
    3e68:	06350524 	ldrteq	r0, [r5], -r4, lsr #10
    3e6c:	0b000002 	bleq	3e7c <_start-0x4184>
    3e70:	000001ba 			; <UNDEFINED> instruction: 0x000001ba
    3e74:	00253705 	eoreq	r3, r5, r5, lsl #14
    3e78:	0b000000 	bleq	3e80 <_start-0x4180>
    3e7c:	00000791 	muleq	r0, r1, r7
    3e80:	00253805 	eoreq	r3, r5, r5, lsl #16
    3e84:	0b040000 	bleq	103e8c <__bss_end__+0xf9e9c>
    3e88:	00000204 	andeq	r0, r0, r4, lsl #4
    3e8c:	00253905 	eoreq	r3, r5, r5, lsl #18
    3e90:	0b080000 	bleq	203e98 <__bss_end__+0x1f9ea8>
    3e94:	000009d9 	ldrdeq	r0, [r0], -r9
    3e98:	00253a05 	eoreq	r3, r5, r5, lsl #20
    3e9c:	0b0c0000 	bleq	303ea4 <__bss_end__+0x2f9eb4>
    3ea0:	00000563 	andeq	r0, r0, r3, ror #10
    3ea4:	00253b05 	eoreq	r3, r5, r5, lsl #22
    3ea8:	0b100000 	bleq	403eb0 <__bss_end__+0x3f9ec0>
    3eac:	000004d1 	ldrdeq	r0, [r0], -r1
    3eb0:	00253c05 	eoreq	r3, r5, r5, lsl #24
    3eb4:	0b140000 	bleq	503ebc <__bss_end__+0x4f9ecc>
    3eb8:	000008ca 	andeq	r0, r0, sl, asr #17
    3ebc:	00253d05 	eoreq	r3, r5, r5, lsl #26
    3ec0:	0b180000 	bleq	603ec8 <__bss_end__+0x5f9ed8>
    3ec4:	00000675 	andeq	r0, r0, r5, ror r6
    3ec8:	00253e05 	eoreq	r3, r5, r5, lsl #28
    3ecc:	0b1c0000 	bleq	703ed4 <__bss_end__+0x6f9ee4>
    3ed0:	00000953 	andeq	r0, r0, r3, asr r9
    3ed4:	00253f05 	eoreq	r3, r5, r5, lsl #30
    3ed8:	00200000 	eoreq	r0, r0, r0
    3edc:	00021311 	andeq	r1, r2, r1, lsl r3
    3ee0:	05010800 	streq	r0, [r1, #-2048]	; 0xfffff800
    3ee4:	00024648 	andeq	r4, r2, r8, asr #12
    3ee8:	02e80b00 	rsceq	r0, r8, #0, 22
    3eec:	49050000 	stmdbmi	r5, {}	; <UNPREDICTABLE>
    3ef0:	00000246 	andeq	r0, r0, r6, asr #4
    3ef4:	00000b00 	andeq	r0, r0, r0, lsl #22
    3ef8:	4a050000 	bmi	143f00 <__bss_end__+0x139f10>
    3efc:	00000246 	andeq	r0, r0, r6, asr #4
    3f00:	07b31280 	ldreq	r1, [r3, r0, lsl #5]!
    3f04:	4c050000 	stcmi	0, cr0, [r5], {-0}
    3f08:	00000119 	andeq	r0, r0, r9, lsl r1
    3f0c:	5d120100 	ldfpls	f0, [r2, #-0]
    3f10:	05000002 	streq	r0, [r0, #-2]
    3f14:	0001194f 	andeq	r1, r1, pc, asr #18
    3f18:	00010400 	andeq	r0, r1, r0, lsl #8
    3f1c:	00010508 	andeq	r0, r1, r8, lsl #10
    3f20:	00025600 	andeq	r5, r2, r0, lsl #12
    3f24:	00c70900 	sbceq	r0, r7, r0, lsl #18
    3f28:	001f0000 	andseq	r0, pc, r0
    3f2c:	00057d11 	andeq	r7, r5, r1, lsl sp
    3f30:	05019000 	streq	r9, [r1, #-0]
    3f34:	0002945b 	andeq	r9, r2, fp, asr r4
    3f38:	06d10b00 	ldrbeq	r0, [r1], r0, lsl #22
    3f3c:	5c050000 	stcpl	0, cr0, [r5], {-0}
    3f40:	00000294 	muleq	r0, r4, r2
    3f44:	06ff0b00 	ldrbteq	r0, [pc], r0, lsl #22
    3f48:	5d050000 	stcpl	0, cr0, [r5, #-0]
    3f4c:	00000025 	andeq	r0, r0, r5, lsr #32
    3f50:	03110b04 	tsteq	r1, #4, 22	; 0x1000
    3f54:	5f050000 	svcpl	0x00050000
    3f58:	0000029a 	muleq	r0, sl, r2
    3f5c:	02130b08 	andseq	r0, r3, #8, 22	; 0x2000
    3f60:	60050000 	andvs	r0, r5, r0
    3f64:	00000206 	andeq	r0, r0, r6, lsl #4
    3f68:	040d0088 	streq	r0, [sp], #-136	; 0xffffff78
    3f6c:	00000256 	andeq	r0, r0, r6, asr r2
    3f70:	0002aa08 	andeq	sl, r2, r8, lsl #20
    3f74:	0002aa00 	andeq	sl, r2, r0, lsl #20
    3f78:	00c70900 	sbceq	r0, r7, r0, lsl #18
    3f7c:	001f0000 	andseq	r0, pc, r0
    3f80:	02b0040d 	adcseq	r0, r0, #218103808	; 0xd000000
    3f84:	0f130000 	svceq	0x00130000
    3f88:	0000067f 	andeq	r0, r0, pc, ror r6
    3f8c:	d6730508 	ldrbtle	r0, [r3], -r8, lsl #10
    3f90:	0b000002 	bleq	3fa0 <_start-0x4060>
    3f94:	000001fe 	strdeq	r0, [r0], -lr
    3f98:	02d67405 	sbcseq	r7, r6, #83886080	; 0x5000000
    3f9c:	0b000000 	bleq	3fa4 <_start-0x405c>
    3fa0:	000000a6 	andeq	r0, r0, r6, lsr #1
    3fa4:	00257505 	eoreq	r7, r5, r5, lsl #10
    3fa8:	00040000 	andeq	r0, r4, r0
    3fac:	004f040d 	subeq	r0, pc, sp, lsl #8
    3fb0:	ab0f0000 	blge	3c3fb8 <__bss_end__+0x3b9fc8>
    3fb4:	68000006 	stmdavs	r0, {r1, r2}
    3fb8:	0406b305 	streq	fp, [r6], #-773	; 0xfffffcfb
    3fbc:	5f100000 	svcpl	0x00100000
    3fc0:	b4050070 	strlt	r0, [r5], #-112	; 0xffffff90
    3fc4:	000002d6 	ldrdeq	r0, [r0], -r6
    3fc8:	725f1000 	subsvc	r1, pc, #0
    3fcc:	25b50500 	ldrcs	r0, [r5, #1280]!	; 0x500
    3fd0:	04000000 	streq	r0, [r0], #-0
    3fd4:	00775f10 	rsbseq	r5, r7, r0, lsl pc
    3fd8:	0025b605 	eoreq	fp, r5, r5, lsl #12
    3fdc:	0b080000 	bleq	203fe4 <__bss_end__+0x1f9ff4>
    3fe0:	00000256 	andeq	r0, r0, r6, asr r2
    3fe4:	003ab705 	eorseq	fp, sl, r5, lsl #14
    3fe8:	0b0c0000 	bleq	303ff0 <__bss_end__+0x2fa000>
    3fec:	000003af 	andeq	r0, r0, pc, lsr #7
    3ff0:	003ab805 	eorseq	fp, sl, r5, lsl #16
    3ff4:	100e0000 	andne	r0, lr, r0
    3ff8:	0066625f 	rsbeq	r6, r6, pc, asr r2
    3ffc:	02b1b905 	adcseq	fp, r1, #81920	; 0x14000
    4000:	0b100000 	bleq	404008 <__bss_end__+0x3fa018>
    4004:	00000160 	andeq	r0, r0, r0, ror #2
    4008:	0025ba05 	eoreq	fp, r5, r5, lsl #20
    400c:	0b180000 	bleq	604014 <__bss_end__+0x5fa024>
    4010:	00000221 	andeq	r0, r0, r1, lsr #4
    4014:	0105c105 	tsteq	r5, r5, lsl #2
    4018:	0b1c0000 	bleq	704020 <__bss_end__+0x6fa030>
    401c:	000008ad 	andeq	r0, r0, sp, lsr #17
    4020:	0561c305 	strbeq	ip, [r1, #-773]!	; 0xfffffcfb
    4024:	0b200000 	bleq	80402c <__bss_end__+0x7fa03c>
    4028:	00000176 	andeq	r0, r0, r6, ror r1
    402c:	058bc505 	streq	ip, [fp, #1285]	; 0x505
    4030:	0b240000 	bleq	904038 <__bss_end__+0x8fa048>
    4034:	00000756 	andeq	r0, r0, r6, asr r7
    4038:	05afc805 	streq	ip, [pc, #2053]!	; 4845 <_start-0x37bb>
    403c:	0b280000 	bleq	a04044 <__bss_end__+0x9fa054>
    4040:	0000096d 	andeq	r0, r0, sp, ror #18
    4044:	05c9c905 	strbeq	ip, [r9, #2309]	; 0x905
    4048:	102c0000 	eorne	r0, ip, r0
    404c:	0062755f 	rsbeq	r7, r2, pc, asr r5
    4050:	02b1cc05 	adcseq	ip, r1, #1280	; 0x500
    4054:	10300000 	eorsne	r0, r0, r0
    4058:	0070755f 	rsbseq	r7, r0, pc, asr r5
    405c:	02d6cd05 	sbcseq	ip, r6, #320	; 0x140
    4060:	10380000 	eorsne	r0, r8, r0
    4064:	0072755f 	rsbseq	r7, r2, pc, asr r5
    4068:	0025ce05 	eoreq	ip, r5, r5, lsl #28
    406c:	0b3c0000 	bleq	f04074 <__bss_end__+0xefa084>
    4070:	000001f0 	strdeq	r0, [r0], -r0	; <UNPREDICTABLE>
    4074:	05cfd105 	strbeq	sp, [pc, #261]	; 4181 <_start-0x3e7f>
    4078:	0b400000 	bleq	1004080 <__bss_end__+0xffa090>
    407c:	00000924 	andeq	r0, r0, r4, lsr #18
    4080:	05dfd205 	ldrbeq	sp, [pc, #517]	; 428d <_start-0x3d73>
    4084:	10430000 	subne	r0, r3, r0
    4088:	00626c5f 	rsbeq	r6, r2, pc, asr ip
    408c:	02b1d505 	adcseq	sp, r1, #20971520	; 0x1400000
    4090:	0b440000 	bleq	1104098 <__bss_end__+0x10fa0a8>
    4094:	00000273 	andeq	r0, r0, r3, ror r2
    4098:	0025d805 	eoreq	sp, r5, r5, lsl #16
    409c:	0b4c0000 	bleq	13040a4 <__bss_end__+0x12fa0b4>
    40a0:	000002a9 	andeq	r0, r0, r9, lsr #5
    40a4:	0076d905 	rsbseq	sp, r6, r5, lsl #18
    40a8:	0b500000 	bleq	14040b0 <__bss_end__+0x13fa0c0>
    40ac:	0000064c 	andeq	r0, r0, ip, asr #12
    40b0:	0424dc05 	strteq	sp, [r4], #-3077	; 0xfffff3fb
    40b4:	0b540000 	bleq	15040bc <__bss_end__+0x14fa0cc>
    40b8:	00001090 	muleq	r0, r0, r0
    40bc:	00fae005 	rscseq	lr, sl, r5
    40c0:	0b580000 	bleq	16040c8 <__bss_end__+0x15fa0d8>
    40c4:	000006c3 	andeq	r0, r0, r3, asr #13
    40c8:	00efe205 	rsceq	lr, pc, r5, lsl #4
    40cc:	0b5c0000 	bleq	17040d4 <__bss_end__+0x16fa0e4>
    40d0:	0000049f 	muleq	r0, pc, r4	; <UNPREDICTABLE>
    40d4:	0025e305 	eoreq	lr, r5, r5, lsl #6
    40d8:	00640000 	rsbeq	r0, r4, r0
    40dc:	00002514 	andeq	r2, r0, r4, lsl r5
    40e0:	00042400 	andeq	r2, r4, r0, lsl #8
    40e4:	04241500 	strteq	r1, [r4], #-1280	; 0xfffffb00
    40e8:	05150000 	ldreq	r0, [r5, #-0]
    40ec:	15000001 	strne	r0, [r0, #-1]
    40f0:	00000107 	andeq	r0, r0, r7, lsl #2
    40f4:	00002515 	andeq	r2, r0, r5, lsl r5
    40f8:	040d0000 	streq	r0, [sp], #-0
    40fc:	0000042f 	andeq	r0, r0, pc, lsr #8
    4100:	0004240e 	andeq	r2, r4, lr, lsl #8
    4104:	07261600 	streq	r1, [r6, -r0, lsl #12]!
    4108:	04280000 	strteq	r0, [r8], #-0
    410c:	61023805 	tstvs	r2, r5, lsl #16
    4110:	17000005 	strne	r0, [r0, -r5]
    4114:	00000664 	andeq	r0, r0, r4, ror #12
    4118:	25023a05 	strcs	r3, [r2, #-2565]	; 0xfffff5fb
    411c:	00000000 	andeq	r0, r0, r0
    4120:	00026517 	andeq	r6, r2, r7, lsl r5
    4124:	023f0500 	eorseq	r0, pc, #0, 10
    4128:	00000636 	andeq	r0, r0, r6, lsr r6
    412c:	03941704 	orrseq	r1, r4, #4, 14	; 0x100000
    4130:	3f050000 	svccc	0x00050000
    4134:	00063602 	andeq	r3, r6, r2, lsl #12
    4138:	25170800 	ldrcs	r0, [r7, #-2048]	; 0xfffff800
    413c:	05000003 	streq	r0, [r0, #-3]
    4140:	0636023f 			; <UNDEFINED> instruction: 0x0636023f
    4144:	170c0000 	strne	r0, [ip, -r0]
    4148:	000006fa 	strdeq	r0, [r0], -sl
    414c:	25024105 	strcs	r4, [r2, #-261]	; 0xfffffefb
    4150:	10000000 	andne	r0, r0, r0
    4154:	0000e517 	andeq	lr, r0, r7, lsl r5
    4158:	02420500 	subeq	r0, r2, #0, 10
    415c:	00000818 	andeq	r0, r0, r8, lsl r8
    4160:	086f1714 	stmdaeq	pc!, {r2, r4, r8, r9, sl, ip}^	; <UNPREDICTABLE>
    4164:	44050000 	strmi	r0, [r5], #-0
    4168:	00002502 	andeq	r2, r0, r2, lsl #10
    416c:	04173000 	ldreq	r3, [r7], #-0
    4170:	05000007 	streq	r0, [r0, #-7]
    4174:	05850245 	streq	r0, [r5, #581]	; 0x245
    4178:	17340000 	ldrne	r0, [r4, -r0]!
    417c:	00000593 	muleq	r0, r3, r5
    4180:	25024705 	strcs	r4, [r2, #-1797]	; 0xfffff8fb
    4184:	38000000 	stmdacc	r0, {}	; <UNPREDICTABLE>
    4188:	00071417 	andeq	r1, r7, r7, lsl r4
    418c:	02490500 	subeq	r0, r9, #0, 10
    4190:	00000833 	andeq	r0, r0, r3, lsr r8
    4194:	0463173c 	strbteq	r1, [r3], #-1852	; 0xfffff8c4
    4198:	4c050000 	stcmi	0, cr0, [r5], {-0}
    419c:	00017702 	andeq	r7, r1, r2, lsl #14
    41a0:	5a174000 	bpl	5d41a8 <__bss_end__+0x5ca1b8>
    41a4:	05000003 	streq	r0, [r0, #-3]
    41a8:	0025024d 	eoreq	r0, r5, sp, asr #4
    41ac:	17440000 	strbne	r0, [r4, -r0]
    41b0:	00000990 	muleq	r0, r0, r9
    41b4:	77024e05 	strvc	r4, [r2, -r5, lsl #28]
    41b8:	48000001 	stmdami	r0, {r0}
    41bc:	0005c817 	andeq	ip, r5, r7, lsl r8
    41c0:	024f0500 	subeq	r0, pc, #0, 10
    41c4:	00000839 	andeq	r0, r0, r9, lsr r8
    41c8:	039c174c 	orrseq	r1, ip, #76, 14	; 0x1300000
    41cc:	52050000 	andpl	r0, r5, #0
    41d0:	00002502 	andeq	r2, r0, r2, lsl #10
    41d4:	a1175000 	tstge	r7, r0
    41d8:	05000002 	streq	r0, [r0, #-2]
    41dc:	01070253 	tsteq	r7, r3, asr r2
    41e0:	17540000 	ldrbne	r0, [r4, -r0]
    41e4:	00001152 	andeq	r1, r0, r2, asr r1
    41e8:	f6027605 			; <UNDEFINED> instruction: 0xf6027605
    41ec:	58000007 	stmdapl	r0, {r0, r1, r2}
    41f0:	00057d18 	andeq	r7, r5, r8, lsl sp
    41f4:	027a0500 	rsbseq	r0, sl, #0, 10
    41f8:	00000294 	muleq	r0, r4, r2
    41fc:	2d180148 	ldfcss	f0, [r8, #-288]	; 0xfffffee0
    4200:	05000004 	streq	r0, [r0, #-4]
    4204:	0256027b 	subseq	r0, r6, #-1342177273	; 0xb0000007
    4208:	014c0000 	mrseq	r0, (UNDEF: 76)
    420c:	0008f518 	andeq	pc, r8, r8, lsl r5	; <UNPREDICTABLE>
    4210:	027f0500 	rsbseq	r0, pc, #0, 10
    4214:	0000084a 	andeq	r0, r0, sl, asr #16
    4218:	291802dc 	ldmdbcs	r8, {r2, r3, r4, r6, r7, r9}
    421c:	05000002 	streq	r0, [r0, #-2]
    4220:	05fb0284 	ldrbeq	r0, [fp, #644]!	; 0x284
    4224:	02e00000 	rsceq	r0, r0, #0
    4228:	00020e18 	andeq	r0, r2, r8, lsl lr
    422c:	02850500 	addeq	r0, r5, #0, 10
    4230:	00000856 	andeq	r0, r0, r6, asr r8
    4234:	0d0002ec 	sfmeq	f0, 4, [r0, #-944]	; 0xfffffc50
    4238:	00040604 	andeq	r0, r4, r4, lsl #12
    423c:	00251400 	eoreq	r1, r5, r0, lsl #8
    4240:	05850000 	streq	r0, [r5]
    4244:	24150000 	ldrcs	r0, [r5], #-0
    4248:	15000004 	strne	r0, [r0, #-4]
    424c:	00000105 	andeq	r0, r0, r5, lsl #2
    4250:	00058515 	andeq	r8, r5, r5, lsl r5
    4254:	00251500 	eoreq	r1, r5, r0, lsl #10
    4258:	0d000000 	stceq	0, cr0, [r0, #-0]
    425c:	00011404 	andeq	r1, r1, r4, lsl #8
    4260:	67040d00 	strvs	r0, [r4, -r0, lsl #26]
    4264:	14000005 	strne	r0, [r0], #-5
    4268:	00000081 	andeq	r0, r0, r1, lsl #1
    426c:	000005af 	andeq	r0, r0, pc, lsr #11
    4270:	00042415 	andeq	r2, r4, r5, lsl r4
    4274:	01051500 	tsteq	r5, r0, lsl #10
    4278:	81150000 	tsthi	r5, r0
    427c:	15000000 	strne	r0, [r0, #-0]
    4280:	00000025 	andeq	r0, r0, r5, lsr #32
    4284:	91040d00 	tstls	r4, r0, lsl #26
    4288:	14000005 	strne	r0, [r0], #-5
    428c:	00000025 	andeq	r0, r0, r5, lsr #32
    4290:	000005c9 	andeq	r0, r0, r9, asr #11
    4294:	00042415 	andeq	r2, r4, r5, lsl r4
    4298:	01051500 	tsteq	r5, r0, lsl #10
    429c:	0d000000 	stceq	0, cr0, [r0, #-0]
    42a0:	0005b504 	andeq	fp, r5, r4, lsl #10
    42a4:	004f0800 	subeq	r0, pc, r0, lsl #16
    42a8:	05df0000 	ldrbeq	r0, [pc]	; 42b0 <_start-0x3d50>
    42ac:	c7090000 	strgt	r0, [r9, -r0]
    42b0:	02000000 	andeq	r0, r0, #0
    42b4:	004f0800 	subeq	r0, pc, r0, lsl #16
    42b8:	05ef0000 	strbeq	r0, [pc, #0]!	; 42c0 <_start-0x3d40>
    42bc:	c7090000 	strgt	r0, [r9, -r0]
    42c0:	00000000 	andeq	r0, r0, r0
    42c4:	06990500 	ldreq	r0, [r9], r0, lsl #10
    42c8:	1d050000 	stcne	0, cr0, [r5, #-0]
    42cc:	0002dc01 	andeq	sp, r2, r1, lsl #24
    42d0:	08d41900 	ldmeq	r4, {r8, fp, ip}^
    42d4:	050c0000 	streq	r0, [ip, #-0]
    42d8:	06300121 	ldrteq	r0, [r0], -r1, lsr #2
    42dc:	d1170000 	tstle	r7, r0
    42e0:	05000006 	streq	r0, [r0, #-6]
    42e4:	06300123 	ldrteq	r0, [r0], -r3, lsr #2
    42e8:	17000000 	strne	r0, [r0, -r0]
    42ec:	000003fd 	strdeq	r0, [r0], -sp
    42f0:	25012405 	strcs	r2, [r1, #-1029]	; 0xfffffbfb
    42f4:	04000000 	streq	r0, [r0], #-0
    42f8:	00069317 	andeq	r9, r6, r7, lsl r3
    42fc:	01250500 			; <UNDEFINED> instruction: 0x01250500
    4300:	00000636 	andeq	r0, r0, r6, lsr r6
    4304:	040d0008 	streq	r0, [sp], #-8
    4308:	000005fb 	strdeq	r0, [r0], -fp
    430c:	05ef040d 	strbeq	r0, [pc, #1037]!	; 4721 <_start-0x38df>
    4310:	c9190000 	ldmdbgt	r9, {}	; <UNPREDICTABLE>
    4314:	0e000000 	cdpeq	0, 0, cr0, cr0, cr0, {0}
    4318:	71013d05 	tstvc	r1, r5, lsl #26
    431c:	17000006 	strne	r0, [r0, -r6]
    4320:	00000736 	andeq	r0, r0, r6, lsr r7
    4324:	71013e05 	tstvc	r1, r5, lsl #28
    4328:	00000006 	andeq	r0, r0, r6
    432c:	0007d917 	andeq	sp, r7, r7, lsl r9
    4330:	013f0500 	teqeq	pc, r0, lsl #10
    4334:	00000671 	andeq	r0, r0, r1, ror r6
    4338:	08181706 	ldmdaeq	r8, {r1, r2, r8, r9, sl, ip}
    433c:	40050000 	andmi	r0, r5, r0
    4340:	00005601 	andeq	r5, r0, r1, lsl #12
    4344:	08000c00 	stmdaeq	r0, {sl, fp}
    4348:	00000056 	andeq	r0, r0, r6, asr r0
    434c:	00000681 	andeq	r0, r0, r1, lsl #13
    4350:	0000c709 	andeq	ip, r0, r9, lsl #14
    4354:	1a000200 	bne	4b5c <_start-0x34a4>
    4358:	025705d0 	subseq	r0, r7, #208, 10	; 0x34000000
    435c:	00000782 	andeq	r0, r0, r2, lsl #15
    4360:	00089d17 	andeq	r9, r8, r7, lsl sp
    4364:	02590500 	subseq	r0, r9, #0, 10
    4368:	0000002c 	andeq	r0, r0, ip, lsr #32
    436c:	07df1700 	ldrbeq	r1, [pc, r0, lsl #14]
    4370:	5a050000 	bpl	144378 <__bss_end__+0x13a388>
    4374:	00010702 	andeq	r0, r1, r2, lsl #14
    4378:	42170400 	andsmi	r0, r7, #0, 8
    437c:	05000004 	streq	r0, [r0, #-4]
    4380:	0782025b 			; <UNDEFINED> instruction: 0x0782025b
    4384:	17080000 	strne	r0, [r8, -r0]
    4388:	0000095e 	andeq	r0, r0, lr, asr r9
    438c:	8d025c05 	stchi	12, cr5, [r2, #-20]	; 0xffffffec
    4390:	24000001 	strcs	r0, [r0], #-1
    4394:	00033517 	andeq	r3, r3, r7, lsl r5
    4398:	025d0500 	subseq	r0, sp, #0, 10
    439c:	00000025 	andeq	r0, r0, r5, lsr #32
    43a0:	06cc1748 	strbeq	r1, [ip], r8, asr #14
    43a4:	5e050000 	cdppl	0, 0, cr0, cr5, cr0, {0}
    43a8:	00006402 	andeq	r6, r0, r2, lsl #8
    43ac:	74175000 	ldrvc	r5, [r7], #-0
    43b0:	05000009 	streq	r0, [r0, #-9]
    43b4:	063c025f 			; <UNDEFINED> instruction: 0x063c025f
    43b8:	17580000 	ldrbne	r0, [r8, -r0]
    43bc:	000006ed 	andeq	r0, r0, sp, ror #13
    43c0:	ef026005 	svc	0x00026005
    43c4:	68000000 	stmdavs	r0, {}	; <UNPREDICTABLE>
    43c8:	00098217 	andeq	r8, r9, r7, lsl r2
    43cc:	02610500 	rsbeq	r0, r1, #0, 10
    43d0:	000000ef 	andeq	r0, r0, pc, ror #1
    43d4:	01ac1770 			; <UNDEFINED> instruction: 0x01ac1770
    43d8:	62050000 	andvs	r0, r5, #0
    43dc:	0000ef02 	andeq	lr, r0, r2, lsl #30
    43e0:	eb177800 	bl	5e23e8 <__bss_end__+0x5d83f8>
    43e4:	05000008 	streq	r0, [r0, #-8]
    43e8:	07920263 	ldreq	r0, [r2, r3, ror #4]
    43ec:	17800000 	strne	r0, [r0, r0]
    43f0:	00000436 	andeq	r0, r0, r6, lsr r4
    43f4:	a2026405 	andge	r6, r2, #83886080	; 0x5000000
    43f8:	88000007 	stmdahi	r0, {r0, r1, r2}
    43fc:	00082e17 	andeq	r2, r8, r7, lsl lr
    4400:	02650500 	rsbeq	r0, r5, #0, 10
    4404:	00000025 	andeq	r0, r0, r5, lsr #32
    4408:	02da17a0 	sbcseq	r1, sl, #160, 14	; 0x2800000
    440c:	66050000 	strvs	r0, [r5], -r0
    4410:	0000ef02 	andeq	lr, r0, r2, lsl #30
    4414:	8817a400 	ldmdahi	r7, {sl, sp, pc}
    4418:	05000001 	streq	r0, [r0, #-1]
    441c:	00ef0267 	rsceq	r0, pc, r7, ror #4
    4420:	17ac0000 	strne	r0, [ip, r0]!
    4424:	000002c0 	andeq	r0, r0, r0, asr #5
    4428:	ef026805 	svc	0x00026805
    442c:	b4000000 	strlt	r0, [r0], #-0
    4430:	00012017 	andeq	r2, r1, r7, lsl r0
    4434:	02690500 	rsbeq	r0, r9, #0, 10
    4438:	000000ef 	andeq	r0, r0, pc, ror #1
    443c:	012f17bc 			; <UNDEFINED> instruction: 0x012f17bc
    4440:	6a050000 	bvs	144448 <__bss_end__+0x13a458>
    4444:	0000ef02 	andeq	lr, r0, r2, lsl #30
    4448:	6217c400 	andsvs	ip, r7, #0, 8
    444c:	05000006 	streq	r0, [r0, #-6]
    4450:	0025026b 	eoreq	r0, r5, fp, ror #4
    4454:	00cc0000 	sbceq	r0, ip, r0
    4458:	00010d08 	andeq	r0, r1, r8, lsl #26
    445c:	00079200 	andeq	r9, r7, r0, lsl #4
    4460:	00c70900 	sbceq	r0, r7, r0, lsl #18
    4464:	00190000 	andseq	r0, r9, r0
    4468:	00010d08 	andeq	r0, r1, r8, lsl #26
    446c:	0007a200 	andeq	sl, r7, r0, lsl #4
    4470:	00c70900 	sbceq	r0, r7, r0, lsl #18
    4474:	00070000 	andeq	r0, r7, r0
    4478:	00010d08 	andeq	r0, r1, r8, lsl #26
    447c:	0007b200 	andeq	fp, r7, r0, lsl #4
    4480:	00c70900 	sbceq	r0, r7, r0, lsl #18
    4484:	00170000 	andseq	r0, r7, r0
    4488:	7005f01a 	andvc	pc, r5, sl, lsl r0	; <UNPREDICTABLE>
    448c:	0007d602 	andeq	sp, r7, r2, lsl #12
    4490:	05521700 	ldrbeq	r1, [r2, #-1792]	; 0xfffff900
    4494:	73050000 	movwvc	r0, #20480	; 0x5000
    4498:	0007d602 	andeq	sp, r7, r2, lsl #12
    449c:	f9170000 			; <UNDEFINED> instruction: 0xf9170000
    44a0:	05000004 	streq	r0, [r0, #-4]
    44a4:	07e60274 			; <UNDEFINED> instruction: 0x07e60274
    44a8:	00780000 	rsbseq	r0, r8, r0
    44ac:	0002d608 	andeq	sp, r2, r8, lsl #12
    44b0:	0007e600 	andeq	lr, r7, r0, lsl #12
    44b4:	00c70900 	sbceq	r0, r7, r0, lsl #18
    44b8:	001d0000 	andseq	r0, sp, r0
    44bc:	00002c08 	andeq	r2, r0, r8, lsl #24
    44c0:	0007f600 	andeq	pc, r7, r0, lsl #12
    44c4:	00c70900 	sbceq	r0, r7, r0, lsl #18
    44c8:	001d0000 	andseq	r0, sp, r0
    44cc:	5505f01b 	strpl	pc, [r5, #-27]	; 0xffffffe5
    44d0:	00081802 	andeq	r1, r8, r2, lsl #16
    44d4:	07261c00 	streq	r1, [r6, -r0, lsl #24]!
    44d8:	6c050000 	stcvs	0, cr0, [r5], {-0}
    44dc:	00068102 	andeq	r8, r6, r2, lsl #2
    44e0:	092a1c00 	stmdbeq	sl!, {sl, fp, ip}
    44e4:	75050000 	strvc	r0, [r5, #-0]
    44e8:	0007b202 	andeq	fp, r7, r2, lsl #4
    44ec:	0d080000 	stceq	0, cr0, [r8, #-0]
    44f0:	28000001 	stmdacs	r0, {r0}
    44f4:	09000008 	stmdbeq	r0, {r3}
    44f8:	000000c7 	andeq	r0, r0, r7, asr #1
    44fc:	331d0018 	tstcc	sp, #24
    4500:	15000008 	strne	r0, [r0, #-8]
    4504:	00000424 	andeq	r0, r0, r4, lsr #8
    4508:	28040d00 	stmdacs	r4, {r8, sl, fp}
    450c:	0d000008 	stceq	0, cr0, [r0, #-32]	; 0xffffffe0
    4510:	00017704 	andeq	r7, r1, r4, lsl #14
    4514:	084a1d00 	stmdaeq	sl, {r8, sl, fp, ip}^
    4518:	25150000 	ldrcs	r0, [r5, #-0]
    451c:	00000000 	andeq	r0, r0, r0
    4520:	0850040d 	ldmdaeq	r0, {r0, r2, r3, sl}^
    4524:	040d0000 	streq	r0, [sp], #-0
    4528:	0000083f 	andeq	r0, r0, pc, lsr r8
    452c:	0005ef08 	andeq	lr, r5, r8, lsl #30
    4530:	00086600 	andeq	r6, r8, r0, lsl #12
    4534:	00c70900 	sbceq	r0, r7, r0, lsl #18
    4538:	00020000 	andeq	r0, r2, r0
    453c:	0008631e 	andeq	r6, r8, lr, lsl r3
    4540:	02fd0500 	rscseq	r0, sp, #0, 10
    4544:	00000424 	andeq	r0, r0, r4, lsr #8
    4548:	00085c1e 	andeq	r5, r8, lr, lsl ip
    454c:	02fe0500 	rscseq	r0, lr, #0, 10
    4550:	0000042a 	andeq	r0, r0, sl, lsr #8
    4554:	00002514 	andeq	r2, r0, r4, lsl r5
    4558:	00088d00 	andeq	r8, r8, r0, lsl #26
    455c:	00251500 	eoreq	r1, r5, r0, lsl #10
    4560:	1f000000 	svcne	0x00000000
    4564:	00000364 	andeq	r0, r0, r4, ror #6
    4568:	08981d06 	ldmeq	r8, {r1, r2, r8, sl, fp, ip}
    456c:	040d0000 	streq	r0, [sp], #-0
    4570:	0000087e 	andeq	r0, r0, lr, ror r8
    4574:	00002514 	andeq	r2, r0, r4, lsl r5
    4578:	0008ad00 	andeq	sl, r8, r0, lsl #26
    457c:	05851500 	streq	r1, [r5, #1280]	; 0x500
    4580:	1f000000 	svcne	0x00000000
    4584:	00000d2b 	andeq	r0, r0, fp, lsr #26
    4588:	08b82206 	ldmeq	r8!, {r1, r2, r9, sp}
    458c:	040d0000 	streq	r0, [sp], #-0
    4590:	0000089e 	muleq	r0, lr, r8
    4594:	000c2804 	andeq	r2, ip, r4, lsl #16
    4598:	c9280700 	stmdbgt	r8!, {r8, r9, sl}
    459c:	0f000008 	svceq	0x00000008
    45a0:	00000c14 	andeq	r0, r0, r4, lsl ip
    45a4:	e0000804 	and	r0, r0, r4, lsl #16
    45a8:	20000008 	andcs	r0, r0, r8
    45ac:	00000c99 	muleq	r0, r9, ip
    45b0:	00000105 	andeq	r0, r0, r5, lsl #2
    45b4:	16040000 	strne	r0, [r4], -r0
    45b8:	0700000c 	streq	r0, [r0, -ip]
    45bc:	0008be63 	andeq	fp, r8, r3, ror #28
    45c0:	0c1e2100 	ldfeqs	f2, [lr], {-0}
    45c4:	7d010000 	stcvc	0, cr0, [r1, #-0]
    45c8:	00000025 	andeq	r0, r0, r5, lsr #32
    45cc:	00008e64 	andeq	r8, r0, r4, ror #28
    45d0:	000002c0 	andeq	r0, r0, r0, asr #5
    45d4:	0b519c01 	bleq	146b5e0 <__bss_end__+0x14615f0>
    45d8:	62220000 	eorvs	r0, r2, #0
    45dc:	01006675 	tsteq	r0, r5, ror r6
    45e0:	0001077d 	andeq	r0, r1, sp, ror r7
    45e4:	00088100 	andeq	r8, r8, r0, lsl #2
    45e8:	006e2200 	rsbeq	r2, lr, r0, lsl #4
    45ec:	00257d01 	eoreq	r7, r5, r1, lsl #26
    45f0:	08ad0000 	stmiaeq	sp!, {}	; <UNPREDICTABLE>
    45f4:	66220000 	strtvs	r0, [r2], -r0
    45f8:	0100746d 	tsteq	r0, sp, ror #8
    45fc:	0005857d 	andeq	r8, r5, sp, ror r5
    4600:	0008db00 	andeq	sp, r8, r0, lsl #22
    4604:	021c2300 	andseq	r2, ip, #0, 6
    4608:	7d010000 	stcvc	0, cr0, [r1, #-0]
    460c:	000008e0 	andeq	r0, r0, r0, ror #17
    4610:	7edc9103 	atnvce	f1, f3
    4614:	01007024 	tsteq	r0, r4, lsr #32
    4618:	0001077e 	andeq	r0, r1, lr, ror r7
    461c:	00093b00 	andeq	r3, r9, r0, lsl #22
    4620:	00652400 	rsbeq	r2, r5, r0, lsl #8
    4624:	01077e01 	tsteq	r7, r1, lsl #28
    4628:	09b90000 	ldmibeq	r9!, {}	; <UNPREDICTABLE>
    462c:	71250000 			; <UNDEFINED> instruction: 0x71250000
    4630:	61000004 	tstvs	r0, r4
    4634:	0500000b 	streq	r0, [r0, #-11]
    4638:	009ae803 	addseq	lr, sl, r3, lsl #16
    463c:	00202600 	eoreq	r2, r0, r0, lsl #12
    4640:	73240000 			; <UNDEFINED> instruction: 0x73240000
    4644:	078b0100 	streq	r0, [fp, r0, lsl #2]
    4648:	e0000001 	and	r0, r0, r1
    464c:	27000009 	strcs	r0, [r0, -r9]
    4650:	006d756e 	rsbeq	r7, sp, lr, ror #10
    4654:	0b668b01 	bleq	19a7260 <__bss_end__+0x199d270>
    4658:	91030000 	mrsls	r0, (UNDEF: 3)
    465c:	f9287ee0 			; <UNDEFINED> instruction: 0xf9287ee0
    4660:	0100000c 	tsteq	r0, ip
    4664:	00002c8c 	andeq	r2, r0, ip, lsl #25
    4668:	000a2a00 	andeq	r2, sl, r0, lsl #20
    466c:	8ef42900 	vmovhi.f16	s5, #64	; 0x3e000000  0.125	; <UNPREDICTABLE>
    4670:	0d920000 	ldceq	0, cr0, [r2]
    4674:	09ab0000 	stmibeq	fp!, {}	; <UNPREDICTABLE>
    4678:	012a0000 			; <UNDEFINED> instruction: 0x012a0000
    467c:	00770250 	rsbseq	r0, r7, r0, asr r2
    4680:	8f742b00 	svchi	0x00742b00
    4684:	0e520000 	cdpeq	0, 5, cr0, cr2, cr0, {0}
    4688:	88290000 	stmdahi	r9!, {}	; <UNPREDICTABLE>
    468c:	5d00008f 	stcpl	0, cr0, [r0, #-572]	; 0xfffffdc4
    4690:	e300000e 	movw	r0, #14
    4694:	2a000009 	bcs	46c0 <_start-0x3940>
    4698:	03055001 	movweq	r5, #20481	; 0x5001
    469c:	00009b58 	andeq	r9, r0, r8, asr fp
    46a0:	0551012a 	ldrbeq	r0, [r1, #-298]	; 0xfffffed6
    46a4:	009af403 	addseq	pc, sl, r3, lsl #8
    46a8:	52012a00 	andpl	r2, r1, #0, 20
    46ac:	9ae80305 	bls	ffa052c8 <__bss_end__+0xff9fb2d8>
    46b0:	012a0000 			; <UNDEFINED> instruction: 0x012a0000
    46b4:	92080253 	andls	r0, r8, #805306373	; 0x30000005
    46b8:	8f8c2b00 	svchi	0x008c2b00
    46bc:	0e680000 	cdpeq	0, 6, cr0, cr8, cr0, {0}
    46c0:	902b0000 	eorls	r0, fp, r0
    46c4:	5200008f 	andpl	r0, r0, #143	; 0x8f
    46c8:	2900000e 	stmdbcs	r0, {r1, r2, r3}
    46cc:	00008fa4 	andeq	r8, r0, r4, lsr #31
    46d0:	00000e5d 	andeq	r0, r0, sp, asr lr
    46d4:	00000a24 	andeq	r0, r0, r4, lsr #20
    46d8:	0550012a 	ldrbeq	r0, [r0, #-298]	; 0xfffffed6
    46dc:	009b7403 	addseq	r7, fp, r3, lsl #8
    46e0:	51012a00 	tstpl	r1, r0, lsl #20
    46e4:	9af40305 	bls	ffd05300 <__bss_end__+0xffcfb310>
    46e8:	012a0000 			; <UNDEFINED> instruction: 0x012a0000
    46ec:	e8030552 	stmda	r3, {r1, r4, r6, r8, sl}
    46f0:	2a00009a 	bcs	4960 <_start-0x36a0>
    46f4:	08025301 	stmdaeq	r2, {r0, r8, r9, ip, lr}
    46f8:	a82b0098 	stmdage	fp!, {r3, r4, r7}
    46fc:	6800008f 	stmdavs	r0, {r0, r1, r2, r3, r7}
    4700:	2900000e 	stmdbcs	r0, {r1, r2, r3}
    4704:	00008fd4 	ldrdeq	r8, [r0], -r4
    4708:	00000b76 	andeq	r0, r0, r6, ror fp
    470c:	00000a5a 	andeq	r0, r0, sl, asr sl
    4710:	0150012a 	cmpeq	r0, sl, lsr #2
    4714:	51012a3a 	tstpl	r1, sl, lsr sl
    4718:	7ed89103 	atnvce	f1, f3
    471c:	0252012a 	subseq	r0, r2, #-2147483638	; 0x8000000a
    4720:	022a8008 	eoreq	r8, sl, #8
    4724:	7402007d 	strvc	r0, [r2], #-125	; 0xffffff83
    4728:	7d022a00 	vstrvc	s4, [r2, #-0]
    472c:	00310104 	eorseq	r0, r1, r4, lsl #2
    4730:	00900829 	addseq	r0, r0, r9, lsr #16
    4734:	000b7600 	andeq	r7, fp, r0, lsl #12
    4738:	000a8700 	andeq	r8, sl, r0, lsl #14
    473c:	50012a00 	andpl	r2, r1, r0, lsl #20
    4740:	012a3a01 			; <UNDEFINED> instruction: 0x012a3a01
    4744:	d8910351 	ldmle	r1, {r0, r4, r6, r8, r9}
    4748:	52012a7e 	andpl	r2, r1, #516096	; 0x7e000
    474c:	2a800802 	bcs	fe00675c <__bss_end__+0xfdffc76c>
    4750:	02007d02 	andeq	r7, r0, #2, 26	; 0x80
    4754:	022a0074 	eoreq	r0, sl, #116	; 0x74
    4758:	3001047d 	andcc	r0, r1, sp, ror r4
    475c:	90382900 	eorsls	r2, r8, r0, lsl #18
    4760:	0b760000 	bleq	1d84768 <__bss_end__+0x1d7a778>
    4764:	0ab40000 	beq	fed0476c <__bss_end__+0xfecfa77c>
    4768:	012a0000 			; <UNDEFINED> instruction: 0x012a0000
    476c:	2a400150 	bcs	1004cb4 <__bss_end__+0xffacc4>
    4770:	91035101 	tstls	r3, r1, lsl #2
    4774:	012a7ed8 	ldrdeq	r7, [sl, -r8]!
    4778:	80080252 	andhi	r0, r8, r2, asr r2
    477c:	007d022a 	rsbseq	r0, sp, sl, lsr #4
    4780:	2a007402 	bcs	21790 <__bss_end__+0x177a0>
    4784:	01047d02 	tsteq	r4, r2, lsl #26
    4788:	68290030 	stmdavs	r9!, {r4, r5}
    478c:	76000090 			; <UNDEFINED> instruction: 0x76000090
    4790:	e100000b 	tst	r0, fp
    4794:	2a00000a 	bcs	47c4 <_start-0x383c>
    4798:	32015001 	andcc	r5, r1, #1
    479c:	0351012a 	cmpeq	r1, #-2147483638	; 0x8000000a
    47a0:	2a7ed891 	bcs	1fba9ec <__bss_end__+0x1fb09fc>
    47a4:	08025201 	stmdaeq	r2, {r0, r9, ip, lr}
    47a8:	7d022a80 	vstrvc	s4, [r2, #-512]	; 0xfffffe00
    47ac:	00740200 	rsbseq	r0, r4, r0, lsl #4
    47b0:	047d022a 	ldrbteq	r0, [sp], #-554	; 0xfffffdd6
    47b4:	29003001 	stmdbcs	r0, {r0, ip, sp}
    47b8:	000090ac 	andeq	r9, r0, ip, lsr #1
    47bc:	00000b76 	andeq	r0, r0, r6, ror fp
    47c0:	00000b0e 	andeq	r0, r0, lr, lsl #22
    47c4:	0150012a 	cmpeq	r0, sl, lsr #2
    47c8:	51012a38 	tstpl	r1, r8, lsr sl
    47cc:	7ed89103 	atnvce	f1, f3
    47d0:	0252012a 	subseq	r0, r2, #-2147483638	; 0x8000000a
    47d4:	022a8008 	eoreq	r8, sl, #8
    47d8:	7402007d 	strvc	r0, [r2], #-125	; 0xffffff83
    47dc:	7d022a00 	vstrvc	s4, [r2, #-0]
    47e0:	00300104 	eorseq	r0, r0, r4, lsl #2
    47e4:	0090b42b 	addseq	fp, r0, fp, lsr #8
    47e8:	000e5200 	andeq	r5, lr, r0, lsl #4
    47ec:	90d02900 	sbcsls	r2, r0, r0, lsl #18
    47f0:	0e5d0000 	cdpeq	0, 5, cr0, cr13, cr0, {0}
    47f4:	0b460000 	bleq	11847fc <__bss_end__+0x117a80c>
    47f8:	012a0000 			; <UNDEFINED> instruction: 0x012a0000
    47fc:	9c030550 	cfstr32ls	mvfx0, [r3], {80}	; 0x50
    4800:	2a00009b 	bcs	4a74 <_start-0x358c>
    4804:	03055101 	movweq	r5, #20737	; 0x5101
    4808:	00009af4 	strdeq	r9, [r0], -r4
    480c:	0552012a 	ldrbeq	r0, [r2, #-298]	; 0xfffffed6
    4810:	009ae803 	addseq	lr, sl, r3, lsl #16
    4814:	53012a00 	movwpl	r2, #6656	; 0x1a00
    4818:	00b90802 	adcseq	r0, r9, r2, lsl #16
    481c:	0090d42b 	addseq	sp, r0, fp, lsr #8
    4820:	000e6800 	andeq	r6, lr, r0, lsl #16
    4824:	08000000 	stmdaeq	r0, {}	; <UNPREDICTABLE>
    4828:	00000114 	andeq	r0, r0, r4, lsl r1
    482c:	00000b61 	andeq	r0, r0, r1, ror #22
    4830:	0000c709 	andeq	ip, r0, r9, lsl #14
    4834:	0e000900 	vmlaeq.f16	s0, s0, s0	; <UNPREDICTABLE>
    4838:	00000b51 	andeq	r0, r0, r1, asr fp
    483c:	00010d08 	andeq	r0, r1, r8, lsl #26
    4840:	000b7600 	andeq	r7, fp, r0, lsl #12
    4844:	00c70900 	sbceq	r0, r7, r0, lsl #18
    4848:	007f0000 	rsbseq	r0, pc, r0
    484c:	000d1d2c 	andeq	r1, sp, ip, lsr #26
    4850:	07470100 	strbeq	r0, [r7, -r0, lsl #2]
    4854:	74000001 	strvc	r0, [r0], #-1
    4858:	9c00008c 	stcls	0, cr0, [r0], {140}	; 0x8c
    485c:	01000001 	tsteq	r0, r1
    4860:	000cb19c 	muleq	ip, ip, r1
    4864:	01ff2d00 	mvnseq	r2, r0, lsl #26
    4868:	47010000 	strmi	r0, [r1, -r0]
    486c:	0000002c 	andeq	r0, r0, ip, lsr #32
    4870:	00000a54 	andeq	r0, r0, r4, asr sl
    4874:	74736422 	ldrbtvc	r6, [r3], #-1058	; 0xfffffbde
    4878:	07470100 	strbeq	r0, [r7, -r0, lsl #2]
    487c:	82000001 	andhi	r0, r0, #1
    4880:	2200000a 	andcs	r0, r0, #10
    4884:	4701006e 	strmi	r0, [r1, -lr, rrx]
    4888:	00000025 	andeq	r0, r0, r5, lsr #32
    488c:	00000aa0 	andeq	r0, r0, r0, lsr #21
    4890:	6c617622 	stclvs	6, cr7, [r1], #-136	; 0xffffff78
    4894:	25470100 	strbcs	r0, [r7, #-256]	; 0xffffff00
    4898:	be000000 	cdplt	0, 0, cr0, cr0, cr0, {0}
    489c:	2d00000a 	stccs	0, cr0, [r0, #-40]	; 0xffffffd8
    48a0:	00000cf9 	strdeq	r0, [r0], -r9
    48a4:	00254701 	eoreq	r4, r5, r1, lsl #14
    48a8:	0b320000 	bleq	c848b0 <__bss_end__+0xc7a8c0>
    48ac:	e8230000 	stmda	r3!, {}	; <UNPREDICTABLE>
    48b0:	0100000c 	tsteq	r0, ip
    48b4:	00002547 	andeq	r2, r0, r7, asr #10
    48b8:	04910200 	ldreq	r0, [r1], #512	; 0x200
    48bc:	66756227 	ldrbtvs	r6, [r5], -r7, lsr #4
    48c0:	b14c0100 	mrslt	r0, (UNDEF: 92)
    48c4:	0300000c 	movweq	r0, #12
    48c8:	247fa891 	ldrbtcs	sl, [pc], #-2193	; 48d0 <_start-0x3730>
    48cc:	4c010070 	stcmi	0, cr0, [r1], {112}	; 0x70
    48d0:	00000107 	andeq	r0, r0, r7, lsl #2
    48d4:	00000b5c 	andeq	r0, r0, ip, asr fp
    48d8:	01007524 	tsteq	r0, r4, lsr #10
    48dc:	00002c4d 	andeq	r2, r0, sp, asr #24
    48e0:	000c0e00 	andeq	r0, ip, r0, lsl #28
    48e4:	04712500 	ldrbteq	r2, [r1], #-1280	; 0xfffffb00
    48e8:	0cd10000 	ldcleq	0, cr0, [r1], {0}
    48ec:	03050000 	movweq	r0, #20480	; 0x5000
    48f0:	00009ad0 	ldrdeq	r9, [r0], -r0
    48f4:	008ce02e 	addeq	lr, ip, lr, lsr #32
    48f8:	00007c00 	andeq	r7, r0, r0, lsl #24
    48fc:	000c3b00 	andeq	r3, ip, r0, lsl #22
    4900:	0d072800 	stceq	8, cr2, [r7, #-0]
    4904:	52010000 	andpl	r0, r1, #0
    4908:	0000002c 	andeq	r0, r0, ip, lsr #32
    490c:	00000c79 	andeq	r0, r0, r9, ror ip
    4910:	8d882900 	vstrhi.16	s4, [r8]	; <UNPREDICTABLE>
    4914:	0d420000 	stcleq	0, cr0, [r2, #-0]
    4918:	0c4f0000 	mareq	acc0, r0, pc
    491c:	012a0000 			; <UNDEFINED> instruction: 0x012a0000
    4920:	007d0251 	rsbseq	r0, sp, r1, asr r2
    4924:	8d9c2900 	vldrhi.16	s4, [ip]	; <UNPREDICTABLE>
    4928:	0cd60000 	ldcleq	0, cr0, [r6], {0}
    492c:	0c6f0000 	stcleq	0, cr0, [pc], #-0	; 4934 <_start-0x36cc>
    4930:	012a0000 			; <UNDEFINED> instruction: 0x012a0000
    4934:	00750250 	rsbseq	r0, r5, r0, asr r2
    4938:	0251012a 	subseq	r0, r1, #-2147483638	; 0x8000000a
    493c:	012a0074 			; <UNDEFINED> instruction: 0x012a0074
    4940:	007d0253 	rsbseq	r0, sp, r3, asr r2
    4944:	8ddc2b00 	vldrhi	d18, [ip]
    4948:	0e520000 	cdpeq	0, 5, cr0, cr2, cr0, {0}
    494c:	f0290000 			; <UNDEFINED> instruction: 0xf0290000
    4950:	5d00008d 	stcpl	0, cr0, [r0, #-564]	; 0xfffffdcc
    4954:	a700000e 	strge	r0, [r0, -lr]
    4958:	2a00000c 	bcs	4990 <_start-0x3670>
    495c:	03055001 	movweq	r5, #20481	; 0x5001
    4960:	00009b08 	andeq	r9, r0, r8, lsl #22
    4964:	0551012a 	ldrbeq	r0, [r1, #-298]	; 0xfffffed6
    4968:	009af403 	addseq	pc, sl, r3, lsl #8
    496c:	52012a00 	andpl	r2, r1, #0, 20
    4970:	9ad00305 	bls	ff40558c <__bss_end__+0xff3fb59c>
    4974:	012a0000 			; <UNDEFINED> instruction: 0x012a0000
    4978:	75080253 	strvc	r0, [r8, #-595]	; 0xfffffdad
    497c:	8df42b00 			; <UNDEFINED> instruction: 0x8df42b00
    4980:	0e680000 	cdpeq	0, 6, cr0, cr8, cr0, {0}
    4984:	08000000 	stmdaeq	r0, {}	; <UNPREDICTABLE>
    4988:	0000010d 	andeq	r0, r0, sp, lsl #2
    498c:	00000cc1 	andeq	r0, r0, r1, asr #25
    4990:	0000c709 	andeq	ip, r0, r9, lsl #14
    4994:	08003f00 	stmdaeq	r0, {r8, r9, sl, fp, ip, sp}
    4998:	00000114 	andeq	r0, r0, r4, lsl r1
    499c:	00000cd1 	ldrdeq	r0, [r0], -r1
    49a0:	0000c709 	andeq	ip, r0, r9, lsl #14
    49a4:	0e000400 	cfcpyseq	mvf0, mvf0
    49a8:	00000cc1 	andeq	r0, r0, r1, asr #25
    49ac:	000cf12c 	andeq	pc, ip, ip, lsr #2
    49b0:	07370100 	ldreq	r0, [r7, -r0, lsl #2]!
    49b4:	34000001 	strcc	r0, [r0], #-1
    49b8:	4000008c 	andmi	r0, r0, ip, lsl #1
    49bc:	01000000 	mrseq	r0, (UNDEF: 0)
    49c0:	000d429c 	muleq	sp, ip, r2
    49c4:	73642200 	cmnvc	r4, #0, 4
    49c8:	37010074 	smlsdxcc	r1, r4, r0, r0
    49cc:	00000107 	andeq	r0, r0, r7, lsl #2
    49d0:	00000cb0 			; <UNDEFINED> instruction: 0x00000cb0
    49d4:	01006e22 	tsteq	r0, r2, lsr #28
    49d8:	00002537 	andeq	r2, r0, r7, lsr r5
    49dc:	000ce800 	andeq	lr, ip, r0, lsl #16
    49e0:	00702200 	rsbseq	r2, r0, r0, lsl #4
    49e4:	01073701 	tsteq	r7, r1, lsl #14
    49e8:	0d090000 	stceq	0, cr0, [r9, #-0]
    49ec:	912d0000 			; <UNDEFINED> instruction: 0x912d0000
    49f0:	0100000b 	tsteq	r0, fp
    49f4:	00010737 	andeq	r0, r1, r7, lsr r7
    49f8:	000d3f00 	andeq	r3, sp, r0, lsl #30
    49fc:	656c2400 	strbvs	r2, [ip, #-1024]!	; 0xfffffc00
    4a00:	3901006e 	stmdbcc	r1, {r1, r2, r3, r5, r6}
    4a04:	00000025 	andeq	r0, r0, r5, lsr #32
    4a08:	00000d5d 	andeq	r0, r0, sp, asr sp
    4a0c:	01007327 	tsteq	r0, r7, lsr #6
    4a10:	0001073d 	andeq	r0, r1, sp, lsr r7
    4a14:	00500100 	subseq	r0, r0, r0, lsl #2
    4a18:	6461702f 	strbtvs	r7, [r1], #-47	; 0xffffffd1
    4a1c:	072e0100 	streq	r0, [lr, -r0, lsl #2]!
    4a20:	08000001 	stmdaeq	r0, {r0}
    4a24:	2c00008c 	stccs	0, cr0, [r0], {140}	; 0x8c
    4a28:	01000000 	mrseq	r0, (UNDEF: 0)
    4a2c:	000d929c 	muleq	sp, ip, r2
    4a30:	00702200 	rsbseq	r2, r0, r0, lsl #4
    4a34:	01072e01 	tsteq	r7, r1, lsl #28
    4a38:	0dbc0000 	ldceq	0, cr0, [ip]
    4a3c:	ff2d0000 			; <UNDEFINED> instruction: 0xff2d0000
    4a40:	01000001 	tsteq	r0, r1
    4a44:	0001072e 	andeq	r0, r1, lr, lsr #14
    4a48:	000de700 	andeq	lr, sp, r0, lsl #14
    4a4c:	0cf92300 	ldcleq	3, cr2, [r9]
    4a50:	2e010000 	cdpcs	0, 0, cr0, cr1, cr0, {0}
    4a54:	00000025 	andeq	r0, r0, r5, lsr #32
    4a58:	6c275201 	sfmvs	f5, 4, [r7], #-4
    4a5c:	01006e65 	tsteq	r0, r5, ror #28
    4a60:	0000252f 	andeq	r2, r0, pc, lsr #10
    4a64:	00510100 	subseq	r0, r1, r0, lsl #2
    4a68:	000d152c 	andeq	r1, sp, ip, lsr #10
    4a6c:	25270100 	strcs	r0, [r7, #-256]!	; 0xffffff00
    4a70:	f4000000 	vst4.8	{d0-d3}, [r0], r0
    4a74:	1400008b 	strne	r0, [r0], #-139	; 0xffffff75
    4a78:	01000000 	mrseq	r0, (UNDEF: 0)
    4a7c:	000db99c 	muleq	sp, ip, r9
    4a80:	00632200 	rsbeq	r2, r3, r0, lsl #4
    4a84:	00252701 	eoreq	r2, r5, r1, lsl #14
    4a88:	0e080000 	cdpeq	0, 0, cr0, cr8, cr0, {0}
    4a8c:	30000000 	andcc	r0, r0, r0
    4a90:	00000cd9 	ldrdeq	r0, [r0], -r9
    4a94:	8e101f01 	cdphi	15, 1, cr1, cr0, cr1, {0}
    4a98:	00540000 	subseq	r0, r4, r0
    4a9c:	9c010000 	stcls	0, cr0, [r1], {-0}
    4aa0:	00000e3d 	andeq	r0, r0, sp, lsr lr
    4aa4:	000d0d2d 	andeq	r0, sp, sp, lsr #26
    4aa8:	981f0100 	ldmdals	pc, {r8}	; <UNPREDICTABLE>
    4aac:	36000008 	strcc	r0, [r0], -r8
    4ab0:	2d00000e 	stccs	0, cr0, [r0, #-56]	; 0xffffffc8
    4ab4:	00000cff 	strdeq	r0, [r0], -pc	; <UNPREDICTABLE>
    4ab8:	08b81f01 	ldmeq	r8!, {r0, r8, r9, sl, fp, ip}
    4abc:	0e570000 	cdpeq	0, 5, cr0, cr7, cr0, {0}
    4ac0:	71250000 			; <UNDEFINED> instruction: 0x71250000
    4ac4:	4d000004 	stcmi	0, cr0, [r0, #-16]
    4ac8:	0500000e 	streq	r0, [r0, #-14]
    4acc:	009ad803 	addseq	sp, sl, r3, lsl #16
    4ad0:	8e382b00 	vaddhi.f64	d2, d8, d0
    4ad4:	0e520000 	cdpeq	0, 5, cr0, cr2, cr0, {0}
    4ad8:	4c290000 	stcmi	0, cr0, [r9], #-0
    4adc:	5d00008e 	stcpl	0, cr0, [r0, #-568]	; 0xfffffdc8
    4ae0:	3300000e 	movwcc	r0, #14
    4ae4:	2a00000e 	bcs	4b24 <_start-0x34dc>
    4ae8:	03055001 	movweq	r5, #20481	; 0x5001
    4aec:	00009b40 	andeq	r9, r0, r0, asr #22
    4af0:	0551012a 	ldrbeq	r0, [r1, #-298]	; 0xfffffed6
    4af4:	009af403 	addseq	pc, sl, r3, lsl #8
    4af8:	52012a00 	andpl	r2, r1, #0, 20
    4afc:	9ad80305 	bls	ff605718 <__bss_end__+0xff5fb728>
    4b00:	012a0000 			; <UNDEFINED> instruction: 0x012a0000
    4b04:	20080253 	andcs	r0, r8, r3, asr r2
    4b08:	8e502b00 	vnmlshi.f64	d18, d0, d0
    4b0c:	0e680000 	cdpeq	0, 6, cr0, cr8, cr0, {0}
    4b10:	08000000 	stmdaeq	r0, {}	; <UNPREDICTABLE>
    4b14:	00000114 	andeq	r0, r0, r4, lsl r1
    4b18:	00000e4d 	andeq	r0, r0, sp, asr #28
    4b1c:	0000c709 	andeq	ip, r0, r9, lsl #14
    4b20:	0e000e00 	cdpeq	14, 0, cr0, cr0, cr0, {0}
    4b24:	00000e3d 	andeq	r0, r0, sp, lsr lr
    4b28:	00038531 	andeq	r8, r3, r1, lsr r5
    4b2c:	00038500 	andeq	r8, r3, r0, lsl #10
    4b30:	311e0600 	tstcc	lr, r0, lsl #12
    4b34:	00000c21 	andeq	r0, r0, r1, lsr #24
    4b38:	00000c21 	andeq	r0, r0, r1, lsr #24
    4b3c:	86312906 	ldrthi	r2, [r1], -r6, lsl #18
    4b40:	86000006 	strhi	r0, [r0], -r6
    4b44:	06000006 	streq	r0, [r0], -r6
    4b48:	08eb0065 	stmiaeq	fp!, {r0, r2, r5, r6}^
    4b4c:	00040000 	andeq	r0, r4, r0
    4b50:	00000bbf 			; <UNDEFINED> instruction: 0x00000bbf
    4b54:	0c370104 	ldfeqs	f0, [r7], #-16
    4b58:	300c0000 	andcc	r0, ip, r0
    4b5c:	9e00000d 	cdpls	0, 0, cr0, cr0, cr13, {0}
    4b60:	2400000c 	strcs	r0, [r0], #-12
    4b64:	34000091 	strcc	r0, [r0], #-145	; 0xffffff6f
    4b68:	dd000000 	stcle	0, cr0, [r0, #-0]
    4b6c:	02000006 	andeq	r0, r0, #6
    4b70:	6e690504 	cdpvs	5, 6, cr0, cr9, cr4, {0}
    4b74:	04030074 	streq	r0, [r3], #-116	; 0xffffff8c
    4b78:	00014a07 	andeq	r4, r1, r7, lsl #20
    4b7c:	06010300 	streq	r0, [r1], -r0, lsl #6
    4b80:	00000620 	andeq	r0, r0, r0, lsr #12
    4b84:	6b050203 	blvs	145398 <__bss_end__+0x13b3a8>
    4b88:	03000006 	movweq	r0, #6
    4b8c:	01c80504 	biceq	r0, r8, r4, lsl #10
    4b90:	08030000 	stmdaeq	r3, {}	; <UNPREDICTABLE>
    4b94:	0001c305 	andeq	ip, r1, r5, lsl #6
    4b98:	08010300 	stmdaeq	r1, {r8, r9}
    4b9c:	0000061e 	andeq	r0, r0, lr, lsl r6
    4ba0:	1a070203 	bne	1c53b4 <__bss_end__+0x1bb3c4>
    4ba4:	03000004 	movweq	r0, #4
    4ba8:	01450704 	cmpeq	r5, r4, lsl #14
    4bac:	08030000 	stmdaeq	r3, {}	; <UNPREDICTABLE>
    4bb0:	00014007 	andeq	r4, r1, r7
    4bb4:	05e20400 	strbeq	r0, [r2, #1024]!	; 0x400
    4bb8:	07020000 	streq	r0, [r2, -r0]
    4bbc:	00000025 	andeq	r0, r0, r5, lsr #32
    4bc0:	00059e04 	andeq	r9, r5, r4, lsl #28
    4bc4:	412c0300 			; <UNDEFINED> instruction: 0x412c0300
    4bc8:	04000000 	streq	r0, [r0], #-0
    4bcc:	00000769 	andeq	r0, r0, r9, ror #14
    4bd0:	00417203 	subeq	r7, r1, r3, lsl #4
    4bd4:	7e050000 	cdpvc	0, 0, cr0, cr5, cr0, {0}
    4bd8:	04000004 	streq	r0, [r0], #-4
    4bdc:	002c0165 	eoreq	r0, ip, r5, ror #2
    4be0:	04060000 	streq	r0, [r6], #-0
    4be4:	00b7a603 	adcseq	sl, r7, r3, lsl #12
    4be8:	6b070000 	blvs	1c4bf0 <__bss_end__+0x1bac00>
    4bec:	03000004 	movweq	r0, #4
    4bf0:	00008ca8 	andeq	r8, r0, r8, lsr #25
    4bf4:	037e0700 	cmneq	lr, #0, 14
    4bf8:	a9030000 	stmdbge	r3, {}	; <UNPREDICTABLE>
    4bfc:	000000b7 	strheq	r0, [r0], -r7
    4c00:	004f0800 	subeq	r0, pc, r0, lsl #16
    4c04:	00c70000 	sbceq	r0, r7, r0
    4c08:	c7090000 	strgt	r0, [r9, -r0]
    4c0c:	03000000 	movweq	r0, #0
    4c10:	07040300 	streq	r0, [r4, -r0, lsl #6]
    4c14:	0000050e 	andeq	r0, r0, lr, lsl #10
    4c18:	a303080a 	movwge	r0, #14346	; 0x380a
    4c1c:	000000ef 	andeq	r0, r0, pc, ror #1
    4c20:	0007450b 	andeq	r4, r7, fp, lsl #10
    4c24:	25a50300 	strcs	r0, [r5, #768]!	; 0x300
    4c28:	00000000 	andeq	r0, r0, r0
    4c2c:	0007ec0b 	andeq	lr, r7, fp, lsl #24
    4c30:	98aa0300 	stmials	sl!, {r8, r9}
    4c34:	04000000 	streq	r0, [r0], #-0
    4c38:	06a00400 	strteq	r0, [r0], r0, lsl #8
    4c3c:	ab030000 	blge	c4c44 <__bss_end__+0xbac54>
    4c40:	000000ce 	andeq	r0, r0, lr, asr #1
    4c44:	00031c04 	andeq	r1, r3, r4, lsl #24
    4c48:	6baf0300 	blvs	febc5850 <__bss_end__+0xfebbb860>
    4c4c:	0c000000 	stceq	0, cr0, [r0], {-0}
    4c50:	0d040d04 	stceq	13, cr0, [r4, #-16]
    4c54:	03000001 	movweq	r0, #1
    4c58:	06270801 	strteq	r0, [r7], -r1, lsl #16
    4c5c:	0d0e0000 	stceq	0, cr0, [lr, #-0]
    4c60:	04000001 	streq	r0, [r0], #-1
    4c64:	00000826 	andeq	r0, r0, r6, lsr #16
    4c68:	005d1605 	subseq	r1, sp, r5, lsl #12
    4c6c:	2d0f0000 	stccs	0, cr0, [pc, #-0]	; 4c74 <_start-0x338c>
    4c70:	18000003 	stmdane	r0, {r0, r1}
    4c74:	01772d05 	cmneq	r7, r5, lsl #26
    4c78:	d10b0000 	mrsle	r0, (UNDEF: 11)
    4c7c:	05000006 	streq	r0, [r0, #-6]
    4c80:	0001772f 	andeq	r7, r1, pc, lsr #14
    4c84:	5f100000 	svcpl	0x00100000
    4c88:	3005006b 	andcc	r0, r5, fp, rrx
    4c8c:	00000025 	andeq	r0, r0, r5, lsr #32
    4c90:	071e0b04 	ldreq	r0, [lr, -r4, lsl #22]
    4c94:	30050000 	andcc	r0, r5, r0
    4c98:	00000025 	andeq	r0, r0, r5, lsr #32
    4c9c:	03160b08 	tsteq	r6, #8, 22	; 0x2000
    4ca0:	30050000 	andcc	r0, r5, r0
    4ca4:	00000025 	andeq	r0, r0, r5, lsr #32
    4ca8:	08c50b0c 	stmiaeq	r5, {r2, r3, r8, r9, fp}^
    4cac:	30050000 	andcc	r0, r5, r0
    4cb0:	00000025 	andeq	r0, r0, r5, lsr #32
    4cb4:	785f1010 	ldmdavc	pc, {r4, ip}^	; <UNPREDICTABLE>
    4cb8:	7d310500 	cfldr32vc	mvfx0, [r1, #-0]
    4cbc:	14000001 	strne	r0, [r0], #-1
    4cc0:	24040d00 	strcs	r0, [r4], #-3328	; 0xfffff300
    4cc4:	08000001 	stmdaeq	r0, {r0}
    4cc8:	00000119 	andeq	r0, r0, r9, lsl r1
    4ccc:	0000018d 	andeq	r0, r0, sp, lsl #3
    4cd0:	0000c709 	andeq	ip, r0, r9, lsl #14
    4cd4:	0f000000 	svceq	0x00000000
    4cd8:	00000370 	andeq	r0, r0, r0, ror r3
    4cdc:	06350524 	ldrteq	r0, [r5], -r4, lsr #10
    4ce0:	0b000002 	bleq	4cf0 <_start-0x3310>
    4ce4:	000001ba 			; <UNDEFINED> instruction: 0x000001ba
    4ce8:	00253705 	eoreq	r3, r5, r5, lsl #14
    4cec:	0b000000 	bleq	4cf4 <_start-0x330c>
    4cf0:	00000791 	muleq	r0, r1, r7
    4cf4:	00253805 	eoreq	r3, r5, r5, lsl #16
    4cf8:	0b040000 	bleq	104d00 <__bss_end__+0xfad10>
    4cfc:	00000204 	andeq	r0, r0, r4, lsl #4
    4d00:	00253905 	eoreq	r3, r5, r5, lsl #18
    4d04:	0b080000 	bleq	204d0c <__bss_end__+0x1fad1c>
    4d08:	000009d9 	ldrdeq	r0, [r0], -r9
    4d0c:	00253a05 	eoreq	r3, r5, r5, lsl #20
    4d10:	0b0c0000 	bleq	304d18 <__bss_end__+0x2fad28>
    4d14:	00000563 	andeq	r0, r0, r3, ror #10
    4d18:	00253b05 	eoreq	r3, r5, r5, lsl #22
    4d1c:	0b100000 	bleq	404d24 <__bss_end__+0x3fad34>
    4d20:	000004d1 	ldrdeq	r0, [r0], -r1
    4d24:	00253c05 	eoreq	r3, r5, r5, lsl #24
    4d28:	0b140000 	bleq	504d30 <__bss_end__+0x4fad40>
    4d2c:	000008ca 	andeq	r0, r0, sl, asr #17
    4d30:	00253d05 	eoreq	r3, r5, r5, lsl #26
    4d34:	0b180000 	bleq	604d3c <__bss_end__+0x5fad4c>
    4d38:	00000675 	andeq	r0, r0, r5, ror r6
    4d3c:	00253e05 	eoreq	r3, r5, r5, lsl #28
    4d40:	0b1c0000 	bleq	704d48 <__bss_end__+0x6fad58>
    4d44:	00000953 	andeq	r0, r0, r3, asr r9
    4d48:	00253f05 	eoreq	r3, r5, r5, lsl #30
    4d4c:	00200000 	eoreq	r0, r0, r0
    4d50:	00021311 	andeq	r1, r2, r1, lsl r3
    4d54:	05010800 	streq	r0, [r1, #-2048]	; 0xfffff800
    4d58:	00024648 	andeq	r4, r2, r8, asr #12
    4d5c:	02e80b00 	rsceq	r0, r8, #0, 22
    4d60:	49050000 	stmdbmi	r5, {}	; <UNPREDICTABLE>
    4d64:	00000246 	andeq	r0, r0, r6, asr #4
    4d68:	00000b00 	andeq	r0, r0, r0, lsl #22
    4d6c:	4a050000 	bmi	144d74 <__bss_end__+0x13ad84>
    4d70:	00000246 	andeq	r0, r0, r6, asr #4
    4d74:	07b31280 	ldreq	r1, [r3, r0, lsl #5]!
    4d78:	4c050000 	stcmi	0, cr0, [r5], {-0}
    4d7c:	00000119 	andeq	r0, r0, r9, lsl r1
    4d80:	5d120100 	ldfpls	f0, [r2, #-0]
    4d84:	05000002 	streq	r0, [r0, #-2]
    4d88:	0001194f 	andeq	r1, r1, pc, asr #18
    4d8c:	00010400 	andeq	r0, r1, r0, lsl #8
    4d90:	00010508 	andeq	r0, r1, r8, lsl #10
    4d94:	00025600 	andeq	r5, r2, r0, lsl #12
    4d98:	00c70900 	sbceq	r0, r7, r0, lsl #18
    4d9c:	001f0000 	andseq	r0, pc, r0
    4da0:	00057d11 	andeq	r7, r5, r1, lsl sp
    4da4:	05019000 	streq	r9, [r1, #-0]
    4da8:	0002945b 	andeq	r9, r2, fp, asr r4
    4dac:	06d10b00 	ldrbeq	r0, [r1], r0, lsl #22
    4db0:	5c050000 	stcpl	0, cr0, [r5], {-0}
    4db4:	00000294 	muleq	r0, r4, r2
    4db8:	06ff0b00 	ldrbteq	r0, [pc], r0, lsl #22
    4dbc:	5d050000 	stcpl	0, cr0, [r5, #-0]
    4dc0:	00000025 	andeq	r0, r0, r5, lsr #32
    4dc4:	03110b04 	tsteq	r1, #4, 22	; 0x1000
    4dc8:	5f050000 	svcpl	0x00050000
    4dcc:	0000029a 	muleq	r0, sl, r2
    4dd0:	02130b08 	andseq	r0, r3, #8, 22	; 0x2000
    4dd4:	60050000 	andvs	r0, r5, r0
    4dd8:	00000206 	andeq	r0, r0, r6, lsl #4
    4ddc:	040d0088 	streq	r0, [sp], #-136	; 0xffffff78
    4de0:	00000256 	andeq	r0, r0, r6, asr r2
    4de4:	0002aa08 	andeq	sl, r2, r8, lsl #20
    4de8:	0002aa00 	andeq	sl, r2, r0, lsl #20
    4dec:	00c70900 	sbceq	r0, r7, r0, lsl #18
    4df0:	001f0000 	andseq	r0, pc, r0
    4df4:	02b0040d 	adcseq	r0, r0, #218103808	; 0xd000000
    4df8:	0f130000 	svceq	0x00130000
    4dfc:	0000067f 	andeq	r0, r0, pc, ror r6
    4e00:	d6730508 	ldrbtle	r0, [r3], -r8, lsl #10
    4e04:	0b000002 	bleq	4e14 <_start-0x31ec>
    4e08:	000001fe 	strdeq	r0, [r0], -lr
    4e0c:	02d67405 	sbcseq	r7, r6, #83886080	; 0x5000000
    4e10:	0b000000 	bleq	4e18 <_start-0x31e8>
    4e14:	000000a6 	andeq	r0, r0, r6, lsr #1
    4e18:	00257505 	eoreq	r7, r5, r5, lsl #10
    4e1c:	00040000 	andeq	r0, r4, r0
    4e20:	004f040d 	subeq	r0, pc, sp, lsl #8
    4e24:	ab0f0000 	blge	3c4e2c <__bss_end__+0x3bae3c>
    4e28:	68000006 	stmdavs	r0, {r1, r2}
    4e2c:	0406b305 	streq	fp, [r6], #-773	; 0xfffffcfb
    4e30:	5f100000 	svcpl	0x00100000
    4e34:	b4050070 	strlt	r0, [r5], #-112	; 0xffffff90
    4e38:	000002d6 	ldrdeq	r0, [r0], -r6
    4e3c:	725f1000 	subsvc	r1, pc, #0
    4e40:	25b50500 	ldrcs	r0, [r5, #1280]!	; 0x500
    4e44:	04000000 	streq	r0, [r0], #-0
    4e48:	00775f10 	rsbseq	r5, r7, r0, lsl pc
    4e4c:	0025b605 	eoreq	fp, r5, r5, lsl #12
    4e50:	0b080000 	bleq	204e58 <__bss_end__+0x1fae68>
    4e54:	00000256 	andeq	r0, r0, r6, asr r2
    4e58:	003ab705 	eorseq	fp, sl, r5, lsl #14
    4e5c:	0b0c0000 	bleq	304e64 <__bss_end__+0x2fae74>
    4e60:	000003af 	andeq	r0, r0, pc, lsr #7
    4e64:	003ab805 	eorseq	fp, sl, r5, lsl #16
    4e68:	100e0000 	andne	r0, lr, r0
    4e6c:	0066625f 	rsbeq	r6, r6, pc, asr r2
    4e70:	02b1b905 	adcseq	fp, r1, #81920	; 0x14000
    4e74:	0b100000 	bleq	404e7c <__bss_end__+0x3fae8c>
    4e78:	00000160 	andeq	r0, r0, r0, ror #2
    4e7c:	0025ba05 	eoreq	fp, r5, r5, lsl #20
    4e80:	0b180000 	bleq	604e88 <__bss_end__+0x5fae98>
    4e84:	00000221 	andeq	r0, r0, r1, lsr #4
    4e88:	0105c105 	tsteq	r5, r5, lsl #2
    4e8c:	0b1c0000 	bleq	704e94 <__bss_end__+0x6faea4>
    4e90:	000008ad 	andeq	r0, r0, sp, lsr #17
    4e94:	0561c305 	strbeq	ip, [r1, #-773]!	; 0xfffffcfb
    4e98:	0b200000 	bleq	804ea0 <__bss_end__+0x7faeb0>
    4e9c:	00000176 	andeq	r0, r0, r6, ror r1
    4ea0:	058bc505 	streq	ip, [fp, #1285]	; 0x505
    4ea4:	0b240000 	bleq	904eac <__bss_end__+0x8faebc>
    4ea8:	00000756 	andeq	r0, r0, r6, asr r7
    4eac:	05afc805 	streq	ip, [pc, #2053]!	; 56b9 <_start-0x2947>
    4eb0:	0b280000 	bleq	a04eb8 <__bss_end__+0x9faec8>
    4eb4:	0000096d 	andeq	r0, r0, sp, ror #18
    4eb8:	05c9c905 	strbeq	ip, [r9, #2309]	; 0x905
    4ebc:	102c0000 	eorne	r0, ip, r0
    4ec0:	0062755f 	rsbeq	r7, r2, pc, asr r5
    4ec4:	02b1cc05 	adcseq	ip, r1, #1280	; 0x500
    4ec8:	10300000 	eorsne	r0, r0, r0
    4ecc:	0070755f 	rsbseq	r7, r0, pc, asr r5
    4ed0:	02d6cd05 	sbcseq	ip, r6, #320	; 0x140
    4ed4:	10380000 	eorsne	r0, r8, r0
    4ed8:	0072755f 	rsbseq	r7, r2, pc, asr r5
    4edc:	0025ce05 	eoreq	ip, r5, r5, lsl #28
    4ee0:	0b3c0000 	bleq	f04ee8 <__bss_end__+0xefaef8>
    4ee4:	000001f0 	strdeq	r0, [r0], -r0	; <UNPREDICTABLE>
    4ee8:	05cfd105 	strbeq	sp, [pc, #261]	; 4ff5 <_start-0x300b>
    4eec:	0b400000 	bleq	1004ef4 <__bss_end__+0xffaf04>
    4ef0:	00000924 	andeq	r0, r0, r4, lsr #18
    4ef4:	05dfd205 	ldrbeq	sp, [pc, #517]	; 5101 <_start-0x2eff>
    4ef8:	10430000 	subne	r0, r3, r0
    4efc:	00626c5f 	rsbeq	r6, r2, pc, asr ip
    4f00:	02b1d505 	adcseq	sp, r1, #20971520	; 0x1400000
    4f04:	0b440000 	bleq	1104f0c <__bss_end__+0x10faf1c>
    4f08:	00000273 	andeq	r0, r0, r3, ror r2
    4f0c:	0025d805 	eoreq	sp, r5, r5, lsl #16
    4f10:	0b4c0000 	bleq	1304f18 <__bss_end__+0x12faf28>
    4f14:	000002a9 	andeq	r0, r0, r9, lsr #5
    4f18:	0076d905 	rsbseq	sp, r6, r5, lsl #18
    4f1c:	0b500000 	bleq	1404f24 <__bss_end__+0x13faf34>
    4f20:	0000064c 	andeq	r0, r0, ip, asr #12
    4f24:	0424dc05 	strteq	sp, [r4], #-3077	; 0xfffff3fb
    4f28:	0b540000 	bleq	1504f30 <__bss_end__+0x14faf40>
    4f2c:	00001090 	muleq	r0, r0, r0
    4f30:	00fae005 	rscseq	lr, sl, r5
    4f34:	0b580000 	bleq	1604f3c <__bss_end__+0x15faf4c>
    4f38:	000006c3 	andeq	r0, r0, r3, asr #13
    4f3c:	00efe205 	rsceq	lr, pc, r5, lsl #4
    4f40:	0b5c0000 	bleq	1704f48 <__bss_end__+0x16faf58>
    4f44:	0000049f 	muleq	r0, pc, r4	; <UNPREDICTABLE>
    4f48:	0025e305 	eoreq	lr, r5, r5, lsl #6
    4f4c:	00640000 	rsbeq	r0, r4, r0
    4f50:	00002514 	andeq	r2, r0, r4, lsl r5
    4f54:	00042400 	andeq	r2, r4, r0, lsl #8
    4f58:	04241500 	strteq	r1, [r4], #-1280	; 0xfffffb00
    4f5c:	05150000 	ldreq	r0, [r5, #-0]
    4f60:	15000001 	strne	r0, [r0, #-1]
    4f64:	00000107 	andeq	r0, r0, r7, lsl #2
    4f68:	00002515 	andeq	r2, r0, r5, lsl r5
    4f6c:	040d0000 	streq	r0, [sp], #-0
    4f70:	0000042f 	andeq	r0, r0, pc, lsr #8
    4f74:	0004240e 	andeq	r2, r4, lr, lsl #8
    4f78:	07261600 	streq	r1, [r6, -r0, lsl #12]!
    4f7c:	04280000 	strteq	r0, [r8], #-0
    4f80:	61023805 	tstvs	r2, r5, lsl #16
    4f84:	17000005 	strne	r0, [r0, -r5]
    4f88:	00000664 	andeq	r0, r0, r4, ror #12
    4f8c:	25023a05 	strcs	r3, [r2, #-2565]	; 0xfffff5fb
    4f90:	00000000 	andeq	r0, r0, r0
    4f94:	00026517 	andeq	r6, r2, r7, lsl r5
    4f98:	023f0500 	eorseq	r0, pc, #0, 10
    4f9c:	00000636 	andeq	r0, r0, r6, lsr r6
    4fa0:	03941704 	orrseq	r1, r4, #4, 14	; 0x100000
    4fa4:	3f050000 	svccc	0x00050000
    4fa8:	00063602 	andeq	r3, r6, r2, lsl #12
    4fac:	25170800 	ldrcs	r0, [r7, #-2048]	; 0xfffff800
    4fb0:	05000003 	streq	r0, [r0, #-3]
    4fb4:	0636023f 			; <UNDEFINED> instruction: 0x0636023f
    4fb8:	170c0000 	strne	r0, [ip, -r0]
    4fbc:	000006fa 	strdeq	r0, [r0], -sl
    4fc0:	25024105 	strcs	r4, [r2, #-261]	; 0xfffffefb
    4fc4:	10000000 	andne	r0, r0, r0
    4fc8:	0000e517 	andeq	lr, r0, r7, lsl r5
    4fcc:	02420500 	subeq	r0, r2, #0, 10
    4fd0:	00000818 	andeq	r0, r0, r8, lsl r8
    4fd4:	086f1714 	stmdaeq	pc!, {r2, r4, r8, r9, sl, ip}^	; <UNPREDICTABLE>
    4fd8:	44050000 	strmi	r0, [r5], #-0
    4fdc:	00002502 	andeq	r2, r0, r2, lsl #10
    4fe0:	04173000 	ldreq	r3, [r7], #-0
    4fe4:	05000007 	streq	r0, [r0, #-7]
    4fe8:	05850245 	streq	r0, [r5, #581]	; 0x245
    4fec:	17340000 	ldrne	r0, [r4, -r0]!
    4ff0:	00000593 	muleq	r0, r3, r5
    4ff4:	25024705 	strcs	r4, [r2, #-1797]	; 0xfffff8fb
    4ff8:	38000000 	stmdacc	r0, {}	; <UNPREDICTABLE>
    4ffc:	00071417 	andeq	r1, r7, r7, lsl r4
    5000:	02490500 	subeq	r0, r9, #0, 10
    5004:	00000833 	andeq	r0, r0, r3, lsr r8
    5008:	0463173c 	strbteq	r1, [r3], #-1852	; 0xfffff8c4
    500c:	4c050000 	stcmi	0, cr0, [r5], {-0}
    5010:	00017702 	andeq	r7, r1, r2, lsl #14
    5014:	5a174000 	bpl	5d501c <__bss_end__+0x5cb02c>
    5018:	05000003 	streq	r0, [r0, #-3]
    501c:	0025024d 	eoreq	r0, r5, sp, asr #4
    5020:	17440000 	strbne	r0, [r4, -r0]
    5024:	00000990 	muleq	r0, r0, r9
    5028:	77024e05 	strvc	r4, [r2, -r5, lsl #28]
    502c:	48000001 	stmdami	r0, {r0}
    5030:	0005c817 	andeq	ip, r5, r7, lsl r8
    5034:	024f0500 	subeq	r0, pc, #0, 10
    5038:	00000839 	andeq	r0, r0, r9, lsr r8
    503c:	039c174c 	orrseq	r1, ip, #76, 14	; 0x1300000
    5040:	52050000 	andpl	r0, r5, #0
    5044:	00002502 	andeq	r2, r0, r2, lsl #10
    5048:	a1175000 	tstge	r7, r0
    504c:	05000002 	streq	r0, [r0, #-2]
    5050:	01070253 	tsteq	r7, r3, asr r2
    5054:	17540000 	ldrbne	r0, [r4, -r0]
    5058:	00001152 	andeq	r1, r0, r2, asr r1
    505c:	f6027605 			; <UNDEFINED> instruction: 0xf6027605
    5060:	58000007 	stmdapl	r0, {r0, r1, r2}
    5064:	00057d18 	andeq	r7, r5, r8, lsl sp
    5068:	027a0500 	rsbseq	r0, sl, #0, 10
    506c:	00000294 	muleq	r0, r4, r2
    5070:	2d180148 	ldfcss	f0, [r8, #-288]	; 0xfffffee0
    5074:	05000004 	streq	r0, [r0, #-4]
    5078:	0256027b 	subseq	r0, r6, #-1342177273	; 0xb0000007
    507c:	014c0000 	mrseq	r0, (UNDEF: 76)
    5080:	0008f518 	andeq	pc, r8, r8, lsl r5	; <UNPREDICTABLE>
    5084:	027f0500 	rsbseq	r0, pc, #0, 10
    5088:	0000084a 	andeq	r0, r0, sl, asr #16
    508c:	291802dc 	ldmdbcs	r8, {r2, r3, r4, r6, r7, r9}
    5090:	05000002 	streq	r0, [r0, #-2]
    5094:	05fb0284 	ldrbeq	r0, [fp, #644]!	; 0x284
    5098:	02e00000 	rsceq	r0, r0, #0
    509c:	00020e18 	andeq	r0, r2, r8, lsl lr
    50a0:	02850500 	addeq	r0, r5, #0, 10
    50a4:	00000856 	andeq	r0, r0, r6, asr r8
    50a8:	0d0002ec 	sfmeq	f0, 4, [r0, #-944]	; 0xfffffc50
    50ac:	00040604 	andeq	r0, r4, r4, lsl #12
    50b0:	00251400 	eoreq	r1, r5, r0, lsl #8
    50b4:	05850000 	streq	r0, [r5]
    50b8:	24150000 	ldrcs	r0, [r5], #-0
    50bc:	15000004 	strne	r0, [r0, #-4]
    50c0:	00000105 	andeq	r0, r0, r5, lsl #2
    50c4:	00058515 	andeq	r8, r5, r5, lsl r5
    50c8:	00251500 	eoreq	r1, r5, r0, lsl #10
    50cc:	0d000000 	stceq	0, cr0, [r0, #-0]
    50d0:	00011404 	andeq	r1, r1, r4, lsl #8
    50d4:	67040d00 	strvs	r0, [r4, -r0, lsl #26]
    50d8:	14000005 	strne	r0, [r0], #-5
    50dc:	00000081 	andeq	r0, r0, r1, lsl #1
    50e0:	000005af 	andeq	r0, r0, pc, lsr #11
    50e4:	00042415 	andeq	r2, r4, r5, lsl r4
    50e8:	01051500 	tsteq	r5, r0, lsl #10
    50ec:	81150000 	tsthi	r5, r0
    50f0:	15000000 	strne	r0, [r0, #-0]
    50f4:	00000025 	andeq	r0, r0, r5, lsr #32
    50f8:	91040d00 	tstls	r4, r0, lsl #26
    50fc:	14000005 	strne	r0, [r0], #-5
    5100:	00000025 	andeq	r0, r0, r5, lsr #32
    5104:	000005c9 	andeq	r0, r0, r9, asr #11
    5108:	00042415 	andeq	r2, r4, r5, lsl r4
    510c:	01051500 	tsteq	r5, r0, lsl #10
    5110:	0d000000 	stceq	0, cr0, [r0, #-0]
    5114:	0005b504 	andeq	fp, r5, r4, lsl #10
    5118:	004f0800 	subeq	r0, pc, r0, lsl #16
    511c:	05df0000 	ldrbeq	r0, [pc]	; 5124 <_start-0x2edc>
    5120:	c7090000 	strgt	r0, [r9, -r0]
    5124:	02000000 	andeq	r0, r0, #0
    5128:	004f0800 	subeq	r0, pc, r0, lsl #16
    512c:	05ef0000 	strbeq	r0, [pc, #0]!	; 5134 <_start-0x2ecc>
    5130:	c7090000 	strgt	r0, [r9, -r0]
    5134:	00000000 	andeq	r0, r0, r0
    5138:	06990500 	ldreq	r0, [r9], r0, lsl #10
    513c:	1d050000 	stcne	0, cr0, [r5, #-0]
    5140:	0002dc01 	andeq	sp, r2, r1, lsl #24
    5144:	08d41900 	ldmeq	r4, {r8, fp, ip}^
    5148:	050c0000 	streq	r0, [ip, #-0]
    514c:	06300121 	ldrteq	r0, [r0], -r1, lsr #2
    5150:	d1170000 	tstle	r7, r0
    5154:	05000006 	streq	r0, [r0, #-6]
    5158:	06300123 	ldrteq	r0, [r0], -r3, lsr #2
    515c:	17000000 	strne	r0, [r0, -r0]
    5160:	000003fd 	strdeq	r0, [r0], -sp
    5164:	25012405 	strcs	r2, [r1, #-1029]	; 0xfffffbfb
    5168:	04000000 	streq	r0, [r0], #-0
    516c:	00069317 	andeq	r9, r6, r7, lsl r3
    5170:	01250500 			; <UNDEFINED> instruction: 0x01250500
    5174:	00000636 	andeq	r0, r0, r6, lsr r6
    5178:	040d0008 	streq	r0, [sp], #-8
    517c:	000005fb 	strdeq	r0, [r0], -fp
    5180:	05ef040d 	strbeq	r0, [pc, #1037]!	; 5595 <_start-0x2a6b>
    5184:	c9190000 	ldmdbgt	r9, {}	; <UNPREDICTABLE>
    5188:	0e000000 	cdpeq	0, 0, cr0, cr0, cr0, {0}
    518c:	71013d05 	tstvc	r1, r5, lsl #26
    5190:	17000006 	strne	r0, [r0, -r6]
    5194:	00000736 	andeq	r0, r0, r6, lsr r7
    5198:	71013e05 	tstvc	r1, r5, lsl #28
    519c:	00000006 	andeq	r0, r0, r6
    51a0:	0007d917 	andeq	sp, r7, r7, lsl r9
    51a4:	013f0500 	teqeq	pc, r0, lsl #10
    51a8:	00000671 	andeq	r0, r0, r1, ror r6
    51ac:	08181706 	ldmdaeq	r8, {r1, r2, r8, r9, sl, ip}
    51b0:	40050000 	andmi	r0, r5, r0
    51b4:	00005601 	andeq	r5, r0, r1, lsl #12
    51b8:	08000c00 	stmdaeq	r0, {sl, fp}
    51bc:	00000056 	andeq	r0, r0, r6, asr r0
    51c0:	00000681 	andeq	r0, r0, r1, lsl #13
    51c4:	0000c709 	andeq	ip, r0, r9, lsl #14
    51c8:	1a000200 	bne	59d0 <_start-0x2630>
    51cc:	025705d0 	subseq	r0, r7, #208, 10	; 0x34000000
    51d0:	00000782 	andeq	r0, r0, r2, lsl #15
    51d4:	00089d17 	andeq	r9, r8, r7, lsl sp
    51d8:	02590500 	subseq	r0, r9, #0, 10
    51dc:	0000002c 	andeq	r0, r0, ip, lsr #32
    51e0:	07df1700 	ldrbeq	r1, [pc, r0, lsl #14]
    51e4:	5a050000 	bpl	1451ec <__bss_end__+0x13b1fc>
    51e8:	00010702 	andeq	r0, r1, r2, lsl #14
    51ec:	42170400 	andsmi	r0, r7, #0, 8
    51f0:	05000004 	streq	r0, [r0, #-4]
    51f4:	0782025b 			; <UNDEFINED> instruction: 0x0782025b
    51f8:	17080000 	strne	r0, [r8, -r0]
    51fc:	0000095e 	andeq	r0, r0, lr, asr r9
    5200:	8d025c05 	stchi	12, cr5, [r2, #-20]	; 0xffffffec
    5204:	24000001 	strcs	r0, [r0], #-1
    5208:	00033517 	andeq	r3, r3, r7, lsl r5
    520c:	025d0500 	subseq	r0, sp, #0, 10
    5210:	00000025 	andeq	r0, r0, r5, lsr #32
    5214:	06cc1748 	strbeq	r1, [ip], r8, asr #14
    5218:	5e050000 	cdppl	0, 0, cr0, cr5, cr0, {0}
    521c:	00006402 	andeq	r6, r0, r2, lsl #8
    5220:	74175000 	ldrvc	r5, [r7], #-0
    5224:	05000009 	streq	r0, [r0, #-9]
    5228:	063c025f 			; <UNDEFINED> instruction: 0x063c025f
    522c:	17580000 	ldrbne	r0, [r8, -r0]
    5230:	000006ed 	andeq	r0, r0, sp, ror #13
    5234:	ef026005 	svc	0x00026005
    5238:	68000000 	stmdavs	r0, {}	; <UNPREDICTABLE>
    523c:	00098217 	andeq	r8, r9, r7, lsl r2
    5240:	02610500 	rsbeq	r0, r1, #0, 10
    5244:	000000ef 	andeq	r0, r0, pc, ror #1
    5248:	01ac1770 			; <UNDEFINED> instruction: 0x01ac1770
    524c:	62050000 	andvs	r0, r5, #0
    5250:	0000ef02 	andeq	lr, r0, r2, lsl #30
    5254:	eb177800 	bl	5e325c <__bss_end__+0x5d926c>
    5258:	05000008 	streq	r0, [r0, #-8]
    525c:	07920263 	ldreq	r0, [r2, r3, ror #4]
    5260:	17800000 	strne	r0, [r0, r0]
    5264:	00000436 	andeq	r0, r0, r6, lsr r4
    5268:	a2026405 	andge	r6, r2, #83886080	; 0x5000000
    526c:	88000007 	stmdahi	r0, {r0, r1, r2}
    5270:	00082e17 	andeq	r2, r8, r7, lsl lr
    5274:	02650500 	rsbeq	r0, r5, #0, 10
    5278:	00000025 	andeq	r0, r0, r5, lsr #32
    527c:	02da17a0 	sbcseq	r1, sl, #160, 14	; 0x2800000
    5280:	66050000 	strvs	r0, [r5], -r0
    5284:	0000ef02 	andeq	lr, r0, r2, lsl #30
    5288:	8817a400 	ldmdahi	r7, {sl, sp, pc}
    528c:	05000001 	streq	r0, [r0, #-1]
    5290:	00ef0267 	rsceq	r0, pc, r7, ror #4
    5294:	17ac0000 	strne	r0, [ip, r0]!
    5298:	000002c0 	andeq	r0, r0, r0, asr #5
    529c:	ef026805 	svc	0x00026805
    52a0:	b4000000 	strlt	r0, [r0], #-0
    52a4:	00012017 	andeq	r2, r1, r7, lsl r0
    52a8:	02690500 	rsbeq	r0, r9, #0, 10
    52ac:	000000ef 	andeq	r0, r0, pc, ror #1
    52b0:	012f17bc 			; <UNDEFINED> instruction: 0x012f17bc
    52b4:	6a050000 	bvs	1452bc <__bss_end__+0x13b2cc>
    52b8:	0000ef02 	andeq	lr, r0, r2, lsl #30
    52bc:	6217c400 	andsvs	ip, r7, #0, 8
    52c0:	05000006 	streq	r0, [r0, #-6]
    52c4:	0025026b 	eoreq	r0, r5, fp, ror #4
    52c8:	00cc0000 	sbceq	r0, ip, r0
    52cc:	00010d08 	andeq	r0, r1, r8, lsl #26
    52d0:	00079200 	andeq	r9, r7, r0, lsl #4
    52d4:	00c70900 	sbceq	r0, r7, r0, lsl #18
    52d8:	00190000 	andseq	r0, r9, r0
    52dc:	00010d08 	andeq	r0, r1, r8, lsl #26
    52e0:	0007a200 	andeq	sl, r7, r0, lsl #4
    52e4:	00c70900 	sbceq	r0, r7, r0, lsl #18
    52e8:	00070000 	andeq	r0, r7, r0
    52ec:	00010d08 	andeq	r0, r1, r8, lsl #26
    52f0:	0007b200 	andeq	fp, r7, r0, lsl #4
    52f4:	00c70900 	sbceq	r0, r7, r0, lsl #18
    52f8:	00170000 	andseq	r0, r7, r0
    52fc:	7005f01a 	andvc	pc, r5, sl, lsl r0	; <UNPREDICTABLE>
    5300:	0007d602 	andeq	sp, r7, r2, lsl #12
    5304:	05521700 	ldrbeq	r1, [r2, #-1792]	; 0xfffff900
    5308:	73050000 	movwvc	r0, #20480	; 0x5000
    530c:	0007d602 	andeq	sp, r7, r2, lsl #12
    5310:	f9170000 			; <UNDEFINED> instruction: 0xf9170000
    5314:	05000004 	streq	r0, [r0, #-4]
    5318:	07e60274 			; <UNDEFINED> instruction: 0x07e60274
    531c:	00780000 	rsbseq	r0, r8, r0
    5320:	0002d608 	andeq	sp, r2, r8, lsl #12
    5324:	0007e600 	andeq	lr, r7, r0, lsl #12
    5328:	00c70900 	sbceq	r0, r7, r0, lsl #18
    532c:	001d0000 	andseq	r0, sp, r0
    5330:	00002c08 	andeq	r2, r0, r8, lsl #24
    5334:	0007f600 	andeq	pc, r7, r0, lsl #12
    5338:	00c70900 	sbceq	r0, r7, r0, lsl #18
    533c:	001d0000 	andseq	r0, sp, r0
    5340:	5505f01b 	strpl	pc, [r5, #-27]	; 0xffffffe5
    5344:	00081802 	andeq	r1, r8, r2, lsl #16
    5348:	07261c00 	streq	r1, [r6, -r0, lsl #24]!
    534c:	6c050000 	stcvs	0, cr0, [r5], {-0}
    5350:	00068102 	andeq	r8, r6, r2, lsl #2
    5354:	092a1c00 	stmdbeq	sl!, {sl, fp, ip}
    5358:	75050000 	strvc	r0, [r5, #-0]
    535c:	0007b202 	andeq	fp, r7, r2, lsl #4
    5360:	0d080000 	stceq	0, cr0, [r8, #-0]
    5364:	28000001 	stmdacs	r0, {r0}
    5368:	09000008 	stmdbeq	r0, {r3}
    536c:	000000c7 	andeq	r0, r0, r7, asr #1
    5370:	331d0018 	tstcc	sp, #24
    5374:	15000008 	strne	r0, [r0, #-8]
    5378:	00000424 	andeq	r0, r0, r4, lsr #8
    537c:	28040d00 	stmdacs	r4, {r8, sl, fp}
    5380:	0d000008 	stceq	0, cr0, [r0, #-32]	; 0xffffffe0
    5384:	00017704 	andeq	r7, r1, r4, lsl #14
    5388:	084a1d00 	stmdaeq	sl, {r8, sl, fp, ip}^
    538c:	25150000 	ldrcs	r0, [r5, #-0]
    5390:	00000000 	andeq	r0, r0, r0
    5394:	0850040d 	ldmdaeq	r0, {r0, r2, r3, sl}^
    5398:	040d0000 	streq	r0, [sp], #-0
    539c:	0000083f 	andeq	r0, r0, pc, lsr r8
    53a0:	0005ef08 	andeq	lr, r5, r8, lsl #30
    53a4:	00086600 	andeq	r6, r8, r0, lsl #12
    53a8:	00c70900 	sbceq	r0, r7, r0, lsl #18
    53ac:	00020000 	andeq	r0, r2, r0
    53b0:	0008631e 	andeq	r6, r8, lr, lsl r3
    53b4:	02fd0500 	rscseq	r0, sp, #0, 10
    53b8:	00000424 	andeq	r0, r0, r4, lsr #8
    53bc:	00085c1e 	andeq	r5, r8, lr, lsl ip
    53c0:	02fe0500 	rscseq	r0, lr, #0, 10
    53c4:	0000042a 	andeq	r0, r0, sl, lsr #8
    53c8:	00002514 	andeq	r2, r0, r4, lsl r5
    53cc:	00088d00 	andeq	r8, r8, r0, lsl #26
    53d0:	00251500 	eoreq	r1, r5, r0, lsl #10
    53d4:	1f000000 	svcne	0x00000000
    53d8:	00000364 	andeq	r0, r0, r4, ror #6
    53dc:	08981d06 	ldmeq	r8, {r1, r2, r8, sl, fp, ip}
    53e0:	040d0000 	streq	r0, [sp], #-0
    53e4:	0000087e 	andeq	r0, r0, lr, ror r8
    53e8:	00002514 	andeq	r2, r0, r4, lsl r5
    53ec:	0008ad00 	andeq	sl, r8, r0, lsl #26
    53f0:	05851500 	streq	r1, [r5, #1280]	; 0x500
    53f4:	1f000000 	svcne	0x00000000
    53f8:	00000d2b 	andeq	r0, r0, fp, lsr #26
    53fc:	08b82206 	ldmeq	r8!, {r1, r2, r9, sp}
    5400:	040d0000 	streq	r0, [sp], #-0
    5404:	0000089e 	muleq	r0, lr, r8
    5408:	0008ad20 	andeq	sl, r8, r0, lsr #26
    540c:	050c0100 	streq	r0, [ip, #-256]	; 0xffffff00
    5410:	00968403 	addseq	r8, r6, r3, lsl #8
    5414:	0d222100 	stfeqs	f2, [r2, #-0]
    5418:	04010000 	streq	r0, [r1], #-0
    541c:	00000025 	andeq	r0, r0, r5, lsr #32
    5420:	00009124 	andeq	r9, r0, r4, lsr #2
    5424:	00000034 	andeq	r0, r0, r4, lsr r0
    5428:	70229c01 	eorvc	r9, r2, r1, lsl #24
    542c:	85040100 	strhi	r0, [r4, #-256]	; 0xffffff00
    5430:	78000005 	stmdavc	r0, {r0, r2}
    5434:	0000000e 	andeq	r0, r0, lr
    5438:	00093d00 	andeq	r3, r9, r0, lsl #26
    543c:	7b000400 	blvc	6444 <_start-0x1bbc>
    5440:	0400000d 	streq	r0, [r0], #-13
    5444:	000c3701 	andeq	r3, ip, r1, lsl #14
    5448:	0d640c00 	stcleq	12, cr0, [r4, #-0]
    544c:	0c9e0000 	ldceq	0, cr0, [lr], {0}
    5450:	91580000 	cmpls	r8, r0
    5454:	003c0000 	eorseq	r0, ip, r0
    5458:	07bc0000 	ldreq	r0, [ip, r0]!
    545c:	04020000 	streq	r0, [r2], #-0
    5460:	746e6905 	strbtvc	r6, [lr], #-2309	; 0xfffff6fb
    5464:	07040300 	streq	r0, [r4, -r0, lsl #6]
    5468:	0000014a 	andeq	r0, r0, sl, asr #2
    546c:	20060103 	andcs	r0, r6, r3, lsl #2
    5470:	03000006 	movweq	r0, #6
    5474:	066b0502 	strbteq	r0, [fp], -r2, lsl #10
    5478:	04030000 	streq	r0, [r3], #-0
    547c:	0001c805 	andeq	ip, r1, r5, lsl #16
    5480:	05080300 	streq	r0, [r8, #-768]	; 0xfffffd00
    5484:	000001c3 	andeq	r0, r0, r3, asr #3
    5488:	1e080103 	adfnee	f0, f0, f3
    548c:	03000006 	movweq	r0, #6
    5490:	041a0702 	ldreq	r0, [sl], #-1794	; 0xfffff8fe
    5494:	04030000 	streq	r0, [r3], #-0
    5498:	00014507 	andeq	r4, r1, r7, lsl #10
    549c:	07080300 	streq	r0, [r8, -r0, lsl #6]
    54a0:	00000140 	andeq	r0, r0, r0, asr #2
    54a4:	0005e204 	andeq	lr, r5, r4, lsl #4
    54a8:	25070200 	strcs	r0, [r7, #-512]	; 0xfffffe00
    54ac:	04000000 	streq	r0, [r0], #-0
    54b0:	0000059e 	muleq	r0, lr, r5
    54b4:	00412c03 	subeq	r2, r1, r3, lsl #24
    54b8:	69040000 	stmdbvs	r4, {}	; <UNPREDICTABLE>
    54bc:	03000007 	movweq	r0, #7
    54c0:	00004172 	andeq	r4, r0, r2, ror r1
    54c4:	047e0500 	ldrbteq	r0, [lr], #-1280	; 0xfffffb00
    54c8:	65040000 	strvs	r0, [r4, #-0]
    54cc:	00002c01 	andeq	r2, r0, r1, lsl #24
    54d0:	03040600 	movweq	r0, #17920	; 0x4600
    54d4:	0000b7a6 	andeq	fp, r0, r6, lsr #15
    54d8:	046b0700 	strbteq	r0, [fp], #-1792	; 0xfffff900
    54dc:	a8030000 	stmdage	r3, {}	; <UNPREDICTABLE>
    54e0:	0000008c 	andeq	r0, r0, ip, lsl #1
    54e4:	00037e07 	andeq	r7, r3, r7, lsl #28
    54e8:	b7a90300 	strlt	r0, [r9, r0, lsl #6]!
    54ec:	00000000 	andeq	r0, r0, r0
    54f0:	00004f08 	andeq	r4, r0, r8, lsl #30
    54f4:	0000c700 	andeq	ip, r0, r0, lsl #14
    54f8:	00c70900 	sbceq	r0, r7, r0, lsl #18
    54fc:	00030000 	andeq	r0, r3, r0
    5500:	0e070403 	cdpeq	4, 0, cr0, cr7, cr3, {0}
    5504:	0a000005 	beq	5520 <_start-0x2ae0>
    5508:	efa30308 	svc	0x00a30308
    550c:	0b000000 	bleq	5514 <_start-0x2aec>
    5510:	00000745 	andeq	r0, r0, r5, asr #14
    5514:	0025a503 	eoreq	sl, r5, r3, lsl #10
    5518:	0b000000 	bleq	5520 <_start-0x2ae0>
    551c:	000007ec 	andeq	r0, r0, ip, ror #15
    5520:	0098aa03 	addseq	sl, r8, r3, lsl #20
    5524:	00040000 	andeq	r0, r4, r0
    5528:	0006a004 	andeq	sl, r6, r4
    552c:	ceab0300 	cdpgt	3, 10, cr0, cr11, cr0, {0}
    5530:	04000000 	streq	r0, [r0], #-0
    5534:	0000031c 	andeq	r0, r0, ip, lsl r3
    5538:	006baf03 	rsbeq	sl, fp, r3, lsl #30
    553c:	040c0000 	streq	r0, [ip], #-0
    5540:	010d040d 	tsteq	sp, sp, lsl #8
    5544:	01030000 	mrseq	r0, (UNDEF: 3)
    5548:	00062708 	andeq	r2, r6, r8, lsl #14
    554c:	010d0e00 	tsteq	sp, r0, lsl #28
    5550:	26040000 	strcs	r0, [r4], -r0
    5554:	05000008 	streq	r0, [r0, #-8]
    5558:	00005d16 	andeq	r5, r0, r6, lsl sp
    555c:	032d0f00 			; <UNDEFINED> instruction: 0x032d0f00
    5560:	05180000 	ldreq	r0, [r8, #-0]
    5564:	0001772d 	andeq	r7, r1, sp, lsr #14
    5568:	06d10b00 	ldrbeq	r0, [r1], r0, lsl #22
    556c:	2f050000 	svccs	0x00050000
    5570:	00000177 	andeq	r0, r0, r7, ror r1
    5574:	6b5f1000 	blvs	17c957c <__bss_end__+0x17bf58c>
    5578:	25300500 	ldrcs	r0, [r0, #-1280]!	; 0xfffffb00
    557c:	04000000 	streq	r0, [r0], #-0
    5580:	00071e0b 	andeq	r1, r7, fp, lsl #28
    5584:	25300500 	ldrcs	r0, [r0, #-1280]!	; 0xfffffb00
    5588:	08000000 	stmdaeq	r0, {}	; <UNPREDICTABLE>
    558c:	0003160b 	andeq	r1, r3, fp, lsl #12
    5590:	25300500 	ldrcs	r0, [r0, #-1280]!	; 0xfffffb00
    5594:	0c000000 	stceq	0, cr0, [r0], {-0}
    5598:	0008c50b 	andeq	ip, r8, fp, lsl #10
    559c:	25300500 	ldrcs	r0, [r0, #-1280]!	; 0xfffffb00
    55a0:	10000000 	andne	r0, r0, r0
    55a4:	00785f10 	rsbseq	r5, r8, r0, lsl pc
    55a8:	017d3105 	cmneq	sp, r5, lsl #2
    55ac:	00140000 	andseq	r0, r4, r0
    55b0:	0124040d 			; <UNDEFINED> instruction: 0x0124040d
    55b4:	19080000 	stmdbne	r8, {}	; <UNPREDICTABLE>
    55b8:	8d000001 	stchi	0, cr0, [r0, #-4]
    55bc:	09000001 	stmdbeq	r0, {r0}
    55c0:	000000c7 	andeq	r0, r0, r7, asr #1
    55c4:	700f0000 	andvc	r0, pc, r0
    55c8:	24000003 	strcs	r0, [r0], #-3
    55cc:	02063505 	andeq	r3, r6, #20971520	; 0x1400000
    55d0:	ba0b0000 	blt	2c55d8 <__bss_end__+0x2bb5e8>
    55d4:	05000001 	streq	r0, [r0, #-1]
    55d8:	00002537 	andeq	r2, r0, r7, lsr r5
    55dc:	910b0000 	mrsls	r0, (UNDEF: 11)
    55e0:	05000007 	streq	r0, [r0, #-7]
    55e4:	00002538 	andeq	r2, r0, r8, lsr r5
    55e8:	040b0400 	streq	r0, [fp], #-1024	; 0xfffffc00
    55ec:	05000002 	streq	r0, [r0, #-2]
    55f0:	00002539 	andeq	r2, r0, r9, lsr r5
    55f4:	d90b0800 	stmdble	fp, {fp}
    55f8:	05000009 	streq	r0, [r0, #-9]
    55fc:	0000253a 	andeq	r2, r0, sl, lsr r5
    5600:	630b0c00 	movwvs	r0, #48128	; 0xbc00
    5604:	05000005 	streq	r0, [r0, #-5]
    5608:	0000253b 	andeq	r2, r0, fp, lsr r5
    560c:	d10b1000 	mrsle	r1, (UNDEF: 11)
    5610:	05000004 	streq	r0, [r0, #-4]
    5614:	0000253c 	andeq	r2, r0, ip, lsr r5
    5618:	ca0b1400 	bgt	2ca620 <__bss_end__+0x2c0630>
    561c:	05000008 	streq	r0, [r0, #-8]
    5620:	0000253d 	andeq	r2, r0, sp, lsr r5
    5624:	750b1800 	strvc	r1, [fp, #-2048]	; 0xfffff800
    5628:	05000006 	streq	r0, [r0, #-6]
    562c:	0000253e 	andeq	r2, r0, lr, lsr r5
    5630:	530b1c00 	movwpl	r1, #48128	; 0xbc00
    5634:	05000009 	streq	r0, [r0, #-9]
    5638:	0000253f 	andeq	r2, r0, pc, lsr r5
    563c:	11002000 	mrsne	r2, (UNDEF: 0)
    5640:	00000213 	andeq	r0, r0, r3, lsl r2
    5644:	48050108 	stmdami	r5, {r3, r8}
    5648:	00000246 	andeq	r0, r0, r6, asr #4
    564c:	0002e80b 	andeq	lr, r2, fp, lsl #16
    5650:	46490500 	strbmi	r0, [r9], -r0, lsl #10
    5654:	00000002 	andeq	r0, r0, r2
    5658:	0000000b 	andeq	r0, r0, fp
    565c:	464a0500 	strbmi	r0, [sl], -r0, lsl #10
    5660:	80000002 	andhi	r0, r0, r2
    5664:	0007b312 	andeq	fp, r7, r2, lsl r3
    5668:	194c0500 	stmdbne	ip, {r8, sl}^
    566c:	00000001 	andeq	r0, r0, r1
    5670:	025d1201 	subseq	r1, sp, #268435456	; 0x10000000
    5674:	4f050000 	svcmi	0x00050000
    5678:	00000119 	andeq	r0, r0, r9, lsl r1
    567c:	08000104 	stmdaeq	r0, {r2, r8}
    5680:	00000105 	andeq	r0, r0, r5, lsl #2
    5684:	00000256 	andeq	r0, r0, r6, asr r2
    5688:	0000c709 	andeq	ip, r0, r9, lsl #14
    568c:	11001f00 	tstne	r0, r0, lsl #30
    5690:	0000057d 	andeq	r0, r0, sp, ror r5
    5694:	5b050190 	blpl	145cdc <__bss_end__+0x13bcec>
    5698:	00000294 	muleq	r0, r4, r2
    569c:	0006d10b 	andeq	sp, r6, fp, lsl #2
    56a0:	945c0500 	ldrbls	r0, [ip], #-1280	; 0xfffffb00
    56a4:	00000002 	andeq	r0, r0, r2
    56a8:	0006ff0b 	andeq	pc, r6, fp, lsl #30
    56ac:	255d0500 	ldrbcs	r0, [sp, #-1280]	; 0xfffffb00
    56b0:	04000000 	streq	r0, [r0], #-0
    56b4:	0003110b 	andeq	r1, r3, fp, lsl #2
    56b8:	9a5f0500 	bls	17c6ac0 <__bss_end__+0x17bcad0>
    56bc:	08000002 	stmdaeq	r0, {r1}
    56c0:	0002130b 	andeq	r1, r2, fp, lsl #6
    56c4:	06600500 	strbteq	r0, [r0], -r0, lsl #10
    56c8:	88000002 	stmdahi	r0, {r1}
    56cc:	56040d00 	strpl	r0, [r4], -r0, lsl #26
    56d0:	08000002 	stmdaeq	r0, {r1}
    56d4:	000002aa 	andeq	r0, r0, sl, lsr #5
    56d8:	000002aa 	andeq	r0, r0, sl, lsr #5
    56dc:	0000c709 	andeq	ip, r0, r9, lsl #14
    56e0:	0d001f00 	stceq	15, cr1, [r0, #-0]
    56e4:	0002b004 	andeq	fp, r2, r4
    56e8:	7f0f1300 	svcvc	0x000f1300
    56ec:	08000006 	stmdaeq	r0, {r1, r2}
    56f0:	02d67305 	sbcseq	r7, r6, #335544320	; 0x14000000
    56f4:	fe0b0000 	cdp2	0, 0, cr0, cr11, cr0, {0}
    56f8:	05000001 	streq	r0, [r0, #-1]
    56fc:	0002d674 	andeq	sp, r2, r4, ror r6
    5700:	a60b0000 	strge	r0, [fp], -r0
    5704:	05000000 	streq	r0, [r0, #-0]
    5708:	00002575 	andeq	r2, r0, r5, ror r5
    570c:	0d000400 	cfstrseq	mvf0, [r0, #-0]
    5710:	00004f04 	andeq	r4, r0, r4, lsl #30
    5714:	06ab0f00 	strteq	r0, [fp], r0, lsl #30
    5718:	05680000 	strbeq	r0, [r8, #-0]!
    571c:	000406b3 			; <UNDEFINED> instruction: 0x000406b3
    5720:	705f1000 	subsvc	r1, pc, r0
    5724:	d6b40500 	ldrtle	r0, [r4], r0, lsl #10
    5728:	00000002 	andeq	r0, r0, r2
    572c:	00725f10 	rsbseq	r5, r2, r0, lsl pc
    5730:	0025b505 	eoreq	fp, r5, r5, lsl #10
    5734:	10040000 	andne	r0, r4, r0
    5738:	0500775f 	streq	r7, [r0, #-1887]	; 0xfffff8a1
    573c:	000025b6 			; <UNDEFINED> instruction: 0x000025b6
    5740:	560b0800 	strpl	r0, [fp], -r0, lsl #16
    5744:	05000002 	streq	r0, [r0, #-2]
    5748:	00003ab7 			; <UNDEFINED> instruction: 0x00003ab7
    574c:	af0b0c00 	svcge	0x000b0c00
    5750:	05000003 	streq	r0, [r0, #-3]
    5754:	00003ab8 			; <UNDEFINED> instruction: 0x00003ab8
    5758:	5f100e00 	svcpl	0x00100e00
    575c:	05006662 	streq	r6, [r0, #-1634]	; 0xfffff99e
    5760:	0002b1b9 			; <UNDEFINED> instruction: 0x0002b1b9
    5764:	600b1000 	andvs	r1, fp, r0
    5768:	05000001 	streq	r0, [r0, #-1]
    576c:	000025ba 			; <UNDEFINED> instruction: 0x000025ba
    5770:	210b1800 	tstcs	fp, r0, lsl #16
    5774:	05000002 	streq	r0, [r0, #-2]
    5778:	000105c1 	andeq	r0, r1, r1, asr #11
    577c:	ad0b1c00 	stcge	12, cr1, [fp, #-0]
    5780:	05000008 	streq	r0, [r0, #-8]
    5784:	000561c3 	andeq	r6, r5, r3, asr #3
    5788:	760b2000 	strvc	r2, [fp], -r0
    578c:	05000001 	streq	r0, [r0, #-1]
    5790:	00058bc5 	andeq	r8, r5, r5, asr #23
    5794:	560b2400 	strpl	r2, [fp], -r0, lsl #8
    5798:	05000007 	streq	r0, [r0, #-7]
    579c:	0005afc8 	andeq	sl, r5, r8, asr #31
    57a0:	6d0b2800 	stcvs	8, cr2, [fp, #-0]
    57a4:	05000009 	streq	r0, [r0, #-9]
    57a8:	0005c9c9 	andeq	ip, r5, r9, asr #19
    57ac:	5f102c00 	svcpl	0x00102c00
    57b0:	05006275 	streq	r6, [r0, #-629]	; 0xfffffd8b
    57b4:	0002b1cc 	andeq	fp, r2, ip, asr #3
    57b8:	5f103000 	svcpl	0x00103000
    57bc:	05007075 	streq	r7, [r0, #-117]	; 0xffffff8b
    57c0:	0002d6cd 	andeq	sp, r2, sp, asr #13
    57c4:	5f103800 	svcpl	0x00103800
    57c8:	05007275 	streq	r7, [r0, #-629]	; 0xfffffd8b
    57cc:	000025ce 	andeq	r2, r0, lr, asr #11
    57d0:	f00b3c00 			; <UNDEFINED> instruction: 0xf00b3c00
    57d4:	05000001 	streq	r0, [r0, #-1]
    57d8:	0005cfd1 	ldrdeq	ip, [r5], -r1
    57dc:	240b4000 	strcs	r4, [fp], #-0
    57e0:	05000009 	streq	r0, [r0, #-9]
    57e4:	0005dfd2 	ldrdeq	sp, [r5], -r2
    57e8:	5f104300 	svcpl	0x00104300
    57ec:	0500626c 	streq	r6, [r0, #-620]	; 0xfffffd94
    57f0:	0002b1d5 	ldrdeq	fp, [r2], -r5
    57f4:	730b4400 	movwvc	r4, #46080	; 0xb400
    57f8:	05000002 	streq	r0, [r0, #-2]
    57fc:	000025d8 	ldrdeq	r2, [r0], -r8
    5800:	a90b4c00 	stmdbge	fp, {sl, fp, lr}
    5804:	05000002 	streq	r0, [r0, #-2]
    5808:	000076d9 	ldrdeq	r7, [r0], -r9
    580c:	4c0b5000 	stcmi	0, cr5, [fp], {-0}
    5810:	05000006 	streq	r0, [r0, #-6]
    5814:	000424dc 	ldrdeq	r2, [r4], -ip
    5818:	900b5400 	andls	r5, fp, r0, lsl #8
    581c:	05000010 	streq	r0, [r0, #-16]
    5820:	0000fae0 	andeq	pc, r0, r0, ror #21
    5824:	c30b5800 	movwgt	r5, #47104	; 0xb800
    5828:	05000006 	streq	r0, [r0, #-6]
    582c:	0000efe2 	andeq	lr, r0, r2, ror #31
    5830:	9f0b5c00 	svcls	0x000b5c00
    5834:	05000004 	streq	r0, [r0, #-4]
    5838:	000025e3 	andeq	r2, r0, r3, ror #11
    583c:	14006400 	strne	r6, [r0], #-1024	; 0xfffffc00
    5840:	00000025 	andeq	r0, r0, r5, lsr #32
    5844:	00000424 	andeq	r0, r0, r4, lsr #8
    5848:	00042415 	andeq	r2, r4, r5, lsl r4
    584c:	01051500 	tsteq	r5, r0, lsl #10
    5850:	07150000 	ldreq	r0, [r5, -r0]
    5854:	15000001 	strne	r0, [r0, #-1]
    5858:	00000025 	andeq	r0, r0, r5, lsr #32
    585c:	2f040d00 	svccs	0x00040d00
    5860:	0e000004 	cdpeq	0, 0, cr0, cr0, cr4, {0}
    5864:	00000424 	andeq	r0, r0, r4, lsr #8
    5868:	00072616 	andeq	r2, r7, r6, lsl r6
    586c:	05042800 	streq	r2, [r4, #-2048]	; 0xfffff800
    5870:	05610238 	strbeq	r0, [r1, #-568]!	; 0xfffffdc8
    5874:	64170000 	ldrvs	r0, [r7], #-0
    5878:	05000006 	streq	r0, [r0, #-6]
    587c:	0025023a 	eoreq	r0, r5, sl, lsr r2
    5880:	17000000 	strne	r0, [r0, -r0]
    5884:	00000265 	andeq	r0, r0, r5, ror #4
    5888:	36023f05 	strcc	r3, [r2], -r5, lsl #30
    588c:	04000006 	streq	r0, [r0], #-6
    5890:	00039417 	andeq	r9, r3, r7, lsl r4
    5894:	023f0500 	eorseq	r0, pc, #0, 10
    5898:	00000636 	andeq	r0, r0, r6, lsr r6
    589c:	03251708 			; <UNDEFINED> instruction: 0x03251708
    58a0:	3f050000 	svccc	0x00050000
    58a4:	00063602 	andeq	r3, r6, r2, lsl #12
    58a8:	fa170c00 	blx	5c88b0 <__bss_end__+0x5be8c0>
    58ac:	05000006 	streq	r0, [r0, #-6]
    58b0:	00250241 	eoreq	r0, r5, r1, asr #4
    58b4:	17100000 	ldrne	r0, [r0, -r0]
    58b8:	000000e5 	andeq	r0, r0, r5, ror #1
    58bc:	18024205 	stmdane	r2, {r0, r2, r9, lr}
    58c0:	14000008 	strne	r0, [r0], #-8
    58c4:	00086f17 	andeq	r6, r8, r7, lsl pc
    58c8:	02440500 	subeq	r0, r4, #0, 10
    58cc:	00000025 	andeq	r0, r0, r5, lsr #32
    58d0:	07041730 	smladxeq	r4, r0, r7, r1
    58d4:	45050000 	strmi	r0, [r5, #-0]
    58d8:	00058502 	andeq	r8, r5, r2, lsl #10
    58dc:	93173400 	tstls	r7, #0, 8
    58e0:	05000005 	streq	r0, [r0, #-5]
    58e4:	00250247 	eoreq	r0, r5, r7, asr #4
    58e8:	17380000 	ldrne	r0, [r8, -r0]!
    58ec:	00000714 	andeq	r0, r0, r4, lsl r7
    58f0:	33024905 	movwcc	r4, #10501	; 0x2905
    58f4:	3c000008 	stccc	0, cr0, [r0], {8}
    58f8:	00046317 	andeq	r6, r4, r7, lsl r3
    58fc:	024c0500 	subeq	r0, ip, #0, 10
    5900:	00000177 	andeq	r0, r0, r7, ror r1
    5904:	035a1740 	cmpeq	sl, #64, 14	; 0x1000000
    5908:	4d050000 	stcmi	0, cr0, [r5, #-0]
    590c:	00002502 	andeq	r2, r0, r2, lsl #10
    5910:	90174400 	andsls	r4, r7, r0, lsl #8
    5914:	05000009 	streq	r0, [r0, #-9]
    5918:	0177024e 	cmneq	r7, lr, asr #4
    591c:	17480000 	strbne	r0, [r8, -r0]
    5920:	000005c8 	andeq	r0, r0, r8, asr #11
    5924:	39024f05 	stmdbcc	r2, {r0, r2, r8, r9, sl, fp, lr}
    5928:	4c000008 	stcmi	0, cr0, [r0], {8}
    592c:	00039c17 	andeq	r9, r3, r7, lsl ip
    5930:	02520500 	subseq	r0, r2, #0, 10
    5934:	00000025 	andeq	r0, r0, r5, lsr #32
    5938:	02a11750 	adceq	r1, r1, #80, 14	; 0x1400000
    593c:	53050000 	movwpl	r0, #20480	; 0x5000
    5940:	00010702 	andeq	r0, r1, r2, lsl #14
    5944:	52175400 	andspl	r5, r7, #0, 8
    5948:	05000011 	streq	r0, [r0, #-17]	; 0xffffffef
    594c:	07f60276 			; <UNDEFINED> instruction: 0x07f60276
    5950:	18580000 	ldmdane	r8, {}^	; <UNPREDICTABLE>
    5954:	0000057d 	andeq	r0, r0, sp, ror r5
    5958:	94027a05 	strls	r7, [r2], #-2565	; 0xfffff5fb
    595c:	48000002 	stmdami	r0, {r1}
    5960:	042d1801 	strteq	r1, [sp], #-2049	; 0xfffff7ff
    5964:	7b050000 	blvc	14596c <__bss_end__+0x13b97c>
    5968:	00025602 	andeq	r5, r2, r2, lsl #12
    596c:	18014c00 	stmdane	r1, {sl, fp, lr}
    5970:	000008f5 	strdeq	r0, [r0], -r5
    5974:	4a027f05 	bmi	a5590 <__bss_end__+0x9b5a0>
    5978:	dc000008 	stcle	0, cr0, [r0], {8}
    597c:	02291802 	eoreq	r1, r9, #131072	; 0x20000
    5980:	84050000 	strhi	r0, [r5], #-0
    5984:	0005fb02 	andeq	pc, r5, r2, lsl #22
    5988:	1802e000 	stmdane	r2, {sp, lr, pc}
    598c:	0000020e 	andeq	r0, r0, lr, lsl #4
    5990:	56028505 	strpl	r8, [r2], -r5, lsl #10
    5994:	ec000008 	stc	0, cr0, [r0], {8}
    5998:	040d0002 	streq	r0, [sp], #-2
    599c:	00000406 	andeq	r0, r0, r6, lsl #8
    59a0:	00002514 	andeq	r2, r0, r4, lsl r5
    59a4:	00058500 	andeq	r8, r5, r0, lsl #10
    59a8:	04241500 	strteq	r1, [r4], #-1280	; 0xfffffb00
    59ac:	05150000 	ldreq	r0, [r5, #-0]
    59b0:	15000001 	strne	r0, [r0, #-1]
    59b4:	00000585 	andeq	r0, r0, r5, lsl #11
    59b8:	00002515 	andeq	r2, r0, r5, lsl r5
    59bc:	040d0000 	streq	r0, [sp], #-0
    59c0:	00000114 	andeq	r0, r0, r4, lsl r1
    59c4:	0567040d 	strbeq	r0, [r7, #-1037]!	; 0xfffffbf3
    59c8:	81140000 	tsthi	r4, r0
    59cc:	af000000 	svcge	0x00000000
    59d0:	15000005 	strne	r0, [r0, #-5]
    59d4:	00000424 	andeq	r0, r0, r4, lsr #8
    59d8:	00010515 	andeq	r0, r1, r5, lsl r5
    59dc:	00811500 	addeq	r1, r1, r0, lsl #10
    59e0:	25150000 	ldrcs	r0, [r5, #-0]
    59e4:	00000000 	andeq	r0, r0, r0
    59e8:	0591040d 	ldreq	r0, [r1, #1037]	; 0x40d
    59ec:	25140000 	ldrcs	r0, [r4, #-0]
    59f0:	c9000000 	stmdbgt	r0, {}	; <UNPREDICTABLE>
    59f4:	15000005 	strne	r0, [r0, #-5]
    59f8:	00000424 	andeq	r0, r0, r4, lsr #8
    59fc:	00010515 	andeq	r0, r1, r5, lsl r5
    5a00:	040d0000 	streq	r0, [sp], #-0
    5a04:	000005b5 			; <UNDEFINED> instruction: 0x000005b5
    5a08:	00004f08 	andeq	r4, r0, r8, lsl #30
    5a0c:	0005df00 	andeq	sp, r5, r0, lsl #30
    5a10:	00c70900 	sbceq	r0, r7, r0, lsl #18
    5a14:	00020000 	andeq	r0, r2, r0
    5a18:	00004f08 	andeq	r4, r0, r8, lsl #30
    5a1c:	0005ef00 	andeq	lr, r5, r0, lsl #30
    5a20:	00c70900 	sbceq	r0, r7, r0, lsl #18
    5a24:	00000000 	andeq	r0, r0, r0
    5a28:	00069905 	andeq	r9, r6, r5, lsl #18
    5a2c:	011d0500 	tsteq	sp, r0, lsl #10
    5a30:	000002dc 	ldrdeq	r0, [r0], -ip
    5a34:	0008d419 	andeq	sp, r8, r9, lsl r4
    5a38:	21050c00 	tstcs	r5, r0, lsl #24
    5a3c:	00063001 	andeq	r3, r6, r1
    5a40:	06d11700 	ldrbeq	r1, [r1], r0, lsl #14
    5a44:	23050000 	movwcs	r0, #20480	; 0x5000
    5a48:	00063001 	andeq	r3, r6, r1
    5a4c:	fd170000 	ldc2	0, cr0, [r7, #-0]
    5a50:	05000003 	streq	r0, [r0, #-3]
    5a54:	00250124 	eoreq	r0, r5, r4, lsr #2
    5a58:	17040000 	strne	r0, [r4, -r0]
    5a5c:	00000693 	muleq	r0, r3, r6
    5a60:	36012505 	strcc	r2, [r1], -r5, lsl #10
    5a64:	08000006 	stmdaeq	r0, {r1, r2}
    5a68:	fb040d00 	blx	108e72 <__bss_end__+0xfee82>
    5a6c:	0d000005 	stceq	0, cr0, [r0, #-20]	; 0xffffffec
    5a70:	0005ef04 	andeq	lr, r5, r4, lsl #30
    5a74:	00c91900 	sbceq	r1, r9, r0, lsl #18
    5a78:	050e0000 	streq	r0, [lr, #-0]
    5a7c:	0671013d 			; <UNDEFINED> instruction: 0x0671013d
    5a80:	36170000 	ldrcc	r0, [r7], -r0
    5a84:	05000007 	streq	r0, [r0, #-7]
    5a88:	0671013e 			; <UNDEFINED> instruction: 0x0671013e
    5a8c:	17000000 	strne	r0, [r0, -r0]
    5a90:	000007d9 	ldrdeq	r0, [r0], -r9
    5a94:	71013f05 	tstvc	r1, r5, lsl #30
    5a98:	06000006 	streq	r0, [r0], -r6
    5a9c:	00081817 	andeq	r1, r8, r7, lsl r8
    5aa0:	01400500 	cmpeq	r0, r0, lsl #10
    5aa4:	00000056 	andeq	r0, r0, r6, asr r0
    5aa8:	5608000c 	strpl	r0, [r8], -ip
    5aac:	81000000 	mrshi	r0, (UNDEF: 0)
    5ab0:	09000006 	stmdbeq	r0, {r1, r2}
    5ab4:	000000c7 	andeq	r0, r0, r7, asr #1
    5ab8:	d01a0002 	andsle	r0, sl, r2
    5abc:	82025705 	andhi	r5, r2, #1310720	; 0x140000
    5ac0:	17000007 	strne	r0, [r0, -r7]
    5ac4:	0000089d 	muleq	r0, sp, r8
    5ac8:	2c025905 			; <UNDEFINED> instruction: 0x2c025905
    5acc:	00000000 	andeq	r0, r0, r0
    5ad0:	0007df17 	andeq	sp, r7, r7, lsl pc
    5ad4:	025a0500 	subseq	r0, sl, #0, 10
    5ad8:	00000107 	andeq	r0, r0, r7, lsl #2
    5adc:	04421704 	strbeq	r1, [r2], #-1796	; 0xfffff8fc
    5ae0:	5b050000 	blpl	145ae8 <__bss_end__+0x13baf8>
    5ae4:	00078202 	andeq	r8, r7, r2, lsl #4
    5ae8:	5e170800 	cdppl	8, 1, cr0, cr7, cr0, {0}
    5aec:	05000009 	streq	r0, [r0, #-9]
    5af0:	018d025c 	orreq	r0, sp, ip, asr r2
    5af4:	17240000 	strne	r0, [r4, -r0]!
    5af8:	00000335 	andeq	r0, r0, r5, lsr r3
    5afc:	25025d05 	strcs	r5, [r2, #-3333]	; 0xfffff2fb
    5b00:	48000000 	stmdami	r0, {}	; <UNPREDICTABLE>
    5b04:	0006cc17 	andeq	ip, r6, r7, lsl ip
    5b08:	025e0500 	subseq	r0, lr, #0, 10
    5b0c:	00000064 	andeq	r0, r0, r4, rrx
    5b10:	09741750 	ldmdbeq	r4!, {r4, r6, r8, r9, sl, ip}^
    5b14:	5f050000 	svcpl	0x00050000
    5b18:	00063c02 	andeq	r3, r6, r2, lsl #24
    5b1c:	ed175800 	ldc	8, cr5, [r7, #-0]
    5b20:	05000006 	streq	r0, [r0, #-6]
    5b24:	00ef0260 	rsceq	r0, pc, r0, ror #4
    5b28:	17680000 	strbne	r0, [r8, -r0]!
    5b2c:	00000982 	andeq	r0, r0, r2, lsl #19
    5b30:	ef026105 	svc	0x00026105
    5b34:	70000000 	andvc	r0, r0, r0
    5b38:	0001ac17 	andeq	sl, r1, r7, lsl ip
    5b3c:	02620500 	rsbeq	r0, r2, #0, 10
    5b40:	000000ef 	andeq	r0, r0, pc, ror #1
    5b44:	08eb1778 	stmiaeq	fp!, {r3, r4, r5, r6, r8, r9, sl, ip}^
    5b48:	63050000 	movwvs	r0, #20480	; 0x5000
    5b4c:	00079202 	andeq	r9, r7, r2, lsl #4
    5b50:	36178000 	ldrcc	r8, [r7], -r0
    5b54:	05000004 	streq	r0, [r0, #-4]
    5b58:	07a20264 	streq	r0, [r2, r4, ror #4]!
    5b5c:	17880000 	strne	r0, [r8, r0]
    5b60:	0000082e 	andeq	r0, r0, lr, lsr #16
    5b64:	25026505 	strcs	r6, [r2, #-1285]	; 0xfffffafb
    5b68:	a0000000 	andge	r0, r0, r0
    5b6c:	0002da17 	andeq	sp, r2, r7, lsl sl
    5b70:	02660500 	rsbeq	r0, r6, #0, 10
    5b74:	000000ef 	andeq	r0, r0, pc, ror #1
    5b78:	018817a4 	orreq	r1, r8, r4, lsr #15
    5b7c:	67050000 	strvs	r0, [r5, -r0]
    5b80:	0000ef02 	andeq	lr, r0, r2, lsl #30
    5b84:	c017ac00 	andsgt	sl, r7, r0, lsl #24
    5b88:	05000002 	streq	r0, [r0, #-2]
    5b8c:	00ef0268 	rsceq	r0, pc, r8, ror #4
    5b90:	17b40000 	ldrne	r0, [r4, r0]!
    5b94:	00000120 	andeq	r0, r0, r0, lsr #2
    5b98:	ef026905 	svc	0x00026905
    5b9c:	bc000000 	stclt	0, cr0, [r0], {-0}
    5ba0:	00012f17 	andeq	r2, r1, r7, lsl pc
    5ba4:	026a0500 	rsbeq	r0, sl, #0, 10
    5ba8:	000000ef 	andeq	r0, r0, pc, ror #1
    5bac:	066217c4 	strbteq	r1, [r2], -r4, asr #15
    5bb0:	6b050000 	blvs	145bb8 <__bss_end__+0x13bbc8>
    5bb4:	00002502 	andeq	r2, r0, r2, lsl #10
    5bb8:	0800cc00 	stmdaeq	r0, {sl, fp, lr, pc}
    5bbc:	0000010d 	andeq	r0, r0, sp, lsl #2
    5bc0:	00000792 	muleq	r0, r2, r7
    5bc4:	0000c709 	andeq	ip, r0, r9, lsl #14
    5bc8:	08001900 	stmdaeq	r0, {r8, fp, ip}
    5bcc:	0000010d 	andeq	r0, r0, sp, lsl #2
    5bd0:	000007a2 	andeq	r0, r0, r2, lsr #15
    5bd4:	0000c709 	andeq	ip, r0, r9, lsl #14
    5bd8:	08000700 	stmdaeq	r0, {r8, r9, sl}
    5bdc:	0000010d 	andeq	r0, r0, sp, lsl #2
    5be0:	000007b2 			; <UNDEFINED> instruction: 0x000007b2
    5be4:	0000c709 	andeq	ip, r0, r9, lsl #14
    5be8:	1a001700 	bne	b7f0 <__bss_end__+0x1800>
    5bec:	027005f0 	rsbseq	r0, r0, #240, 10	; 0x3c000000
    5bf0:	000007d6 	ldrdeq	r0, [r0], -r6
    5bf4:	00055217 	andeq	r5, r5, r7, lsl r2
    5bf8:	02730500 	rsbseq	r0, r3, #0, 10
    5bfc:	000007d6 	ldrdeq	r0, [r0], -r6
    5c00:	04f91700 	ldrbteq	r1, [r9], #1792	; 0x700
    5c04:	74050000 	strvc	r0, [r5], #-0
    5c08:	0007e602 	andeq	lr, r7, r2, lsl #12
    5c0c:	08007800 	stmdaeq	r0, {fp, ip, sp, lr}
    5c10:	000002d6 	ldrdeq	r0, [r0], -r6
    5c14:	000007e6 	andeq	r0, r0, r6, ror #15
    5c18:	0000c709 	andeq	ip, r0, r9, lsl #14
    5c1c:	08001d00 	stmdaeq	r0, {r8, sl, fp, ip}
    5c20:	0000002c 	andeq	r0, r0, ip, lsr #32
    5c24:	000007f6 	strdeq	r0, [r0], -r6
    5c28:	0000c709 	andeq	ip, r0, r9, lsl #14
    5c2c:	1b001d00 	blne	d034 <__bss_end__+0x3044>
    5c30:	025505f0 	subseq	r0, r5, #240, 10	; 0x3c000000
    5c34:	00000818 	andeq	r0, r0, r8, lsl r8
    5c38:	0007261c 	andeq	r2, r7, ip, lsl r6
    5c3c:	026c0500 	rsbeq	r0, ip, #0, 10
    5c40:	00000681 	andeq	r0, r0, r1, lsl #13
    5c44:	00092a1c 	andeq	r2, r9, ip, lsl sl
    5c48:	02750500 	rsbseq	r0, r5, #0, 10
    5c4c:	000007b2 			; <UNDEFINED> instruction: 0x000007b2
    5c50:	010d0800 	tsteq	sp, r0, lsl #16
    5c54:	08280000 	stmdaeq	r8!, {}	; <UNPREDICTABLE>
    5c58:	c7090000 	strgt	r0, [r9, -r0]
    5c5c:	18000000 	stmdane	r0, {}	; <UNPREDICTABLE>
    5c60:	08331d00 	ldmdaeq	r3!, {r8, sl, fp, ip}
    5c64:	24150000 	ldrcs	r0, [r5], #-0
    5c68:	00000004 	andeq	r0, r0, r4
    5c6c:	0828040d 	stmdaeq	r8!, {r0, r2, r3, sl}
    5c70:	040d0000 	streq	r0, [sp], #-0
    5c74:	00000177 	andeq	r0, r0, r7, ror r1
    5c78:	00084a1d 	andeq	r4, r8, sp, lsl sl
    5c7c:	00251500 	eoreq	r1, r5, r0, lsl #10
    5c80:	0d000000 	stceq	0, cr0, [r0, #-0]
    5c84:	00085004 	andeq	r5, r8, r4
    5c88:	3f040d00 	svccc	0x00040d00
    5c8c:	08000008 	stmdaeq	r0, {r3}
    5c90:	000005ef 	andeq	r0, r0, pc, ror #11
    5c94:	00000866 	andeq	r0, r0, r6, ror #16
    5c98:	0000c709 	andeq	ip, r0, r9, lsl #14
    5c9c:	1e000200 	cdpne	2, 0, cr0, cr0, cr0, {0}
    5ca0:	00000863 	andeq	r0, r0, r3, ror #16
    5ca4:	2402fd05 	strcs	pc, [r2], #-3333	; 0xfffff2fb
    5ca8:	1e000004 	cdpne	0, 0, cr0, cr0, cr4, {0}
    5cac:	0000085c 	andeq	r0, r0, ip, asr r8
    5cb0:	2a02fe05 	bcs	c54cc <__bss_end__+0xbb4dc>
    5cb4:	14000004 	strne	r0, [r0], #-4
    5cb8:	00000025 	andeq	r0, r0, r5, lsr #32
    5cbc:	0000088d 	andeq	r0, r0, sp, lsl #17
    5cc0:	00002515 	andeq	r2, r0, r5, lsl r5
    5cc4:	641f0000 	ldrvs	r0, [pc], #-0	; 5ccc <_start-0x2334>
    5cc8:	06000003 	streq	r0, [r0], -r3
    5ccc:	0008981d 	andeq	r9, r8, sp, lsl r8
    5cd0:	7e040d00 	cdpvc	13, 0, cr0, cr4, cr0, {0}
    5cd4:	14000008 	strne	r0, [r0], #-8
    5cd8:	00000025 	andeq	r0, r0, r5, lsr #32
    5cdc:	000008ad 	andeq	r0, r0, sp, lsr #17
    5ce0:	00058515 	andeq	r8, r5, r5, lsl r5
    5ce4:	2b1f0000 	blcs	7c5cec <__bss_end__+0x7bbcfc>
    5ce8:	0600000d 	streq	r0, [r0], -sp
    5cec:	0008b822 	andeq	fp, r8, r2, lsr #16
    5cf0:	9e040d00 	cdpls	13, 0, cr0, cr4, cr0, {0}
    5cf4:	20000008 	andcs	r0, r0, r8
    5cf8:	0000088d 	andeq	r0, r0, sp, lsl #17
    5cfc:	03050601 	movweq	r0, #22017	; 0x5601
    5d00:	00009688 	andeq	r9, r0, r8, lsl #13
    5d04:	000d3c21 	andeq	r3, sp, r1, lsr #24
    5d08:	840b0100 	strhi	r0, [fp], #-256	; 0xffffff00
    5d0c:	10000091 	mulne	r0, r1, r0
    5d10:	01000000 	mrseq	r0, (UNDEF: 0)
    5d14:	0008ed9c 	muleq	r8, ip, sp
    5d18:	70662200 	rsbvc	r2, r6, r0, lsl #4
    5d1c:	980b0100 	stmdals	fp, {r8}
    5d20:	01000008 	tsteq	r0, r8
    5d24:	85230050 	strhi	r0, [r3, #-80]!	; 0xffffffb0
    5d28:	01000003 	tsteq	r0, r3
    5d2c:	00916c08 	addseq	r6, r1, r8, lsl #24
    5d30:	00001800 	andeq	r1, r0, r0, lsl #16
    5d34:	249c0100 	ldrcs	r0, [ip], #256	; 0x100
    5d38:	00000d53 	andeq	r0, r0, r3, asr sp
    5d3c:	00250301 	eoreq	r0, r5, r1, lsl #6
    5d40:	91580000 	cmpls	r8, r0
    5d44:	00140000 	andseq	r0, r4, r0
    5d48:	9c010000 	stcls	0, cr0, [r1], {-0}
    5d4c:	00000935 	andeq	r0, r0, r5, lsr r9
    5d50:	01006325 	tsteq	r0, r5, lsr #6
    5d54:	00002503 	andeq	r2, r0, r3, lsl #10
    5d58:	000e9600 	andeq	r9, lr, r0, lsl #12
    5d5c:	91642600 	cmnls	r4, r0, lsl #12
    5d60:	09350000 	ldmdbeq	r5!, {}	; <UNPREDICTABLE>
    5d64:	01270000 			; <UNDEFINED> instruction: 0x01270000
    5d68:	00740250 	rsbseq	r0, r4, r0, asr r2
    5d6c:	49280000 	stmdbmi	r8!, {}	; <UNPREDICTABLE>
    5d70:	4900000d 	stmdbmi	r0, {r0, r2, r3}
    5d74:	0600000d 	streq	r0, [r0], -sp
    5d78:	0a7c003c 	beq	1f05e70 <__bss_end__+0x1efbe80>
    5d7c:	00040000 	andeq	r0, r4, r0
    5d80:	00000fa0 	andeq	r0, r0, r0, lsr #31
    5d84:	0c370104 	ldfeqs	f0, [r7], #-16
    5d88:	390c0000 	stmdbcc	ip, {}	; <UNPREDICTABLE>
    5d8c:	9e00000e 	cdpls	0, 0, cr0, cr0, cr14, {0}
    5d90:	9400000c 	strls	r0, [r0], #-12
    5d94:	74000091 	strvc	r0, [r0], #-145	; 0xffffff6f
    5d98:	90000000 	andls	r0, r0, r0
    5d9c:	02000008 	andeq	r0, r0, #8
    5da0:	6e690504 	cdpvs	5, 6, cr0, cr9, cr4, {0}
    5da4:	04030074 	streq	r0, [r3], #-116	; 0xffffff8c
    5da8:	00014a07 	andeq	r4, r1, r7, lsl #20
    5dac:	06010300 	streq	r0, [r1], -r0, lsl #6
    5db0:	00000620 	andeq	r0, r0, r0, lsr #12
    5db4:	6b050203 	blvs	1465c8 <__bss_end__+0x13c5d8>
    5db8:	03000006 	movweq	r0, #6
    5dbc:	01c80504 	biceq	r0, r8, r4, lsl #10
    5dc0:	08030000 	stmdaeq	r3, {}	; <UNPREDICTABLE>
    5dc4:	0001c305 	andeq	ip, r1, r5, lsl #6
    5dc8:	08e30400 	stmiaeq	r3!, {sl}^
    5dcc:	2e020000 	cdpcs	0, 0, cr0, cr2, cr0, {0}
    5dd0:	0000005a 	andeq	r0, r0, sl, asr r0
    5dd4:	1e080103 	adfnee	f0, f0, f3
    5dd8:	03000006 	movweq	r0, #6
    5ddc:	041a0702 	ldreq	r0, [sl], #-1794	; 0xfffff8fe
    5de0:	4d040000 	stcmi	0, cr0, [r4, #-0]
    5de4:	02000007 	andeq	r0, r0, #7
    5de8:	00007334 	andeq	r7, r0, r4, lsr r3
    5dec:	07040300 	streq	r0, [r4, -r0, lsl #6]
    5df0:	00000145 	andeq	r0, r0, r5, asr #2
    5df4:	40070803 	andmi	r0, r7, r3, lsl #16
    5df8:	04000001 	streq	r0, [r0], #-1
    5dfc:	000005e2 	andeq	r0, r0, r2, ror #11
    5e00:	00250703 	eoreq	r0, r5, r3, lsl #14
    5e04:	9e040000 	cdpls	0, 0, cr0, cr4, cr0, {0}
    5e08:	04000005 	streq	r0, [r0], #-5
    5e0c:	0000412c 	andeq	r4, r0, ip, lsr #2
    5e10:	07690400 	strbeq	r0, [r9, -r0, lsl #8]!
    5e14:	72040000 	andvc	r0, r4, #0
    5e18:	00000041 	andeq	r0, r0, r1, asr #32
    5e1c:	00047e05 	andeq	r7, r4, r5, lsl #28
    5e20:	01650500 	cmneq	r5, r0, lsl #10
    5e24:	0000002c 	andeq	r0, r0, ip, lsr #32
    5e28:	a6040406 	strge	r0, [r4], -r6, lsl #8
    5e2c:	000000cd 	andeq	r0, r0, sp, asr #1
    5e30:	00046b07 	andeq	r6, r4, r7, lsl #22
    5e34:	a2a80400 	adcge	r0, r8, #0, 8
    5e38:	07000000 	streq	r0, [r0, -r0]
    5e3c:	0000037e 	andeq	r0, r0, lr, ror r3
    5e40:	00cda904 	sbceq	sl, sp, r4, lsl #18
    5e44:	08000000 	stmdaeq	r0, {}	; <UNPREDICTABLE>
    5e48:	0000005a 	andeq	r0, r0, sl, asr r0
    5e4c:	000000dd 	ldrdeq	r0, [r0], -sp
    5e50:	0000dd09 	andeq	sp, r0, r9, lsl #26
    5e54:	03000300 	movweq	r0, #768	; 0x300
    5e58:	050e0704 	streq	r0, [lr, #-1796]	; 0xfffff8fc
    5e5c:	080a0000 	stmdaeq	sl, {}	; <UNPREDICTABLE>
    5e60:	0105a304 	tsteq	r5, r4, lsl #6
    5e64:	450b0000 	strmi	r0, [fp, #-0]
    5e68:	04000007 	streq	r0, [r0], #-7
    5e6c:	000025a5 	andeq	r2, r0, r5, lsr #11
    5e70:	ec0b0000 	stc	0, cr0, [fp], {-0}
    5e74:	04000007 	streq	r0, [r0], #-7
    5e78:	0000aeaa 	andeq	sl, r0, sl, lsr #29
    5e7c:	04000400 	streq	r0, [r0], #-1024	; 0xfffffc00
    5e80:	000006a0 	andeq	r0, r0, r0, lsr #13
    5e84:	00e4ab04 	rsceq	sl, r4, r4, lsl #22
    5e88:	1c040000 	stcne	0, cr0, [r4], {-0}
    5e8c:	04000003 	streq	r0, [r0], #-3
    5e90:	000081af 	andeq	r8, r0, pc, lsr #3
    5e94:	0d040c00 	stceq	12, cr0, [r4, #-0]
    5e98:	00012304 	andeq	r2, r1, r4, lsl #6
    5e9c:	08010300 	stmdaeq	r1, {r8, r9}
    5ea0:	00000627 	andeq	r0, r0, r7, lsr #12
    5ea4:	0001230e 	andeq	r2, r1, lr, lsl #6
    5ea8:	08260400 	stmdaeq	r6!, {sl}
    5eac:	16060000 	strne	r0, [r6], -r0
    5eb0:	00000073 	andeq	r0, r0, r3, ror r0
    5eb4:	00032d0f 	andeq	r2, r3, pc, lsl #26
    5eb8:	2d061800 	stccs	8, cr1, [r6, #-0]
    5ebc:	0000018d 	andeq	r0, r0, sp, lsl #3
    5ec0:	0006d10b 	andeq	sp, r6, fp, lsl #2
    5ec4:	8d2f0600 	stchi	6, cr0, [pc, #-0]	; 5ecc <_start-0x2134>
    5ec8:	00000001 	andeq	r0, r0, r1
    5ecc:	006b5f10 	rsbeq	r5, fp, r0, lsl pc
    5ed0:	00253006 	eoreq	r3, r5, r6
    5ed4:	0b040000 	bleq	105edc <__bss_end__+0xfbeec>
    5ed8:	0000071e 	andeq	r0, r0, lr, lsl r7
    5edc:	00253006 	eoreq	r3, r5, r6
    5ee0:	0b080000 	bleq	205ee8 <__bss_end__+0x1fbef8>
    5ee4:	00000316 	andeq	r0, r0, r6, lsl r3
    5ee8:	00253006 	eoreq	r3, r5, r6
    5eec:	0b0c0000 	bleq	305ef4 <__bss_end__+0x2fbf04>
    5ef0:	000008c5 	andeq	r0, r0, r5, asr #17
    5ef4:	00253006 	eoreq	r3, r5, r6
    5ef8:	10100000 	andsne	r0, r0, r0
    5efc:	0600785f 			; <UNDEFINED> instruction: 0x0600785f
    5f00:	00019331 	andeq	r9, r1, r1, lsr r3
    5f04:	0d001400 	cfstrseq	mvf1, [r0, #-0]
    5f08:	00013a04 	andeq	r3, r1, r4, lsl #20
    5f0c:	012f0800 			; <UNDEFINED> instruction: 0x012f0800
    5f10:	01a30000 			; <UNDEFINED> instruction: 0x01a30000
    5f14:	dd090000 	stcle	0, cr0, [r9, #-0]
    5f18:	00000000 	andeq	r0, r0, r0
    5f1c:	03700f00 	cmneq	r0, #0, 30
    5f20:	06240000 	strteq	r0, [r4], -r0
    5f24:	00021c35 	andeq	r1, r2, r5, lsr ip
    5f28:	01ba0b00 			; <UNDEFINED> instruction: 0x01ba0b00
    5f2c:	37060000 	strcc	r0, [r6, -r0]
    5f30:	00000025 	andeq	r0, r0, r5, lsr #32
    5f34:	07910b00 	ldreq	r0, [r1, r0, lsl #22]
    5f38:	38060000 	stmdacc	r6, {}	; <UNPREDICTABLE>
    5f3c:	00000025 	andeq	r0, r0, r5, lsr #32
    5f40:	02040b04 	andeq	r0, r4, #4, 22	; 0x1000
    5f44:	39060000 	stmdbcc	r6, {}	; <UNPREDICTABLE>
    5f48:	00000025 	andeq	r0, r0, r5, lsr #32
    5f4c:	09d90b08 	ldmibeq	r9, {r3, r8, r9, fp}^
    5f50:	3a060000 	bcc	185f58 <__bss_end__+0x17bf68>
    5f54:	00000025 	andeq	r0, r0, r5, lsr #32
    5f58:	05630b0c 	strbeq	r0, [r3, #-2828]!	; 0xfffff4f4
    5f5c:	3b060000 	blcc	185f64 <__bss_end__+0x17bf74>
    5f60:	00000025 	andeq	r0, r0, r5, lsr #32
    5f64:	04d10b10 	ldrbeq	r0, [r1], #2832	; 0xb10
    5f68:	3c060000 	stccc	0, cr0, [r6], {-0}
    5f6c:	00000025 	andeq	r0, r0, r5, lsr #32
    5f70:	08ca0b14 	stmiaeq	sl, {r2, r4, r8, r9, fp}^
    5f74:	3d060000 	stccc	0, cr0, [r6, #-0]
    5f78:	00000025 	andeq	r0, r0, r5, lsr #32
    5f7c:	06750b18 			; <UNDEFINED> instruction: 0x06750b18
    5f80:	3e060000 	cdpcc	0, 0, cr0, cr6, cr0, {0}
    5f84:	00000025 	andeq	r0, r0, r5, lsr #32
    5f88:	09530b1c 	ldmdbeq	r3, {r2, r3, r4, r8, r9, fp}^
    5f8c:	3f060000 	svccc	0x00060000
    5f90:	00000025 	andeq	r0, r0, r5, lsr #32
    5f94:	13110020 	tstne	r1, #32
    5f98:	08000002 	stmdaeq	r0, {r1}
    5f9c:	5c480601 	mcrrpl	6, 0, r0, r8, cr1
    5fa0:	0b000002 	bleq	5fb0 <_start-0x2050>
    5fa4:	000002e8 	andeq	r0, r0, r8, ror #5
    5fa8:	025c4906 	subseq	r4, ip, #98304	; 0x18000
    5fac:	0b000000 	bleq	5fb4 <_start-0x204c>
    5fb0:	00000000 	andeq	r0, r0, r0
    5fb4:	025c4a06 	subseq	r4, ip, #24576	; 0x6000
    5fb8:	12800000 	addne	r0, r0, #0
    5fbc:	000007b3 			; <UNDEFINED> instruction: 0x000007b3
    5fc0:	012f4c06 			; <UNDEFINED> instruction: 0x012f4c06
    5fc4:	01000000 	mrseq	r0, (UNDEF: 0)
    5fc8:	00025d12 	andeq	r5, r2, r2, lsl sp
    5fcc:	2f4f0600 	svccs	0x004f0600
    5fd0:	04000001 	streq	r0, [r0], #-1
    5fd4:	1b080001 	blne	205fe0 <__bss_end__+0x1fbff0>
    5fd8:	6c000001 	stcvs	0, cr0, [r0], {1}
    5fdc:	09000002 	stmdbeq	r0, {r1}
    5fe0:	000000dd 	ldrdeq	r0, [r0], -sp
    5fe4:	7d11001f 	ldcvc	0, cr0, [r1, #-124]	; 0xffffff84
    5fe8:	90000005 	andls	r0, r0, r5
    5fec:	aa5b0601 	bge	16c77f8 <__bss_end__+0x16bd808>
    5ff0:	0b000002 	bleq	6000 <_start-0x2000>
    5ff4:	000006d1 	ldrdeq	r0, [r0], -r1
    5ff8:	02aa5c06 	adceq	r5, sl, #1536	; 0x600
    5ffc:	0b000000 	bleq	6004 <_start-0x1ffc>
    6000:	000006ff 	strdeq	r0, [r0], -pc	; <UNPREDICTABLE>
    6004:	00255d06 	eoreq	r5, r5, r6, lsl #26
    6008:	0b040000 	bleq	106010 <__bss_end__+0xfc020>
    600c:	00000311 	andeq	r0, r0, r1, lsl r3
    6010:	02b05f06 	adcseq	r5, r0, #6, 30
    6014:	0b080000 	bleq	20601c <__bss_end__+0x1fc02c>
    6018:	00000213 	andeq	r0, r0, r3, lsl r2
    601c:	021c6006 	andseq	r6, ip, #6
    6020:	00880000 	addeq	r0, r8, r0
    6024:	026c040d 	rsbeq	r0, ip, #218103808	; 0xd000000
    6028:	c0080000 	andgt	r0, r8, r0
    602c:	c0000002 	andgt	r0, r0, r2
    6030:	09000002 	stmdbeq	r0, {r1}
    6034:	000000dd 	ldrdeq	r0, [r0], -sp
    6038:	040d001f 	streq	r0, [sp], #-31	; 0xffffffe1
    603c:	000002c6 	andeq	r0, r0, r6, asr #5
    6040:	067f0f13 	uhadd16eq	r0, pc, r3	; <UNPREDICTABLE>
    6044:	06080000 	streq	r0, [r8], -r0
    6048:	0002ec73 	andeq	lr, r2, r3, ror ip
    604c:	01fe0b00 	mvnseq	r0, r0, lsl #22
    6050:	74060000 	strvc	r0, [r6], #-0
    6054:	000002ec 	andeq	r0, r0, ip, ror #5
    6058:	00a60b00 	adceq	r0, r6, r0, lsl #22
    605c:	75060000 	strvc	r0, [r6, #-0]
    6060:	00000025 	andeq	r0, r0, r5, lsr #32
    6064:	040d0004 	streq	r0, [sp], #-4
    6068:	0000005a 	andeq	r0, r0, sl, asr r0
    606c:	0006ab0f 	andeq	sl, r6, pc, lsl #22
    6070:	b3066800 	movwlt	r6, #26624	; 0x6800
    6074:	0000041c 	andeq	r0, r0, ip, lsl r4
    6078:	00705f10 	rsbseq	r5, r0, r0, lsl pc
    607c:	02ecb406 	rsceq	fp, ip, #100663296	; 0x6000000
    6080:	10000000 	andne	r0, r0, r0
    6084:	0600725f 			; <UNDEFINED> instruction: 0x0600725f
    6088:	000025b5 			; <UNDEFINED> instruction: 0x000025b5
    608c:	5f100400 	svcpl	0x00100400
    6090:	b6060077 			; <UNDEFINED> instruction: 0xb6060077
    6094:	00000025 	andeq	r0, r0, r5, lsr #32
    6098:	02560b08 	subseq	r0, r6, #8, 22	; 0x2000
    609c:	b7060000 	strlt	r0, [r6, -r0]
    60a0:	0000003a 	andeq	r0, r0, sl, lsr r0
    60a4:	03af0b0c 			; <UNDEFINED> instruction: 0x03af0b0c
    60a8:	b8060000 	stmdalt	r6, {}	; <UNPREDICTABLE>
    60ac:	0000003a 	andeq	r0, r0, sl, lsr r0
    60b0:	625f100e 	subsvs	r1, pc, #14
    60b4:	b9060066 	stmdblt	r6, {r1, r2, r5, r6}
    60b8:	000002c7 	andeq	r0, r0, r7, asr #5
    60bc:	01600b10 	cmneq	r0, r0, lsl fp
    60c0:	ba060000 	blt	1860c8 <__bss_end__+0x17c0d8>
    60c4:	00000025 	andeq	r0, r0, r5, lsr #32
    60c8:	02210b18 	eoreq	r0, r1, #24, 22	; 0x6000
    60cc:	c1060000 	mrsgt	r0, (UNDEF: 6)
    60d0:	0000011b 	andeq	r0, r0, fp, lsl r1
    60d4:	08ad0b1c 	stmiaeq	sp!, {r2, r3, r4, r8, r9, fp}
    60d8:	c3060000 	movwgt	r0, #24576	; 0x6000
    60dc:	00000577 	andeq	r0, r0, r7, ror r5
    60e0:	01760b20 	cmneq	r6, r0, lsr #22
    60e4:	c5060000 	strgt	r0, [r6, #-0]
    60e8:	000005a1 	andeq	r0, r0, r1, lsr #11
    60ec:	07560b24 	ldrbeq	r0, [r6, -r4, lsr #22]
    60f0:	c8060000 	stmdagt	r6, {}	; <UNPREDICTABLE>
    60f4:	000005c5 	andeq	r0, r0, r5, asr #11
    60f8:	096d0b28 	stmdbeq	sp!, {r3, r5, r8, r9, fp}^
    60fc:	c9060000 	stmdbgt	r6, {}	; <UNPREDICTABLE>
    6100:	000005df 	ldrdeq	r0, [r0], -pc	; <UNPREDICTABLE>
    6104:	755f102c 	ldrbvc	r1, [pc, #-44]	; 60e0 <_start-0x1f20>
    6108:	cc060062 	stcgt	0, cr0, [r6], {98}	; 0x62
    610c:	000002c7 	andeq	r0, r0, r7, asr #5
    6110:	755f1030 	ldrbvc	r1, [pc, #-48]	; 60e8 <_start-0x1f18>
    6114:	cd060070 	stcgt	0, cr0, [r6, #-448]	; 0xfffffe40
    6118:	000002ec 	andeq	r0, r0, ip, ror #5
    611c:	755f1038 	ldrbvc	r1, [pc, #-56]	; 60ec <_start-0x1f14>
    6120:	ce060072 	mcrgt	0, 0, r0, cr6, cr2, {3}
    6124:	00000025 	andeq	r0, r0, r5, lsr #32
    6128:	01f00b3c 	mvnseq	r0, ip, lsr fp
    612c:	d1060000 	mrsle	r0, (UNDEF: 6)
    6130:	000005e5 	andeq	r0, r0, r5, ror #11
    6134:	09240b40 	stmdbeq	r4!, {r6, r8, r9, fp}
    6138:	d2060000 	andle	r0, r6, #0
    613c:	000005f5 	strdeq	r0, [r0], -r5
    6140:	6c5f1043 	mrrcvs	0, 4, r1, pc, cr3	; <UNPREDICTABLE>
    6144:	d5060062 	strle	r0, [r6, #-98]	; 0xffffff9e
    6148:	000002c7 	andeq	r0, r0, r7, asr #5
    614c:	02730b44 	rsbseq	r0, r3, #68, 22	; 0x11000
    6150:	d8060000 	stmdale	r6, {}	; <UNPREDICTABLE>
    6154:	00000025 	andeq	r0, r0, r5, lsr #32
    6158:	02a90b4c 	adceq	r0, r9, #76, 22	; 0x13000
    615c:	d9060000 	stmdble	r6, {}	; <UNPREDICTABLE>
    6160:	0000008c 	andeq	r0, r0, ip, lsl #1
    6164:	064c0b50 			; <UNDEFINED> instruction: 0x064c0b50
    6168:	dc060000 	stcle	0, cr0, [r6], {-0}
    616c:	0000043a 	andeq	r0, r0, sl, lsr r4
    6170:	10900b54 	addsne	r0, r0, r4, asr fp
    6174:	e0060000 	and	r0, r6, r0
    6178:	00000110 	andeq	r0, r0, r0, lsl r1
    617c:	06c30b58 			; <UNDEFINED> instruction: 0x06c30b58
    6180:	e2060000 	and	r0, r6, #0
    6184:	00000105 	andeq	r0, r0, r5, lsl #2
    6188:	049f0b5c 	ldreq	r0, [pc], #2908	; 6190 <_start-0x1e70>
    618c:	e3060000 	movw	r0, #24576	; 0x6000
    6190:	00000025 	andeq	r0, r0, r5, lsr #32
    6194:	25140064 	ldrcs	r0, [r4, #-100]	; 0xffffff9c
    6198:	3a000000 	bcc	61a0 <_start-0x1e60>
    619c:	15000004 	strne	r0, [r0, #-4]
    61a0:	0000043a 	andeq	r0, r0, sl, lsr r4
    61a4:	00011b15 	andeq	r1, r1, r5, lsl fp
    61a8:	011d1500 	tsteq	sp, r0, lsl #10
    61ac:	25150000 	ldrcs	r0, [r5, #-0]
    61b0:	00000000 	andeq	r0, r0, r0
    61b4:	0445040d 	strbeq	r0, [r5], #-1037	; 0xfffffbf3
    61b8:	3a0e0000 	bcc	3861c0 <__bss_end__+0x37c1d0>
    61bc:	16000004 	strne	r0, [r0], -r4
    61c0:	00000726 	andeq	r0, r0, r6, lsr #14
    61c4:	38060428 	stmdacc	r6, {r3, r5, sl}
    61c8:	00057702 	andeq	r7, r5, r2, lsl #14
    61cc:	06641700 	strbteq	r1, [r4], -r0, lsl #14
    61d0:	3a060000 	bcc	1861d8 <__bss_end__+0x17c1e8>
    61d4:	00002502 	andeq	r2, r0, r2, lsl #10
    61d8:	65170000 	ldrvs	r0, [r7, #-0]
    61dc:	06000002 	streq	r0, [r0], -r2
    61e0:	064c023f 			; <UNDEFINED> instruction: 0x064c023f
    61e4:	17040000 	strne	r0, [r4, -r0]
    61e8:	00000394 	muleq	r0, r4, r3
    61ec:	4c023f06 	stcmi	15, cr3, [r2], {6}
    61f0:	08000006 	stmdaeq	r0, {r1, r2}
    61f4:	00032517 	andeq	r2, r3, r7, lsl r5
    61f8:	023f0600 	eorseq	r0, pc, #0, 12
    61fc:	0000064c 	andeq	r0, r0, ip, asr #12
    6200:	06fa170c 	ldrbteq	r1, [sl], ip, lsl #14
    6204:	41060000 	mrsmi	r0, (UNDEF: 6)
    6208:	00002502 	andeq	r2, r0, r2, lsl #10
    620c:	e5171000 	ldr	r1, [r7, #-0]
    6210:	06000000 	streq	r0, [r0], -r0
    6214:	082e0242 	stmdaeq	lr!, {r1, r6, r9}
    6218:	17140000 	ldrne	r0, [r4, -r0]
    621c:	0000086f 	andeq	r0, r0, pc, ror #16
    6220:	25024406 	strcs	r4, [r2, #-1030]	; 0xfffffbfa
    6224:	30000000 	andcc	r0, r0, r0
    6228:	00070417 	andeq	r0, r7, r7, lsl r4
    622c:	02450600 	subeq	r0, r5, #0, 12
    6230:	0000059b 	muleq	r0, fp, r5
    6234:	05931734 	ldreq	r1, [r3, #1844]	; 0x734
    6238:	47060000 	strmi	r0, [r6, -r0]
    623c:	00002502 	andeq	r2, r0, r2, lsl #10
    6240:	14173800 	ldrne	r3, [r7], #-2048	; 0xfffff800
    6244:	06000007 	streq	r0, [r0], -r7
    6248:	08490249 	stmdaeq	r9, {r0, r3, r6, r9}^
    624c:	173c0000 	ldrne	r0, [ip, -r0]!
    6250:	00000463 	andeq	r0, r0, r3, ror #8
    6254:	8d024c06 	stchi	12, cr4, [r2, #-24]	; 0xffffffe8
    6258:	40000001 	andmi	r0, r0, r1
    625c:	00035a17 	andeq	r5, r3, r7, lsl sl
    6260:	024d0600 	subeq	r0, sp, #0, 12
    6264:	00000025 	andeq	r0, r0, r5, lsr #32
    6268:	09901744 	ldmibeq	r0, {r2, r6, r8, r9, sl, ip}
    626c:	4e060000 	cdpmi	0, 0, cr0, cr6, cr0, {0}
    6270:	00018d02 	andeq	r8, r1, r2, lsl #26
    6274:	c8174800 	ldmdagt	r7, {fp, lr}
    6278:	06000005 	streq	r0, [r0], -r5
    627c:	084f024f 	stmdaeq	pc, {r0, r1, r2, r3, r6, r9}^	; <UNPREDICTABLE>
    6280:	174c0000 	strbne	r0, [ip, -r0]
    6284:	0000039c 	muleq	r0, ip, r3
    6288:	25025206 	strcs	r5, [r2, #-518]	; 0xfffffdfa
    628c:	50000000 	andpl	r0, r0, r0
    6290:	0002a117 	andeq	sl, r2, r7, lsl r1
    6294:	02530600 	subseq	r0, r3, #0, 12
    6298:	0000011d 	andeq	r0, r0, sp, lsl r1
    629c:	11521754 	cmpne	r2, r4, asr r7
    62a0:	76060000 	strvc	r0, [r6], -r0
    62a4:	00080c02 	andeq	r0, r8, r2, lsl #24
    62a8:	7d185800 	ldcvc	8, cr5, [r8, #-0]
    62ac:	06000005 	streq	r0, [r0], -r5
    62b0:	02aa027a 	adceq	r0, sl, #-1610612729	; 0xa0000007
    62b4:	01480000 	mrseq	r0, (UNDEF: 72)
    62b8:	00042d18 	andeq	r2, r4, r8, lsl sp
    62bc:	027b0600 	rsbseq	r0, fp, #0, 12
    62c0:	0000026c 	andeq	r0, r0, ip, ror #4
    62c4:	f518014c 			; <UNDEFINED> instruction: 0xf518014c
    62c8:	06000008 	streq	r0, [r0], -r8
    62cc:	0860027f 	stmdaeq	r0!, {r0, r1, r2, r3, r4, r5, r6, r9}^
    62d0:	02dc0000 	sbcseq	r0, ip, #0
    62d4:	00022918 	andeq	r2, r2, r8, lsl r9
    62d8:	02840600 	addeq	r0, r4, #0, 12
    62dc:	00000611 	andeq	r0, r0, r1, lsl r6
    62e0:	0e1802e0 	cdpeq	2, 1, cr0, cr8, cr0, {7}
    62e4:	06000002 	streq	r0, [r0], -r2
    62e8:	086c0285 	stmdaeq	ip!, {r0, r2, r7, r9}^
    62ec:	02ec0000 	rsceq	r0, ip, #0
    62f0:	1c040d00 	stcne	13, cr0, [r4], {-0}
    62f4:	14000004 	strne	r0, [r0], #-4
    62f8:	00000025 	andeq	r0, r0, r5, lsr #32
    62fc:	0000059b 	muleq	r0, fp, r5
    6300:	00043a15 	andeq	r3, r4, r5, lsl sl
    6304:	011b1500 	tsteq	fp, r0, lsl #10
    6308:	9b150000 	blls	546310 <__bss_end__+0x53c320>
    630c:	15000005 	strne	r0, [r0, #-5]
    6310:	00000025 	andeq	r0, r0, r5, lsr #32
    6314:	2a040d00 	bcs	10971c <__bss_end__+0xff72c>
    6318:	0d000001 	stceq	0, cr0, [r0, #-4]
    631c:	00057d04 	andeq	r7, r5, r4, lsl #26
    6320:	00971400 	addseq	r1, r7, r0, lsl #8
    6324:	05c50000 	strbeq	r0, [r5]
    6328:	3a150000 	bcc	546330 <__bss_end__+0x53c340>
    632c:	15000004 	strne	r0, [r0, #-4]
    6330:	0000011b 	andeq	r0, r0, fp, lsl r1
    6334:	00009715 	andeq	r9, r0, r5, lsl r7
    6338:	00251500 	eoreq	r1, r5, r0, lsl #10
    633c:	0d000000 	stceq	0, cr0, [r0, #-0]
    6340:	0005a704 	andeq	sl, r5, r4, lsl #14
    6344:	00251400 	eoreq	r1, r5, r0, lsl #8
    6348:	05df0000 	ldrbeq	r0, [pc]	; 6350 <_start-0x1cb0>
    634c:	3a150000 	bcc	546354 <__bss_end__+0x53c364>
    6350:	15000004 	strne	r0, [r0, #-4]
    6354:	0000011b 	andeq	r0, r0, fp, lsl r1
    6358:	cb040d00 	blgt	109760 <__bss_end__+0xff770>
    635c:	08000005 	stmdaeq	r0, {r0, r2}
    6360:	0000005a 	andeq	r0, r0, sl, asr r0
    6364:	000005f5 	strdeq	r0, [r0], -r5
    6368:	0000dd09 	andeq	sp, r0, r9, lsl #26
    636c:	08000200 	stmdaeq	r0, {r9}
    6370:	0000005a 	andeq	r0, r0, sl, asr r0
    6374:	00000605 	andeq	r0, r0, r5, lsl #12
    6378:	0000dd09 	andeq	sp, r0, r9, lsl #26
    637c:	05000000 	streq	r0, [r0, #-0]
    6380:	00000699 	muleq	r0, r9, r6
    6384:	f2011d06 	vadd.f32	d1, d1, d6
    6388:	19000002 	stmdbne	r0, {r1}
    638c:	000008d4 	ldrdeq	r0, [r0], -r4
    6390:	0121060c 			; <UNDEFINED> instruction: 0x0121060c
    6394:	00000646 	andeq	r0, r0, r6, asr #12
    6398:	0006d117 	andeq	sp, r6, r7, lsl r1
    639c:	01230600 			; <UNDEFINED> instruction: 0x01230600
    63a0:	00000646 	andeq	r0, r0, r6, asr #12
    63a4:	03fd1700 	mvnseq	r1, #0, 14
    63a8:	24060000 	strcs	r0, [r6], #-0
    63ac:	00002501 	andeq	r2, r0, r1, lsl #10
    63b0:	93170400 	tstls	r7, #0, 8
    63b4:	06000006 	streq	r0, [r0], -r6
    63b8:	064c0125 	strbeq	r0, [ip], -r5, lsr #2
    63bc:	00080000 	andeq	r0, r8, r0
    63c0:	0611040d 	ldreq	r0, [r1], -sp, lsl #8
    63c4:	040d0000 	streq	r0, [sp], #-0
    63c8:	00000605 	andeq	r0, r0, r5, lsl #12
    63cc:	0000c919 	andeq	ip, r0, r9, lsl r9
    63d0:	3d060e00 	stccc	14, cr0, [r6, #-0]
    63d4:	00068701 	andeq	r8, r6, r1, lsl #14
    63d8:	07361700 	ldreq	r1, [r6, -r0, lsl #14]!
    63dc:	3e060000 	cdpcc	0, 0, cr0, cr6, cr0, {0}
    63e0:	00068701 	andeq	r8, r6, r1, lsl #14
    63e4:	d9170000 	ldmdble	r7, {}	; <UNPREDICTABLE>
    63e8:	06000007 	streq	r0, [r0], -r7
    63ec:	0687013f 			; <UNDEFINED> instruction: 0x0687013f
    63f0:	17060000 	strne	r0, [r6, -r0]
    63f4:	00000818 	andeq	r0, r0, r8, lsl r8
    63f8:	61014006 	tstvs	r1, r6
    63fc:	0c000000 	stceq	0, cr0, [r0], {-0}
    6400:	00610800 	rsbeq	r0, r1, r0, lsl #16
    6404:	06970000 	ldreq	r0, [r7], r0
    6408:	dd090000 	stcle	0, cr0, [r9, #-0]
    640c:	02000000 	andeq	r0, r0, #0
    6410:	06d01a00 	ldrbeq	r1, [r0], r0, lsl #20
    6414:	07980257 			; <UNDEFINED> instruction: 0x07980257
    6418:	9d170000 	ldcls	0, cr0, [r7, #-0]
    641c:	06000008 	streq	r0, [r0], -r8
    6420:	002c0259 	eoreq	r0, ip, r9, asr r2
    6424:	17000000 	strne	r0, [r0, -r0]
    6428:	000007df 	ldrdeq	r0, [r0], -pc	; <UNPREDICTABLE>
    642c:	1d025a06 	vstrne	s10, [r2, #-24]	; 0xffffffe8
    6430:	04000001 	streq	r0, [r0], #-1
    6434:	00044217 	andeq	r4, r4, r7, lsl r2
    6438:	025b0600 	subseq	r0, fp, #0, 12
    643c:	00000798 	muleq	r0, r8, r7
    6440:	095e1708 	ldmdbeq	lr, {r3, r8, r9, sl, ip}^
    6444:	5c060000 	stcpl	0, cr0, [r6], {-0}
    6448:	0001a302 	andeq	sl, r1, r2, lsl #6
    644c:	35172400 	ldrcc	r2, [r7, #-1024]	; 0xfffffc00
    6450:	06000003 	streq	r0, [r0], -r3
    6454:	0025025d 	eoreq	r0, r5, sp, asr r2
    6458:	17480000 	strbne	r0, [r8, -r0]
    645c:	000006cc 	andeq	r0, r0, ip, asr #13
    6460:	7a025e06 	bvc	9dc80 <__bss_end__+0x93c90>
    6464:	50000000 	andpl	r0, r0, r0
    6468:	00097417 	andeq	r7, r9, r7, lsl r4
    646c:	025f0600 	subseq	r0, pc, #0, 12
    6470:	00000652 	andeq	r0, r0, r2, asr r6
    6474:	06ed1758 	usateq	r1, #13, r8, asr #14
    6478:	60060000 	andvs	r0, r6, r0
    647c:	00010502 	andeq	r0, r1, r2, lsl #10
    6480:	82176800 	andshi	r6, r7, #0, 16
    6484:	06000009 	streq	r0, [r0], -r9
    6488:	01050261 	tsteq	r5, r1, ror #4
    648c:	17700000 	ldrbne	r0, [r0, -r0]!
    6490:	000001ac 	andeq	r0, r0, ip, lsr #3
    6494:	05026206 	streq	r6, [r2, #-518]	; 0xfffffdfa
    6498:	78000001 	stmdavc	r0, {r0}
    649c:	0008eb17 	andeq	lr, r8, r7, lsl fp
    64a0:	02630600 	rsbeq	r0, r3, #0, 12
    64a4:	000007a8 	andeq	r0, r0, r8, lsr #15
    64a8:	04361780 	ldrteq	r1, [r6], #-1920	; 0xfffff880
    64ac:	64060000 	strvs	r0, [r6], #-0
    64b0:	0007b802 	andeq	fp, r7, r2, lsl #16
    64b4:	2e178800 	cdpcs	8, 1, cr8, cr7, cr0, {0}
    64b8:	06000008 	streq	r0, [r0], -r8
    64bc:	00250265 	eoreq	r0, r5, r5, ror #4
    64c0:	17a00000 	strne	r0, [r0, r0]!
    64c4:	000002da 	ldrdeq	r0, [r0], -sl
    64c8:	05026606 	streq	r6, [r2, #-1542]	; 0xfffff9fa
    64cc:	a4000001 	strge	r0, [r0], #-1
    64d0:	00018817 	andeq	r8, r1, r7, lsl r8
    64d4:	02670600 	rsbeq	r0, r7, #0, 12
    64d8:	00000105 	andeq	r0, r0, r5, lsl #2
    64dc:	02c017ac 	sbceq	r1, r0, #172, 14	; 0x2b00000
    64e0:	68060000 	stmdavs	r6, {}	; <UNPREDICTABLE>
    64e4:	00010502 	andeq	r0, r1, r2, lsl #10
    64e8:	2017b400 	andscs	fp, r7, r0, lsl #8
    64ec:	06000001 	streq	r0, [r0], -r1
    64f0:	01050269 	tsteq	r5, r9, ror #4
    64f4:	17bc0000 	ldrne	r0, [ip, r0]!
    64f8:	0000012f 	andeq	r0, r0, pc, lsr #2
    64fc:	05026a06 	streq	r6, [r2, #-2566]	; 0xfffff5fa
    6500:	c4000001 	strgt	r0, [r0], #-1
    6504:	00066217 	andeq	r6, r6, r7, lsl r2
    6508:	026b0600 	rsbeq	r0, fp, #0, 12
    650c:	00000025 	andeq	r0, r0, r5, lsr #32
    6510:	230800cc 	movwcs	r0, #32972	; 0x80cc
    6514:	a8000001 	stmdage	r0, {r0}
    6518:	09000007 	stmdbeq	r0, {r0, r1, r2}
    651c:	000000dd 	ldrdeq	r0, [r0], -sp
    6520:	23080019 	movwcs	r0, #32793	; 0x8019
    6524:	b8000001 	stmdalt	r0, {r0}
    6528:	09000007 	stmdbeq	r0, {r0, r1, r2}
    652c:	000000dd 	ldrdeq	r0, [r0], -sp
    6530:	23080007 	movwcs	r0, #32775	; 0x8007
    6534:	c8000001 	stmdagt	r0, {r0}
    6538:	09000007 	stmdbeq	r0, {r0, r1, r2}
    653c:	000000dd 	ldrdeq	r0, [r0], -sp
    6540:	f01a0017 			; <UNDEFINED> instruction: 0xf01a0017
    6544:	ec027006 	stc	0, cr7, [r2], {6}
    6548:	17000007 	strne	r0, [r0, -r7]
    654c:	00000552 	andeq	r0, r0, r2, asr r5
    6550:	ec027306 	stc	3, cr7, [r2], {6}
    6554:	00000007 	andeq	r0, r0, r7
    6558:	0004f917 	andeq	pc, r4, r7, lsl r9	; <UNPREDICTABLE>
    655c:	02740600 	rsbseq	r0, r4, #0, 12
    6560:	000007fc 	strdeq	r0, [r0], -ip
    6564:	ec080078 	stc	0, cr0, [r8], {120}	; 0x78
    6568:	fc000002 	stc2	0, cr0, [r0], {2}
    656c:	09000007 	stmdbeq	r0, {r0, r1, r2}
    6570:	000000dd 	ldrdeq	r0, [r0], -sp
    6574:	2c08001d 	stccs	0, cr0, [r8], {29}
    6578:	0c000000 	stceq	0, cr0, [r0], {-0}
    657c:	09000008 	stmdbeq	r0, {r3}
    6580:	000000dd 	ldrdeq	r0, [r0], -sp
    6584:	f01b001d 			; <UNDEFINED> instruction: 0xf01b001d
    6588:	2e025506 	cfsh32cs	mvfx5, mvfx2, #6
    658c:	1c000008 	stcne	0, cr0, [r0], {8}
    6590:	00000726 	andeq	r0, r0, r6, lsr #14
    6594:	97026c06 	strls	r6, [r2, -r6, lsl #24]
    6598:	1c000006 	stcne	0, cr0, [r0], {6}
    659c:	0000092a 	andeq	r0, r0, sl, lsr #18
    65a0:	c8027506 	stmdagt	r2, {r1, r2, r8, sl, ip, sp, lr}
    65a4:	00000007 	andeq	r0, r0, r7
    65a8:	00012308 	andeq	r2, r1, r8, lsl #6
    65ac:	00083e00 	andeq	r3, r8, r0, lsl #28
    65b0:	00dd0900 	sbcseq	r0, sp, r0, lsl #18
    65b4:	00180000 	andseq	r0, r8, r0
    65b8:	0008491d 	andeq	r4, r8, sp, lsl r9
    65bc:	043a1500 	ldrteq	r1, [sl], #-1280	; 0xfffffb00
    65c0:	0d000000 	stceq	0, cr0, [r0, #-0]
    65c4:	00083e04 	andeq	r3, r8, r4, lsl #28
    65c8:	8d040d00 	stchi	13, cr0, [r4, #-0]
    65cc:	1d000001 	stcne	0, cr0, [r0, #-4]
    65d0:	00000860 	andeq	r0, r0, r0, ror #16
    65d4:	00002515 	andeq	r2, r0, r5, lsl r5
    65d8:	040d0000 	streq	r0, [sp], #-0
    65dc:	00000866 	andeq	r0, r0, r6, ror #16
    65e0:	0855040d 	ldmdaeq	r5, {r0, r2, r3, sl}^
    65e4:	05080000 	streq	r0, [r8, #-0]
    65e8:	7c000006 	stcvc	0, cr0, [r0], {6}
    65ec:	09000008 	stmdbeq	r0, {r3}
    65f0:	000000dd 	ldrdeq	r0, [r0], -sp
    65f4:	631e0002 	tstvs	lr, #2
    65f8:	06000008 	streq	r0, [r0], -r8
    65fc:	043a02fd 	ldrteq	r0, [sl], #-765	; 0xfffffd03
    6600:	5c1e0000 	ldcpl	0, cr0, [lr], {-0}
    6604:	06000008 	streq	r0, [r0], -r8
    6608:	044002fe 	strbeq	r0, [r0], #-766	; 0xfffffd02
    660c:	25140000 	ldrcs	r0, [r4, #-0]
    6610:	a3000000 	movwge	r0, #0
    6614:	15000008 	strne	r0, [r0, #-8]
    6618:	00000025 	andeq	r0, r0, r5, lsr #32
    661c:	03641f00 	cmneq	r4, #0, 30
    6620:	1d070000 	stcne	0, cr0, [r7, #-0]
    6624:	000008ae 	andeq	r0, r0, lr, lsr #17
    6628:	0894040d 	ldmeq	r4, {r0, r2, r3, sl}
    662c:	25140000 	ldrcs	r0, [r4, #-0]
    6630:	c3000000 	movwgt	r0, #0
    6634:	15000008 	strne	r0, [r0, #-8]
    6638:	0000059b 	muleq	r0, fp, r5
    663c:	0d2b1f00 	stceq	15, cr1, [fp, #-0]
    6640:	22070000 	andcs	r0, r7, #0
    6644:	000008ce 	andeq	r0, r0, lr, asr #17
    6648:	08b4040d 	ldmeq	r4!, {r0, r2, r3, sl}
    664c:	0c0a0000 	stceq	0, cr0, [sl], {-0}
    6650:	090b0e08 	stmdbeq	fp, {r3, r9, sl, fp}
    6654:	74100000 	ldrvc	r0, [r0], #-0
    6658:	0f080078 	svceq	0x00080078
    665c:	0000004f 	andeq	r0, r0, pc, asr #32
    6660:	78721000 	ldmdavc	r2!, {ip}^
    6664:	4f0f0800 	svcmi	0x000f0800
    6668:	01000000 	mrseq	r0, (UNDEF: 0)
    666c:	000e270b 	andeq	r2, lr, fp, lsl #14
    6670:	68100800 	ldmdavs	r0, {fp}
    6674:	04000000 	streq	r0, [r0], #-0
    6678:	000e5f0b 	andeq	r5, lr, fp, lsl #30
    667c:	68110800 	ldmdavs	r1, {fp}
    6680:	08000000 	stmdaeq	r0, {}	; <UNPREDICTABLE>
    6684:	0dea0400 	cfstrdeq	mvd0, [sl]
    6688:	12080000 	andne	r0, r8, #0
    668c:	000008d4 	ldrdeq	r0, [r0], -r4
    6690:	000e5a20 	andeq	r5, lr, r0, lsr #20
    6694:	2c130900 			; <UNDEFINED> instruction: 0x2c130900
    6698:	20000000 	andcs	r0, r0, r0
    669c:	00000e02 	andeq	r0, r0, r2, lsl #28
    66a0:	002c1409 	eoreq	r1, ip, r9, lsl #8
    66a4:	01210000 			; <UNDEFINED> instruction: 0x01210000
    66a8:	0000005a 	andeq	r0, r0, sl, asr r0
    66ac:	094b100a 	stmdbeq	fp, {r1, r3, ip}^
    66b0:	aa220000 	bge	8866b8 <__bss_end__+0x87c6c8>
    66b4:	0100000d 	tsteq	r0, sp
    66b8:	000e4d22 	andeq	r4, lr, r2, lsr #26
    66bc:	73220200 			; <UNDEFINED> instruction: 0x73220200
    66c0:	0300000d 	movweq	r0, #13
    66c4:	0d810400 	cfstrseq	mvf0, [r1]
    66c8:	100a0000 	andne	r0, sl, r0
    66cc:	0000092c 	andeq	r0, r0, ip, lsr #18
    66d0:	140a140a 	strne	r1, [sl], #-1034	; 0xfffffbf6
    66d4:	00000983 	andeq	r0, r0, r3, lsl #19
    66d8:	000df40b 	andeq	pc, sp, fp, lsl #8
    66dc:	2c150a00 			; <UNDEFINED> instruction: 0x2c150a00
    66e0:	00000000 	andeq	r0, r0, r0
    66e4:	000db70b 	andeq	fp, sp, fp, lsl #14
    66e8:	4b180a00 	blmi	608ef0 <__bss_end__+0x5fef00>
    66ec:	04000009 	streq	r0, [r0], #-9
    66f0:	000d940b 	andeq	r9, sp, fp, lsl #8
    66f4:	0b1b0a00 	bleq	6c8efc <__bss_end__+0x6bef0c>
    66f8:	08000009 	stmdaeq	r0, {r0, r3}
    66fc:	0d9c0400 	cfldrseq	mvf0, [ip]
    6700:	200a0000 	andcs	r0, sl, r0
    6704:	00000956 	andeq	r0, r0, r6, asr r9
    6708:	000dc323 	andeq	ip, sp, r3, lsr #6
    670c:	0b050100 	bleq	146b14 <__bss_end__+0x13cb24>
    6710:	24000009 	strcs	r0, [r0], #-9
    6714:	00000d8c 	andeq	r0, r0, ip, lsl #27
    6718:	91980b01 	orrsls	r0, r8, r1, lsl #22
    671c:	00700000 	rsbseq	r0, r0, r0
    6720:	9c010000 	stcls	0, cr0, [r1], {-0}
    6724:	00000a22 	andeq	r0, r0, r2, lsr #20
    6728:	000dd01f 	andeq	sp, sp, pc, lsl r0
    672c:	250c0100 	strcs	r0, [ip, #-256]	; 0xffffff00
    6730:	1f000000 	svcne	0x00000000
    6734:	00000dde 	ldrdeq	r0, [r0], -lr
    6738:	00250c01 	eoreq	r0, r5, r1, lsl #24
    673c:	07250000 	streq	r0, [r5, -r0]!
    6740:	01000001 	tsteq	r0, r1
    6744:	7362260d 	cmnvc	r2, #13631488	; 0xd00000
    6748:	0f010073 	svceq	0x00010073
    674c:	00000a22 	andeq	r0, r0, r2, lsr #20
    6750:	00000eb4 			; <UNDEFINED> instruction: 0x00000eb4
    6754:	000dfa23 	andeq	pc, sp, r3, lsr #20
    6758:	22100100 	andscs	r0, r0, #0, 2
    675c:	2600000a 	strcs	r0, [r0], -sl
    6760:	01006263 	tsteq	r0, r3, ror #4
    6764:	000a2817 	andeq	r2, sl, r7, lsl r8
    6768:	000ed400 	andeq	sp, lr, r0, lsl #8
    676c:	91c02700 	bicls	r2, r0, r0, lsl #14
    6770:	0a530000 	beq	14c6778 <__bss_end__+0x14bc788>
    6774:	d8270000 	stmdale	r7!, {}	; <UNPREDICTABLE>
    6778:	5e000091 	mcrpl	0, 0, r0, cr0, cr1, {4}
    677c:	2700000a 	strcs	r0, [r0, -sl]
    6780:	000091dc 	ldrdeq	r9, [r0], -ip
    6784:	00000a69 	andeq	r0, r0, r9, ror #20
    6788:	0091f028 	addseq	pc, r1, r8, lsr #32
    678c:	000a7400 	andeq	r7, sl, r0, lsl #8
    6790:	50012900 	andpl	r2, r1, r0, lsl #18
    6794:	9bd40305 	blls	ff5073b0 <__bss_end__+0xff4fd3c0>
    6798:	00000000 	andeq	r0, r0, r0
    679c:	0025040d 	eoreq	r0, r5, sp, lsl #8
    67a0:	040d0000 	streq	r0, [sp], #-0
    67a4:	00000983 	andeq	r0, r0, r3, lsl #19
    67a8:	000e082a 	andeq	r0, lr, sl, lsr #16
    67ac:	25060100 	strcs	r0, [r6, #-256]	; 0xffffff00
    67b0:	94000000 	strls	r0, [r0], #-0
    67b4:	04000091 	streq	r0, [r0], #-145	; 0xffffff6f
    67b8:	01000000 	mrseq	r0, (UNDEF: 0)
    67bc:	000a539c 	muleq	sl, ip, r3
    67c0:	00632b00 	rsbeq	r2, r3, r0, lsl #22
    67c4:	00250601 	eoreq	r0, r5, r1, lsl #12
    67c8:	50010000 	andpl	r0, r1, r0
    67cc:	0e2c2c00 	cdpeq	12, 2, cr2, cr12, cr0, {0}
    67d0:	0e2c0000 	cdpeq	0, 2, cr0, cr12, cr0, {0}
    67d4:	2a0a0000 	bcs	2867dc <__bss_end__+0x27c7ec>
    67d8:	0001072c 	andeq	r0, r1, ip, lsr #14
    67dc:	00010700 	andeq	r0, r1, r0, lsl #14
    67e0:	2cd00700 	ldclcs	7, cr0, [r0], {0}
    67e4:	00000e1c 	andeq	r0, r0, ip, lsl lr
    67e8:	00000e1c 	andeq	r0, r0, ip, lsl lr
    67ec:	212c6207 			; <UNDEFINED> instruction: 0x212c6207
    67f0:	2100000c 	tstcs	r0, ip
    67f4:	0700000c 	streq	r0, [r0, -ip]
    67f8:	09e60029 	stmibeq	r6!, {r0, r3, r5}^
    67fc:	00040000 	andeq	r0, r4, r0
    6800:	000011ee 	andeq	r1, r0, lr, ror #3
    6804:	0c370104 	ldfeqs	f0, [r7], #-16
    6808:	ad0c0000 	stcge	0, cr0, [ip, #-0]
    680c:	9e00000e 	cdpls	0, 0, cr0, cr0, cr14, {0}
    6810:	3800000c 	stmdacc	r0, {r2, r3}
    6814:	00000000 	andeq	r0, r0, r0
    6818:	da000000 	ble	6820 <_start-0x17e0>
    681c:	02000009 	andeq	r0, r0, #9
    6820:	6e690504 	cdpvs	5, 6, cr0, cr9, cr4, {0}
    6824:	25030074 	strcs	r0, [r3, #-116]	; 0xffffff8c
    6828:	04000000 	streq	r0, [r0], #-0
    682c:	014a0704 	cmpeq	sl, r4, lsl #14
    6830:	01040000 	mrseq	r0, (UNDEF: 4)
    6834:	00062006 	andeq	r2, r6, r6
    6838:	05020400 	streq	r0, [r2, #-1024]	; 0xfffffc00
    683c:	0000066b 	andeq	r0, r0, fp, ror #12
    6840:	c8050404 	stmdagt	r5, {r2, sl}
    6844:	04000001 	streq	r0, [r0], #-1
    6848:	01c30508 	biceq	r0, r3, r8, lsl #10
    684c:	01040000 	mrseq	r0, (UNDEF: 4)
    6850:	00061e08 	andeq	r1, r6, r8, lsl #28
    6854:	07020400 	streq	r0, [r2, -r0, lsl #8]
    6858:	0000041a 	andeq	r0, r0, sl, lsl r4
    685c:	45070404 	strmi	r0, [r7, #-1028]	; 0xfffffbfc
    6860:	04000001 	streq	r0, [r0], #-1
    6864:	01400708 	cmpeq	r0, r8, lsl #14
    6868:	e2050000 	and	r0, r5, #0
    686c:	02000005 	andeq	r0, r0, #5
    6870:	00002507 	andeq	r2, r0, r7, lsl #10
    6874:	059e0500 	ldreq	r0, [lr, #1280]	; 0x500
    6878:	2c030000 	stccs	0, cr0, [r3], {-0}
    687c:	00000046 	andeq	r0, r0, r6, asr #32
    6880:	00076905 	andeq	r6, r7, r5, lsl #18
    6884:	46720300 	ldrbtmi	r0, [r2], -r0, lsl #6
    6888:	06000000 	streq	r0, [r0], -r0
    688c:	0000047e 	andeq	r0, r0, lr, ror r4
    6890:	31016504 	tstcc	r1, r4, lsl #10
    6894:	07000000 	streq	r0, [r0, -r0]
    6898:	bca60304 	stclt	3, cr0, [r6], #16
    689c:	08000000 	stmdaeq	r0, {}	; <UNPREDICTABLE>
    68a0:	0000046b 	andeq	r0, r0, fp, ror #8
    68a4:	0091a803 	addseq	sl, r1, r3, lsl #16
    68a8:	7e080000 	cdpvc	0, 0, cr0, cr8, cr0, {0}
    68ac:	03000003 	movweq	r0, #3
    68b0:	0000bca9 	andeq	fp, r0, r9, lsr #25
    68b4:	54090000 	strpl	r0, [r9], #-0
    68b8:	cc000000 	stcgt	0, cr0, [r0], {-0}
    68bc:	0a000000 	beq	68c4 <_start-0x173c>
    68c0:	000000cc 	andeq	r0, r0, ip, asr #1
    68c4:	04040003 	streq	r0, [r4], #-3
    68c8:	00050e07 	andeq	r0, r5, r7, lsl #28
    68cc:	03080b00 	movweq	r0, #35584	; 0x8b00
    68d0:	0000f4a3 	andeq	pc, r0, r3, lsr #9
    68d4:	07450c00 	strbeq	r0, [r5, -r0, lsl #24]
    68d8:	a5030000 	strge	r0, [r3, #-0]
    68dc:	00000025 	andeq	r0, r0, r5, lsr #32
    68e0:	07ec0c00 	strbeq	r0, [ip, r0, lsl #24]!
    68e4:	aa030000 	bge	c68ec <__bss_end__+0xbc8fc>
    68e8:	0000009d 	muleq	r0, sp, r0
    68ec:	a0050004 	andge	r0, r5, r4
    68f0:	03000006 	movweq	r0, #6
    68f4:	0000d3ab 	andeq	sp, r0, fp, lsr #7
    68f8:	031c0500 	tsteq	ip, #0, 10
    68fc:	af030000 	svcge	0x00030000
    6900:	00000070 	andeq	r0, r0, r0, ror r0
    6904:	040e040d 	streq	r0, [lr], #-1037	; 0xfffffbf3
    6908:	00000112 	andeq	r0, r0, r2, lsl r1
    690c:	27080104 	strcs	r0, [r8, -r4, lsl #2]
    6910:	03000006 	movweq	r0, #6
    6914:	00000112 	andeq	r0, r0, r2, lsl r1
    6918:	00082605 	andeq	r2, r8, r5, lsl #12
    691c:	62160500 	andsvs	r0, r6, #0, 10
    6920:	0f000000 	svceq	0x00000000
    6924:	0000032d 	andeq	r0, r0, sp, lsr #6
    6928:	7c2d0518 	cfstr32vc	mvfx0, [sp], #-96	; 0xffffffa0
    692c:	0c000001 	stceq	0, cr0, [r0], {1}
    6930:	000006d1 	ldrdeq	r0, [r0], -r1
    6934:	017c2f05 	cmneq	ip, r5, lsl #30
    6938:	10000000 	andne	r0, r0, r0
    693c:	05006b5f 	streq	r6, [r0, #-2911]	; 0xfffff4a1
    6940:	00002530 	andeq	r2, r0, r0, lsr r5
    6944:	1e0c0400 	cfcpysne	mvf0, mvf12
    6948:	05000007 	streq	r0, [r0, #-7]
    694c:	00002530 	andeq	r2, r0, r0, lsr r5
    6950:	160c0800 	strne	r0, [ip], -r0, lsl #16
    6954:	05000003 	streq	r0, [r0, #-3]
    6958:	00002530 	andeq	r2, r0, r0, lsr r5
    695c:	c50c0c00 	strgt	r0, [ip, #-3072]	; 0xfffff400
    6960:	05000008 	streq	r0, [r0, #-8]
    6964:	00002530 	andeq	r2, r0, r0, lsr r5
    6968:	5f101000 	svcpl	0x00101000
    696c:	31050078 	tstcc	r5, r8, ror r0
    6970:	00000182 	andeq	r0, r0, r2, lsl #3
    6974:	040e0014 	streq	r0, [lr], #-20	; 0xffffffec
    6978:	00000129 	andeq	r0, r0, r9, lsr #2
    697c:	00011e09 	andeq	r1, r1, r9, lsl #28
    6980:	00019200 	andeq	r9, r1, r0, lsl #4
    6984:	00cc0a00 	sbceq	r0, ip, r0, lsl #20
    6988:	00000000 	andeq	r0, r0, r0
    698c:	0003700f 	andeq	r7, r3, pc
    6990:	35052400 	strcc	r2, [r5, #-1024]	; 0xfffffc00
    6994:	0000020b 	andeq	r0, r0, fp, lsl #4
    6998:	0001ba0c 	andeq	fp, r1, ip, lsl #20
    699c:	25370500 	ldrcs	r0, [r7, #-1280]!	; 0xfffffb00
    69a0:	00000000 	andeq	r0, r0, r0
    69a4:	0007910c 	andeq	r9, r7, ip, lsl #2
    69a8:	25380500 	ldrcs	r0, [r8, #-1280]!	; 0xfffffb00
    69ac:	04000000 	streq	r0, [r0], #-0
    69b0:	0002040c 	andeq	r0, r2, ip, lsl #8
    69b4:	25390500 	ldrcs	r0, [r9, #-1280]!	; 0xfffffb00
    69b8:	08000000 	stmdaeq	r0, {}	; <UNPREDICTABLE>
    69bc:	0009d90c 	andeq	sp, r9, ip, lsl #18
    69c0:	253a0500 	ldrcs	r0, [sl, #-1280]!	; 0xfffffb00
    69c4:	0c000000 	stceq	0, cr0, [r0], {-0}
    69c8:	0005630c 	andeq	r6, r5, ip, lsl #6
    69cc:	253b0500 	ldrcs	r0, [fp, #-1280]!	; 0xfffffb00
    69d0:	10000000 	andne	r0, r0, r0
    69d4:	0004d10c 	andeq	sp, r4, ip, lsl #2
    69d8:	253c0500 	ldrcs	r0, [ip, #-1280]!	; 0xfffffb00
    69dc:	14000000 	strne	r0, [r0], #-0
    69e0:	0008ca0c 	andeq	ip, r8, ip, lsl #20
    69e4:	253d0500 	ldrcs	r0, [sp, #-1280]!	; 0xfffffb00
    69e8:	18000000 	stmdane	r0, {}	; <UNPREDICTABLE>
    69ec:	0006750c 	andeq	r7, r6, ip, lsl #10
    69f0:	253e0500 	ldrcs	r0, [lr, #-1280]!	; 0xfffffb00
    69f4:	1c000000 	stcne	0, cr0, [r0], {-0}
    69f8:	0009530c 	andeq	r5, r9, ip, lsl #6
    69fc:	253f0500 	ldrcs	r0, [pc, #-1280]!	; 6504 <_start-0x1afc>
    6a00:	20000000 	andcs	r0, r0, r0
    6a04:	02131100 	andseq	r1, r3, #0, 2
    6a08:	01080000 	mrseq	r0, (UNDEF: 8)
    6a0c:	024b4805 	subeq	r4, fp, #327680	; 0x50000
    6a10:	e80c0000 	stmda	ip, {}	; <UNPREDICTABLE>
    6a14:	05000002 	streq	r0, [r0, #-2]
    6a18:	00024b49 	andeq	r4, r2, r9, asr #22
    6a1c:	000c0000 	andeq	r0, ip, r0
    6a20:	05000000 	streq	r0, [r0, #-0]
    6a24:	00024b4a 	andeq	r4, r2, sl, asr #22
    6a28:	b3128000 	tstlt	r2, #0
    6a2c:	05000007 	streq	r0, [r0, #-7]
    6a30:	00011e4c 	andeq	r1, r1, ip, asr #28
    6a34:	12010000 	andne	r0, r1, #0
    6a38:	0000025d 	andeq	r0, r0, sp, asr r2
    6a3c:	011e4f05 	tsteq	lr, r5, lsl #30
    6a40:	01040000 	mrseq	r0, (UNDEF: 4)
    6a44:	010a0900 	tsteq	sl, r0, lsl #18
    6a48:	025b0000 	subseq	r0, fp, #0
    6a4c:	cc0a0000 	stcgt	0, cr0, [sl], {-0}
    6a50:	1f000000 	svcne	0x00000000
    6a54:	057d1100 	ldrbeq	r1, [sp, #-256]!	; 0xffffff00
    6a58:	01900000 	orrseq	r0, r0, r0
    6a5c:	02995b05 	addseq	r5, r9, #5120	; 0x1400
    6a60:	d10c0000 	mrsle	r0, (UNDEF: 12)
    6a64:	05000006 	streq	r0, [r0, #-6]
    6a68:	0002995c 	andeq	r9, r2, ip, asr r9
    6a6c:	ff0c0000 			; <UNDEFINED> instruction: 0xff0c0000
    6a70:	05000006 	streq	r0, [r0, #-6]
    6a74:	0000255d 	andeq	r2, r0, sp, asr r5
    6a78:	110c0400 	tstne	ip, r0, lsl #8
    6a7c:	05000003 	streq	r0, [r0, #-3]
    6a80:	00029f5f 	andeq	r9, r2, pc, asr pc
    6a84:	130c0800 	movwne	r0, #51200	; 0xc800
    6a88:	05000002 	streq	r0, [r0, #-2]
    6a8c:	00020b60 	andeq	r0, r2, r0, ror #22
    6a90:	0e008800 	cdpeq	8, 0, cr8, cr0, cr0, {0}
    6a94:	00025b04 	andeq	r5, r2, r4, lsl #22
    6a98:	02af0900 	adceq	r0, pc, #0, 18
    6a9c:	02af0000 	adceq	r0, pc, #0
    6aa0:	cc0a0000 	stcgt	0, cr0, [sl], {-0}
    6aa4:	1f000000 	svcne	0x00000000
    6aa8:	b5040e00 	strlt	r0, [r4, #-3584]	; 0xfffff200
    6aac:	13000002 	movwne	r0, #2
    6ab0:	00067f0f 	andeq	r7, r6, pc, lsl #30
    6ab4:	73050800 	movwvc	r0, #22528	; 0x5800
    6ab8:	000002db 	ldrdeq	r0, [r0], -fp
    6abc:	0001fe0c 	andeq	pc, r1, ip, lsl #28
    6ac0:	db740500 	blle	1d07ec8 <__bss_end__+0x1cfded8>
    6ac4:	00000002 	andeq	r0, r0, r2
    6ac8:	0000a60c 	andeq	sl, r0, ip, lsl #12
    6acc:	25750500 	ldrbcs	r0, [r5, #-1280]!	; 0xfffffb00
    6ad0:	04000000 	streq	r0, [r0], #-0
    6ad4:	54040e00 	strpl	r0, [r4], #-3584	; 0xfffff200
    6ad8:	0f000000 	svceq	0x00000000
    6adc:	000006ab 	andeq	r0, r0, fp, lsr #13
    6ae0:	0bb30568 	bleq	fecc8088 <__bss_end__+0xfecbe098>
    6ae4:	10000004 	andne	r0, r0, r4
    6ae8:	0500705f 	streq	r7, [r0, #-95]	; 0xffffffa1
    6aec:	0002dbb4 			; <UNDEFINED> instruction: 0x0002dbb4
    6af0:	5f100000 	svcpl	0x00100000
    6af4:	b5050072 	strlt	r0, [r5, #-114]	; 0xffffff8e
    6af8:	00000025 	andeq	r0, r0, r5, lsr #32
    6afc:	775f1004 	ldrbvc	r1, [pc, -r4]
    6b00:	25b60500 	ldrcs	r0, [r6, #1280]!	; 0x500
    6b04:	08000000 	stmdaeq	r0, {}	; <UNPREDICTABLE>
    6b08:	0002560c 	andeq	r5, r2, ip, lsl #12
    6b0c:	3fb70500 	svccc	0x00b70500
    6b10:	0c000000 	stceq	0, cr0, [r0], {-0}
    6b14:	0003af0c 	andeq	sl, r3, ip, lsl #30
    6b18:	3fb80500 	svccc	0x00b80500
    6b1c:	0e000000 	cdpeq	0, 0, cr0, cr0, cr0, {0}
    6b20:	66625f10 	uqadd16vs	r5, r2, r0
    6b24:	b6b90500 	ldrtlt	r0, [r9], r0, lsl #10
    6b28:	10000002 	andne	r0, r0, r2
    6b2c:	0001600c 	andeq	r6, r1, ip
    6b30:	25ba0500 	ldrcs	r0, [sl, #1280]!	; 0x500
    6b34:	18000000 	stmdane	r0, {}	; <UNPREDICTABLE>
    6b38:	0002210c 	andeq	r2, r2, ip, lsl #2
    6b3c:	0ac10500 	beq	ff047f44 <__bss_end__+0xff03df54>
    6b40:	1c000001 	stcne	0, cr0, [r0], {1}
    6b44:	0008ad0c 	andeq	sl, r8, ip, lsl #26
    6b48:	66c30500 	strbvs	r0, [r3], r0, lsl #10
    6b4c:	20000005 	andcs	r0, r0, r5
    6b50:	0001760c 	andeq	r7, r1, ip, lsl #12
    6b54:	90c50500 	sbcls	r0, r5, r0, lsl #10
    6b58:	24000005 	strcs	r0, [r0], #-5
    6b5c:	0007560c 	andeq	r5, r7, ip, lsl #12
    6b60:	b4c80500 	strblt	r0, [r8], #1280	; 0x500
    6b64:	28000005 	stmdacs	r0, {r0, r2}
    6b68:	00096d0c 	andeq	r6, r9, ip, lsl #26
    6b6c:	cec90500 	cdpgt	5, 12, cr0, cr9, cr0, {0}
    6b70:	2c000005 	stccs	0, cr0, [r0], {5}
    6b74:	62755f10 	rsbsvs	r5, r5, #16, 30	; 0x40
    6b78:	b6cc0500 	strblt	r0, [ip], r0, lsl #10
    6b7c:	30000002 	andcc	r0, r0, r2
    6b80:	70755f10 	rsbsvc	r5, r5, r0, lsl pc
    6b84:	dbcd0500 	blle	ff347f8c <__bss_end__+0xff33df9c>
    6b88:	38000002 	stmdacc	r0, {r1}
    6b8c:	72755f10 	rsbsvc	r5, r5, #16, 30	; 0x40
    6b90:	25ce0500 	strbcs	r0, [lr, #1280]	; 0x500
    6b94:	3c000000 	stccc	0, cr0, [r0], {-0}
    6b98:	0001f00c 	andeq	pc, r1, ip
    6b9c:	d4d10500 	ldrble	r0, [r1], #1280	; 0x500
    6ba0:	40000005 	andmi	r0, r0, r5
    6ba4:	0009240c 	andeq	r2, r9, ip, lsl #8
    6ba8:	e4d20500 	ldrb	r0, [r2], #1280	; 0x500
    6bac:	43000005 	movwmi	r0, #5
    6bb0:	626c5f10 	rsbvs	r5, ip, #16, 30	; 0x40
    6bb4:	b6d50500 	ldrblt	r0, [r5], r0, lsl #10
    6bb8:	44000002 	strmi	r0, [r0], #-2
    6bbc:	0002730c 	andeq	r7, r2, ip, lsl #6
    6bc0:	25d80500 	ldrbcs	r0, [r8, #1280]	; 0x500
    6bc4:	4c000000 	stcmi	0, cr0, [r0], {-0}
    6bc8:	0002a90c 	andeq	sl, r2, ip, lsl #18
    6bcc:	7bd90500 	blvc	ff647fd4 <__bss_end__+0xff63dfe4>
    6bd0:	50000000 	andpl	r0, r0, r0
    6bd4:	00064c0c 	andeq	r4, r6, ip, lsl #24
    6bd8:	29dc0500 	ldmibcs	ip, {r8, sl}^
    6bdc:	54000004 	strpl	r0, [r0], #-4
    6be0:	0010900c 	andseq	r9, r0, ip
    6be4:	ffe00500 			; <UNDEFINED> instruction: 0xffe00500
    6be8:	58000000 	stmdapl	r0, {}	; <UNPREDICTABLE>
    6bec:	0006c30c 	andeq	ip, r6, ip, lsl #6
    6bf0:	f4e20500 	vld2.16	{d16[0],d17[0]}, [r2], r0
    6bf4:	5c000000 	stcpl	0, cr0, [r0], {-0}
    6bf8:	00049f0c 	andeq	r9, r4, ip, lsl #30
    6bfc:	25e30500 	strbcs	r0, [r3, #1280]!	; 0x500
    6c00:	64000000 	strvs	r0, [r0], #-0
    6c04:	00251400 	eoreq	r1, r5, r0, lsl #8
    6c08:	04290000 	strteq	r0, [r9], #-0
    6c0c:	29150000 	ldmdbcs	r5, {}	; <UNPREDICTABLE>
    6c10:	15000004 	strne	r0, [r0, #-4]
    6c14:	0000010a 	andeq	r0, r0, sl, lsl #2
    6c18:	00010c15 	andeq	r0, r1, r5, lsl ip
    6c1c:	00251500 	eoreq	r1, r5, r0, lsl #10
    6c20:	0e000000 	cdpeq	0, 0, cr0, cr0, cr0, {0}
    6c24:	00043404 	andeq	r3, r4, r4, lsl #8
    6c28:	04290300 	strteq	r0, [r9], #-768	; 0xfffffd00
    6c2c:	26160000 	ldrcs	r0, [r6], -r0
    6c30:	28000007 	stmdacs	r0, {r0, r1, r2}
    6c34:	02380504 	eorseq	r0, r8, #4, 10	; 0x1000000
    6c38:	00000566 	andeq	r0, r0, r6, ror #10
    6c3c:	00066417 	andeq	r6, r6, r7, lsl r4
    6c40:	023a0500 	eorseq	r0, sl, #0, 10
    6c44:	00000025 	andeq	r0, r0, r5, lsr #32
    6c48:	02651700 	rsbeq	r1, r5, #0, 14
    6c4c:	3f050000 	svccc	0x00050000
    6c50:	00063b02 	andeq	r3, r6, r2, lsl #22
    6c54:	94170400 	ldrls	r0, [r7], #-1024	; 0xfffffc00
    6c58:	05000003 	streq	r0, [r0, #-3]
    6c5c:	063b023f 			; <UNDEFINED> instruction: 0x063b023f
    6c60:	17080000 	strne	r0, [r8, -r0]
    6c64:	00000325 	andeq	r0, r0, r5, lsr #6
    6c68:	3b023f05 	blcc	96884 <__bss_end__+0x8c894>
    6c6c:	0c000006 	stceq	0, cr0, [r0], {6}
    6c70:	0006fa17 	andeq	pc, r6, r7, lsl sl	; <UNPREDICTABLE>
    6c74:	02410500 	subeq	r0, r1, #0, 10
    6c78:	00000025 	andeq	r0, r0, r5, lsr #32
    6c7c:	00e51710 	rsceq	r1, r5, r0, lsl r7
    6c80:	42050000 	andmi	r0, r5, #0
    6c84:	00081d02 	andeq	r1, r8, r2, lsl #26
    6c88:	6f171400 	svcvs	0x00171400
    6c8c:	05000008 	streq	r0, [r0, #-8]
    6c90:	00250244 	eoreq	r0, r5, r4, asr #4
    6c94:	17300000 	ldrne	r0, [r0, -r0]!
    6c98:	00000704 	andeq	r0, r0, r4, lsl #14
    6c9c:	8a024505 	bhi	980b8 <__bss_end__+0x8e0c8>
    6ca0:	34000005 	strcc	r0, [r0], #-5
    6ca4:	00059317 	andeq	r9, r5, r7, lsl r3
    6ca8:	02470500 	subeq	r0, r7, #0, 10
    6cac:	00000025 	andeq	r0, r0, r5, lsr #32
    6cb0:	07141738 			; <UNDEFINED> instruction: 0x07141738
    6cb4:	49050000 	stmdbmi	r5, {}	; <UNPREDICTABLE>
    6cb8:	00083802 	andeq	r3, r8, r2, lsl #16
    6cbc:	63173c00 	tstvs	r7, #0, 24
    6cc0:	05000004 	streq	r0, [r0, #-4]
    6cc4:	017c024c 	cmneq	ip, ip, asr #4
    6cc8:	17400000 	strbne	r0, [r0, -r0]
    6ccc:	0000035a 	andeq	r0, r0, sl, asr r3
    6cd0:	25024d05 	strcs	r4, [r2, #-3333]	; 0xfffff2fb
    6cd4:	44000000 	strmi	r0, [r0], #-0
    6cd8:	00099017 	andeq	r9, r9, r7, lsl r0
    6cdc:	024e0500 	subeq	r0, lr, #0, 10
    6ce0:	0000017c 	andeq	r0, r0, ip, ror r1
    6ce4:	05c81748 	strbeq	r1, [r8, #1864]	; 0x748
    6ce8:	4f050000 	svcmi	0x00050000
    6cec:	00083e02 	andeq	r3, r8, r2, lsl #28
    6cf0:	9c174c00 	ldcls	12, cr4, [r7], {-0}
    6cf4:	05000003 	streq	r0, [r0, #-3]
    6cf8:	00250252 	eoreq	r0, r5, r2, asr r2
    6cfc:	17500000 	ldrbne	r0, [r0, -r0]
    6d00:	000002a1 	andeq	r0, r0, r1, lsr #5
    6d04:	0c025305 	stceq	3, cr5, [r2], {5}
    6d08:	54000001 	strpl	r0, [r0], #-1
    6d0c:	00115217 	andseq	r5, r1, r7, lsl r2
    6d10:	02760500 	rsbseq	r0, r6, #0, 10
    6d14:	000007fb 	strdeq	r0, [r0], -fp
    6d18:	057d1858 	ldrbeq	r1, [sp, #-2136]!	; 0xfffff7a8
    6d1c:	7a050000 	bvc	146d24 <__bss_end__+0x13cd34>
    6d20:	00029902 	andeq	r9, r2, r2, lsl #18
    6d24:	18014800 	stmdane	r1, {fp, lr}
    6d28:	0000042d 	andeq	r0, r0, sp, lsr #8
    6d2c:	5b027b05 	blpl	a5948 <__bss_end__+0x9b958>
    6d30:	4c000002 	stcmi	0, cr0, [r0], {2}
    6d34:	08f51801 	ldmeq	r5!, {r0, fp, ip}^
    6d38:	7f050000 	svcvc	0x00050000
    6d3c:	00084f02 	andeq	r4, r8, r2, lsl #30
    6d40:	1802dc00 	stmdane	r2, {sl, fp, ip, lr, pc}
    6d44:	00000229 	andeq	r0, r0, r9, lsr #4
    6d48:	00028405 	andeq	r8, r2, r5, lsl #8
    6d4c:	e0000006 	and	r0, r0, r6
    6d50:	020e1802 	andeq	r1, lr, #131072	; 0x20000
    6d54:	85050000 	strhi	r0, [r5, #-0]
    6d58:	00085b02 	andeq	r5, r8, r2, lsl #22
    6d5c:	0002ec00 	andeq	lr, r2, r0, lsl #24
    6d60:	040b040e 	streq	r0, [fp], #-1038	; 0xfffffbf2
    6d64:	25140000 	ldrcs	r0, [r4, #-0]
    6d68:	8a000000 	bhi	6d70 <_start-0x1290>
    6d6c:	15000005 	strne	r0, [r0, #-5]
    6d70:	00000429 	andeq	r0, r0, r9, lsr #8
    6d74:	00010a15 	andeq	r0, r1, r5, lsl sl
    6d78:	058a1500 	streq	r1, [sl, #1280]	; 0x500
    6d7c:	25150000 	ldrcs	r0, [r5, #-0]
    6d80:	00000000 	andeq	r0, r0, r0
    6d84:	0119040e 	tsteq	r9, lr, lsl #8
    6d88:	040e0000 	streq	r0, [lr], #-0
    6d8c:	0000056c 	andeq	r0, r0, ip, ror #10
    6d90:	00008614 	andeq	r8, r0, r4, lsl r6
    6d94:	0005b400 	andeq	fp, r5, r0, lsl #8
    6d98:	04291500 	strteq	r1, [r9], #-1280	; 0xfffffb00
    6d9c:	0a150000 	beq	546da4 <__bss_end__+0x53cdb4>
    6da0:	15000001 	strne	r0, [r0, #-1]
    6da4:	00000086 	andeq	r0, r0, r6, lsl #1
    6da8:	00002515 	andeq	r2, r0, r5, lsl r5
    6dac:	040e0000 	streq	r0, [lr], #-0
    6db0:	00000596 	muleq	r0, r6, r5
    6db4:	00002514 	andeq	r2, r0, r4, lsl r5
    6db8:	0005ce00 	andeq	ip, r5, r0, lsl #28
    6dbc:	04291500 	strteq	r1, [r9], #-1280	; 0xfffffb00
    6dc0:	0a150000 	beq	546dc8 <__bss_end__+0x53cdd8>
    6dc4:	00000001 	andeq	r0, r0, r1
    6dc8:	05ba040e 	ldreq	r0, [sl, #1038]!	; 0x40e
    6dcc:	54090000 	strpl	r0, [r9], #-0
    6dd0:	e4000000 	str	r0, [r0], #-0
    6dd4:	0a000005 	beq	6df0 <_start-0x1210>
    6dd8:	000000cc 	andeq	r0, r0, ip, asr #1
    6ddc:	54090002 	strpl	r0, [r9], #-2
    6de0:	f4000000 	vst4.8	{d0-d3}, [r0], r0
    6de4:	0a000005 	beq	6e00 <_start-0x1200>
    6de8:	000000cc 	andeq	r0, r0, ip, asr #1
    6dec:	99060000 	stmdbls	r6, {}	; <UNPREDICTABLE>
    6df0:	05000006 	streq	r0, [r0, #-6]
    6df4:	02e1011d 	rsceq	r0, r1, #1073741831	; 0x40000007
    6df8:	d4190000 	ldrle	r0, [r9], #-0
    6dfc:	0c000008 	stceq	0, cr0, [r0], {8}
    6e00:	35012105 	strcc	r2, [r1, #-261]	; 0xfffffefb
    6e04:	17000006 	strne	r0, [r0, -r6]
    6e08:	000006d1 	ldrdeq	r0, [r0], -r1
    6e0c:	35012305 	strcc	r2, [r1, #-773]	; 0xfffffcfb
    6e10:	00000006 	andeq	r0, r0, r6
    6e14:	0003fd17 	andeq	pc, r3, r7, lsl sp	; <UNPREDICTABLE>
    6e18:	01240500 			; <UNDEFINED> instruction: 0x01240500
    6e1c:	00000025 	andeq	r0, r0, r5, lsr #32
    6e20:	06931704 	ldreq	r1, [r3], r4, lsl #14
    6e24:	25050000 	strcs	r0, [r5, #-0]
    6e28:	00063b01 	andeq	r3, r6, r1, lsl #22
    6e2c:	0e000800 	cdpeq	8, 0, cr0, cr0, cr0, {0}
    6e30:	00060004 	andeq	r0, r6, r4
    6e34:	f4040e00 			; <UNDEFINED> instruction: 0xf4040e00
    6e38:	19000005 	stmdbne	r0, {r0, r2}
    6e3c:	000000c9 	andeq	r0, r0, r9, asr #1
    6e40:	013d050e 	teqeq	sp, lr, lsl #10
    6e44:	00000676 	andeq	r0, r0, r6, ror r6
    6e48:	00073617 	andeq	r3, r7, r7, lsl r6
    6e4c:	013e0500 	teqeq	lr, r0, lsl #10
    6e50:	00000676 	andeq	r0, r0, r6, ror r6
    6e54:	07d91700 	ldrbeq	r1, [r9, r0, lsl #14]
    6e58:	3f050000 	svccc	0x00050000
    6e5c:	00067601 	andeq	r7, r6, r1, lsl #12
    6e60:	18170600 	ldmdane	r7, {r9, sl}
    6e64:	05000008 	streq	r0, [r0, #-8]
    6e68:	005b0140 	subseq	r0, fp, r0, asr #2
    6e6c:	000c0000 	andeq	r0, ip, r0
    6e70:	00005b09 	andeq	r5, r0, r9, lsl #22
    6e74:	00068600 	andeq	r8, r6, r0, lsl #12
    6e78:	00cc0a00 	sbceq	r0, ip, r0, lsl #20
    6e7c:	00020000 	andeq	r0, r2, r0
    6e80:	5705d01a 	smladpl	r5, sl, r0, sp
    6e84:	00078702 	andeq	r8, r7, r2, lsl #14
    6e88:	089d1700 	ldmeq	sp, {r8, r9, sl, ip}
    6e8c:	59050000 	stmdbpl	r5, {}	; <UNPREDICTABLE>
    6e90:	00003102 	andeq	r3, r0, r2, lsl #2
    6e94:	df170000 	svcle	0x00170000
    6e98:	05000007 	streq	r0, [r0, #-7]
    6e9c:	010c025a 	tsteq	ip, sl, asr r2
    6ea0:	17040000 	strne	r0, [r4, -r0]
    6ea4:	00000442 	andeq	r0, r0, r2, asr #8
    6ea8:	87025b05 	strhi	r5, [r2, -r5, lsl #22]
    6eac:	08000007 	stmdaeq	r0, {r0, r1, r2}
    6eb0:	00095e17 	andeq	r5, r9, r7, lsl lr
    6eb4:	025c0500 	subseq	r0, ip, #0, 10
    6eb8:	00000192 	muleq	r0, r2, r1
    6ebc:	03351724 	teqeq	r5, #36, 14	; 0x900000
    6ec0:	5d050000 	stcpl	0, cr0, [r5, #-0]
    6ec4:	00002502 	andeq	r2, r0, r2, lsl #10
    6ec8:	cc174800 	ldcgt	8, cr4, [r7], {-0}
    6ecc:	05000006 	streq	r0, [r0, #-6]
    6ed0:	0069025e 	rsbeq	r0, r9, lr, asr r2
    6ed4:	17500000 	ldrbne	r0, [r0, -r0]
    6ed8:	00000974 	andeq	r0, r0, r4, ror r9
    6edc:	41025f05 	tstmi	r2, r5, lsl #30
    6ee0:	58000006 	stmdapl	r0, {r1, r2}
    6ee4:	0006ed17 	andeq	lr, r6, r7, lsl sp
    6ee8:	02600500 	rsbeq	r0, r0, #0, 10
    6eec:	000000f4 	strdeq	r0, [r0], -r4
    6ef0:	09821768 	stmibeq	r2, {r3, r5, r6, r8, r9, sl, ip}
    6ef4:	61050000 	mrsvs	r0, (UNDEF: 5)
    6ef8:	0000f402 	andeq	pc, r0, r2, lsl #8
    6efc:	ac177000 	ldcge	0, cr7, [r7], {-0}
    6f00:	05000001 	streq	r0, [r0, #-1]
    6f04:	00f40262 	rscseq	r0, r4, r2, ror #4
    6f08:	17780000 	ldrbne	r0, [r8, -r0]!
    6f0c:	000008eb 	andeq	r0, r0, fp, ror #17
    6f10:	97026305 	strls	r6, [r2, -r5, lsl #6]
    6f14:	80000007 	andhi	r0, r0, r7
    6f18:	00043617 	andeq	r3, r4, r7, lsl r6
    6f1c:	02640500 	rsbeq	r0, r4, #0, 10
    6f20:	000007a7 	andeq	r0, r0, r7, lsr #15
    6f24:	082e1788 	stmdaeq	lr!, {r3, r7, r8, r9, sl, ip}
    6f28:	65050000 	strvs	r0, [r5, #-0]
    6f2c:	00002502 	andeq	r2, r0, r2, lsl #10
    6f30:	da17a000 	ble	5eef38 <__bss_end__+0x5e4f48>
    6f34:	05000002 	streq	r0, [r0, #-2]
    6f38:	00f40266 	rscseq	r0, r4, r6, ror #4
    6f3c:	17a40000 	strne	r0, [r4, r0]!
    6f40:	00000188 	andeq	r0, r0, r8, lsl #3
    6f44:	f4026705 	vst1.8	{d6}, [r2], r5
    6f48:	ac000000 	stcge	0, cr0, [r0], {-0}
    6f4c:	0002c017 	andeq	ip, r2, r7, lsl r0
    6f50:	02680500 	rsbeq	r0, r8, #0, 10
    6f54:	000000f4 	strdeq	r0, [r0], -r4
    6f58:	012017b4 			; <UNDEFINED> instruction: 0x012017b4
    6f5c:	69050000 	stmdbvs	r5, {}	; <UNPREDICTABLE>
    6f60:	0000f402 	andeq	pc, r0, r2, lsl #8
    6f64:	2f17bc00 	svccs	0x0017bc00
    6f68:	05000001 	streq	r0, [r0, #-1]
    6f6c:	00f4026a 	rscseq	r0, r4, sl, ror #4
    6f70:	17c40000 	strbne	r0, [r4, r0]
    6f74:	00000662 	andeq	r0, r0, r2, ror #12
    6f78:	25026b05 	strcs	r6, [r2, #-2821]	; 0xfffff4fb
    6f7c:	cc000000 	stcgt	0, cr0, [r0], {-0}
    6f80:	01120900 	tsteq	r2, r0, lsl #18
    6f84:	07970000 	ldreq	r0, [r7, r0]
    6f88:	cc0a0000 	stcgt	0, cr0, [sl], {-0}
    6f8c:	19000000 	stmdbne	r0, {}	; <UNPREDICTABLE>
    6f90:	01120900 	tsteq	r2, r0, lsl #18
    6f94:	07a70000 	streq	r0, [r7, r0]!
    6f98:	cc0a0000 	stcgt	0, cr0, [sl], {-0}
    6f9c:	07000000 	streq	r0, [r0, -r0]
    6fa0:	01120900 	tsteq	r2, r0, lsl #18
    6fa4:	07b70000 	ldreq	r0, [r7, r0]!
    6fa8:	cc0a0000 	stcgt	0, cr0, [sl], {-0}
    6fac:	17000000 	strne	r0, [r0, -r0]
    6fb0:	05f01a00 	ldrbeq	r1, [r0, #2560]!	; 0xa00
    6fb4:	07db0270 			; <UNDEFINED> instruction: 0x07db0270
    6fb8:	52170000 	andspl	r0, r7, #0
    6fbc:	05000005 	streq	r0, [r0, #-5]
    6fc0:	07db0273 			; <UNDEFINED> instruction: 0x07db0273
    6fc4:	17000000 	strne	r0, [r0, -r0]
    6fc8:	000004f9 	strdeq	r0, [r0], -r9
    6fcc:	eb027405 	bl	a3fe8 <__bss_end__+0x99ff8>
    6fd0:	78000007 	stmdavc	r0, {r0, r1, r2}
    6fd4:	02db0900 	sbcseq	r0, fp, #0, 18
    6fd8:	07eb0000 	strbeq	r0, [fp, r0]!
    6fdc:	cc0a0000 	stcgt	0, cr0, [sl], {-0}
    6fe0:	1d000000 	stcne	0, cr0, [r0, #-0]
    6fe4:	00310900 	eorseq	r0, r1, r0, lsl #18
    6fe8:	07fb0000 	ldrbeq	r0, [fp, r0]!
    6fec:	cc0a0000 	stcgt	0, cr0, [sl], {-0}
    6ff0:	1d000000 	stcne	0, cr0, [r0, #-0]
    6ff4:	05f01b00 	ldrbeq	r1, [r0, #2816]!	; 0xb00
    6ff8:	081d0255 	ldmdaeq	sp, {r0, r2, r4, r6, r9}
    6ffc:	261c0000 	ldrcs	r0, [ip], -r0
    7000:	05000007 	streq	r0, [r0, #-7]
    7004:	0686026c 	streq	r0, [r6], ip, ror #4
    7008:	2a1c0000 	bcs	707010 <__bss_end__+0x6fd020>
    700c:	05000009 	streq	r0, [r0, #-9]
    7010:	07b70275 			; <UNDEFINED> instruction: 0x07b70275
    7014:	09000000 	stmdbeq	r0, {}	; <UNPREDICTABLE>
    7018:	00000112 	andeq	r0, r0, r2, lsl r1
    701c:	0000082d 	andeq	r0, r0, sp, lsr #16
    7020:	0000cc0a 	andeq	ip, r0, sl, lsl #24
    7024:	1d001800 	stcne	8, cr1, [r0, #-0]
    7028:	00000838 	andeq	r0, r0, r8, lsr r8
    702c:	00042915 	andeq	r2, r4, r5, lsl r9
    7030:	040e0000 	streq	r0, [lr], #-0
    7034:	0000082d 	andeq	r0, r0, sp, lsr #16
    7038:	017c040e 	cmneq	ip, lr, lsl #8
    703c:	4f1d0000 	svcmi	0x001d0000
    7040:	15000008 	strne	r0, [r0, #-8]
    7044:	00000025 	andeq	r0, r0, r5, lsr #32
    7048:	55040e00 	strpl	r0, [r4, #-3584]	; 0xfffff200
    704c:	0e000008 	cdpeq	0, 0, cr0, cr0, cr8, {0}
    7050:	00084404 	andeq	r4, r8, r4, lsl #8
    7054:	05f40900 	ldrbeq	r0, [r4, #2304]!	; 0x900
    7058:	086b0000 	stmdaeq	fp!, {}^	; <UNPREDICTABLE>
    705c:	cc0a0000 	stcgt	0, cr0, [sl], {-0}
    7060:	02000000 	andeq	r0, r0, #0
    7064:	08631e00 	stmdaeq	r3!, {r9, sl, fp, ip}^
    7068:	fd050000 	stc2	0, cr0, [r5, #-0]
    706c:	00042902 	andeq	r2, r4, r2, lsl #18
    7070:	085c1e00 	ldmdaeq	ip, {r9, sl, fp, ip}^
    7074:	fe050000 	cdp2	0, 0, cr0, cr5, cr0, {0}
    7078:	00042f02 	andeq	r2, r4, r2, lsl #30
    707c:	00251400 	eoreq	r1, r5, r0, lsl #8
    7080:	08920000 	ldmeq	r2, {}	; <UNPREDICTABLE>
    7084:	25150000 	ldrcs	r0, [r5, #-0]
    7088:	00000000 	andeq	r0, r0, r0
    708c:	0003641f 	andeq	r6, r3, pc, lsl r4
    7090:	9d1d0600 	ldcls	6, cr0, [sp, #-0]
    7094:	0e000008 	cdpeq	0, 0, cr0, cr0, cr8, {0}
    7098:	00088304 	andeq	r8, r8, r4, lsl #6
    709c:	00251400 	eoreq	r1, r5, r0, lsl #8
    70a0:	08b20000 	ldmeq	r2!, {}	; <UNPREDICTABLE>
    70a4:	8a150000 	bhi	5470ac <__bss_end__+0x53d0bc>
    70a8:	00000005 	andeq	r0, r0, r5
    70ac:	000d2b1f 	andeq	r2, sp, pc, lsl fp
    70b0:	bd220600 	stclt	6, cr0, [r2, #-0]
    70b4:	0e000008 	cdpeq	0, 0, cr0, cr0, cr8, {0}
    70b8:	0008a304 	andeq	sl, r8, r4, lsl #6
    70bc:	0ed32000 	cdpeq	0, 13, cr2, cr3, cr0, {0}
    70c0:	0d010000 	stceq	0, cr0, [r1, #-0]
    70c4:	00000031 	andeq	r0, r0, r1, lsr r0
    70c8:	000e1c21 	andeq	r1, lr, r1, lsr #24
    70cc:	341f0100 	ldrcc	r0, [pc], #-256	; 70d4 <_start-0xf2c>
    70d0:	4c000092 	stcmi	0, cr0, [r0], {146}	; 0x92
    70d4:	01000000 	mrseq	r0, (UNDEF: 0)
    70d8:	0009859c 	muleq	r9, ip, r5
    70dc:	0e6d2200 	cdpeq	2, 6, cr2, cr13, cr0, {0}
    70e0:	2a010000 	bcs	470e8 <__bss_end__+0x3d0f8>
    70e4:	0000002c 	andeq	r0, r0, ip, lsr #32
    70e8:	00000ef2 	strdeq	r0, [r0], -r2
    70ec:	000e9422 	andeq	r9, lr, r2, lsr #8
    70f0:	2c2b0100 	stfcss	f0, [fp], #-0
    70f4:	0a000000 	beq	70fc <_start-0xf04>
    70f8:	2200000f 	andcs	r0, r0, #15
    70fc:	00000ea1 	andeq	r0, r0, r1, lsr #29
    7100:	002c2c01 	eoreq	r2, ip, r1, lsl #24
    7104:	0f220000 	svceq	0x00220000
    7108:	7b220000 	blvc	887110 <__bss_end__+0x87d120>
    710c:	0100000e 	tsteq	r0, lr
    7110:	00002c2d 	andeq	r2, r0, sp, lsr #24
    7114:	000f3900 	andeq	r3, pc, r0, lsl #18
    7118:	923c2300 	eorsls	r2, ip, #0, 6
    711c:	09aa0000 	stmibeq	sl!, {}	; <UNPREDICTABLE>
    7120:	4c240000 	stcmi	0, cr0, [r4], #-0
    7124:	d3000092 	movwle	r0, #146	; 0x92
    7128:	3b000009 	blcc	7154 <_start-0xeac>
    712c:	25000009 	strcs	r0, [r0, #-9]
    7130:	4e015001 	cdpmi	0, 0, cr5, cr1, cr1, {0}
    7134:	92582400 	subsls	r2, r8, #0, 8
    7138:	09de0000 	ldmibeq	lr, {}^	; <UNPREDICTABLE>
    713c:	095b0000 	ldmdbeq	fp, {}^	; <UNPREDICTABLE>
    7140:	01250000 			; <UNDEFINED> instruction: 0x01250000
    7144:	240c0550 	strcs	r0, [ip], #-1360	; 0xfffffab0
    7148:	25201000 	strcs	r1, [r0, #-0]!
    714c:	0c055101 	stfeqs	f5, [r5], {1}
    7150:	5a000001 	bpl	715c <_start-0xea4>
    7154:	92642400 	rsbls	r2, r4, #0, 8
    7158:	09de0000 	ldmibeq	lr, {}^	; <UNPREDICTABLE>
    715c:	097b0000 	ldmdbeq	fp!, {}^	; <UNPREDICTABLE>
    7160:	01250000 			; <UNDEFINED> instruction: 0x01250000
    7164:	1c0c0550 	cfstr32ne	mvfx0, [ip], {80}	; 0x50
    7168:	25201000 	strcs	r1, [r0, #-0]!
    716c:	0c055101 	stfeqs	f5, [r5], {1}
    7170:	5a000020 	bpl	71f8 <_start-0xe08>
    7174:	926c2300 	rsbls	r2, ip, #0, 6
    7178:	09850000 	stmibeq	r5, {}	; <UNPREDICTABLE>
    717c:	26000000 	strcs	r0, [r0], -r0
    7180:	00000ec1 	andeq	r0, r0, r1, asr #29
    7184:	92201701 	eorls	r1, r0, #262144	; 0x40000
    7188:	00140000 	andseq	r0, r4, r0
    718c:	9c010000 	stcls	0, cr0, [r1], {-0}
    7190:	000009aa 	andeq	r0, r0, sl, lsr #19
    7194:	000e9c22 	andeq	r9, lr, r2, lsr #24
    7198:	31180100 	tstcc	r8, r0, lsl #2
    719c:	4e000000 	cdpmi	0, 0, cr0, cr0, cr0, {0}
    71a0:	0000000f 	andeq	r0, r0, pc
    71a4:	000ed027 	andeq	sp, lr, r7, lsr #32
    71a8:	250e0100 	strcs	r0, [lr, #-256]	; 0xffffff00
    71ac:	08000000 	stmdaeq	r0, {}	; <UNPREDICTABLE>
    71b0:	18000092 	stmdane	r0, {r1, r4, r7}
    71b4:	01000000 	mrseq	r0, (UNDEF: 0)
    71b8:	0009d39c 	muleq	r9, ip, r3
    71bc:	0e9c2200 	cdpeq	2, 9, cr2, cr12, cr0, {0}
    71c0:	0f010000 	svceq	0x00010000
    71c4:	00000031 	andeq	r0, r0, r1, lsr r0
    71c8:	00000f78 	andeq	r0, r0, r8, ror pc
    71cc:	073c2800 	ldreq	r2, [ip, -r0, lsl #16]!
    71d0:	073c0000 	ldreq	r0, [ip, -r0]!
    71d4:	4f060000 	svcmi	0x00060000
    71d8:	000e7528 	andeq	r7, lr, r8, lsr #10
    71dc:	000e7500 	andeq	r7, lr, r0, lsl #10
    71e0:	009b0600 	addseq	r0, fp, r0, lsl #12
    71e4:	00000917 	andeq	r0, r0, r7, lsl r9
    71e8:	14180004 	ldrne	r0, [r8], #-4
    71ec:	01040000 	mrseq	r0, (UNDEF: 4)
    71f0:	00000c37 	andeq	r0, r0, r7, lsr ip
    71f4:	000ede0c 	andeq	sp, lr, ip, lsl #28
    71f8:	000c9e00 	andeq	r9, ip, r0, lsl #28
    71fc:	00928000 	addseq	r8, r2, r0
    7200:	00002800 	andeq	r2, r0, r0, lsl #16
    7204:	000abf00 	andeq	fp, sl, r0, lsl #30
    7208:	05040200 	streq	r0, [r4, #-512]	; 0xfffffe00
    720c:	00746e69 	rsbseq	r6, r4, r9, ror #28
    7210:	4a070403 	bmi	1c8224 <__bss_end__+0x1be234>
    7214:	03000001 	movweq	r0, #1
    7218:	06200601 	strteq	r0, [r0], -r1, lsl #12
    721c:	02030000 	andeq	r0, r3, #0
    7220:	00066b05 	andeq	r6, r6, r5, lsl #22
    7224:	05040300 	streq	r0, [r4, #-768]	; 0xfffffd00
    7228:	000001c8 	andeq	r0, r0, r8, asr #3
    722c:	c3050803 	movwgt	r0, #22531	; 0x5803
    7230:	03000001 	movweq	r0, #1
    7234:	061e0801 	ldreq	r0, [lr], -r1, lsl #16
    7238:	02030000 	andeq	r0, r3, #0
    723c:	00041a07 	andeq	r1, r4, r7, lsl #20
    7240:	07040300 	streq	r0, [r4, -r0, lsl #6]
    7244:	00000145 	andeq	r0, r0, r5, asr #2
    7248:	40070803 	andmi	r0, r7, r3, lsl #16
    724c:	04000001 	streq	r0, [r0], #-1
    7250:	000005e2 	andeq	r0, r0, r2, ror #11
    7254:	00250702 	eoreq	r0, r5, r2, lsl #14
    7258:	9e040000 	cdpls	0, 0, cr0, cr4, cr0, {0}
    725c:	03000005 	movweq	r0, #5
    7260:	0000412c 	andeq	r4, r0, ip, lsr #2
    7264:	07690400 	strbeq	r0, [r9, -r0, lsl #8]!
    7268:	72030000 	andvc	r0, r3, #0
    726c:	00000041 	andeq	r0, r0, r1, asr #32
    7270:	00047e05 	andeq	r7, r4, r5, lsl #28
    7274:	01650400 	cmneq	r5, r0, lsl #8
    7278:	0000002c 	andeq	r0, r0, ip, lsr #32
    727c:	a6030406 	strge	r0, [r3], -r6, lsl #8
    7280:	000000b7 	strheq	r0, [r0], -r7
    7284:	00046b07 	andeq	r6, r4, r7, lsl #22
    7288:	8ca80300 	stchi	3, cr0, [r8]
    728c:	07000000 	streq	r0, [r0, -r0]
    7290:	0000037e 	andeq	r0, r0, lr, ror r3
    7294:	00b7a903 	adcseq	sl, r7, r3, lsl #18
    7298:	08000000 	stmdaeq	r0, {}	; <UNPREDICTABLE>
    729c:	0000004f 	andeq	r0, r0, pc, asr #32
    72a0:	000000c7 	andeq	r0, r0, r7, asr #1
    72a4:	0000c709 	andeq	ip, r0, r9, lsl #14
    72a8:	03000300 	movweq	r0, #768	; 0x300
    72ac:	050e0704 	streq	r0, [lr, #-1796]	; 0xfffff8fc
    72b0:	080a0000 	stmdaeq	sl, {}	; <UNPREDICTABLE>
    72b4:	00efa303 	rsceq	sl, pc, r3, lsl #6
    72b8:	450b0000 	strmi	r0, [fp, #-0]
    72bc:	03000007 	movweq	r0, #7
    72c0:	000025a5 	andeq	r2, r0, r5, lsr #11
    72c4:	ec0b0000 	stc	0, cr0, [fp], {-0}
    72c8:	03000007 	movweq	r0, #7
    72cc:	000098aa 	andeq	r9, r0, sl, lsr #17
    72d0:	04000400 	streq	r0, [r0], #-1024	; 0xfffffc00
    72d4:	000006a0 	andeq	r0, r0, r0, lsr #13
    72d8:	00ceab03 	sbceq	sl, lr, r3, lsl #22
    72dc:	1c040000 	stcne	0, cr0, [r4], {-0}
    72e0:	03000003 	movweq	r0, #3
    72e4:	00006baf 	andeq	r6, r0, pc, lsr #23
    72e8:	0d040c00 	stceq	12, cr0, [r4, #-0]
    72ec:	00010d04 	andeq	r0, r1, r4, lsl #26
    72f0:	08010300 	stmdaeq	r1, {r8, r9}
    72f4:	00000627 	andeq	r0, r0, r7, lsr #12
    72f8:	00010d0e 	andeq	r0, r1, lr, lsl #26
    72fc:	08260400 	stmdaeq	r6!, {sl}
    7300:	16050000 	strne	r0, [r5], -r0
    7304:	0000005d 	andeq	r0, r0, sp, asr r0
    7308:	00032d0f 	andeq	r2, r3, pc, lsl #26
    730c:	2d051800 	stccs	8, cr1, [r5, #-0]
    7310:	00000177 	andeq	r0, r0, r7, ror r1
    7314:	0006d10b 	andeq	sp, r6, fp, lsl #2
    7318:	772f0500 	strvc	r0, [pc, -r0, lsl #10]!
    731c:	00000001 	andeq	r0, r0, r1
    7320:	006b5f10 	rsbeq	r5, fp, r0, lsl pc
    7324:	00253005 	eoreq	r3, r5, r5
    7328:	0b040000 	bleq	107330 <__bss_end__+0xfd340>
    732c:	0000071e 	andeq	r0, r0, lr, lsl r7
    7330:	00253005 	eoreq	r3, r5, r5
    7334:	0b080000 	bleq	20733c <__bss_end__+0x1fd34c>
    7338:	00000316 	andeq	r0, r0, r6, lsl r3
    733c:	00253005 	eoreq	r3, r5, r5
    7340:	0b0c0000 	bleq	307348 <__bss_end__+0x2fd358>
    7344:	000008c5 	andeq	r0, r0, r5, asr #17
    7348:	00253005 	eoreq	r3, r5, r5
    734c:	10100000 	andsne	r0, r0, r0
    7350:	0500785f 	streq	r7, [r0, #-2143]	; 0xfffff7a1
    7354:	00017d31 	andeq	r7, r1, r1, lsr sp
    7358:	0d001400 	cfstrseq	mvf1, [r0, #-0]
    735c:	00012404 	andeq	r2, r1, r4, lsl #8
    7360:	01190800 	tsteq	r9, r0, lsl #16
    7364:	018d0000 	orreq	r0, sp, r0
    7368:	c7090000 	strgt	r0, [r9, -r0]
    736c:	00000000 	andeq	r0, r0, r0
    7370:	03700f00 	cmneq	r0, #0, 30
    7374:	05240000 	streq	r0, [r4, #-0]!
    7378:	00020635 	andeq	r0, r2, r5, lsr r6
    737c:	01ba0b00 			; <UNDEFINED> instruction: 0x01ba0b00
    7380:	37050000 	strcc	r0, [r5, -r0]
    7384:	00000025 	andeq	r0, r0, r5, lsr #32
    7388:	07910b00 	ldreq	r0, [r1, r0, lsl #22]
    738c:	38050000 	stmdacc	r5, {}	; <UNPREDICTABLE>
    7390:	00000025 	andeq	r0, r0, r5, lsr #32
    7394:	02040b04 	andeq	r0, r4, #4, 22	; 0x1000
    7398:	39050000 	stmdbcc	r5, {}	; <UNPREDICTABLE>
    739c:	00000025 	andeq	r0, r0, r5, lsr #32
    73a0:	09d90b08 	ldmibeq	r9, {r3, r8, r9, fp}^
    73a4:	3a050000 	bcc	1473ac <__bss_end__+0x13d3bc>
    73a8:	00000025 	andeq	r0, r0, r5, lsr #32
    73ac:	05630b0c 	strbeq	r0, [r3, #-2828]!	; 0xfffff4f4
    73b0:	3b050000 	blcc	1473b8 <__bss_end__+0x13d3c8>
    73b4:	00000025 	andeq	r0, r0, r5, lsr #32
    73b8:	04d10b10 	ldrbeq	r0, [r1], #2832	; 0xb10
    73bc:	3c050000 	stccc	0, cr0, [r5], {-0}
    73c0:	00000025 	andeq	r0, r0, r5, lsr #32
    73c4:	08ca0b14 	stmiaeq	sl, {r2, r4, r8, r9, fp}^
    73c8:	3d050000 	stccc	0, cr0, [r5, #-0]
    73cc:	00000025 	andeq	r0, r0, r5, lsr #32
    73d0:	06750b18 			; <UNDEFINED> instruction: 0x06750b18
    73d4:	3e050000 	cdpcc	0, 0, cr0, cr5, cr0, {0}
    73d8:	00000025 	andeq	r0, r0, r5, lsr #32
    73dc:	09530b1c 	ldmdbeq	r3, {r2, r3, r4, r8, r9, fp}^
    73e0:	3f050000 	svccc	0x00050000
    73e4:	00000025 	andeq	r0, r0, r5, lsr #32
    73e8:	13110020 	tstne	r1, #32
    73ec:	08000002 	stmdaeq	r0, {r1}
    73f0:	46480501 	strbmi	r0, [r8], -r1, lsl #10
    73f4:	0b000002 	bleq	7404 <_start-0xbfc>
    73f8:	000002e8 	andeq	r0, r0, r8, ror #5
    73fc:	02464905 	subeq	r4, r6, #81920	; 0x14000
    7400:	0b000000 	bleq	7408 <_start-0xbf8>
    7404:	00000000 	andeq	r0, r0, r0
    7408:	02464a05 	subeq	r4, r6, #20480	; 0x5000
    740c:	12800000 	addne	r0, r0, #0
    7410:	000007b3 			; <UNDEFINED> instruction: 0x000007b3
    7414:	01194c05 	tsteq	r9, r5, lsl #24
    7418:	01000000 	mrseq	r0, (UNDEF: 0)
    741c:	00025d12 	andeq	r5, r2, r2, lsl sp
    7420:	194f0500 	stmdbne	pc, {r8, sl}^	; <UNPREDICTABLE>
    7424:	04000001 	streq	r0, [r0], #-1
    7428:	05080001 	streq	r0, [r8, #-1]
    742c:	56000001 	strpl	r0, [r0], -r1
    7430:	09000002 	stmdbeq	r0, {r1}
    7434:	000000c7 	andeq	r0, r0, r7, asr #1
    7438:	7d11001f 	ldcvc	0, cr0, [r1, #-124]	; 0xffffff84
    743c:	90000005 	andls	r0, r0, r5
    7440:	945b0501 	ldrbls	r0, [fp], #-1281	; 0xfffffaff
    7444:	0b000002 	bleq	7454 <_start-0xbac>
    7448:	000006d1 	ldrdeq	r0, [r0], -r1
    744c:	02945c05 	addseq	r5, r4, #1280	; 0x500
    7450:	0b000000 	bleq	7458 <_start-0xba8>
    7454:	000006ff 	strdeq	r0, [r0], -pc	; <UNPREDICTABLE>
    7458:	00255d05 	eoreq	r5, r5, r5, lsl #26
    745c:	0b040000 	bleq	107464 <__bss_end__+0xfd474>
    7460:	00000311 	andeq	r0, r0, r1, lsl r3
    7464:	029a5f05 	addseq	r5, sl, #5, 30
    7468:	0b080000 	bleq	207470 <__bss_end__+0x1fd480>
    746c:	00000213 	andeq	r0, r0, r3, lsl r2
    7470:	02066005 	andeq	r6, r6, #5
    7474:	00880000 	addeq	r0, r8, r0
    7478:	0256040d 	subseq	r0, r6, #218103808	; 0xd000000
    747c:	aa080000 	bge	207484 <__bss_end__+0x1fd494>
    7480:	aa000002 	bge	7490 <_start-0xb70>
    7484:	09000002 	stmdbeq	r0, {r1}
    7488:	000000c7 	andeq	r0, r0, r7, asr #1
    748c:	040d001f 	streq	r0, [sp], #-31	; 0xffffffe1
    7490:	000002b0 			; <UNDEFINED> instruction: 0x000002b0
    7494:	067f0f13 	uhadd16eq	r0, pc, r3	; <UNPREDICTABLE>
    7498:	05080000 	streq	r0, [r8, #-0]
    749c:	0002d673 	andeq	sp, r2, r3, ror r6
    74a0:	01fe0b00 	mvnseq	r0, r0, lsl #22
    74a4:	74050000 	strvc	r0, [r5], #-0
    74a8:	000002d6 	ldrdeq	r0, [r0], -r6
    74ac:	00a60b00 	adceq	r0, r6, r0, lsl #22
    74b0:	75050000 	strvc	r0, [r5, #-0]
    74b4:	00000025 	andeq	r0, r0, r5, lsr #32
    74b8:	040d0004 	streq	r0, [sp], #-4
    74bc:	0000004f 	andeq	r0, r0, pc, asr #32
    74c0:	0006ab0f 	andeq	sl, r6, pc, lsl #22
    74c4:	b3056800 	movwlt	r6, #22528	; 0x5800
    74c8:	00000406 	andeq	r0, r0, r6, lsl #8
    74cc:	00705f10 	rsbseq	r5, r0, r0, lsl pc
    74d0:	02d6b405 	sbcseq	fp, r6, #83886080	; 0x5000000
    74d4:	10000000 	andne	r0, r0, r0
    74d8:	0500725f 	streq	r7, [r0, #-607]	; 0xfffffda1
    74dc:	000025b5 			; <UNDEFINED> instruction: 0x000025b5
    74e0:	5f100400 	svcpl	0x00100400
    74e4:	b6050077 			; <UNDEFINED> instruction: 0xb6050077
    74e8:	00000025 	andeq	r0, r0, r5, lsr #32
    74ec:	02560b08 	subseq	r0, r6, #8, 22	; 0x2000
    74f0:	b7050000 	strlt	r0, [r5, -r0]
    74f4:	0000003a 	andeq	r0, r0, sl, lsr r0
    74f8:	03af0b0c 			; <UNDEFINED> instruction: 0x03af0b0c
    74fc:	b8050000 	stmdalt	r5, {}	; <UNPREDICTABLE>
    7500:	0000003a 	andeq	r0, r0, sl, lsr r0
    7504:	625f100e 	subsvs	r1, pc, #14
    7508:	b9050066 	stmdblt	r5, {r1, r2, r5, r6}
    750c:	000002b1 			; <UNDEFINED> instruction: 0x000002b1
    7510:	01600b10 	cmneq	r0, r0, lsl fp
    7514:	ba050000 	blt	14751c <__bss_end__+0x13d52c>
    7518:	00000025 	andeq	r0, r0, r5, lsr #32
    751c:	02210b18 	eoreq	r0, r1, #24, 22	; 0x6000
    7520:	c1050000 	mrsgt	r0, (UNDEF: 5)
    7524:	00000105 	andeq	r0, r0, r5, lsl #2
    7528:	08ad0b1c 	stmiaeq	sp!, {r2, r3, r4, r8, r9, fp}
    752c:	c3050000 	movwgt	r0, #20480	; 0x5000
    7530:	00000561 	andeq	r0, r0, r1, ror #10
    7534:	01760b20 	cmneq	r6, r0, lsr #22
    7538:	c5050000 	strgt	r0, [r5, #-0]
    753c:	0000058b 	andeq	r0, r0, fp, lsl #11
    7540:	07560b24 	ldrbeq	r0, [r6, -r4, lsr #22]
    7544:	c8050000 	stmdagt	r5, {}	; <UNPREDICTABLE>
    7548:	000005af 	andeq	r0, r0, pc, lsr #11
    754c:	096d0b28 	stmdbeq	sp!, {r3, r5, r8, r9, fp}^
    7550:	c9050000 	stmdbgt	r5, {}	; <UNPREDICTABLE>
    7554:	000005c9 	andeq	r0, r0, r9, asr #11
    7558:	755f102c 	ldrbvc	r1, [pc, #-44]	; 7534 <_start-0xacc>
    755c:	cc050062 	stcgt	0, cr0, [r5], {98}	; 0x62
    7560:	000002b1 			; <UNDEFINED> instruction: 0x000002b1
    7564:	755f1030 	ldrbvc	r1, [pc, #-48]	; 753c <_start-0xac4>
    7568:	cd050070 	stcgt	0, cr0, [r5, #-448]	; 0xfffffe40
    756c:	000002d6 	ldrdeq	r0, [r0], -r6
    7570:	755f1038 	ldrbvc	r1, [pc, #-56]	; 7540 <_start-0xac0>
    7574:	ce050072 	mcrgt	0, 0, r0, cr5, cr2, {3}
    7578:	00000025 	andeq	r0, r0, r5, lsr #32
    757c:	01f00b3c 	mvnseq	r0, ip, lsr fp
    7580:	d1050000 	mrsle	r0, (UNDEF: 5)
    7584:	000005cf 	andeq	r0, r0, pc, asr #11
    7588:	09240b40 	stmdbeq	r4!, {r6, r8, r9, fp}
    758c:	d2050000 	andle	r0, r5, #0
    7590:	000005df 	ldrdeq	r0, [r0], -pc	; <UNPREDICTABLE>
    7594:	6c5f1043 	mrrcvs	0, 4, r1, pc, cr3	; <UNPREDICTABLE>
    7598:	d5050062 	strle	r0, [r5, #-98]	; 0xffffff9e
    759c:	000002b1 			; <UNDEFINED> instruction: 0x000002b1
    75a0:	02730b44 	rsbseq	r0, r3, #68, 22	; 0x11000
    75a4:	d8050000 	stmdale	r5, {}	; <UNPREDICTABLE>
    75a8:	00000025 	andeq	r0, r0, r5, lsr #32
    75ac:	02a90b4c 	adceq	r0, r9, #76, 22	; 0x13000
    75b0:	d9050000 	stmdble	r5, {}	; <UNPREDICTABLE>
    75b4:	00000076 	andeq	r0, r0, r6, ror r0
    75b8:	064c0b50 			; <UNDEFINED> instruction: 0x064c0b50
    75bc:	dc050000 	stcle	0, cr0, [r5], {-0}
    75c0:	00000424 	andeq	r0, r0, r4, lsr #8
    75c4:	10900b54 	addsne	r0, r0, r4, asr fp
    75c8:	e0050000 	and	r0, r5, r0
    75cc:	000000fa 	strdeq	r0, [r0], -sl
    75d0:	06c30b58 			; <UNDEFINED> instruction: 0x06c30b58
    75d4:	e2050000 	and	r0, r5, #0
    75d8:	000000ef 	andeq	r0, r0, pc, ror #1
    75dc:	049f0b5c 	ldreq	r0, [pc], #2908	; 75e4 <_start-0xa1c>
    75e0:	e3050000 	movw	r0, #20480	; 0x5000
    75e4:	00000025 	andeq	r0, r0, r5, lsr #32
    75e8:	25140064 	ldrcs	r0, [r4, #-100]	; 0xffffff9c
    75ec:	24000000 	strcs	r0, [r0], #-0
    75f0:	15000004 	strne	r0, [r0, #-4]
    75f4:	00000424 	andeq	r0, r0, r4, lsr #8
    75f8:	00010515 	andeq	r0, r1, r5, lsl r5
    75fc:	01071500 	tsteq	r7, r0, lsl #10
    7600:	25150000 	ldrcs	r0, [r5, #-0]
    7604:	00000000 	andeq	r0, r0, r0
    7608:	042f040d 	strteq	r0, [pc], #-1037	; 7610 <_start-0x9f0>
    760c:	240e0000 	strcs	r0, [lr], #-0
    7610:	16000004 	strne	r0, [r0], -r4
    7614:	00000726 	andeq	r0, r0, r6, lsr #14
    7618:	38050428 	stmdacc	r5, {r3, r5, sl}
    761c:	00056102 	andeq	r6, r5, r2, lsl #2
    7620:	06641700 	strbteq	r1, [r4], -r0, lsl #14
    7624:	3a050000 	bcc	14762c <__bss_end__+0x13d63c>
    7628:	00002502 	andeq	r2, r0, r2, lsl #10
    762c:	65170000 	ldrvs	r0, [r7, #-0]
    7630:	05000002 	streq	r0, [r0, #-2]
    7634:	0636023f 			; <UNDEFINED> instruction: 0x0636023f
    7638:	17040000 	strne	r0, [r4, -r0]
    763c:	00000394 	muleq	r0, r4, r3
    7640:	36023f05 	strcc	r3, [r2], -r5, lsl #30
    7644:	08000006 	stmdaeq	r0, {r1, r2}
    7648:	00032517 	andeq	r2, r3, r7, lsl r5
    764c:	023f0500 	eorseq	r0, pc, #0, 10
    7650:	00000636 	andeq	r0, r0, r6, lsr r6
    7654:	06fa170c 	ldrbteq	r1, [sl], ip, lsl #14
    7658:	41050000 	mrsmi	r0, (UNDEF: 5)
    765c:	00002502 	andeq	r2, r0, r2, lsl #10
    7660:	e5171000 	ldr	r1, [r7, #-0]
    7664:	05000000 	streq	r0, [r0, #-0]
    7668:	08180242 	ldmdaeq	r8, {r1, r6, r9}
    766c:	17140000 	ldrne	r0, [r4, -r0]
    7670:	0000086f 	andeq	r0, r0, pc, ror #16
    7674:	25024405 	strcs	r4, [r2, #-1029]	; 0xfffffbfb
    7678:	30000000 	andcc	r0, r0, r0
    767c:	00070417 	andeq	r0, r7, r7, lsl r4
    7680:	02450500 	subeq	r0, r5, #0, 10
    7684:	00000585 	andeq	r0, r0, r5, lsl #11
    7688:	05931734 	ldreq	r1, [r3, #1844]	; 0x734
    768c:	47050000 	strmi	r0, [r5, -r0]
    7690:	00002502 	andeq	r2, r0, r2, lsl #10
    7694:	14173800 	ldrne	r3, [r7], #-2048	; 0xfffff800
    7698:	05000007 	streq	r0, [r0, #-7]
    769c:	08330249 	ldmdaeq	r3!, {r0, r3, r6, r9}
    76a0:	173c0000 	ldrne	r0, [ip, -r0]!
    76a4:	00000463 	andeq	r0, r0, r3, ror #8
    76a8:	77024c05 	strvc	r4, [r2, -r5, lsl #24]
    76ac:	40000001 	andmi	r0, r0, r1
    76b0:	00035a17 	andeq	r5, r3, r7, lsl sl
    76b4:	024d0500 	subeq	r0, sp, #0, 10
    76b8:	00000025 	andeq	r0, r0, r5, lsr #32
    76bc:	09901744 	ldmibeq	r0, {r2, r6, r8, r9, sl, ip}
    76c0:	4e050000 	cdpmi	0, 0, cr0, cr5, cr0, {0}
    76c4:	00017702 	andeq	r7, r1, r2, lsl #14
    76c8:	c8174800 	ldmdagt	r7, {fp, lr}
    76cc:	05000005 	streq	r0, [r0, #-5]
    76d0:	0839024f 	ldmdaeq	r9!, {r0, r1, r2, r3, r6, r9}
    76d4:	174c0000 	strbne	r0, [ip, -r0]
    76d8:	0000039c 	muleq	r0, ip, r3
    76dc:	25025205 	strcs	r5, [r2, #-517]	; 0xfffffdfb
    76e0:	50000000 	andpl	r0, r0, r0
    76e4:	0002a117 	andeq	sl, r2, r7, lsl r1
    76e8:	02530500 	subseq	r0, r3, #0, 10
    76ec:	00000107 	andeq	r0, r0, r7, lsl #2
    76f0:	11521754 	cmpne	r2, r4, asr r7
    76f4:	76050000 	strvc	r0, [r5], -r0
    76f8:	0007f602 	andeq	pc, r7, r2, lsl #12
    76fc:	7d185800 	ldcvc	8, cr5, [r8, #-0]
    7700:	05000005 	streq	r0, [r0, #-5]
    7704:	0294027a 	addseq	r0, r4, #-1610612729	; 0xa0000007
    7708:	01480000 	mrseq	r0, (UNDEF: 72)
    770c:	00042d18 	andeq	r2, r4, r8, lsl sp
    7710:	027b0500 	rsbseq	r0, fp, #0, 10
    7714:	00000256 	andeq	r0, r0, r6, asr r2
    7718:	f518014c 			; <UNDEFINED> instruction: 0xf518014c
    771c:	05000008 	streq	r0, [r0, #-8]
    7720:	084a027f 	stmdaeq	sl, {r0, r1, r2, r3, r4, r5, r6, r9}^
    7724:	02dc0000 	sbcseq	r0, ip, #0
    7728:	00022918 	andeq	r2, r2, r8, lsl r9
    772c:	02840500 	addeq	r0, r4, #0, 10
    7730:	000005fb 	strdeq	r0, [r0], -fp
    7734:	0e1802e0 	cdpeq	2, 1, cr0, cr8, cr0, {7}
    7738:	05000002 	streq	r0, [r0, #-2]
    773c:	08560285 	ldmdaeq	r6, {r0, r2, r7, r9}^
    7740:	02ec0000 	rsceq	r0, ip, #0
    7744:	06040d00 	streq	r0, [r4], -r0, lsl #26
    7748:	14000004 	strne	r0, [r0], #-4
    774c:	00000025 	andeq	r0, r0, r5, lsr #32
    7750:	00000585 	andeq	r0, r0, r5, lsl #11
    7754:	00042415 	andeq	r2, r4, r5, lsl r4
    7758:	01051500 	tsteq	r5, r0, lsl #10
    775c:	85150000 	ldrhi	r0, [r5, #-0]
    7760:	15000005 	strne	r0, [r0, #-5]
    7764:	00000025 	andeq	r0, r0, r5, lsr #32
    7768:	14040d00 	strne	r0, [r4], #-3328	; 0xfffff300
    776c:	0d000001 	stceq	0, cr0, [r0, #-4]
    7770:	00056704 	andeq	r6, r5, r4, lsl #14
    7774:	00811400 	addeq	r1, r1, r0, lsl #8
    7778:	05af0000 	streq	r0, [pc, #0]!	; 7780 <_start-0x880>
    777c:	24150000 	ldrcs	r0, [r5], #-0
    7780:	15000004 	strne	r0, [r0, #-4]
    7784:	00000105 	andeq	r0, r0, r5, lsl #2
    7788:	00008115 	andeq	r8, r0, r5, lsl r1
    778c:	00251500 	eoreq	r1, r5, r0, lsl #10
    7790:	0d000000 	stceq	0, cr0, [r0, #-0]
    7794:	00059104 	andeq	r9, r5, r4, lsl #2
    7798:	00251400 	eoreq	r1, r5, r0, lsl #8
    779c:	05c90000 	strbeq	r0, [r9]
    77a0:	24150000 	ldrcs	r0, [r5], #-0
    77a4:	15000004 	strne	r0, [r0, #-4]
    77a8:	00000105 	andeq	r0, r0, r5, lsl #2
    77ac:	b5040d00 	strlt	r0, [r4, #-3328]	; 0xfffff300
    77b0:	08000005 	stmdaeq	r0, {r0, r2}
    77b4:	0000004f 	andeq	r0, r0, pc, asr #32
    77b8:	000005df 	ldrdeq	r0, [r0], -pc	; <UNPREDICTABLE>
    77bc:	0000c709 	andeq	ip, r0, r9, lsl #14
    77c0:	08000200 	stmdaeq	r0, {r9}
    77c4:	0000004f 	andeq	r0, r0, pc, asr #32
    77c8:	000005ef 	andeq	r0, r0, pc, ror #11
    77cc:	0000c709 	andeq	ip, r0, r9, lsl #14
    77d0:	05000000 	streq	r0, [r0, #-0]
    77d4:	00000699 	muleq	r0, r9, r6
    77d8:	dc011d05 	stcle	13, cr1, [r1], {5}
    77dc:	19000002 	stmdbne	r0, {r1}
    77e0:	000008d4 	ldrdeq	r0, [r0], -r4
    77e4:	0121050c 			; <UNDEFINED> instruction: 0x0121050c
    77e8:	00000630 	andeq	r0, r0, r0, lsr r6
    77ec:	0006d117 	andeq	sp, r6, r7, lsl r1
    77f0:	01230500 			; <UNDEFINED> instruction: 0x01230500
    77f4:	00000630 	andeq	r0, r0, r0, lsr r6
    77f8:	03fd1700 	mvnseq	r1, #0, 14
    77fc:	24050000 	strcs	r0, [r5], #-0
    7800:	00002501 	andeq	r2, r0, r1, lsl #10
    7804:	93170400 	tstls	r7, #0, 8
    7808:	05000006 	streq	r0, [r0, #-6]
    780c:	06360125 	ldrteq	r0, [r6], -r5, lsr #2
    7810:	00080000 	andeq	r0, r8, r0
    7814:	05fb040d 	ldrbeq	r0, [fp, #1037]!	; 0x40d
    7818:	040d0000 	streq	r0, [sp], #-0
    781c:	000005ef 	andeq	r0, r0, pc, ror #11
    7820:	0000c919 	andeq	ip, r0, r9, lsl r9
    7824:	3d050e00 	stccc	14, cr0, [r5, #-0]
    7828:	00067101 	andeq	r7, r6, r1, lsl #2
    782c:	07361700 	ldreq	r1, [r6, -r0, lsl #14]!
    7830:	3e050000 	cdpcc	0, 0, cr0, cr5, cr0, {0}
    7834:	00067101 	andeq	r7, r6, r1, lsl #2
    7838:	d9170000 	ldmdble	r7, {}	; <UNPREDICTABLE>
    783c:	05000007 	streq	r0, [r0, #-7]
    7840:	0671013f 			; <UNDEFINED> instruction: 0x0671013f
    7844:	17060000 	strne	r0, [r6, -r0]
    7848:	00000818 	andeq	r0, r0, r8, lsl r8
    784c:	56014005 	strpl	r4, [r1], -r5
    7850:	0c000000 	stceq	0, cr0, [r0], {-0}
    7854:	00560800 	subseq	r0, r6, r0, lsl #16
    7858:	06810000 	streq	r0, [r1], r0
    785c:	c7090000 	strgt	r0, [r9, -r0]
    7860:	02000000 	andeq	r0, r0, #0
    7864:	05d01a00 	ldrbeq	r1, [r0, #2560]	; 0xa00
    7868:	07820257 			; <UNDEFINED> instruction: 0x07820257
    786c:	9d170000 	ldcls	0, cr0, [r7, #-0]
    7870:	05000008 	streq	r0, [r0, #-8]
    7874:	002c0259 	eoreq	r0, ip, r9, asr r2
    7878:	17000000 	strne	r0, [r0, -r0]
    787c:	000007df 	ldrdeq	r0, [r0], -pc	; <UNPREDICTABLE>
    7880:	07025a05 	streq	r5, [r2, -r5, lsl #20]
    7884:	04000001 	streq	r0, [r0], #-1
    7888:	00044217 	andeq	r4, r4, r7, lsl r2
    788c:	025b0500 	subseq	r0, fp, #0, 10
    7890:	00000782 	andeq	r0, r0, r2, lsl #15
    7894:	095e1708 	ldmdbeq	lr, {r3, r8, r9, sl, ip}^
    7898:	5c050000 	stcpl	0, cr0, [r5], {-0}
    789c:	00018d02 	andeq	r8, r1, r2, lsl #26
    78a0:	35172400 	ldrcc	r2, [r7, #-1024]	; 0xfffffc00
    78a4:	05000003 	streq	r0, [r0, #-3]
    78a8:	0025025d 	eoreq	r0, r5, sp, asr r2
    78ac:	17480000 	strbne	r0, [r8, -r0]
    78b0:	000006cc 	andeq	r0, r0, ip, asr #13
    78b4:	64025e05 	strvs	r5, [r2], #-3589	; 0xfffff1fb
    78b8:	50000000 	andpl	r0, r0, r0
    78bc:	00097417 	andeq	r7, r9, r7, lsl r4
    78c0:	025f0500 	subseq	r0, pc, #0, 10
    78c4:	0000063c 	andeq	r0, r0, ip, lsr r6
    78c8:	06ed1758 	usateq	r1, #13, r8, asr #14
    78cc:	60050000 	andvs	r0, r5, r0
    78d0:	0000ef02 	andeq	lr, r0, r2, lsl #30
    78d4:	82176800 	andshi	r6, r7, #0, 16
    78d8:	05000009 	streq	r0, [r0, #-9]
    78dc:	00ef0261 	rsceq	r0, pc, r1, ror #4
    78e0:	17700000 	ldrbne	r0, [r0, -r0]!
    78e4:	000001ac 	andeq	r0, r0, ip, lsr #3
    78e8:	ef026205 	svc	0x00026205
    78ec:	78000000 	stmdavc	r0, {}	; <UNPREDICTABLE>
    78f0:	0008eb17 	andeq	lr, r8, r7, lsl fp
    78f4:	02630500 	rsbeq	r0, r3, #0, 10
    78f8:	00000792 	muleq	r0, r2, r7
    78fc:	04361780 	ldrteq	r1, [r6], #-1920	; 0xfffff880
    7900:	64050000 	strvs	r0, [r5], #-0
    7904:	0007a202 	andeq	sl, r7, r2, lsl #4
    7908:	2e178800 	cdpcs	8, 1, cr8, cr7, cr0, {0}
    790c:	05000008 	streq	r0, [r0, #-8]
    7910:	00250265 	eoreq	r0, r5, r5, ror #4
    7914:	17a00000 	strne	r0, [r0, r0]!
    7918:	000002da 	ldrdeq	r0, [r0], -sl
    791c:	ef026605 	svc	0x00026605
    7920:	a4000000 	strge	r0, [r0], #-0
    7924:	00018817 	andeq	r8, r1, r7, lsl r8
    7928:	02670500 	rsbeq	r0, r7, #0, 10
    792c:	000000ef 	andeq	r0, r0, pc, ror #1
    7930:	02c017ac 	sbceq	r1, r0, #172, 14	; 0x2b00000
    7934:	68050000 	stmdavs	r5, {}	; <UNPREDICTABLE>
    7938:	0000ef02 	andeq	lr, r0, r2, lsl #30
    793c:	2017b400 	andscs	fp, r7, r0, lsl #8
    7940:	05000001 	streq	r0, [r0, #-1]
    7944:	00ef0269 	rsceq	r0, pc, r9, ror #4
    7948:	17bc0000 	ldrne	r0, [ip, r0]!
    794c:	0000012f 	andeq	r0, r0, pc, lsr #2
    7950:	ef026a05 	svc	0x00026a05
    7954:	c4000000 	strgt	r0, [r0], #-0
    7958:	00066217 	andeq	r6, r6, r7, lsl r2
    795c:	026b0500 	rsbeq	r0, fp, #0, 10
    7960:	00000025 	andeq	r0, r0, r5, lsr #32
    7964:	0d0800cc 	stceq	0, cr0, [r8, #-816]	; 0xfffffcd0
    7968:	92000001 	andls	r0, r0, #1
    796c:	09000007 	stmdbeq	r0, {r0, r1, r2}
    7970:	000000c7 	andeq	r0, r0, r7, asr #1
    7974:	0d080019 	stceq	0, cr0, [r8, #-100]	; 0xffffff9c
    7978:	a2000001 	andge	r0, r0, #1
    797c:	09000007 	stmdbeq	r0, {r0, r1, r2}
    7980:	000000c7 	andeq	r0, r0, r7, asr #1
    7984:	0d080007 	stceq	0, cr0, [r8, #-28]	; 0xffffffe4
    7988:	b2000001 	andlt	r0, r0, #1
    798c:	09000007 	stmdbeq	r0, {r0, r1, r2}
    7990:	000000c7 	andeq	r0, r0, r7, asr #1
    7994:	f01a0017 			; <UNDEFINED> instruction: 0xf01a0017
    7998:	d6027005 	strle	r7, [r2], -r5
    799c:	17000007 	strne	r0, [r0, -r7]
    79a0:	00000552 	andeq	r0, r0, r2, asr r5
    79a4:	d6027305 	strle	r7, [r2], -r5, lsl #6
    79a8:	00000007 	andeq	r0, r0, r7
    79ac:	0004f917 	andeq	pc, r4, r7, lsl r9	; <UNPREDICTABLE>
    79b0:	02740500 	rsbseq	r0, r4, #0, 10
    79b4:	000007e6 	andeq	r0, r0, r6, ror #15
    79b8:	d6080078 			; <UNDEFINED> instruction: 0xd6080078
    79bc:	e6000002 	str	r0, [r0], -r2
    79c0:	09000007 	stmdbeq	r0, {r0, r1, r2}
    79c4:	000000c7 	andeq	r0, r0, r7, asr #1
    79c8:	2c08001d 	stccs	0, cr0, [r8], {29}
    79cc:	f6000000 			; <UNDEFINED> instruction: 0xf6000000
    79d0:	09000007 	stmdbeq	r0, {r0, r1, r2}
    79d4:	000000c7 	andeq	r0, r0, r7, asr #1
    79d8:	f01b001d 			; <UNDEFINED> instruction: 0xf01b001d
    79dc:	18025505 	stmdane	r2, {r0, r2, r8, sl, ip, lr}
    79e0:	1c000008 	stcne	0, cr0, [r0], {8}
    79e4:	00000726 	andeq	r0, r0, r6, lsr #14
    79e8:	81026c05 	tsthi	r2, r5, lsl #24
    79ec:	1c000006 	stcne	0, cr0, [r0], {6}
    79f0:	0000092a 	andeq	r0, r0, sl, lsr #18
    79f4:	b2027505 	andlt	r7, r2, #20971520	; 0x1400000
    79f8:	00000007 	andeq	r0, r0, r7
    79fc:	00010d08 	andeq	r0, r1, r8, lsl #26
    7a00:	00082800 	andeq	r2, r8, r0, lsl #16
    7a04:	00c70900 	sbceq	r0, r7, r0, lsl #18
    7a08:	00180000 	andseq	r0, r8, r0
    7a0c:	0008331d 	andeq	r3, r8, sp, lsl r3
    7a10:	04241500 	strteq	r1, [r4], #-1280	; 0xfffffb00
    7a14:	0d000000 	stceq	0, cr0, [r0, #-0]
    7a18:	00082804 	andeq	r2, r8, r4, lsl #16
    7a1c:	77040d00 	strvc	r0, [r4, -r0, lsl #26]
    7a20:	1d000001 	stcne	0, cr0, [r0, #-4]
    7a24:	0000084a 	andeq	r0, r0, sl, asr #16
    7a28:	00002515 	andeq	r2, r0, r5, lsl r5
    7a2c:	040d0000 	streq	r0, [sp], #-0
    7a30:	00000850 	andeq	r0, r0, r0, asr r8
    7a34:	083f040d 	ldmdaeq	pc!, {r0, r2, r3, sl}	; <UNPREDICTABLE>
    7a38:	ef080000 	svc	0x00080000
    7a3c:	66000005 	strvs	r0, [r0], -r5
    7a40:	09000008 	stmdbeq	r0, {r3}
    7a44:	000000c7 	andeq	r0, r0, r7, asr #1
    7a48:	631e0002 	tstvs	lr, #2
    7a4c:	05000008 	streq	r0, [r0, #-8]
    7a50:	042402fd 	strteq	r0, [r4], #-765	; 0xfffffd03
    7a54:	5c1e0000 	ldcpl	0, cr0, [lr], {-0}
    7a58:	05000008 	streq	r0, [r0, #-8]
    7a5c:	042a02fe 	strteq	r0, [sl], #-766	; 0xfffffd02
    7a60:	25140000 	ldrcs	r0, [r4, #-0]
    7a64:	8d000000 	stchi	0, cr0, [r0, #-0]
    7a68:	15000008 	strne	r0, [r0, #-8]
    7a6c:	00000025 	andeq	r0, r0, r5, lsr #32
    7a70:	03641f00 	cmneq	r4, #0, 30
    7a74:	1d060000 	stcne	0, cr0, [r6, #-0]
    7a78:	00000898 	muleq	r0, r8, r8
    7a7c:	087e040d 	ldmdaeq	lr!, {r0, r2, r3, sl}^
    7a80:	25140000 	ldrcs	r0, [r4, #-0]
    7a84:	ad000000 	stcge	0, cr0, [r0, #-0]
    7a88:	15000008 	strne	r0, [r0, #-8]
    7a8c:	00000585 	andeq	r0, r0, r5, lsl #11
    7a90:	0d2b1f00 	stceq	15, cr1, [fp, #-0]
    7a94:	22060000 	andcs	r0, r6, #0
    7a98:	000008b8 			; <UNDEFINED> instruction: 0x000008b8
    7a9c:	089e040d 	ldmeq	lr, {r0, r2, r3, sl}
    7aa0:	86200000 	strthi	r0, [r0], -r0
    7aa4:	01000006 	tsteq	r0, r6
    7aa8:	00928004 	addseq	r8, r2, r4
    7aac:	00002800 	andeq	r2, r0, r0, lsl #16
    7ab0:	049c0100 	ldreq	r0, [ip], #256	; 0x100
    7ab4:	21000009 	tstcs	r0, r9
    7ab8:	00009294 	muleq	r0, r4, r2
    7abc:	000008e6 	andeq	r0, r0, r6, ror #17
    7ac0:	05500122 	ldrbeq	r0, [r0, #-290]	; 0xfffffede
    7ac4:	009be003 	addseq	lr, fp, r3
    7ac8:	9c230000 	stcls	0, cr0, [r3], #-0
    7acc:	04000092 	streq	r0, [r0], #-146	; 0xffffff6e
    7ad0:	fa000009 	blx	7afc <_start-0x504>
    7ad4:	22000008 	andcs	r0, r0, #8
    7ad8:	08025001 	stmdaeq	r2, {r0, ip, lr}
    7adc:	a0240064 	eorge	r0, r4, r4, rrx
    7ae0:	0f000092 	svceq	0x00000092
    7ae4:	00000009 	andeq	r0, r0, r9
    7ae8:	00073c25 	andeq	r3, r7, r5, lsr #24
    7aec:	00073c00 	andeq	r3, r7, r0, lsl #24
    7af0:	254f0600 	strbcs	r0, [pc, #-1536]	; 74f8 <_start-0xb08>
    7af4:	00000e1c 	andeq	r0, r0, ip, lsl lr
    7af8:	00000e1c 	andeq	r0, r0, ip, lsl lr
    7afc:	17006206 	strne	r6, [r0, -r6, lsl #4]
    7b00:	0400000a 	streq	r0, [r0], #-10
    7b04:	0015fb00 	andseq	pc, r5, r0, lsl #22
    7b08:	37010400 	strcc	r0, [r1, -r0, lsl #8]
    7b0c:	0c00000c 	stceq	0, cr0, [r0], {12}
    7b10:	00000f1e 	andeq	r0, r0, lr, lsl pc
    7b14:	00000c9e 	muleq	r0, lr, ip
    7b18:	000092a8 	andeq	r9, r0, r8, lsr #5
    7b1c:	00000088 	andeq	r0, r0, r8, lsl #1
    7b20:	00000b9c 	muleq	r0, ip, fp
    7b24:	69050402 	stmdbvs	r5, {r1, sl}
    7b28:	0300746e 	movweq	r7, #1134	; 0x46e
    7b2c:	014a0704 	cmpeq	sl, r4, lsl #14
    7b30:	01030000 	mrseq	r0, (UNDEF: 3)
    7b34:	00062006 	andeq	r2, r6, r6
    7b38:	05020300 	streq	r0, [r2, #-768]	; 0xfffffd00
    7b3c:	0000066b 	andeq	r0, r0, fp, ror #12
    7b40:	c8050403 	stmdagt	r5, {r0, r1, sl}
    7b44:	03000001 	movweq	r0, #1
    7b48:	01c30508 	biceq	r0, r3, r8, lsl #10
    7b4c:	01030000 	mrseq	r0, (UNDEF: 3)
    7b50:	00061e08 	andeq	r1, r6, r8, lsl #28
    7b54:	07020300 	streq	r0, [r2, -r0, lsl #6]
    7b58:	0000041a 	andeq	r0, r0, sl, lsl r4
    7b5c:	45070403 	strmi	r0, [r7, #-1027]	; 0xfffffbfd
    7b60:	03000001 	movweq	r0, #1
    7b64:	01400708 	cmpeq	r0, r8, lsl #14
    7b68:	e2040000 	and	r0, r4, #0
    7b6c:	02000005 	andeq	r0, r0, #5
    7b70:	00002507 	andeq	r2, r0, r7, lsl #10
    7b74:	059e0400 	ldreq	r0, [lr, #1024]	; 0x400
    7b78:	2c030000 	stccs	0, cr0, [r3], {-0}
    7b7c:	00000041 	andeq	r0, r0, r1, asr #32
    7b80:	00076904 	andeq	r6, r7, r4, lsl #18
    7b84:	41720300 	cmnmi	r2, r0, lsl #6
    7b88:	05000000 	streq	r0, [r0, #-0]
    7b8c:	0000047e 	andeq	r0, r0, lr, ror r4
    7b90:	2c016504 	cfstr32cs	mvfx6, [r1], {4}
    7b94:	06000000 	streq	r0, [r0], -r0
    7b98:	b7a60304 	strlt	r0, [r6, r4, lsl #6]!
    7b9c:	07000000 	streq	r0, [r0, -r0]
    7ba0:	0000046b 	andeq	r0, r0, fp, ror #8
    7ba4:	008ca803 	addeq	sl, ip, r3, lsl #16
    7ba8:	7e070000 	cdpvc	0, 0, cr0, cr7, cr0, {0}
    7bac:	03000003 	movweq	r0, #3
    7bb0:	0000b7a9 	andeq	fp, r0, r9, lsr #15
    7bb4:	4f080000 	svcmi	0x00080000
    7bb8:	c7000000 	strgt	r0, [r0, -r0]
    7bbc:	09000000 	stmdbeq	r0, {}	; <UNPREDICTABLE>
    7bc0:	000000c7 	andeq	r0, r0, r7, asr #1
    7bc4:	04030003 	streq	r0, [r3], #-3
    7bc8:	00050e07 	andeq	r0, r5, r7, lsl #28
    7bcc:	03080a00 	movweq	r0, #35328	; 0x8a00
    7bd0:	0000efa3 	andeq	lr, r0, r3, lsr #31
    7bd4:	07450b00 	strbeq	r0, [r5, -r0, lsl #22]
    7bd8:	a5030000 	strge	r0, [r3, #-0]
    7bdc:	00000025 	andeq	r0, r0, r5, lsr #32
    7be0:	07ec0b00 	strbeq	r0, [ip, r0, lsl #22]!
    7be4:	aa030000 	bge	c7bec <__bss_end__+0xbdbfc>
    7be8:	00000098 	muleq	r0, r8, r0
    7bec:	a0040004 	andge	r0, r4, r4
    7bf0:	03000006 	movweq	r0, #6
    7bf4:	0000ceab 	andeq	ip, r0, fp, lsr #29
    7bf8:	031c0400 	tsteq	ip, #0, 8
    7bfc:	af030000 	svcge	0x00030000
    7c00:	0000006b 	andeq	r0, r0, fp, rrx
    7c04:	040d040c 	streq	r0, [sp], #-1036	; 0xfffffbf4
    7c08:	0000010d 	andeq	r0, r0, sp, lsl #2
    7c0c:	27080103 	strcs	r0, [r8, -r3, lsl #2]
    7c10:	0e000006 	cdpeq	0, 0, cr0, cr0, cr6, {0}
    7c14:	0000010d 	andeq	r0, r0, sp, lsl #2
    7c18:	00082604 	andeq	r2, r8, r4, lsl #12
    7c1c:	5d160500 	cfldr32pl	mvfx0, [r6, #-0]
    7c20:	0f000000 	svceq	0x00000000
    7c24:	0000032d 	andeq	r0, r0, sp, lsr #6
    7c28:	772d0518 			; <UNDEFINED> instruction: 0x772d0518
    7c2c:	0b000001 	bleq	7c38 <_start-0x3c8>
    7c30:	000006d1 	ldrdeq	r0, [r0], -r1
    7c34:	01772f05 	cmneq	r7, r5, lsl #30
    7c38:	10000000 	andne	r0, r0, r0
    7c3c:	05006b5f 	streq	r6, [r0, #-2911]	; 0xfffff4a1
    7c40:	00002530 	andeq	r2, r0, r0, lsr r5
    7c44:	1e0b0400 	cfcpysne	mvf0, mvf11
    7c48:	05000007 	streq	r0, [r0, #-7]
    7c4c:	00002530 	andeq	r2, r0, r0, lsr r5
    7c50:	160b0800 	strne	r0, [fp], -r0, lsl #16
    7c54:	05000003 	streq	r0, [r0, #-3]
    7c58:	00002530 	andeq	r2, r0, r0, lsr r5
    7c5c:	c50b0c00 	strgt	r0, [fp, #-3072]	; 0xfffff400
    7c60:	05000008 	streq	r0, [r0, #-8]
    7c64:	00002530 	andeq	r2, r0, r0, lsr r5
    7c68:	5f101000 	svcpl	0x00101000
    7c6c:	31050078 	tstcc	r5, r8, ror r0
    7c70:	0000017d 	andeq	r0, r0, sp, ror r1
    7c74:	040d0014 	streq	r0, [sp], #-20	; 0xffffffec
    7c78:	00000124 	andeq	r0, r0, r4, lsr #2
    7c7c:	00011908 	andeq	r1, r1, r8, lsl #18
    7c80:	00018d00 	andeq	r8, r1, r0, lsl #26
    7c84:	00c70900 	sbceq	r0, r7, r0, lsl #18
    7c88:	00000000 	andeq	r0, r0, r0
    7c8c:	0003700f 	andeq	r7, r3, pc
    7c90:	35052400 	strcc	r2, [r5, #-1024]	; 0xfffffc00
    7c94:	00000206 	andeq	r0, r0, r6, lsl #4
    7c98:	0001ba0b 	andeq	fp, r1, fp, lsl #20
    7c9c:	25370500 	ldrcs	r0, [r7, #-1280]!	; 0xfffffb00
    7ca0:	00000000 	andeq	r0, r0, r0
    7ca4:	0007910b 	andeq	r9, r7, fp, lsl #2
    7ca8:	25380500 	ldrcs	r0, [r8, #-1280]!	; 0xfffffb00
    7cac:	04000000 	streq	r0, [r0], #-0
    7cb0:	0002040b 	andeq	r0, r2, fp, lsl #8
    7cb4:	25390500 	ldrcs	r0, [r9, #-1280]!	; 0xfffffb00
    7cb8:	08000000 	stmdaeq	r0, {}	; <UNPREDICTABLE>
    7cbc:	0009d90b 	andeq	sp, r9, fp, lsl #18
    7cc0:	253a0500 	ldrcs	r0, [sl, #-1280]!	; 0xfffffb00
    7cc4:	0c000000 	stceq	0, cr0, [r0], {-0}
    7cc8:	0005630b 	andeq	r6, r5, fp, lsl #6
    7ccc:	253b0500 	ldrcs	r0, [fp, #-1280]!	; 0xfffffb00
    7cd0:	10000000 	andne	r0, r0, r0
    7cd4:	0004d10b 	andeq	sp, r4, fp, lsl #2
    7cd8:	253c0500 	ldrcs	r0, [ip, #-1280]!	; 0xfffffb00
    7cdc:	14000000 	strne	r0, [r0], #-0
    7ce0:	0008ca0b 	andeq	ip, r8, fp, lsl #20
    7ce4:	253d0500 	ldrcs	r0, [sp, #-1280]!	; 0xfffffb00
    7ce8:	18000000 	stmdane	r0, {}	; <UNPREDICTABLE>
    7cec:	0006750b 	andeq	r7, r6, fp, lsl #10
    7cf0:	253e0500 	ldrcs	r0, [lr, #-1280]!	; 0xfffffb00
    7cf4:	1c000000 	stcne	0, cr0, [r0], {-0}
    7cf8:	0009530b 	andeq	r5, r9, fp, lsl #6
    7cfc:	253f0500 	ldrcs	r0, [pc, #-1280]!	; 7804 <_start-0x7fc>
    7d00:	20000000 	andcs	r0, r0, r0
    7d04:	02131100 	andseq	r1, r3, #0, 2
    7d08:	01080000 	mrseq	r0, (UNDEF: 8)
    7d0c:	02464805 	subeq	r4, r6, #327680	; 0x50000
    7d10:	e80b0000 	stmda	fp, {}	; <UNPREDICTABLE>
    7d14:	05000002 	streq	r0, [r0, #-2]
    7d18:	00024649 	andeq	r4, r2, r9, asr #12
    7d1c:	000b0000 	andeq	r0, fp, r0
    7d20:	05000000 	streq	r0, [r0, #-0]
    7d24:	0002464a 	andeq	r4, r2, sl, asr #12
    7d28:	b3128000 	tstlt	r2, #0
    7d2c:	05000007 	streq	r0, [r0, #-7]
    7d30:	0001194c 	andeq	r1, r1, ip, asr #18
    7d34:	12010000 	andne	r0, r1, #0
    7d38:	0000025d 	andeq	r0, r0, sp, asr r2
    7d3c:	01194f05 	tsteq	r9, r5, lsl #30
    7d40:	01040000 	mrseq	r0, (UNDEF: 4)
    7d44:	01050800 	tsteq	r5, r0, lsl #16
    7d48:	02560000 	subseq	r0, r6, #0
    7d4c:	c7090000 	strgt	r0, [r9, -r0]
    7d50:	1f000000 	svcne	0x00000000
    7d54:	057d1100 	ldrbeq	r1, [sp, #-256]!	; 0xffffff00
    7d58:	01900000 	orrseq	r0, r0, r0
    7d5c:	02945b05 	addseq	r5, r4, #5120	; 0x1400
    7d60:	d10b0000 	mrsle	r0, (UNDEF: 11)
    7d64:	05000006 	streq	r0, [r0, #-6]
    7d68:	0002945c 	andeq	r9, r2, ip, asr r4
    7d6c:	ff0b0000 			; <UNDEFINED> instruction: 0xff0b0000
    7d70:	05000006 	streq	r0, [r0, #-6]
    7d74:	0000255d 	andeq	r2, r0, sp, asr r5
    7d78:	110b0400 	tstne	fp, r0, lsl #8
    7d7c:	05000003 	streq	r0, [r0, #-3]
    7d80:	00029a5f 	andeq	r9, r2, pc, asr sl
    7d84:	130b0800 	movwne	r0, #47104	; 0xb800
    7d88:	05000002 	streq	r0, [r0, #-2]
    7d8c:	00020660 	andeq	r0, r2, r0, ror #12
    7d90:	0d008800 	stceq	8, cr8, [r0, #-0]
    7d94:	00025604 	andeq	r5, r2, r4, lsl #12
    7d98:	02aa0800 	adceq	r0, sl, #0, 16
    7d9c:	02aa0000 	adceq	r0, sl, #0
    7da0:	c7090000 	strgt	r0, [r9, -r0]
    7da4:	1f000000 	svcne	0x00000000
    7da8:	b0040d00 	andlt	r0, r4, r0, lsl #26
    7dac:	13000002 	movwne	r0, #2
    7db0:	00067f0f 	andeq	r7, r6, pc, lsl #30
    7db4:	73050800 	movwvc	r0, #22528	; 0x5800
    7db8:	000002d6 	ldrdeq	r0, [r0], -r6
    7dbc:	0001fe0b 	andeq	pc, r1, fp, lsl #28
    7dc0:	d6740500 	ldrbtle	r0, [r4], -r0, lsl #10
    7dc4:	00000002 	andeq	r0, r0, r2
    7dc8:	0000a60b 	andeq	sl, r0, fp, lsl #12
    7dcc:	25750500 	ldrbcs	r0, [r5, #-1280]!	; 0xfffffb00
    7dd0:	04000000 	streq	r0, [r0], #-0
    7dd4:	4f040d00 	svcmi	0x00040d00
    7dd8:	0f000000 	svceq	0x00000000
    7ddc:	000006ab 	andeq	r0, r0, fp, lsr #13
    7de0:	06b30568 	ldrteq	r0, [r3], r8, ror #10
    7de4:	10000004 	andne	r0, r0, r4
    7de8:	0500705f 	streq	r7, [r0, #-95]	; 0xffffffa1
    7dec:	0002d6b4 			; <UNDEFINED> instruction: 0x0002d6b4
    7df0:	5f100000 	svcpl	0x00100000
    7df4:	b5050072 	strlt	r0, [r5, #-114]	; 0xffffff8e
    7df8:	00000025 	andeq	r0, r0, r5, lsr #32
    7dfc:	775f1004 	ldrbvc	r1, [pc, -r4]
    7e00:	25b60500 	ldrcs	r0, [r6, #1280]!	; 0x500
    7e04:	08000000 	stmdaeq	r0, {}	; <UNPREDICTABLE>
    7e08:	0002560b 	andeq	r5, r2, fp, lsl #12
    7e0c:	3ab70500 	bcc	fedc9214 <__bss_end__+0xfedbf224>
    7e10:	0c000000 	stceq	0, cr0, [r0], {-0}
    7e14:	0003af0b 	andeq	sl, r3, fp, lsl #30
    7e18:	3ab80500 	bcc	fee09220 <__bss_end__+0xfedff230>
    7e1c:	0e000000 	cdpeq	0, 0, cr0, cr0, cr0, {0}
    7e20:	66625f10 	uqadd16vs	r5, r2, r0
    7e24:	b1b90500 			; <UNDEFINED> instruction: 0xb1b90500
    7e28:	10000002 	andne	r0, r0, r2
    7e2c:	0001600b 	andeq	r6, r1, fp
    7e30:	25ba0500 	ldrcs	r0, [sl, #1280]!	; 0x500
    7e34:	18000000 	stmdane	r0, {}	; <UNPREDICTABLE>
    7e38:	0002210b 	andeq	r2, r2, fp, lsl #2
    7e3c:	05c10500 	strbeq	r0, [r1, #1280]	; 0x500
    7e40:	1c000001 	stcne	0, cr0, [r0], {1}
    7e44:	0008ad0b 	andeq	sl, r8, fp, lsl #26
    7e48:	61c30500 	bicvs	r0, r3, r0, lsl #10
    7e4c:	20000005 	andcs	r0, r0, r5
    7e50:	0001760b 	andeq	r7, r1, fp, lsl #12
    7e54:	8bc50500 	blhi	ff14925c <__bss_end__+0xff13f26c>
    7e58:	24000005 	strcs	r0, [r0], #-5
    7e5c:	0007560b 	andeq	r5, r7, fp, lsl #12
    7e60:	afc80500 	svcge	0x00c80500
    7e64:	28000005 	stmdacs	r0, {r0, r2}
    7e68:	00096d0b 	andeq	r6, r9, fp, lsl #26
    7e6c:	c9c90500 	stmibgt	r9, {r8, sl}^
    7e70:	2c000005 	stccs	0, cr0, [r0], {5}
    7e74:	62755f10 	rsbsvs	r5, r5, #16, 30	; 0x40
    7e78:	b1cc0500 	biclt	r0, ip, r0, lsl #10
    7e7c:	30000002 	andcc	r0, r0, r2
    7e80:	70755f10 	rsbsvc	r5, r5, r0, lsl pc
    7e84:	d6cd0500 	strble	r0, [sp], r0, lsl #10
    7e88:	38000002 	stmdacc	r0, {r1}
    7e8c:	72755f10 	rsbsvc	r5, r5, #16, 30	; 0x40
    7e90:	25ce0500 	strbcs	r0, [lr, #1280]	; 0x500
    7e94:	3c000000 	stccc	0, cr0, [r0], {-0}
    7e98:	0001f00b 	andeq	pc, r1, fp
    7e9c:	cfd10500 	svcgt	0x00d10500
    7ea0:	40000005 	andmi	r0, r0, r5
    7ea4:	0009240b 	andeq	r2, r9, fp, lsl #8
    7ea8:	dfd20500 	svcle	0x00d20500
    7eac:	43000005 	movwmi	r0, #5
    7eb0:	626c5f10 	rsbvs	r5, ip, #16, 30	; 0x40
    7eb4:	b1d50500 	bicslt	r0, r5, r0, lsl #10
    7eb8:	44000002 	strmi	r0, [r0], #-2
    7ebc:	0002730b 	andeq	r7, r2, fp, lsl #6
    7ec0:	25d80500 	ldrbcs	r0, [r8, #1280]	; 0x500
    7ec4:	4c000000 	stcmi	0, cr0, [r0], {-0}
    7ec8:	0002a90b 	andeq	sl, r2, fp, lsl #18
    7ecc:	76d90500 	ldrbvc	r0, [r9], r0, lsl #10
    7ed0:	50000000 	andpl	r0, r0, r0
    7ed4:	00064c0b 	andeq	r4, r6, fp, lsl #24
    7ed8:	24dc0500 	ldrbcs	r0, [ip], #1280	; 0x500
    7edc:	54000004 	strpl	r0, [r0], #-4
    7ee0:	0010900b 	andseq	r9, r0, fp
    7ee4:	fae00500 	blx	ff8092ec <__bss_end__+0xff7ff2fc>
    7ee8:	58000000 	stmdapl	r0, {}	; <UNPREDICTABLE>
    7eec:	0006c30b 	andeq	ip, r6, fp, lsl #6
    7ef0:	efe20500 	svc	0x00e20500
    7ef4:	5c000000 	stcpl	0, cr0, [r0], {-0}
    7ef8:	00049f0b 	andeq	r9, r4, fp, lsl #30
    7efc:	25e30500 	strbcs	r0, [r3, #1280]!	; 0x500
    7f00:	64000000 	strvs	r0, [r0], #-0
    7f04:	00251400 	eoreq	r1, r5, r0, lsl #8
    7f08:	04240000 	strteq	r0, [r4], #-0
    7f0c:	24150000 	ldrcs	r0, [r5], #-0
    7f10:	15000004 	strne	r0, [r0, #-4]
    7f14:	00000105 	andeq	r0, r0, r5, lsl #2
    7f18:	00010715 	andeq	r0, r1, r5, lsl r7
    7f1c:	00251500 	eoreq	r1, r5, r0, lsl #10
    7f20:	0d000000 	stceq	0, cr0, [r0, #-0]
    7f24:	00042f04 	andeq	r2, r4, r4, lsl #30
    7f28:	04240e00 	strteq	r0, [r4], #-3584	; 0xfffff200
    7f2c:	26160000 	ldrcs	r0, [r6], -r0
    7f30:	28000007 	stmdacs	r0, {r0, r1, r2}
    7f34:	02380504 	eorseq	r0, r8, #4, 10	; 0x1000000
    7f38:	00000561 	andeq	r0, r0, r1, ror #10
    7f3c:	00066417 	andeq	r6, r6, r7, lsl r4
    7f40:	023a0500 	eorseq	r0, sl, #0, 10
    7f44:	00000025 	andeq	r0, r0, r5, lsr #32
    7f48:	02651700 	rsbeq	r1, r5, #0, 14
    7f4c:	3f050000 	svccc	0x00050000
    7f50:	00063602 	andeq	r3, r6, r2, lsl #12
    7f54:	94170400 	ldrls	r0, [r7], #-1024	; 0xfffffc00
    7f58:	05000003 	streq	r0, [r0, #-3]
    7f5c:	0636023f 			; <UNDEFINED> instruction: 0x0636023f
    7f60:	17080000 	strne	r0, [r8, -r0]
    7f64:	00000325 	andeq	r0, r0, r5, lsr #6
    7f68:	36023f05 	strcc	r3, [r2], -r5, lsl #30
    7f6c:	0c000006 	stceq	0, cr0, [r0], {6}
    7f70:	0006fa17 	andeq	pc, r6, r7, lsl sl	; <UNPREDICTABLE>
    7f74:	02410500 	subeq	r0, r1, #0, 10
    7f78:	00000025 	andeq	r0, r0, r5, lsr #32
    7f7c:	00e51710 	rsceq	r1, r5, r0, lsl r7
    7f80:	42050000 	andmi	r0, r5, #0
    7f84:	00081802 	andeq	r1, r8, r2, lsl #16
    7f88:	6f171400 	svcvs	0x00171400
    7f8c:	05000008 	streq	r0, [r0, #-8]
    7f90:	00250244 	eoreq	r0, r5, r4, asr #4
    7f94:	17300000 	ldrne	r0, [r0, -r0]!
    7f98:	00000704 	andeq	r0, r0, r4, lsl #14
    7f9c:	85024505 	strhi	r4, [r2, #-1285]	; 0xfffffafb
    7fa0:	34000005 	strcc	r0, [r0], #-5
    7fa4:	00059317 	andeq	r9, r5, r7, lsl r3
    7fa8:	02470500 	subeq	r0, r7, #0, 10
    7fac:	00000025 	andeq	r0, r0, r5, lsr #32
    7fb0:	07141738 			; <UNDEFINED> instruction: 0x07141738
    7fb4:	49050000 	stmdbmi	r5, {}	; <UNPREDICTABLE>
    7fb8:	00083302 	andeq	r3, r8, r2, lsl #6
    7fbc:	63173c00 	tstvs	r7, #0, 24
    7fc0:	05000004 	streq	r0, [r0, #-4]
    7fc4:	0177024c 	cmneq	r7, ip, asr #4
    7fc8:	17400000 	strbne	r0, [r0, -r0]
    7fcc:	0000035a 	andeq	r0, r0, sl, asr r3
    7fd0:	25024d05 	strcs	r4, [r2, #-3333]	; 0xfffff2fb
    7fd4:	44000000 	strmi	r0, [r0], #-0
    7fd8:	00099017 	andeq	r9, r9, r7, lsl r0
    7fdc:	024e0500 	subeq	r0, lr, #0, 10
    7fe0:	00000177 	andeq	r0, r0, r7, ror r1
    7fe4:	05c81748 	strbeq	r1, [r8, #1864]	; 0x748
    7fe8:	4f050000 	svcmi	0x00050000
    7fec:	00083902 	andeq	r3, r8, r2, lsl #18
    7ff0:	9c174c00 	ldcls	12, cr4, [r7], {-0}
    7ff4:	05000003 	streq	r0, [r0, #-3]
    7ff8:	00250252 	eoreq	r0, r5, r2, asr r2
    7ffc:	17500000 	ldrbne	r0, [r0, -r0]
    8000:	000002a1 	andeq	r0, r0, r1, lsr #5
    8004:	07025305 	streq	r5, [r2, -r5, lsl #6]
    8008:	54000001 	strpl	r0, [r0], #-1
    800c:	00115217 	andseq	r5, r1, r7, lsl r2
    8010:	02760500 	rsbseq	r0, r6, #0, 10
    8014:	000007f6 	strdeq	r0, [r0], -r6
    8018:	057d1858 	ldrbeq	r1, [sp, #-2136]!	; 0xfffff7a8
    801c:	7a050000 	bvc	148024 <__bss_end__+0x13e034>
    8020:	00029402 	andeq	r9, r2, r2, lsl #8
    8024:	18014800 	stmdane	r1, {fp, lr}
    8028:	0000042d 	andeq	r0, r0, sp, lsr #8
    802c:	56027b05 	strpl	r7, [r2], -r5, lsl #22
    8030:	4c000002 	stcmi	0, cr0, [r0], {2}
    8034:	08f51801 	ldmeq	r5!, {r0, fp, ip}^
    8038:	7f050000 	svcvc	0x00050000
    803c:	00084a02 	andeq	r4, r8, r2, lsl #20
    8040:	1802dc00 	stmdane	r2, {sl, fp, ip, lr, pc}
    8044:	00000229 	andeq	r0, r0, r9, lsr #4
    8048:	fb028405 	blx	a9066 <__bss_end__+0x9f076>
    804c:	e0000005 	and	r0, r0, r5
    8050:	020e1802 	andeq	r1, lr, #131072	; 0x20000
    8054:	85050000 	strhi	r0, [r5, #-0]
    8058:	00085602 	andeq	r5, r8, r2, lsl #12
    805c:	0002ec00 	andeq	lr, r2, r0, lsl #24
    8060:	0406040d 	streq	r0, [r6], #-1037	; 0xfffffbf3
    8064:	25140000 	ldrcs	r0, [r4, #-0]
    8068:	85000000 	strhi	r0, [r0, #-0]
    806c:	15000005 	strne	r0, [r0, #-5]
    8070:	00000424 	andeq	r0, r0, r4, lsr #8
    8074:	00010515 	andeq	r0, r1, r5, lsl r5
    8078:	05851500 	streq	r1, [r5, #1280]	; 0x500
    807c:	25150000 	ldrcs	r0, [r5, #-0]
    8080:	00000000 	andeq	r0, r0, r0
    8084:	0114040d 	tsteq	r4, sp, lsl #8
    8088:	040d0000 	streq	r0, [sp], #-0
    808c:	00000567 	andeq	r0, r0, r7, ror #10
    8090:	00008114 	andeq	r8, r0, r4, lsl r1
    8094:	0005af00 	andeq	sl, r5, r0, lsl #30
    8098:	04241500 	strteq	r1, [r4], #-1280	; 0xfffffb00
    809c:	05150000 	ldreq	r0, [r5, #-0]
    80a0:	15000001 	strne	r0, [r0, #-1]
    80a4:	00000081 	andeq	r0, r0, r1, lsl #1
    80a8:	00002515 	andeq	r2, r0, r5, lsl r5
    80ac:	040d0000 	streq	r0, [sp], #-0
    80b0:	00000591 	muleq	r0, r1, r5
    80b4:	00002514 	andeq	r2, r0, r4, lsl r5
    80b8:	0005c900 	andeq	ip, r5, r0, lsl #18
    80bc:	04241500 	strteq	r1, [r4], #-1280	; 0xfffffb00
    80c0:	05150000 	ldreq	r0, [r5, #-0]
    80c4:	00000001 	andeq	r0, r0, r1
    80c8:	05b5040d 	ldreq	r0, [r5, #1037]!	; 0x40d
    80cc:	4f080000 	svcmi	0x00080000
    80d0:	df000000 	svcle	0x00000000
    80d4:	09000005 	stmdbeq	r0, {r0, r2}
    80d8:	000000c7 	andeq	r0, r0, r7, asr #1
    80dc:	4f080002 	svcmi	0x00080002
    80e0:	ef000000 	svc	0x00000000
    80e4:	09000005 	stmdbeq	r0, {r0, r2}
    80e8:	000000c7 	andeq	r0, r0, r7, asr #1
    80ec:	99050000 	stmdbls	r5, {}	; <UNPREDICTABLE>
    80f0:	05000006 	streq	r0, [r0, #-6]
    80f4:	02dc011d 	sbcseq	r0, ip, #1073741831	; 0x40000007
    80f8:	d4190000 	ldrle	r0, [r9], #-0
    80fc:	0c000008 	stceq	0, cr0, [r0], {8}
    8100:	30012105 	andcc	r2, r1, r5, lsl #2
    8104:	17000006 	strne	r0, [r0, -r6]
    8108:	000006d1 	ldrdeq	r0, [r0], -r1
    810c:	30012305 	andcc	r2, r1, r5, lsl #6
    8110:	00000006 	andeq	r0, r0, r6
    8114:	0003fd17 	andeq	pc, r3, r7, lsl sp	; <UNPREDICTABLE>
    8118:	01240500 			; <UNDEFINED> instruction: 0x01240500
    811c:	00000025 	andeq	r0, r0, r5, lsr #32
    8120:	06931704 	ldreq	r1, [r3], r4, lsl #14
    8124:	25050000 	strcs	r0, [r5, #-0]
    8128:	00063601 	andeq	r3, r6, r1, lsl #12
    812c:	0d000800 	stceq	8, cr0, [r0, #-0]
    8130:	0005fb04 	andeq	pc, r5, r4, lsl #22
    8134:	ef040d00 	svc	0x00040d00
    8138:	19000005 	stmdbne	r0, {r0, r2}
    813c:	000000c9 	andeq	r0, r0, r9, asr #1
    8140:	013d050e 	teqeq	sp, lr, lsl #10
    8144:	00000671 	andeq	r0, r0, r1, ror r6
    8148:	00073617 	andeq	r3, r7, r7, lsl r6
    814c:	013e0500 	teqeq	lr, r0, lsl #10
    8150:	00000671 	andeq	r0, r0, r1, ror r6
    8154:	07d91700 	ldrbeq	r1, [r9, r0, lsl #14]
    8158:	3f050000 	svccc	0x00050000
    815c:	00067101 	andeq	r7, r6, r1, lsl #2
    8160:	18170600 	ldmdane	r7, {r9, sl}
    8164:	05000008 	streq	r0, [r0, #-8]
    8168:	00560140 	subseq	r0, r6, r0, asr #2
    816c:	000c0000 	andeq	r0, ip, r0
    8170:	00005608 	andeq	r5, r0, r8, lsl #12
    8174:	00068100 	andeq	r8, r6, r0, lsl #2
    8178:	00c70900 	sbceq	r0, r7, r0, lsl #18
    817c:	00020000 	andeq	r0, r2, r0
    8180:	5705d01a 	smladpl	r5, sl, r0, sp
    8184:	00078202 	andeq	r8, r7, r2, lsl #4
    8188:	089d1700 	ldmeq	sp, {r8, r9, sl, ip}
    818c:	59050000 	stmdbpl	r5, {}	; <UNPREDICTABLE>
    8190:	00002c02 	andeq	r2, r0, r2, lsl #24
    8194:	df170000 	svcle	0x00170000
    8198:	05000007 	streq	r0, [r0, #-7]
    819c:	0107025a 	tsteq	r7, sl, asr r2
    81a0:	17040000 	strne	r0, [r4, -r0]
    81a4:	00000442 	andeq	r0, r0, r2, asr #8
    81a8:	82025b05 	andhi	r5, r2, #5120	; 0x1400
    81ac:	08000007 	stmdaeq	r0, {r0, r1, r2}
    81b0:	00095e17 	andeq	r5, r9, r7, lsl lr
    81b4:	025c0500 	subseq	r0, ip, #0, 10
    81b8:	0000018d 	andeq	r0, r0, sp, lsl #3
    81bc:	03351724 	teqeq	r5, #36, 14	; 0x900000
    81c0:	5d050000 	stcpl	0, cr0, [r5, #-0]
    81c4:	00002502 	andeq	r2, r0, r2, lsl #10
    81c8:	cc174800 	ldcgt	8, cr4, [r7], {-0}
    81cc:	05000006 	streq	r0, [r0, #-6]
    81d0:	0064025e 	rsbeq	r0, r4, lr, asr r2
    81d4:	17500000 	ldrbne	r0, [r0, -r0]
    81d8:	00000974 	andeq	r0, r0, r4, ror r9
    81dc:	3c025f05 	stccc	15, cr5, [r2], {5}
    81e0:	58000006 	stmdapl	r0, {r1, r2}
    81e4:	0006ed17 	andeq	lr, r6, r7, lsl sp
    81e8:	02600500 	rsbeq	r0, r0, #0, 10
    81ec:	000000ef 	andeq	r0, r0, pc, ror #1
    81f0:	09821768 	stmibeq	r2, {r3, r5, r6, r8, r9, sl, ip}
    81f4:	61050000 	mrsvs	r0, (UNDEF: 5)
    81f8:	0000ef02 	andeq	lr, r0, r2, lsl #30
    81fc:	ac177000 	ldcge	0, cr7, [r7], {-0}
    8200:	05000001 	streq	r0, [r0, #-1]
    8204:	00ef0262 	rsceq	r0, pc, r2, ror #4
    8208:	17780000 	ldrbne	r0, [r8, -r0]!
    820c:	000008eb 	andeq	r0, r0, fp, ror #17
    8210:	92026305 	andls	r6, r2, #335544320	; 0x14000000
    8214:	80000007 	andhi	r0, r0, r7
    8218:	00043617 	andeq	r3, r4, r7, lsl r6
    821c:	02640500 	rsbeq	r0, r4, #0, 10
    8220:	000007a2 	andeq	r0, r0, r2, lsr #15
    8224:	082e1788 	stmdaeq	lr!, {r3, r7, r8, r9, sl, ip}
    8228:	65050000 	strvs	r0, [r5, #-0]
    822c:	00002502 	andeq	r2, r0, r2, lsl #10
    8230:	da17a000 	ble	5f0238 <__bss_end__+0x5e6248>
    8234:	05000002 	streq	r0, [r0, #-2]
    8238:	00ef0266 	rsceq	r0, pc, r6, ror #4
    823c:	17a40000 	strne	r0, [r4, r0]!
    8240:	00000188 	andeq	r0, r0, r8, lsl #3
    8244:	ef026705 	svc	0x00026705
    8248:	ac000000 	stcge	0, cr0, [r0], {-0}
    824c:	0002c017 	andeq	ip, r2, r7, lsl r0
    8250:	02680500 	rsbeq	r0, r8, #0, 10
    8254:	000000ef 	andeq	r0, r0, pc, ror #1
    8258:	012017b4 			; <UNDEFINED> instruction: 0x012017b4
    825c:	69050000 	stmdbvs	r5, {}	; <UNPREDICTABLE>
    8260:	0000ef02 	andeq	lr, r0, r2, lsl #30
    8264:	2f17bc00 	svccs	0x0017bc00
    8268:	05000001 	streq	r0, [r0, #-1]
    826c:	00ef026a 	rsceq	r0, pc, sl, ror #4
    8270:	17c40000 	strbne	r0, [r4, r0]
    8274:	00000662 	andeq	r0, r0, r2, ror #12
    8278:	25026b05 	strcs	r6, [r2, #-2821]	; 0xfffff4fb
    827c:	cc000000 	stcgt	0, cr0, [r0], {-0}
    8280:	010d0800 	tsteq	sp, r0, lsl #16
    8284:	07920000 	ldreq	r0, [r2, r0]
    8288:	c7090000 	strgt	r0, [r9, -r0]
    828c:	19000000 	stmdbne	r0, {}	; <UNPREDICTABLE>
    8290:	010d0800 	tsteq	sp, r0, lsl #16
    8294:	07a20000 	streq	r0, [r2, r0]!
    8298:	c7090000 	strgt	r0, [r9, -r0]
    829c:	07000000 	streq	r0, [r0, -r0]
    82a0:	010d0800 	tsteq	sp, r0, lsl #16
    82a4:	07b20000 	ldreq	r0, [r2, r0]!
    82a8:	c7090000 	strgt	r0, [r9, -r0]
    82ac:	17000000 	strne	r0, [r0, -r0]
    82b0:	05f01a00 	ldrbeq	r1, [r0, #2560]!	; 0xa00
    82b4:	07d60270 			; <UNDEFINED> instruction: 0x07d60270
    82b8:	52170000 	andspl	r0, r7, #0
    82bc:	05000005 	streq	r0, [r0, #-5]
    82c0:	07d60273 			; <UNDEFINED> instruction: 0x07d60273
    82c4:	17000000 	strne	r0, [r0, -r0]
    82c8:	000004f9 	strdeq	r0, [r0], -r9
    82cc:	e6027405 	str	r7, [r2], -r5, lsl #8
    82d0:	78000007 	stmdavc	r0, {r0, r1, r2}
    82d4:	02d60800 	sbcseq	r0, r6, #0, 16
    82d8:	07e60000 	strbeq	r0, [r6, r0]!
    82dc:	c7090000 	strgt	r0, [r9, -r0]
    82e0:	1d000000 	stcne	0, cr0, [r0, #-0]
    82e4:	002c0800 	eoreq	r0, ip, r0, lsl #16
    82e8:	07f60000 	ldrbeq	r0, [r6, r0]!
    82ec:	c7090000 	strgt	r0, [r9, -r0]
    82f0:	1d000000 	stcne	0, cr0, [r0, #-0]
    82f4:	05f01b00 	ldrbeq	r1, [r0, #2816]!	; 0xb00
    82f8:	08180255 	ldmdaeq	r8, {r0, r2, r4, r6, r9}
    82fc:	261c0000 	ldrcs	r0, [ip], -r0
    8300:	05000007 	streq	r0, [r0, #-7]
    8304:	0681026c 	streq	r0, [r1], ip, ror #4
    8308:	2a1c0000 	bcs	708310 <__bss_end__+0x6fe320>
    830c:	05000009 	streq	r0, [r0, #-9]
    8310:	07b20275 			; <UNDEFINED> instruction: 0x07b20275
    8314:	08000000 	stmdaeq	r0, {}	; <UNPREDICTABLE>
    8318:	0000010d 	andeq	r0, r0, sp, lsl #2
    831c:	00000828 	andeq	r0, r0, r8, lsr #16
    8320:	0000c709 	andeq	ip, r0, r9, lsl #14
    8324:	1d001800 	stcne	8, cr1, [r0, #-0]
    8328:	00000833 	andeq	r0, r0, r3, lsr r8
    832c:	00042415 	andeq	r2, r4, r5, lsl r4
    8330:	040d0000 	streq	r0, [sp], #-0
    8334:	00000828 	andeq	r0, r0, r8, lsr #16
    8338:	0177040d 	cmneq	r7, sp, lsl #8
    833c:	4a1d0000 	bmi	748344 <__bss_end__+0x73e354>
    8340:	15000008 	strne	r0, [r0, #-8]
    8344:	00000025 	andeq	r0, r0, r5, lsr #32
    8348:	50040d00 	andpl	r0, r4, r0, lsl #26
    834c:	0d000008 	stceq	0, cr0, [r0, #-32]	; 0xffffffe0
    8350:	00083f04 	andeq	r3, r8, r4, lsl #30
    8354:	05ef0800 	strbeq	r0, [pc, #2048]!	; 8b5c <i2c_init+0x6c>
    8358:	08660000 	stmdaeq	r6!, {}^	; <UNPREDICTABLE>
    835c:	c7090000 	strgt	r0, [r9, -r0]
    8360:	02000000 	andeq	r0, r0, #0
    8364:	08631e00 	stmdaeq	r3!, {r9, sl, fp, ip}^
    8368:	fd050000 	stc2	0, cr0, [r5, #-0]
    836c:	00042402 	andeq	r2, r4, r2, lsl #8
    8370:	085c1e00 	ldmdaeq	ip, {r9, sl, fp, ip}^
    8374:	fe050000 	cdp2	0, 0, cr0, cr5, cr0, {0}
    8378:	00042a02 	andeq	r2, r4, r2, lsl #20
    837c:	00251400 	eoreq	r1, r5, r0, lsl #8
    8380:	088d0000 	stmeq	sp, {}	; <UNPREDICTABLE>
    8384:	25150000 	ldrcs	r0, [r5, #-0]
    8388:	00000000 	andeq	r0, r0, r0
    838c:	0003641f 	andeq	r6, r3, pc, lsl r4
    8390:	981d0600 	ldmdals	sp, {r9, sl}
    8394:	0d000008 	stceq	0, cr0, [r0, #-32]	; 0xffffffe0
    8398:	00087e04 	andeq	r7, r8, r4, lsl #28
    839c:	00251400 	eoreq	r1, r5, r0, lsl #8
    83a0:	08ad0000 	stmiaeq	sp!, {}	; <UNPREDICTABLE>
    83a4:	85150000 	ldrhi	r0, [r5, #-0]
    83a8:	00000005 	andeq	r0, r0, r5
    83ac:	000d2b1f 	andeq	r2, sp, pc, lsl fp
    83b0:	b8220600 	stmdalt	r2!, {r9, sl}
    83b4:	0d000008 	stceq	0, cr0, [r0, #-32]	; 0xffffffe0
    83b8:	00089e04 	andeq	r9, r8, r4, lsl #28
    83bc:	0f072000 	svceq	0x00072000
    83c0:	25010000 	strcs	r0, [r1, #-0]
    83c4:	0000931c 	andeq	r9, r0, ip, lsl r3
    83c8:	00000014 	andeq	r0, r0, r4, lsl r0
    83cc:	08f89c01 	ldmeq	r8!, {r0, sl, fp, ip, pc}^
    83d0:	73210000 			; <UNDEFINED> instruction: 0x73210000
    83d4:	01006365 	tsteq	r0, r5, ror #6
    83d8:	00002c25 	andeq	r2, r0, r5, lsr #24
    83dc:	000f9700 	andeq	r9, pc, r0, lsl #14
    83e0:	932c2200 			; <UNDEFINED> instruction: 0x932c2200
    83e4:	08f80000 	ldmeq	r8!, {}^	; <UNPREDICTABLE>
    83e8:	01230000 			; <UNDEFINED> instruction: 0x01230000
    83ec:	01f30750 	mvnseq	r0, r0, asr r7
    83f0:	03e80a50 	mvneq	r0, #80, 20	; 0x50000
    83f4:	2000001e 	andcs	r0, r0, lr, lsl r0
    83f8:	0000073c 	andeq	r0, r0, ip, lsr r7
    83fc:	93082201 	movwls	r2, #33281	; 0x8201
    8400:	00140000 	andseq	r0, r4, r0
    8404:	9c010000 	stcls	0, cr0, [r1], {-0}
    8408:	00000931 	andeq	r0, r0, r1, lsr r9
    840c:	00736d21 	rsbseq	r6, r3, r1, lsr #26
    8410:	002c2201 	eoreq	r2, ip, r1, lsl #4
    8414:	0fb80000 	svceq	0x00b80000
    8418:	18220000 	stmdane	r2!, {}	; <UNPREDICTABLE>
    841c:	31000093 	swpcc	r0, r3, [r0]	; <UNPREDICTABLE>
    8420:	23000009 	movwcs	r0, #9
    8424:	f3075001 	vhadd.u8	d5, d7, d1
    8428:	e80a5001 	stmda	sl, {r0, ip, lr}
    842c:	00001e03 	andeq	r1, r0, r3, lsl #28
    8430:	000f5020 	andeq	r5, pc, r0, lsr #32
    8434:	e4190100 	ldr	r0, [r9], #-256	; 0xffffff00
    8438:	24000092 	strcs	r0, [r0], #-146	; 0xffffff6e
    843c:	01000000 	mrseq	r0, (UNDEF: 0)
    8440:	00098f9c 	muleq	r9, ip, pc	; <UNPREDICTABLE>
    8444:	73752100 	cmnvc	r5, #0, 2
    8448:	2c190100 	ldfcss	f0, [r9], {-0}
    844c:	d9000000 	stmdble	r0, {}	; <UNPREDICTABLE>
    8450:	2400000f 	strcs	r0, [r0], #-15
    8454:	01006272 	tsteq	r0, r2, ror r2
    8458:	00002c1a 	andeq	r2, r0, sl, lsl ip
    845c:	25540100 	ldrbcs	r0, [r4, #-256]	; 0xffffff00
    8460:	000092f4 	strdeq	r9, [r0], -r4
    8464:	00000010 	andeq	r0, r0, r0, lsl r0
    8468:	00000985 	andeq	r0, r0, r5, lsl #19
    846c:	00617226 	rsbeq	r7, r1, r6, lsr #4
    8470:	002c1c01 	eoreq	r1, ip, r1, lsl #24
    8474:	0ff70000 	svceq	0x00f70000
    8478:	f8270000 			; <UNDEFINED> instruction: 0xf8270000
    847c:	8f000092 	svchi	0x00000092
    8480:	00000009 	andeq	r0, r0, r9
    8484:	0092f027 	addseq	pc, r2, r7, lsr #32
    8488:	00098f00 	andeq	r8, r9, r0, lsl #30
    848c:	f8280000 			; <UNDEFINED> instruction: 0xf8280000
    8490:	0100000e 	tsteq	r0, lr
    8494:	00002c10 	andeq	r2, r0, r0, lsl ip
    8498:	0092d800 	addseq	sp, r2, r0, lsl #16
    849c:	00000c00 	andeq	r0, r0, r0, lsl #24
    84a0:	bd9c0100 	ldflts	f0, [ip]
    84a4:	24000009 	strcs	r0, [r0], #-9
    84a8:	14010075 	strne	r0, [r1], #-117	; 0xffffff8b
    84ac:	0000002c 	andeq	r0, r0, ip, lsr #32
    84b0:	e0275001 	eor	r5, r7, r1
    84b4:	bd000092 	stclt	0, cr0, [r0, #-584]	; 0xfffffdb8
    84b8:	00000009 	andeq	r0, r0, r9
    84bc:	000f3d28 	andeq	r3, pc, r8, lsr #26
    84c0:	2c0b0100 	stfcss	f0, [fp], {-0}
    84c4:	c4000000 	strgt	r0, [r0], #-0
    84c8:	14000092 	strne	r0, [r0], #-146	; 0xffffff6e
    84cc:	01000000 	mrseq	r0, (UNDEF: 0)
    84d0:	0009ea9c 	muleq	r9, ip, sl
    84d4:	92d02200 	sbcsls	r2, r0, #0, 4
    84d8:	0a0f0000 	beq	3c84e0 <__bss_end__+0x3be4f0>
    84dc:	01230000 			; <UNDEFINED> instruction: 0x01230000
    84e0:	040c0550 	streq	r0, [ip], #-1360	; 0xfffffab0
    84e4:	00200030 	eoreq	r0, r0, r0, lsr r0
    84e8:	0f112000 	svceq	0x00112000
    84ec:	05010000 	streq	r0, [r1, #-0]
    84f0:	000092a8 	andeq	r9, r0, r8, lsr #5
    84f4:	0000001c 	andeq	r0, r0, ip, lsl r0
    84f8:	0a0f9c01 	beq	3ef504 <__bss_end__+0x3e5514>
    84fc:	31290000 			; <UNDEFINED> instruction: 0x31290000
    8500:	0100000f 	tsteq	r0, pc
    8504:	00002c05 	andeq	r2, r0, r5, lsl #24
    8508:	00100a00 	andseq	r0, r0, r0, lsl #20
    850c:	372a0000 	strcc	r0, [sl, -r0]!
    8510:	3700000f 	strcc	r0, [r0, -pc]
    8514:	0600000f 	streq	r0, [r0], -pc
    8518:	0c9500a7 	ldceq	0, cr0, [r5], {167}	; 0xa7
    851c:	00040000 	andeq	r0, r4, r0
    8520:	00001831 	andeq	r1, r0, r1, lsr r8
    8524:	0fad0104 	svceq	0x00ad0104
    8528:	6e0c0000 	cdpvs	0, 0, cr0, cr12, cr0, {0}
    852c:	4100000f 	tstmi	r0, pc
    8530:	94000010 	strls	r0, [r0], #-16
    8534:	60000093 	mulvs	r0, r3, r0
    8538:	82000001 	andhi	r0, r0, #1
    853c:	0200000c 	andeq	r0, r0, #12
    8540:	6e690504 	cdpvs	5, 6, cr0, cr9, cr4, {0}
    8544:	04030074 	streq	r0, [r3], #-116	; 0xffffff8c
    8548:	00014a07 	andeq	r4, r1, r7, lsl #20
    854c:	002c0400 	eoreq	r0, ip, r0, lsl #8
    8550:	01030000 	mrseq	r0, (UNDEF: 3)
    8554:	00062006 	andeq	r2, r6, r6
    8558:	05020300 	streq	r0, [r2, #-768]	; 0xfffffd00
    855c:	0000066b 	andeq	r0, r0, fp, ror #12
    8560:	c8050403 	stmdagt	r5, {r0, r1, sl}
    8564:	03000001 	movweq	r0, #1
    8568:	01c30508 	biceq	r0, r3, r8, lsl #10
    856c:	01030000 	mrseq	r0, (UNDEF: 3)
    8570:	00061e08 	andeq	r1, r6, r8, lsl #28
    8574:	07020300 	streq	r0, [r2, -r0, lsl #6]
    8578:	0000041a 	andeq	r0, r0, sl, lsl r4
    857c:	45070403 	strmi	r0, [r7, #-1027]	; 0xfffffbfd
    8580:	03000001 	movweq	r0, #1
    8584:	01400708 	cmpeq	r0, r8, lsl #14
    8588:	a5050000 	strge	r0, [r5, #-0]
    858c:	0200000f 	andeq	r0, r0, #15
    8590:	00007b22 	andeq	r7, r0, r2, lsr #22
    8594:	81040600 	tsthi	r4, r0, lsl #12
    8598:	07000000 	streq	r0, [r0, -r0]
    859c:	0000108f 	andeq	r1, r0, pc, lsl #1
    85a0:	00059e05 	andeq	r9, r5, r5, lsl #28
    85a4:	462c0300 	strtmi	r0, [ip], -r0, lsl #6
    85a8:	05000000 	streq	r0, [r0, #-0]
    85ac:	00000769 	andeq	r0, r0, r9, ror #14
    85b0:	00467203 	subeq	r7, r6, r3, lsl #4
    85b4:	7e080000 	cdpvc	0, 0, cr0, cr8, cr0, {0}
    85b8:	04000004 	streq	r0, [r0], #-4
    85bc:	002c0165 	eoreq	r0, ip, r5, ror #2
    85c0:	04090000 	streq	r0, [r9], #-0
    85c4:	00c7a603 	sbceq	sl, r7, r3, lsl #12
    85c8:	6b0a0000 	blvs	2885d0 <__bss_end__+0x27e5e0>
    85cc:	03000004 	movweq	r0, #4
    85d0:	00009ca8 	andeq	r9, r0, r8, lsr #25
    85d4:	037e0a00 	cmneq	lr, #0, 20
    85d8:	a9030000 	stmdbge	r3, {}	; <UNPREDICTABLE>
    85dc:	000000c7 	andeq	r0, r0, r7, asr #1
    85e0:	00540b00 	subseq	r0, r4, r0, lsl #22
    85e4:	00d70000 	sbcseq	r0, r7, r0
    85e8:	2c0c0000 	stccs	0, cr0, [ip], {-0}
    85ec:	03000000 	movweq	r0, #0
    85f0:	03080d00 	movweq	r0, #36096	; 0x8d00
    85f4:	0000f8a3 	andeq	pc, r0, r3, lsr #17
    85f8:	07450e00 	strbeq	r0, [r5, -r0, lsl #28]
    85fc:	a5030000 	strge	r0, [r3, #-0]
    8600:	00000025 	andeq	r0, r0, r5, lsr #32
    8604:	07ec0e00 	strbeq	r0, [ip, r0, lsl #28]!
    8608:	aa030000 	bge	c8610 <__bss_end__+0xbe620>
    860c:	000000a8 	andeq	r0, r0, r8, lsr #1
    8610:	a0050004 	andge	r0, r5, r4
    8614:	03000006 	movweq	r0, #6
    8618:	0000d7ab 	andeq	sp, r0, fp, lsr #15
    861c:	031c0500 	tsteq	ip, #0, 10
    8620:	af030000 	svcge	0x00030000
    8624:	00000070 	andeq	r0, r0, r0, ror r0
    8628:	0406040f 	streq	r0, [r6], #-1039	; 0xfffffbf1
    862c:	00000116 	andeq	r0, r0, r6, lsl r1
    8630:	27080103 	strcs	r0, [r8, -r3, lsl #2]
    8634:	10000006 	andne	r0, r0, r6
    8638:	00000116 	andeq	r0, r0, r6, lsl r1
    863c:	00082605 	andeq	r2, r8, r5, lsl #12
    8640:	62160500 	andsvs	r0, r6, #0, 10
    8644:	11000000 	mrsne	r0, (UNDEF: 0)
    8648:	0000032d 	andeq	r0, r0, sp, lsr #6
    864c:	802f0518 	eorhi	r0, pc, r8, lsl r5	; <UNPREDICTABLE>
    8650:	0e000001 	cdpeq	0, 0, cr0, cr0, cr1, {0}
    8654:	000006d1 	ldrdeq	r0, [r0], -r1
    8658:	01803105 	orreq	r3, r0, r5, lsl #2
    865c:	12000000 	andne	r0, r0, #0
    8660:	05006b5f 	streq	r6, [r0, #-2911]	; 0xfffff4a1
    8664:	00002532 	andeq	r2, r0, r2, lsr r5
    8668:	1e0e0400 	cfcpysne	mvf0, mvf14
    866c:	05000007 	streq	r0, [r0, #-7]
    8670:	00002532 	andeq	r2, r0, r2, lsr r5
    8674:	160e0800 	strne	r0, [lr], -r0, lsl #16
    8678:	05000003 	streq	r0, [r0, #-3]
    867c:	00002532 	andeq	r2, r0, r2, lsr r5
    8680:	c50e0c00 	strgt	r0, [lr, #-3072]	; 0xfffff400
    8684:	05000008 	streq	r0, [r0, #-8]
    8688:	00002532 	andeq	r2, r0, r2, lsr r5
    868c:	5f121000 	svcpl	0x00121000
    8690:	33050078 	movwcc	r0, #20600	; 0x5078
    8694:	00000186 	andeq	r0, r0, r6, lsl #3
    8698:	04060014 	streq	r0, [r6], #-20	; 0xffffffec
    869c:	0000012d 	andeq	r0, r0, sp, lsr #2
    86a0:	0001220b 	andeq	r2, r1, fp, lsl #4
    86a4:	00019600 	andeq	r9, r1, r0, lsl #12
    86a8:	002c0c00 	eoreq	r0, ip, r0, lsl #24
    86ac:	00000000 	andeq	r0, r0, r0
    86b0:	00037011 	andeq	r7, r3, r1, lsl r0
    86b4:	37052400 	strcc	r2, [r5, -r0, lsl #8]
    86b8:	0000020f 	andeq	r0, r0, pc, lsl #4
    86bc:	0001ba0e 	andeq	fp, r1, lr, lsl #20
    86c0:	25390500 	ldrcs	r0, [r9, #-1280]!	; 0xfffffb00
    86c4:	00000000 	andeq	r0, r0, r0
    86c8:	0007910e 	andeq	r9, r7, lr, lsl #2
    86cc:	253a0500 	ldrcs	r0, [sl, #-1280]!	; 0xfffffb00
    86d0:	04000000 	streq	r0, [r0], #-0
    86d4:	0002040e 	andeq	r0, r2, lr, lsl #8
    86d8:	253b0500 	ldrcs	r0, [fp, #-1280]!	; 0xfffffb00
    86dc:	08000000 	stmdaeq	r0, {}	; <UNPREDICTABLE>
    86e0:	0009d90e 	andeq	sp, r9, lr, lsl #18
    86e4:	253c0500 	ldrcs	r0, [ip, #-1280]!	; 0xfffffb00
    86e8:	0c000000 	stceq	0, cr0, [r0], {-0}
    86ec:	0005630e 	andeq	r6, r5, lr, lsl #6
    86f0:	253d0500 	ldrcs	r0, [sp, #-1280]!	; 0xfffffb00
    86f4:	10000000 	andne	r0, r0, r0
    86f8:	0004d10e 	andeq	sp, r4, lr, lsl #2
    86fc:	253e0500 	ldrcs	r0, [lr, #-1280]!	; 0xfffffb00
    8700:	14000000 	strne	r0, [r0], #-0
    8704:	0008ca0e 	andeq	ip, r8, lr, lsl #20
    8708:	253f0500 	ldrcs	r0, [pc, #-1280]!	; 8210 <imu_rd_n+0x58>
    870c:	18000000 	stmdane	r0, {}	; <UNPREDICTABLE>
    8710:	0006750e 	andeq	r7, r6, lr, lsl #10
    8714:	25400500 	strbcs	r0, [r0, #-1280]	; 0xfffffb00
    8718:	1c000000 	stcne	0, cr0, [r0], {-0}
    871c:	0009530e 	andeq	r5, r9, lr, lsl #6
    8720:	25410500 	strbcs	r0, [r1, #-1280]	; 0xfffffb00
    8724:	20000000 	andcs	r0, r0, r0
    8728:	02131300 	andseq	r1, r3, #0, 6
    872c:	01080000 	mrseq	r0, (UNDEF: 8)
    8730:	024f4a05 	subeq	r4, pc, #20480	; 0x5000
    8734:	e80e0000 	stmda	lr, {}	; <UNPREDICTABLE>
    8738:	05000002 	streq	r0, [r0, #-2]
    873c:	00024f4b 	andeq	r4, r2, fp, asr #30
    8740:	000e0000 	andeq	r0, lr, r0
    8744:	05000000 	streq	r0, [r0, #-0]
    8748:	00024f4c 	andeq	r4, r2, ip, asr #30
    874c:	b3148000 	tstlt	r4, #0
    8750:	05000007 	streq	r0, [r0, #-7]
    8754:	0001224e 	andeq	r2, r1, lr, asr #4
    8758:	14010000 	strne	r0, [r1], #-0
    875c:	0000025d 	andeq	r0, r0, sp, asr r2
    8760:	01225105 			; <UNDEFINED> instruction: 0x01225105
    8764:	01040000 	mrseq	r0, (UNDEF: 4)
    8768:	010e0b00 	tsteq	lr, r0, lsl #22
    876c:	025f0000 	subseq	r0, pc, #0
    8770:	2c0c0000 	stccs	0, cr0, [ip], {-0}
    8774:	1f000000 	svcne	0x00000000
    8778:	057d1300 	ldrbeq	r1, [sp, #-768]!	; 0xfffffd00
    877c:	01900000 	orrseq	r0, r0, r0
    8780:	029d5d05 	addseq	r5, sp, #320	; 0x140
    8784:	d10e0000 	mrsle	r0, (UNDEF: 14)
    8788:	05000006 	streq	r0, [r0, #-6]
    878c:	00029d5e 	andeq	r9, r2, lr, asr sp
    8790:	ff0e0000 			; <UNDEFINED> instruction: 0xff0e0000
    8794:	05000006 	streq	r0, [r0, #-6]
    8798:	0000255f 	andeq	r2, r0, pc, asr r5
    879c:	110e0400 	tstne	lr, r0, lsl #8
    87a0:	05000003 	streq	r0, [r0, #-3]
    87a4:	0002a361 	andeq	sl, r2, r1, ror #6
    87a8:	130e0800 	movwne	r0, #59392	; 0xe800
    87ac:	05000002 	streq	r0, [r0, #-2]
    87b0:	00020f62 	andeq	r0, r2, r2, ror #30
    87b4:	06008800 	streq	r8, [r0], -r0, lsl #16
    87b8:	00025f04 	andeq	r5, r2, r4, lsl #30
    87bc:	02b30b00 	adcseq	r0, r3, #0, 22
    87c0:	02b30000 	adcseq	r0, r3, #0
    87c4:	2c0c0000 	stccs	0, cr0, [ip], {-0}
    87c8:	1f000000 	svcne	0x00000000
    87cc:	b9040600 	stmdblt	r4, {r9, sl}
    87d0:	15000002 	strne	r0, [r0, #-2]
    87d4:	00067f11 	andeq	r7, r6, r1, lsl pc
    87d8:	75050800 	strvc	r0, [r5, #-2048]	; 0xfffff800
    87dc:	000002df 	ldrdeq	r0, [r0], -pc	; <UNPREDICTABLE>
    87e0:	0001fe0e 	andeq	pc, r1, lr, lsl #28
    87e4:	df760500 	svcle	0x00760500
    87e8:	00000002 	andeq	r0, r0, r2
    87ec:	0000a60e 	andeq	sl, r0, lr, lsl #12
    87f0:	25770500 	ldrbcs	r0, [r7, #-1280]!	; 0xfffffb00
    87f4:	04000000 	streq	r0, [r0], #-0
    87f8:	54040600 	strpl	r0, [r4], #-1536	; 0xfffffa00
    87fc:	11000000 	mrsne	r0, (UNDEF: 0)
    8800:	000006ab 	andeq	r0, r0, fp, lsr #13
    8804:	0fb50568 	svceq	0x00b50568
    8808:	12000004 	andne	r0, r0, #4
    880c:	0500705f 	streq	r7, [r0, #-95]	; 0xffffffa1
    8810:	0002dfb6 			; <UNDEFINED> instruction: 0x0002dfb6
    8814:	5f120000 	svcpl	0x00120000
    8818:	b7050072 	smlsdxlt	r5, r2, r0, r0
    881c:	00000025 	andeq	r0, r0, r5, lsr #32
    8820:	775f1204 	ldrbvc	r1, [pc, -r4, lsl #4]
    8824:	25b80500 	ldrcs	r0, [r8, #1280]!	; 0x500
    8828:	08000000 	stmdaeq	r0, {}	; <UNPREDICTABLE>
    882c:	0002560e 	andeq	r5, r2, lr, lsl #12
    8830:	3fb90500 	svccc	0x00b90500
    8834:	0c000000 	stceq	0, cr0, [r0], {-0}
    8838:	0003af0e 	andeq	sl, r3, lr, lsl #30
    883c:	3fba0500 	svccc	0x00ba0500
    8840:	0e000000 	cdpeq	0, 0, cr0, cr0, cr0, {0}
    8844:	66625f12 	uqadd16vs	r5, r2, r2
    8848:	babb0500 	blt	feec9c50 <__bss_end__+0xfeebfc60>
    884c:	10000002 	andne	r0, r0, r2
    8850:	0001600e 	andeq	r6, r1, lr
    8854:	25bc0500 	ldrcs	r0, [ip, #1280]!	; 0x500
    8858:	18000000 	stmdane	r0, {}	; <UNPREDICTABLE>
    885c:	0002210e 	andeq	r2, r2, lr, lsl #2
    8860:	0ec30500 	cdpeq	5, 12, cr0, cr3, cr0, {0}
    8864:	1c000001 	stcne	0, cr0, [r0], {1}
    8868:	0008ad0e 	andeq	sl, r8, lr, lsl #26
    886c:	6ac50500 	bvs	ff149c74 <__bss_end__+0xff13fc84>
    8870:	20000005 	andcs	r0, r0, r5
    8874:	0001760e 	andeq	r7, r1, lr, lsl #12
    8878:	94c70500 	strbls	r0, [r7], #1280	; 0x500
    887c:	24000005 	strcs	r0, [r0], #-5
    8880:	0007560e 	andeq	r5, r7, lr, lsl #12
    8884:	b8ca0500 	stmialt	sl, {r8, sl}^
    8888:	28000005 	stmdacs	r0, {r0, r2}
    888c:	00096d0e 	andeq	r6, r9, lr, lsl #26
    8890:	d2cb0500 	sbcle	r0, fp, #0, 10
    8894:	2c000005 	stccs	0, cr0, [r0], {5}
    8898:	62755f12 	rsbsvs	r5, r5, #18, 30	; 0x48
    889c:	bace0500 	blt	ff389ca4 <__bss_end__+0xff37fcb4>
    88a0:	30000002 	andcc	r0, r0, r2
    88a4:	70755f12 	rsbsvc	r5, r5, r2, lsl pc
    88a8:	dfcf0500 	svcle	0x00cf0500
    88ac:	38000002 	stmdacc	r0, {r1}
    88b0:	72755f12 	rsbsvc	r5, r5, #18, 30	; 0x48
    88b4:	25d00500 	ldrbcs	r0, [r0, #1280]	; 0x500
    88b8:	3c000000 	stccc	0, cr0, [r0], {-0}
    88bc:	0001f00e 	andeq	pc, r1, lr
    88c0:	d8d30500 	ldmle	r3, {r8, sl}^
    88c4:	40000005 	andmi	r0, r0, r5
    88c8:	0009240e 	andeq	r2, r9, lr, lsl #8
    88cc:	e8d40500 	ldm	r4, {r8, sl}^
    88d0:	43000005 	movwmi	r0, #5
    88d4:	626c5f12 	rsbvs	r5, ip, #18, 30	; 0x48
    88d8:	bad70500 	blt	ff5c9ce0 <__bss_end__+0xff5bfcf0>
    88dc:	44000002 	strmi	r0, [r0], #-2
    88e0:	0002730e 	andeq	r7, r2, lr, lsl #6
    88e4:	25da0500 	ldrbcs	r0, [sl, #1280]	; 0x500
    88e8:	4c000000 	stcmi	0, cr0, [r0], {-0}
    88ec:	0002a90e 	andeq	sl, r2, lr, lsl #18
    88f0:	86db0500 	ldrbhi	r0, [fp], r0, lsl #10
    88f4:	50000000 	andpl	r0, r0, r0
    88f8:	00064c0e 	andeq	r4, r6, lr, lsl #24
    88fc:	2dde0500 	cfldr64cs	mvdx0, [lr]
    8900:	54000004 	strpl	r0, [r0], #-4
    8904:	0010900e 	andseq	r9, r0, lr
    8908:	03e20500 	mvneq	r0, #0, 10
    890c:	58000001 	stmdapl	r0, {r0}
    8910:	0006c30e 	andeq	ip, r6, lr, lsl #6
    8914:	f8e40500 			; <UNDEFINED> instruction: 0xf8e40500
    8918:	5c000000 	stcpl	0, cr0, [r0], {-0}
    891c:	00049f0e 	andeq	r9, r4, lr, lsl #30
    8920:	25e50500 	strbcs	r0, [r5, #1280]!	; 0x500
    8924:	64000000 	strvs	r0, [r0], #-0
    8928:	00251600 	eoreq	r1, r5, r0, lsl #12
    892c:	042d0000 	strteq	r0, [sp], #-0
    8930:	2d170000 	ldccs	0, cr0, [r7, #-0]
    8934:	17000004 	strne	r0, [r0, -r4]
    8938:	0000010e 	andeq	r0, r0, lr, lsl #2
    893c:	00011017 	andeq	r1, r1, r7, lsl r0
    8940:	00251700 	eoreq	r1, r5, r0, lsl #14
    8944:	06000000 	streq	r0, [r0], -r0
    8948:	00043804 	andeq	r3, r4, r4, lsl #16
    894c:	042d1000 	strteq	r1, [sp], #-0
    8950:	26180000 	ldrcs	r0, [r8], -r0
    8954:	28000007 	stmdacs	r0, {r0, r1, r2}
    8958:	02600504 	rsbeq	r0, r0, #4, 10	; 0x1000000
    895c:	0000056a 	andeq	r0, r0, sl, ror #10
    8960:	00066419 	andeq	r6, r6, r9, lsl r4
    8964:	02620500 	rsbeq	r0, r2, #0, 10
    8968:	00000025 	andeq	r0, r0, r5, lsr #32
    896c:	02651900 	rsbeq	r1, r5, #0, 18
    8970:	67050000 	strvs	r0, [r5, -r0]
    8974:	00063f02 	andeq	r3, r6, r2, lsl #30
    8978:	94190400 	ldrls	r0, [r9], #-1024	; 0xfffffc00
    897c:	05000003 	streq	r0, [r0, #-3]
    8980:	063f0267 	ldrteq	r0, [pc], -r7, ror #4
    8984:	19080000 	stmdbne	r8, {}	; <UNPREDICTABLE>
    8988:	00000325 	andeq	r0, r0, r5, lsr #6
    898c:	3f026705 	svccc	0x00026705
    8990:	0c000006 	stceq	0, cr0, [r0], {6}
    8994:	0006fa19 	andeq	pc, r6, r9, lsl sl	; <UNPREDICTABLE>
    8998:	02690500 	rsbeq	r0, r9, #0, 10
    899c:	00000025 	andeq	r0, r0, r5, lsr #32
    89a0:	00e51910 	rsceq	r1, r5, r0, lsl r9
    89a4:	6a050000 	bvs	1489ac <__bss_end__+0x13e9bc>
    89a8:	00082102 	andeq	r2, r8, r2, lsl #2
    89ac:	76191400 	ldrvc	r1, [r9], -r0, lsl #8
    89b0:	05000010 	streq	r0, [r0, #-16]
    89b4:	0025026d 	eoreq	r0, r5, sp, ror #4
    89b8:	19300000 	ldmdbne	r0!, {}	; <UNPREDICTABLE>
    89bc:	0000070c 	andeq	r0, r0, ip, lsl #14
    89c0:	36026e05 	strcc	r6, [r2], -r5, lsl #28
    89c4:	34000008 	strcc	r0, [r0], #-8
    89c8:	00059319 	andeq	r9, r5, r9, lsl r3
    89cc:	02700500 	rsbseq	r0, r0, #0, 10
    89d0:	00000025 	andeq	r0, r0, r5, lsr #32
    89d4:	07141938 			; <UNDEFINED> instruction: 0x07141938
    89d8:	72050000 	andvc	r0, r5, #0
    89dc:	00084702 	andeq	r4, r8, r2, lsl #14
    89e0:	63193c00 	tstvs	r9, #0, 24
    89e4:	05000004 	streq	r0, [r0, #-4]
    89e8:	01800275 	orreq	r0, r0, r5, ror r2
    89ec:	19400000 	stmdbne	r0, {}^	; <UNPREDICTABLE>
    89f0:	0000035a 	andeq	r0, r0, sl, asr r3
    89f4:	25027605 	strcs	r7, [r2, #-1541]	; 0xfffff9fb
    89f8:	44000000 	strmi	r0, [r0], #-0
    89fc:	00099019 	andeq	r9, r9, r9, lsl r0
    8a00:	02770500 	rsbseq	r0, r7, #0, 10
    8a04:	00000180 	andeq	r0, r0, r0, lsl #3
    8a08:	05c81948 	strbeq	r1, [r8, #2376]	; 0x948
    8a0c:	78050000 	stmdavc	r5, {}	; <UNPREDICTABLE>
    8a10:	00084d02 	andeq	r4, r8, r2, lsl #26
    8a14:	9c194c00 	ldcls	12, cr4, [r9], {-0}
    8a18:	05000003 	streq	r0, [r0, #-3]
    8a1c:	0025027b 	eoreq	r0, r5, fp, ror r2
    8a20:	19500000 	ldmdbne	r0, {}^	; <UNPREDICTABLE>
    8a24:	000002a1 	andeq	r0, r0, r1, lsr #5
    8a28:	10027c05 	andne	r7, r2, r5, lsl #24
    8a2c:	54000001 	strpl	r0, [r0], #-1
    8a30:	00115219 	andseq	r5, r1, r9, lsl r2
    8a34:	029f0500 	addseq	r0, pc, #0, 10
    8a38:	000007ff 	strdeq	r0, [r0], -pc	; <UNPREDICTABLE>
    8a3c:	057d1a58 	ldrbeq	r1, [sp, #-2648]!	; 0xfffff5a8
    8a40:	a3050000 	movwge	r0, #20480	; 0x5000
    8a44:	00029d02 	andeq	r9, r2, r2, lsl #26
    8a48:	1a014800 	bne	5aa50 <__bss_end__+0x50a60>
    8a4c:	0000042d 	andeq	r0, r0, sp, lsr #8
    8a50:	5f02a405 	svcpl	0x0002a405
    8a54:	4c000002 	stcmi	0, cr0, [r0], {2}
    8a58:	08f51a01 	ldmeq	r5!, {r0, r9, fp, ip}^
    8a5c:	a8050000 	stmdage	r5, {}	; <UNPREDICTABLE>
    8a60:	00085e02 	andeq	r5, r8, r2, lsl #28
    8a64:	1a02dc00 	bne	bfa6c <__bss_end__+0xb5a7c>
    8a68:	00000229 	andeq	r0, r0, r9, lsr #4
    8a6c:	0402ad05 	streq	sl, [r2], #-3333	; 0xfffff2fb
    8a70:	e0000006 	and	r0, r0, r6
    8a74:	020e1a02 	andeq	r1, lr, #8192	; 0x2000
    8a78:	af050000 	svcge	0x00050000
    8a7c:	00086a02 	andeq	r6, r8, r2, lsl #20
    8a80:	0002ec00 	andeq	lr, r2, r0, lsl #24
    8a84:	040f0406 	streq	r0, [pc], #-1030	; 8a8c <i2c_read+0x6c>
    8a88:	25160000 	ldrcs	r0, [r6, #-0]
    8a8c:	8e000000 	cdphi	0, 0, cr0, cr0, cr0, {0}
    8a90:	17000005 	strne	r0, [r0, -r5]
    8a94:	0000042d 	andeq	r0, r0, sp, lsr #8
    8a98:	00010e17 	andeq	r0, r1, r7, lsl lr
    8a9c:	058e1700 	streq	r1, [lr, #1792]	; 0x700
    8aa0:	25170000 	ldrcs	r0, [r7, #-0]
    8aa4:	00000000 	andeq	r0, r0, r0
    8aa8:	011d0406 	tsteq	sp, r6, lsl #8
    8aac:	04060000 	streq	r0, [r6], #-0
    8ab0:	00000570 	andeq	r0, r0, r0, ror r5
    8ab4:	00009116 	andeq	r9, r0, r6, lsl r1
    8ab8:	0005b800 	andeq	fp, r5, r0, lsl #16
    8abc:	042d1700 	strteq	r1, [sp], #-1792	; 0xfffff900
    8ac0:	0e170000 	cdpeq	0, 1, cr0, cr7, cr0, {0}
    8ac4:	17000001 	strne	r0, [r0, -r1]
    8ac8:	00000091 	muleq	r0, r1, r0
    8acc:	00002517 	andeq	r2, r0, r7, lsl r5
    8ad0:	04060000 	streq	r0, [r6], #-0
    8ad4:	0000059a 	muleq	r0, sl, r5
    8ad8:	00002516 	andeq	r2, r0, r6, lsl r5
    8adc:	0005d200 	andeq	sp, r5, r0, lsl #4
    8ae0:	042d1700 	strteq	r1, [sp], #-1792	; 0xfffff900
    8ae4:	0e170000 	cdpeq	0, 1, cr0, cr7, cr0, {0}
    8ae8:	00000001 	andeq	r0, r0, r1
    8aec:	05be0406 	ldreq	r0, [lr, #1030]!	; 0x406
    8af0:	540b0000 	strpl	r0, [fp], #-0
    8af4:	e8000000 	stmda	r0, {}	; <UNPREDICTABLE>
    8af8:	0c000005 	stceq	0, cr0, [r0], {5}
    8afc:	0000002c 	andeq	r0, r0, ip, lsr #32
    8b00:	540b0002 	strpl	r0, [fp], #-2
    8b04:	f8000000 			; <UNDEFINED> instruction: 0xf8000000
    8b08:	0c000005 	stceq	0, cr0, [r0], {5}
    8b0c:	0000002c 	andeq	r0, r0, ip, lsr #32
    8b10:	99080000 	stmdbls	r8, {}	; <UNPREDICTABLE>
    8b14:	05000006 	streq	r0, [r0, #-6]
    8b18:	02e5011f 	rsceq	r0, r5, #-1073741817	; 0xc0000007
    8b1c:	d41b0000 	ldrle	r0, [fp], #-0
    8b20:	0c000008 	stceq	0, cr0, [r0], {8}
    8b24:	39012305 	stmdbcc	r1, {r0, r2, r8, r9, sp}
    8b28:	19000006 	stmdbne	r0, {r1, r2}
    8b2c:	000006d1 	ldrdeq	r0, [r0], -r1
    8b30:	39012505 	stmdbcc	r1, {r0, r2, r8, sl, sp}
    8b34:	00000006 	andeq	r0, r0, r6
    8b38:	0003fd19 	andeq	pc, r3, r9, lsl sp	; <UNPREDICTABLE>
    8b3c:	01260500 			; <UNDEFINED> instruction: 0x01260500
    8b40:	00000025 	andeq	r0, r0, r5, lsr #32
    8b44:	06931904 	ldreq	r1, [r3], r4, lsl #18
    8b48:	27050000 	strcs	r0, [r5, -r0]
    8b4c:	00063f01 	andeq	r3, r6, r1, lsl #30
    8b50:	06000800 	streq	r0, [r0], -r0, lsl #16
    8b54:	00060404 	andeq	r0, r6, r4, lsl #8
    8b58:	f8040600 			; <UNDEFINED> instruction: 0xf8040600
    8b5c:	1b000005 	blne	8b78 <i2c_init+0x88>
    8b60:	000000c9 	andeq	r0, r0, r9, asr #1
    8b64:	013f050e 	teqeq	pc, lr, lsl #10
    8b68:	0000067a 	andeq	r0, r0, sl, ror r6
    8b6c:	00073619 	andeq	r3, r7, r9, lsl r6
    8b70:	01400500 	cmpeq	r0, r0, lsl #10
    8b74:	0000067a 	andeq	r0, r0, sl, ror r6
    8b78:	07d91900 	ldrbeq	r1, [r9, r0, lsl #18]
    8b7c:	41050000 	mrsmi	r0, (UNDEF: 5)
    8b80:	00067a01 	andeq	r7, r6, r1, lsl #20
    8b84:	18190600 	ldmdane	r9, {r9, sl}
    8b88:	05000008 	streq	r0, [r0, #-8]
    8b8c:	005b0142 	subseq	r0, fp, r2, asr #2
    8b90:	000c0000 	andeq	r0, ip, r0
    8b94:	00005b0b 	andeq	r5, r0, fp, lsl #22
    8b98:	00068a00 	andeq	r8, r6, r0, lsl #20
    8b9c:	002c0c00 	eoreq	r0, ip, r0, lsl #24
    8ba0:	00020000 	andeq	r0, r2, r0
    8ba4:	8005d01c 	andhi	sp, r5, ip, lsl r0
    8ba8:	00078b02 	andeq	r8, r7, r2, lsl #22
    8bac:	089d1900 	ldmeq	sp, {r8, fp, ip}
    8bb0:	82050000 	andhi	r0, r5, #0
    8bb4:	00002c02 	andeq	r2, r0, r2, lsl #24
    8bb8:	df190000 	svcle	0x00190000
    8bbc:	05000007 	streq	r0, [r0, #-7]
    8bc0:	01100283 	tsteq	r0, r3, lsl #5
    8bc4:	19040000 	stmdbne	r4, {}	; <UNPREDICTABLE>
    8bc8:	00000442 	andeq	r0, r0, r2, asr #8
    8bcc:	8b028405 	blhi	a9be8 <__bss_end__+0x9fbf8>
    8bd0:	08000007 	stmdaeq	r0, {r0, r1, r2}
    8bd4:	00095e19 	andeq	r5, r9, r9, lsl lr
    8bd8:	02850500 	addeq	r0, r5, #0, 10
    8bdc:	00000196 	muleq	r0, r6, r1
    8be0:	03351924 	teqeq	r5, #36, 18	; 0x90000
    8be4:	86050000 	strhi	r0, [r5], -r0
    8be8:	00002502 	andeq	r2, r0, r2, lsl #10
    8bec:	cc194800 	ldcgt	8, cr4, [r9], {-0}
    8bf0:	05000006 	streq	r0, [r0, #-6]
    8bf4:	00690287 	rsbeq	r0, r9, r7, lsl #5
    8bf8:	19500000 	ldmdbne	r0, {}^	; <UNPREDICTABLE>
    8bfc:	00000974 	andeq	r0, r0, r4, ror r9
    8c00:	45028805 	strmi	r8, [r2, #-2053]	; 0xfffff7fb
    8c04:	58000006 	stmdapl	r0, {r1, r2}
    8c08:	0006ed19 	andeq	lr, r6, r9, lsl sp
    8c0c:	02890500 	addeq	r0, r9, #0, 10
    8c10:	000000f8 	strdeq	r0, [r0], -r8
    8c14:	09821968 	stmibeq	r2, {r3, r5, r6, r8, fp, ip}
    8c18:	8a050000 	bhi	148c20 <__bss_end__+0x13ec30>
    8c1c:	0000f802 	andeq	pc, r0, r2, lsl #16
    8c20:	ac197000 	ldcge	0, cr7, [r9], {-0}
    8c24:	05000001 	streq	r0, [r0, #-1]
    8c28:	00f8028b 	rscseq	r0, r8, fp, lsl #5
    8c2c:	19780000 	ldmdbne	r8!, {}^	; <UNPREDICTABLE>
    8c30:	000008eb 	andeq	r0, r0, fp, ror #17
    8c34:	9b028c05 	blls	abc50 <__bss_end__+0xa1c60>
    8c38:	80000007 	andhi	r0, r0, r7
    8c3c:	00043619 	andeq	r3, r4, r9, lsl r6
    8c40:	028d0500 	addeq	r0, sp, #0, 10
    8c44:	000007ab 	andeq	r0, r0, fp, lsr #15
    8c48:	082e1988 	stmdaeq	lr!, {r3, r7, r8, fp, ip}
    8c4c:	8e050000 	cdphi	0, 0, cr0, cr5, cr0, {0}
    8c50:	00002502 	andeq	r2, r0, r2, lsl #10
    8c54:	da19a000 	ble	670c5c <__bss_end__+0x666c6c>
    8c58:	05000002 	streq	r0, [r0, #-2]
    8c5c:	00f8028f 	rscseq	r0, r8, pc, lsl #5
    8c60:	19a40000 	stmibne	r4!, {}	; <UNPREDICTABLE>
    8c64:	00000188 	andeq	r0, r0, r8, lsl #3
    8c68:	f8029005 			; <UNDEFINED> instruction: 0xf8029005
    8c6c:	ac000000 	stcge	0, cr0, [r0], {-0}
    8c70:	0002c019 	andeq	ip, r2, r9, lsl r0
    8c74:	02910500 	addseq	r0, r1, #0, 10
    8c78:	000000f8 	strdeq	r0, [r0], -r8
    8c7c:	012019b4 			; <UNDEFINED> instruction: 0x012019b4
    8c80:	92050000 	andls	r0, r5, #0
    8c84:	0000f802 	andeq	pc, r0, r2, lsl #16
    8c88:	2f19bc00 	svccs	0x0019bc00
    8c8c:	05000001 	streq	r0, [r0, #-1]
    8c90:	00f80293 	smlalseq	r0, r8, r3, r2
    8c94:	19c40000 	stmibne	r4, {}^	; <UNPREDICTABLE>
    8c98:	00000662 	andeq	r0, r0, r2, ror #12
    8c9c:	25029405 	strcs	r9, [r2, #-1029]	; 0xfffffbfb
    8ca0:	cc000000 	stcgt	0, cr0, [r0], {-0}
    8ca4:	01160b00 	tsteq	r6, r0, lsl #22
    8ca8:	079b0000 	ldreq	r0, [fp, r0]
    8cac:	2c0c0000 	stccs	0, cr0, [ip], {-0}
    8cb0:	19000000 	stmdbne	r0, {}	; <UNPREDICTABLE>
    8cb4:	01160b00 	tsteq	r6, r0, lsl #22
    8cb8:	07ab0000 	streq	r0, [fp, r0]!
    8cbc:	2c0c0000 	stccs	0, cr0, [ip], {-0}
    8cc0:	07000000 	streq	r0, [r0, -r0]
    8cc4:	01160b00 	tsteq	r6, r0, lsl #22
    8cc8:	07bb0000 	ldreq	r0, [fp, r0]!
    8ccc:	2c0c0000 	stccs	0, cr0, [ip], {-0}
    8cd0:	17000000 	strne	r0, [r0, -r0]
    8cd4:	05f01c00 	ldrbeq	r1, [r0, #3072]!	; 0xc00
    8cd8:	07df0299 	bfieq	r0, r9, #5, #27
    8cdc:	52190000 	andspl	r0, r9, #0
    8ce0:	05000005 	streq	r0, [r0, #-5]
    8ce4:	07df029c 	bfieq	r0, ip, #5, #27
    8ce8:	19000000 	stmdbne	r0, {}	; <UNPREDICTABLE>
    8cec:	000004f9 	strdeq	r0, [r0], -r9
    8cf0:	ef029d05 	svc	0x00029d05
    8cf4:	78000007 	stmdavc	r0, {r0, r1, r2}
    8cf8:	02df0b00 	sbcseq	r0, pc, #0, 22
    8cfc:	07ef0000 	strbeq	r0, [pc, r0]!
    8d00:	2c0c0000 	stccs	0, cr0, [ip], {-0}
    8d04:	1d000000 	stcne	0, cr0, [r0, #-0]
    8d08:	002c0b00 	eoreq	r0, ip, r0, lsl #22
    8d0c:	07ff0000 	ldrbeq	r0, [pc, r0]!
    8d10:	2c0c0000 	stccs	0, cr0, [ip], {-0}
    8d14:	1d000000 	stcne	0, cr0, [r0, #-0]
    8d18:	05f01d00 	ldrbeq	r1, [r0, #3328]!	; 0xd00
    8d1c:	0821027e 	stmdaeq	r1!, {r1, r2, r3, r4, r5, r6, r9}
    8d20:	261e0000 	ldrcs	r0, [lr], -r0
    8d24:	05000007 	streq	r0, [r0, #-7]
    8d28:	068a0295 	pkhbteq	r0, sl, r5, lsl #5
    8d2c:	2a1e0000 	bcs	788d34 <__bss_end__+0x77ed44>
    8d30:	05000009 	streq	r0, [r0, #-9]
    8d34:	07bb029e 			; <UNDEFINED> instruction: 0x07bb029e
    8d38:	0b000000 	bleq	8d40 <emit+0xcc>
    8d3c:	00000116 	andeq	r0, r0, r6, lsl r1
    8d40:	00000831 	andeq	r0, r0, r1, lsr r8
    8d44:	00002c0c 	andeq	r2, r0, ip, lsl #24
    8d48:	07001800 	streq	r1, [r0, -r0, lsl #16]
    8d4c:	00000f59 	andeq	r0, r0, r9, asr pc
    8d50:	08310406 	ldmdaeq	r1!, {r1, r2, sl}
    8d54:	471f0000 	ldrmi	r0, [pc, -r0]
    8d58:	17000008 	strne	r0, [r0, -r8]
    8d5c:	0000042d 	andeq	r0, r0, sp, lsr #8
    8d60:	3c040600 	stccc	6, cr0, [r4], {-0}
    8d64:	06000008 	streq	r0, [r0], -r8
    8d68:	00018004 	andeq	r8, r1, r4
    8d6c:	085e1f00 	ldmdaeq	lr, {r8, r9, sl, fp, ip}^
    8d70:	25170000 	ldrcs	r0, [r7, #-0]
    8d74:	00000000 	andeq	r0, r0, r0
    8d78:	08640406 	stmdaeq	r4!, {r1, r2, sl}^
    8d7c:	04060000 	streq	r0, [r6], #-0
    8d80:	00000853 	andeq	r0, r0, r3, asr r8
    8d84:	0005f80b 	andeq	pc, r5, fp, lsl #16
    8d88:	00087a00 	andeq	r7, r8, r0, lsl #20
    8d8c:	002c0c00 	eoreq	r0, ip, r0, lsl #24
    8d90:	00020000 	andeq	r0, r2, r0
    8d94:	00086320 	andeq	r6, r8, r0, lsr #6
    8d98:	032e0500 			; <UNDEFINED> instruction: 0x032e0500
    8d9c:	0000042d 	andeq	r0, r0, sp, lsr #8
    8da0:	00085c20 	andeq	r5, r8, r0, lsr #24
    8da4:	032f0500 			; <UNDEFINED> instruction: 0x032f0500
    8da8:	00000433 	andeq	r0, r0, r3, lsr r4
    8dac:	00002516 	andeq	r2, r0, r6, lsl r5
    8db0:	0008a100 	andeq	sl, r8, r0, lsl #2
    8db4:	00251700 	eoreq	r1, r5, r0, lsl #14
    8db8:	21000000 	mrscs	r0, (UNDEF: 0)
    8dbc:	00000364 	andeq	r0, r0, r4, ror #6
    8dc0:	08ac1d06 	stmiaeq	ip!, {r1, r2, r8, sl, fp, ip}
    8dc4:	04060000 	streq	r0, [r6], #-0
    8dc8:	00000892 	muleq	r0, r2, r8
    8dcc:	00002516 	andeq	r2, r0, r6, lsl r5
    8dd0:	0008c100 	andeq	ip, r8, r0, lsl #2
    8dd4:	058e1700 	streq	r1, [lr, #1792]	; 0x700
    8dd8:	21000000 	mrscs	r0, (UNDEF: 0)
    8ddc:	00000d2b 	andeq	r0, r0, fp, lsr #26
    8de0:	08cc2206 	stmiaeq	ip, {r1, r2, r9, sp}^
    8de4:	04060000 	streq	r0, [r6], #-0
    8de8:	000008b2 			; <UNDEFINED> instruction: 0x000008b2
    8dec:	54010722 	strpl	r0, [r1], #-1826	; 0xfffff8de
    8df0:	08000000 	stmdaeq	r0, {}	; <UNPREDICTABLE>
    8df4:	0009100c 	andeq	r1, r9, ip
    8df8:	0a1a2300 	beq	691a00 <__bss_end__+0x687a10>
    8dfc:	23000000 	movwcs	r0, #0
    8e00:	00000b97 	muleq	r0, r7, fp
    8e04:	0bc52301 	bleq	ff151a10 <__bss_end__+0xff147a20>
    8e08:	23040000 	movwcs	r0, #16384	; 0x4000
    8e0c:	00000a3d 	andeq	r0, r0, sp, lsr sl
    8e10:	0af82305 	beq	ffe11a2c <__bss_end__+0xffe07a3c>
    8e14:	23060000 	movwcs	r0, #24576	; 0x6000
    8e18:	00000bd4 	ldrdeq	r0, [r0], -r4
    8e1c:	0be32307 	bleq	ff8d1a40 <__bss_end__+0xff8c7a50>
    8e20:	23030000 	movwcs	r0, #12288	; 0x3000
    8e24:	00000bf2 	strdeq	r0, [r0], -r2
    8e28:	75110002 	ldrvc	r0, [r1, #-2]
    8e2c:	2c00000f 	stccs	0, cr0, [r0], {15}
    8e30:	09a00607 	stmibeq	r0!, {r0, r1, r2, r9, sl}
    8e34:	69120000 	ldmdbvs	r2, {}	; <UNPREDICTABLE>
    8e38:	0907006f 	stmdbeq	r7, {r0, r1, r2, r3, r5, r6}
    8e3c:	00000033 	andeq	r0, r0, r3, lsr r0
    8e40:	65691200 	strbvs	r1, [r9, #-512]!	; 0xfffffe00
    8e44:	0a070072 	beq	1c9014 <__bss_end__+0x1bf024>
    8e48:	00000033 	andeq	r0, r0, r3, lsr r0
    8e4c:	69691204 	stmdbvs	r9!, {r2, r9, ip}^
    8e50:	11070072 	tstne	r7, r2, ror r0
    8e54:	00000033 	andeq	r0, r0, r3, lsr r0
    8e58:	636c1208 	cmnvs	ip, #8, 4	; 0x80000000
    8e5c:	13070072 	movwne	r0, #28786	; 0x7072
    8e60:	00000033 	andeq	r0, r0, r3, lsr r0
    8e64:	636d120c 	cmnvs	sp, #12, 4	; 0xc0000000
    8e68:	14070072 	strne	r0, [r7], #-114	; 0xffffff8e
    8e6c:	00000033 	andeq	r0, r0, r3, lsr r0
    8e70:	736c1210 	cmnvc	ip, #16, 4
    8e74:	15070072 	strne	r0, [r7, #-114]	; 0xffffff8e
    8e78:	00000033 	andeq	r0, r0, r3, lsr r0
    8e7c:	736d1214 	cmnvc	sp, #20, 4	; 0x40000001
    8e80:	16070072 			; <UNDEFINED> instruction: 0x16070072
    8e84:	00000033 	andeq	r0, r0, r3, lsr r0
    8e88:	10960e18 	addsne	r0, r6, r8, lsl lr
    8e8c:	17070000 	strne	r0, [r7, -r0]
    8e90:	00000033 	andeq	r0, r0, r3, lsr r0
    8e94:	0f690e1c 	svceq	0x00690e1c
    8e98:	1b070000 	blne	1c8ea0 <__bss_end__+0x1beeb0>
    8e9c:	00000033 	andeq	r0, r0, r3, lsr r0
    8ea0:	0f640e20 	svceq	0x00640e20
    8ea4:	1d070000 	stcne	0, cr0, [r7, #-0]
    8ea8:	00000033 	andeq	r0, r0, r3, lsr r0
    8eac:	0e270e24 	cdpeq	14, 2, cr0, cr7, cr4, {1}
    8eb0:	1e070000 	cdpne	0, 0, cr0, cr7, cr0, {0}
    8eb4:	00000033 	andeq	r0, r0, r3, lsr r0
    8eb8:	81240028 			; <UNDEFINED> instruction: 0x81240028
    8ebc:	0100000f 	tsteq	r0, pc
    8ec0:	0009b508 	andeq	fp, r9, r8, lsl #10
    8ec4:	21500400 	cmpcs	r0, r0, lsl #8
    8ec8:	33040620 	movwcc	r0, #17952	; 0x4620
    8ecc:	10000000 	andne	r0, r0, r0
    8ed0:	000009af 	andeq	r0, r0, pc, lsr #19
    8ed4:	000dcb24 	andeq	ip, sp, r4, lsr #22
    8ed8:	cf290100 	svcgt	0x00290100
    8edc:	40000009 	andmi	r0, r0, r9
    8ee0:	06202150 			; <UNDEFINED> instruction: 0x06202150
    8ee4:	00091004 	andeq	r1, r9, r4
    8ee8:	09c91000 	stmibeq	r9, {ip}^
    8eec:	b4250000 	strtlt	r0, [r5], #-0
    8ef0:	01000010 	tsteq	r0, r0, lsl r0
    8ef4:	000025a3 	andeq	r2, r0, r3, lsr #11
    8ef8:	0094e800 	addseq	lr, r4, r0, lsl #16
    8efc:	00000c00 	andeq	r0, r0, r0, lsl #24
    8f00:	f79c0100 			; <UNDEFINED> instruction: 0xf79c0100
    8f04:	26000009 	strcs	r0, [r0], -r9
    8f08:	000094f0 	strdeq	r9, [r0], -r0
    8f0c:	00000aa2 	andeq	r0, r0, r2, lsr #21
    8f10:	0d492700 	stcleq	7, cr2, [r9, #-0]
    8f14:	9d010000 	stcls	0, cr0, [r1, #-0]
    8f18:	000094c0 	andeq	r9, r0, r0, asr #9
    8f1c:	00000028 	andeq	r0, r0, r8, lsr #32
    8f20:	0a3f9c01 	beq	feff2c <__bss_end__+0xfe5f3c>
    8f24:	63280000 			; <UNDEFINED> instruction: 0x63280000
    8f28:	2c9d0100 	ldfcss	f0, [sp], {0}
    8f2c:	3e000000 	cdpcc	0, 0, cr0, cr0, cr0, {0}
    8f30:	26000010 			; <UNDEFINED> instruction: 0x26000010
    8f34:	000094cc 	andeq	r9, r0, ip, asr #9
    8f38:	00000a75 	andeq	r0, r0, r5, ror sl
    8f3c:	0094e029 	addseq	lr, r4, r9, lsr #32
    8f40:	000c6c00 	andeq	r6, ip, r0, lsl #24
    8f44:	50012a00 	andpl	r2, r1, r0, lsl #20
    8f48:	50400c05 	subpl	r0, r0, r5, lsl #24
    8f4c:	012a2021 			; <UNDEFINED> instruction: 0x012a2021
    8f50:	00740551 	rsbseq	r0, r4, r1, asr r5
    8f54:	001aff08 	andseq	pc, sl, r8, lsl #30
    8f58:	0f9b2500 	svceq	0x009b2500
    8f5c:	98010000 	stmdals	r1, {}	; <UNPREDICTABLE>
    8f60:	00000025 	andeq	r0, r0, r5, lsr #32
    8f64:	0000949c 	muleq	r0, ip, r4
    8f68:	00000024 	andeq	r0, r0, r4, lsr #32
    8f6c:	0a759c01 	beq	1d6ff78 <__bss_end__+0x1d65f88>
    8f70:	a4260000 	strtge	r0, [r6], #-0
    8f74:	a2000094 	andge	r0, r0, #148	; 0x94
    8f78:	2900000a 	stmdbcs	r0, {r1, r3}
    8f7c:	000094b4 			; <UNDEFINED> instruction: 0x000094b4
    8f80:	00000c77 	andeq	r0, r0, r7, ror ip
    8f84:	0550012a 	ldrbeq	r0, [r0, #-298]	; 0xfffffed6
    8f88:	2150400c 	cmpcs	r0, ip
    8f8c:	25000020 	strcs	r0, [r0, #-32]	; 0xffffffe0
    8f90:	00000f8d 	andeq	r0, r0, sp, lsl #31
    8f94:	00258901 	eoreq	r8, r5, r1, lsl #18
    8f98:	947c0000 	ldrbtls	r0, [ip], #-0
    8f9c:	00200000 	eoreq	r0, r0, r0
    8fa0:	9c010000 	stcls	0, cr0, [r1], {-0}
    8fa4:	00000aa2 	andeq	r0, r0, r2, lsr #21
    8fa8:	00948829 	addseq	r8, r4, r9, lsr #16
    8fac:	000c7700 	andeq	r7, ip, r0, lsl #14
    8fb0:	50012a00 	andpl	r2, r1, r0, lsl #20
    8fb4:	50640c05 	rsbpl	r0, r4, r5, lsl #24
    8fb8:	00002021 	andeq	r2, r0, r1, lsr #32
    8fbc:	00109e25 	andseq	r9, r0, r5, lsr #28
    8fc0:	25800100 	strcs	r0, [r0, #256]	; 0x100
    8fc4:	64000000 	strvs	r0, [r0], #-0
    8fc8:	18000094 	stmdane	r0, {r2, r4, r7}
    8fcc:	01000000 	mrseq	r0, (UNDEF: 0)
    8fd0:	000acf9c 	muleq	sl, ip, pc	; <UNPREDICTABLE>
    8fd4:	94702900 	ldrbtls	r2, [r0], #-2304	; 0xfffff700
    8fd8:	0c770000 	ldcleq	0, cr0, [r7], #-0
    8fdc:	012a0000 			; <UNDEFINED> instruction: 0x012a0000
    8fe0:	640c0550 	strvs	r0, [ip], #-1360	; 0xfffffab0
    8fe4:	00202150 	eoreq	r2, r0, r0, asr r1
    8fe8:	01692700 	cmneq	r9, r0, lsl #14
    8fec:	3b010000 	blcc	48ff4 <__bss_end__+0x3f004>
    8ff0:	000093b4 			; <UNDEFINED> instruction: 0x000093b4
    8ff4:	000000b0 	strheq	r0, [r0], -r0	; <UNPREDICTABLE>
    8ff8:	0c0d9c01 	stceq	12, cr9, [sp], {1}
    8ffc:	c42b0000 	strtgt	r0, [fp], #-0
    9000:	82000093 	andhi	r0, r0, #147	; 0x93
    9004:	fc00000c 	stc2	0, cr0, [r0], {12}
    9008:	2a00000a 	bcs	9038 <va_printk+0x1d4>
    900c:	3e015001 	cdpcc	0, 0, cr5, cr1, cr1, {0}
    9010:	0151012a 	cmpeq	r1, sl, lsr #2
    9014:	d02b0032 	eorle	r0, fp, r2, lsr r0
    9018:	82000093 	andhi	r0, r0, #147	; 0x93
    901c:	1400000c 	strne	r0, [r0], #-12
    9020:	2a00000b 	bcs	9054 <va_printk+0x1f0>
    9024:	3f015001 	svccc	0x00015001
    9028:	0151012a 	cmpeq	r1, sl, lsr #2
    902c:	d4260032 	strtle	r0, [r6], #-50	; 0xffffffce
    9030:	8d000093 	stchi	0, cr0, [r0, #-588]	; 0xfffffdb4
    9034:	2b00000c 	blcs	906c <va_printk+0x208>
    9038:	000093e0 	andeq	r9, r0, r0, ror #7
    903c:	00000c0d 	andeq	r0, r0, sp, lsl #24
    9040:	00000b39 	andeq	r0, r0, r9, lsr fp
    9044:	0550012a 	ldrbeq	r0, [r0, #-298]	; 0xfffffed6
    9048:	2150040c 	cmpcs	r0, ip, lsl #8
    904c:	51012a20 	tstpl	r1, r0, lsr #20
    9050:	26003101 	strcs	r3, [r0], -r1, lsl #2
    9054:	000093e4 	andeq	r9, r0, r4, ror #7
    9058:	00000c8d 	andeq	r0, r0, sp, lsl #25
    905c:	0093f42b 	addseq	pc, r3, fp, lsr #8
    9060:	000c6c00 	andeq	r6, ip, r0, lsl #24
    9064:	000b5b00 	andeq	r5, fp, r0, lsl #22
    9068:	50012a00 	andpl	r2, r1, r0, lsl #20
    906c:	2a007402 	bcs	2607c <__bss_end__+0x1c08c>
    9070:	30015101 	andcc	r5, r1, r1, lsl #2
    9074:	94002b00 	strls	r2, [r0], #-2816	; 0xfffff500
    9078:	0c6c0000 	stcleq	0, cr0, [ip], #-0
    907c:	0b770000 	bleq	1dc9084 <__bss_end__+0x1dbf094>
    9080:	012a0000 			; <UNDEFINED> instruction: 0x012a0000
    9084:	440c0550 	strmi	r0, [ip], #-1360	; 0xfffffab0
    9088:	2a202150 	bcs	8115d0 <__bss_end__+0x8075e0>
    908c:	30015101 	andcc	r5, r1, r1, lsl #2
    9090:	940c2b00 	strls	r2, [ip], #-2816	; 0xfffff500
    9094:	0c6c0000 	stcleq	0, cr0, [ip], #-0
    9098:	0b930000 	bleq	fe4c90a0 <__bss_end__+0xfe4bf0b0>
    909c:	012a0000 			; <UNDEFINED> instruction: 0x012a0000
    90a0:	4c0c0550 	cfstr32mi	mvfx0, [ip], {80}	; 0x50
    90a4:	2a202150 	bcs	8115ec <__bss_end__+0x8075fc>
    90a8:	33015101 	movwcc	r5, #4353	; 0x1101
    90ac:	94182b00 	ldrls	r2, [r8], #-2816	; 0xfffff500
    90b0:	0c6c0000 	stcleq	0, cr0, [ip], #-0
    90b4:	0baf0000 	bleq	febc90bc <__bss_end__+0xfebbf0cc>
    90b8:	012a0000 			; <UNDEFINED> instruction: 0x012a0000
    90bc:	500c0550 	andpl	r0, ip, r0, asr r5
    90c0:	2a202150 	bcs	811608 <__bss_end__+0x807618>
    90c4:	30015101 	andcc	r5, r1, r1, lsl #2
    90c8:	94242b00 	strtls	r2, [r4], #-2816	; 0xfffff500
    90cc:	0c6c0000 	stcleq	0, cr0, [ip], #-0
    90d0:	0bcc0000 	bleq	ff3090d8 <__bss_end__+0xff2ff0e8>
    90d4:	012a0000 			; <UNDEFINED> instruction: 0x012a0000
    90d8:	480c0550 	stmdami	ip, {r4, r6, r8, sl}
    90dc:	2a202150 	bcs	811624 <__bss_end__+0x807634>
    90e0:	08025101 	stmdaeq	r2, {r0, r8, ip, lr}
    90e4:	302b00c7 	eorcc	r0, fp, r7, asr #1
    90e8:	6c000094 	stcvs	0, cr0, [r0], {148}	; 0x94
    90ec:	ea00000c 	b	9124 <internal_putk>
    90f0:	2a00000b 	bcs	9124 <internal_putk>
    90f4:	0c055001 	stceq	0, cr5, [r5], {1}
    90f8:	20215068 	eorcs	r5, r1, r8, rrx
    90fc:	0351012a 	cmpeq	r1, #-2147483638	; 0x8000000a
    9100:	00010e0a 	andeq	r0, r1, sl, lsl #28
    9104:	00943c2b 	addseq	r3, r4, fp, lsr #24
    9108:	000c6c00 	andeq	r6, ip, r0, lsl #24
    910c:	000c0300 	andeq	r0, ip, r0, lsl #6
    9110:	50012a00 	andpl	r2, r1, r0, lsl #20
    9114:	2a007402 	bcs	26124 <__bss_end__+0x1c134>
    9118:	33015101 	movwcc	r5, #4353	; 0x1101
    911c:	94402600 	strbls	r2, [r0], #-1536	; 0xfffffa00
    9120:	0c8d0000 	stceq	0, cr0, [sp], {0}
    9124:	2c000000 	stccs	0, cr0, [r0], {-0}
    9128:	000010ac 	andeq	r1, r0, ip, lsr #1
    912c:	93942e01 	orrsls	r2, r4, #1, 28
    9130:	00200000 	eoreq	r0, r0, r0
    9134:	9c010000 	stcls	0, cr0, [r1], {-0}
    9138:	00000c65 	andeq	r0, r0, r5, ror #24
    913c:	00084c2d 	andeq	r4, r8, sp, lsr #24
    9140:	652e0100 	strvs	r0, [lr, #-256]!	; 0xffffff00
    9144:	5c00000c 	stcpl	0, cr0, [r0], {12}
    9148:	28000010 	stmdacs	r0, {r4}
    914c:	006c6176 	rsbeq	r6, ip, r6, ror r1
    9150:	002c2e01 	eoreq	r2, ip, r1, lsl #28
    9154:	107a0000 	rsbsne	r0, sl, r0
    9158:	a42b0000 	strtge	r0, [fp], #-0
    915c:	77000093 			; <UNDEFINED> instruction: 0x77000093
    9160:	5400000c 	strpl	r0, [r0], #-12
    9164:	2a00000c 	bcs	919c <_cstart+0x4>
    9168:	74025001 	strvc	r5, [r2], #-1
    916c:	b0290000 	eorlt	r0, r9, r0
    9170:	6c000093 	stcvs	0, cr0, [r0], {147}	; 0x93
    9174:	2a00000c 	bcs	91ac <_cstart+0x14>
    9178:	74025001 	strvc	r5, [r2], #-1
    917c:	06000000 	streq	r0, [r0], -r0
    9180:	000c6b04 	andeq	r6, ip, r4, lsl #22
    9184:	4f2f2e00 	svcmi	0x002f2e00
    9188:	4f00000b 	svcmi	0x0000000b
    918c:	0600000b 	streq	r0, [r0], -fp
    9190:	0ba82f9c 	bleq	fea15008 <__bss_end__+0xfea0b018>
    9194:	0ba80000 	bleq	fea0919c <__bss_end__+0xfe9ff1ac>
    9198:	a8060000 	stmdage	r6, {}	; <UNPREDICTABLE>
    919c:	000a6c2f 	andeq	r6, sl, pc, lsr #24
    91a0:	000a6c00 	andeq	r6, sl, r0, lsl #24
    91a4:	2f190800 	svccs	0x00190800
    91a8:	0000044f 	andeq	r0, r0, pc, asr #8
    91ac:	0000044f 	andeq	r0, r0, pc, asr #8
    91b0:	9a008906 	bls	2b5d0 <__bss_end__+0x215e0>
    91b4:	0400000b 	streq	r0, [r0], #-11
    91b8:	001aa100 	andseq	sl, sl, r0, lsl #2
    91bc:	ad010400 	cfstrsge	mvf0, [r1, #-0]
    91c0:	0c00000f 	stceq	0, cr0, [r0], {15}
    91c4:	000010d4 	ldrdeq	r1, [r0], -r4
    91c8:	00001041 	andeq	r1, r0, r1, asr #32
    91cc:	000094f4 	strdeq	r9, [r0], -r4
    91d0:	00000120 	andeq	r0, r0, r0, lsr #2
    91d4:	00000dd1 	ldrdeq	r0, [r0], -r1
    91d8:	69050402 	stmdbvs	r5, {r1, sl}
    91dc:	0300746e 	movweq	r7, #1134	; 0x46e
    91e0:	014a0704 	cmpeq	sl, r4, lsl #14
    91e4:	2c040000 	stccs	0, cr0, [r4], {-0}
    91e8:	05000000 	streq	r0, [r0, #-0]
    91ec:	0000002c 	andeq	r0, r0, ip, lsr #32
    91f0:	20060103 	andcs	r0, r6, r3, lsl #2
    91f4:	03000006 	movweq	r0, #6
    91f8:	066b0502 	strbteq	r0, [fp], -r2, lsl #10
    91fc:	04030000 	streq	r0, [r3], #-0
    9200:	0001c805 	andeq	ip, r1, r5, lsl #16
    9204:	05080300 	streq	r0, [r8, #-768]	; 0xfffffd00
    9208:	000001c3 	andeq	r0, r0, r3, asr #3
    920c:	1e080103 	adfnee	f0, f0, f3
    9210:	03000006 	movweq	r0, #6
    9214:	041a0702 	ldreq	r0, [sl], #-1794	; 0xfffff8fe
    9218:	04030000 	streq	r0, [r3], #-0
    921c:	00014507 	andeq	r4, r1, r7, lsl #10
    9220:	07080300 	streq	r0, [r8, -r0, lsl #6]
    9224:	00000140 	andeq	r0, r0, r0, asr #2
    9228:	000fa506 	andeq	sl, pc, r6, lsl #10
    922c:	80220200 	eorhi	r0, r2, r0, lsl #4
    9230:	07000000 	streq	r0, [r0, -r0]
    9234:	00008604 	andeq	r8, r0, r4, lsl #12
    9238:	108f0800 	addne	r0, pc, r0, lsl #16
    923c:	9e060000 	cdpls	0, 0, cr0, cr6, cr0, {0}
    9240:	03000005 	movweq	r0, #5
    9244:	00004b2c 	andeq	r4, r0, ip, lsr #22
    9248:	07690600 	strbeq	r0, [r9, -r0, lsl #12]!
    924c:	72030000 	andvc	r0, r3, #0
    9250:	0000004b 	andeq	r0, r0, fp, asr #32
    9254:	00047e09 	andeq	r7, r4, r9, lsl #28
    9258:	01650400 	cmneq	r5, r0, lsl #8
    925c:	0000002c 	andeq	r0, r0, ip, lsr #32
    9260:	a603040a 	strge	r0, [r3], -sl, lsl #8
    9264:	000000cc 	andeq	r0, r0, ip, asr #1
    9268:	00046b0b 	andeq	r6, r4, fp, lsl #22
    926c:	a1a80300 			; <UNDEFINED> instruction: 0xa1a80300
    9270:	0b000000 	bleq	9278 <rpi_reboot+0x44>
    9274:	0000037e 	andeq	r0, r0, lr, ror r3
    9278:	00cca903 	sbceq	sl, ip, r3, lsl #18
    927c:	0c000000 	stceq	0, cr0, [r0], {-0}
    9280:	00000059 	andeq	r0, r0, r9, asr r0
    9284:	000000dc 	ldrdeq	r0, [r0], -ip
    9288:	00002c0d 	andeq	r2, r0, sp, lsl #24
    928c:	0e000300 	cdpeq	3, 0, cr0, cr0, cr0, {0}
    9290:	fda30308 	stc2	3, cr0, [r3, #32]!
    9294:	0f000000 	svceq	0x00000000
    9298:	00000745 	andeq	r0, r0, r5, asr #14
    929c:	0025a503 	eoreq	sl, r5, r3, lsl #10
    92a0:	0f000000 	svceq	0x00000000
    92a4:	000007ec 	andeq	r0, r0, ip, ror #15
    92a8:	00adaa03 	adceq	sl, sp, r3, lsl #20
    92ac:	00040000 	andeq	r0, r4, r0
    92b0:	0006a006 	andeq	sl, r6, r6
    92b4:	dcab0300 	stcle	3, cr0, [fp]
    92b8:	06000000 	streq	r0, [r0], -r0
    92bc:	0000031c 	andeq	r0, r0, ip, lsl r3
    92c0:	0075af03 	rsbseq	sl, r5, r3, lsl #30
    92c4:	04100000 	ldreq	r0, [r0], #-0
    92c8:	011b0407 	tsteq	fp, r7, lsl #8
    92cc:	01030000 	mrseq	r0, (UNDEF: 3)
    92d0:	00062708 	andeq	r2, r6, r8, lsl #14
    92d4:	011b0500 	tsteq	fp, r0, lsl #10
    92d8:	26060000 	strcs	r0, [r6], -r0
    92dc:	05000008 	streq	r0, [r0, #-8]
    92e0:	00006716 	andeq	r6, r0, r6, lsl r7
    92e4:	032d1100 			; <UNDEFINED> instruction: 0x032d1100
    92e8:	05180000 	ldreq	r0, [r8, #-0]
    92ec:	0001852f 	andeq	r8, r1, pc, lsr #10
    92f0:	06d10f00 	ldrbeq	r0, [r1], r0, lsl #30
    92f4:	31050000 	mrscc	r0, (UNDEF: 5)
    92f8:	00000185 	andeq	r0, r0, r5, lsl #3
    92fc:	6b5f1200 	blvs	17cdb04 <__bss_end__+0x17c3b14>
    9300:	25320500 	ldrcs	r0, [r2, #-1280]!	; 0xfffffb00
    9304:	04000000 	streq	r0, [r0], #-0
    9308:	00071e0f 	andeq	r1, r7, pc, lsl #28
    930c:	25320500 	ldrcs	r0, [r2, #-1280]!	; 0xfffffb00
    9310:	08000000 	stmdaeq	r0, {}	; <UNPREDICTABLE>
    9314:	0003160f 	andeq	r1, r3, pc, lsl #12
    9318:	25320500 	ldrcs	r0, [r2, #-1280]!	; 0xfffffb00
    931c:	0c000000 	stceq	0, cr0, [r0], {-0}
    9320:	0008c50f 	andeq	ip, r8, pc, lsl #10
    9324:	25320500 	ldrcs	r0, [r2, #-1280]!	; 0xfffffb00
    9328:	10000000 	andne	r0, r0, r0
    932c:	00785f12 	rsbseq	r5, r8, r2, lsl pc
    9330:	018b3305 	orreq	r3, fp, r5, lsl #6
    9334:	00140000 	andseq	r0, r4, r0
    9338:	01320407 	teqeq	r2, r7, lsl #8
    933c:	270c0000 	strcs	r0, [ip, -r0]
    9340:	9b000001 	blls	934c <put32+0x4>
    9344:	0d000001 	stceq	0, cr0, [r0, #-4]
    9348:	0000002c 	andeq	r0, r0, ip, lsr #32
    934c:	70110000 	andsvc	r0, r1, r0
    9350:	24000003 	strcs	r0, [r0], #-3
    9354:	02143705 	andseq	r3, r4, #1310720	; 0x140000
    9358:	ba0f0000 	blt	3c9360 <__bss_end__+0x3bf370>
    935c:	05000001 	streq	r0, [r0, #-1]
    9360:	00002539 	andeq	r2, r0, r9, lsr r5
    9364:	910f0000 	mrsls	r0, CPSR
    9368:	05000007 	streq	r0, [r0, #-7]
    936c:	0000253a 	andeq	r2, r0, sl, lsr r5
    9370:	040f0400 	streq	r0, [pc], #-1024	; 9378 <get32>
    9374:	05000002 	streq	r0, [r0, #-2]
    9378:	0000253b 	andeq	r2, r0, fp, lsr r5
    937c:	d90f0800 	stmdble	pc, {fp}	; <UNPREDICTABLE>
    9380:	05000009 	streq	r0, [r0, #-9]
    9384:	0000253c 	andeq	r2, r0, ip, lsr r5
    9388:	630f0c00 	movwvs	r0, #64512	; 0xfc00
    938c:	05000005 	streq	r0, [r0, #-5]
    9390:	0000253d 	andeq	r2, r0, sp, lsr r5
    9394:	d10f1000 	mrsle	r1, CPSR
    9398:	05000004 	streq	r0, [r0, #-4]
    939c:	0000253e 	andeq	r2, r0, lr, lsr r5
    93a0:	ca0f1400 	bgt	3ce3a8 <__bss_end__+0x3c43b8>
    93a4:	05000008 	streq	r0, [r0, #-8]
    93a8:	0000253f 	andeq	r2, r0, pc, lsr r5
    93ac:	750f1800 	strvc	r1, [pc, #-2048]	; 8bb4 <printk+0x18>
    93b0:	05000006 	streq	r0, [r0, #-6]
    93b4:	00002540 	andeq	r2, r0, r0, asr #10
    93b8:	530f1c00 	movwpl	r1, #64512	; 0xfc00
    93bc:	05000009 	streq	r0, [r0, #-9]
    93c0:	00002541 	andeq	r2, r0, r1, asr #10
    93c4:	13002000 	movwne	r2, #0
    93c8:	00000213 	andeq	r0, r0, r3, lsl r2
    93cc:	4a050108 	bmi	1497f4 <__bss_end__+0x13f804>
    93d0:	00000254 	andeq	r0, r0, r4, asr r2
    93d4:	0002e80f 	andeq	lr, r2, pc, lsl #16
    93d8:	544b0500 	strbpl	r0, [fp], #-1280	; 0xfffffb00
    93dc:	00000002 	andeq	r0, r0, r2
    93e0:	0000000f 	andeq	r0, r0, pc
    93e4:	544c0500 	strbpl	r0, [ip], #-1280	; 0xfffffb00
    93e8:	80000002 	andhi	r0, r0, r2
    93ec:	0007b314 	andeq	fp, r7, r4, lsl r3
    93f0:	274e0500 	strbcs	r0, [lr, -r0, lsl #10]
    93f4:	00000001 	andeq	r0, r0, r1
    93f8:	025d1401 	subseq	r1, sp, #16777216	; 0x1000000
    93fc:	51050000 	mrspl	r0, (UNDEF: 5)
    9400:	00000127 	andeq	r0, r0, r7, lsr #2
    9404:	0c000104 	stfeqs	f0, [r0], {4}
    9408:	00000113 	andeq	r0, r0, r3, lsl r1
    940c:	00000264 	andeq	r0, r0, r4, ror #4
    9410:	00002c0d 	andeq	r2, r0, sp, lsl #24
    9414:	13001f00 	movwne	r1, #3840	; 0xf00
    9418:	0000057d 	andeq	r0, r0, sp, ror r5
    941c:	5d050190 	stfpls	f0, [r5, #-576]	; 0xfffffdc0
    9420:	000002a2 	andeq	r0, r0, r2, lsr #5
    9424:	0006d10f 	andeq	sp, r6, pc, lsl #2
    9428:	a25e0500 	subsge	r0, lr, #0, 10
    942c:	00000002 	andeq	r0, r0, r2
    9430:	0006ff0f 	andeq	pc, r6, pc, lsl #30
    9434:	255f0500 	ldrbcs	r0, [pc, #-1280]	; 8f3c <va_printk+0xd8>
    9438:	04000000 	streq	r0, [r0], #-0
    943c:	0003110f 	andeq	r1, r3, pc, lsl #2
    9440:	a8610500 	stmdage	r1!, {r8, sl}^
    9444:	08000002 	stmdaeq	r0, {r1}
    9448:	0002130f 	andeq	r1, r2, pc, lsl #6
    944c:	14620500 	strbtne	r0, [r2], #-1280	; 0xfffffb00
    9450:	88000002 	stmdahi	r0, {r1}
    9454:	64040700 	strvs	r0, [r4], #-1792	; 0xfffff900
    9458:	0c000002 	stceq	0, cr0, [r0], {2}
    945c:	000002b8 			; <UNDEFINED> instruction: 0x000002b8
    9460:	000002b8 			; <UNDEFINED> instruction: 0x000002b8
    9464:	00002c0d 	andeq	r2, r0, sp, lsl #24
    9468:	07001f00 	streq	r1, [r0, -r0, lsl #30]
    946c:	0002be04 	andeq	fp, r2, r4, lsl #28
    9470:	7f111500 	svcvc	0x00111500
    9474:	08000006 	stmdaeq	r0, {r1, r2}
    9478:	02e47505 	rsceq	r7, r4, #20971520	; 0x1400000
    947c:	fe0f0000 	cdp2	0, 0, cr0, cr15, cr0, {0}
    9480:	05000001 	streq	r0, [r0, #-1]
    9484:	0002e476 	andeq	lr, r2, r6, ror r4
    9488:	a60f0000 	strge	r0, [pc], -r0
    948c:	05000000 	streq	r0, [r0, #-0]
    9490:	00002577 	andeq	r2, r0, r7, ror r5
    9494:	07000400 	streq	r0, [r0, -r0, lsl #8]
    9498:	00005904 	andeq	r5, r0, r4, lsl #18
    949c:	06ab1100 	strteq	r1, [fp], r0, lsl #2
    94a0:	05680000 	strbeq	r0, [r8, #-0]!
    94a4:	000414b5 			; <UNDEFINED> instruction: 0x000414b5
    94a8:	705f1200 	subsvc	r1, pc, r0, lsl #4
    94ac:	e4b60500 	ldrt	r0, [r6], #1280	; 0x500
    94b0:	00000002 	andeq	r0, r0, r2
    94b4:	00725f12 	rsbseq	r5, r2, r2, lsl pc
    94b8:	0025b705 	eoreq	fp, r5, r5, lsl #14
    94bc:	12040000 	andne	r0, r4, #0
    94c0:	0500775f 	streq	r7, [r0, #-1887]	; 0xfffff8a1
    94c4:	000025b8 			; <UNDEFINED> instruction: 0x000025b8
    94c8:	560f0800 	strpl	r0, [pc], -r0, lsl #16
    94cc:	05000002 	streq	r0, [r0, #-2]
    94d0:	000044b9 			; <UNDEFINED> instruction: 0x000044b9
    94d4:	af0f0c00 	svcge	0x000f0c00
    94d8:	05000003 	streq	r0, [r0, #-3]
    94dc:	000044ba 			; <UNDEFINED> instruction: 0x000044ba
    94e0:	5f120e00 	svcpl	0x00120e00
    94e4:	05006662 	streq	r6, [r0, #-1634]	; 0xfffff99e
    94e8:	0002bfbb 			; <UNDEFINED> instruction: 0x0002bfbb
    94ec:	600f1000 	andvs	r1, pc, r0
    94f0:	05000001 	streq	r0, [r0, #-1]
    94f4:	000025bc 			; <UNDEFINED> instruction: 0x000025bc
    94f8:	210f1800 	tstcs	pc, r0, lsl #16
    94fc:	05000002 	streq	r0, [r0, #-2]
    9500:	000113c3 	andeq	r1, r1, r3, asr #7
    9504:	ad0f1c00 	stcge	12, cr1, [pc, #-0]	; 950c <gpio_set_function+0x18>
    9508:	05000008 	streq	r0, [r0, #-8]
    950c:	00056fc5 	andeq	r6, r5, r5, asr #31
    9510:	760f2000 	strvc	r2, [pc], -r0
    9514:	05000001 	streq	r0, [r0, #-1]
    9518:	000599c7 	andeq	r9, r5, r7, asr #19
    951c:	560f2400 	strpl	r2, [pc], -r0, lsl #8
    9520:	05000007 	streq	r0, [r0, #-7]
    9524:	0005bdca 	andeq	fp, r5, sl, asr #27
    9528:	6d0f2800 	stcvs	8, cr2, [pc, #-0]	; 9530 <gpio_set_function+0x3c>
    952c:	05000009 	streq	r0, [r0, #-9]
    9530:	0005d7cb 	andeq	sp, r5, fp, asr #15
    9534:	5f122c00 	svcpl	0x00122c00
    9538:	05006275 	streq	r6, [r0, #-629]	; 0xfffffd8b
    953c:	0002bfce 	andeq	fp, r2, lr, asr #31
    9540:	5f123000 	svcpl	0x00123000
    9544:	05007075 	streq	r7, [r0, #-117]	; 0xffffff8b
    9548:	0002e4cf 	andeq	lr, r2, pc, asr #9
    954c:	5f123800 	svcpl	0x00123800
    9550:	05007275 	streq	r7, [r0, #-629]	; 0xfffffd8b
    9554:	000025d0 	ldrdeq	r2, [r0], -r0
    9558:	f00f3c00 			; <UNDEFINED> instruction: 0xf00f3c00
    955c:	05000001 	streq	r0, [r0, #-1]
    9560:	0005ddd3 	ldrdeq	sp, [r5], -r3
    9564:	240f4000 	strcs	r4, [pc], #-0	; 956c <gpio_set_on>
    9568:	05000009 	streq	r0, [r0, #-9]
    956c:	0005edd4 	ldrdeq	lr, [r5], -r4
    9570:	5f124300 	svcpl	0x00124300
    9574:	0500626c 	streq	r6, [r0, #-620]	; 0xfffffd94
    9578:	0002bfd7 	ldrdeq	fp, [r2], -r7
    957c:	730f4400 	movwvc	r4, #62464	; 0xf400
    9580:	05000002 	streq	r0, [r0, #-2]
    9584:	000025da 	ldrdeq	r2, [r0], -sl
    9588:	a90f4c00 	stmdbge	pc, {sl, fp, lr}	; <UNPREDICTABLE>
    958c:	05000002 	streq	r0, [r0, #-2]
    9590:	00008bdb 	ldrdeq	r8, [r0], -fp
    9594:	4c0f5000 	stcmi	0, cr5, [pc], {-0}
    9598:	05000006 	streq	r0, [r0, #-6]
    959c:	000432de 	ldrdeq	r3, [r4], -lr
    95a0:	900f5400 	andls	r5, pc, r0, lsl #8
    95a4:	05000010 	streq	r0, [r0, #-16]
    95a8:	000108e2 	andeq	r0, r1, r2, ror #17
    95ac:	c30f5800 	movwgt	r5, #63488	; 0xf800
    95b0:	05000006 	streq	r0, [r0, #-6]
    95b4:	0000fde4 	andeq	pc, r0, r4, ror #27
    95b8:	9f0f5c00 	svcls	0x000f5c00
    95bc:	05000004 	streq	r0, [r0, #-4]
    95c0:	000025e5 	andeq	r2, r0, r5, ror #11
    95c4:	16006400 	strne	r6, [r0], -r0, lsl #8
    95c8:	00000025 	andeq	r0, r0, r5, lsr #32
    95cc:	00000432 	andeq	r0, r0, r2, lsr r4
    95d0:	00043217 	andeq	r3, r4, r7, lsl r2
    95d4:	01131700 	tsteq	r3, r0, lsl #14
    95d8:	15170000 	ldrne	r0, [r7, #-0]
    95dc:	17000001 	strne	r0, [r0, -r1]
    95e0:	00000025 	andeq	r0, r0, r5, lsr #32
    95e4:	3d040700 	stccc	7, cr0, [r4, #-0]
    95e8:	05000004 	streq	r0, [r0, #-4]
    95ec:	00000432 	andeq	r0, r0, r2, lsr r4
    95f0:	00072618 	andeq	r2, r7, r8, lsl r6
    95f4:	05042800 	streq	r2, [r4, #-2048]	; 0xfffff800
    95f8:	056f0260 	strbeq	r0, [pc, #-608]!	; 93a0 <or_in32+0xc>
    95fc:	64190000 	ldrvs	r0, [r9], #-0
    9600:	05000006 	streq	r0, [r0, #-6]
    9604:	00250262 	eoreq	r0, r5, r2, ror #4
    9608:	19000000 	stmdbne	r0, {}	; <UNPREDICTABLE>
    960c:	00000265 	andeq	r0, r0, r5, ror #4
    9610:	44026705 	strmi	r6, [r2], #-1797	; 0xfffff8fb
    9614:	04000006 	streq	r0, [r0], #-6
    9618:	00039419 	andeq	r9, r3, r9, lsl r4
    961c:	02670500 	rsbeq	r0, r7, #0, 10
    9620:	00000644 	andeq	r0, r0, r4, asr #12
    9624:	03251908 			; <UNDEFINED> instruction: 0x03251908
    9628:	67050000 	strvs	r0, [r5, -r0]
    962c:	00064402 	andeq	r4, r6, r2, lsl #8
    9630:	fa190c00 	blx	64c638 <__bss_end__+0x642648>
    9634:	05000006 	streq	r0, [r0, #-6]
    9638:	00250269 	eoreq	r0, r5, r9, ror #4
    963c:	19100000 	ldmdbne	r0, {}	; <UNPREDICTABLE>
    9640:	000000e5 	andeq	r0, r0, r5, ror #1
    9644:	26026a05 	strcs	r6, [r2], -r5, lsl #20
    9648:	14000008 	strne	r0, [r0], #-8
    964c:	00107619 	andseq	r7, r0, r9, lsl r6
    9650:	026d0500 	rsbeq	r0, sp, #0, 10
    9654:	00000025 	andeq	r0, r0, r5, lsr #32
    9658:	070c1930 	smladxeq	ip, r0, r9, r1
    965c:	6e050000 	cdpvs	0, 0, cr0, cr5, cr0, {0}
    9660:	00083b02 	andeq	r3, r8, r2, lsl #22
    9664:	93193400 	tstls	r9, #0, 8
    9668:	05000005 	streq	r0, [r0, #-5]
    966c:	00250270 	eoreq	r0, r5, r0, ror r2
    9670:	19380000 	ldmdbne	r8!, {}	; <UNPREDICTABLE>
    9674:	00000714 	andeq	r0, r0, r4, lsl r7
    9678:	4c027205 	sfmmi	f7, 4, [r2], {5}
    967c:	3c000008 	stccc	0, cr0, [r0], {8}
    9680:	00046319 	andeq	r6, r4, r9, lsl r3
    9684:	02750500 	rsbseq	r0, r5, #0, 10
    9688:	00000185 	andeq	r0, r0, r5, lsl #3
    968c:	035a1940 	cmpeq	sl, #64, 18	; 0x100000
    9690:	76050000 	strvc	r0, [r5], -r0
    9694:	00002502 	andeq	r2, r0, r2, lsl #10
    9698:	90194400 	andsls	r4, r9, r0, lsl #8
    969c:	05000009 	streq	r0, [r0, #-9]
    96a0:	01850277 	orreq	r0, r5, r7, ror r2
    96a4:	19480000 	stmdbne	r8, {}^	; <UNPREDICTABLE>
    96a8:	000005c8 	andeq	r0, r0, r8, asr #11
    96ac:	52027805 	andpl	r7, r2, #327680	; 0x50000
    96b0:	4c000008 	stcmi	0, cr0, [r0], {8}
    96b4:	00039c19 	andeq	r9, r3, r9, lsl ip
    96b8:	027b0500 	rsbseq	r0, fp, #0, 10
    96bc:	00000025 	andeq	r0, r0, r5, lsr #32
    96c0:	02a11950 	adceq	r1, r1, #80, 18	; 0x140000
    96c4:	7c050000 	stcvc	0, cr0, [r5], {-0}
    96c8:	00011502 	andeq	r1, r1, r2, lsl #10
    96cc:	52195400 	andspl	r5, r9, #0, 8
    96d0:	05000011 	streq	r0, [r0, #-17]	; 0xffffffef
    96d4:	0804029f 	stmdaeq	r4, {r0, r1, r2, r3, r4, r7, r9}
    96d8:	1a580000 	bne	16096e0 <__bss_end__+0x15ff6f0>
    96dc:	0000057d 	andeq	r0, r0, sp, ror r5
    96e0:	a202a305 	andge	sl, r2, #335544320	; 0x14000000
    96e4:	48000002 	stmdami	r0, {r1}
    96e8:	042d1a01 	strteq	r1, [sp], #-2561	; 0xfffff5ff
    96ec:	a4050000 	strge	r0, [r5], #-0
    96f0:	00026402 	andeq	r6, r2, r2, lsl #8
    96f4:	1a014c00 	bne	5c6fc <__bss_end__+0x5270c>
    96f8:	000008f5 	strdeq	r0, [r0], -r5
    96fc:	6302a805 	movwvs	sl, #10245	; 0x2805
    9700:	dc000008 	stcle	0, cr0, [r0], {8}
    9704:	02291a02 	eoreq	r1, r9, #8192	; 0x2000
    9708:	ad050000 	stcge	0, cr0, [r5, #-0]
    970c:	00060902 	andeq	r0, r6, r2, lsl #18
    9710:	1a02e000 	bne	c1718 <__bss_end__+0xb7728>
    9714:	0000020e 	andeq	r0, r0, lr, lsl #4
    9718:	6f02af05 	svcvs	0x0002af05
    971c:	ec000008 	stc	0, cr0, [r0], {8}
    9720:	04070002 	streq	r0, [r7], #-2
    9724:	00000414 	andeq	r0, r0, r4, lsl r4
    9728:	00002516 	andeq	r2, r0, r6, lsl r5
    972c:	00059300 	andeq	r9, r5, r0, lsl #6
    9730:	04321700 	ldrteq	r1, [r2], #-1792	; 0xfffff900
    9734:	13170000 	tstne	r7, #0
    9738:	17000001 	strne	r0, [r0, -r1]
    973c:	00000593 	muleq	r0, r3, r5
    9740:	00002517 	andeq	r2, r0, r7, lsl r5
    9744:	04070000 	streq	r0, [r7], #-0
    9748:	00000122 	andeq	r0, r0, r2, lsr #2
    974c:	05750407 	ldrbeq	r0, [r5, #-1031]!	; 0xfffffbf9
    9750:	96160000 	ldrls	r0, [r6], -r0
    9754:	bd000000 	stclt	0, cr0, [r0, #-0]
    9758:	17000005 	strne	r0, [r0, -r5]
    975c:	00000432 	andeq	r0, r0, r2, lsr r4
    9760:	00011317 	andeq	r1, r1, r7, lsl r3
    9764:	00961700 	addseq	r1, r6, r0, lsl #14
    9768:	25170000 	ldrcs	r0, [r7, #-0]
    976c:	00000000 	andeq	r0, r0, r0
    9770:	059f0407 	ldreq	r0, [pc, #1031]	; 9b7f <__FUNCTION__.4295+0x97>
    9774:	25160000 	ldrcs	r0, [r6, #-0]
    9778:	d7000000 	strle	r0, [r0, -r0]
    977c:	17000005 	strne	r0, [r0, -r5]
    9780:	00000432 	andeq	r0, r0, r2, lsr r4
    9784:	00011317 	andeq	r1, r1, r7, lsl r3
    9788:	04070000 	streq	r0, [r7], #-0
    978c:	000005c3 	andeq	r0, r0, r3, asr #11
    9790:	0000590c 	andeq	r5, r0, ip, lsl #18
    9794:	0005ed00 	andeq	lr, r5, r0, lsl #26
    9798:	002c0d00 	eoreq	r0, ip, r0, lsl #26
    979c:	00020000 	andeq	r0, r2, r0
    97a0:	0000590c 	andeq	r5, r0, ip, lsl #18
    97a4:	0005fd00 	andeq	pc, r5, r0, lsl #26
    97a8:	002c0d00 	eoreq	r0, ip, r0, lsl #26
    97ac:	00000000 	andeq	r0, r0, r0
    97b0:	00069909 	andeq	r9, r6, r9, lsl #18
    97b4:	011f0500 	tsteq	pc, r0, lsl #10
    97b8:	000002ea 	andeq	r0, r0, sl, ror #5
    97bc:	0008d41b 	andeq	sp, r8, fp, lsl r4
    97c0:	23050c00 	movwcs	r0, #23552	; 0x5c00
    97c4:	00063e01 	andeq	r3, r6, r1, lsl #28
    97c8:	06d11900 	ldrbeq	r1, [r1], r0, lsl #18
    97cc:	25050000 	strcs	r0, [r5, #-0]
    97d0:	00063e01 	andeq	r3, r6, r1, lsl #28
    97d4:	fd190000 	ldc2	0, cr0, [r9, #-0]
    97d8:	05000003 	streq	r0, [r0, #-3]
    97dc:	00250126 	eoreq	r0, r5, r6, lsr #2
    97e0:	19040000 	stmdbne	r4, {}	; <UNPREDICTABLE>
    97e4:	00000693 	muleq	r0, r3, r6
    97e8:	44012705 	strmi	r2, [r1], #-1797	; 0xfffff8fb
    97ec:	08000006 	stmdaeq	r0, {r1, r2}
    97f0:	09040700 	stmdbeq	r4, {r8, r9, sl}
    97f4:	07000006 	streq	r0, [r0, -r6]
    97f8:	0005fd04 	andeq	pc, r5, r4, lsl #26
    97fc:	00c91b00 	sbceq	r1, r9, r0, lsl #22
    9800:	050e0000 	streq	r0, [lr, #-0]
    9804:	067f013f 			; <UNDEFINED> instruction: 0x067f013f
    9808:	36190000 	ldrcc	r0, [r9], -r0
    980c:	05000007 	streq	r0, [r0, #-7]
    9810:	067f0140 	ldrbteq	r0, [pc], -r0, asr #2
    9814:	19000000 	stmdbne	r0, {}	; <UNPREDICTABLE>
    9818:	000007d9 	ldrdeq	r0, [r0], -r9
    981c:	7f014105 	svcvc	0x00014105
    9820:	06000006 	streq	r0, [r0], -r6
    9824:	00081819 	andeq	r1, r8, r9, lsl r8
    9828:	01420500 	cmpeq	r2, r0, lsl #10
    982c:	00000060 	andeq	r0, r0, r0, rrx
    9830:	600c000c 	andvs	r0, ip, ip
    9834:	8f000000 	svchi	0x00000000
    9838:	0d000006 	stceq	0, cr0, [r0, #-24]	; 0xffffffe8
    983c:	0000002c 	andeq	r0, r0, ip, lsr #32
    9840:	d01c0002 	andsle	r0, ip, r2
    9844:	90028005 	andls	r8, r2, r5
    9848:	19000007 	stmdbne	r0, {r0, r1, r2}
    984c:	0000089d 	muleq	r0, sp, r8
    9850:	2c028205 	sfmcs	f0, 1, [r2], {5}
    9854:	00000000 	andeq	r0, r0, r0
    9858:	0007df19 	andeq	sp, r7, r9, lsl pc
    985c:	02830500 	addeq	r0, r3, #0, 10
    9860:	00000115 	andeq	r0, r0, r5, lsl r1
    9864:	04421904 	strbeq	r1, [r2], #-2308	; 0xfffff6fc
    9868:	84050000 	strhi	r0, [r5], #-0
    986c:	00079002 	andeq	r9, r7, r2
    9870:	5e190800 	cdppl	8, 1, cr0, cr9, cr0, {0}
    9874:	05000009 	streq	r0, [r0, #-9]
    9878:	019b0285 	orrseq	r0, fp, r5, lsl #5
    987c:	19240000 	stmdbne	r4!, {}	; <UNPREDICTABLE>
    9880:	00000335 	andeq	r0, r0, r5, lsr r3
    9884:	25028605 	strcs	r8, [r2, #-1541]	; 0xfffff9fb
    9888:	48000000 	stmdami	r0, {}	; <UNPREDICTABLE>
    988c:	0006cc19 	andeq	ip, r6, r9, lsl ip
    9890:	02870500 	addeq	r0, r7, #0, 10
    9894:	0000006e 	andeq	r0, r0, lr, rrx
    9898:	09741950 	ldmdbeq	r4!, {r4, r6, r8, fp, ip}^
    989c:	88050000 	stmdahi	r5, {}	; <UNPREDICTABLE>
    98a0:	00064a02 	andeq	r4, r6, r2, lsl #20
    98a4:	ed195800 	ldc	8, cr5, [r9, #-0]
    98a8:	05000006 	streq	r0, [r0, #-6]
    98ac:	00fd0289 	rscseq	r0, sp, r9, lsl #5
    98b0:	19680000 	stmdbne	r8!, {}^	; <UNPREDICTABLE>
    98b4:	00000982 	andeq	r0, r0, r2, lsl #19
    98b8:	fd028a05 	stc2	10, cr8, [r2, #-20]	; 0xffffffec	; <UNPREDICTABLE>
    98bc:	70000000 	andvc	r0, r0, r0
    98c0:	0001ac19 	andeq	sl, r1, r9, lsl ip
    98c4:	028b0500 	addeq	r0, fp, #0, 10
    98c8:	000000fd 	strdeq	r0, [r0], -sp
    98cc:	08eb1978 	stmiaeq	fp!, {r3, r4, r5, r6, r8, fp, ip}^
    98d0:	8c050000 	stchi	0, cr0, [r5], {-0}
    98d4:	0007a002 	andeq	sl, r7, r2
    98d8:	36198000 	ldrcc	r8, [r9], -r0
    98dc:	05000004 	streq	r0, [r0, #-4]
    98e0:	07b0028d 	ldreq	r0, [r0, sp, lsl #5]!
    98e4:	19880000 	stmibne	r8, {}	; <UNPREDICTABLE>
    98e8:	0000082e 	andeq	r0, r0, lr, lsr #16
    98ec:	25028e05 	strcs	r8, [r2, #-3589]	; 0xfffff1fb
    98f0:	a0000000 	andge	r0, r0, r0
    98f4:	0002da19 	andeq	sp, r2, r9, lsl sl
    98f8:	028f0500 	addeq	r0, pc, #0, 10
    98fc:	000000fd 	strdeq	r0, [r0], -sp
    9900:	018819a4 	orreq	r1, r8, r4, lsr #19
    9904:	90050000 	andls	r0, r5, r0
    9908:	0000fd02 	andeq	pc, r0, r2, lsl #26
    990c:	c019ac00 	andsgt	sl, r9, r0, lsl #24
    9910:	05000002 	streq	r0, [r0, #-2]
    9914:	00fd0291 	smlalseq	r0, sp, r1, r2
    9918:	19b40000 	ldmibne	r4!, {}	; <UNPREDICTABLE>
    991c:	00000120 	andeq	r0, r0, r0, lsr #2
    9920:	fd029205 	stc2	2, cr9, [r2, #-20]	; 0xffffffec
    9924:	bc000000 	stclt	0, cr0, [r0], {-0}
    9928:	00012f19 	andeq	r2, r1, r9, lsl pc
    992c:	02930500 	addseq	r0, r3, #0, 10
    9930:	000000fd 	strdeq	r0, [r0], -sp
    9934:	066219c4 	strbteq	r1, [r2], -r4, asr #19
    9938:	94050000 	strls	r0, [r5], #-0
    993c:	00002502 	andeq	r2, r0, r2, lsl #10
    9940:	0c00cc00 	stceq	12, cr12, [r0], {-0}
    9944:	0000011b 	andeq	r0, r0, fp, lsl r1
    9948:	000007a0 	andeq	r0, r0, r0, lsr #15
    994c:	00002c0d 	andeq	r2, r0, sp, lsl #24
    9950:	0c001900 			; <UNDEFINED> instruction: 0x0c001900
    9954:	0000011b 	andeq	r0, r0, fp, lsl r1
    9958:	000007b0 			; <UNDEFINED> instruction: 0x000007b0
    995c:	00002c0d 	andeq	r2, r0, sp, lsl #24
    9960:	0c000700 	stceq	7, cr0, [r0], {-0}
    9964:	0000011b 	andeq	r0, r0, fp, lsl r1
    9968:	000007c0 	andeq	r0, r0, r0, asr #15
    996c:	00002c0d 	andeq	r2, r0, sp, lsl #24
    9970:	1c001700 	stcne	7, cr1, [r0], {-0}
    9974:	029905f0 	addseq	r0, r9, #240, 10	; 0x3c000000
    9978:	000007e4 	andeq	r0, r0, r4, ror #15
    997c:	00055219 	andeq	r5, r5, r9, lsl r2
    9980:	029c0500 	addseq	r0, ip, #0, 10
    9984:	000007e4 	andeq	r0, r0, r4, ror #15
    9988:	04f91900 	ldrbteq	r1, [r9], #2304	; 0x900
    998c:	9d050000 	stcls	0, cr0, [r5, #-0]
    9990:	0007f402 	andeq	pc, r7, r2, lsl #8
    9994:	0c007800 	stceq	8, cr7, [r0], {-0}
    9998:	000002e4 	andeq	r0, r0, r4, ror #5
    999c:	000007f4 	strdeq	r0, [r0], -r4
    99a0:	00002c0d 	andeq	r2, r0, sp, lsl #24
    99a4:	0c001d00 	stceq	13, cr1, [r0], {-0}
    99a8:	0000002c 	andeq	r0, r0, ip, lsr #32
    99ac:	00000804 	andeq	r0, r0, r4, lsl #16
    99b0:	00002c0d 	andeq	r2, r0, sp, lsl #24
    99b4:	1d001d00 	stcne	13, cr1, [r0, #-0]
    99b8:	027e05f0 	rsbseq	r0, lr, #240, 10	; 0x3c000000
    99bc:	00000826 	andeq	r0, r0, r6, lsr #16
    99c0:	0007261e 	andeq	r2, r7, lr, lsl r6
    99c4:	02950500 	addseq	r0, r5, #0, 10
    99c8:	0000068f 	andeq	r0, r0, pc, lsl #13
    99cc:	00092a1e 	andeq	r2, r9, lr, lsl sl
    99d0:	029e0500 	addseq	r0, lr, #0, 10
    99d4:	000007c0 	andeq	r0, r0, r0, asr #15
    99d8:	011b0c00 	tsteq	fp, r0, lsl #24
    99dc:	08360000 	ldmdaeq	r6!, {}	; <UNPREDICTABLE>
    99e0:	2c0d0000 	stccs	0, cr0, [sp], {-0}
    99e4:	18000000 	stmdane	r0, {}	; <UNPREDICTABLE>
    99e8:	0f590800 	svceq	0x00590800
    99ec:	04070000 	streq	r0, [r7], #-0
    99f0:	00000836 	andeq	r0, r0, r6, lsr r8
    99f4:	00084c1f 	andeq	r4, r8, pc, lsl ip
    99f8:	04321700 	ldrteq	r1, [r2], #-1792	; 0xfffff900
    99fc:	07000000 	streq	r0, [r0, -r0]
    9a00:	00084104 	andeq	r4, r8, r4, lsl #2
    9a04:	85040700 	strhi	r0, [r4, #-1792]	; 0xfffff900
    9a08:	1f000001 	svcne	0x00000001
    9a0c:	00000863 	andeq	r0, r0, r3, ror #16
    9a10:	00002517 	andeq	r2, r0, r7, lsl r5
    9a14:	04070000 	streq	r0, [r7], #-0
    9a18:	00000869 	andeq	r0, r0, r9, ror #16
    9a1c:	08580407 	ldmdaeq	r8, {r0, r1, r2, sl}^
    9a20:	fd0c0000 	stc2	0, cr0, [ip, #-0]
    9a24:	7f000005 	svcvc	0x00000005
    9a28:	0d000008 	stceq	0, cr0, [r0, #-32]	; 0xffffffe0
    9a2c:	0000002c 	andeq	r0, r0, ip, lsr #32
    9a30:	63200002 			; <UNDEFINED> instruction: 0x63200002
    9a34:	05000008 	streq	r0, [r0, #-8]
    9a38:	0432032e 	ldrteq	r0, [r2], #-814	; 0xfffffcd2
    9a3c:	5c200000 	stcpl	0, cr0, [r0], #-0
    9a40:	05000008 	streq	r0, [r0, #-8]
    9a44:	0438032f 	ldrteq	r0, [r8], #-815	; 0xfffffcd1
    9a48:	25160000 	ldrcs	r0, [r6, #-0]
    9a4c:	a6000000 	strge	r0, [r0], -r0
    9a50:	17000008 	strne	r0, [r0, -r8]
    9a54:	00000025 	andeq	r0, r0, r5, lsr #32
    9a58:	03642100 	cmneq	r4, #0, 2
    9a5c:	1d060000 	stcne	0, cr0, [r6, #-0]
    9a60:	000008b1 			; <UNDEFINED> instruction: 0x000008b1
    9a64:	08970407 	ldmeq	r7, {r0, r1, r2, sl}
    9a68:	25160000 	ldrcs	r0, [r6, #-0]
    9a6c:	c6000000 	strgt	r0, [r0], -r0
    9a70:	17000008 	strne	r0, [r0, -r8]
    9a74:	00000593 	muleq	r0, r3, r5
    9a78:	0d2b2100 	stfeqs	f2, [fp, #-0]
    9a7c:	22060000 	andcs	r0, r6, #0
    9a80:	000008d1 	ldrdeq	r0, [r0], -r1
    9a84:	08b70407 	ldmeq	r7!, {r0, r1, r2, sl}
    9a88:	07220000 	streq	r0, [r2, -r0]!
    9a8c:	00005901 	andeq	r5, r0, r1, lsl #18
    9a90:	150c0700 	strne	r0, [ip, #-1792]	; 0xfffff900
    9a94:	23000009 	movwcs	r0, #9
    9a98:	00000a1a 	andeq	r0, r0, sl, lsl sl
    9a9c:	0b972300 	bleq	fe5d26a4 <__bss_end__+0xfe5c86b4>
    9aa0:	23010000 	movwcs	r0, #4096	; 0x1000
    9aa4:	00000bc5 	andeq	r0, r0, r5, asr #23
    9aa8:	0a3d2304 	beq	f526c0 <__bss_end__+0xf486d0>
    9aac:	23050000 	movwcs	r0, #20480	; 0x5000
    9ab0:	00000af8 	strdeq	r0, [r0], -r8
    9ab4:	0bd42306 	bleq	ff5126d4 <__bss_end__+0xff5086e4>
    9ab8:	23070000 	movwcs	r0, #28672	; 0x7000
    9abc:	00000be3 	andeq	r0, r0, r3, ror #23
    9ac0:	0bf22303 	bleq	ffc926d4 <__bss_end__+0xffc886e4>
    9ac4:	00020000 	andeq	r0, r2, r0
    9ac8:	00113a06 	andseq	r3, r1, r6, lsl #20
    9acc:	d7150700 	ldrle	r0, [r5, -r0, lsl #14]
    9ad0:	24000008 	strcs	r0, [r0], #-8
    9ad4:	000010db 	ldrdeq	r1, [r0], -fp
    9ad8:	092f1b01 	stmdbeq	pc!, {r0, r8, r9, fp, ip}	; <UNPREDICTABLE>
    9adc:	00000000 	andeq	r0, r0, r0
    9ae0:	04072020 	streq	r2, [r7], #-32	; 0xffffffe0
    9ae4:	00000033 	andeq	r0, r0, r3, lsr r0
    9ae8:	00110b24 	andseq	r0, r1, r4, lsr #22
    9aec:	381d0100 	ldmdacc	sp, {r8}
    9af0:	1c000000 	stcne	0, cr0, [r0], {-0}
    9af4:	24202000 	strtcs	r2, [r0], #-0
    9af8:	00001146 	andeq	r1, r0, r6, asr #2
    9afc:	00381e01 	eorseq	r1, r8, r1, lsl #28
    9b00:	00280000 	eoreq	r0, r8, r0
    9b04:	15242020 	strne	r2, [r4, #-32]!	; 0xffffffe0
    9b08:	01000011 	tsteq	r0, r1, lsl r0
    9b0c:	0000381f 	andeq	r3, r0, pc, lsl r8
    9b10:	20003400 	andcs	r3, r0, r0, lsl #8
    9b14:	10e62520 	rscne	r2, r6, r0, lsr #10
    9b18:	56010000 	strpl	r0, [r1], -r0
    9b1c:	00000025 	andeq	r0, r0, r5, lsr #32
    9b20:	000095e0 	andeq	r9, r0, r0, ror #11
    9b24:	00000034 	andeq	r0, r0, r4, lsr r0
    9b28:	09c29c01 	stmibeq	r2, {r0, sl, fp, ip, pc}^
    9b2c:	70260000 	eorvc	r0, r6, r0
    9b30:	01006e69 	tsteq	r0, r9, ror #28
    9b34:	00002c56 	andeq	r2, r0, r6, asr ip
    9b38:	00109800 	andseq	r9, r0, r0, lsl #16
    9b3c:	10cf2700 	sbcne	r2, pc, r0, lsl #14
    9b40:	59010000 	stmdbpl	r1, {}	; <UNPREDICTABLE>
    9b44:	0000002c 	andeq	r0, r0, ip, lsr #32
    9b48:	000010d2 	ldrdeq	r1, [r0], -r2
    9b4c:	66666f28 	strbtvs	r6, [r6], -r8, lsr #30
    9b50:	2c5a0100 	ldfcse	f0, [sl], {-0}
    9b54:	10000000 	andne	r0, r0, r0
    9b58:	29000011 	stmdbcs	r0, {r0, r4}
    9b5c:	000095fc 	strdeq	r9, [r0], -ip
    9b60:	00000b87 	andeq	r0, r0, r7, lsl #23
    9b64:	0b50012a 	bleq	140a014 <__bss_end__+0x1400024>
    9b68:	355001f3 	ldrbcc	r0, [r0, #-499]	; 0xfffffe0d
    9b6c:	80b42325 	adcshi	r2, r4, r5, lsr #6
    9b70:	00028180 	andeq	r8, r2, r0, lsl #3
    9b74:	11002b00 	tstne	r0, r0, lsl #22
    9b78:	4f010000 	svcmi	0x00010000
    9b7c:	000095c4 	andeq	r9, r0, r4, asr #11
    9b80:	0000001c 	andeq	r0, r0, ip, lsl r0
    9b84:	0a129c01 	beq	4b0b90 <__bss_end__+0x4a6ba0>
    9b88:	70260000 	eorvc	r0, r6, r0
    9b8c:	01006e69 	tsteq	r0, r9, ror #28
    9b90:	00002c4f 	andeq	r2, r0, pc, asr #24
    9b94:	00112300 	andseq	r2, r1, r0, lsl #6
    9b98:	00762600 	rsbseq	r2, r6, r0, lsl #12
    9b9c:	002c4f01 	eoreq	r4, ip, r1, lsl #30
    9ba0:	115d0000 	cmpne	sp, r0
    9ba4:	d42c0000 	strtle	r0, [ip], #-0
    9ba8:	4d000095 	stcmi	0, cr0, [r0, #-596]	; 0xfffffdac
    9bac:	0800000a 	stmdaeq	r0, {r1, r3}
    9bb0:	2a00000a 	bcs	9be0 <__FUNCTION__.4295+0xf8>
    9bb4:	f3035001 	vhadd.u8	d5, d3, d1
    9bb8:	2d005001 	stccs	0, cr5, [r0, #-4]
    9bbc:	000095dc 	ldrdeq	r9, [r0], -ip
    9bc0:	00000a8e 	andeq	r0, r0, lr, lsl #21
    9bc4:	111f2b00 	tstne	pc, r0, lsl #22
    9bc8:	4a010000 	bmi	49bd0 <__bss_end__+0x3fbe0>
    9bcc:	000095b4 			; <UNDEFINED> instruction: 0x000095b4
    9bd0:	00000010 	andeq	r0, r0, r0, lsl r0
    9bd4:	0a4d9c01 	beq	1370be0 <__bss_end__+0x1366bf0>
    9bd8:	70260000 	eorvc	r0, r6, r0
    9bdc:	01006e69 	tsteq	r0, r9, ror #28
    9be0:	00002c4a 	andeq	r2, r0, sl, asr #24
    9be4:	00119700 	andseq	r9, r1, r0, lsl #14
    9be8:	95c02900 	strbls	r2, [r0, #2304]	; 0x900
    9bec:	0b0a0000 	bleq	289bf4 <__bss_end__+0x27fc04>
    9bf0:	012a0000 			; <UNDEFINED> instruction: 0x012a0000
    9bf4:	01f30350 	mvnseq	r0, r0, asr r3
    9bf8:	51012a50 	tstpl	r1, r0, asr sl
    9bfc:	00003001 	andeq	r3, r0, r1
    9c00:	0010c22b 	andseq	ip, r0, fp, lsr #4
    9c04:	90430100 	subls	r0, r3, r0, lsl #2
    9c08:	24000095 	strcs	r0, [r0], #-149	; 0xffffff6b
    9c0c:	01000000 	mrseq	r0, (UNDEF: 0)
    9c10:	000a8e9c 	muleq	sl, ip, lr
    9c14:	69702600 	ldmdbvs	r0!, {r9, sl, sp}^
    9c18:	4301006e 	movwmi	r0, #4206	; 0x106e
    9c1c:	0000002c 	andeq	r0, r0, ip, lsr #32
    9c20:	000011b8 			; <UNDEFINED> instruction: 0x000011b8
    9c24:	0095ac29 	addseq	sl, r5, r9, lsr #24
    9c28:	000b9200 	andeq	r9, fp, r0, lsl #4
    9c2c:	50012a00 	andpl	r2, r1, r0, lsl #20
    9c30:	00280c05 	eoreq	r0, r8, r5, lsl #24
    9c34:	012a2020 			; <UNDEFINED> instruction: 0x012a2020
    9c38:	f3310551 	vqrshl.u64	q0, <illegal reg q0.5>, <illegal reg q0.5>
    9c3c:	00245001 	eoreq	r5, r4, r1
    9c40:	112e2b00 			; <UNDEFINED> instruction: 0x112e2b00
    9c44:	3c010000 	stccc	0, cr0, [r1], {-0}
    9c48:	0000956c 	andeq	r9, r0, ip, ror #10
    9c4c:	00000024 	andeq	r0, r0, r4, lsr #32
    9c50:	0acf9c01 	beq	ff3f0c5c <__bss_end__+0xff3e6c6c>
    9c54:	70260000 	eorvc	r0, r6, r0
    9c58:	01006e69 	tsteq	r0, r9, ror #28
    9c5c:	00002c3c 	andeq	r2, r0, ip, lsr ip
    9c60:	0011d900 	andseq	sp, r1, r0, lsl #18
    9c64:	95882900 	strls	r2, [r8, #2304]	; 0x900
    9c68:	0b920000 	bleq	fe489c70 <__bss_end__+0xfe47fc80>
    9c6c:	012a0000 			; <UNDEFINED> instruction: 0x012a0000
    9c70:	1c0c0550 	cfstr32ne	mvfx0, [ip], {80}	; 0x50
    9c74:	2a202000 	bcs	811c7c <__bss_end__+0x807c8c>
    9c78:	31055101 	tstcc	r5, r1, lsl #2
    9c7c:	245001f3 	ldrbcs	r0, [r0], #-499	; 0xfffffe0d
    9c80:	f02b0000 			; <UNDEFINED> instruction: 0xf02b0000
    9c84:	01000010 	tsteq	r0, r0, lsl r0
    9c88:	00955c37 	addseq	r5, r5, r7, lsr ip
    9c8c:	00001000 	andeq	r1, r0, r0
    9c90:	0a9c0100 	beq	fe70a098 <__bss_end__+0xfe7000a8>
    9c94:	2600000b 	strcs	r0, [r0], -fp
    9c98:	006e6970 	rsbeq	r6, lr, r0, ror r9
    9c9c:	002c3701 	eoreq	r3, ip, r1, lsl #14
    9ca0:	11fa0000 	mvnsne	r0, r0
    9ca4:	68290000 	stmdavs	r9!, {}	; <UNPREDICTABLE>
    9ca8:	0a000095 	beq	9f04 <buf.4221+0x314>
    9cac:	2a00000b 	bcs	9ce0 <buf.4221+0xf0>
    9cb0:	f3035001 	vhadd.u8	d5, d3, d1
    9cb4:	012a5001 			; <UNDEFINED> instruction: 0x012a5001
    9cb8:	00310151 	eorseq	r0, r1, r1, asr r1
    9cbc:	0a6c2b00 	beq	1b148c4 <__bss_end__+0x1b0a8d4>
    9cc0:	28010000 	stmdacs	r1, {}	; <UNPREDICTABLE>
    9cc4:	000094f4 	strdeq	r9, [r0], -r4
    9cc8:	00000068 	andeq	r0, r0, r8, rrx
    9ccc:	0b879c01 	bleq	fe1f0cd8 <__bss_end__+0xfe1e6ce8>
    9cd0:	70260000 	eorvc	r0, r6, r0
    9cd4:	01006e69 	tsteq	r0, r9, ror #28
    9cd8:	00002c28 	andeq	r2, r0, r8, lsr #24
    9cdc:	00121b00 	andseq	r1, r2, r0, lsl #22
    9ce0:	08fa2e00 	ldmeq	sl!, {r9, sl, fp, sp}^
    9ce4:	28010000 	stmdacs	r1, {}	; <UNPREDICTABLE>
    9ce8:	00000915 	andeq	r0, r0, r5, lsl r9
    9cec:	0000123c 	andeq	r1, r0, ip, lsr r2
    9cf0:	66666f2f 	strbtvs	r6, [r6], -pc, lsr #30
    9cf4:	2c2d0100 	stfcss	f0, [sp], #-0
    9cf8:	01000000 	mrseq	r0, (UNDEF: 0)
    9cfc:	00672f55 	rsbeq	r2, r7, r5, asr pc
    9d00:	002c2f01 	eoreq	r2, ip, r1, lsl #30
    9d04:	56010000 	strpl	r0, [r1], -r0
    9d08:	01007628 	tsteq	r0, r8, lsr #12
    9d0c:	00002c31 	andeq	r2, r0, r1, lsr ip
    9d10:	00125d00 	andseq	r5, r2, r0, lsl #26
    9d14:	95402c00 	strbls	r2, [r0, #-3072]	; 0xfffff400
    9d18:	0b870000 	bleq	fe1c9d20 <__bss_end__+0xfe1bfd30>
    9d1c:	0b760000 	bleq	1d89d24 <__bss_end__+0x1d7fd34>
    9d20:	012a0000 			; <UNDEFINED> instruction: 0x012a0000
    9d24:	00760250 	rsbseq	r0, r6, r0, asr r2
    9d28:	95542900 	ldrbls	r2, [r4, #-2304]	; 0xfffff700
    9d2c:	0b920000 	bleq	fe489d34 <__bss_end__+0xfe47fd44>
    9d30:	012a0000 			; <UNDEFINED> instruction: 0x012a0000
    9d34:	00760250 	rsbseq	r0, r6, r0, asr r2
    9d38:	37300000 	ldrcc	r0, [r0, -r0]!
    9d3c:	3700000f 	strcc	r0, [r0, -pc]
    9d40:	0600000f 	streq	r0, [r0], -pc
    9d44:	0e7530a7 	cdpeq	0, 7, cr3, cr5, cr7, {5}
    9d48:	0e750000 	cdpeq	0, 7, cr0, cr5, cr0, {0}
    9d4c:	9b060000 	blls	189d54 <__bss_end__+0x17fd64>
    9d50:	000a0500 	andeq	r0, sl, r0, lsl #10
    9d54:	21000400 	tstcs	r0, r0, lsl #8
    9d58:	0400001d 	streq	r0, [r0], #-29	; 0xffffffe3
    9d5c:	000c3701 	andeq	r3, ip, r1, lsl #14
    9d60:	11570c00 	cmpne	r7, r0, lsl #24
    9d64:	0c9e0000 	ldceq	0, cr0, [lr], {0}
    9d68:	96140000 	ldrls	r0, [r4], -r0
    9d6c:	00500000 	subseq	r0, r0, r0
    9d70:	0f0c0000 	svceq	0x000c0000
    9d74:	04020000 	streq	r0, [r2], #-0
    9d78:	746e6905 	strbtvc	r6, [lr], #-2309	; 0xfffff6fb
    9d7c:	07040300 	streq	r0, [r4, -r0, lsl #6]
    9d80:	0000014a 	andeq	r0, r0, sl, asr #2
    9d84:	20060103 	andcs	r0, r6, r3, lsl #2
    9d88:	03000006 	movweq	r0, #6
    9d8c:	066b0502 	strbteq	r0, [fp], -r2, lsl #10
    9d90:	04030000 	streq	r0, [r3], #-0
    9d94:	0001c805 	andeq	ip, r1, r5, lsl #16
    9d98:	05080300 	streq	r0, [r8, #-768]	; 0xfffffd00
    9d9c:	000001c3 	andeq	r0, r0, r3, asr #3
    9da0:	0008e304 	andeq	lr, r8, r4, lsl #6
    9da4:	5a2e0200 	bpl	b8a5ac <__bss_end__+0xb805bc>
    9da8:	03000000 	movweq	r0, #0
    9dac:	061e0801 	ldreq	r0, [lr], -r1, lsl #16
    9db0:	02030000 	andeq	r0, r3, #0
    9db4:	00041a07 	andeq	r1, r4, r7, lsl #20
    9db8:	074d0400 	strbeq	r0, [sp, -r0, lsl #8]
    9dbc:	34020000 	strcc	r0, [r2], #-0
    9dc0:	00000073 	andeq	r0, r0, r3, ror r0
    9dc4:	45070403 	strmi	r0, [r7, #-1027]	; 0xfffffbfd
    9dc8:	03000001 	movweq	r0, #1
    9dcc:	01400708 	cmpeq	r0, r8, lsl #14
    9dd0:	e2040000 	and	r0, r4, #0
    9dd4:	03000005 	movweq	r0, #5
    9dd8:	00002507 	andeq	r2, r0, r7, lsl #10
    9ddc:	059e0400 	ldreq	r0, [lr, #1024]	; 0x400
    9de0:	2c040000 	stccs	0, cr0, [r4], {-0}
    9de4:	00000041 	andeq	r0, r0, r1, asr #32
    9de8:	00076904 	andeq	r6, r7, r4, lsl #18
    9dec:	41720400 	cmnmi	r2, r0, lsl #8
    9df0:	05000000 	streq	r0, [r0, #-0]
    9df4:	0000047e 	andeq	r0, r0, lr, ror r4
    9df8:	2c016505 	cfstr32cs	mvfx6, [r1], {5}
    9dfc:	06000000 	streq	r0, [r0], -r0
    9e00:	cda60404 	cfstrsgt	mvf0, [r6, #16]!
    9e04:	07000000 	streq	r0, [r0, -r0]
    9e08:	0000046b 	andeq	r0, r0, fp, ror #8
    9e0c:	00a2a804 	adceq	sl, r2, r4, lsl #16
    9e10:	7e070000 	cdpvc	0, 0, cr0, cr7, cr0, {0}
    9e14:	04000003 	streq	r0, [r0], #-3
    9e18:	0000cda9 	andeq	ip, r0, r9, lsr #27
    9e1c:	5a080000 	bpl	209e24 <__bss_end__+0x1ffe34>
    9e20:	dd000000 	stcle	0, cr0, [r0, #-0]
    9e24:	09000000 	stmdbeq	r0, {}	; <UNPREDICTABLE>
    9e28:	000000dd 	ldrdeq	r0, [r0], -sp
    9e2c:	04030003 	streq	r0, [r3], #-3
    9e30:	00050e07 	andeq	r0, r5, r7, lsl #28
    9e34:	04080a00 	streq	r0, [r8], #-2560	; 0xfffff600
    9e38:	000105a3 	andeq	r0, r1, r3, lsr #11
    9e3c:	07450b00 	strbeq	r0, [r5, -r0, lsl #22]
    9e40:	a5040000 	strge	r0, [r4, #-0]
    9e44:	00000025 	andeq	r0, r0, r5, lsr #32
    9e48:	07ec0b00 	strbeq	r0, [ip, r0, lsl #22]!
    9e4c:	aa040000 	bge	109e54 <__bss_end__+0xffe64>
    9e50:	000000ae 	andeq	r0, r0, lr, lsr #1
    9e54:	a0040004 	andge	r0, r4, r4
    9e58:	04000006 	streq	r0, [r0], #-6
    9e5c:	0000e4ab 	andeq	lr, r0, fp, lsr #9
    9e60:	031c0400 	tsteq	ip, #0, 8
    9e64:	af040000 	svcge	0x00040000
    9e68:	00000081 	andeq	r0, r0, r1, lsl #1
    9e6c:	040d040c 	streq	r0, [sp], #-1036	; 0xfffffbf4
    9e70:	00000123 	andeq	r0, r0, r3, lsr #2
    9e74:	27080103 	strcs	r0, [r8, -r3, lsl #2]
    9e78:	0e000006 	cdpeq	0, 0, cr0, cr0, cr6, {0}
    9e7c:	00000123 	andeq	r0, r0, r3, lsr #2
    9e80:	00082604 	andeq	r2, r8, r4, lsl #12
    9e84:	73160600 	tstvc	r6, #0, 12
    9e88:	0f000000 	svceq	0x00000000
    9e8c:	0000032d 	andeq	r0, r0, sp, lsr #6
    9e90:	8d2d0618 	stchi	6, cr0, [sp, #-96]!	; 0xffffffa0
    9e94:	0b000001 	bleq	9ea0 <buf.4221+0x2b0>
    9e98:	000006d1 	ldrdeq	r0, [r0], -r1
    9e9c:	018d2f06 	orreq	r2, sp, r6, lsl #30
    9ea0:	10000000 	andne	r0, r0, r0
    9ea4:	06006b5f 			; <UNDEFINED> instruction: 0x06006b5f
    9ea8:	00002530 	andeq	r2, r0, r0, lsr r5
    9eac:	1e0b0400 	cfcpysne	mvf0, mvf11
    9eb0:	06000007 	streq	r0, [r0], -r7
    9eb4:	00002530 	andeq	r2, r0, r0, lsr r5
    9eb8:	160b0800 	strne	r0, [fp], -r0, lsl #16
    9ebc:	06000003 	streq	r0, [r0], -r3
    9ec0:	00002530 	andeq	r2, r0, r0, lsr r5
    9ec4:	c50b0c00 	strgt	r0, [fp, #-3072]	; 0xfffff400
    9ec8:	06000008 	streq	r0, [r0], -r8
    9ecc:	00002530 	andeq	r2, r0, r0, lsr r5
    9ed0:	5f101000 	svcpl	0x00101000
    9ed4:	31060078 	tstcc	r6, r8, ror r0
    9ed8:	00000193 	muleq	r0, r3, r1
    9edc:	040d0014 	streq	r0, [sp], #-20	; 0xffffffec
    9ee0:	0000013a 	andeq	r0, r0, sl, lsr r1
    9ee4:	00012f08 	andeq	r2, r1, r8, lsl #30
    9ee8:	0001a300 	andeq	sl, r1, r0, lsl #6
    9eec:	00dd0900 	sbcseq	r0, sp, r0, lsl #18
    9ef0:	00000000 	andeq	r0, r0, r0
    9ef4:	0003700f 	andeq	r7, r3, pc
    9ef8:	35062400 	strcc	r2, [r6, #-1024]	; 0xfffffc00
    9efc:	0000021c 	andeq	r0, r0, ip, lsl r2
    9f00:	0001ba0b 	andeq	fp, r1, fp, lsl #20
    9f04:	25370600 	ldrcs	r0, [r7, #-1536]!	; 0xfffffa00
    9f08:	00000000 	andeq	r0, r0, r0
    9f0c:	0007910b 	andeq	r9, r7, fp, lsl #2
    9f10:	25380600 	ldrcs	r0, [r8, #-1536]!	; 0xfffffa00
    9f14:	04000000 	streq	r0, [r0], #-0
    9f18:	0002040b 	andeq	r0, r2, fp, lsl #8
    9f1c:	25390600 	ldrcs	r0, [r9, #-1536]!	; 0xfffffa00
    9f20:	08000000 	stmdaeq	r0, {}	; <UNPREDICTABLE>
    9f24:	0009d90b 	andeq	sp, r9, fp, lsl #18
    9f28:	253a0600 	ldrcs	r0, [sl, #-1536]!	; 0xfffffa00
    9f2c:	0c000000 	stceq	0, cr0, [r0], {-0}
    9f30:	0005630b 	andeq	r6, r5, fp, lsl #6
    9f34:	253b0600 	ldrcs	r0, [fp, #-1536]!	; 0xfffffa00
    9f38:	10000000 	andne	r0, r0, r0
    9f3c:	0004d10b 	andeq	sp, r4, fp, lsl #2
    9f40:	253c0600 	ldrcs	r0, [ip, #-1536]!	; 0xfffffa00
    9f44:	14000000 	strne	r0, [r0], #-0
    9f48:	0008ca0b 	andeq	ip, r8, fp, lsl #20
    9f4c:	253d0600 	ldrcs	r0, [sp, #-1536]!	; 0xfffffa00
    9f50:	18000000 	stmdane	r0, {}	; <UNPREDICTABLE>
    9f54:	0006750b 	andeq	r7, r6, fp, lsl #10
    9f58:	253e0600 	ldrcs	r0, [lr, #-1536]!	; 0xfffffa00
    9f5c:	1c000000 	stcne	0, cr0, [r0], {-0}
    9f60:	0009530b 	andeq	r5, r9, fp, lsl #6
    9f64:	253f0600 	ldrcs	r0, [pc, #-1536]!	; 996c <__FUNCTION__.4407+0xb0>
    9f68:	20000000 	andcs	r0, r0, r0
    9f6c:	02131100 	andseq	r1, r3, #0, 2
    9f70:	01080000 	mrseq	r0, (UNDEF: 8)
    9f74:	025c4806 	subseq	r4, ip, #393216	; 0x60000
    9f78:	e80b0000 	stmda	fp, {}	; <UNPREDICTABLE>
    9f7c:	06000002 	streq	r0, [r0], -r2
    9f80:	00025c49 	andeq	r5, r2, r9, asr #24
    9f84:	000b0000 	andeq	r0, fp, r0
    9f88:	06000000 	streq	r0, [r0], -r0
    9f8c:	00025c4a 	andeq	r5, r2, sl, asr #24
    9f90:	b3128000 	tstlt	r2, #0
    9f94:	06000007 	streq	r0, [r0], -r7
    9f98:	00012f4c 	andeq	r2, r1, ip, asr #30
    9f9c:	12010000 	andne	r0, r1, #0
    9fa0:	0000025d 	andeq	r0, r0, sp, asr r2
    9fa4:	012f4f06 			; <UNDEFINED> instruction: 0x012f4f06
    9fa8:	01040000 	mrseq	r0, (UNDEF: 4)
    9fac:	011b0800 	tsteq	fp, r0, lsl #16
    9fb0:	026c0000 	rsbeq	r0, ip, #0
    9fb4:	dd090000 	stcle	0, cr0, [r9, #-0]
    9fb8:	1f000000 	svcne	0x00000000
    9fbc:	057d1100 	ldrbeq	r1, [sp, #-256]!	; 0xffffff00
    9fc0:	01900000 	orrseq	r0, r0, r0
    9fc4:	02aa5b06 	adceq	r5, sl, #6144	; 0x1800
    9fc8:	d10b0000 	mrsle	r0, (UNDEF: 11)
    9fcc:	06000006 	streq	r0, [r0], -r6
    9fd0:	0002aa5c 	andeq	sl, r2, ip, asr sl
    9fd4:	ff0b0000 			; <UNDEFINED> instruction: 0xff0b0000
    9fd8:	06000006 	streq	r0, [r0], -r6
    9fdc:	0000255d 	andeq	r2, r0, sp, asr r5
    9fe0:	110b0400 	tstne	fp, r0, lsl #8
    9fe4:	06000003 	streq	r0, [r0], -r3
    9fe8:	0002b05f 	andeq	fp, r2, pc, asr r0
    9fec:	130b0800 	movwne	r0, #47104	; 0xb800
    9ff0:	06000002 	streq	r0, [r0], -r2
    9ff4:	00021c60 	andeq	r1, r2, r0, ror #24
    9ff8:	0d008800 	stceq	8, cr8, [r0, #-0]
    9ffc:	00026c04 	andeq	r6, r2, r4, lsl #24
    a000:	02c00800 	sbceq	r0, r0, #0, 16
    a004:	02c00000 	sbceq	r0, r0, #0
    a008:	dd090000 	stcle	0, cr0, [r9, #-0]
    a00c:	1f000000 	svcne	0x00000000
    a010:	c6040d00 	strgt	r0, [r4], -r0, lsl #26
    a014:	13000002 	movwne	r0, #2
    a018:	00067f0f 	andeq	r7, r6, pc, lsl #30
    a01c:	73060800 	movwvc	r0, #26624	; 0x6800
    a020:	000002ec 	andeq	r0, r0, ip, ror #5
    a024:	0001fe0b 	andeq	pc, r1, fp, lsl #28
    a028:	ec740600 	ldcl	6, cr0, [r4], #-0
    a02c:	00000002 	andeq	r0, r0, r2
    a030:	0000a60b 	andeq	sl, r0, fp, lsl #12
    a034:	25750600 	ldrbcs	r0, [r5, #-1536]!	; 0xfffffa00
    a038:	04000000 	streq	r0, [r0], #-0
    a03c:	5a040d00 	bpl	10d444 <__bss_end__+0x103454>
    a040:	0f000000 	svceq	0x00000000
    a044:	000006ab 	andeq	r0, r0, fp, lsr #13
    a048:	1cb30668 	ldcne	6, cr0, [r3], #416	; 0x1a0
    a04c:	10000004 	andne	r0, r0, r4
    a050:	0600705f 			; <UNDEFINED> instruction: 0x0600705f
    a054:	0002ecb4 			; <UNDEFINED> instruction: 0x0002ecb4
    a058:	5f100000 	svcpl	0x00100000
    a05c:	b5060072 	strlt	r0, [r6, #-114]	; 0xffffff8e
    a060:	00000025 	andeq	r0, r0, r5, lsr #32
    a064:	775f1004 	ldrbvc	r1, [pc, -r4]
    a068:	25b60600 	ldrcs	r0, [r6, #1536]!	; 0x600
    a06c:	08000000 	stmdaeq	r0, {}	; <UNPREDICTABLE>
    a070:	0002560b 	andeq	r5, r2, fp, lsl #12
    a074:	3ab70600 	bcc	fedcb87c <__bss_end__+0xfedc188c>
    a078:	0c000000 	stceq	0, cr0, [r0], {-0}
    a07c:	0003af0b 	andeq	sl, r3, fp, lsl #30
    a080:	3ab80600 	bcc	fee0b888 <__bss_end__+0xfee01898>
    a084:	0e000000 	cdpeq	0, 0, cr0, cr0, cr0, {0}
    a088:	66625f10 	uqadd16vs	r5, r2, r0
    a08c:	c7b90600 	ldrgt	r0, [r9, r0, lsl #12]!
    a090:	10000002 	andne	r0, r0, r2
    a094:	0001600b 	andeq	r6, r1, fp
    a098:	25ba0600 	ldrcs	r0, [sl, #1536]!	; 0x600
    a09c:	18000000 	stmdane	r0, {}	; <UNPREDICTABLE>
    a0a0:	0002210b 	andeq	r2, r2, fp, lsl #2
    a0a4:	1bc10600 	blne	ff04b8ac <__bss_end__+0xff0418bc>
    a0a8:	1c000001 	stcne	0, cr0, [r0], {1}
    a0ac:	0008ad0b 	andeq	sl, r8, fp, lsl #26
    a0b0:	77c30600 	strbvc	r0, [r3, r0, lsl #12]
    a0b4:	20000005 	andcs	r0, r0, r5
    a0b8:	0001760b 	andeq	r7, r1, fp, lsl #12
    a0bc:	a1c50600 	bicge	r0, r5, r0, lsl #12
    a0c0:	24000005 	strcs	r0, [r0], #-5
    a0c4:	0007560b 	andeq	r5, r7, fp, lsl #12
    a0c8:	c5c80600 	strbgt	r0, [r8, #1536]	; 0x600
    a0cc:	28000005 	stmdacs	r0, {r0, r2}
    a0d0:	00096d0b 	andeq	r6, r9, fp, lsl #26
    a0d4:	dfc90600 	svcle	0x00c90600
    a0d8:	2c000005 	stccs	0, cr0, [r0], {5}
    a0dc:	62755f10 	rsbsvs	r5, r5, #16, 30	; 0x40
    a0e0:	c7cc0600 	strbgt	r0, [ip, r0, lsl #12]
    a0e4:	30000002 	andcc	r0, r0, r2
    a0e8:	70755f10 	rsbsvc	r5, r5, r0, lsl pc
    a0ec:	eccd0600 	stcl	6, cr0, [sp], {0}
    a0f0:	38000002 	stmdacc	r0, {r1}
    a0f4:	72755f10 	rsbsvc	r5, r5, #16, 30	; 0x40
    a0f8:	25ce0600 	strbcs	r0, [lr, #1536]	; 0x600
    a0fc:	3c000000 	stccc	0, cr0, [r0], {-0}
    a100:	0001f00b 	andeq	pc, r1, fp
    a104:	e5d10600 	ldrb	r0, [r1, #1536]	; 0x600
    a108:	40000005 	andmi	r0, r0, r5
    a10c:	0009240b 	andeq	r2, r9, fp, lsl #8
    a110:	f5d20600 			; <UNDEFINED> instruction: 0xf5d20600
    a114:	43000005 	movwmi	r0, #5
    a118:	626c5f10 	rsbvs	r5, ip, #16, 30	; 0x40
    a11c:	c7d50600 	ldrbgt	r0, [r5, r0, lsl #12]
    a120:	44000002 	strmi	r0, [r0], #-2
    a124:	0002730b 	andeq	r7, r2, fp, lsl #6
    a128:	25d80600 	ldrbcs	r0, [r8, #1536]	; 0x600
    a12c:	4c000000 	stcmi	0, cr0, [r0], {-0}
    a130:	0002a90b 	andeq	sl, r2, fp, lsl #18
    a134:	8cd90600 	ldclhi	6, cr0, [r9], {0}
    a138:	50000000 	andpl	r0, r0, r0
    a13c:	00064c0b 	andeq	r4, r6, fp, lsl #24
    a140:	3adc0600 	bcc	ff70b948 <__bss_end__+0xff701958>
    a144:	54000004 	strpl	r0, [r0], #-4
    a148:	0010900b 	andseq	r9, r0, fp
    a14c:	10e00600 	rscne	r0, r0, r0, lsl #12
    a150:	58000001 	stmdapl	r0, {r0}
    a154:	0006c30b 	andeq	ip, r6, fp, lsl #6
    a158:	05e20600 	strbeq	r0, [r2, #1536]!	; 0x600
    a15c:	5c000001 	stcpl	0, cr0, [r0], {1}
    a160:	00049f0b 	andeq	r9, r4, fp, lsl #30
    a164:	25e30600 	strbcs	r0, [r3, #1536]!	; 0x600
    a168:	64000000 	strvs	r0, [r0], #-0
    a16c:	00251400 	eoreq	r1, r5, r0, lsl #8
    a170:	043a0000 	ldrteq	r0, [sl], #-0
    a174:	3a150000 	bcc	54a17c <__bss_end__+0x54018c>
    a178:	15000004 	strne	r0, [r0, #-4]
    a17c:	0000011b 	andeq	r0, r0, fp, lsl r1
    a180:	00011d15 	andeq	r1, r1, r5, lsl sp
    a184:	00251500 	eoreq	r1, r5, r0, lsl #10
    a188:	0d000000 	stceq	0, cr0, [r0, #-0]
    a18c:	00044504 	andeq	r4, r4, r4, lsl #10
    a190:	043a0e00 	ldrteq	r0, [sl], #-3584	; 0xfffff200
    a194:	26160000 	ldrcs	r0, [r6], -r0
    a198:	28000007 	stmdacs	r0, {r0, r1, r2}
    a19c:	02380604 	eorseq	r0, r8, #4, 12	; 0x400000
    a1a0:	00000577 	andeq	r0, r0, r7, ror r5
    a1a4:	00066417 	andeq	r6, r6, r7, lsl r4
    a1a8:	023a0600 	eorseq	r0, sl, #0, 12
    a1ac:	00000025 	andeq	r0, r0, r5, lsr #32
    a1b0:	02651700 	rsbeq	r1, r5, #0, 14
    a1b4:	3f060000 	svccc	0x00060000
    a1b8:	00064c02 	andeq	r4, r6, r2, lsl #24
    a1bc:	94170400 	ldrls	r0, [r7], #-1024	; 0xfffffc00
    a1c0:	06000003 	streq	r0, [r0], -r3
    a1c4:	064c023f 			; <UNDEFINED> instruction: 0x064c023f
    a1c8:	17080000 	strne	r0, [r8, -r0]
    a1cc:	00000325 	andeq	r0, r0, r5, lsr #6
    a1d0:	4c023f06 	stcmi	15, cr3, [r2], {6}
    a1d4:	0c000006 	stceq	0, cr0, [r0], {6}
    a1d8:	0006fa17 	andeq	pc, r6, r7, lsl sl	; <UNPREDICTABLE>
    a1dc:	02410600 	subeq	r0, r1, #0, 12
    a1e0:	00000025 	andeq	r0, r0, r5, lsr #32
    a1e4:	00e51710 	rsceq	r1, r5, r0, lsl r7
    a1e8:	42060000 	andmi	r0, r6, #0
    a1ec:	00082e02 	andeq	r2, r8, r2, lsl #28
    a1f0:	6f171400 	svcvs	0x00171400
    a1f4:	06000008 	streq	r0, [r0], -r8
    a1f8:	00250244 	eoreq	r0, r5, r4, asr #4
    a1fc:	17300000 	ldrne	r0, [r0, -r0]!
    a200:	00000704 	andeq	r0, r0, r4, lsl #14
    a204:	9b024506 	blls	9b624 <__bss_end__+0x91634>
    a208:	34000005 	strcc	r0, [r0], #-5
    a20c:	00059317 	andeq	r9, r5, r7, lsl r3
    a210:	02470600 	subeq	r0, r7, #0, 12
    a214:	00000025 	andeq	r0, r0, r5, lsr #32
    a218:	07141738 			; <UNDEFINED> instruction: 0x07141738
    a21c:	49060000 	stmdbmi	r6, {}	; <UNPREDICTABLE>
    a220:	00084902 	andeq	r4, r8, r2, lsl #18
    a224:	63173c00 	tstvs	r7, #0, 24
    a228:	06000004 	streq	r0, [r0], -r4
    a22c:	018d024c 	orreq	r0, sp, ip, asr #4
    a230:	17400000 	strbne	r0, [r0, -r0]
    a234:	0000035a 	andeq	r0, r0, sl, asr r3
    a238:	25024d06 	strcs	r4, [r2, #-3334]	; 0xfffff2fa
    a23c:	44000000 	strmi	r0, [r0], #-0
    a240:	00099017 	andeq	r9, r9, r7, lsl r0
    a244:	024e0600 	subeq	r0, lr, #0, 12
    a248:	0000018d 	andeq	r0, r0, sp, lsl #3
    a24c:	05c81748 	strbeq	r1, [r8, #1864]	; 0x748
    a250:	4f060000 	svcmi	0x00060000
    a254:	00084f02 	andeq	r4, r8, r2, lsl #30
    a258:	9c174c00 	ldcls	12, cr4, [r7], {-0}
    a25c:	06000003 	streq	r0, [r0], -r3
    a260:	00250252 	eoreq	r0, r5, r2, asr r2
    a264:	17500000 	ldrbne	r0, [r0, -r0]
    a268:	000002a1 	andeq	r0, r0, r1, lsr #5
    a26c:	1d025306 	stcne	3, cr5, [r2, #-24]	; 0xffffffe8
    a270:	54000001 	strpl	r0, [r0], #-1
    a274:	00115217 	andseq	r5, r1, r7, lsl r2
    a278:	02760600 	rsbseq	r0, r6, #0, 12
    a27c:	0000080c 	andeq	r0, r0, ip, lsl #16
    a280:	057d1858 	ldrbeq	r1, [sp, #-2136]!	; 0xfffff7a8
    a284:	7a060000 	bvc	18a28c <__bss_end__+0x18029c>
    a288:	0002aa02 	andeq	sl, r2, r2, lsl #20
    a28c:	18014800 	stmdane	r1, {fp, lr}
    a290:	0000042d 	andeq	r0, r0, sp, lsr #8
    a294:	6c027b06 			; <UNDEFINED> instruction: 0x6c027b06
    a298:	4c000002 	stcmi	0, cr0, [r0], {2}
    a29c:	08f51801 	ldmeq	r5!, {r0, fp, ip}^
    a2a0:	7f060000 	svcvc	0x00060000
    a2a4:	00086002 	andeq	r6, r8, r2
    a2a8:	1802dc00 	stmdane	r2, {sl, fp, ip, lr, pc}
    a2ac:	00000229 	andeq	r0, r0, r9, lsr #4
    a2b0:	11028406 	tstne	r2, r6, lsl #8
    a2b4:	e0000006 	and	r0, r0, r6
    a2b8:	020e1802 	andeq	r1, lr, #131072	; 0x20000
    a2bc:	85060000 	strhi	r0, [r6, #-0]
    a2c0:	00086c02 	andeq	r6, r8, r2, lsl #24
    a2c4:	0002ec00 	andeq	lr, r2, r0, lsl #24
    a2c8:	041c040d 	ldreq	r0, [ip], #-1037	; 0xfffffbf3
    a2cc:	25140000 	ldrcs	r0, [r4, #-0]
    a2d0:	9b000000 	blls	a2d8 <__bss_end__+0x2e8>
    a2d4:	15000005 	strne	r0, [r0, #-5]
    a2d8:	0000043a 	andeq	r0, r0, sl, lsr r4
    a2dc:	00011b15 	andeq	r1, r1, r5, lsl fp
    a2e0:	059b1500 	ldreq	r1, [fp, #1280]	; 0x500
    a2e4:	25150000 	ldrcs	r0, [r5, #-0]
    a2e8:	00000000 	andeq	r0, r0, r0
    a2ec:	012a040d 			; <UNDEFINED> instruction: 0x012a040d
    a2f0:	040d0000 	streq	r0, [sp], #-0
    a2f4:	0000057d 	andeq	r0, r0, sp, ror r5
    a2f8:	00009714 	andeq	r9, r0, r4, lsl r7
    a2fc:	0005c500 	andeq	ip, r5, r0, lsl #10
    a300:	043a1500 	ldrteq	r1, [sl], #-1280	; 0xfffffb00
    a304:	1b150000 	blne	54a30c <__bss_end__+0x54031c>
    a308:	15000001 	strne	r0, [r0, #-1]
    a30c:	00000097 	muleq	r0, r7, r0
    a310:	00002515 	andeq	r2, r0, r5, lsl r5
    a314:	040d0000 	streq	r0, [sp], #-0
    a318:	000005a7 	andeq	r0, r0, r7, lsr #11
    a31c:	00002514 	andeq	r2, r0, r4, lsl r5
    a320:	0005df00 	andeq	sp, r5, r0, lsl #30
    a324:	043a1500 	ldrteq	r1, [sl], #-1280	; 0xfffffb00
    a328:	1b150000 	blne	54a330 <__bss_end__+0x540340>
    a32c:	00000001 	andeq	r0, r0, r1
    a330:	05cb040d 	strbeq	r0, [fp, #1037]	; 0x40d
    a334:	5a080000 	bpl	20a33c <__bss_end__+0x20034c>
    a338:	f5000000 			; <UNDEFINED> instruction: 0xf5000000
    a33c:	09000005 	stmdbeq	r0, {r0, r2}
    a340:	000000dd 	ldrdeq	r0, [r0], -sp
    a344:	5a080002 	bpl	20a354 <__bss_end__+0x200364>
    a348:	05000000 	streq	r0, [r0, #-0]
    a34c:	09000006 	stmdbeq	r0, {r1, r2}
    a350:	000000dd 	ldrdeq	r0, [r0], -sp
    a354:	99050000 	stmdbls	r5, {}	; <UNPREDICTABLE>
    a358:	06000006 	streq	r0, [r0], -r6
    a35c:	02f2011d 	rscseq	r0, r2, #1073741831	; 0x40000007
    a360:	d4190000 	ldrle	r0, [r9], #-0
    a364:	0c000008 	stceq	0, cr0, [r0], {8}
    a368:	46012106 	strmi	r2, [r1], -r6, lsl #2
    a36c:	17000006 	strne	r0, [r0, -r6]
    a370:	000006d1 	ldrdeq	r0, [r0], -r1
    a374:	46012306 	strmi	r2, [r1], -r6, lsl #6
    a378:	00000006 	andeq	r0, r0, r6
    a37c:	0003fd17 	andeq	pc, r3, r7, lsl sp	; <UNPREDICTABLE>
    a380:	01240600 			; <UNDEFINED> instruction: 0x01240600
    a384:	00000025 	andeq	r0, r0, r5, lsr #32
    a388:	06931704 	ldreq	r1, [r3], r4, lsl #14
    a38c:	25060000 	strcs	r0, [r6, #-0]
    a390:	00064c01 	andeq	r4, r6, r1, lsl #24
    a394:	0d000800 	stceq	8, cr0, [r0, #-0]
    a398:	00061104 	andeq	r1, r6, r4, lsl #2
    a39c:	05040d00 	streq	r0, [r4, #-3328]	; 0xfffff300
    a3a0:	19000006 	stmdbne	r0, {r1, r2}
    a3a4:	000000c9 	andeq	r0, r0, r9, asr #1
    a3a8:	013d060e 	teqeq	sp, lr, lsl #12
    a3ac:	00000687 	andeq	r0, r0, r7, lsl #13
    a3b0:	00073617 	andeq	r3, r7, r7, lsl r6
    a3b4:	013e0600 	teqeq	lr, r0, lsl #12
    a3b8:	00000687 	andeq	r0, r0, r7, lsl #13
    a3bc:	07d91700 	ldrbeq	r1, [r9, r0, lsl #14]
    a3c0:	3f060000 	svccc	0x00060000
    a3c4:	00068701 	andeq	r8, r6, r1, lsl #14
    a3c8:	18170600 	ldmdane	r7, {r9, sl}
    a3cc:	06000008 	streq	r0, [r0], -r8
    a3d0:	00610140 	rsbeq	r0, r1, r0, asr #2
    a3d4:	000c0000 	andeq	r0, ip, r0
    a3d8:	00006108 	andeq	r6, r0, r8, lsl #2
    a3dc:	00069700 	andeq	r9, r6, r0, lsl #14
    a3e0:	00dd0900 	sbcseq	r0, sp, r0, lsl #18
    a3e4:	00020000 	andeq	r0, r2, r0
    a3e8:	5706d01a 	smladpl	r6, sl, r0, sp
    a3ec:	00079802 	andeq	r9, r7, r2, lsl #16
    a3f0:	089d1700 	ldmeq	sp, {r8, r9, sl, ip}
    a3f4:	59060000 	stmdbpl	r6, {}	; <UNPREDICTABLE>
    a3f8:	00002c02 	andeq	r2, r0, r2, lsl #24
    a3fc:	df170000 	svcle	0x00170000
    a400:	06000007 	streq	r0, [r0], -r7
    a404:	011d025a 	tsteq	sp, sl, asr r2
    a408:	17040000 	strne	r0, [r4, -r0]
    a40c:	00000442 	andeq	r0, r0, r2, asr #8
    a410:	98025b06 	stmdals	r2, {r1, r2, r8, r9, fp, ip, lr}
    a414:	08000007 	stmdaeq	r0, {r0, r1, r2}
    a418:	00095e17 	andeq	r5, r9, r7, lsl lr
    a41c:	025c0600 	subseq	r0, ip, #0, 12
    a420:	000001a3 	andeq	r0, r0, r3, lsr #3
    a424:	03351724 	teqeq	r5, #36, 14	; 0x900000
    a428:	5d060000 	stcpl	0, cr0, [r6, #-0]
    a42c:	00002502 	andeq	r2, r0, r2, lsl #10
    a430:	cc174800 	ldcgt	8, cr4, [r7], {-0}
    a434:	06000006 	streq	r0, [r0], -r6
    a438:	007a025e 	rsbseq	r0, sl, lr, asr r2
    a43c:	17500000 	ldrbne	r0, [r0, -r0]
    a440:	00000974 	andeq	r0, r0, r4, ror r9
    a444:	52025f06 	andpl	r5, r2, #6, 30
    a448:	58000006 	stmdapl	r0, {r1, r2}
    a44c:	0006ed17 	andeq	lr, r6, r7, lsl sp
    a450:	02600600 	rsbeq	r0, r0, #0, 12
    a454:	00000105 	andeq	r0, r0, r5, lsl #2
    a458:	09821768 	stmibeq	r2, {r3, r5, r6, r8, r9, sl, ip}
    a45c:	61060000 	mrsvs	r0, (UNDEF: 6)
    a460:	00010502 	andeq	r0, r1, r2, lsl #10
    a464:	ac177000 	ldcge	0, cr7, [r7], {-0}
    a468:	06000001 	streq	r0, [r0], -r1
    a46c:	01050262 	tsteq	r5, r2, ror #4
    a470:	17780000 	ldrbne	r0, [r8, -r0]!
    a474:	000008eb 	andeq	r0, r0, fp, ror #17
    a478:	a8026306 	stmdage	r2, {r1, r2, r8, r9, sp, lr}
    a47c:	80000007 	andhi	r0, r0, r7
    a480:	00043617 	andeq	r3, r4, r7, lsl r6
    a484:	02640600 	rsbeq	r0, r4, #0, 12
    a488:	000007b8 			; <UNDEFINED> instruction: 0x000007b8
    a48c:	082e1788 	stmdaeq	lr!, {r3, r7, r8, r9, sl, ip}
    a490:	65060000 	strvs	r0, [r6, #-0]
    a494:	00002502 	andeq	r2, r0, r2, lsl #10
    a498:	da17a000 	ble	5f24a0 <__bss_end__+0x5e84b0>
    a49c:	06000002 	streq	r0, [r0], -r2
    a4a0:	01050266 	tsteq	r5, r6, ror #4
    a4a4:	17a40000 	strne	r0, [r4, r0]!
    a4a8:	00000188 	andeq	r0, r0, r8, lsl #3
    a4ac:	05026706 	streq	r6, [r2, #-1798]	; 0xfffff8fa
    a4b0:	ac000001 	stcge	0, cr0, [r0], {1}
    a4b4:	0002c017 	andeq	ip, r2, r7, lsl r0
    a4b8:	02680600 	rsbeq	r0, r8, #0, 12
    a4bc:	00000105 	andeq	r0, r0, r5, lsl #2
    a4c0:	012017b4 			; <UNDEFINED> instruction: 0x012017b4
    a4c4:	69060000 	stmdbvs	r6, {}	; <UNPREDICTABLE>
    a4c8:	00010502 	andeq	r0, r1, r2, lsl #10
    a4cc:	2f17bc00 	svccs	0x0017bc00
    a4d0:	06000001 	streq	r0, [r0], -r1
    a4d4:	0105026a 	tsteq	r5, sl, ror #4
    a4d8:	17c40000 	strbne	r0, [r4, r0]
    a4dc:	00000662 	andeq	r0, r0, r2, ror #12
    a4e0:	25026b06 	strcs	r6, [r2, #-2822]	; 0xfffff4fa
    a4e4:	cc000000 	stcgt	0, cr0, [r0], {-0}
    a4e8:	01230800 			; <UNDEFINED> instruction: 0x01230800
    a4ec:	07a80000 	streq	r0, [r8, r0]!
    a4f0:	dd090000 	stcle	0, cr0, [r9, #-0]
    a4f4:	19000000 	stmdbne	r0, {}	; <UNPREDICTABLE>
    a4f8:	01230800 			; <UNDEFINED> instruction: 0x01230800
    a4fc:	07b80000 	ldreq	r0, [r8, r0]!
    a500:	dd090000 	stcle	0, cr0, [r9, #-0]
    a504:	07000000 	streq	r0, [r0, -r0]
    a508:	01230800 			; <UNDEFINED> instruction: 0x01230800
    a50c:	07c80000 	strbeq	r0, [r8, r0]
    a510:	dd090000 	stcle	0, cr0, [r9, #-0]
    a514:	17000000 	strne	r0, [r0, -r0]
    a518:	06f01a00 	ldrbteq	r1, [r0], r0, lsl #20
    a51c:	07ec0270 			; <UNDEFINED> instruction: 0x07ec0270
    a520:	52170000 	andspl	r0, r7, #0
    a524:	06000005 	streq	r0, [r0], -r5
    a528:	07ec0273 			; <UNDEFINED> instruction: 0x07ec0273
    a52c:	17000000 	strne	r0, [r0, -r0]
    a530:	000004f9 	strdeq	r0, [r0], -r9
    a534:	fc027406 	stc2	4, cr7, [r2], {6}
    a538:	78000007 	stmdavc	r0, {r0, r1, r2}
    a53c:	02ec0800 	rsceq	r0, ip, #0, 16
    a540:	07fc0000 	ldrbeq	r0, [ip, r0]!
    a544:	dd090000 	stcle	0, cr0, [r9, #-0]
    a548:	1d000000 	stcne	0, cr0, [r0, #-0]
    a54c:	002c0800 	eoreq	r0, ip, r0, lsl #16
    a550:	080c0000 	stmdaeq	ip, {}	; <UNPREDICTABLE>
    a554:	dd090000 	stcle	0, cr0, [r9, #-0]
    a558:	1d000000 	stcne	0, cr0, [r0, #-0]
    a55c:	06f01b00 	ldrbteq	r1, [r0], r0, lsl #22
    a560:	082e0255 	stmdaeq	lr!, {r0, r2, r4, r6, r9}
    a564:	261c0000 	ldrcs	r0, [ip], -r0
    a568:	06000007 	streq	r0, [r0], -r7
    a56c:	0697026c 	ldreq	r0, [r7], ip, ror #4
    a570:	2a1c0000 	bcs	70a578 <__bss_end__+0x700588>
    a574:	06000009 	streq	r0, [r0], -r9
    a578:	07c80275 			; <UNDEFINED> instruction: 0x07c80275
    a57c:	08000000 	stmdaeq	r0, {}	; <UNPREDICTABLE>
    a580:	00000123 	andeq	r0, r0, r3, lsr #2
    a584:	0000083e 	andeq	r0, r0, lr, lsr r8
    a588:	0000dd09 	andeq	sp, r0, r9, lsl #26
    a58c:	1d001800 	stcne	8, cr1, [r0, #-0]
    a590:	00000849 	andeq	r0, r0, r9, asr #16
    a594:	00043a15 	andeq	r3, r4, r5, lsl sl
    a598:	040d0000 	streq	r0, [sp], #-0
    a59c:	0000083e 	andeq	r0, r0, lr, lsr r8
    a5a0:	018d040d 	orreq	r0, sp, sp, lsl #8
    a5a4:	601d0000 	andsvs	r0, sp, r0
    a5a8:	15000008 	strne	r0, [r0, #-8]
    a5ac:	00000025 	andeq	r0, r0, r5, lsr #32
    a5b0:	66040d00 	strvs	r0, [r4], -r0, lsl #26
    a5b4:	0d000008 	stceq	0, cr0, [r0, #-32]	; 0xffffffe0
    a5b8:	00085504 	andeq	r5, r8, r4, lsl #10
    a5bc:	06050800 	streq	r0, [r5], -r0, lsl #16
    a5c0:	087c0000 	ldmdaeq	ip!, {}^	; <UNPREDICTABLE>
    a5c4:	dd090000 	stcle	0, cr0, [r9, #-0]
    a5c8:	02000000 	andeq	r0, r0, #0
    a5cc:	08631e00 	stmdaeq	r3!, {r9, sl, fp, ip}^
    a5d0:	fd060000 	stc2	0, cr0, [r6, #-0]
    a5d4:	00043a02 	andeq	r3, r4, r2, lsl #20
    a5d8:	085c1e00 	ldmdaeq	ip, {r9, sl, fp, ip}^
    a5dc:	fe060000 	cdp2	0, 0, cr0, cr6, cr0, {0}
    a5e0:	00044002 	andeq	r4, r4, r2
    a5e4:	00251400 	eoreq	r1, r5, r0, lsl #8
    a5e8:	08a30000 	stmiaeq	r3!, {}	; <UNPREDICTABLE>
    a5ec:	25150000 	ldrcs	r0, [r5, #-0]
    a5f0:	00000000 	andeq	r0, r0, r0
    a5f4:	0003641f 	andeq	r6, r3, pc, lsl r4
    a5f8:	ae1d0700 	cdpge	7, 1, cr0, cr13, cr0, {0}
    a5fc:	0d000008 	stceq	0, cr0, [r0, #-32]	; 0xffffffe0
    a600:	00089404 	andeq	r9, r8, r4, lsl #8
    a604:	00251400 	eoreq	r1, r5, r0, lsl #8
    a608:	08c30000 	stmiaeq	r3, {}^	; <UNPREDICTABLE>
    a60c:	9b150000 	blls	54a614 <__bss_end__+0x540624>
    a610:	00000005 	andeq	r0, r0, r5
    a614:	000d2b1f 	andeq	r2, sp, pc, lsl fp
    a618:	ce220700 	cdpgt	7, 2, cr0, cr2, cr0, {0}
    a61c:	0d000008 	stceq	0, cr0, [r0, #-32]	; 0xffffffe0
    a620:	0008b404 	andeq	fp, r8, r4, lsl #8
    a624:	080c0a00 	stmdaeq	ip, {r9, fp}
    a628:	00090b0e 	andeq	r0, r9, lr, lsl #22
    a62c:	78741000 	ldmdavc	r4!, {ip}^
    a630:	4f0f0800 	svcmi	0x000f0800
    a634:	00000000 	andeq	r0, r0, r0
    a638:	00787210 	rsbseq	r7, r8, r0, lsl r2
    a63c:	004f0f08 	subeq	r0, pc, r8, lsl #30
    a640:	0b010000 	bleq	4a648 <__bss_end__+0x40658>
    a644:	00000e27 	andeq	r0, r0, r7, lsr #28
    a648:	00681008 	rsbeq	r1, r8, r8
    a64c:	0b040000 	bleq	10a654 <__bss_end__+0x100664>
    a650:	00000e5f 	andeq	r0, r0, pc, asr lr
    a654:	00681108 	rsbeq	r1, r8, r8, lsl #2
    a658:	00080000 	andeq	r0, r8, r0
    a65c:	000dea04 	andeq	lr, sp, r4, lsl #20
    a660:	d4120800 	ldrle	r0, [r2], #-2048	; 0xfffff800
    a664:	20000008 	andcs	r0, r0, r8
    a668:	00000e5a 	andeq	r0, r0, sl, asr lr
    a66c:	002c1309 	eoreq	r1, ip, r9, lsl #6
    a670:	02200000 	eoreq	r0, r0, #0
    a674:	0900000e 	stmdbeq	r0, {r1, r2, r3}
    a678:	00002c14 	andeq	r2, r0, r4, lsl ip
    a67c:	5a012100 	bpl	52a84 <__bss_end__+0x48a94>
    a680:	0a000000 	beq	a688 <__bss_end__+0x698>
    a684:	00094b10 	andeq	r4, r9, r0, lsl fp
    a688:	0daa2200 	sfmeq	f2, 4, [sl]
    a68c:	22010000 	andcs	r0, r1, #0
    a690:	00000e4d 	andeq	r0, r0, sp, asr #28
    a694:	0d732202 	lfmeq	f2, 2, [r3, #-8]!
    a698:	00030000 	andeq	r0, r3, r0
    a69c:	000d8104 	andeq	r8, sp, r4, lsl #2
    a6a0:	2c100a00 			; <UNDEFINED> instruction: 0x2c100a00
    a6a4:	0a000009 	beq	a6d0 <__bss_end__+0x6e0>
    a6a8:	83140a14 	tsthi	r4, #20, 20	; 0x14000
    a6ac:	0b000009 	bleq	a6d8 <__bss_end__+0x6e8>
    a6b0:	00000df4 	strdeq	r0, [r0], -r4
    a6b4:	002c150a 	eoreq	r1, ip, sl, lsl #10
    a6b8:	0b000000 	bleq	a6c0 <__bss_end__+0x6d0>
    a6bc:	00000db7 			; <UNDEFINED> instruction: 0x00000db7
    a6c0:	094b180a 	stmdbeq	fp, {r1, r3, fp, ip}^
    a6c4:	0b040000 	bleq	10a6cc <__bss_end__+0x1006dc>
    a6c8:	00000d94 	muleq	r0, r4, sp
    a6cc:	090b1b0a 	stmdbeq	fp, {r1, r3, r8, r9, fp, ip}
    a6d0:	00080000 	andeq	r0, r8, r0
    a6d4:	000d9c04 	andeq	r9, sp, r4, lsl #24
    a6d8:	56200a00 	strtpl	r0, [r0], -r0, lsl #20
    a6dc:	23000009 	movwcs	r0, #9
    a6e0:	00000e2c 	andeq	r0, r0, ip, lsr #28
    a6e4:	09b50c01 	ldmibeq	r5!, {r0, sl, fp}
    a6e8:	963c0000 	ldrtls	r0, [ip], -r0
    a6ec:	00280000 	eoreq	r0, r8, r0
    a6f0:	9c010000 	stcls	0, cr0, [r1], {-0}
    a6f4:	000009b5 			; <UNDEFINED> instruction: 0x000009b5
    a6f8:	01006324 	tsteq	r0, r4, lsr #6
    a6fc:	0009b50d 	andeq	fp, r9, sp, lsl #10
    a700:	00000000 	andeq	r0, r0, r0
    a704:	040d0009 	streq	r0, [sp], #-9
    a708:	00000983 	andeq	r0, r0, r3, lsl #19
    a70c:	00115023 	andseq	r5, r1, r3, lsr #32
    a710:	b5050100 	strlt	r0, [r5, #-256]	; 0xffffff00
    a714:	14000009 	strne	r0, [r0], #-9
    a718:	28000096 	stmdacs	r0, {r1, r2, r4, r7}
    a71c:	01000000 	mrseq	r0, (UNDEF: 0)
    a720:	0009fd9c 	muleq	r9, ip, sp
    a724:	00632400 	rsbeq	r2, r3, r0, lsl #8
    a728:	09b50601 	ldmibeq	r5!, {r0, r9, sl}
    a72c:	00000000 	andeq	r0, r0, r0
    a730:	28250900 	stmdacs	r5!, {r8, fp}
    a734:	fd000096 	stc2	0, cr0, [r0, #-600]	; 0xfffffda8
    a738:	26000009 	strcs	r0, [r0], -r9
    a73c:	42035001 	andmi	r5, r3, #1
    a740:	01262447 			; <UNDEFINED> instruction: 0x01262447
    a744:	26300151 			; <UNDEFINED> instruction: 0x26300151
    a748:	34015201 	strcc	r5, [r1], #-513	; 0xfffffdff
    a74c:	72270000 	eorvc	r0, r7, #0
    a750:	72000011 	andvc	r0, r0, #17
    a754:	0b000011 	bleq	a7a0 <__bss_end__+0x7b0>
    a758:	08d80019 	ldmeq	r8, {r0, r3, r4}^
    a75c:	00040000 	andeq	r0, r4, r0
    a760:	00001f21 	andeq	r1, r0, r1, lsr #30
    a764:	0c370104 	ldfeqs	f0, [r7], #-16
    a768:	790c0000 	stmdbvc	ip, {}	; <UNPREDICTABLE>
    a76c:	9e000011 	mcrls	0, 0, r0, cr0, cr1, {0}
    a770:	6400000c 	strvs	r0, [r0], #-12
    a774:	20000096 	mulcs	r0, r6, r0
    a778:	76000000 	strvc	r0, [r0], -r0
    a77c:	02000010 	andeq	r0, r0, #16
    a780:	6e690504 	cdpvs	5, 6, cr0, cr9, cr4, {0}
    a784:	b7030074 	smlsdxlt	r3, r4, r0, r0
    a788:	02000000 	andeq	r0, r0, #0
    a78c:	000037d8 	ldrdeq	r3, [r0], -r8
    a790:	07040400 	streq	r0, [r4, -r0, lsl #8]
    a794:	0000014a 	andeq	r0, r0, sl, asr #2
    a798:	20060104 	andcs	r0, r6, r4, lsl #2
    a79c:	04000006 	streq	r0, [r0], #-6
    a7a0:	061e0801 	ldreq	r0, [lr], -r1, lsl #16
    a7a4:	02040000 	andeq	r0, r4, #0
    a7a8:	00066b05 	andeq	r6, r6, r5, lsl #22
    a7ac:	07020400 	streq	r0, [r2, -r0, lsl #8]
    a7b0:	0000041a 	andeq	r0, r0, sl, lsl r4
    a7b4:	c8050404 	stmdagt	r5, {r2, sl}
    a7b8:	04000001 	streq	r0, [r0], #-1
    a7bc:	01450704 	cmpeq	r5, r4, lsl #14
    a7c0:	08040000 	stmdaeq	r4, {}	; <UNPREDICTABLE>
    a7c4:	0001c305 	andeq	ip, r1, r5, lsl #6
    a7c8:	07080400 	streq	r0, [r8, -r0, lsl #8]
    a7cc:	00000140 	andeq	r0, r0, r0, asr #2
    a7d0:	0005e203 	andeq	lr, r5, r3, lsl #4
    a7d4:	25070300 	strcs	r0, [r7, #-768]	; 0xfffffd00
    a7d8:	03000000 	movweq	r0, #0
    a7dc:	0000059e 	muleq	r0, lr, r5
    a7e0:	005a2c04 	subseq	r2, sl, r4, lsl #24
    a7e4:	69030000 	stmdbvs	r3, {}	; <UNPREDICTABLE>
    a7e8:	04000007 	streq	r0, [r0], #-7
    a7ec:	00005a72 	andeq	r5, r0, r2, ror sl
    a7f0:	047e0500 	ldrbteq	r0, [lr], #-1280	; 0xfffffb00
    a7f4:	65020000 	strvs	r0, [r2, #-0]
    a7f8:	00003701 	andeq	r3, r0, r1, lsl #14
    a7fc:	04040600 	streq	r0, [r4], #-1536	; 0xfffffa00
    a800:	0000c2a6 	andeq	ip, r0, r6, lsr #5
    a804:	046b0700 	strbteq	r0, [fp], #-1792	; 0xfffff900
    a808:	a8040000 	stmdage	r4, {}	; <UNPREDICTABLE>
    a80c:	00000097 	muleq	r0, r7, r0
    a810:	00037e07 	andeq	r7, r3, r7, lsl #28
    a814:	c2a90400 	adcgt	r0, r9, #0, 8
    a818:	00000000 	andeq	r0, r0, r0
    a81c:	00004508 	andeq	r4, r0, r8, lsl #10
    a820:	0000d200 	andeq	sp, r0, r0, lsl #4
    a824:	00d20900 	sbcseq	r0, r2, r0, lsl #18
    a828:	00030000 	andeq	r0, r3, r0
    a82c:	0e070404 	cdpeq	4, 0, cr0, cr7, cr4, {0}
    a830:	0a000005 	beq	a84c <__bss_end__+0x85c>
    a834:	faa30408 	blx	fe8cb85c <__bss_end__+0xfe8c186c>
    a838:	0b000000 	bleq	a840 <__bss_end__+0x850>
    a83c:	00000745 	andeq	r0, r0, r5, asr #14
    a840:	0025a504 	eoreq	sl, r5, r4, lsl #10
    a844:	0b000000 	bleq	a84c <__bss_end__+0x85c>
    a848:	000007ec 	andeq	r0, r0, ip, ror #15
    a84c:	00a3aa04 	adceq	sl, r3, r4, lsl #20
    a850:	00040000 	andeq	r0, r4, r0
    a854:	0006a003 	andeq	sl, r6, r3
    a858:	d9ab0400 	stmible	fp!, {sl}
    a85c:	03000000 	movweq	r0, #0
    a860:	0000031c 	andeq	r0, r0, ip, lsl r3
    a864:	0076af04 	rsbseq	sl, r6, r4, lsl #30
    a868:	040c0000 	streq	r0, [ip], #-0
    a86c:	0118040d 	tsteq	r8, sp, lsl #8
    a870:	01040000 	mrseq	r0, (UNDEF: 4)
    a874:	00062708 	andeq	r2, r6, r8, lsl #14
    a878:	01180e00 	tsteq	r8, r0, lsl #28
    a87c:	26030000 	strcs	r0, [r3], -r0
    a880:	05000008 	streq	r0, [r0, #-8]
    a884:	00006116 	andeq	r6, r0, r6, lsl r1
    a888:	032d0f00 			; <UNDEFINED> instruction: 0x032d0f00
    a88c:	05180000 	ldreq	r0, [r8, #-0]
    a890:	0001822d 	andeq	r8, r1, sp, lsr #4
    a894:	06d10b00 	ldrbeq	r0, [r1], r0, lsl #22
    a898:	2f050000 	svccs	0x00050000
    a89c:	00000182 	andeq	r0, r0, r2, lsl #3
    a8a0:	6b5f1000 	blvs	17ce8a8 <__bss_end__+0x17c48b8>
    a8a4:	25300500 	ldrcs	r0, [r0, #-1280]!	; 0xfffffb00
    a8a8:	04000000 	streq	r0, [r0], #-0
    a8ac:	00071e0b 	andeq	r1, r7, fp, lsl #28
    a8b0:	25300500 	ldrcs	r0, [r0, #-1280]!	; 0xfffffb00
    a8b4:	08000000 	stmdaeq	r0, {}	; <UNPREDICTABLE>
    a8b8:	0003160b 	andeq	r1, r3, fp, lsl #12
    a8bc:	25300500 	ldrcs	r0, [r0, #-1280]!	; 0xfffffb00
    a8c0:	0c000000 	stceq	0, cr0, [r0], {-0}
    a8c4:	0008c50b 	andeq	ip, r8, fp, lsl #10
    a8c8:	25300500 	ldrcs	r0, [r0, #-1280]!	; 0xfffffb00
    a8cc:	10000000 	andne	r0, r0, r0
    a8d0:	00785f10 	rsbseq	r5, r8, r0, lsl pc
    a8d4:	01883105 	orreq	r3, r8, r5, lsl #2
    a8d8:	00140000 	andseq	r0, r4, r0
    a8dc:	012f040d 			; <UNDEFINED> instruction: 0x012f040d
    a8e0:	24080000 	strcs	r0, [r8], #-0
    a8e4:	98000001 	stmdals	r0, {r0}
    a8e8:	09000001 	stmdbeq	r0, {r0}
    a8ec:	000000d2 	ldrdeq	r0, [r0], -r2
    a8f0:	700f0000 	andvc	r0, pc, r0
    a8f4:	24000003 	strcs	r0, [r0], #-3
    a8f8:	02113505 	andseq	r3, r1, #20971520	; 0x1400000
    a8fc:	ba0b0000 	blt	2ca904 <__bss_end__+0x2c0914>
    a900:	05000001 	streq	r0, [r0, #-1]
    a904:	00002537 	andeq	r2, r0, r7, lsr r5
    a908:	910b0000 	mrsls	r0, (UNDEF: 11)
    a90c:	05000007 	streq	r0, [r0, #-7]
    a910:	00002538 	andeq	r2, r0, r8, lsr r5
    a914:	040b0400 	streq	r0, [fp], #-1024	; 0xfffffc00
    a918:	05000002 	streq	r0, [r0, #-2]
    a91c:	00002539 	andeq	r2, r0, r9, lsr r5
    a920:	d90b0800 	stmdble	fp, {fp}
    a924:	05000009 	streq	r0, [r0, #-9]
    a928:	0000253a 	andeq	r2, r0, sl, lsr r5
    a92c:	630b0c00 	movwvs	r0, #48128	; 0xbc00
    a930:	05000005 	streq	r0, [r0, #-5]
    a934:	0000253b 	andeq	r2, r0, fp, lsr r5
    a938:	d10b1000 	mrsle	r1, (UNDEF: 11)
    a93c:	05000004 	streq	r0, [r0, #-4]
    a940:	0000253c 	andeq	r2, r0, ip, lsr r5
    a944:	ca0b1400 	bgt	2cf94c <__bss_end__+0x2c595c>
    a948:	05000008 	streq	r0, [r0, #-8]
    a94c:	0000253d 	andeq	r2, r0, sp, lsr r5
    a950:	750b1800 	strvc	r1, [fp, #-2048]	; 0xfffff800
    a954:	05000006 	streq	r0, [r0, #-6]
    a958:	0000253e 	andeq	r2, r0, lr, lsr r5
    a95c:	530b1c00 	movwpl	r1, #48128	; 0xbc00
    a960:	05000009 	streq	r0, [r0, #-9]
    a964:	0000253f 	andeq	r2, r0, pc, lsr r5
    a968:	11002000 	mrsne	r2, (UNDEF: 0)
    a96c:	00000213 	andeq	r0, r0, r3, lsl r2
    a970:	48050108 	stmdami	r5, {r3, r8}
    a974:	00000251 	andeq	r0, r0, r1, asr r2
    a978:	0002e80b 	andeq	lr, r2, fp, lsl #16
    a97c:	51490500 	cmppl	r9, r0, lsl #10
    a980:	00000002 	andeq	r0, r0, r2
    a984:	0000000b 	andeq	r0, r0, fp
    a988:	514a0500 	cmppl	sl, r0, lsl #10
    a98c:	80000002 	andhi	r0, r0, r2
    a990:	0007b312 	andeq	fp, r7, r2, lsl r3
    a994:	244c0500 	strbcs	r0, [ip], #-1280	; 0xfffffb00
    a998:	00000001 	andeq	r0, r0, r1
    a99c:	025d1201 	subseq	r1, sp, #268435456	; 0x10000000
    a9a0:	4f050000 	svcmi	0x00050000
    a9a4:	00000124 	andeq	r0, r0, r4, lsr #2
    a9a8:	08000104 	stmdaeq	r0, {r2, r8}
    a9ac:	00000110 	andeq	r0, r0, r0, lsl r1
    a9b0:	00000261 	andeq	r0, r0, r1, ror #4
    a9b4:	0000d209 	andeq	sp, r0, r9, lsl #4
    a9b8:	11001f00 	tstne	r0, r0, lsl #30
    a9bc:	0000057d 	andeq	r0, r0, sp, ror r5
    a9c0:	5b050190 	blpl	14b008 <__bss_end__+0x141018>
    a9c4:	0000029f 	muleq	r0, pc, r2	; <UNPREDICTABLE>
    a9c8:	0006d10b 	andeq	sp, r6, fp, lsl #2
    a9cc:	9f5c0500 	svcls	0x005c0500
    a9d0:	00000002 	andeq	r0, r0, r2
    a9d4:	0006ff0b 	andeq	pc, r6, fp, lsl #30
    a9d8:	255d0500 	ldrbcs	r0, [sp, #-1280]	; 0xfffffb00
    a9dc:	04000000 	streq	r0, [r0], #-0
    a9e0:	0003110b 	andeq	r1, r3, fp, lsl #2
    a9e4:	a55f0500 	ldrbge	r0, [pc, #-1280]	; a4ec <__bss_end__+0x4fc>
    a9e8:	08000002 	stmdaeq	r0, {r1}
    a9ec:	0002130b 	andeq	r1, r2, fp, lsl #6
    a9f0:	11600500 	cmnne	r0, r0, lsl #10
    a9f4:	88000002 	stmdahi	r0, {r1}
    a9f8:	61040d00 	tstvs	r4, r0, lsl #26
    a9fc:	08000002 	stmdaeq	r0, {r1}
    aa00:	000002b5 			; <UNDEFINED> instruction: 0x000002b5
    aa04:	000002b5 			; <UNDEFINED> instruction: 0x000002b5
    aa08:	0000d209 	andeq	sp, r0, r9, lsl #4
    aa0c:	0d001f00 	stceq	15, cr1, [r0, #-0]
    aa10:	0002bb04 	andeq	fp, r2, r4, lsl #22
    aa14:	7f0f1300 	svcvc	0x000f1300
    aa18:	08000006 	stmdaeq	r0, {r1, r2}
    aa1c:	02e17305 	rsceq	r7, r1, #335544320	; 0x14000000
    aa20:	fe0b0000 	cdp2	0, 0, cr0, cr11, cr0, {0}
    aa24:	05000001 	streq	r0, [r0, #-1]
    aa28:	0002e174 	andeq	lr, r2, r4, ror r1
    aa2c:	a60b0000 	strge	r0, [fp], -r0
    aa30:	05000000 	streq	r0, [r0, #-0]
    aa34:	00002575 	andeq	r2, r0, r5, ror r5
    aa38:	0d000400 	cfstrseq	mvf0, [r0, #-0]
    aa3c:	00004504 	andeq	r4, r0, r4, lsl #10
    aa40:	06ab0f00 	strteq	r0, [fp], r0, lsl #30
    aa44:	05680000 	strbeq	r0, [r8, #-0]!
    aa48:	000411b3 			; <UNDEFINED> instruction: 0x000411b3
    aa4c:	705f1000 	subsvc	r1, pc, r0
    aa50:	e1b40500 			; <UNDEFINED> instruction: 0xe1b40500
    aa54:	00000002 	andeq	r0, r0, r2
    aa58:	00725f10 	rsbseq	r5, r2, r0, lsl pc
    aa5c:	0025b505 	eoreq	fp, r5, r5, lsl #10
    aa60:	10040000 	andne	r0, r4, r0
    aa64:	0500775f 	streq	r7, [r0, #-1887]	; 0xfffff8a1
    aa68:	000025b6 			; <UNDEFINED> instruction: 0x000025b6
    aa6c:	560b0800 	strpl	r0, [fp], -r0, lsl #16
    aa70:	05000002 	streq	r0, [r0, #-2]
    aa74:	00004cb7 			; <UNDEFINED> instruction: 0x00004cb7
    aa78:	af0b0c00 	svcge	0x000b0c00
    aa7c:	05000003 	streq	r0, [r0, #-3]
    aa80:	00004cb8 			; <UNDEFINED> instruction: 0x00004cb8
    aa84:	5f100e00 	svcpl	0x00100e00
    aa88:	05006662 	streq	r6, [r0, #-1634]	; 0xfffff99e
    aa8c:	0002bcb9 			; <UNDEFINED> instruction: 0x0002bcb9
    aa90:	600b1000 	andvs	r1, fp, r0
    aa94:	05000001 	streq	r0, [r0, #-1]
    aa98:	000025ba 			; <UNDEFINED> instruction: 0x000025ba
    aa9c:	210b1800 	tstcs	fp, r0, lsl #16
    aaa0:	05000002 	streq	r0, [r0, #-2]
    aaa4:	000110c1 	andeq	r1, r1, r1, asr #1
    aaa8:	ad0b1c00 	stcge	12, cr1, [fp, #-0]
    aaac:	05000008 	streq	r0, [r0, #-8]
    aab0:	00056cc3 	andeq	r6, r5, r3, asr #25
    aab4:	760b2000 	strvc	r2, [fp], -r0
    aab8:	05000001 	streq	r0, [r0, #-1]
    aabc:	000596c5 	andeq	r9, r5, r5, asr #13
    aac0:	560b2400 	strpl	r2, [fp], -r0, lsl #8
    aac4:	05000007 	streq	r0, [r0, #-7]
    aac8:	0005bac8 	andeq	fp, r5, r8, asr #21
    aacc:	6d0b2800 	stcvs	8, cr2, [fp, #-0]
    aad0:	05000009 	streq	r0, [r0, #-9]
    aad4:	0005d4c9 	andeq	sp, r5, r9, asr #9
    aad8:	5f102c00 	svcpl	0x00102c00
    aadc:	05006275 	streq	r6, [r0, #-629]	; 0xfffffd8b
    aae0:	0002bccc 	andeq	fp, r2, ip, asr #25
    aae4:	5f103000 	svcpl	0x00103000
    aae8:	05007075 	streq	r7, [r0, #-117]	; 0xffffff8b
    aaec:	0002e1cd 	andeq	lr, r2, sp, asr #3
    aaf0:	5f103800 	svcpl	0x00103800
    aaf4:	05007275 	streq	r7, [r0, #-629]	; 0xfffffd8b
    aaf8:	000025ce 	andeq	r2, r0, lr, asr #11
    aafc:	f00b3c00 			; <UNDEFINED> instruction: 0xf00b3c00
    ab00:	05000001 	streq	r0, [r0, #-1]
    ab04:	0005dad1 	ldrdeq	sp, [r5], -r1
    ab08:	240b4000 	strcs	r4, [fp], #-0
    ab0c:	05000009 	streq	r0, [r0, #-9]
    ab10:	0005ead2 	ldrdeq	lr, [r5], -r2
    ab14:	5f104300 	svcpl	0x00104300
    ab18:	0500626c 	streq	r6, [r0, #-620]	; 0xfffffd94
    ab1c:	0002bcd5 	ldrdeq	fp, [r2], -r5
    ab20:	730b4400 	movwvc	r4, #46080	; 0xb400
    ab24:	05000002 	streq	r0, [r0, #-2]
    ab28:	000025d8 	ldrdeq	r2, [r0], -r8
    ab2c:	a90b4c00 	stmdbge	fp, {sl, fp, lr}
    ab30:	05000002 	streq	r0, [r0, #-2]
    ab34:	000081d9 	ldrdeq	r8, [r0], -r9
    ab38:	4c0b5000 	stcmi	0, cr5, [fp], {-0}
    ab3c:	05000006 	streq	r0, [r0, #-6]
    ab40:	00042fdc 	ldrdeq	r2, [r4], -ip
    ab44:	900b5400 	andls	r5, fp, r0, lsl #8
    ab48:	05000010 	streq	r0, [r0, #-16]
    ab4c:	000105e0 	andeq	r0, r1, r0, ror #11
    ab50:	c30b5800 	movwgt	r5, #47104	; 0xb800
    ab54:	05000006 	streq	r0, [r0, #-6]
    ab58:	0000fae2 	andeq	pc, r0, r2, ror #21
    ab5c:	9f0b5c00 	svcls	0x000b5c00
    ab60:	05000004 	streq	r0, [r0, #-4]
    ab64:	000025e3 	andeq	r2, r0, r3, ror #11
    ab68:	14006400 	strne	r6, [r0], #-1024	; 0xfffffc00
    ab6c:	00000025 	andeq	r0, r0, r5, lsr #32
    ab70:	0000042f 	andeq	r0, r0, pc, lsr #8
    ab74:	00042f15 	andeq	r2, r4, r5, lsl pc
    ab78:	01101500 	tsteq	r0, r0, lsl #10
    ab7c:	12150000 	andsne	r0, r5, #0
    ab80:	15000001 	strne	r0, [r0, #-1]
    ab84:	00000025 	andeq	r0, r0, r5, lsr #32
    ab88:	3a040d00 	bcc	10df90 <__bss_end__+0x103fa0>
    ab8c:	0e000004 	cdpeq	0, 0, cr0, cr0, cr4, {0}
    ab90:	0000042f 	andeq	r0, r0, pc, lsr #8
    ab94:	00072616 	andeq	r2, r7, r6, lsl r6
    ab98:	05042800 	streq	r2, [r4, #-2048]	; 0xfffff800
    ab9c:	056c0238 	strbeq	r0, [ip, #-568]!	; 0xfffffdc8
    aba0:	64170000 	ldrvs	r0, [r7], #-0
    aba4:	05000006 	streq	r0, [r0, #-6]
    aba8:	0025023a 	eoreq	r0, r5, sl, lsr r2
    abac:	17000000 	strne	r0, [r0, -r0]
    abb0:	00000265 	andeq	r0, r0, r5, ror #4
    abb4:	41023f05 	tstmi	r2, r5, lsl #30
    abb8:	04000006 	streq	r0, [r0], #-6
    abbc:	00039417 	andeq	r9, r3, r7, lsl r4
    abc0:	023f0500 	eorseq	r0, pc, #0, 10
    abc4:	00000641 	andeq	r0, r0, r1, asr #12
    abc8:	03251708 			; <UNDEFINED> instruction: 0x03251708
    abcc:	3f050000 	svccc	0x00050000
    abd0:	00064102 	andeq	r4, r6, r2, lsl #2
    abd4:	fa170c00 	blx	5cdbdc <__bss_end__+0x5c3bec>
    abd8:	05000006 	streq	r0, [r0, #-6]
    abdc:	00250241 	eoreq	r0, r5, r1, asr #4
    abe0:	17100000 	ldrne	r0, [r0, -r0]
    abe4:	000000e5 	andeq	r0, r0, r5, ror #1
    abe8:	23024205 	movwcs	r4, #8709	; 0x2205
    abec:	14000008 	strne	r0, [r0], #-8
    abf0:	00086f17 	andeq	r6, r8, r7, lsl pc
    abf4:	02440500 	subeq	r0, r4, #0, 10
    abf8:	00000025 	andeq	r0, r0, r5, lsr #32
    abfc:	07041730 	smladxeq	r4, r0, r7, r1
    ac00:	45050000 	strmi	r0, [r5, #-0]
    ac04:	00059002 	andeq	r9, r5, r2
    ac08:	93173400 	tstls	r7, #0, 8
    ac0c:	05000005 	streq	r0, [r0, #-5]
    ac10:	00250247 	eoreq	r0, r5, r7, asr #4
    ac14:	17380000 	ldrne	r0, [r8, -r0]!
    ac18:	00000714 	andeq	r0, r0, r4, lsl r7
    ac1c:	3e024905 	vmlacc.f16	s8, s4, s10	; <UNPREDICTABLE>
    ac20:	3c000008 	stccc	0, cr0, [r0], {8}
    ac24:	00046317 	andeq	r6, r4, r7, lsl r3
    ac28:	024c0500 	subeq	r0, ip, #0, 10
    ac2c:	00000182 	andeq	r0, r0, r2, lsl #3
    ac30:	035a1740 	cmpeq	sl, #64, 14	; 0x1000000
    ac34:	4d050000 	stcmi	0, cr0, [r5, #-0]
    ac38:	00002502 	andeq	r2, r0, r2, lsl #10
    ac3c:	90174400 	andsls	r4, r7, r0, lsl #8
    ac40:	05000009 	streq	r0, [r0, #-9]
    ac44:	0182024e 	orreq	r0, r2, lr, asr #4
    ac48:	17480000 	strbne	r0, [r8, -r0]
    ac4c:	000005c8 	andeq	r0, r0, r8, asr #11
    ac50:	44024f05 	strmi	r4, [r2], #-3845	; 0xfffff0fb
    ac54:	4c000008 	stcmi	0, cr0, [r0], {8}
    ac58:	00039c17 	andeq	r9, r3, r7, lsl ip
    ac5c:	02520500 	subseq	r0, r2, #0, 10
    ac60:	00000025 	andeq	r0, r0, r5, lsr #32
    ac64:	02a11750 	adceq	r1, r1, #80, 14	; 0x1400000
    ac68:	53050000 	movwpl	r0, #20480	; 0x5000
    ac6c:	00011202 	andeq	r1, r1, r2, lsl #4
    ac70:	52175400 	andspl	r5, r7, #0, 8
    ac74:	05000011 	streq	r0, [r0, #-17]	; 0xffffffef
    ac78:	08010276 	stmdaeq	r1, {r1, r2, r4, r5, r6, r9}
    ac7c:	18580000 	ldmdane	r8, {}^	; <UNPREDICTABLE>
    ac80:	0000057d 	andeq	r0, r0, sp, ror r5
    ac84:	9f027a05 	svcls	0x00027a05
    ac88:	48000002 	stmdami	r0, {r1}
    ac8c:	042d1801 	strteq	r1, [sp], #-2049	; 0xfffff7ff
    ac90:	7b050000 	blvc	14ac98 <__bss_end__+0x140ca8>
    ac94:	00026102 	andeq	r6, r2, r2, lsl #2
    ac98:	18014c00 	stmdane	r1, {sl, fp, lr}
    ac9c:	000008f5 	strdeq	r0, [r0], -r5
    aca0:	55027f05 	strpl	r7, [r2, #-3845]	; 0xfffff0fb
    aca4:	dc000008 	stcle	0, cr0, [r0], {8}
    aca8:	02291802 	eoreq	r1, r9, #131072	; 0x20000
    acac:	84050000 	strhi	r0, [r5], #-0
    acb0:	00060602 	andeq	r0, r6, r2, lsl #12
    acb4:	1802e000 	stmdane	r2, {sp, lr, pc}
    acb8:	0000020e 	andeq	r0, r0, lr, lsl #4
    acbc:	61028505 	tstvs	r2, r5, lsl #10
    acc0:	ec000008 	stc	0, cr0, [r0], {8}
    acc4:	040d0002 	streq	r0, [sp], #-2
    acc8:	00000411 	andeq	r0, r0, r1, lsl r4
    accc:	00002514 	andeq	r2, r0, r4, lsl r5
    acd0:	00059000 	andeq	r9, r5, r0
    acd4:	042f1500 	strteq	r1, [pc], #-1280	; acdc <__bss_end__+0xcec>
    acd8:	10150000 	andsne	r0, r5, r0
    acdc:	15000001 	strne	r0, [r0, #-1]
    ace0:	00000590 	muleq	r0, r0, r5
    ace4:	00002515 	andeq	r2, r0, r5, lsl r5
    ace8:	040d0000 	streq	r0, [sp], #-0
    acec:	0000011f 	andeq	r0, r0, pc, lsl r1
    acf0:	0572040d 	ldrbeq	r0, [r2, #-1037]!	; 0xfffffbf3
    acf4:	8c140000 	ldchi	0, cr0, [r4], {-0}
    acf8:	ba000000 	blt	ad00 <__bss_end__+0xd10>
    acfc:	15000005 	strne	r0, [r0, #-5]
    ad00:	0000042f 	andeq	r0, r0, pc, lsr #8
    ad04:	00011015 	andeq	r1, r1, r5, lsl r0
    ad08:	008c1500 	addeq	r1, ip, r0, lsl #10
    ad0c:	25150000 	ldrcs	r0, [r5, #-0]
    ad10:	00000000 	andeq	r0, r0, r0
    ad14:	059c040d 	ldreq	r0, [ip, #1037]	; 0x40d
    ad18:	25140000 	ldrcs	r0, [r4, #-0]
    ad1c:	d4000000 	strle	r0, [r0], #-0
    ad20:	15000005 	strne	r0, [r0, #-5]
    ad24:	0000042f 	andeq	r0, r0, pc, lsr #8
    ad28:	00011015 	andeq	r1, r1, r5, lsl r0
    ad2c:	040d0000 	streq	r0, [sp], #-0
    ad30:	000005c0 	andeq	r0, r0, r0, asr #11
    ad34:	00004508 	andeq	r4, r0, r8, lsl #10
    ad38:	0005ea00 	andeq	lr, r5, r0, lsl #20
    ad3c:	00d20900 	sbcseq	r0, r2, r0, lsl #18
    ad40:	00020000 	andeq	r0, r2, r0
    ad44:	00004508 	andeq	r4, r0, r8, lsl #10
    ad48:	0005fa00 	andeq	pc, r5, r0, lsl #20
    ad4c:	00d20900 	sbcseq	r0, r2, r0, lsl #18
    ad50:	00000000 	andeq	r0, r0, r0
    ad54:	00069905 	andeq	r9, r6, r5, lsl #18
    ad58:	011d0500 	tsteq	sp, r0, lsl #10
    ad5c:	000002e7 	andeq	r0, r0, r7, ror #5
    ad60:	0008d419 	andeq	sp, r8, r9, lsl r4
    ad64:	21050c00 	tstcs	r5, r0, lsl #24
    ad68:	00063b01 	andeq	r3, r6, r1, lsl #22
    ad6c:	06d11700 	ldrbeq	r1, [r1], r0, lsl #14
    ad70:	23050000 	movwcs	r0, #20480	; 0x5000
    ad74:	00063b01 	andeq	r3, r6, r1, lsl #22
    ad78:	fd170000 	ldc2	0, cr0, [r7, #-0]
    ad7c:	05000003 	streq	r0, [r0, #-3]
    ad80:	00250124 	eoreq	r0, r5, r4, lsr #2
    ad84:	17040000 	strne	r0, [r4, -r0]
    ad88:	00000693 	muleq	r0, r3, r6
    ad8c:	41012505 	tstmi	r1, r5, lsl #10
    ad90:	08000006 	stmdaeq	r0, {r1, r2}
    ad94:	06040d00 	streq	r0, [r4], -r0, lsl #26
    ad98:	0d000006 	stceq	0, cr0, [r0, #-24]	; 0xffffffe8
    ad9c:	0005fa04 	andeq	pc, r5, r4, lsl #20
    ada0:	00c91900 	sbceq	r1, r9, r0, lsl #18
    ada4:	050e0000 	streq	r0, [lr, #-0]
    ada8:	067c013d 			; <UNDEFINED> instruction: 0x067c013d
    adac:	36170000 	ldrcc	r0, [r7], -r0
    adb0:	05000007 	streq	r0, [r0, #-7]
    adb4:	067c013e 			; <UNDEFINED> instruction: 0x067c013e
    adb8:	17000000 	strne	r0, [r0, -r0]
    adbc:	000007d9 	ldrdeq	r0, [r0], -r9
    adc0:	7c013f05 	stcvc	15, cr3, [r1], {5}
    adc4:	06000006 	streq	r0, [r0], -r6
    adc8:	00081817 	andeq	r1, r8, r7, lsl r8
    adcc:	01400500 	cmpeq	r0, r0, lsl #10
    add0:	00000053 	andeq	r0, r0, r3, asr r0
    add4:	5308000c 	movwpl	r0, #32780	; 0x800c
    add8:	8c000000 	stchi	0, cr0, [r0], {-0}
    addc:	09000006 	stmdbeq	r0, {r1, r2}
    ade0:	000000d2 	ldrdeq	r0, [r0], -r2
    ade4:	d01a0002 	andsle	r0, sl, r2
    ade8:	8d025705 	stchi	7, cr5, [r2, #-20]	; 0xffffffec
    adec:	17000007 	strne	r0, [r0, -r7]
    adf0:	0000089d 	muleq	r0, sp, r8
    adf4:	37025905 	strcc	r5, [r2, -r5, lsl #18]
    adf8:	00000000 	andeq	r0, r0, r0
    adfc:	0007df17 	andeq	sp, r7, r7, lsl pc
    ae00:	025a0500 	subseq	r0, sl, #0, 10
    ae04:	00000112 	andeq	r0, r0, r2, lsl r1
    ae08:	04421704 	strbeq	r1, [r2], #-1796	; 0xfffff8fc
    ae0c:	5b050000 	blpl	14ae14 <__bss_end__+0x140e24>
    ae10:	00078d02 	andeq	r8, r7, r2, lsl #26
    ae14:	5e170800 	cdppl	8, 1, cr0, cr7, cr0, {0}
    ae18:	05000009 	streq	r0, [r0, #-9]
    ae1c:	0198025c 	orrseq	r0, r8, ip, asr r2
    ae20:	17240000 	strne	r0, [r4, -r0]!
    ae24:	00000335 	andeq	r0, r0, r5, lsr r3
    ae28:	25025d05 	strcs	r5, [r2, #-3333]	; 0xfffff2fb
    ae2c:	48000000 	stmdami	r0, {}	; <UNPREDICTABLE>
    ae30:	0006cc17 	andeq	ip, r6, r7, lsl ip
    ae34:	025e0500 	subseq	r0, lr, #0, 10
    ae38:	0000006f 	andeq	r0, r0, pc, rrx
    ae3c:	09741750 	ldmdbeq	r4!, {r4, r6, r8, r9, sl, ip}^
    ae40:	5f050000 	svcpl	0x00050000
    ae44:	00064702 	andeq	r4, r6, r2, lsl #14
    ae48:	ed175800 	ldc	8, cr5, [r7, #-0]
    ae4c:	05000006 	streq	r0, [r0, #-6]
    ae50:	00fa0260 	rscseq	r0, sl, r0, ror #4
    ae54:	17680000 	strbne	r0, [r8, -r0]!
    ae58:	00000982 	andeq	r0, r0, r2, lsl #19
    ae5c:	fa026105 	blx	a3278 <__bss_end__+0x99288>
    ae60:	70000000 	andvc	r0, r0, r0
    ae64:	0001ac17 	andeq	sl, r1, r7, lsl ip
    ae68:	02620500 	rsbeq	r0, r2, #0, 10
    ae6c:	000000fa 	strdeq	r0, [r0], -sl
    ae70:	08eb1778 	stmiaeq	fp!, {r3, r4, r5, r6, r8, r9, sl, ip}^
    ae74:	63050000 	movwvs	r0, #20480	; 0x5000
    ae78:	00079d02 	andeq	r9, r7, r2, lsl #26
    ae7c:	36178000 	ldrcc	r8, [r7], -r0
    ae80:	05000004 	streq	r0, [r0, #-4]
    ae84:	07ad0264 	streq	r0, [sp, r4, ror #4]!
    ae88:	17880000 	strne	r0, [r8, r0]
    ae8c:	0000082e 	andeq	r0, r0, lr, lsr #16
    ae90:	25026505 	strcs	r6, [r2, #-1285]	; 0xfffffafb
    ae94:	a0000000 	andge	r0, r0, r0
    ae98:	0002da17 	andeq	sp, r2, r7, lsl sl
    ae9c:	02660500 	rsbeq	r0, r6, #0, 10
    aea0:	000000fa 	strdeq	r0, [r0], -sl
    aea4:	018817a4 	orreq	r1, r8, r4, lsr #15
    aea8:	67050000 	strvs	r0, [r5, -r0]
    aeac:	0000fa02 	andeq	pc, r0, r2, lsl #20
    aeb0:	c017ac00 	andsgt	sl, r7, r0, lsl #24
    aeb4:	05000002 	streq	r0, [r0, #-2]
    aeb8:	00fa0268 	rscseq	r0, sl, r8, ror #4
    aebc:	17b40000 	ldrne	r0, [r4, r0]!
    aec0:	00000120 	andeq	r0, r0, r0, lsr #2
    aec4:	fa026905 	blx	a52e0 <__bss_end__+0x9b2f0>
    aec8:	bc000000 	stclt	0, cr0, [r0], {-0}
    aecc:	00012f17 	andeq	r2, r1, r7, lsl pc
    aed0:	026a0500 	rsbeq	r0, sl, #0, 10
    aed4:	000000fa 	strdeq	r0, [r0], -sl
    aed8:	066217c4 	strbteq	r1, [r2], -r4, asr #15
    aedc:	6b050000 	blvs	14aee4 <__bss_end__+0x140ef4>
    aee0:	00002502 	andeq	r2, r0, r2, lsl #10
    aee4:	0800cc00 	stmdaeq	r0, {sl, fp, lr, pc}
    aee8:	00000118 	andeq	r0, r0, r8, lsl r1
    aeec:	0000079d 	muleq	r0, sp, r7
    aef0:	0000d209 	andeq	sp, r0, r9, lsl #4
    aef4:	08001900 	stmdaeq	r0, {r8, fp, ip}
    aef8:	00000118 	andeq	r0, r0, r8, lsl r1
    aefc:	000007ad 	andeq	r0, r0, sp, lsr #15
    af00:	0000d209 	andeq	sp, r0, r9, lsl #4
    af04:	08000700 	stmdaeq	r0, {r8, r9, sl}
    af08:	00000118 	andeq	r0, r0, r8, lsl r1
    af0c:	000007bd 			; <UNDEFINED> instruction: 0x000007bd
    af10:	0000d209 	andeq	sp, r0, r9, lsl #4
    af14:	1a001700 	bne	10b1c <__bss_end__+0x6b2c>
    af18:	027005f0 	rsbseq	r0, r0, #240, 10	; 0x3c000000
    af1c:	000007e1 	andeq	r0, r0, r1, ror #15
    af20:	00055217 	andeq	r5, r5, r7, lsl r2
    af24:	02730500 	rsbseq	r0, r3, #0, 10
    af28:	000007e1 	andeq	r0, r0, r1, ror #15
    af2c:	04f91700 	ldrbteq	r1, [r9], #1792	; 0x700
    af30:	74050000 	strvc	r0, [r5], #-0
    af34:	0007f102 	andeq	pc, r7, r2, lsl #2
    af38:	08007800 	stmdaeq	r0, {fp, ip, sp, lr}
    af3c:	000002e1 	andeq	r0, r0, r1, ror #5
    af40:	000007f1 	strdeq	r0, [r0], -r1
    af44:	0000d209 	andeq	sp, r0, r9, lsl #4
    af48:	08001d00 	stmdaeq	r0, {r8, sl, fp, ip}
    af4c:	00000037 	andeq	r0, r0, r7, lsr r0
    af50:	00000801 	andeq	r0, r0, r1, lsl #16
    af54:	0000d209 	andeq	sp, r0, r9, lsl #4
    af58:	1b001d00 	blne	12360 <__bss_end__+0x8370>
    af5c:	025505f0 	subseq	r0, r5, #240, 10	; 0x3c000000
    af60:	00000823 	andeq	r0, r0, r3, lsr #16
    af64:	0007261c 	andeq	r2, r7, ip, lsl r6
    af68:	026c0500 	rsbeq	r0, ip, #0, 10
    af6c:	0000068c 	andeq	r0, r0, ip, lsl #13
    af70:	00092a1c 	andeq	r2, r9, ip, lsl sl
    af74:	02750500 	rsbseq	r0, r5, #0, 10
    af78:	000007bd 			; <UNDEFINED> instruction: 0x000007bd
    af7c:	01180800 	tsteq	r8, r0, lsl #16
    af80:	08330000 	ldmdaeq	r3!, {}	; <UNPREDICTABLE>
    af84:	d2090000 	andle	r0, r9, #0
    af88:	18000000 	stmdane	r0, {}	; <UNPREDICTABLE>
    af8c:	083e1d00 	ldmdaeq	lr!, {r8, sl, fp, ip}
    af90:	2f150000 	svccs	0x00150000
    af94:	00000004 	andeq	r0, r0, r4
    af98:	0833040d 	ldmdaeq	r3!, {r0, r2, r3, sl}
    af9c:	040d0000 	streq	r0, [sp], #-0
    afa0:	00000182 	andeq	r0, r0, r2, lsl #3
    afa4:	0008551d 	andeq	r5, r8, sp, lsl r5
    afa8:	00251500 	eoreq	r1, r5, r0, lsl #10
    afac:	0d000000 	stceq	0, cr0, [r0, #-0]
    afb0:	00085b04 	andeq	r5, r8, r4, lsl #22
    afb4:	4a040d00 	bmi	10e3bc <__bss_end__+0x1043cc>
    afb8:	08000008 	stmdaeq	r0, {r3}
    afbc:	000005fa 	strdeq	r0, [r0], -sl
    afc0:	00000871 	andeq	r0, r0, r1, ror r8
    afc4:	0000d209 	andeq	sp, r0, r9, lsl #4
    afc8:	1e000200 	cdpne	2, 0, cr0, cr0, cr0, {0}
    afcc:	00000863 	andeq	r0, r0, r3, ror #16
    afd0:	2f02fd05 	svccs	0x0002fd05
    afd4:	1e000004 	cdpne	0, 0, cr0, cr0, cr4, {0}
    afd8:	0000085c 	andeq	r0, r0, ip, asr r8
    afdc:	3502fe05 	strcc	pc, [r2, #-3589]	; 0xfffff1fb
    afe0:	1f000004 	svcne	0x00000004
    afe4:	00001172 	andeq	r1, r0, r2, ror r1
    afe8:	01101906 	tsteq	r0, r6, lsl #18
    afec:	96640000 	strbtls	r0, [r4], -r0
    aff0:	00200000 	eoreq	r0, r0, r0
    aff4:	9c010000 	stcls	0, cr0, [r1], {-0}
    aff8:	00705f20 	rsbseq	r5, r0, r0, lsr #30
    affc:	01100301 	tsteq	r0, r1, lsl #6
    b000:	50010000 	andpl	r0, r1, r0
    b004:	01006320 	tsteq	r0, r0, lsr #6
    b008:	00002503 	andeq	r2, r0, r3, lsl #10
    b00c:	21510100 	cmpcs	r1, r0, lsl #2
    b010:	0301006e 	movweq	r0, #4206	; 0x106e
    b014:	0000002c 	andeq	r0, r0, ip, lsr #32
    b018:	0000128e 	andeq	r1, r0, lr, lsl #5
    b01c:	01007022 	tsteq	r0, r2, lsr #32
    b020:	00011204 	andeq	r1, r1, r4, lsl #4
    b024:	0012af00 	andseq	sl, r2, r0, lsl #30
    b028:	00652300 	rsbeq	r2, r5, r0, lsl #6
    b02c:	01120401 	tsteq	r2, r1, lsl #8
    b030:	52010000 	andpl	r0, r1, #0
	...

Disassembly of section .debug_abbrev:

00000000 <.debug_abbrev>:
       0:	25011101 	strcs	r1, [r1, #-257]	; 0xfffffeff
       4:	030b130e 	movweq	r1, #45838	; 0xb30e
       8:	110e1b0e 	tstne	lr, lr, lsl #22
       c:	10061201 	andne	r1, r6, r1, lsl #4
      10:	02000017 	andeq	r0, r0, #23
      14:	0b0b0024 	bleq	2c00ac <__bss_end__+0x2b60bc>
      18:	08030b3e 	stmdaeq	r3, {r1, r2, r3, r4, r5, r8, r9, fp}
      1c:	16030000 	strne	r0, [r3], -r0
      20:	3a0e0300 	bcc	380c28 <__bss_end__+0x376c38>
      24:	490b3b0b 	stmdbmi	fp, {r0, r1, r3, r8, r9, fp, ip, sp}
      28:	04000013 	streq	r0, [r0], #-19	; 0xffffffed
      2c:	0b0b0024 	bleq	2c00c4 <__bss_end__+0x2b60d4>
      30:	0e030b3e 	vmoveq.16	d3[0], r0
      34:	16050000 	strne	r0, [r5], -r0
      38:	3a0e0300 	bcc	380c40 <__bss_end__+0x376c50>
      3c:	49053b0b 	stmdbmi	r5, {r0, r1, r3, r8, r9, fp, ip, sp}
      40:	06000013 			; <UNDEFINED> instruction: 0x06000013
      44:	0b0b0117 	bleq	2c04a8 <__bss_end__+0x2b64b8>
      48:	0b3b0b3a 	bleq	ec2d38 <__bss_end__+0xeb8d48>
      4c:	00001301 	andeq	r1, r0, r1, lsl #6
      50:	03000d07 	movweq	r0, #3335	; 0xd07
      54:	3b0b3a0e 	blcc	2ce894 <__bss_end__+0x2c48a4>
      58:	0013490b 	andseq	r4, r3, fp, lsl #18
      5c:	01010800 	tsteq	r1, r0, lsl #16
      60:	13011349 	movwne	r1, #4937	; 0x1349
      64:	21090000 	mrscs	r0, (UNDEF: 9)
      68:	2f134900 	svccs	0x00134900
      6c:	0a00000b 	beq	a0 <_start-0x7f60>
      70:	0b0b0113 	bleq	2c04c4 <__bss_end__+0x2b64d4>
      74:	0b3b0b3a 	bleq	ec2d64 <__bss_end__+0xeb8d74>
      78:	00001301 	andeq	r1, r0, r1, lsl #6
      7c:	03000d0b 	movweq	r0, #3339	; 0xd0b
      80:	3b0b3a0e 	blcc	2ce8c0 <__bss_end__+0x2c48d0>
      84:	3813490b 	ldmdacc	r3, {r0, r1, r3, r8, fp, lr}
      88:	0c00000b 	stceq	0, cr0, [r0], {11}
      8c:	0b0b000f 	bleq	2c00d0 <__bss_end__+0x2b60e0>
      90:	0f0d0000 	svceq	0x000d0000
      94:	490b0b00 	stmdbmi	fp, {r8, r9, fp}
      98:	0e000013 	mcreq	0, 0, r0, cr0, cr3, {0}
      9c:	13490026 	movtne	r0, #36902	; 0x9026
      a0:	130f0000 	movwne	r0, #61440	; 0xf000
      a4:	0b0e0301 	bleq	380cb0 <__bss_end__+0x376cc0>
      a8:	3b0b3a0b 	blcc	2ce8dc <__bss_end__+0x2c48ec>
      ac:	0013010b 	andseq	r0, r3, fp, lsl #2
      b0:	000d1000 	andeq	r1, sp, r0
      b4:	0b3a0803 	bleq	e820c8 <__bss_end__+0xe780d8>
      b8:	13490b3b 	movtne	r0, #39739	; 0x9b3b
      bc:	00000b38 	andeq	r0, r0, r8, lsr fp
      c0:	03011311 	movweq	r1, #4881	; 0x1311
      c4:	3a050b0e 	bcc	142d04 <__bss_end__+0x138d14>
      c8:	010b3b0b 	tsteq	fp, fp, lsl #22
      cc:	12000013 	andne	r0, r0, #19
      d0:	0e03000d 	cdpeq	0, 0, cr0, cr3, cr13, {0}
      d4:	0b3b0b3a 	bleq	ec2dc4 <__bss_end__+0xeb8dd4>
      d8:	05381349 	ldreq	r1, [r8, #-841]!	; 0xfffffcb7
      dc:	15130000 	ldrne	r0, [r3, #-0]
      e0:	00192700 	andseq	r2, r9, r0, lsl #14
      e4:	01151400 	tsteq	r5, r0, lsl #8
      e8:	13491927 	movtne	r1, #39207	; 0x9927
      ec:	00001301 	andeq	r1, r0, r1, lsl #6
      f0:	49000515 	stmdbmi	r0, {r0, r2, r4, r8, sl}
      f4:	16000013 			; <UNDEFINED> instruction: 0x16000013
      f8:	0e030113 	mcreq	1, 0, r0, cr3, cr3, {0}
      fc:	0b3a050b 	bleq	e81530 <__bss_end__+0xe77540>
     100:	1301053b 	movwne	r0, #5435	; 0x153b
     104:	0d170000 	ldceq	0, cr0, [r7, #-0]
     108:	3a0e0300 	bcc	380d10 <__bss_end__+0x376d20>
     10c:	49053b0b 	stmdbmi	r5, {r0, r1, r3, r8, r9, fp, ip, sp}
     110:	000b3813 	andeq	r3, fp, r3, lsl r8
     114:	000d1800 	andeq	r1, sp, r0, lsl #16
     118:	0b3a0e03 	bleq	e8392c <__bss_end__+0xe7993c>
     11c:	1349053b 	movtne	r0, #38203	; 0x953b
     120:	00000538 	andeq	r0, r0, r8, lsr r5
     124:	03011319 	movweq	r1, #4889	; 0x1319
     128:	3a0b0b0e 	bcc	2c2d68 <__bss_end__+0x2b8d78>
     12c:	01053b0b 	tsteq	r5, fp, lsl #22
     130:	1a000013 	bne	184 <_start-0x7e7c>
     134:	0b0b0113 	bleq	2c0588 <__bss_end__+0x2b6598>
     138:	053b0b3a 	ldreq	r0, [fp, #-2874]!	; 0xfffff4c6
     13c:	00001301 	andeq	r1, r0, r1, lsl #6
     140:	0b01171b 	bleq	45db4 <__bss_end__+0x3bdc4>
     144:	3b0b3a0b 	blcc	2ce978 <__bss_end__+0x2c4988>
     148:	00130105 	andseq	r0, r3, r5, lsl #2
     14c:	000d1c00 	andeq	r1, sp, r0, lsl #24
     150:	0b3a0e03 	bleq	e83964 <__bss_end__+0xe79974>
     154:	1349053b 	movtne	r0, #38203	; 0x953b
     158:	151d0000 	ldrne	r0, [sp, #-0]
     15c:	01192701 	tsteq	r9, r1, lsl #14
     160:	1e000013 	mcrne	0, 0, r0, cr0, cr3, {0}
     164:	0e030034 	mcreq	0, 0, r0, cr3, cr4, {1}
     168:	053b0b3a 	ldreq	r0, [fp, #-2874]!	; 0xfffff4c6
     16c:	193f1349 	ldmdbne	pc!, {r0, r3, r6, r8, r9, ip}	; <UNPREDICTABLE>
     170:	0000193c 	andeq	r1, r0, ip, lsr r9
     174:	0300341f 	movweq	r3, #1055	; 0x41f
     178:	3b0b3a0e 	blcc	2ce9b8 <__bss_end__+0x2c49c8>
     17c:	3f13490b 	svccc	0x0013490b
     180:	00193c19 	andseq	r3, r9, r9, lsl ip
     184:	01042000 	mrseq	r2, (UNDEF: 4)
     188:	13490b0b 	movtne	r0, #39691	; 0x9b0b
     18c:	0b3b0b3a 	bleq	ec2e7c <__bss_end__+0xeb8e8c>
     190:	00001301 	andeq	r1, r0, r1, lsl #6
     194:	03002821 	movweq	r2, #2081	; 0x821
     198:	000b1c0e 	andeq	r1, fp, lr, lsl #24
     19c:	00282200 	eoreq	r2, r8, r0, lsl #4
     1a0:	061c0e03 	ldreq	r0, [ip], -r3, lsl #28
     1a4:	04230000 	strteq	r0, [r3], #-0
     1a8:	0b0e0301 	bleq	380db4 <__bss_end__+0x376dc4>
     1ac:	3a13490b 	bcc	4d25e0 <__bss_end__+0x4c85f0>
     1b0:	010b3b0b 	tsteq	fp, fp, lsl #22
     1b4:	24000013 	strcs	r0, [r0], #-19	; 0xffffffed
     1b8:	193f012e 	ldmdbne	pc!, {r1, r2, r3, r5, r8}	; <UNPREDICTABLE>
     1bc:	0b3a0e03 	bleq	e839d0 <__bss_end__+0xe799e0>
     1c0:	19270b3b 	stmdbne	r7!, {r0, r1, r3, r4, r5, r8, r9, fp}
     1c4:	06120111 			; <UNDEFINED> instruction: 0x06120111
     1c8:	42971840 	addsmi	r1, r7, #64, 16	; 0x400000
     1cc:	00130119 	andseq	r0, r3, r9, lsl r1
     1d0:	00342500 	eorseq	r2, r4, r0, lsl #10
     1d4:	0b3a0e03 	bleq	e839e8 <__bss_end__+0xe799f8>
     1d8:	13490b3b 	movtne	r0, #39739	; 0x9b3b
     1dc:	00000b1c 	andeq	r0, r0, ip, lsl fp
     1e0:	03003426 	movweq	r3, #1062	; 0x426
     1e4:	3b0b3a08 	blcc	2cea0c <__bss_end__+0x2c4a1c>
     1e8:	0213490b 	andseq	r4, r3, #180224	; 0x2c000
     1ec:	27000017 	smladcs	r0, r7, r0, r0
     1f0:	0e030034 	mcreq	0, 0, r0, cr3, cr4, {1}
     1f4:	19341349 	ldmdbne	r4!, {r0, r3, r6, r8, r9, ip}
     1f8:	00001802 	andeq	r1, r0, r2, lsl #16
     1fc:	01828928 	orreq	r8, r2, r8, lsr #18
     200:	31011100 	mrscc	r1, (UNDEF: 17)
     204:	29000013 	stmdbcs	r0, {r0, r1, r4}
     208:	01018289 	smlabbeq	r1, r9, r2, r8
     20c:	13310111 	teqne	r1, #1073741828	; 0x40000004
     210:	00001301 	andeq	r1, r0, r1, lsl #6
     214:	01828a2a 	orreq	r8, r2, sl, lsr #20
     218:	91180200 	tstls	r8, r0, lsl #4
     21c:	00001842 	andeq	r1, r0, r2, asr #16
     220:	0300342b 	movweq	r3, #1067	; 0x42b
     224:	3b0b3a08 	blcc	2cea4c <__bss_end__+0x2c4a5c>
     228:	0213490b 	andseq	r4, r3, #180224	; 0x2c000
     22c:	2c000018 	stccs	0, cr0, [r0], {24}
     230:	08030034 	stmdaeq	r3, {r2, r4, r5}
     234:	0b3b0b3a 	bleq	ec2f24 <__bss_end__+0xeb8f34>
     238:	00001349 	andeq	r1, r0, r9, asr #6
     23c:	11010b2d 	tstne	r1, sp, lsr #22
     240:	01061201 	tsteq	r6, r1, lsl #4
     244:	2e000013 	mcrcs	0, 0, r0, cr0, cr3, {0}
     248:	0111010b 	tsteq	r1, fp, lsl #2
     24c:	00000612 	andeq	r0, r0, r2, lsl r6
     250:	0182892f 	orreq	r8, r2, pc, lsr #18
     254:	31011101 	tstcc	r1, r1, lsl #2
     258:	30000013 	andcc	r0, r0, r3, lsl r0
     25c:	193f012e 	ldmdbne	pc!, {r1, r2, r3, r5, r8}	; <UNPREDICTABLE>
     260:	0b3a0e03 	bleq	e83a74 <__bss_end__+0xe79a84>
     264:	19270b3b 	stmdbne	r7!, {r0, r1, r3, r4, r5, r8, r9, fp}
     268:	01111349 	tsteq	r1, r9, asr #6
     26c:	18400612 	stmdane	r0, {r1, r4, r9, sl}^
     270:	01194297 			; <UNDEFINED> instruction: 0x01194297
     274:	31000013 	tstcc	r0, r3, lsl r0
     278:	0e030005 	cdpeq	0, 0, cr0, cr3, cr5, {0}
     27c:	0b3b0b3a 	bleq	ec2f6c <__bss_end__+0xeb8f7c>
     280:	17021349 	strne	r1, [r2, -r9, asr #6]
     284:	05320000 	ldreq	r0, [r2, #-0]!
     288:	3a080300 	bcc	200e90 <__bss_end__+0x1f6ea0>
     28c:	490b3b0b 	stmdbmi	fp, {r0, r1, r3, r8, r9, fp, ip, sp}
     290:	00170213 	andseq	r0, r7, r3, lsl r2
     294:	00343300 	eorseq	r3, r4, r0, lsl #6
     298:	0b3a0e03 	bleq	e83aac <__bss_end__+0xe79abc>
     29c:	13490b3b 	movtne	r0, #39739	; 0x9b3b
     2a0:	00001702 	andeq	r1, r0, r2, lsl #14
     2a4:	31011d34 	tstcc	r1, r4, lsr sp
     2a8:	55015213 	strpl	r5, [r1, #-531]	; 0xfffffded
     2ac:	590b5817 	stmdbpl	fp, {r0, r1, r2, r4, fp, ip, lr}
     2b0:	0013010b 	andseq	r0, r3, fp, lsl #2
     2b4:	00053500 	andeq	r3, r5, r0, lsl #10
     2b8:	17021331 	smladxne	r2, r1, r3, r1
     2bc:	05360000 	ldreq	r0, [r6, #-0]!
     2c0:	3a080300 	bcc	200ec8 <__bss_end__+0x1f6ed8>
     2c4:	490b3b0b 	stmdbmi	fp, {r0, r1, r3, r8, r9, fp, ip, sp}
     2c8:	00180213 	andseq	r0, r8, r3, lsl r2
     2cc:	012e3700 			; <UNDEFINED> instruction: 0x012e3700
     2d0:	0b3a0e03 	bleq	e83ae4 <__bss_end__+0xe79af4>
     2d4:	19270b3b 	stmdbne	r7!, {r0, r1, r3, r4, r5, r8, r9, fp}
     2d8:	01111349 	tsteq	r1, r9, asr #6
     2dc:	18400612 	stmdane	r0, {r1, r4, r9, sl}^
     2e0:	01194297 			; <UNDEFINED> instruction: 0x01194297
     2e4:	38000013 	stmdacc	r0, {r0, r1, r4}
     2e8:	0e03012e 	adfeqsp	f0, f3, #0.5
     2ec:	0b3b0b3a 	bleq	ec2fdc <__bss_end__+0xeb8fec>
     2f0:	01111927 	tsteq	r1, r7, lsr #18
     2f4:	18400612 	stmdane	r0, {r1, r4, r9, sl}^
     2f8:	01194297 			; <UNDEFINED> instruction: 0x01194297
     2fc:	39000013 	stmdbcc	r0, {r0, r1, r4}
     300:	0e030034 	mcreq	0, 0, r0, cr3, cr4, {1}
     304:	0b3b0b3a 	bleq	ec2ff4 <__bss_end__+0xeb9004>
     308:	18021349 	stmdane	r2, {r0, r3, r6, r8, r9, ip}
     30c:	2e3a0000 	cdpcs	0, 3, cr0, cr10, cr0, {0}
     310:	3a0e0301 	bcc	380f1c <__bss_end__+0x376f2c>
     314:	270b3b0b 	strcs	r3, [fp, -fp, lsl #22]
     318:	20134919 	andscs	r4, r3, r9, lsl r9
     31c:	0013010b 	andseq	r0, r3, fp, lsl #2
     320:	00053b00 	andeq	r3, r5, r0, lsl #22
     324:	0b3a0803 	bleq	e82338 <__bss_end__+0xe78348>
     328:	13490b3b 	movtne	r0, #39739	; 0x9b3b
     32c:	2e3c0000 	cdpcs	0, 3, cr0, cr12, cr0, {0}
     330:	3c193f00 	ldccc	15, cr3, [r9], {-0}
     334:	030e6e19 	movweq	r6, #60953	; 0xee19
     338:	3b0b3a0e 	blcc	2ceb78 <__bss_end__+0x2c4b88>
     33c:	0000000b 	andeq	r0, r0, fp
     340:	25011101 	strcs	r1, [r1, #-257]	; 0xfffffeff
     344:	030b130e 	movweq	r1, #45838	; 0xb30e
     348:	110e1b0e 	tstne	lr, lr, lsl #22
     34c:	10061201 	andne	r1, r6, r1, lsl #4
     350:	02000017 	andeq	r0, r0, #23
     354:	0b0b0024 	bleq	2c03ec <__bss_end__+0x2b63fc>
     358:	08030b3e 	stmdaeq	r3, {r1, r2, r3, r4, r5, r8, r9, fp}
     35c:	24030000 	strcs	r0, [r3], #-0
     360:	3e0b0b00 	vmlacc.f64	d0, d11, d0
     364:	000e030b 	andeq	r0, lr, fp, lsl #6
     368:	00260400 	eoreq	r0, r6, r0, lsl #8
     36c:	00001349 	andeq	r1, r0, r9, asr #6
     370:	03001605 	movweq	r1, #1541	; 0x605
     374:	3b0b3a0e 	blcc	2cebb4 <__bss_end__+0x2c4bc4>
     378:	0013490b 	andseq	r4, r3, fp, lsl #18
     37c:	00160600 	andseq	r0, r6, r0, lsl #12
     380:	0b3a0e03 	bleq	e83b94 <__bss_end__+0xe79ba4>
     384:	1349053b 	movtne	r0, #38203	; 0x953b
     388:	17070000 	strne	r0, [r7, -r0]
     38c:	3a0b0b01 	bcc	2c2f98 <__bss_end__+0x2b8fa8>
     390:	010b3b0b 	tsteq	fp, fp, lsl #22
     394:	08000013 	stmdaeq	r0, {r0, r1, r4}
     398:	0e03000d 	cdpeq	0, 0, cr0, cr3, cr13, {0}
     39c:	0b3b0b3a 	bleq	ec308c <__bss_end__+0xeb909c>
     3a0:	00001349 	andeq	r1, r0, r9, asr #6
     3a4:	49010109 	stmdbmi	r1, {r0, r3, r8}
     3a8:	00130113 	andseq	r0, r3, r3, lsl r1
     3ac:	00210a00 	eoreq	r0, r1, r0, lsl #20
     3b0:	0b2f1349 	bleq	bc50dc <__bss_end__+0xbbb0ec>
     3b4:	130b0000 	movwne	r0, #45056	; 0xb000
     3b8:	3a0b0b01 	bcc	2c2fc4 <__bss_end__+0x2b8fd4>
     3bc:	010b3b0b 	tsteq	fp, fp, lsl #22
     3c0:	0c000013 	stceq	0, cr0, [r0], {19}
     3c4:	0e03000d 	cdpeq	0, 0, cr0, cr3, cr13, {0}
     3c8:	0b3b0b3a 	bleq	ec30b8 <__bss_end__+0xeb90c8>
     3cc:	0b381349 	bleq	e050f8 <__bss_end__+0xdfb108>
     3d0:	0f0d0000 	svceq	0x000d0000
     3d4:	000b0b00 	andeq	r0, fp, r0, lsl #22
     3d8:	000f0e00 	andeq	r0, pc, r0, lsl #28
     3dc:	13490b0b 	movtne	r0, #39691	; 0x9b0b
     3e0:	130f0000 	movwne	r0, #61440	; 0xf000
     3e4:	0b0e0301 	bleq	380ff0 <__bss_end__+0x377000>
     3e8:	3b0b3a0b 	blcc	2cec1c <__bss_end__+0x2c4c2c>
     3ec:	0013010b 	andseq	r0, r3, fp, lsl #2
     3f0:	000d1000 	andeq	r1, sp, r0
     3f4:	0b3a0803 	bleq	e82408 <__bss_end__+0xe78418>
     3f8:	13490b3b 	movtne	r0, #39739	; 0x9b3b
     3fc:	00000b38 	andeq	r0, r0, r8, lsr fp
     400:	03011311 	movweq	r1, #4881	; 0x1311
     404:	3a050b0e 	bcc	143044 <__bss_end__+0x139054>
     408:	010b3b0b 	tsteq	fp, fp, lsl #22
     40c:	12000013 	andne	r0, r0, #19
     410:	0e03000d 	cdpeq	0, 0, cr0, cr3, cr13, {0}
     414:	0b3b0b3a 	bleq	ec3104 <__bss_end__+0xeb9114>
     418:	05381349 	ldreq	r1, [r8, #-841]!	; 0xfffffcb7
     41c:	15130000 	ldrne	r0, [r3, #-0]
     420:	00192700 	andseq	r2, r9, r0, lsl #14
     424:	01151400 	tsteq	r5, r0, lsl #8
     428:	13491927 	movtne	r1, #39207	; 0x9927
     42c:	00001301 	andeq	r1, r0, r1, lsl #6
     430:	49000515 	stmdbmi	r0, {r0, r2, r4, r8, sl}
     434:	16000013 			; <UNDEFINED> instruction: 0x16000013
     438:	0e030113 	mcreq	1, 0, r0, cr3, cr3, {0}
     43c:	0b3a050b 	bleq	e81870 <__bss_end__+0xe77880>
     440:	1301053b 	movwne	r0, #5435	; 0x153b
     444:	0d170000 	ldceq	0, cr0, [r7, #-0]
     448:	3a0e0300 	bcc	381050 <__bss_end__+0x377060>
     44c:	49053b0b 	stmdbmi	r5, {r0, r1, r3, r8, r9, fp, ip, sp}
     450:	000b3813 	andeq	r3, fp, r3, lsl r8
     454:	000d1800 	andeq	r1, sp, r0, lsl #16
     458:	0b3a0e03 	bleq	e83c6c <__bss_end__+0xe79c7c>
     45c:	1349053b 	movtne	r0, #38203	; 0x953b
     460:	00000538 	andeq	r0, r0, r8, lsr r5
     464:	03011319 	movweq	r1, #4889	; 0x1319
     468:	3a0b0b0e 	bcc	2c30a8 <__bss_end__+0x2b90b8>
     46c:	01053b0b 	tsteq	r5, fp, lsl #22
     470:	1a000013 	bne	4c4 <_start-0x7b3c>
     474:	0b0b0113 	bleq	2c08c8 <__bss_end__+0x2b68d8>
     478:	053b0b3a 	ldreq	r0, [fp, #-2874]!	; 0xfffff4c6
     47c:	00001301 	andeq	r1, r0, r1, lsl #6
     480:	0b01171b 	bleq	460f4 <__bss_end__+0x3c104>
     484:	3b0b3a0b 	blcc	2cecb8 <__bss_end__+0x2c4cc8>
     488:	00130105 	andseq	r0, r3, r5, lsl #2
     48c:	000d1c00 	andeq	r1, sp, r0, lsl #24
     490:	0b3a0e03 	bleq	e83ca4 <__bss_end__+0xe79cb4>
     494:	1349053b 	movtne	r0, #38203	; 0x953b
     498:	151d0000 	ldrne	r0, [sp, #-0]
     49c:	01192701 	tsteq	r9, r1, lsl #14
     4a0:	1e000013 	mcrne	0, 0, r0, cr0, cr3, {0}
     4a4:	0e030034 	mcreq	0, 0, r0, cr3, cr4, {1}
     4a8:	053b0b3a 	ldreq	r0, [fp, #-2874]!	; 0xfffff4c6
     4ac:	193f1349 	ldmdbne	pc!, {r0, r3, r6, r8, r9, ip}	; <UNPREDICTABLE>
     4b0:	0000193c 	andeq	r1, r0, ip, lsr r9
     4b4:	0300341f 	movweq	r3, #1055	; 0x41f
     4b8:	3b0b3a0e 	blcc	2cecf8 <__bss_end__+0x2c4d08>
     4bc:	3f13490b 	svccc	0x0013490b
     4c0:	00193c19 	andseq	r3, r9, r9, lsl ip
     4c4:	01042000 	mrseq	r2, (UNDEF: 4)
     4c8:	13490b0b 	movtne	r0, #39691	; 0x9b0b
     4cc:	0b3b0b3a 	bleq	ec31bc <__bss_end__+0xeb91cc>
     4d0:	00001301 	andeq	r1, r0, r1, lsl #6
     4d4:	03002821 	movweq	r2, #2081	; 0x821
     4d8:	000b1c0e 	andeq	r1, fp, lr, lsl #24
     4dc:	000d2200 	andeq	r2, sp, r0, lsl #4
     4e0:	0b3a0e03 	bleq	e83cf4 <__bss_end__+0xe79d04>
     4e4:	13490b3b 	movtne	r0, #39739	; 0x9b3b
     4e8:	0b0d0b0b 	bleq	34311c <__bss_end__+0x33912c>
     4ec:	0b380b0c 	bleq	e03124 <__bss_end__+0xdf9134>
     4f0:	0d230000 	stceq	0, cr0, [r3, #-0]
     4f4:	3a080300 	bcc	2010fc <__bss_end__+0x1f710c>
     4f8:	490b3b0b 	stmdbmi	fp, {r0, r1, r3, r8, r9, fp, ip, sp}
     4fc:	0d0b0b13 	vstreq	d0, [fp, #-76]	; 0xffffffb4
     500:	380b0c0b 	stmdacc	fp, {r0, r1, r3, sl, fp}
     504:	2400000b 	strcs	r0, [r0], #-11
     508:	13490035 	movtne	r0, #36917	; 0x9035
     50c:	34250000 	strtcc	r0, [r5], #-0
     510:	3a080300 	bcc	201118 <__bss_end__+0x1f7128>
     514:	490b3b0b 	stmdbmi	fp, {r0, r1, r3, r8, r9, fp, ip, sp}
     518:	26000013 			; <UNDEFINED> instruction: 0x26000013
     51c:	0e030034 	mcreq	0, 0, r0, cr3, cr4, {1}
     520:	053b0b3a 	ldreq	r0, [fp, #-2874]!	; 0xfffff4c6
     524:	18021349 	stmdane	r2, {r0, r3, r6, r8, r9, ip}
     528:	2e270000 	cdpcs	0, 2, cr0, cr7, cr0, {0}
     52c:	3a0e0301 	bcc	381138 <__bss_end__+0x377148>
     530:	27053b0b 	strcs	r3, [r5, -fp, lsl #22]
     534:	12011119 	andne	r1, r1, #1073741830	; 0x40000006
     538:	97184006 	ldrls	r4, [r8, -r6]
     53c:	13011942 	movwne	r1, #6466	; 0x1942
     540:	34280000 	strtcc	r0, [r8], #-0
     544:	490e0300 	stmdbmi	lr, {r8, r9}
     548:	02193413 	andseq	r3, r9, #318767104	; 0x13000000
     54c:	29000018 	stmdbcs	r0, {r3, r4}
     550:	1301010b 	movwne	r0, #4363	; 0x110b
     554:	172a0000 	strne	r0, [sl, -r0]!
     558:	0b080301 	bleq	201164 <__bss_end__+0x1f7174>
     55c:	3b0b3a0b 	blcc	2ced90 <__bss_end__+0x2c4da0>
     560:	00130105 	andseq	r0, r3, r5, lsl #2
     564:	000d2b00 	andeq	r2, sp, r0, lsl #22
     568:	0b3a0803 	bleq	e8257c <__bss_end__+0xe7858c>
     56c:	1349053b 	movtne	r0, #38203	; 0x953b
     570:	342c0000 	strtcc	r0, [ip], #-0
     574:	3a080300 	bcc	20117c <__bss_end__+0x1f718c>
     578:	49053b0b 	stmdbmi	r5, {r0, r1, r3, r8, r9, fp, ip, sp}
     57c:	2d000013 	stccs	0, cr0, [r0, #-76]	; 0xffffffb4
     580:	0e030034 	mcreq	0, 0, r0, cr3, cr4, {1}
     584:	053b0b3a 	ldreq	r0, [fp, #-2874]!	; 0xfffff4c6
     588:	00001349 	andeq	r1, r0, r9, asr #6
     58c:	11010b2e 	tstne	r1, lr, lsr #22
     590:	00061201 	andeq	r1, r6, r1, lsl #4
     594:	00342f00 	eorseq	r2, r4, r0, lsl #30
     598:	0b3a0803 	bleq	e825ac <__bss_end__+0xe785bc>
     59c:	1349053b 	movtne	r0, #38203	; 0x953b
     5a0:	0000051c 	andeq	r0, r0, ip, lsl r5
     5a4:	3f012e30 	svccc	0x00012e30
     5a8:	3a0e0319 	bcc	381214 <__bss_end__+0x377224>
     5ac:	27053b0b 	strcs	r3, [r5, -fp, lsl #22]
     5b0:	12011119 	andne	r1, r1, #1073741830	; 0x40000006
     5b4:	97184006 	ldrls	r4, [r8, -r6]
     5b8:	13011942 	movwne	r1, #6466	; 0x1942
     5bc:	34310000 	ldrtcc	r0, [r1], #-0
     5c0:	3a080300 	bcc	2011c8 <__bss_end__+0x1f71d8>
     5c4:	49053b0b 	stmdbmi	r5, {r0, r1, r3, r8, r9, fp, ip, sp}
     5c8:	000b1c13 	andeq	r1, fp, r3, lsl ip
     5cc:	82893200 	addhi	r3, r9, #0, 4
     5d0:	01110001 	tsteq	r1, r1
     5d4:	00001331 	andeq	r1, r0, r1, lsr r3
     5d8:	01828933 	orreq	r8, r2, r3, lsr r9
     5dc:	31011101 	tstcc	r1, r1, lsl #2
     5e0:	00130113 	andseq	r0, r3, r3, lsl r1
     5e4:	828a3400 	addhi	r3, sl, #0, 8
     5e8:	18020001 	stmdane	r2, {r0}
     5ec:	00184291 	mulseq	r8, r1, r2
     5f0:	002e3500 	eoreq	r3, lr, r0, lsl #10
     5f4:	0e03193f 			; <UNDEFINED> instruction: 0x0e03193f
     5f8:	053b0b3a 	ldreq	r0, [fp, #-2874]!	; 0xfffff4c6
     5fc:	13491927 	movtne	r1, #39207	; 0x9927
     600:	06120111 			; <UNDEFINED> instruction: 0x06120111
     604:	42971840 	addsmi	r1, r7, #64, 16	; 0x400000
     608:	36000019 			; <UNDEFINED> instruction: 0x36000019
     60c:	193f012e 	ldmdbne	pc!, {r1, r2, r3, r5, r8}	; <UNPREDICTABLE>
     610:	0b3a0e03 	bleq	e83e24 <__bss_end__+0xe79e34>
     614:	1927053b 	stmdbne	r7!, {r0, r1, r3, r4, r5, r8, sl}
     618:	01111349 	tsteq	r1, r9, asr #6
     61c:	18400612 	stmdane	r0, {r1, r4, r9, sl}^
     620:	01194297 			; <UNDEFINED> instruction: 0x01194297
     624:	37000013 	smladcc	r0, r3, r0, r0
     628:	0e030005 	cdpeq	0, 0, cr0, cr3, cr5, {0}
     62c:	053b0b3a 	ldreq	r0, [fp, #-2874]!	; 0xfffff4c6
     630:	17021349 	strne	r1, [r2, -r9, asr #6]
     634:	0b380000 	bleq	e0063c <__bss_end__+0xdf664c>
     638:	12011101 	andne	r1, r1, #1073741824	; 0x40000000
     63c:	00130106 	andseq	r0, r3, r6, lsl #2
     640:	00343900 	eorseq	r3, r4, r0, lsl #18
     644:	0b3a0803 	bleq	e82658 <__bss_end__+0xe78668>
     648:	1349053b 	movtne	r0, #38203	; 0x953b
     64c:	00001702 	andeq	r1, r0, r2, lsl #14
     650:	03012e3a 	movweq	r2, #7738	; 0x1e3a
     654:	3b0b3a0e 	blcc	2cee94 <__bss_end__+0x2c4ea4>
     658:	1119270b 	tstne	r9, fp, lsl #14
     65c:	40061201 	andmi	r1, r6, r1, lsl #4
     660:	19429718 	stmdbne	r2, {r3, r4, r8, r9, sl, ip, pc}^
     664:	00001301 	andeq	r1, r0, r1, lsl #6
     668:	0300053b 	movweq	r0, #1339	; 0x53b
     66c:	3b0b3a0e 	blcc	2ceeac <__bss_end__+0x2c4ebc>
     670:	0213490b 	andseq	r4, r3, #180224	; 0x2c000
     674:	3c000017 	stccc	0, cr0, [r0], {23}
     678:	08030034 	stmdaeq	r3, {r2, r4, r5}
     67c:	0b3b0b3a 	bleq	ec336c <__bss_end__+0xeb937c>
     680:	17021349 	strne	r1, [r2, -r9, asr #6]
     684:	173d0000 	ldrne	r0, [sp, -r0]!
     688:	0b080301 	bleq	201294 <__bss_end__+0x1f72a4>
     68c:	3b0b3a0b 	blcc	2ceec0 <__bss_end__+0x2c4ed0>
     690:	0013010b 	andseq	r0, r3, fp, lsl #2
     694:	000d3e00 	andeq	r3, sp, r0, lsl #28
     698:	0b3a0803 	bleq	e826ac <__bss_end__+0xe786bc>
     69c:	13490b3b 	movtne	r0, #39739	; 0x9b3b
     6a0:	893f0000 	ldmdbhi	pc!, {}	; <UNPREDICTABLE>
     6a4:	11010182 	smlabbne	r1, r2, r1, r0
     6a8:	00133101 	andseq	r3, r3, r1, lsl #2
     6ac:	012e4000 			; <UNDEFINED> instruction: 0x012e4000
     6b0:	0b3a0e03 	bleq	e83ec4 <__bss_end__+0xe79ed4>
     6b4:	19270b3b 	stmdbne	r7!, {r0, r1, r3, r4, r5, r8, r9, fp}
     6b8:	01111349 	tsteq	r1, r9, asr #6
     6bc:	18400612 	stmdane	r0, {r1, r4, r9, sl}^
     6c0:	01194297 			; <UNDEFINED> instruction: 0x01194297
     6c4:	41000013 	tstmi	r0, r3, lsl r0
     6c8:	08030005 	stmdaeq	r3, {r0, r2}
     6cc:	0b3b0b3a 	bleq	ec33bc <__bss_end__+0xeb93cc>
     6d0:	17021349 	strne	r1, [r2, -r9, asr #6]
     6d4:	2e420000 	cdpcs	0, 4, cr0, cr2, cr0, {0}
     6d8:	3c193f00 	ldccc	15, cr3, [r9], {-0}
     6dc:	030e6e19 	movweq	r6, #60953	; 0xee19
     6e0:	3b0b3a0e 	blcc	2cef20 <__bss_end__+0x2c4f30>
     6e4:	0000000b 	andeq	r0, r0, fp
     6e8:	25011101 	strcs	r1, [r1, #-257]	; 0xfffffeff
     6ec:	030b130e 	movweq	r1, #45838	; 0xb30e
     6f0:	110e1b0e 	tstne	lr, lr, lsl #22
     6f4:	10061201 	andne	r1, r6, r1, lsl #4
     6f8:	02000017 	andeq	r0, r0, #23
     6fc:	0e030016 	mcreq	0, 0, r0, cr3, cr6, {0}
     700:	0b3b0b3a 	bleq	ec33f0 <__bss_end__+0xeb9400>
     704:	00001349 	andeq	r1, r0, r9, asr #6
     708:	03011303 	movweq	r1, #4867	; 0x1303
     70c:	3a0b0b0e 	bcc	2c334c <__bss_end__+0x2b935c>
     710:	010b3b0b 	tsteq	fp, fp, lsl #22
     714:	04000013 	streq	r0, [r0], #-19	; 0xffffffed
     718:	0e03000d 	cdpeq	0, 0, cr0, cr3, cr13, {0}
     71c:	0b381349 	bleq	e05448 <__bss_end__+0xdfb458>
     720:	00001934 	andeq	r1, r0, r4, lsr r9
     724:	0b000f05 	bleq	4340 <_start-0x3cc0>
     728:	0600000b 	streq	r0, [r0], -fp
     72c:	0b0b0024 	bleq	2c07c4 <__bss_end__+0x2b67d4>
     730:	08030b3e 	stmdaeq	r3, {r1, r2, r3, r4, r5, r8, r9, fp}
     734:	24070000 	strcs	r0, [r7], #-0
     738:	3e0b0b00 	vmlacc.f64	d0, d11, d0
     73c:	000e030b 	andeq	r0, lr, fp, lsl #6
     740:	00160800 	andseq	r0, r6, r0, lsl #16
     744:	0b3a0e03 	bleq	e83f58 <__bss_end__+0xe79f68>
     748:	1349053b 	movtne	r0, #38203	; 0x953b
     74c:	17090000 	strne	r0, [r9, -r0]
     750:	3a0b0b01 	bcc	2c335c <__bss_end__+0x2b936c>
     754:	010b3b0b 	tsteq	fp, fp, lsl #22
     758:	0a000013 	beq	7ac <_start-0x7854>
     75c:	0e03000d 	cdpeq	0, 0, cr0, cr3, cr13, {0}
     760:	0b3b0b3a 	bleq	ec3450 <__bss_end__+0xeb9460>
     764:	00001349 	andeq	r1, r0, r9, asr #6
     768:	4901010b 	stmdbmi	r1, {r0, r1, r3, r8}
     76c:	00130113 	andseq	r0, r3, r3, lsl r1
     770:	00210c00 	eoreq	r0, r1, r0, lsl #24
     774:	0b2f1349 	bleq	bc54a0 <__bss_end__+0xbbb4b0>
     778:	130d0000 	movwne	r0, #53248	; 0xd000
     77c:	3a0b0b01 	bcc	2c3388 <__bss_end__+0x2b9398>
     780:	010b3b0b 	tsteq	fp, fp, lsl #22
     784:	0e000013 	mcreq	0, 0, r0, cr0, cr3, {0}
     788:	0e03000d 	cdpeq	0, 0, cr0, cr3, cr13, {0}
     78c:	0b3b0b3a 	bleq	ec347c <__bss_end__+0xeb948c>
     790:	0b381349 	bleq	e054bc <__bss_end__+0xdfb4cc>
     794:	0f0f0000 	svceq	0x000f0000
     798:	490b0b00 	stmdbmi	fp, {r8, r9, fp}
     79c:	10000013 	andne	r0, r0, r3, lsl r0
     7a0:	13490026 	movtne	r0, #36902	; 0x9026
     7a4:	0d110000 	ldceq	0, cr0, [r1, #-0]
     7a8:	3a080300 	bcc	2013b0 <__bss_end__+0x1f73c0>
     7ac:	490b3b0b 	stmdbmi	fp, {r0, r1, r3, r8, r9, fp, ip, sp}
     7b0:	000b3813 	andeq	r3, fp, r3, lsl r8
     7b4:	01131200 	tsteq	r3, r0, lsl #4
     7b8:	050b0e03 	streq	r0, [fp, #-3587]	; 0xfffff1fd
     7bc:	0b3b0b3a 	bleq	ec34ac <__bss_end__+0xeb94bc>
     7c0:	00001301 	andeq	r1, r0, r1, lsl #6
     7c4:	03000d13 	movweq	r0, #3347	; 0xd13
     7c8:	3b0b3a0e 	blcc	2cf008 <__bss_end__+0x2c5018>
     7cc:	3813490b 	ldmdacc	r3, {r0, r1, r3, r8, fp, lr}
     7d0:	14000005 	strne	r0, [r0], #-5
     7d4:	19270015 	stmdbne	r7!, {r0, r2, r4}
     7d8:	15150000 	ldrne	r0, [r5, #-0]
     7dc:	49192701 	ldmdbmi	r9, {r0, r8, r9, sl, sp}
     7e0:	00130113 	andseq	r0, r3, r3, lsl r1
     7e4:	00051600 	andeq	r1, r5, r0, lsl #12
     7e8:	00001349 	andeq	r1, r0, r9, asr #6
     7ec:	03011317 	movweq	r1, #4887	; 0x1317
     7f0:	3a050b0e 	bcc	143430 <__bss_end__+0x139440>
     7f4:	01053b0b 	tsteq	r5, fp, lsl #22
     7f8:	18000013 	stmdane	r0, {r0, r1, r4}
     7fc:	0e03000d 	cdpeq	0, 0, cr0, cr3, cr13, {0}
     800:	053b0b3a 	ldreq	r0, [fp, #-2874]!	; 0xfffff4c6
     804:	0b381349 	bleq	e05530 <__bss_end__+0xdfb540>
     808:	0d190000 	ldceq	0, cr0, [r9, #-0]
     80c:	3a0e0300 	bcc	381414 <__bss_end__+0x377424>
     810:	49053b0b 	stmdbmi	r5, {r0, r1, r3, r8, r9, fp, ip, sp}
     814:	00053813 	andeq	r3, r5, r3, lsl r8
     818:	01131a00 	tsteq	r3, r0, lsl #20
     81c:	0b0b0e03 	bleq	2c4030 <__bss_end__+0x2ba040>
     820:	053b0b3a 	ldreq	r0, [fp, #-2874]!	; 0xfffff4c6
     824:	00001301 	andeq	r1, r0, r1, lsl #6
     828:	0b01131b 	bleq	4549c <__bss_end__+0x3b4ac>
     82c:	3b0b3a0b 	blcc	2cf060 <__bss_end__+0x2c5070>
     830:	00130105 	andseq	r0, r3, r5, lsl #2
     834:	01171c00 	tsteq	r7, r0, lsl #24
     838:	0b3a0b0b 	bleq	e8346c <__bss_end__+0xe7947c>
     83c:	1301053b 	movwne	r0, #5435	; 0x153b
     840:	0d1d0000 	ldceq	0, cr0, [sp, #-0]
     844:	3a0e0300 	bcc	38144c <__bss_end__+0x37745c>
     848:	49053b0b 	stmdbmi	r5, {r0, r1, r3, r8, r9, fp, ip, sp}
     84c:	1e000013 	mcrne	0, 0, r0, cr0, cr3, {0}
     850:	19270115 	stmdbne	r7!, {r0, r2, r4, r8}
     854:	00001301 	andeq	r1, r0, r1, lsl #6
     858:	0300341f 	movweq	r3, #1055	; 0x41f
     85c:	3b0b3a0e 	blcc	2cf09c <__bss_end__+0x2c50ac>
     860:	3f134905 	svccc	0x00134905
     864:	00193c19 	andseq	r3, r9, r9, lsl ip
     868:	00342000 	eorseq	r2, r4, r0
     86c:	0b3a0e03 	bleq	e84080 <__bss_end__+0xe7a090>
     870:	13490b3b 	movtne	r0, #39739	; 0x9b3b
     874:	193c193f 	ldmdbne	ip!, {r0, r1, r2, r3, r4, r5, r8, fp, ip}
     878:	2e210000 	cdpcs	0, 2, cr0, cr1, cr0, {0}
     87c:	03193f01 	tsteq	r9, #1, 30
     880:	3b0b3a0e 	blcc	2cf0c0 <__bss_end__+0x2c50d0>
     884:	4919270b 	ldmdbmi	r9, {r0, r1, r3, r8, r9, sl, sp}
     888:	12011113 	andne	r1, r1, #-1073741820	; 0xc0000004
     88c:	97184006 	ldrls	r4, [r8, -r6]
     890:	13011942 	movwne	r1, #6466	; 0x1942
     894:	05220000 	streq	r0, [r2, #-0]!
     898:	3a080300 	bcc	2014a0 <__bss_end__+0x1f74b0>
     89c:	490b3b0b 	stmdbmi	fp, {r0, r1, r3, r8, r9, fp, ip, sp}
     8a0:	00180213 	andseq	r0, r8, r3, lsl r2
     8a4:	00182300 	andseq	r2, r8, r0, lsl #6
     8a8:	34240000 	strtcc	r0, [r4], #-0
     8ac:	3a080300 	bcc	2014b4 <__bss_end__+0x1f74c4>
     8b0:	490b3b0b 	stmdbmi	fp, {r0, r1, r3, r8, r9, fp, ip, sp}
     8b4:	00180213 	andseq	r0, r8, r3, lsl r2
     8b8:	00342500 	eorseq	r2, r4, r0, lsl #10
     8bc:	0b3a0e03 	bleq	e840d0 <__bss_end__+0xe7a0e0>
     8c0:	13490b3b 	movtne	r0, #39739	; 0x9b3b
     8c4:	00001802 	andeq	r1, r0, r2, lsl #16
     8c8:	03003426 	movweq	r3, #1062	; 0x426
     8cc:	3b0b3a08 	blcc	2cf0f4 <__bss_end__+0x2c5104>
     8d0:	0213490b 	andseq	r4, r3, #180224	; 0x2c000
     8d4:	27000017 	smladcs	r0, r7, r0, r0
     8d8:	01018289 	smlabbeq	r1, r9, r2, r8
     8dc:	13310111 	teqne	r1, #1073741828	; 0x40000004
     8e0:	00001301 	andeq	r1, r0, r1, lsl #6
     8e4:	01828a28 	orreq	r8, r2, r8, lsr #20
     8e8:	91180200 	tstls	r8, r0, lsl #4
     8ec:	00001842 	andeq	r1, r0, r2, asr #16
     8f0:	01828929 	orreq	r8, r2, r9, lsr #18
     8f4:	00011101 	andeq	r1, r1, r1, lsl #2
     8f8:	00212a00 	eoreq	r2, r1, r0, lsl #20
     8fc:	052f1349 	streq	r1, [pc, #-841]!	; 5bb <_start-0x7a45>
     900:	2e2b0000 	cdpcs	0, 2, cr0, cr11, cr0, {0}
     904:	3c193f00 	ldccc	15, cr3, [r9], {-0}
     908:	030e6e19 	movweq	r6, #60953	; 0xee19
     90c:	3b0b3a0e 	blcc	2cf14c <__bss_end__+0x2c515c>
     910:	0000000b 	andeq	r0, r0, fp
     914:	25011101 	strcs	r1, [r1, #-257]	; 0xfffffeff
     918:	030b130e 	movweq	r1, #45838	; 0xb30e
     91c:	110e1b0e 	tstne	lr, lr, lsl #22
     920:	10061201 	andne	r1, r6, r1, lsl #4
     924:	02000017 	andeq	r0, r0, #23
     928:	0b0b0024 	bleq	2c09c0 <__bss_end__+0x2b69d0>
     92c:	08030b3e 	stmdaeq	r3, {r1, r2, r3, r4, r5, r8, r9, fp}
     930:	24030000 	strcs	r0, [r3], #-0
     934:	3e0b0b00 	vmlacc.f64	d0, d11, d0
     938:	000e030b 	andeq	r0, lr, fp, lsl #6
     93c:	00160400 	andseq	r0, r6, r0, lsl #8
     940:	0b3a0e03 	bleq	e84154 <__bss_end__+0xe7a164>
     944:	13490b3b 	movtne	r0, #39739	; 0x9b3b
     948:	16050000 	strne	r0, [r5], -r0
     94c:	3a0e0300 	bcc	381554 <__bss_end__+0x377564>
     950:	49053b0b 	stmdbmi	r5, {r0, r1, r3, r8, r9, fp, ip, sp}
     954:	06000013 			; <UNDEFINED> instruction: 0x06000013
     958:	0b0b0117 	bleq	2c0dbc <__bss_end__+0x2b6dcc>
     95c:	0b3b0b3a 	bleq	ec364c <__bss_end__+0xeb965c>
     960:	00001301 	andeq	r1, r0, r1, lsl #6
     964:	03000d07 	movweq	r0, #3335	; 0xd07
     968:	3b0b3a0e 	blcc	2cf1a8 <__bss_end__+0x2c51b8>
     96c:	0013490b 	andseq	r4, r3, fp, lsl #18
     970:	01010800 	tsteq	r1, r0, lsl #16
     974:	13011349 	movwne	r1, #4937	; 0x1349
     978:	21090000 	mrscs	r0, (UNDEF: 9)
     97c:	2f134900 	svccs	0x00134900
     980:	0a00000b 	beq	9b4 <_start-0x764c>
     984:	0b0b0113 	bleq	2c0dd8 <__bss_end__+0x2b6de8>
     988:	0b3b0b3a 	bleq	ec3678 <__bss_end__+0xeb9688>
     98c:	00001301 	andeq	r1, r0, r1, lsl #6
     990:	03000d0b 	movweq	r0, #3339	; 0xd0b
     994:	3b0b3a0e 	blcc	2cf1d4 <__bss_end__+0x2c51e4>
     998:	3813490b 	ldmdacc	r3, {r0, r1, r3, r8, fp, lr}
     99c:	0c00000b 	stceq	0, cr0, [r0], {11}
     9a0:	0b0b000f 	bleq	2c09e4 <__bss_end__+0x2b69f4>
     9a4:	0f0d0000 	svceq	0x000d0000
     9a8:	490b0b00 	stmdbmi	fp, {r8, r9, fp}
     9ac:	0e000013 	mcreq	0, 0, r0, cr0, cr3, {0}
     9b0:	13490026 	movtne	r0, #36902	; 0x9026
     9b4:	130f0000 	movwne	r0, #61440	; 0xf000
     9b8:	0b0e0301 	bleq	3815c4 <__bss_end__+0x3775d4>
     9bc:	3b0b3a0b 	blcc	2cf1f0 <__bss_end__+0x2c5200>
     9c0:	0013010b 	andseq	r0, r3, fp, lsl #2
     9c4:	000d1000 	andeq	r1, sp, r0
     9c8:	0b3a0803 	bleq	e829dc <__bss_end__+0xe789ec>
     9cc:	13490b3b 	movtne	r0, #39739	; 0x9b3b
     9d0:	00000b38 	andeq	r0, r0, r8, lsr fp
     9d4:	03011311 	movweq	r1, #4881	; 0x1311
     9d8:	3a050b0e 	bcc	143618 <__bss_end__+0x139628>
     9dc:	010b3b0b 	tsteq	fp, fp, lsl #22
     9e0:	12000013 	andne	r0, r0, #19
     9e4:	0e03000d 	cdpeq	0, 0, cr0, cr3, cr13, {0}
     9e8:	0b3b0b3a 	bleq	ec36d8 <__bss_end__+0xeb96e8>
     9ec:	05381349 	ldreq	r1, [r8, #-841]!	; 0xfffffcb7
     9f0:	15130000 	ldrne	r0, [r3, #-0]
     9f4:	00192700 	andseq	r2, r9, r0, lsl #14
     9f8:	01151400 	tsteq	r5, r0, lsl #8
     9fc:	13491927 	movtne	r1, #39207	; 0x9927
     a00:	00001301 	andeq	r1, r0, r1, lsl #6
     a04:	49000515 	stmdbmi	r0, {r0, r2, r4, r8, sl}
     a08:	16000013 			; <UNDEFINED> instruction: 0x16000013
     a0c:	0e030113 	mcreq	1, 0, r0, cr3, cr3, {0}
     a10:	0b3a050b 	bleq	e81e44 <__bss_end__+0xe77e54>
     a14:	1301053b 	movwne	r0, #5435	; 0x153b
     a18:	0d170000 	ldceq	0, cr0, [r7, #-0]
     a1c:	3a0e0300 	bcc	381624 <__bss_end__+0x377634>
     a20:	49053b0b 	stmdbmi	r5, {r0, r1, r3, r8, r9, fp, ip, sp}
     a24:	000b3813 	andeq	r3, fp, r3, lsl r8
     a28:	000d1800 	andeq	r1, sp, r0, lsl #16
     a2c:	0b3a0e03 	bleq	e84240 <__bss_end__+0xe7a250>
     a30:	1349053b 	movtne	r0, #38203	; 0x953b
     a34:	00000538 	andeq	r0, r0, r8, lsr r5
     a38:	03011319 	movweq	r1, #4889	; 0x1319
     a3c:	3a0b0b0e 	bcc	2c367c <__bss_end__+0x2b968c>
     a40:	01053b0b 	tsteq	r5, fp, lsl #22
     a44:	1a000013 	bne	a98 <_start-0x7568>
     a48:	0b0b0113 	bleq	2c0e9c <__bss_end__+0x2b6eac>
     a4c:	053b0b3a 	ldreq	r0, [fp, #-2874]!	; 0xfffff4c6
     a50:	00001301 	andeq	r1, r0, r1, lsl #6
     a54:	0b01171b 	bleq	466c8 <__bss_end__+0x3c6d8>
     a58:	3b0b3a0b 	blcc	2cf28c <__bss_end__+0x2c529c>
     a5c:	00130105 	andseq	r0, r3, r5, lsl #2
     a60:	000d1c00 	andeq	r1, sp, r0, lsl #24
     a64:	0b3a0e03 	bleq	e84278 <__bss_end__+0xe7a288>
     a68:	1349053b 	movtne	r0, #38203	; 0x953b
     a6c:	151d0000 	ldrne	r0, [sp, #-0]
     a70:	01192701 	tsteq	r9, r1, lsl #14
     a74:	1e000013 	mcrne	0, 0, r0, cr0, cr3, {0}
     a78:	0e030034 	mcreq	0, 0, r0, cr3, cr4, {1}
     a7c:	053b0b3a 	ldreq	r0, [fp, #-2874]!	; 0xfffff4c6
     a80:	193f1349 	ldmdbne	pc!, {r0, r3, r6, r8, r9, ip}	; <UNPREDICTABLE>
     a84:	0000193c 	andeq	r1, r0, ip, lsr r9
     a88:	0300341f 	movweq	r3, #1055	; 0x41f
     a8c:	3b0b3a0e 	blcc	2cf2cc <__bss_end__+0x2c52dc>
     a90:	3f13490b 	svccc	0x0013490b
     a94:	00193c19 	andseq	r3, r9, r9, lsl ip
     a98:	000d2000 	andeq	r2, sp, r0
     a9c:	13490e03 	movtne	r0, #40451	; 0x9e03
     aa0:	19340b38 	ldmdbne	r4!, {r3, r4, r5, r8, r9, fp}
     aa4:	2e210000 	cdpcs	0, 2, cr0, cr1, cr0, {0}
     aa8:	03193f01 	tsteq	r9, #1, 30
     aac:	3b0b3a0e 	blcc	2cf2ec <__bss_end__+0x2c52fc>
     ab0:	4919270b 	ldmdbmi	r9, {r0, r1, r3, r8, r9, sl, sp}
     ab4:	12011113 	andne	r1, r1, #-1073741820	; 0xc0000004
     ab8:	97184006 	ldrls	r4, [r8, -r6]
     abc:	13011942 	movwne	r1, #6466	; 0x1942
     ac0:	05220000 	streq	r0, [r2, #-0]!
     ac4:	3a080300 	bcc	2016cc <__bss_end__+0x1f76dc>
     ac8:	490b3b0b 	stmdbmi	fp, {r0, r1, r3, r8, r9, fp, ip, sp}
     acc:	00170213 	andseq	r0, r7, r3, lsl r2
     ad0:	00052300 	andeq	r2, r5, r0, lsl #6
     ad4:	0b3a0e03 	bleq	e842e8 <__bss_end__+0xe7a2f8>
     ad8:	13490b3b 	movtne	r0, #39739	; 0x9b3b
     adc:	00001802 	andeq	r1, r0, r2, lsl #16
     ae0:	03003424 	movweq	r3, #1060	; 0x424
     ae4:	3b0b3a08 	blcc	2cf30c <__bss_end__+0x2c531c>
     ae8:	0213490b 	andseq	r4, r3, #180224	; 0x2c000
     aec:	25000017 	strcs	r0, [r0, #-23]	; 0xffffffe9
     af0:	0e030034 	mcreq	0, 0, r0, cr3, cr4, {1}
     af4:	19341349 	ldmdbne	r4!, {r0, r3, r6, r8, r9, ip}
     af8:	00001802 	andeq	r1, r0, r2, lsl #16
     afc:	55010b26 	strpl	r0, [r1, #-2854]	; 0xfffff4da
     b00:	27000017 	smladcs	r0, r7, r0, r0
     b04:	08030034 	stmdaeq	r3, {r2, r4, r5}
     b08:	0b3b0b3a 	bleq	ec37f8 <__bss_end__+0xeb9808>
     b0c:	18021349 	stmdane	r2, {r0, r3, r6, r8, r9, ip}
     b10:	34280000 	strtcc	r0, [r8], #-0
     b14:	3a0e0300 	bcc	38171c <__bss_end__+0x37772c>
     b18:	490b3b0b 	stmdbmi	fp, {r0, r1, r3, r8, r9, fp, ip, sp}
     b1c:	00170213 	andseq	r0, r7, r3, lsl r2
     b20:	82892900 	addhi	r2, r9, #0, 18
     b24:	01110101 	tsteq	r1, r1, lsl #2
     b28:	13011331 	movwne	r1, #4913	; 0x1331
     b2c:	8a2a0000 	bhi	a80b34 <__bss_end__+0xa76b44>
     b30:	02000182 	andeq	r0, r0, #-2147483616	; 0x80000020
     b34:	18429118 	stmdane	r2, {r3, r4, r8, ip, pc}^
     b38:	892b0000 	stmdbhi	fp!, {}	; <UNPREDICTABLE>
     b3c:	11000182 	smlabbne	r0, r2, r1, r0
     b40:	00133101 	andseq	r3, r3, r1, lsl #2
     b44:	012e2c00 			; <UNDEFINED> instruction: 0x012e2c00
     b48:	0b3a0e03 	bleq	e8435c <__bss_end__+0xe7a36c>
     b4c:	19270b3b 	stmdbne	r7!, {r0, r1, r3, r4, r5, r8, r9, fp}
     b50:	01111349 	tsteq	r1, r9, asr #6
     b54:	18400612 	stmdane	r0, {r1, r4, r9, sl}^
     b58:	01194297 			; <UNDEFINED> instruction: 0x01194297
     b5c:	2d000013 	stccs	0, cr0, [r0, #-76]	; 0xffffffb4
     b60:	0e030005 	cdpeq	0, 0, cr0, cr3, cr5, {0}
     b64:	0b3b0b3a 	bleq	ec3854 <__bss_end__+0xeb9864>
     b68:	17021349 	strne	r1, [r2, -r9, asr #6]
     b6c:	0b2e0000 	bleq	b80b74 <__bss_end__+0xb76b84>
     b70:	12011101 	andne	r1, r1, #1073741824	; 0x40000000
     b74:	00130106 	andseq	r0, r3, r6, lsl #2
     b78:	012e2f00 			; <UNDEFINED> instruction: 0x012e2f00
     b7c:	0b3a0803 	bleq	e82b90 <__bss_end__+0xe78ba0>
     b80:	19270b3b 	stmdbne	r7!, {r0, r1, r3, r4, r5, r8, r9, fp}
     b84:	01111349 	tsteq	r1, r9, asr #6
     b88:	18400612 	stmdane	r0, {r1, r4, r9, sl}^
     b8c:	01194297 			; <UNDEFINED> instruction: 0x01194297
     b90:	30000013 	andcc	r0, r0, r3, lsl r0
     b94:	193f012e 	ldmdbne	pc!, {r1, r2, r3, r5, r8}	; <UNPREDICTABLE>
     b98:	0b3a0e03 	bleq	e843ac <__bss_end__+0xe7a3bc>
     b9c:	19270b3b 	stmdbne	r7!, {r0, r1, r3, r4, r5, r8, r9, fp}
     ba0:	06120111 			; <UNDEFINED> instruction: 0x06120111
     ba4:	42971840 	addsmi	r1, r7, #64, 16	; 0x400000
     ba8:	00130119 	andseq	r0, r3, r9, lsl r1
     bac:	002e3100 	eoreq	r3, lr, r0, lsl #2
     bb0:	193c193f 	ldmdbne	ip!, {r0, r1, r2, r3, r4, r5, r8, fp, ip}
     bb4:	0e030e6e 	cdpeq	14, 0, cr0, cr3, cr14, {3}
     bb8:	0b3b0b3a 	bleq	ec38a8 <__bss_end__+0xeb98b8>
     bbc:	01000000 	mrseq	r0, (UNDEF: 0)
     bc0:	0e250111 	mcreq	1, 1, r0, cr5, cr1, {0}
     bc4:	0e030b13 	vmoveq.32	d3[0], r0
     bc8:	01110e1b 	tsteq	r1, fp, lsl lr
     bcc:	17100612 			; <UNDEFINED> instruction: 0x17100612
     bd0:	24020000 	strcs	r0, [r2], #-0
     bd4:	3e0b0b00 	vmlacc.f64	d0, d11, d0
     bd8:	0008030b 	andeq	r0, r8, fp, lsl #6
     bdc:	00240300 	eoreq	r0, r4, r0, lsl #6
     be0:	0b3e0b0b 	bleq	f83814 <__bss_end__+0xf79824>
     be4:	00000e03 	andeq	r0, r0, r3, lsl #28
     be8:	03001604 	movweq	r1, #1540	; 0x604
     bec:	3b0b3a0e 	blcc	2cf42c <__bss_end__+0x2c543c>
     bf0:	0013490b 	andseq	r4, r3, fp, lsl #18
     bf4:	00160500 	andseq	r0, r6, r0, lsl #10
     bf8:	0b3a0e03 	bleq	e8440c <__bss_end__+0xe7a41c>
     bfc:	1349053b 	movtne	r0, #38203	; 0x953b
     c00:	17060000 	strne	r0, [r6, -r0]
     c04:	3a0b0b01 	bcc	2c3810 <__bss_end__+0x2b9820>
     c08:	010b3b0b 	tsteq	fp, fp, lsl #22
     c0c:	07000013 	smladeq	r0, r3, r0, r0
     c10:	0e03000d 	cdpeq	0, 0, cr0, cr3, cr13, {0}
     c14:	0b3b0b3a 	bleq	ec3904 <__bss_end__+0xeb9914>
     c18:	00001349 	andeq	r1, r0, r9, asr #6
     c1c:	49010108 	stmdbmi	r1, {r3, r8}
     c20:	00130113 	andseq	r0, r3, r3, lsl r1
     c24:	00210900 	eoreq	r0, r1, r0, lsl #18
     c28:	0b2f1349 	bleq	bc5954 <__bss_end__+0xbbb964>
     c2c:	130a0000 	movwne	r0, #40960	; 0xa000
     c30:	3a0b0b01 	bcc	2c383c <__bss_end__+0x2b984c>
     c34:	010b3b0b 	tsteq	fp, fp, lsl #22
     c38:	0b000013 	bleq	c8c <_start-0x7374>
     c3c:	0e03000d 	cdpeq	0, 0, cr0, cr3, cr13, {0}
     c40:	0b3b0b3a 	bleq	ec3930 <__bss_end__+0xeb9940>
     c44:	0b381349 	bleq	e05970 <__bss_end__+0xdfb980>
     c48:	0f0c0000 	svceq	0x000c0000
     c4c:	000b0b00 	andeq	r0, fp, r0, lsl #22
     c50:	000f0d00 	andeq	r0, pc, r0, lsl #26
     c54:	13490b0b 	movtne	r0, #39691	; 0x9b0b
     c58:	260e0000 	strcs	r0, [lr], -r0
     c5c:	00134900 	andseq	r4, r3, r0, lsl #18
     c60:	01130f00 	tsteq	r3, r0, lsl #30
     c64:	0b0b0e03 	bleq	2c4478 <__bss_end__+0x2ba488>
     c68:	0b3b0b3a 	bleq	ec3958 <__bss_end__+0xeb9968>
     c6c:	00001301 	andeq	r1, r0, r1, lsl #6
     c70:	03000d10 	movweq	r0, #3344	; 0xd10
     c74:	3b0b3a08 	blcc	2cf49c <__bss_end__+0x2c54ac>
     c78:	3813490b 	ldmdacc	r3, {r0, r1, r3, r8, fp, lr}
     c7c:	1100000b 	tstne	r0, fp
     c80:	0e030113 	mcreq	1, 0, r0, cr3, cr3, {0}
     c84:	0b3a050b 	bleq	e820b8 <__bss_end__+0xe780c8>
     c88:	13010b3b 	movwne	r0, #6971	; 0x1b3b
     c8c:	0d120000 	ldceq	0, cr0, [r2, #-0]
     c90:	3a0e0300 	bcc	381898 <__bss_end__+0x3778a8>
     c94:	490b3b0b 	stmdbmi	fp, {r0, r1, r3, r8, r9, fp, ip, sp}
     c98:	00053813 	andeq	r3, r5, r3, lsl r8
     c9c:	00151300 	andseq	r1, r5, r0, lsl #6
     ca0:	00001927 	andeq	r1, r0, r7, lsr #18
     ca4:	27011514 	smladcs	r1, r4, r5, r1
     ca8:	01134919 	tsteq	r3, r9, lsl r9
     cac:	15000013 	strne	r0, [r0, #-19]	; 0xffffffed
     cb0:	13490005 	movtne	r0, #36869	; 0x9005
     cb4:	13160000 	tstne	r6, #0
     cb8:	0b0e0301 	bleq	3818c4 <__bss_end__+0x3778d4>
     cbc:	3b0b3a05 	blcc	2cf4d8 <__bss_end__+0x2c54e8>
     cc0:	00130105 	andseq	r0, r3, r5, lsl #2
     cc4:	000d1700 	andeq	r1, sp, r0, lsl #14
     cc8:	0b3a0e03 	bleq	e844dc <__bss_end__+0xe7a4ec>
     ccc:	1349053b 	movtne	r0, #38203	; 0x953b
     cd0:	00000b38 	andeq	r0, r0, r8, lsr fp
     cd4:	03000d18 	movweq	r0, #3352	; 0xd18
     cd8:	3b0b3a0e 	blcc	2cf518 <__bss_end__+0x2c5528>
     cdc:	38134905 	ldmdacc	r3, {r0, r2, r8, fp, lr}
     ce0:	19000005 	stmdbne	r0, {r0, r2}
     ce4:	0e030113 	mcreq	1, 0, r0, cr3, cr3, {0}
     ce8:	0b3a0b0b 	bleq	e8391c <__bss_end__+0xe7992c>
     cec:	1301053b 	movwne	r0, #5435	; 0x153b
     cf0:	131a0000 	tstne	sl, #0
     cf4:	3a0b0b01 	bcc	2c3900 <__bss_end__+0x2b9910>
     cf8:	01053b0b 	tsteq	r5, fp, lsl #22
     cfc:	1b000013 	blne	d50 <_start-0x72b0>
     d00:	0b0b0117 	bleq	2c1164 <__bss_end__+0x2b7174>
     d04:	053b0b3a 	ldreq	r0, [fp, #-2874]!	; 0xfffff4c6
     d08:	00001301 	andeq	r1, r0, r1, lsl #6
     d0c:	03000d1c 	movweq	r0, #3356	; 0xd1c
     d10:	3b0b3a0e 	blcc	2cf550 <__bss_end__+0x2c5560>
     d14:	00134905 	andseq	r4, r3, r5, lsl #18
     d18:	01151d00 	tsteq	r5, r0, lsl #26
     d1c:	13011927 	movwne	r1, #6439	; 0x1927
     d20:	341e0000 	ldrcc	r0, [lr], #-0
     d24:	3a0e0300 	bcc	38192c <__bss_end__+0x37793c>
     d28:	49053b0b 	stmdbmi	r5, {r0, r1, r3, r8, r9, fp, ip, sp}
     d2c:	3c193f13 	ldccc	15, cr3, [r9], {19}
     d30:	1f000019 	svcne	0x00000019
     d34:	0e030034 	mcreq	0, 0, r0, cr3, cr4, {1}
     d38:	0b3b0b3a 	bleq	ec3a28 <__bss_end__+0xeb9a38>
     d3c:	193f1349 	ldmdbne	pc!, {r0, r3, r6, r8, r9, ip}	; <UNPREDICTABLE>
     d40:	0000193c 	andeq	r1, r0, ip, lsr r9
     d44:	47003420 	strmi	r3, [r0, -r0, lsr #8]
     d48:	3b0b3a13 	blcc	2cf59c <__bss_end__+0x2c55ac>
     d4c:	0018020b 	andseq	r0, r8, fp, lsl #4
     d50:	012e2100 			; <UNDEFINED> instruction: 0x012e2100
     d54:	0e03193f 			; <UNDEFINED> instruction: 0x0e03193f
     d58:	0b3b0b3a 	bleq	ec3a48 <__bss_end__+0xeb9a58>
     d5c:	13491927 	movtne	r1, #39207	; 0x9927
     d60:	06120111 			; <UNDEFINED> instruction: 0x06120111
     d64:	42961840 	addsmi	r1, r6, #64, 16	; 0x400000
     d68:	22000019 	andcs	r0, r0, #25
     d6c:	08030005 	stmdaeq	r3, {r0, r2}
     d70:	0b3b0b3a 	bleq	ec3a60 <__bss_end__+0xeb9a70>
     d74:	17021349 	strne	r1, [r2, -r9, asr #6]
     d78:	01000000 	mrseq	r0, (UNDEF: 0)
     d7c:	0e250111 	mcreq	1, 1, r0, cr5, cr1, {0}
     d80:	0e030b13 	vmoveq.32	d3[0], r0
     d84:	01110e1b 	tsteq	r1, fp, lsl lr
     d88:	17100612 			; <UNDEFINED> instruction: 0x17100612
     d8c:	24020000 	strcs	r0, [r2], #-0
     d90:	3e0b0b00 	vmlacc.f64	d0, d11, d0
     d94:	0008030b 	andeq	r0, r8, fp, lsl #6
     d98:	00240300 	eoreq	r0, r4, r0, lsl #6
     d9c:	0b3e0b0b 	bleq	f839d0 <__bss_end__+0xf799e0>
     da0:	00000e03 	andeq	r0, r0, r3, lsl #28
     da4:	03001604 	movweq	r1, #1540	; 0x604
     da8:	3b0b3a0e 	blcc	2cf5e8 <__bss_end__+0x2c55f8>
     dac:	0013490b 	andseq	r4, r3, fp, lsl #18
     db0:	00160500 	andseq	r0, r6, r0, lsl #10
     db4:	0b3a0e03 	bleq	e845c8 <__bss_end__+0xe7a5d8>
     db8:	1349053b 	movtne	r0, #38203	; 0x953b
     dbc:	17060000 	strne	r0, [r6, -r0]
     dc0:	3a0b0b01 	bcc	2c39cc <__bss_end__+0x2b99dc>
     dc4:	010b3b0b 	tsteq	fp, fp, lsl #22
     dc8:	07000013 	smladeq	r0, r3, r0, r0
     dcc:	0e03000d 	cdpeq	0, 0, cr0, cr3, cr13, {0}
     dd0:	0b3b0b3a 	bleq	ec3ac0 <__bss_end__+0xeb9ad0>
     dd4:	00001349 	andeq	r1, r0, r9, asr #6
     dd8:	49010108 	stmdbmi	r1, {r3, r8}
     ddc:	00130113 	andseq	r0, r3, r3, lsl r1
     de0:	00210900 	eoreq	r0, r1, r0, lsl #18
     de4:	0b2f1349 	bleq	bc5b10 <__bss_end__+0xbbbb20>
     de8:	130a0000 	movwne	r0, #40960	; 0xa000
     dec:	3a0b0b01 	bcc	2c39f8 <__bss_end__+0x2b9a08>
     df0:	010b3b0b 	tsteq	fp, fp, lsl #22
     df4:	0b000013 	bleq	e48 <_start-0x71b8>
     df8:	0e03000d 	cdpeq	0, 0, cr0, cr3, cr13, {0}
     dfc:	0b3b0b3a 	bleq	ec3aec <__bss_end__+0xeb9afc>
     e00:	0b381349 	bleq	e05b2c <__bss_end__+0xdfbb3c>
     e04:	0f0c0000 	svceq	0x000c0000
     e08:	000b0b00 	andeq	r0, fp, r0, lsl #22
     e0c:	000f0d00 	andeq	r0, pc, r0, lsl #26
     e10:	13490b0b 	movtne	r0, #39691	; 0x9b0b
     e14:	260e0000 	strcs	r0, [lr], -r0
     e18:	00134900 	andseq	r4, r3, r0, lsl #18
     e1c:	01130f00 	tsteq	r3, r0, lsl #30
     e20:	0b0b0e03 	bleq	2c4634 <__bss_end__+0x2ba644>
     e24:	0b3b0b3a 	bleq	ec3b14 <__bss_end__+0xeb9b24>
     e28:	00001301 	andeq	r1, r0, r1, lsl #6
     e2c:	03000d10 	movweq	r0, #3344	; 0xd10
     e30:	3b0b3a08 	blcc	2cf658 <__bss_end__+0x2c5668>
     e34:	3813490b 	ldmdacc	r3, {r0, r1, r3, r8, fp, lr}
     e38:	1100000b 	tstne	r0, fp
     e3c:	0e030113 	mcreq	1, 0, r0, cr3, cr3, {0}
     e40:	0b3a050b 	bleq	e82274 <__bss_end__+0xe78284>
     e44:	13010b3b 	movwne	r0, #6971	; 0x1b3b
     e48:	0d120000 	ldceq	0, cr0, [r2, #-0]
     e4c:	3a0e0300 	bcc	381a54 <__bss_end__+0x377a64>
     e50:	490b3b0b 	stmdbmi	fp, {r0, r1, r3, r8, r9, fp, ip, sp}
     e54:	00053813 	andeq	r3, r5, r3, lsl r8
     e58:	00151300 	andseq	r1, r5, r0, lsl #6
     e5c:	00001927 	andeq	r1, r0, r7, lsr #18
     e60:	27011514 	smladcs	r1, r4, r5, r1
     e64:	01134919 	tsteq	r3, r9, lsl r9
     e68:	15000013 	strne	r0, [r0, #-19]	; 0xffffffed
     e6c:	13490005 	movtne	r0, #36869	; 0x9005
     e70:	13160000 	tstne	r6, #0
     e74:	0b0e0301 	bleq	381a80 <__bss_end__+0x377a90>
     e78:	3b0b3a05 	blcc	2cf694 <__bss_end__+0x2c56a4>
     e7c:	00130105 	andseq	r0, r3, r5, lsl #2
     e80:	000d1700 	andeq	r1, sp, r0, lsl #14
     e84:	0b3a0e03 	bleq	e84698 <__bss_end__+0xe7a6a8>
     e88:	1349053b 	movtne	r0, #38203	; 0x953b
     e8c:	00000b38 	andeq	r0, r0, r8, lsr fp
     e90:	03000d18 	movweq	r0, #3352	; 0xd18
     e94:	3b0b3a0e 	blcc	2cf6d4 <__bss_end__+0x2c56e4>
     e98:	38134905 	ldmdacc	r3, {r0, r2, r8, fp, lr}
     e9c:	19000005 	stmdbne	r0, {r0, r2}
     ea0:	0e030113 	mcreq	1, 0, r0, cr3, cr3, {0}
     ea4:	0b3a0b0b 	bleq	e83ad8 <__bss_end__+0xe79ae8>
     ea8:	1301053b 	movwne	r0, #5435	; 0x153b
     eac:	131a0000 	tstne	sl, #0
     eb0:	3a0b0b01 	bcc	2c3abc <__bss_end__+0x2b9acc>
     eb4:	01053b0b 	tsteq	r5, fp, lsl #22
     eb8:	1b000013 	blne	f0c <_start-0x70f4>
     ebc:	0b0b0117 	bleq	2c1320 <__bss_end__+0x2b7330>
     ec0:	053b0b3a 	ldreq	r0, [fp, #-2874]!	; 0xfffff4c6
     ec4:	00001301 	andeq	r1, r0, r1, lsl #6
     ec8:	03000d1c 	movweq	r0, #3356	; 0xd1c
     ecc:	3b0b3a0e 	blcc	2cf70c <__bss_end__+0x2c571c>
     ed0:	00134905 	andseq	r4, r3, r5, lsl #18
     ed4:	01151d00 	tsteq	r5, r0, lsl #26
     ed8:	13011927 	movwne	r1, #6439	; 0x1927
     edc:	341e0000 	ldrcc	r0, [lr], #-0
     ee0:	3a0e0300 	bcc	381ae8 <__bss_end__+0x377af8>
     ee4:	49053b0b 	stmdbmi	r5, {r0, r1, r3, r8, r9, fp, ip, sp}
     ee8:	3c193f13 	ldccc	15, cr3, [r9], {19}
     eec:	1f000019 	svcne	0x00000019
     ef0:	0e030034 	mcreq	0, 0, r0, cr3, cr4, {1}
     ef4:	0b3b0b3a 	bleq	ec3be4 <__bss_end__+0xeb9bf4>
     ef8:	193f1349 	ldmdbne	pc!, {r0, r3, r6, r8, r9, ip}	; <UNPREDICTABLE>
     efc:	0000193c 	andeq	r1, r0, ip, lsr r9
     f00:	47003420 	strmi	r3, [r0, -r0, lsr #8]
     f04:	3b0b3a13 	blcc	2cf758 <__bss_end__+0x2c5768>
     f08:	0018020b 	andseq	r0, r8, fp, lsl #4
     f0c:	012e2100 			; <UNDEFINED> instruction: 0x012e2100
     f10:	0e03193f 			; <UNDEFINED> instruction: 0x0e03193f
     f14:	0b3b0b3a 	bleq	ec3c04 <__bss_end__+0xeb9c14>
     f18:	01111927 	tsteq	r1, r7, lsr #18
     f1c:	18400612 	stmdane	r0, {r1, r4, r9, sl}^
     f20:	01194297 			; <UNDEFINED> instruction: 0x01194297
     f24:	22000013 	andcs	r0, r0, #19
     f28:	08030005 	stmdaeq	r3, {r0, r2}
     f2c:	0b3b0b3a 	bleq	ec3c1c <__bss_end__+0xeb9c2c>
     f30:	18021349 	stmdane	r2, {r0, r3, r6, r8, r9, ip}
     f34:	2e230000 	cdpcs	0, 2, cr0, cr3, cr0, {0}
     f38:	03193f00 	tsteq	r9, #0, 30
     f3c:	3b0b3a0e 	blcc	2cf77c <__bss_end__+0x2c578c>
     f40:	1119270b 	tstne	r9, fp, lsl #14
     f44:	40061201 	andmi	r1, r6, r1, lsl #4
     f48:	19429718 	stmdbne	r2, {r3, r4, r8, r9, sl, ip, pc}^
     f4c:	2e240000 	cdpcs	0, 2, cr0, cr4, cr0, {0}
     f50:	3a0e0301 	bcc	381b5c <__bss_end__+0x377b6c>
     f54:	270b3b0b 	strcs	r3, [fp, -fp, lsl #22]
     f58:	11134919 	tstne	r3, r9, lsl r9
     f5c:	40061201 	andmi	r1, r6, r1, lsl #4
     f60:	19429718 	stmdbne	r2, {r3, r4, r8, r9, sl, ip, pc}^
     f64:	00001301 	andeq	r1, r0, r1, lsl #6
     f68:	03000525 	movweq	r0, #1317	; 0x525
     f6c:	3b0b3a08 	blcc	2cf794 <__bss_end__+0x2c57a4>
     f70:	0213490b 	andseq	r4, r3, #180224	; 0x2c000
     f74:	26000017 			; <UNDEFINED> instruction: 0x26000017
     f78:	01018289 	smlabbeq	r1, r9, r2, r8
     f7c:	13310111 	teqne	r1, #1073741828	; 0x40000004
     f80:	8a270000 	bhi	9c0f88 <__bss_end__+0x9b6f98>
     f84:	02000182 	andeq	r0, r0, #-2147483616	; 0x80000020
     f88:	18429118 	stmdane	r2, {r3, r4, r8, ip, pc}^
     f8c:	2e280000 	cdpcs	0, 2, cr0, cr8, cr0, {0}
     f90:	3c193f00 	ldccc	15, cr3, [r9], {-0}
     f94:	030e6e19 	movweq	r6, #60953	; 0xee19
     f98:	3b0b3a0e 	blcc	2cf7d8 <__bss_end__+0x2c57e8>
     f9c:	0000000b 	andeq	r0, r0, fp
     fa0:	25011101 	strcs	r1, [r1, #-257]	; 0xfffffeff
     fa4:	030b130e 	movweq	r1, #45838	; 0xb30e
     fa8:	110e1b0e 	tstne	lr, lr, lsl #22
     fac:	10061201 	andne	r1, r6, r1, lsl #4
     fb0:	02000017 	andeq	r0, r0, #23
     fb4:	0b0b0024 	bleq	2c104c <__bss_end__+0x2b705c>
     fb8:	08030b3e 	stmdaeq	r3, {r1, r2, r3, r4, r5, r8, r9, fp}
     fbc:	24030000 	strcs	r0, [r3], #-0
     fc0:	3e0b0b00 	vmlacc.f64	d0, d11, d0
     fc4:	000e030b 	andeq	r0, lr, fp, lsl #6
     fc8:	00160400 	andseq	r0, r6, r0, lsl #8
     fcc:	0b3a0e03 	bleq	e847e0 <__bss_end__+0xe7a7f0>
     fd0:	13490b3b 	movtne	r0, #39739	; 0x9b3b
     fd4:	16050000 	strne	r0, [r5], -r0
     fd8:	3a0e0300 	bcc	381be0 <__bss_end__+0x377bf0>
     fdc:	49053b0b 	stmdbmi	r5, {r0, r1, r3, r8, r9, fp, ip, sp}
     fe0:	06000013 			; <UNDEFINED> instruction: 0x06000013
     fe4:	0b0b0117 	bleq	2c1448 <__bss_end__+0x2b7458>
     fe8:	0b3b0b3a 	bleq	ec3cd8 <__bss_end__+0xeb9ce8>
     fec:	00001301 	andeq	r1, r0, r1, lsl #6
     ff0:	03000d07 	movweq	r0, #3335	; 0xd07
     ff4:	3b0b3a0e 	blcc	2cf834 <__bss_end__+0x2c5844>
     ff8:	0013490b 	andseq	r4, r3, fp, lsl #18
     ffc:	01010800 	tsteq	r1, r0, lsl #16
    1000:	13011349 	movwne	r1, #4937	; 0x1349
    1004:	21090000 	mrscs	r0, (UNDEF: 9)
    1008:	2f134900 	svccs	0x00134900
    100c:	0a00000b 	beq	1040 <_start-0x6fc0>
    1010:	0b0b0113 	bleq	2c1464 <__bss_end__+0x2b7474>
    1014:	0b3b0b3a 	bleq	ec3d04 <__bss_end__+0xeb9d14>
    1018:	00001301 	andeq	r1, r0, r1, lsl #6
    101c:	03000d0b 	movweq	r0, #3339	; 0xd0b
    1020:	3b0b3a0e 	blcc	2cf860 <__bss_end__+0x2c5870>
    1024:	3813490b 	ldmdacc	r3, {r0, r1, r3, r8, fp, lr}
    1028:	0c00000b 	stceq	0, cr0, [r0], {11}
    102c:	0b0b000f 	bleq	2c1070 <__bss_end__+0x2b7080>
    1030:	0f0d0000 	svceq	0x000d0000
    1034:	490b0b00 	stmdbmi	fp, {r8, r9, fp}
    1038:	0e000013 	mcreq	0, 0, r0, cr0, cr3, {0}
    103c:	13490026 	movtne	r0, #36902	; 0x9026
    1040:	130f0000 	movwne	r0, #61440	; 0xf000
    1044:	0b0e0301 	bleq	381c50 <__bss_end__+0x377c60>
    1048:	3b0b3a0b 	blcc	2cf87c <__bss_end__+0x2c588c>
    104c:	0013010b 	andseq	r0, r3, fp, lsl #2
    1050:	000d1000 	andeq	r1, sp, r0
    1054:	0b3a0803 	bleq	e83068 <__bss_end__+0xe79078>
    1058:	13490b3b 	movtne	r0, #39739	; 0x9b3b
    105c:	00000b38 	andeq	r0, r0, r8, lsr fp
    1060:	03011311 	movweq	r1, #4881	; 0x1311
    1064:	3a050b0e 	bcc	143ca4 <__bss_end__+0x139cb4>
    1068:	010b3b0b 	tsteq	fp, fp, lsl #22
    106c:	12000013 	andne	r0, r0, #19
    1070:	0e03000d 	cdpeq	0, 0, cr0, cr3, cr13, {0}
    1074:	0b3b0b3a 	bleq	ec3d64 <__bss_end__+0xeb9d74>
    1078:	05381349 	ldreq	r1, [r8, #-841]!	; 0xfffffcb7
    107c:	15130000 	ldrne	r0, [r3, #-0]
    1080:	00192700 	andseq	r2, r9, r0, lsl #14
    1084:	01151400 	tsteq	r5, r0, lsl #8
    1088:	13491927 	movtne	r1, #39207	; 0x9927
    108c:	00001301 	andeq	r1, r0, r1, lsl #6
    1090:	49000515 	stmdbmi	r0, {r0, r2, r4, r8, sl}
    1094:	16000013 			; <UNDEFINED> instruction: 0x16000013
    1098:	0e030113 	mcreq	1, 0, r0, cr3, cr3, {0}
    109c:	0b3a050b 	bleq	e824d0 <__bss_end__+0xe784e0>
    10a0:	1301053b 	movwne	r0, #5435	; 0x153b
    10a4:	0d170000 	ldceq	0, cr0, [r7, #-0]
    10a8:	3a0e0300 	bcc	381cb0 <__bss_end__+0x377cc0>
    10ac:	49053b0b 	stmdbmi	r5, {r0, r1, r3, r8, r9, fp, ip, sp}
    10b0:	000b3813 	andeq	r3, fp, r3, lsl r8
    10b4:	000d1800 	andeq	r1, sp, r0, lsl #16
    10b8:	0b3a0e03 	bleq	e848cc <__bss_end__+0xe7a8dc>
    10bc:	1349053b 	movtne	r0, #38203	; 0x953b
    10c0:	00000538 	andeq	r0, r0, r8, lsr r5
    10c4:	03011319 	movweq	r1, #4889	; 0x1319
    10c8:	3a0b0b0e 	bcc	2c3d08 <__bss_end__+0x2b9d18>
    10cc:	01053b0b 	tsteq	r5, fp, lsl #22
    10d0:	1a000013 	bne	1124 <_start-0x6edc>
    10d4:	0b0b0113 	bleq	2c1528 <__bss_end__+0x2b7538>
    10d8:	053b0b3a 	ldreq	r0, [fp, #-2874]!	; 0xfffff4c6
    10dc:	00001301 	andeq	r1, r0, r1, lsl #6
    10e0:	0b01171b 	bleq	46d54 <__bss_end__+0x3cd64>
    10e4:	3b0b3a0b 	blcc	2cf918 <__bss_end__+0x2c5928>
    10e8:	00130105 	andseq	r0, r3, r5, lsl #2
    10ec:	000d1c00 	andeq	r1, sp, r0, lsl #24
    10f0:	0b3a0e03 	bleq	e84904 <__bss_end__+0xe7a914>
    10f4:	1349053b 	movtne	r0, #38203	; 0x953b
    10f8:	151d0000 	ldrne	r0, [sp, #-0]
    10fc:	01192701 	tsteq	r9, r1, lsl #14
    1100:	1e000013 	mcrne	0, 0, r0, cr0, cr3, {0}
    1104:	0e030034 	mcreq	0, 0, r0, cr3, cr4, {1}
    1108:	053b0b3a 	ldreq	r0, [fp, #-2874]!	; 0xfffff4c6
    110c:	193f1349 	ldmdbne	pc!, {r0, r3, r6, r8, r9, ip}	; <UNPREDICTABLE>
    1110:	0000193c 	andeq	r1, r0, ip, lsr r9
    1114:	0300341f 	movweq	r3, #1055	; 0x41f
    1118:	3b0b3a0e 	blcc	2cf958 <__bss_end__+0x2c5968>
    111c:	3f13490b 	svccc	0x0013490b
    1120:	00193c19 	andseq	r3, r9, r9, lsl ip
    1124:	00342000 	eorseq	r2, r4, r0
    1128:	0b3a0e03 	bleq	e8493c <__bss_end__+0xe7a94c>
    112c:	13490b3b 	movtne	r0, #39739	; 0x9b3b
    1130:	0000193f 	andeq	r1, r0, pc, lsr r9
    1134:	0b010421 	bleq	421c0 <__bss_end__+0x381d0>
    1138:	3a13490b 	bcc	4d356c <__bss_end__+0x4c957c>
    113c:	010b3b0b 	tsteq	fp, fp, lsl #22
    1140:	22000013 	andcs	r0, r0, #19
    1144:	0e030028 	cdpeq	0, 0, cr0, cr3, cr8, {1}
    1148:	00000b1c 	andeq	r0, r0, ip, lsl fp
    114c:	03003423 	movweq	r3, #1059	; 0x423
    1150:	3b0b3a0e 	blcc	2cf990 <__bss_end__+0x2c59a0>
    1154:	0013490b 	andseq	r4, r3, fp, lsl #18
    1158:	012e2400 			; <UNDEFINED> instruction: 0x012e2400
    115c:	0e03193f 			; <UNDEFINED> instruction: 0x0e03193f
    1160:	0b3b0b3a 	bleq	ec3e50 <__bss_end__+0xeb9e60>
    1164:	06120111 			; <UNDEFINED> instruction: 0x06120111
    1168:	42971840 	addsmi	r1, r7, #64, 16	; 0x400000
    116c:	00130119 	andseq	r0, r3, r9, lsl r1
    1170:	002e2500 	eoreq	r2, lr, r0, lsl #10
    1174:	0e03193f 			; <UNDEFINED> instruction: 0x0e03193f
    1178:	0b3b0b3a 	bleq	ec3e68 <__bss_end__+0xeb9e78>
    117c:	193c1927 	ldmdbne	ip!, {r0, r1, r2, r5, r8, fp, ip}
    1180:	34260000 	strtcc	r0, [r6], #-0
    1184:	3a080300 	bcc	201d8c <__bss_end__+0x1f7d9c>
    1188:	490b3b0b 	stmdbmi	fp, {r0, r1, r3, r8, r9, fp, ip, sp}
    118c:	00170213 	andseq	r0, r7, r3, lsl r2
    1190:	82892700 	addhi	r2, r9, #0, 14
    1194:	01110001 	tsteq	r1, r1
    1198:	00001331 	andeq	r1, r0, r1, lsr r3
    119c:	01828928 	orreq	r8, r2, r8, lsr #18
    11a0:	31011101 	tstcc	r1, r1, lsl #2
    11a4:	29000013 	stmdbcs	r0, {r0, r1, r4}
    11a8:	0001828a 	andeq	r8, r1, sl, lsl #5
    11ac:	42911802 	addsmi	r1, r1, #131072	; 0x20000
    11b0:	2a000018 	bcs	1218 <_start-0x6de8>
    11b4:	0e03012e 	adfeqsp	f0, f3, #0.5
    11b8:	0b3b0b3a 	bleq	ec3ea8 <__bss_end__+0xeb9eb8>
    11bc:	13491927 	movtne	r1, #39207	; 0x9927
    11c0:	06120111 			; <UNDEFINED> instruction: 0x06120111
    11c4:	42971840 	addsmi	r1, r7, #64, 16	; 0x400000
    11c8:	00130119 	andseq	r0, r3, r9, lsl r1
    11cc:	00052b00 	andeq	r2, r5, r0, lsl #22
    11d0:	0b3a0803 	bleq	e831e4 <__bss_end__+0xe791f4>
    11d4:	13490b3b 	movtne	r0, #39739	; 0x9b3b
    11d8:	00001802 	andeq	r1, r0, r2, lsl #16
    11dc:	3f002e2c 	svccc	0x00002e2c
    11e0:	6e193c19 	mrcvs	12, 0, r3, cr9, cr9, {0}
    11e4:	3a0e030e 	bcc	381e24 <__bss_end__+0x377e34>
    11e8:	000b3b0b 	andeq	r3, fp, fp, lsl #22
    11ec:	11010000 	mrsne	r0, (UNDEF: 1)
    11f0:	130e2501 	movwne	r2, #58625	; 0xe501
    11f4:	1b0e030b 	blne	381e28 <__bss_end__+0x377e38>
    11f8:	1117550e 	tstne	r7, lr, lsl #10
    11fc:	00171001 	andseq	r1, r7, r1
    1200:	00240200 	eoreq	r0, r4, r0, lsl #4
    1204:	0b3e0b0b 	bleq	f83e38 <__bss_end__+0xf79e48>
    1208:	00000803 	andeq	r0, r0, r3, lsl #16
    120c:	49002603 	stmdbmi	r0, {r0, r1, r9, sl, sp}
    1210:	04000013 	streq	r0, [r0], #-19	; 0xffffffed
    1214:	0b0b0024 	bleq	2c12ac <__bss_end__+0x2b72bc>
    1218:	0e030b3e 	vmoveq.16	d3[0], r0
    121c:	16050000 	strne	r0, [r5], -r0
    1220:	3a0e0300 	bcc	381e28 <__bss_end__+0x377e38>
    1224:	490b3b0b 	stmdbmi	fp, {r0, r1, r3, r8, r9, fp, ip, sp}
    1228:	06000013 			; <UNDEFINED> instruction: 0x06000013
    122c:	0e030016 	mcreq	0, 0, r0, cr3, cr6, {0}
    1230:	053b0b3a 	ldreq	r0, [fp, #-2874]!	; 0xfffff4c6
    1234:	00001349 	andeq	r1, r0, r9, asr #6
    1238:	0b011707 	bleq	46e5c <__bss_end__+0x3ce6c>
    123c:	3b0b3a0b 	blcc	2cfa70 <__bss_end__+0x2c5a80>
    1240:	0013010b 	andseq	r0, r3, fp, lsl #2
    1244:	000d0800 	andeq	r0, sp, r0, lsl #16
    1248:	0b3a0e03 	bleq	e84a5c <__bss_end__+0xe7aa6c>
    124c:	13490b3b 	movtne	r0, #39739	; 0x9b3b
    1250:	01090000 	mrseq	r0, (UNDEF: 9)
    1254:	01134901 	tsteq	r3, r1, lsl #18
    1258:	0a000013 	beq	12ac <_start-0x6d54>
    125c:	13490021 	movtne	r0, #36897	; 0x9021
    1260:	00000b2f 	andeq	r0, r0, pc, lsr #22
    1264:	0b01130b 	bleq	45e98 <__bss_end__+0x3bea8>
    1268:	3b0b3a0b 	blcc	2cfa9c <__bss_end__+0x2c5aac>
    126c:	0013010b 	andseq	r0, r3, fp, lsl #2
    1270:	000d0c00 	andeq	r0, sp, r0, lsl #24
    1274:	0b3a0e03 	bleq	e84a88 <__bss_end__+0xe7aa98>
    1278:	13490b3b 	movtne	r0, #39739	; 0x9b3b
    127c:	00000b38 	andeq	r0, r0, r8, lsr fp
    1280:	0b000f0d 	bleq	4ebc <_start-0x3144>
    1284:	0e00000b 	cdpeq	0, 0, cr0, cr0, cr11, {0}
    1288:	0b0b000f 	bleq	2c12cc <__bss_end__+0x2b72dc>
    128c:	00001349 	andeq	r1, r0, r9, asr #6
    1290:	0301130f 	movweq	r1, #4879	; 0x130f
    1294:	3a0b0b0e 	bcc	2c3ed4 <__bss_end__+0x2b9ee4>
    1298:	010b3b0b 	tsteq	fp, fp, lsl #22
    129c:	10000013 	andne	r0, r0, r3, lsl r0
    12a0:	0803000d 	stmdaeq	r3, {r0, r2, r3}
    12a4:	0b3b0b3a 	bleq	ec3f94 <__bss_end__+0xeb9fa4>
    12a8:	0b381349 	bleq	e05fd4 <__bss_end__+0xdfbfe4>
    12ac:	13110000 	tstne	r1, #0
    12b0:	0b0e0301 	bleq	381ebc <__bss_end__+0x377ecc>
    12b4:	3b0b3a05 	blcc	2cfad0 <__bss_end__+0x2c5ae0>
    12b8:	0013010b 	andseq	r0, r3, fp, lsl #2
    12bc:	000d1200 	andeq	r1, sp, r0, lsl #4
    12c0:	0b3a0e03 	bleq	e84ad4 <__bss_end__+0xe7aae4>
    12c4:	13490b3b 	movtne	r0, #39739	; 0x9b3b
    12c8:	00000538 	andeq	r0, r0, r8, lsr r5
    12cc:	27001513 	smladcs	r0, r3, r5, r1
    12d0:	14000019 	strne	r0, [r0], #-25	; 0xffffffe7
    12d4:	19270115 	stmdbne	r7!, {r0, r2, r4, r8}
    12d8:	13011349 	movwne	r1, #4937	; 0x1349
    12dc:	05150000 	ldreq	r0, [r5, #-0]
    12e0:	00134900 	andseq	r4, r3, r0, lsl #18
    12e4:	01131600 	tsteq	r3, r0, lsl #12
    12e8:	050b0e03 	streq	r0, [fp, #-3587]	; 0xfffff1fd
    12ec:	053b0b3a 	ldreq	r0, [fp, #-2874]!	; 0xfffff4c6
    12f0:	00001301 	andeq	r1, r0, r1, lsl #6
    12f4:	03000d17 	movweq	r0, #3351	; 0xd17
    12f8:	3b0b3a0e 	blcc	2cfb38 <__bss_end__+0x2c5b48>
    12fc:	38134905 	ldmdacc	r3, {r0, r2, r8, fp, lr}
    1300:	1800000b 	stmdane	r0, {r0, r1, r3}
    1304:	0e03000d 	cdpeq	0, 0, cr0, cr3, cr13, {0}
    1308:	053b0b3a 	ldreq	r0, [fp, #-2874]!	; 0xfffff4c6
    130c:	05381349 	ldreq	r1, [r8, #-841]!	; 0xfffffcb7
    1310:	13190000 	tstne	r9, #0
    1314:	0b0e0301 	bleq	381f20 <__bss_end__+0x377f30>
    1318:	3b0b3a0b 	blcc	2cfb4c <__bss_end__+0x2c5b5c>
    131c:	00130105 	andseq	r0, r3, r5, lsl #2
    1320:	01131a00 	tsteq	r3, r0, lsl #20
    1324:	0b3a0b0b 	bleq	e83f58 <__bss_end__+0xe79f68>
    1328:	1301053b 	movwne	r0, #5435	; 0x153b
    132c:	171b0000 	ldrne	r0, [fp, -r0]
    1330:	3a0b0b01 	bcc	2c3f3c <__bss_end__+0x2b9f4c>
    1334:	01053b0b 	tsteq	r5, fp, lsl #22
    1338:	1c000013 	stcne	0, cr0, [r0], {19}
    133c:	0e03000d 	cdpeq	0, 0, cr0, cr3, cr13, {0}
    1340:	053b0b3a 	ldreq	r0, [fp, #-2874]!	; 0xfffff4c6
    1344:	00001349 	andeq	r1, r0, r9, asr #6
    1348:	2701151d 	smladcs	r1, sp, r5, r1
    134c:	00130119 	andseq	r0, r3, r9, lsl r1
    1350:	00341e00 	eorseq	r1, r4, r0, lsl #28
    1354:	0b3a0e03 	bleq	e84b68 <__bss_end__+0xe7ab78>
    1358:	1349053b 	movtne	r0, #38203	; 0x953b
    135c:	193c193f 	ldmdbne	ip!, {r0, r1, r2, r3, r4, r5, r8, fp, ip}
    1360:	341f0000 	ldrcc	r0, [pc], #-0	; 1368 <_start-0x6c98>
    1364:	3a0e0300 	bcc	381f6c <__bss_end__+0x377f7c>
    1368:	490b3b0b 	stmdbmi	fp, {r0, r1, r3, r8, r9, fp, ip, sp}
    136c:	3c193f13 	ldccc	15, cr3, [r9], {19}
    1370:	20000019 	andcs	r0, r0, r9, lsl r0
    1374:	0e030034 	mcreq	0, 0, r0, cr3, cr4, {1}
    1378:	0b3b0b3a 	bleq	ec4068 <__bss_end__+0xeba078>
    137c:	00001349 	andeq	r1, r0, r9, asr #6
    1380:	3f012e21 	svccc	0x00012e21
    1384:	3a0e0319 	bcc	381ff0 <__bss_end__+0x378000>
    1388:	270b3b0b 	strcs	r3, [fp, -fp, lsl #22]
    138c:	19018719 	stmdbne	r1, {r0, r3, r4, r8, r9, sl, pc}
    1390:	06120111 			; <UNDEFINED> instruction: 0x06120111
    1394:	42971840 	addsmi	r1, r7, #64, 16	; 0x400000
    1398:	00130119 	andseq	r0, r3, r9, lsl r1
    139c:	00342200 	eorseq	r2, r4, r0, lsl #4
    13a0:	0b3a0e03 	bleq	e84bb4 <__bss_end__+0xe7abc4>
    13a4:	13490b3b 	movtne	r0, #39739	; 0x9b3b
    13a8:	00001702 	andeq	r1, r0, r2, lsl #14
    13ac:	01828923 	orreq	r8, r2, r3, lsr #18
    13b0:	31011100 	mrscc	r1, (UNDEF: 17)
    13b4:	24000013 	strcs	r0, [r0], #-19	; 0xffffffed
    13b8:	01018289 	smlabbeq	r1, r9, r2, r8
    13bc:	13310111 	teqne	r1, #1073741828	; 0x40000004
    13c0:	00001301 	andeq	r1, r0, r1, lsl #6
    13c4:	01828a25 	orreq	r8, r2, r5, lsr #20
    13c8:	91180200 	tstls	r8, r0, lsl #4
    13cc:	00001842 	andeq	r1, r0, r2, asr #16
    13d0:	3f012e26 	svccc	0x00012e26
    13d4:	3a0e0319 	bcc	382040 <__bss_end__+0x378050>
    13d8:	270b3b0b 	strcs	r3, [fp, -fp, lsl #22]
    13dc:	12011119 	andne	r1, r1, #1073741830	; 0x40000006
    13e0:	97184006 	ldrls	r4, [r8, -r6]
    13e4:	13011942 	movwne	r1, #6466	; 0x1942
    13e8:	2e270000 	cdpcs	0, 2, cr0, cr7, cr0, {0}
    13ec:	03193f01 	tsteq	r9, #1, 30
    13f0:	3b0b3a0e 	blcc	2cfc30 <__bss_end__+0x2c5c40>
    13f4:	4919270b 	ldmdbmi	r9, {r0, r1, r3, r8, r9, sl, sp}
    13f8:	12011113 	andne	r1, r1, #-1073741820	; 0xc0000004
    13fc:	97184006 	ldrls	r4, [r8, -r6]
    1400:	13011942 	movwne	r1, #6466	; 0x1942
    1404:	2e280000 	cdpcs	0, 2, cr0, cr8, cr0, {0}
    1408:	3c193f00 	ldccc	15, cr3, [r9], {-0}
    140c:	030e6e19 	movweq	r6, #60953	; 0xee19
    1410:	3b0b3a0e 	blcc	2cfc50 <__bss_end__+0x2c5c60>
    1414:	0000000b 	andeq	r0, r0, fp
    1418:	25011101 	strcs	r1, [r1, #-257]	; 0xfffffeff
    141c:	030b130e 	movweq	r1, #45838	; 0xb30e
    1420:	110e1b0e 	tstne	lr, lr, lsl #22
    1424:	10061201 	andne	r1, r6, r1, lsl #4
    1428:	02000017 	andeq	r0, r0, #23
    142c:	0b0b0024 	bleq	2c14c4 <__bss_end__+0x2b74d4>
    1430:	08030b3e 	stmdaeq	r3, {r1, r2, r3, r4, r5, r8, r9, fp}
    1434:	24030000 	strcs	r0, [r3], #-0
    1438:	3e0b0b00 	vmlacc.f64	d0, d11, d0
    143c:	000e030b 	andeq	r0, lr, fp, lsl #6
    1440:	00160400 	andseq	r0, r6, r0, lsl #8
    1444:	0b3a0e03 	bleq	e84c58 <__bss_end__+0xe7ac68>
    1448:	13490b3b 	movtne	r0, #39739	; 0x9b3b
    144c:	16050000 	strne	r0, [r5], -r0
    1450:	3a0e0300 	bcc	382058 <__bss_end__+0x378068>
    1454:	49053b0b 	stmdbmi	r5, {r0, r1, r3, r8, r9, fp, ip, sp}
    1458:	06000013 			; <UNDEFINED> instruction: 0x06000013
    145c:	0b0b0117 	bleq	2c18c0 <__bss_end__+0x2b78d0>
    1460:	0b3b0b3a 	bleq	ec4150 <__bss_end__+0xeba160>
    1464:	00001301 	andeq	r1, r0, r1, lsl #6
    1468:	03000d07 	movweq	r0, #3335	; 0xd07
    146c:	3b0b3a0e 	blcc	2cfcac <__bss_end__+0x2c5cbc>
    1470:	0013490b 	andseq	r4, r3, fp, lsl #18
    1474:	01010800 	tsteq	r1, r0, lsl #16
    1478:	13011349 	movwne	r1, #4937	; 0x1349
    147c:	21090000 	mrscs	r0, (UNDEF: 9)
    1480:	2f134900 	svccs	0x00134900
    1484:	0a00000b 	beq	14b8 <_start-0x6b48>
    1488:	0b0b0113 	bleq	2c18dc <__bss_end__+0x2b78ec>
    148c:	0b3b0b3a 	bleq	ec417c <__bss_end__+0xeba18c>
    1490:	00001301 	andeq	r1, r0, r1, lsl #6
    1494:	03000d0b 	movweq	r0, #3339	; 0xd0b
    1498:	3b0b3a0e 	blcc	2cfcd8 <__bss_end__+0x2c5ce8>
    149c:	3813490b 	ldmdacc	r3, {r0, r1, r3, r8, fp, lr}
    14a0:	0c00000b 	stceq	0, cr0, [r0], {11}
    14a4:	0b0b000f 	bleq	2c14e8 <__bss_end__+0x2b74f8>
    14a8:	0f0d0000 	svceq	0x000d0000
    14ac:	490b0b00 	stmdbmi	fp, {r8, r9, fp}
    14b0:	0e000013 	mcreq	0, 0, r0, cr0, cr3, {0}
    14b4:	13490026 	movtne	r0, #36902	; 0x9026
    14b8:	130f0000 	movwne	r0, #61440	; 0xf000
    14bc:	0b0e0301 	bleq	3820c8 <__bss_end__+0x3780d8>
    14c0:	3b0b3a0b 	blcc	2cfcf4 <__bss_end__+0x2c5d04>
    14c4:	0013010b 	andseq	r0, r3, fp, lsl #2
    14c8:	000d1000 	andeq	r1, sp, r0
    14cc:	0b3a0803 	bleq	e834e0 <__bss_end__+0xe794f0>
    14d0:	13490b3b 	movtne	r0, #39739	; 0x9b3b
    14d4:	00000b38 	andeq	r0, r0, r8, lsr fp
    14d8:	03011311 	movweq	r1, #4881	; 0x1311
    14dc:	3a050b0e 	bcc	14411c <__bss_end__+0x13a12c>
    14e0:	010b3b0b 	tsteq	fp, fp, lsl #22
    14e4:	12000013 	andne	r0, r0, #19
    14e8:	0e03000d 	cdpeq	0, 0, cr0, cr3, cr13, {0}
    14ec:	0b3b0b3a 	bleq	ec41dc <__bss_end__+0xeba1ec>
    14f0:	05381349 	ldreq	r1, [r8, #-841]!	; 0xfffffcb7
    14f4:	15130000 	ldrne	r0, [r3, #-0]
    14f8:	00192700 	andseq	r2, r9, r0, lsl #14
    14fc:	01151400 	tsteq	r5, r0, lsl #8
    1500:	13491927 	movtne	r1, #39207	; 0x9927
    1504:	00001301 	andeq	r1, r0, r1, lsl #6
    1508:	49000515 	stmdbmi	r0, {r0, r2, r4, r8, sl}
    150c:	16000013 			; <UNDEFINED> instruction: 0x16000013
    1510:	0e030113 	mcreq	1, 0, r0, cr3, cr3, {0}
    1514:	0b3a050b 	bleq	e82948 <__bss_end__+0xe78958>
    1518:	1301053b 	movwne	r0, #5435	; 0x153b
    151c:	0d170000 	ldceq	0, cr0, [r7, #-0]
    1520:	3a0e0300 	bcc	382128 <__bss_end__+0x378138>
    1524:	49053b0b 	stmdbmi	r5, {r0, r1, r3, r8, r9, fp, ip, sp}
    1528:	000b3813 	andeq	r3, fp, r3, lsl r8
    152c:	000d1800 	andeq	r1, sp, r0, lsl #16
    1530:	0b3a0e03 	bleq	e84d44 <__bss_end__+0xe7ad54>
    1534:	1349053b 	movtne	r0, #38203	; 0x953b
    1538:	00000538 	andeq	r0, r0, r8, lsr r5
    153c:	03011319 	movweq	r1, #4889	; 0x1319
    1540:	3a0b0b0e 	bcc	2c4180 <__bss_end__+0x2ba190>
    1544:	01053b0b 	tsteq	r5, fp, lsl #22
    1548:	1a000013 	bne	159c <_start-0x6a64>
    154c:	0b0b0113 	bleq	2c19a0 <__bss_end__+0x2b79b0>
    1550:	053b0b3a 	ldreq	r0, [fp, #-2874]!	; 0xfffff4c6
    1554:	00001301 	andeq	r1, r0, r1, lsl #6
    1558:	0b01171b 	bleq	471cc <__bss_end__+0x3d1dc>
    155c:	3b0b3a0b 	blcc	2cfd90 <__bss_end__+0x2c5da0>
    1560:	00130105 	andseq	r0, r3, r5, lsl #2
    1564:	000d1c00 	andeq	r1, sp, r0, lsl #24
    1568:	0b3a0e03 	bleq	e84d7c <__bss_end__+0xe7ad8c>
    156c:	1349053b 	movtne	r0, #38203	; 0x953b
    1570:	151d0000 	ldrne	r0, [sp, #-0]
    1574:	01192701 	tsteq	r9, r1, lsl #14
    1578:	1e000013 	mcrne	0, 0, r0, cr0, cr3, {0}
    157c:	0e030034 	mcreq	0, 0, r0, cr3, cr4, {1}
    1580:	053b0b3a 	ldreq	r0, [fp, #-2874]!	; 0xfffff4c6
    1584:	193f1349 	ldmdbne	pc!, {r0, r3, r6, r8, r9, ip}	; <UNPREDICTABLE>
    1588:	0000193c 	andeq	r1, r0, ip, lsr r9
    158c:	0300341f 	movweq	r3, #1055	; 0x41f
    1590:	3b0b3a0e 	blcc	2cfdd0 <__bss_end__+0x2c5de0>
    1594:	3f13490b 	svccc	0x0013490b
    1598:	00193c19 	andseq	r3, r9, r9, lsl ip
    159c:	012e2000 			; <UNDEFINED> instruction: 0x012e2000
    15a0:	0e03193f 			; <UNDEFINED> instruction: 0x0e03193f
    15a4:	0b3b0b3a 	bleq	ec4294 <__bss_end__+0xeba2a4>
    15a8:	01871927 	orreq	r1, r7, r7, lsr #18
    15ac:	12011119 	andne	r1, r1, #1073741830	; 0x40000006
    15b0:	97184006 	ldrls	r4, [r8, -r6]
    15b4:	13011942 	movwne	r1, #6466	; 0x1942
    15b8:	89210000 	stmdbhi	r1!, {}	; <UNPREDICTABLE>
    15bc:	11010182 	smlabbne	r1, r2, r1, r0
    15c0:	00130101 	andseq	r0, r3, r1, lsl #2
    15c4:	828a2200 	addhi	r2, sl, #0, 4
    15c8:	18020001 	stmdane	r2, {r0}
    15cc:	00184291 	mulseq	r8, r1, r2
    15d0:	82892300 	addhi	r2, r9, #0, 6
    15d4:	01110101 	tsteq	r1, r1, lsl #2
    15d8:	13011331 	movwne	r1, #4913	; 0x1331
    15dc:	89240000 	stmdbhi	r4!, {}	; <UNPREDICTABLE>
    15e0:	11000182 	smlabbne	r0, r2, r1, r0
    15e4:	00133101 	andseq	r3, r3, r1, lsl #2
    15e8:	002e2500 	eoreq	r2, lr, r0, lsl #10
    15ec:	193c193f 	ldmdbne	ip!, {r0, r1, r2, r3, r4, r5, r8, fp, ip}
    15f0:	0e030e6e 	cdpeq	14, 0, cr0, cr3, cr14, {3}
    15f4:	0b3b0b3a 	bleq	ec42e4 <__bss_end__+0xeba2f4>
    15f8:	01000000 	mrseq	r0, (UNDEF: 0)
    15fc:	0e250111 	mcreq	1, 1, r0, cr5, cr1, {0}
    1600:	0e030b13 	vmoveq.32	d3[0], r0
    1604:	01110e1b 	tsteq	r1, fp, lsl lr
    1608:	17100612 			; <UNDEFINED> instruction: 0x17100612
    160c:	24020000 	strcs	r0, [r2], #-0
    1610:	3e0b0b00 	vmlacc.f64	d0, d11, d0
    1614:	0008030b 	andeq	r0, r8, fp, lsl #6
    1618:	00240300 	eoreq	r0, r4, r0, lsl #6
    161c:	0b3e0b0b 	bleq	f84250 <__bss_end__+0xf7a260>
    1620:	00000e03 	andeq	r0, r0, r3, lsl #28
    1624:	03001604 	movweq	r1, #1540	; 0x604
    1628:	3b0b3a0e 	blcc	2cfe68 <__bss_end__+0x2c5e78>
    162c:	0013490b 	andseq	r4, r3, fp, lsl #18
    1630:	00160500 	andseq	r0, r6, r0, lsl #10
    1634:	0b3a0e03 	bleq	e84e48 <__bss_end__+0xe7ae58>
    1638:	1349053b 	movtne	r0, #38203	; 0x953b
    163c:	17060000 	strne	r0, [r6, -r0]
    1640:	3a0b0b01 	bcc	2c424c <__bss_end__+0x2ba25c>
    1644:	010b3b0b 	tsteq	fp, fp, lsl #22
    1648:	07000013 	smladeq	r0, r3, r0, r0
    164c:	0e03000d 	cdpeq	0, 0, cr0, cr3, cr13, {0}
    1650:	0b3b0b3a 	bleq	ec4340 <__bss_end__+0xeba350>
    1654:	00001349 	andeq	r1, r0, r9, asr #6
    1658:	49010108 	stmdbmi	r1, {r3, r8}
    165c:	00130113 	andseq	r0, r3, r3, lsl r1
    1660:	00210900 	eoreq	r0, r1, r0, lsl #18
    1664:	0b2f1349 	bleq	bc6390 <__bss_end__+0xbbc3a0>
    1668:	130a0000 	movwne	r0, #40960	; 0xa000
    166c:	3a0b0b01 	bcc	2c4278 <__bss_end__+0x2ba288>
    1670:	010b3b0b 	tsteq	fp, fp, lsl #22
    1674:	0b000013 	bleq	16c8 <_start-0x6938>
    1678:	0e03000d 	cdpeq	0, 0, cr0, cr3, cr13, {0}
    167c:	0b3b0b3a 	bleq	ec436c <__bss_end__+0xeba37c>
    1680:	0b381349 	bleq	e063ac <__bss_end__+0xdfc3bc>
    1684:	0f0c0000 	svceq	0x000c0000
    1688:	000b0b00 	andeq	r0, fp, r0, lsl #22
    168c:	000f0d00 	andeq	r0, pc, r0, lsl #26
    1690:	13490b0b 	movtne	r0, #39691	; 0x9b0b
    1694:	260e0000 	strcs	r0, [lr], -r0
    1698:	00134900 	andseq	r4, r3, r0, lsl #18
    169c:	01130f00 	tsteq	r3, r0, lsl #30
    16a0:	0b0b0e03 	bleq	2c4eb4 <__bss_end__+0x2baec4>
    16a4:	0b3b0b3a 	bleq	ec4394 <__bss_end__+0xeba3a4>
    16a8:	00001301 	andeq	r1, r0, r1, lsl #6
    16ac:	03000d10 	movweq	r0, #3344	; 0xd10
    16b0:	3b0b3a08 	blcc	2cfed8 <__bss_end__+0x2c5ee8>
    16b4:	3813490b 	ldmdacc	r3, {r0, r1, r3, r8, fp, lr}
    16b8:	1100000b 	tstne	r0, fp
    16bc:	0e030113 	mcreq	1, 0, r0, cr3, cr3, {0}
    16c0:	0b3a050b 	bleq	e82af4 <__bss_end__+0xe78b04>
    16c4:	13010b3b 	movwne	r0, #6971	; 0x1b3b
    16c8:	0d120000 	ldceq	0, cr0, [r2, #-0]
    16cc:	3a0e0300 	bcc	3822d4 <__bss_end__+0x3782e4>
    16d0:	490b3b0b 	stmdbmi	fp, {r0, r1, r3, r8, r9, fp, ip, sp}
    16d4:	00053813 	andeq	r3, r5, r3, lsl r8
    16d8:	00151300 	andseq	r1, r5, r0, lsl #6
    16dc:	00001927 	andeq	r1, r0, r7, lsr #18
    16e0:	27011514 	smladcs	r1, r4, r5, r1
    16e4:	01134919 	tsteq	r3, r9, lsl r9
    16e8:	15000013 	strne	r0, [r0, #-19]	; 0xffffffed
    16ec:	13490005 	movtne	r0, #36869	; 0x9005
    16f0:	13160000 	tstne	r6, #0
    16f4:	0b0e0301 	bleq	382300 <__bss_end__+0x378310>
    16f8:	3b0b3a05 	blcc	2cff14 <__bss_end__+0x2c5f24>
    16fc:	00130105 	andseq	r0, r3, r5, lsl #2
    1700:	000d1700 	andeq	r1, sp, r0, lsl #14
    1704:	0b3a0e03 	bleq	e84f18 <__bss_end__+0xe7af28>
    1708:	1349053b 	movtne	r0, #38203	; 0x953b
    170c:	00000b38 	andeq	r0, r0, r8, lsr fp
    1710:	03000d18 	movweq	r0, #3352	; 0xd18
    1714:	3b0b3a0e 	blcc	2cff54 <__bss_end__+0x2c5f64>
    1718:	38134905 	ldmdacc	r3, {r0, r2, r8, fp, lr}
    171c:	19000005 	stmdbne	r0, {r0, r2}
    1720:	0e030113 	mcreq	1, 0, r0, cr3, cr3, {0}
    1724:	0b3a0b0b 	bleq	e84358 <__bss_end__+0xe7a368>
    1728:	1301053b 	movwne	r0, #5435	; 0x153b
    172c:	131a0000 	tstne	sl, #0
    1730:	3a0b0b01 	bcc	2c433c <__bss_end__+0x2ba34c>
    1734:	01053b0b 	tsteq	r5, fp, lsl #22
    1738:	1b000013 	blne	178c <_start-0x6874>
    173c:	0b0b0117 	bleq	2c1ba0 <__bss_end__+0x2b7bb0>
    1740:	053b0b3a 	ldreq	r0, [fp, #-2874]!	; 0xfffff4c6
    1744:	00001301 	andeq	r1, r0, r1, lsl #6
    1748:	03000d1c 	movweq	r0, #3356	; 0xd1c
    174c:	3b0b3a0e 	blcc	2cff8c <__bss_end__+0x2c5f9c>
    1750:	00134905 	andseq	r4, r3, r5, lsl #18
    1754:	01151d00 	tsteq	r5, r0, lsl #26
    1758:	13011927 	movwne	r1, #6439	; 0x1927
    175c:	341e0000 	ldrcc	r0, [lr], #-0
    1760:	3a0e0300 	bcc	382368 <__bss_end__+0x378378>
    1764:	49053b0b 	stmdbmi	r5, {r0, r1, r3, r8, r9, fp, ip, sp}
    1768:	3c193f13 	ldccc	15, cr3, [r9], {19}
    176c:	1f000019 	svcne	0x00000019
    1770:	0e030034 	mcreq	0, 0, r0, cr3, cr4, {1}
    1774:	0b3b0b3a 	bleq	ec4464 <__bss_end__+0xeba474>
    1778:	193f1349 	ldmdbne	pc!, {r0, r3, r6, r8, r9, ip}	; <UNPREDICTABLE>
    177c:	0000193c 	andeq	r1, r0, ip, lsr r9
    1780:	3f012e20 	svccc	0x00012e20
    1784:	3a0e0319 	bcc	3823f0 <__bss_end__+0x378400>
    1788:	270b3b0b 	strcs	r3, [fp, -fp, lsl #22]
    178c:	12011119 	andne	r1, r1, #1073741830	; 0x40000006
    1790:	97184006 	ldrls	r4, [r8, -r6]
    1794:	13011942 	movwne	r1, #6466	; 0x1942
    1798:	05210000 	streq	r0, [r1, #-0]!
    179c:	3a080300 	bcc	2023a4 <__bss_end__+0x1f83b4>
    17a0:	490b3b0b 	stmdbmi	fp, {r0, r1, r3, r8, r9, fp, ip, sp}
    17a4:	00170213 	andseq	r0, r7, r3, lsl r2
    17a8:	82892200 	addhi	r2, r9, #0, 4
    17ac:	01110101 	tsteq	r1, r1, lsl #2
    17b0:	00001331 	andeq	r1, r0, r1, lsr r3
    17b4:	01828a23 	orreq	r8, r2, r3, lsr #20
    17b8:	91180200 	tstls	r8, r0, lsl #4
    17bc:	00001842 	andeq	r1, r0, r2, asr #16
    17c0:	03003424 	movweq	r3, #1060	; 0x424
    17c4:	3b0b3a08 	blcc	2cffec <__bss_end__+0x2c5ffc>
    17c8:	0213490b 	andseq	r4, r3, #180224	; 0x2c000
    17cc:	25000018 	strcs	r0, [r0, #-24]	; 0xffffffe8
    17d0:	0111010b 	tsteq	r1, fp, lsl #2
    17d4:	13010612 	movwne	r0, #5650	; 0x1612
    17d8:	34260000 	strtcc	r0, [r6], #-0
    17dc:	3a080300 	bcc	2023e4 <__bss_end__+0x1f83f4>
    17e0:	490b3b0b 	stmdbmi	fp, {r0, r1, r3, r8, r9, fp, ip, sp}
    17e4:	00170213 	andseq	r0, r7, r3, lsl r2
    17e8:	82892700 	addhi	r2, r9, #0, 14
    17ec:	01110001 	tsteq	r1, r1
    17f0:	00001331 	andeq	r1, r0, r1, lsr r3
    17f4:	3f012e28 	svccc	0x00012e28
    17f8:	3a0e0319 	bcc	382464 <__bss_end__+0x378474>
    17fc:	270b3b0b 	strcs	r3, [fp, -fp, lsl #22]
    1800:	11134919 	tstne	r3, r9, lsl r9
    1804:	40061201 	andmi	r1, r6, r1, lsl #4
    1808:	19429718 	stmdbne	r2, {r3, r4, r8, r9, sl, ip, pc}^
    180c:	00001301 	andeq	r1, r0, r1, lsl #6
    1810:	03000529 	movweq	r0, #1321	; 0x529
    1814:	3b0b3a0e 	blcc	2d0054 <__bss_end__+0x2c6064>
    1818:	0213490b 	andseq	r4, r3, #180224	; 0x2c000
    181c:	2a000017 	bcs	1880 <_start-0x6780>
    1820:	193f002e 	ldmdbne	pc!, {r1, r2, r3, r5}	; <UNPREDICTABLE>
    1824:	0e6e193c 			; <UNDEFINED> instruction: 0x0e6e193c
    1828:	0b3a0e03 	bleq	e8503c <__bss_end__+0xe7b04c>
    182c:	00000b3b 	andeq	r0, r0, fp, lsr fp
    1830:	01110100 	tsteq	r1, r0, lsl #2
    1834:	0b130e25 	bleq	4c50d0 <__bss_end__+0x4bb0e0>
    1838:	0e1b0e03 	cdpeq	14, 1, cr0, cr11, cr3, {0}
    183c:	06120111 			; <UNDEFINED> instruction: 0x06120111
    1840:	00001710 	andeq	r1, r0, r0, lsl r7
    1844:	0b002402 	bleq	a854 <__bss_end__+0x864>
    1848:	030b3e0b 	movweq	r3, #48651	; 0xbe0b
    184c:	03000008 	movweq	r0, #8
    1850:	0b0b0024 	bleq	2c18e8 <__bss_end__+0x2b78f8>
    1854:	0e030b3e 	vmoveq.16	d3[0], r0
    1858:	35040000 	strcc	r0, [r4, #-0]
    185c:	00134900 	andseq	r4, r3, r0, lsl #18
    1860:	00160500 	andseq	r0, r6, r0, lsl #10
    1864:	0b3a0e03 	bleq	e85078 <__bss_end__+0xe7b088>
    1868:	13490b3b 	movtne	r0, #39739	; 0x9b3b
    186c:	0f060000 	svceq	0x00060000
    1870:	490b0b00 	stmdbmi	fp, {r8, r9, fp}
    1874:	07000013 	smladeq	r0, r3, r0, r0
    1878:	0e030013 	mcreq	0, 0, r0, cr3, cr3, {0}
    187c:	0000193c 	andeq	r1, r0, ip, lsr r9
    1880:	03001608 	movweq	r1, #1544	; 0x608
    1884:	3b0b3a0e 	blcc	2d00c4 <__bss_end__+0x2c60d4>
    1888:	00134905 	andseq	r4, r3, r5, lsl #18
    188c:	01170900 	tsteq	r7, r0, lsl #18
    1890:	0b3a0b0b 	bleq	e844c4 <__bss_end__+0xe7a4d4>
    1894:	13010b3b 	movwne	r0, #6971	; 0x1b3b
    1898:	0d0a0000 	stceq	0, cr0, [sl, #-0]
    189c:	3a0e0300 	bcc	3824a4 <__bss_end__+0x3784b4>
    18a0:	490b3b0b 	stmdbmi	fp, {r0, r1, r3, r8, r9, fp, ip, sp}
    18a4:	0b000013 	bleq	18f8 <_start-0x6708>
    18a8:	13490101 	movtne	r0, #37121	; 0x9101
    18ac:	00001301 	andeq	r1, r0, r1, lsl #6
    18b0:	4900210c 	stmdbmi	r0, {r2, r3, r8, sp}
    18b4:	000b2f13 	andeq	r2, fp, r3, lsl pc
    18b8:	01130d00 	tsteq	r3, r0, lsl #26
    18bc:	0b3a0b0b 	bleq	e844f0 <__bss_end__+0xe7a500>
    18c0:	13010b3b 	movwne	r0, #6971	; 0x1b3b
    18c4:	0d0e0000 	stceq	0, cr0, [lr, #-0]
    18c8:	3a0e0300 	bcc	3824d0 <__bss_end__+0x3784e0>
    18cc:	490b3b0b 	stmdbmi	fp, {r0, r1, r3, r8, r9, fp, ip, sp}
    18d0:	000b3813 	andeq	r3, fp, r3, lsl r8
    18d4:	000f0f00 	andeq	r0, pc, r0, lsl #30
    18d8:	00000b0b 	andeq	r0, r0, fp, lsl #22
    18dc:	49002610 	stmdbmi	r0, {r4, r9, sl, sp}
    18e0:	11000013 	tstne	r0, r3, lsl r0
    18e4:	0e030113 	mcreq	1, 0, r0, cr3, cr3, {0}
    18e8:	0b3a0b0b 	bleq	e8451c <__bss_end__+0xe7a52c>
    18ec:	13010b3b 	movwne	r0, #6971	; 0x1b3b
    18f0:	0d120000 	ldceq	0, cr0, [r2, #-0]
    18f4:	3a080300 	bcc	2024fc <__bss_end__+0x1f850c>
    18f8:	490b3b0b 	stmdbmi	fp, {r0, r1, r3, r8, r9, fp, ip, sp}
    18fc:	000b3813 	andeq	r3, fp, r3, lsl r8
    1900:	01131300 	tsteq	r3, r0, lsl #6
    1904:	050b0e03 	streq	r0, [fp, #-3587]	; 0xfffff1fd
    1908:	0b3b0b3a 	bleq	ec45f8 <__bss_end__+0xeba608>
    190c:	00001301 	andeq	r1, r0, r1, lsl #6
    1910:	03000d14 	movweq	r0, #3348	; 0xd14
    1914:	3b0b3a0e 	blcc	2d0154 <__bss_end__+0x2c6164>
    1918:	3813490b 	ldmdacc	r3, {r0, r1, r3, r8, fp, lr}
    191c:	15000005 	strne	r0, [r0, #-5]
    1920:	19270015 	stmdbne	r7!, {r0, r2, r4}
    1924:	15160000 	ldrne	r0, [r6, #-0]
    1928:	49192701 	ldmdbmi	r9, {r0, r8, r9, sl, sp}
    192c:	00130113 	andseq	r0, r3, r3, lsl r1
    1930:	00051700 	andeq	r1, r5, r0, lsl #14
    1934:	00001349 	andeq	r1, r0, r9, asr #6
    1938:	03011318 	movweq	r1, #4888	; 0x1318
    193c:	3a050b0e 	bcc	14457c <__bss_end__+0x13a58c>
    1940:	01053b0b 	tsteq	r5, fp, lsl #22
    1944:	19000013 	stmdbne	r0, {r0, r1, r4}
    1948:	0e03000d 	cdpeq	0, 0, cr0, cr3, cr13, {0}
    194c:	053b0b3a 	ldreq	r0, [fp, #-2874]!	; 0xfffff4c6
    1950:	0b381349 	bleq	e0667c <__bss_end__+0xdfc68c>
    1954:	0d1a0000 	ldceq	0, cr0, [sl, #-0]
    1958:	3a0e0300 	bcc	382560 <__bss_end__+0x378570>
    195c:	49053b0b 	stmdbmi	r5, {r0, r1, r3, r8, r9, fp, ip, sp}
    1960:	00053813 	andeq	r3, r5, r3, lsl r8
    1964:	01131b00 	tsteq	r3, r0, lsl #22
    1968:	0b0b0e03 	bleq	2c517c <__bss_end__+0x2bb18c>
    196c:	053b0b3a 	ldreq	r0, [fp, #-2874]!	; 0xfffff4c6
    1970:	00001301 	andeq	r1, r0, r1, lsl #6
    1974:	0b01131c 	bleq	465ec <__bss_end__+0x3c5fc>
    1978:	3b0b3a0b 	blcc	2d01ac <__bss_end__+0x2c61bc>
    197c:	00130105 	andseq	r0, r3, r5, lsl #2
    1980:	01171d00 	tsteq	r7, r0, lsl #26
    1984:	0b3a0b0b 	bleq	e845b8 <__bss_end__+0xe7a5c8>
    1988:	1301053b 	movwne	r0, #5435	; 0x153b
    198c:	0d1e0000 	ldceq	0, cr0, [lr, #-0]
    1990:	3a0e0300 	bcc	382598 <__bss_end__+0x3785a8>
    1994:	49053b0b 	stmdbmi	r5, {r0, r1, r3, r8, r9, fp, ip, sp}
    1998:	1f000013 	svcne	0x00000013
    199c:	19270115 	stmdbne	r7!, {r0, r2, r4, r8}
    19a0:	00001301 	andeq	r1, r0, r1, lsl #6
    19a4:	03003420 	movweq	r3, #1056	; 0x420
    19a8:	3b0b3a0e 	blcc	2d01e8 <__bss_end__+0x2c61f8>
    19ac:	3f134905 	svccc	0x00134905
    19b0:	00193c19 	andseq	r3, r9, r9, lsl ip
    19b4:	00342100 	eorseq	r2, r4, r0, lsl #2
    19b8:	0b3a0e03 	bleq	e851cc <__bss_end__+0xe7b1dc>
    19bc:	13490b3b 	movtne	r0, #39739	; 0x9b3b
    19c0:	193c193f 	ldmdbne	ip!, {r0, r1, r2, r3, r4, r5, r8, fp, ip}
    19c4:	04220000 	strteq	r0, [r2], #-0
    19c8:	0b0b3e01 	bleq	2d11d4 <__bss_end__+0x2c71e4>
    19cc:	3a13490b 	bcc	4d3e00 <__bss_end__+0x4c9e10>
    19d0:	010b3b0b 	tsteq	fp, fp, lsl #22
    19d4:	23000013 	movwcs	r0, #19
    19d8:	0e030028 	cdpeq	0, 0, cr0, cr3, cr8, {1}
    19dc:	00000b1c 	andeq	r0, r0, ip, lsl fp
    19e0:	03003424 	movweq	r3, #1060	; 0x424
    19e4:	3b0b3a0e 	blcc	2d0224 <__bss_end__+0x2c6234>
    19e8:	1c13490b 			; <UNDEFINED> instruction: 0x1c13490b
    19ec:	25000006 	strcs	r0, [r0, #-6]
    19f0:	193f012e 	ldmdbne	pc!, {r1, r2, r3, r5, r8}	; <UNPREDICTABLE>
    19f4:	0b3a0e03 	bleq	e85208 <__bss_end__+0xe7b218>
    19f8:	19270b3b 	stmdbne	r7!, {r0, r1, r3, r4, r5, r8, r9, fp}
    19fc:	01111349 	tsteq	r1, r9, asr #6
    1a00:	18400612 	stmdane	r0, {r1, r4, r9, sl}^
    1a04:	01194297 			; <UNDEFINED> instruction: 0x01194297
    1a08:	26000013 			; <UNDEFINED> instruction: 0x26000013
    1a0c:	00018289 	andeq	r8, r1, r9, lsl #5
    1a10:	13310111 	teqne	r1, #1073741828	; 0x40000004
    1a14:	2e270000 	cdpcs	0, 2, cr0, cr7, cr0, {0}
    1a18:	03193f01 	tsteq	r9, #1, 30
    1a1c:	3b0b3a0e 	blcc	2d025c <__bss_end__+0x2c626c>
    1a20:	1119270b 	tstne	r9, fp, lsl #14
    1a24:	40061201 	andmi	r1, r6, r1, lsl #4
    1a28:	19429718 	stmdbne	r2, {r3, r4, r8, r9, sl, ip, pc}^
    1a2c:	00001301 	andeq	r1, r0, r1, lsl #6
    1a30:	03000528 	movweq	r0, #1320	; 0x528
    1a34:	3b0b3a08 	blcc	2d025c <__bss_end__+0x2c626c>
    1a38:	0213490b 	andseq	r4, r3, #180224	; 0x2c000
    1a3c:	29000017 	stmdbcs	r0, {r0, r1, r2, r4}
    1a40:	01018289 	smlabbeq	r1, r9, r2, r8
    1a44:	13310111 	teqne	r1, #1073741828	; 0x40000004
    1a48:	8a2a0000 	bhi	a81a50 <__bss_end__+0xa77a60>
    1a4c:	02000182 	andeq	r0, r0, #-2147483616	; 0x80000020
    1a50:	18429118 	stmdane	r2, {r3, r4, r8, ip, pc}^
    1a54:	892b0000 	stmdbhi	fp!, {}	; <UNPREDICTABLE>
    1a58:	11010182 	smlabbne	r1, r2, r1, r0
    1a5c:	01133101 	tsteq	r3, r1, lsl #2
    1a60:	2c000013 	stccs	0, cr0, [r0], {19}
    1a64:	0e03012e 	adfeqsp	f0, f3, #0.5
    1a68:	0b3b0b3a 	bleq	ec4758 <__bss_end__+0xeba768>
    1a6c:	01111927 	tsteq	r1, r7, lsr #18
    1a70:	18400612 	stmdane	r0, {r1, r4, r9, sl}^
    1a74:	01194297 			; <UNDEFINED> instruction: 0x01194297
    1a78:	2d000013 	stccs	0, cr0, [r0, #-76]	; 0xffffffb4
    1a7c:	0e030005 	cdpeq	0, 0, cr0, cr3, cr5, {0}
    1a80:	0b3b0b3a 	bleq	ec4770 <__bss_end__+0xeba780>
    1a84:	17021349 	strne	r1, [r2, -r9, asr #6]
    1a88:	352e0000 	strcc	r0, [lr, #-0]!
    1a8c:	2f000000 	svccs	0x00000000
    1a90:	193f002e 	ldmdbne	pc!, {r1, r2, r3, r5}	; <UNPREDICTABLE>
    1a94:	0e6e193c 			; <UNDEFINED> instruction: 0x0e6e193c
    1a98:	0b3a0e03 	bleq	e852ac <__bss_end__+0xe7b2bc>
    1a9c:	00000b3b 	andeq	r0, r0, fp, lsr fp
    1aa0:	01110100 	tsteq	r1, r0, lsl #2
    1aa4:	0b130e25 	bleq	4c5340 <__bss_end__+0x4bb350>
    1aa8:	0e1b0e03 	cdpeq	14, 1, cr0, cr11, cr3, {0}
    1aac:	06120111 			; <UNDEFINED> instruction: 0x06120111
    1ab0:	00001710 	andeq	r1, r0, r0, lsl r7
    1ab4:	0b002402 	bleq	aac4 <__bss_end__+0xad4>
    1ab8:	030b3e0b 	movweq	r3, #48651	; 0xbe0b
    1abc:	03000008 	movweq	r0, #8
    1ac0:	0b0b0024 	bleq	2c1b58 <__bss_end__+0x2b7b68>
    1ac4:	0e030b3e 	vmoveq.16	d3[0], r0
    1ac8:	35040000 	strcc	r0, [r4, #-0]
    1acc:	00134900 	andseq	r4, r3, r0, lsl #18
    1ad0:	00260500 	eoreq	r0, r6, r0, lsl #10
    1ad4:	00001349 	andeq	r1, r0, r9, asr #6
    1ad8:	03001606 	movweq	r1, #1542	; 0x606
    1adc:	3b0b3a0e 	blcc	2d031c <__bss_end__+0x2c632c>
    1ae0:	0013490b 	andseq	r4, r3, fp, lsl #18
    1ae4:	000f0700 	andeq	r0, pc, r0, lsl #14
    1ae8:	13490b0b 	movtne	r0, #39691	; 0x9b0b
    1aec:	13080000 	movwne	r0, #32768	; 0x8000
    1af0:	3c0e0300 	stccc	3, cr0, [lr], {-0}
    1af4:	09000019 	stmdbeq	r0, {r0, r3, r4}
    1af8:	0e030016 	mcreq	0, 0, r0, cr3, cr6, {0}
    1afc:	053b0b3a 	ldreq	r0, [fp, #-2874]!	; 0xfffff4c6
    1b00:	00001349 	andeq	r1, r0, r9, asr #6
    1b04:	0b01170a 	bleq	47734 <__bss_end__+0x3d744>
    1b08:	3b0b3a0b 	blcc	2d033c <__bss_end__+0x2c634c>
    1b0c:	0013010b 	andseq	r0, r3, fp, lsl #2
    1b10:	000d0b00 	andeq	r0, sp, r0, lsl #22
    1b14:	0b3a0e03 	bleq	e85328 <__bss_end__+0xe7b338>
    1b18:	13490b3b 	movtne	r0, #39739	; 0x9b3b
    1b1c:	010c0000 	mrseq	r0, (UNDEF: 12)
    1b20:	01134901 	tsteq	r3, r1, lsl #18
    1b24:	0d000013 	stceq	0, cr0, [r0, #-76]	; 0xffffffb4
    1b28:	13490021 	movtne	r0, #36897	; 0x9021
    1b2c:	00000b2f 	andeq	r0, r0, pc, lsr #22
    1b30:	0b01130e 	bleq	46770 <__bss_end__+0x3c780>
    1b34:	3b0b3a0b 	blcc	2d0368 <__bss_end__+0x2c6378>
    1b38:	0013010b 	andseq	r0, r3, fp, lsl #2
    1b3c:	000d0f00 	andeq	r0, sp, r0, lsl #30
    1b40:	0b3a0e03 	bleq	e85354 <__bss_end__+0xe7b364>
    1b44:	13490b3b 	movtne	r0, #39739	; 0x9b3b
    1b48:	00000b38 	andeq	r0, r0, r8, lsr fp
    1b4c:	0b000f10 	bleq	5794 <_start-0x286c>
    1b50:	1100000b 	tstne	r0, fp
    1b54:	0e030113 	mcreq	1, 0, r0, cr3, cr3, {0}
    1b58:	0b3a0b0b 	bleq	e8478c <__bss_end__+0xe7a79c>
    1b5c:	13010b3b 	movwne	r0, #6971	; 0x1b3b
    1b60:	0d120000 	ldceq	0, cr0, [r2, #-0]
    1b64:	3a080300 	bcc	20276c <__bss_end__+0x1f877c>
    1b68:	490b3b0b 	stmdbmi	fp, {r0, r1, r3, r8, r9, fp, ip, sp}
    1b6c:	000b3813 	andeq	r3, fp, r3, lsl r8
    1b70:	01131300 	tsteq	r3, r0, lsl #6
    1b74:	050b0e03 	streq	r0, [fp, #-3587]	; 0xfffff1fd
    1b78:	0b3b0b3a 	bleq	ec4868 <__bss_end__+0xeba878>
    1b7c:	00001301 	andeq	r1, r0, r1, lsl #6
    1b80:	03000d14 	movweq	r0, #3348	; 0xd14
    1b84:	3b0b3a0e 	blcc	2d03c4 <__bss_end__+0x2c63d4>
    1b88:	3813490b 	ldmdacc	r3, {r0, r1, r3, r8, fp, lr}
    1b8c:	15000005 	strne	r0, [r0, #-5]
    1b90:	19270015 	stmdbne	r7!, {r0, r2, r4}
    1b94:	15160000 	ldrne	r0, [r6, #-0]
    1b98:	49192701 	ldmdbmi	r9, {r0, r8, r9, sl, sp}
    1b9c:	00130113 	andseq	r0, r3, r3, lsl r1
    1ba0:	00051700 	andeq	r1, r5, r0, lsl #14
    1ba4:	00001349 	andeq	r1, r0, r9, asr #6
    1ba8:	03011318 	movweq	r1, #4888	; 0x1318
    1bac:	3a050b0e 	bcc	1447ec <__bss_end__+0x13a7fc>
    1bb0:	01053b0b 	tsteq	r5, fp, lsl #22
    1bb4:	19000013 	stmdbne	r0, {r0, r1, r4}
    1bb8:	0e03000d 	cdpeq	0, 0, cr0, cr3, cr13, {0}
    1bbc:	053b0b3a 	ldreq	r0, [fp, #-2874]!	; 0xfffff4c6
    1bc0:	0b381349 	bleq	e068ec <__bss_end__+0xdfc8fc>
    1bc4:	0d1a0000 	ldceq	0, cr0, [sl, #-0]
    1bc8:	3a0e0300 	bcc	3827d0 <__bss_end__+0x3787e0>
    1bcc:	49053b0b 	stmdbmi	r5, {r0, r1, r3, r8, r9, fp, ip, sp}
    1bd0:	00053813 	andeq	r3, r5, r3, lsl r8
    1bd4:	01131b00 	tsteq	r3, r0, lsl #22
    1bd8:	0b0b0e03 	bleq	2c53ec <__bss_end__+0x2bb3fc>
    1bdc:	053b0b3a 	ldreq	r0, [fp, #-2874]!	; 0xfffff4c6
    1be0:	00001301 	andeq	r1, r0, r1, lsl #6
    1be4:	0b01131c 	bleq	4685c <__bss_end__+0x3c86c>
    1be8:	3b0b3a0b 	blcc	2d041c <__bss_end__+0x2c642c>
    1bec:	00130105 	andseq	r0, r3, r5, lsl #2
    1bf0:	01171d00 	tsteq	r7, r0, lsl #26
    1bf4:	0b3a0b0b 	bleq	e84828 <__bss_end__+0xe7a838>
    1bf8:	1301053b 	movwne	r0, #5435	; 0x153b
    1bfc:	0d1e0000 	ldceq	0, cr0, [lr, #-0]
    1c00:	3a0e0300 	bcc	382808 <__bss_end__+0x378818>
    1c04:	49053b0b 	stmdbmi	r5, {r0, r1, r3, r8, r9, fp, ip, sp}
    1c08:	1f000013 	svcne	0x00000013
    1c0c:	19270115 	stmdbne	r7!, {r0, r2, r4, r8}
    1c10:	00001301 	andeq	r1, r0, r1, lsl #6
    1c14:	03003420 	movweq	r3, #1056	; 0x420
    1c18:	3b0b3a0e 	blcc	2d0458 <__bss_end__+0x2c6468>
    1c1c:	3f134905 	svccc	0x00134905
    1c20:	00193c19 	andseq	r3, r9, r9, lsl ip
    1c24:	00342100 	eorseq	r2, r4, r0, lsl #2
    1c28:	0b3a0e03 	bleq	e8543c <__bss_end__+0xe7b44c>
    1c2c:	13490b3b 	movtne	r0, #39739	; 0x9b3b
    1c30:	193c193f 	ldmdbne	ip!, {r0, r1, r2, r3, r4, r5, r8, fp, ip}
    1c34:	04220000 	strteq	r0, [r2], #-0
    1c38:	0b0b3e01 	bleq	2d1444 <__bss_end__+0x2c7454>
    1c3c:	3a13490b 	bcc	4d4070 <__bss_end__+0x4ca080>
    1c40:	010b3b0b 	tsteq	fp, fp, lsl #22
    1c44:	23000013 	movwcs	r0, #19
    1c48:	0e030028 	cdpeq	0, 0, cr0, cr3, cr8, {1}
    1c4c:	00000b1c 	andeq	r0, r0, ip, lsl fp
    1c50:	03003424 	movweq	r3, #1060	; 0x424
    1c54:	3b0b3a0e 	blcc	2d0494 <__bss_end__+0x2c64a4>
    1c58:	1c13490b 			; <UNDEFINED> instruction: 0x1c13490b
    1c5c:	25000006 	strcs	r0, [r0, #-6]
    1c60:	193f012e 	ldmdbne	pc!, {r1, r2, r3, r5, r8}	; <UNPREDICTABLE>
    1c64:	0b3a0e03 	bleq	e85478 <__bss_end__+0xe7b488>
    1c68:	19270b3b 	stmdbne	r7!, {r0, r1, r3, r4, r5, r8, r9, fp}
    1c6c:	01111349 	tsteq	r1, r9, asr #6
    1c70:	18400612 	stmdane	r0, {r1, r4, r9, sl}^
    1c74:	01194297 			; <UNDEFINED> instruction: 0x01194297
    1c78:	26000013 			; <UNDEFINED> instruction: 0x26000013
    1c7c:	08030005 	stmdaeq	r3, {r0, r2}
    1c80:	0b3b0b3a 	bleq	ec4970 <__bss_end__+0xeba980>
    1c84:	17021349 	strne	r1, [r2, -r9, asr #6]
    1c88:	34270000 	strtcc	r0, [r7], #-0
    1c8c:	3a0e0300 	bcc	382894 <__bss_end__+0x3788a4>
    1c90:	490b3b0b 	stmdbmi	fp, {r0, r1, r3, r8, r9, fp, ip, sp}
    1c94:	00170213 	andseq	r0, r7, r3, lsl r2
    1c98:	00342800 	eorseq	r2, r4, r0, lsl #16
    1c9c:	0b3a0803 	bleq	e83cb0 <__bss_end__+0xe79cc0>
    1ca0:	13490b3b 	movtne	r0, #39739	; 0x9b3b
    1ca4:	00001702 	andeq	r1, r0, r2, lsl #14
    1ca8:	01828929 	orreq	r8, r2, r9, lsr #18
    1cac:	31011101 	tstcc	r1, r1, lsl #2
    1cb0:	2a000013 	bcs	1d04 <_start-0x62fc>
    1cb4:	0001828a 	andeq	r8, r1, sl, lsl #5
    1cb8:	42911802 	addsmi	r1, r1, #131072	; 0x20000
    1cbc:	2b000018 	blcs	1d24 <_start-0x62dc>
    1cc0:	193f012e 	ldmdbne	pc!, {r1, r2, r3, r5, r8}	; <UNPREDICTABLE>
    1cc4:	0b3a0e03 	bleq	e854d8 <__bss_end__+0xe7b4e8>
    1cc8:	19270b3b 	stmdbne	r7!, {r0, r1, r3, r4, r5, r8, r9, fp}
    1ccc:	06120111 			; <UNDEFINED> instruction: 0x06120111
    1cd0:	42971840 	addsmi	r1, r7, #64, 16	; 0x400000
    1cd4:	00130119 	andseq	r0, r3, r9, lsl r1
    1cd8:	82892c00 	addhi	r2, r9, #0, 24
    1cdc:	01110101 	tsteq	r1, r1, lsl #2
    1ce0:	13011331 	movwne	r1, #4913	; 0x1331
    1ce4:	892d0000 	pushhi	{}	; <UNPREDICTABLE>
    1ce8:	11000182 	smlabbne	r0, r2, r1, r0
    1cec:	00133101 	andseq	r3, r3, r1, lsl #2
    1cf0:	00052e00 	andeq	r2, r5, r0, lsl #28
    1cf4:	0b3a0e03 	bleq	e85508 <__bss_end__+0xe7b518>
    1cf8:	13490b3b 	movtne	r0, #39739	; 0x9b3b
    1cfc:	00001702 	andeq	r1, r0, r2, lsl #14
    1d00:	0300342f 	movweq	r3, #1071	; 0x42f
    1d04:	3b0b3a08 	blcc	2d052c <__bss_end__+0x2c653c>
    1d08:	0213490b 	andseq	r4, r3, #180224	; 0x2c000
    1d0c:	30000018 	andcc	r0, r0, r8, lsl r0
    1d10:	193f002e 	ldmdbne	pc!, {r1, r2, r3, r5}	; <UNPREDICTABLE>
    1d14:	0e6e193c 			; <UNDEFINED> instruction: 0x0e6e193c
    1d18:	0b3a0e03 	bleq	e8552c <__bss_end__+0xe7b53c>
    1d1c:	00000b3b 	andeq	r0, r0, fp, lsr fp
    1d20:	01110100 	tsteq	r1, r0, lsl #2
    1d24:	0b130e25 	bleq	4c55c0 <__bss_end__+0x4bb5d0>
    1d28:	0e1b0e03 	cdpeq	14, 1, cr0, cr11, cr3, {0}
    1d2c:	06120111 			; <UNDEFINED> instruction: 0x06120111
    1d30:	00001710 	andeq	r1, r0, r0, lsl r7
    1d34:	0b002402 	bleq	ad44 <__bss_end__+0xd54>
    1d38:	030b3e0b 	movweq	r3, #48651	; 0xbe0b
    1d3c:	03000008 	movweq	r0, #8
    1d40:	0b0b0024 	bleq	2c1dd8 <__bss_end__+0x2b7de8>
    1d44:	0e030b3e 	vmoveq.16	d3[0], r0
    1d48:	16040000 	strne	r0, [r4], -r0
    1d4c:	3a0e0300 	bcc	382954 <__bss_end__+0x378964>
    1d50:	490b3b0b 	stmdbmi	fp, {r0, r1, r3, r8, r9, fp, ip, sp}
    1d54:	05000013 	streq	r0, [r0, #-19]	; 0xffffffed
    1d58:	0e030016 	mcreq	0, 0, r0, cr3, cr6, {0}
    1d5c:	053b0b3a 	ldreq	r0, [fp, #-2874]!	; 0xfffff4c6
    1d60:	00001349 	andeq	r1, r0, r9, asr #6
    1d64:	0b011706 	bleq	47984 <__bss_end__+0x3d994>
    1d68:	3b0b3a0b 	blcc	2d059c <__bss_end__+0x2c65ac>
    1d6c:	0013010b 	andseq	r0, r3, fp, lsl #2
    1d70:	000d0700 	andeq	r0, sp, r0, lsl #14
    1d74:	0b3a0e03 	bleq	e85588 <__bss_end__+0xe7b598>
    1d78:	13490b3b 	movtne	r0, #39739	; 0x9b3b
    1d7c:	01080000 	mrseq	r0, (UNDEF: 8)
    1d80:	01134901 	tsteq	r3, r1, lsl #18
    1d84:	09000013 	stmdbeq	r0, {r0, r1, r4}
    1d88:	13490021 	movtne	r0, #36897	; 0x9021
    1d8c:	00000b2f 	andeq	r0, r0, pc, lsr #22
    1d90:	0b01130a 	bleq	469c0 <__bss_end__+0x3c9d0>
    1d94:	3b0b3a0b 	blcc	2d05c8 <__bss_end__+0x2c65d8>
    1d98:	0013010b 	andseq	r0, r3, fp, lsl #2
    1d9c:	000d0b00 	andeq	r0, sp, r0, lsl #22
    1da0:	0b3a0e03 	bleq	e855b4 <__bss_end__+0xe7b5c4>
    1da4:	13490b3b 	movtne	r0, #39739	; 0x9b3b
    1da8:	00000b38 	andeq	r0, r0, r8, lsr fp
    1dac:	0b000f0c 	bleq	59e4 <_start-0x261c>
    1db0:	0d00000b 	stceq	0, cr0, [r0, #-44]	; 0xffffffd4
    1db4:	0b0b000f 	bleq	2c1df8 <__bss_end__+0x2b7e08>
    1db8:	00001349 	andeq	r1, r0, r9, asr #6
    1dbc:	4900260e 	stmdbmi	r0, {r1, r2, r3, r9, sl, sp}
    1dc0:	0f000013 	svceq	0x00000013
    1dc4:	0e030113 	mcreq	1, 0, r0, cr3, cr3, {0}
    1dc8:	0b3a0b0b 	bleq	e849fc <__bss_end__+0xe7aa0c>
    1dcc:	13010b3b 	movwne	r0, #6971	; 0x1b3b
    1dd0:	0d100000 	ldceq	0, cr0, [r0, #-0]
    1dd4:	3a080300 	bcc	2029dc <__bss_end__+0x1f89ec>
    1dd8:	490b3b0b 	stmdbmi	fp, {r0, r1, r3, r8, r9, fp, ip, sp}
    1ddc:	000b3813 	andeq	r3, fp, r3, lsl r8
    1de0:	01131100 	tsteq	r3, r0, lsl #2
    1de4:	050b0e03 	streq	r0, [fp, #-3587]	; 0xfffff1fd
    1de8:	0b3b0b3a 	bleq	ec4ad8 <__bss_end__+0xebaae8>
    1dec:	00001301 	andeq	r1, r0, r1, lsl #6
    1df0:	03000d12 	movweq	r0, #3346	; 0xd12
    1df4:	3b0b3a0e 	blcc	2d0634 <__bss_end__+0x2c6644>
    1df8:	3813490b 	ldmdacc	r3, {r0, r1, r3, r8, fp, lr}
    1dfc:	13000005 	movwne	r0, #5
    1e00:	19270015 	stmdbne	r7!, {r0, r2, r4}
    1e04:	15140000 	ldrne	r0, [r4, #-0]
    1e08:	49192701 	ldmdbmi	r9, {r0, r8, r9, sl, sp}
    1e0c:	00130113 	andseq	r0, r3, r3, lsl r1
    1e10:	00051500 	andeq	r1, r5, r0, lsl #10
    1e14:	00001349 	andeq	r1, r0, r9, asr #6
    1e18:	03011316 	movweq	r1, #4886	; 0x1316
    1e1c:	3a050b0e 	bcc	144a5c <__bss_end__+0x13aa6c>
    1e20:	01053b0b 	tsteq	r5, fp, lsl #22
    1e24:	17000013 	smladne	r0, r3, r0, r0
    1e28:	0e03000d 	cdpeq	0, 0, cr0, cr3, cr13, {0}
    1e2c:	053b0b3a 	ldreq	r0, [fp, #-2874]!	; 0xfffff4c6
    1e30:	0b381349 	bleq	e06b5c <__bss_end__+0xdfcb6c>
    1e34:	0d180000 	ldceq	0, cr0, [r8, #-0]
    1e38:	3a0e0300 	bcc	382a40 <__bss_end__+0x378a50>
    1e3c:	49053b0b 	stmdbmi	r5, {r0, r1, r3, r8, r9, fp, ip, sp}
    1e40:	00053813 	andeq	r3, r5, r3, lsl r8
    1e44:	01131900 	tsteq	r3, r0, lsl #18
    1e48:	0b0b0e03 	bleq	2c565c <__bss_end__+0x2bb66c>
    1e4c:	053b0b3a 	ldreq	r0, [fp, #-2874]!	; 0xfffff4c6
    1e50:	00001301 	andeq	r1, r0, r1, lsl #6
    1e54:	0b01131a 	bleq	46ac4 <__bss_end__+0x3cad4>
    1e58:	3b0b3a0b 	blcc	2d068c <__bss_end__+0x2c669c>
    1e5c:	00130105 	andseq	r0, r3, r5, lsl #2
    1e60:	01171b00 	tsteq	r7, r0, lsl #22
    1e64:	0b3a0b0b 	bleq	e84a98 <__bss_end__+0xe7aaa8>
    1e68:	1301053b 	movwne	r0, #5435	; 0x153b
    1e6c:	0d1c0000 	ldceq	0, cr0, [ip, #-0]
    1e70:	3a0e0300 	bcc	382a78 <__bss_end__+0x378a88>
    1e74:	49053b0b 	stmdbmi	r5, {r0, r1, r3, r8, r9, fp, ip, sp}
    1e78:	1d000013 	stcne	0, cr0, [r0, #-76]	; 0xffffffb4
    1e7c:	19270115 	stmdbne	r7!, {r0, r2, r4, r8}
    1e80:	00001301 	andeq	r1, r0, r1, lsl #6
    1e84:	0300341e 	movweq	r3, #1054	; 0x41e
    1e88:	3b0b3a0e 	blcc	2d06c8 <__bss_end__+0x2c66d8>
    1e8c:	3f134905 	svccc	0x00134905
    1e90:	00193c19 	andseq	r3, r9, r9, lsl ip
    1e94:	00341f00 	eorseq	r1, r4, r0, lsl #30
    1e98:	0b3a0e03 	bleq	e856ac <__bss_end__+0xe7b6bc>
    1e9c:	13490b3b 	movtne	r0, #39739	; 0x9b3b
    1ea0:	193c193f 	ldmdbne	ip!, {r0, r1, r2, r3, r4, r5, r8, fp, ip}
    1ea4:	34200000 	strtcc	r0, [r0], #-0
    1ea8:	3a0e0300 	bcc	382ab0 <__bss_end__+0x378ac0>
    1eac:	490b3b0b 	stmdbmi	fp, {r0, r1, r3, r8, r9, fp, ip, sp}
    1eb0:	00193f13 	andseq	r3, r9, r3, lsl pc
    1eb4:	01042100 	mrseq	r2, (UNDEF: 20)
    1eb8:	13490b0b 	movtne	r0, #39691	; 0x9b0b
    1ebc:	0b3b0b3a 	bleq	ec4bac <__bss_end__+0xebabbc>
    1ec0:	00001301 	andeq	r1, r0, r1, lsl #6
    1ec4:	03002822 	movweq	r2, #2082	; 0x822
    1ec8:	000b1c0e 	andeq	r1, fp, lr, lsl #24
    1ecc:	012e2300 			; <UNDEFINED> instruction: 0x012e2300
    1ed0:	0e03193f 			; <UNDEFINED> instruction: 0x0e03193f
    1ed4:	0b3b0b3a 	bleq	ec4bc4 <__bss_end__+0xebabd4>
    1ed8:	13491927 	movtne	r1, #39207	; 0x9927
    1edc:	06120111 			; <UNDEFINED> instruction: 0x06120111
    1ee0:	42971840 	addsmi	r1, r7, #64, 16	; 0x400000
    1ee4:	00130119 	andseq	r0, r3, r9, lsl r1
    1ee8:	00342400 	eorseq	r2, r4, r0, lsl #8
    1eec:	0b3a0803 	bleq	e83f00 <__bss_end__+0xe79f10>
    1ef0:	13490b3b 	movtne	r0, #39739	; 0x9b3b
    1ef4:	0000061c 	andeq	r0, r0, ip, lsl r6
    1ef8:	01828925 	orreq	r8, r2, r5, lsr #18
    1efc:	31011101 	tstcc	r1, r1, lsl #2
    1f00:	26000013 			; <UNDEFINED> instruction: 0x26000013
    1f04:	0001828a 	andeq	r8, r1, sl, lsl #5
    1f08:	42911802 	addsmi	r1, r1, #131072	; 0x20000
    1f0c:	27000018 	smladcs	r0, r8, r0, r0
    1f10:	193f002e 	ldmdbne	pc!, {r1, r2, r3, r5}	; <UNPREDICTABLE>
    1f14:	0e6e193c 			; <UNDEFINED> instruction: 0x0e6e193c
    1f18:	0b3a0e03 	bleq	e8572c <__bss_end__+0xe7b73c>
    1f1c:	00000b3b 	andeq	r0, r0, fp, lsr fp
    1f20:	01110100 	tsteq	r1, r0, lsl #2
    1f24:	0b130e25 	bleq	4c57c0 <__bss_end__+0x4bb7d0>
    1f28:	0e1b0e03 	cdpeq	14, 1, cr0, cr11, cr3, {0}
    1f2c:	06120111 			; <UNDEFINED> instruction: 0x06120111
    1f30:	00001710 	andeq	r1, r0, r0, lsl r7
    1f34:	0b002402 	bleq	af44 <__bss_end__+0xf54>
    1f38:	030b3e0b 	movweq	r3, #48651	; 0xbe0b
    1f3c:	03000008 	movweq	r0, #8
    1f40:	0e030016 	mcreq	0, 0, r0, cr3, cr6, {0}
    1f44:	0b3b0b3a 	bleq	ec4c34 <__bss_end__+0xebac44>
    1f48:	00001349 	andeq	r1, r0, r9, asr #6
    1f4c:	0b002404 	bleq	af64 <__bss_end__+0xf74>
    1f50:	030b3e0b 	movweq	r3, #48651	; 0xbe0b
    1f54:	0500000e 	streq	r0, [r0, #-14]
    1f58:	0e030016 	mcreq	0, 0, r0, cr3, cr6, {0}
    1f5c:	053b0b3a 	ldreq	r0, [fp, #-2874]!	; 0xfffff4c6
    1f60:	00001349 	andeq	r1, r0, r9, asr #6
    1f64:	0b011706 	bleq	47b84 <__bss_end__+0x3db94>
    1f68:	3b0b3a0b 	blcc	2d079c <__bss_end__+0x2c67ac>
    1f6c:	0013010b 	andseq	r0, r3, fp, lsl #2
    1f70:	000d0700 	andeq	r0, sp, r0, lsl #14
    1f74:	0b3a0e03 	bleq	e85788 <__bss_end__+0xe7b798>
    1f78:	13490b3b 	movtne	r0, #39739	; 0x9b3b
    1f7c:	01080000 	mrseq	r0, (UNDEF: 8)
    1f80:	01134901 	tsteq	r3, r1, lsl #18
    1f84:	09000013 	stmdbeq	r0, {r0, r1, r4}
    1f88:	13490021 	movtne	r0, #36897	; 0x9021
    1f8c:	00000b2f 	andeq	r0, r0, pc, lsr #22
    1f90:	0b01130a 	bleq	46bc0 <__bss_end__+0x3cbd0>
    1f94:	3b0b3a0b 	blcc	2d07c8 <__bss_end__+0x2c67d8>
    1f98:	0013010b 	andseq	r0, r3, fp, lsl #2
    1f9c:	000d0b00 	andeq	r0, sp, r0, lsl #22
    1fa0:	0b3a0e03 	bleq	e857b4 <__bss_end__+0xe7b7c4>
    1fa4:	13490b3b 	movtne	r0, #39739	; 0x9b3b
    1fa8:	00000b38 	andeq	r0, r0, r8, lsr fp
    1fac:	0b000f0c 	bleq	5be4 <_start-0x241c>
    1fb0:	0d00000b 	stceq	0, cr0, [r0, #-44]	; 0xffffffd4
    1fb4:	0b0b000f 	bleq	2c1ff8 <__bss_end__+0x2b8008>
    1fb8:	00001349 	andeq	r1, r0, r9, asr #6
    1fbc:	4900260e 	stmdbmi	r0, {r1, r2, r3, r9, sl, sp}
    1fc0:	0f000013 	svceq	0x00000013
    1fc4:	0e030113 	mcreq	1, 0, r0, cr3, cr3, {0}
    1fc8:	0b3a0b0b 	bleq	e84bfc <__bss_end__+0xe7ac0c>
    1fcc:	13010b3b 	movwne	r0, #6971	; 0x1b3b
    1fd0:	0d100000 	ldceq	0, cr0, [r0, #-0]
    1fd4:	3a080300 	bcc	202bdc <__bss_end__+0x1f8bec>
    1fd8:	490b3b0b 	stmdbmi	fp, {r0, r1, r3, r8, r9, fp, ip, sp}
    1fdc:	000b3813 	andeq	r3, fp, r3, lsl r8
    1fe0:	01131100 	tsteq	r3, r0, lsl #2
    1fe4:	050b0e03 	streq	r0, [fp, #-3587]	; 0xfffff1fd
    1fe8:	0b3b0b3a 	bleq	ec4cd8 <__bss_end__+0xebace8>
    1fec:	00001301 	andeq	r1, r0, r1, lsl #6
    1ff0:	03000d12 	movweq	r0, #3346	; 0xd12
    1ff4:	3b0b3a0e 	blcc	2d0834 <__bss_end__+0x2c6844>
    1ff8:	3813490b 	ldmdacc	r3, {r0, r1, r3, r8, fp, lr}
    1ffc:	13000005 	movwne	r0, #5
    2000:	19270015 	stmdbne	r7!, {r0, r2, r4}
    2004:	15140000 	ldrne	r0, [r4, #-0]
    2008:	49192701 	ldmdbmi	r9, {r0, r8, r9, sl, sp}
    200c:	00130113 	andseq	r0, r3, r3, lsl r1
    2010:	00051500 	andeq	r1, r5, r0, lsl #10
    2014:	00001349 	andeq	r1, r0, r9, asr #6
    2018:	03011316 	movweq	r1, #4886	; 0x1316
    201c:	3a050b0e 	bcc	144c5c <__bss_end__+0x13ac6c>
    2020:	01053b0b 	tsteq	r5, fp, lsl #22
    2024:	17000013 	smladne	r0, r3, r0, r0
    2028:	0e03000d 	cdpeq	0, 0, cr0, cr3, cr13, {0}
    202c:	053b0b3a 	ldreq	r0, [fp, #-2874]!	; 0xfffff4c6
    2030:	0b381349 	bleq	e06d5c <__bss_end__+0xdfcd6c>
    2034:	0d180000 	ldceq	0, cr0, [r8, #-0]
    2038:	3a0e0300 	bcc	382c40 <__bss_end__+0x378c50>
    203c:	49053b0b 	stmdbmi	r5, {r0, r1, r3, r8, r9, fp, ip, sp}
    2040:	00053813 	andeq	r3, r5, r3, lsl r8
    2044:	01131900 	tsteq	r3, r0, lsl #18
    2048:	0b0b0e03 	bleq	2c585c <__bss_end__+0x2bb86c>
    204c:	053b0b3a 	ldreq	r0, [fp, #-2874]!	; 0xfffff4c6
    2050:	00001301 	andeq	r1, r0, r1, lsl #6
    2054:	0b01131a 	bleq	46cc4 <__bss_end__+0x3ccd4>
    2058:	3b0b3a0b 	blcc	2d088c <__bss_end__+0x2c689c>
    205c:	00130105 	andseq	r0, r3, r5, lsl #2
    2060:	01171b00 	tsteq	r7, r0, lsl #22
    2064:	0b3a0b0b 	bleq	e84c98 <__bss_end__+0xe7aca8>
    2068:	1301053b 	movwne	r0, #5435	; 0x153b
    206c:	0d1c0000 	ldceq	0, cr0, [ip, #-0]
    2070:	3a0e0300 	bcc	382c78 <__bss_end__+0x378c88>
    2074:	49053b0b 	stmdbmi	r5, {r0, r1, r3, r8, r9, fp, ip, sp}
    2078:	1d000013 	stcne	0, cr0, [r0, #-76]	; 0xffffffb4
    207c:	19270115 	stmdbne	r7!, {r0, r2, r4, r8}
    2080:	00001301 	andeq	r1, r0, r1, lsl #6
    2084:	0300341e 	movweq	r3, #1054	; 0x41e
    2088:	3b0b3a0e 	blcc	2d08c8 <__bss_end__+0x2c68d8>
    208c:	3f134905 	svccc	0x00134905
    2090:	00193c19 	andseq	r3, r9, r9, lsl ip
    2094:	012e1f00 			; <UNDEFINED> instruction: 0x012e1f00
    2098:	0e03193f 			; <UNDEFINED> instruction: 0x0e03193f
    209c:	0b3b0b3a 	bleq	ec4d8c <__bss_end__+0xebad9c>
    20a0:	13491927 	movtne	r1, #39207	; 0x9927
    20a4:	06120111 			; <UNDEFINED> instruction: 0x06120111
    20a8:	42971840 	addsmi	r1, r7, #64, 16	; 0x400000
    20ac:	20000019 	andcs	r0, r0, r9, lsl r0
    20b0:	08030005 	stmdaeq	r3, {r0, r2}
    20b4:	0b3b0b3a 	bleq	ec4da4 <__bss_end__+0xebadb4>
    20b8:	18021349 	stmdane	r2, {r0, r3, r6, r8, r9, ip}
    20bc:	05210000 	streq	r0, [r1, #-0]!
    20c0:	3a080300 	bcc	202cc8 <__bss_end__+0x1f8cd8>
    20c4:	490b3b0b 	stmdbmi	fp, {r0, r1, r3, r8, r9, fp, ip, sp}
    20c8:	00170213 	andseq	r0, r7, r3, lsl r2
    20cc:	00342200 	eorseq	r2, r4, r0, lsl #4
    20d0:	0b3a0803 	bleq	e840e4 <__bss_end__+0xe7a0f4>
    20d4:	13490b3b 	movtne	r0, #39739	; 0x9b3b
    20d8:	00001702 	andeq	r1, r0, r2, lsl #14
    20dc:	03003423 	movweq	r3, #1059	; 0x423
    20e0:	3b0b3a08 	blcc	2d0908 <__bss_end__+0x2c6918>
    20e4:	0213490b 	andseq	r4, r3, #180224	; 0x2c000
    20e8:	00000018 	andeq	r0, r0, r8, lsl r0

Disassembly of section .debug_loc:

00000000 <.debug_loc>:
       0:	000005d0 	ldrdeq	r0, [r0], -r0	; <UNPREDICTABLE>
       4:	000005df 	ldrdeq	r0, [r0], -pc	; <UNPREDICTABLE>
       8:	04500001 	ldrbeq	r0, [r0], #-1
       c:	08000006 	stmdaeq	r0, {r1, r2}
      10:	01000006 	tsteq	r0, r6
      14:	00005000 	andeq	r5, r0, r0
      18:	00000000 	andeq	r0, r0, r0
      1c:	05100000 	ldreq	r0, [r0, #-0]
      20:	05180000 	ldreq	r0, [r8, #-0]
      24:	00020000 	andeq	r0, r2, r0
      28:	05189f30 	ldreq	r9, [r8, #-3888]	; 0xfffff0d0
      2c:	05900000 	ldreq	r0, [r0]
      30:	00010000 	andeq	r0, r1, r0
      34:	00000056 	andeq	r0, r0, r6, asr r0
      38:	00000000 	andeq	r0, r0, r0
      3c:	00030000 	andeq	r0, r3, r0
      40:	00031b00 	andeq	r1, r3, r0, lsl #22
      44:	51000100 	mrspl	r0, (UNDEF: 16)
      48:	0000031b 	andeq	r0, r0, fp, lsl r3
      4c:	00000490 	muleq	r0, r0, r4
      50:	01f30004 	mvnseq	r0, r4
      54:	00009f51 	andeq	r9, r0, r1, asr pc
      58:	00000000 	andeq	r0, r0, r0
      5c:	03000000 	movweq	r0, #0
      60:	031b0000 	tsteq	fp, #0
      64:	00010000 	andeq	r0, r1, r0
      68:	00031b52 	andeq	r1, r3, r2, asr fp
      6c:	0003c000 	andeq	ip, r3, r0
      70:	54000100 	strpl	r0, [r0], #-256	; 0xffffff00
      74:	000003c0 	andeq	r0, r0, r0, asr #7
      78:	00000408 	andeq	r0, r0, r8, lsl #8
      7c:	01f30004 	mvnseq	r0, r4
      80:	04089f52 	streq	r9, [r8], #-3922	; 0xfffff0ae
      84:	04900000 	ldreq	r0, [r0], #0
      88:	00010000 	andeq	r0, r1, r0
      8c:	00000054 	andeq	r0, r0, r4, asr r0
      90:	00000000 	andeq	r0, r0, r0
      94:	00030000 	andeq	r0, r3, r0
      98:	00031b00 	andeq	r1, r3, r0, lsl #22
      9c:	53000100 	movwpl	r0, #256	; 0x100
      a0:	0000031b 	andeq	r0, r0, fp, lsl r3
      a4:	00000490 	muleq	r0, r0, r4
      a8:	01f30004 	mvnseq	r0, r4
      ac:	00009f53 	andeq	r9, r0, r3, asr pc
      b0:	00000000 	andeq	r0, r0, r0
      b4:	038c0000 	orreq	r0, ip, #0
      b8:	03b30000 			; <UNDEFINED> instruction: 0x03b30000
      bc:	00010000 	andeq	r0, r1, r0
      c0:	0003b353 	andeq	fp, r3, r3, asr r3
      c4:	00040800 	andeq	r0, r4, r0, lsl #16
      c8:	77000200 	strvc	r0, [r0, -r0, lsl #4]
      cc:	00045008 	andeq	r5, r4, r8
      d0:	00045300 	andeq	r5, r4, r0, lsl #6
      d4:	53000100 	movwpl	r0, #256	; 0x100
      d8:	00000453 	andeq	r0, r0, r3, asr r4
      dc:	00000490 	muleq	r0, r0, r4
      e0:	00740005 	rsbseq	r0, r4, r5
      e4:	009f2540 	addseq	r2, pc, r0, asr #10
      e8:	00000000 	andeq	r0, r0, r0
      ec:	90000000 	andls	r0, r0, r0
      f0:	a8000003 	stmdage	r0, {r0, r1}
      f4:	01000003 	tsteq	r0, r3
      f8:	03a85200 			; <UNDEFINED> instruction: 0x03a85200
      fc:	03c00000 	biceq	r0, r0, #0
     100:	00060000 	andeq	r0, r6, r0
     104:	ff080074 			; <UNDEFINED> instruction: 0xff080074
     108:	04509f1a 	ldrbeq	r9, [r0], #-3866	; 0xfffff0e6
     10c:	04530000 	ldrbeq	r0, [r3], #-0
     110:	00010000 	andeq	r0, r1, r0
     114:	00045352 	andeq	r5, r4, r2, asr r3
     118:	00049000 	andeq	r9, r4, r0
     11c:	74000600 	strvc	r0, [r0], #-1536	; 0xfffffa00
     120:	1aff0800 	bne	fffc2128 <__bss_end__+0xfffb8138>
     124:	0000009f 	muleq	r0, pc, r0	; <UNPREDICTABLE>
     128:	00000000 	andeq	r0, r0, r0
     12c:	00030000 	andeq	r0, r3, r0
     130:	00031b00 	andeq	r1, r3, r0, lsl #22
     134:	70000200 	andvc	r0, r0, r0, lsl #4
     138:	00031b00 	andeq	r1, r3, r0, lsl #22
     13c:	00049000 	andeq	r9, r4, r0
     140:	77000200 	strvc	r0, [r0, -r0, lsl #4]
	...
     14c:	00032800 	andeq	r2, r3, r0, lsl #16
     150:	00035400 	andeq	r5, r3, r0, lsl #8
     154:	54000100 	strpl	r0, [r0], #-256	; 0xffffff00
     158:	00000374 	andeq	r0, r0, r4, ror r3
     15c:	00000378 	andeq	r0, r0, r8, ror r3
     160:	08540001 	ldmdaeq	r4, {r0}^
     164:	10000004 	andne	r0, r0, r4
     168:	01000004 	tsteq	r0, r4
     16c:	00005400 	andeq	r5, r0, r0, lsl #8
     170:	00000000 	andeq	r0, r0, r0
     174:	02880000 	addeq	r0, r8, #0
     178:	02980000 	addseq	r0, r8, #0
     17c:	00010000 	andeq	r0, r1, r0
     180:	00029851 	andeq	r9, r2, r1, asr r8
     184:	0002dc00 	andeq	sp, r2, r0, lsl #24
     188:	54000100 	strpl	r0, [r0], #-256	; 0xffffff00
     18c:	000002dc 	ldrdeq	r0, [r0], -ip
     190:	00000300 	andeq	r0, r0, r0, lsl #6
     194:	01f30004 	mvnseq	r0, r4
     198:	00009f51 	andeq	r9, r0, r1, asr pc
     19c:	00000000 	andeq	r0, r0, r0
     1a0:	02700000 	rsbseq	r0, r0, #0
     1a4:	027c0000 	rsbseq	r0, ip, #0
     1a8:	00010000 	andeq	r0, r1, r0
     1ac:	00027c50 	andeq	r7, r2, r0, asr ip
     1b0:	00028800 	andeq	r8, r2, r0, lsl #16
     1b4:	f3000400 	vshl.u8	d0, d0, d0
     1b8:	009f5001 	addseq	r5, pc, r1
     1bc:	00000000 	andeq	r0, r0, r0
     1c0:	80000000 	andhi	r0, r0, r0
     1c4:	84000002 	strhi	r0, [r0], #-2
     1c8:	01000002 	tsteq	r0, r2
     1cc:	00005000 	andeq	r5, r0, r0
     1d0:	00000000 	andeq	r0, r0, r0
     1d4:	02080000 	andeq	r0, r8, #0
     1d8:	021c0000 	andseq	r0, ip, #0
     1dc:	00010000 	andeq	r0, r1, r0
     1e0:	00021c51 	andeq	r1, r2, r1, asr ip
     1e4:	00026800 	andeq	r6, r2, r0, lsl #16
     1e8:	54000100 	strpl	r0, [r0], #-256	; 0xffffff00
     1ec:	00000268 	andeq	r0, r0, r8, ror #4
     1f0:	00000270 	andeq	r0, r0, r0, ror r2
     1f4:	01f30004 	mvnseq	r0, r4
     1f8:	00009f51 	andeq	r9, r0, r1, asr pc
     1fc:	00000000 	andeq	r0, r0, r0
     200:	02200000 	eoreq	r0, r0, #0
     204:	022b0000 	eoreq	r0, fp, #0
     208:	00020000 	andeq	r0, r2, r0
     20c:	00000874 	andeq	r0, r0, r4, ror r8
     210:	00000000 	andeq	r0, r0, r0
     214:	02300000 	eorseq	r0, r0, #0
     218:	02380000 	eorseq	r0, r8, #0
     21c:	00010000 	andeq	r0, r1, r0
     220:	00023850 	andeq	r3, r2, r0, asr r8
     224:	00026800 	andeq	r6, r2, r0, lsl #16
     228:	56000100 	strpl	r0, [r0], -r0, lsl #2
	...
     234:	00000240 	andeq	r0, r0, r0, asr #4
     238:	00000248 	andeq	r0, r0, r8, asr #4
     23c:	48500001 	ldmdami	r0, {r0}^
     240:	68000002 	stmdavs	r0, {r1}
     244:	01000002 	tsteq	r0, r2
     248:	00005700 	andeq	r5, r0, r0, lsl #14
     24c:	00000000 	andeq	r0, r0, r0
     250:	024c0000 	subeq	r0, ip, #0
     254:	025c0000 	subseq	r0, ip, #0
     258:	00010000 	andeq	r0, r1, r0
     25c:	00025c50 	andeq	r5, r2, r0, asr ip
     260:	00025f00 	andeq	r5, r2, r0, lsl #30
     264:	53000100 	movwpl	r0, #256	; 0x100
	...
     270:	000000e0 	andeq	r0, r0, r0, ror #1
     274:	000000ec 	andeq	r0, r0, ip, ror #1
     278:	ec500001 	mrrc	0, 0, r0, r0, cr1	; <UNPREDICTABLE>
     27c:	48000000 	stmdami	r0, {}	; <UNPREDICTABLE>
     280:	01000001 	tsteq	r0, r1
     284:	00005400 	andeq	r5, r0, r0, lsl #8
     288:	00000000 	andeq	r0, r0, r0
     28c:	00e00000 	rsceq	r0, r0, r0
     290:	00f40000 	rscseq	r0, r4, r0
     294:	00010000 	andeq	r0, r1, r0
     298:	0000f451 	andeq	pc, r0, r1, asr r4	; <UNPREDICTABLE>
     29c:	00014800 	andeq	r4, r1, r0, lsl #16
     2a0:	f3000400 	vshl.u8	d0, d0, d0
     2a4:	009f5101 	addseq	r5, pc, r1, lsl #2
     2a8:	00000000 	andeq	r0, r0, r0
     2ac:	e0000000 	and	r0, r0, r0
     2b0:	f7000000 			; <UNDEFINED> instruction: 0xf7000000
     2b4:	01000000 	mrseq	r0, (UNDEF: 0)
     2b8:	00f75200 	rscseq	r5, r7, r0, lsl #4
     2bc:	01480000 	mrseq	r0, (UNDEF: 72)
     2c0:	00040000 	andeq	r0, r4, r0
     2c4:	9f5201f3 	svcls	0x005201f3
	...
     2d0:	000000e0 	andeq	r0, r0, r0, ror #1
     2d4:	000000f7 	strdeq	r0, [r0], -r7
     2d8:	f7530001 			; <UNDEFINED> instruction: 0xf7530001
     2dc:	04000000 	streq	r0, [r0], #-0
     2e0:	01000001 	tsteq	r0, r1
     2e4:	01045500 	tsteq	r4, r0, lsl #10
     2e8:	01480000 	mrseq	r0, (UNDEF: 72)
     2ec:	00040000 	andeq	r0, r4, r0
     2f0:	9f5301f3 	svcls	0x005301f3
	...
     2fc:	00000104 	andeq	r0, r0, r4, lsl #2
     300:	00000110 	andeq	r0, r0, r0, lsl r1
     304:	10500001 	subsne	r0, r0, r1
     308:	13000001 	movwne	r0, #1
     30c:	01000001 	tsteq	r0, r1
     310:	01135200 	tsteq	r3, r0, lsl #4
     314:	01480000 	mrseq	r0, (UNDEF: 72)
     318:	00010000 	andeq	r0, r1, r0
     31c:	00000055 	andeq	r0, r0, r5, asr r0
     320:	00000000 	andeq	r0, r0, r0
     324:	00006000 	andeq	r6, r0, r0
     328:	00007c00 	andeq	r7, r0, r0, lsl #24
     32c:	50000100 	andpl	r0, r0, r0, lsl #2
     330:	0000007c 	andeq	r0, r0, ip, ror r0
     334:	00000094 	muleq	r0, r4, r0
     338:	94540001 	ldrbls	r0, [r4], #-1
     33c:	97000000 	strls	r0, [r0, -r0]
     340:	01000000 	mrseq	r0, (UNDEF: 0)
     344:	00975000 	addseq	r5, r7, r0
     348:	00b00000 	adcseq	r0, r0, r0
     34c:	00040000 	andeq	r0, r4, r0
     350:	9f5001f3 	svcls	0x005001f3
     354:	000000b0 	strheq	r0, [r0], -r0	; <UNPREDICTABLE>
     358:	000000b4 	strheq	r0, [r0], -r4
     35c:	00700004 	rsbseq	r0, r0, r4
     360:	00b49f1f 	adcseq	r9, r4, pc, lsl pc
     364:	00e00000 	rsceq	r0, r0, r0
     368:	00040000 	andeq	r0, r4, r0
     36c:	9f1f0074 	svcls	0x001f0074
	...
     378:	00000060 	andeq	r0, r0, r0, rrx
     37c:	0000007f 	andeq	r0, r0, pc, ror r0
     380:	7f510001 	svcvc	0x00510001
     384:	94000000 	strls	r0, [r0], #-0
     388:	04000000 	streq	r0, [r0], #-0
     38c:	5101f300 	mrspl	pc, SP_irq	; <UNPREDICTABLE>
     390:	0000949f 	muleq	r0, pc, r4	; <UNPREDICTABLE>
     394:	00009700 	andeq	r9, r0, r0, lsl #14
     398:	51000100 	mrspl	r0, (UNDEF: 16)
     39c:	00000097 	muleq	r0, r7, r0
     3a0:	000000b0 	strheq	r0, [r0], -r0	; <UNPREDICTABLE>
     3a4:	01f30004 	mvnseq	r0, r4
     3a8:	00b09f51 	adcseq	r9, r0, r1, asr pc
     3ac:	00b70000 	adcseq	r0, r7, r0
     3b0:	00010000 	andeq	r0, r1, r0
     3b4:	0000b751 	andeq	fp, r0, r1, asr r7
     3b8:	0000e000 	andeq	lr, r0, r0
     3bc:	f3000400 	vshl.u8	d0, d0, d0
     3c0:	009f5101 	addseq	r5, pc, r1, lsl #2
     3c4:	00000000 	andeq	r0, r0, r0
     3c8:	80000000 	andhi	r0, r0, r0
     3cc:	88000000 	stmdahi	r0, {}	; <UNPREDICTABLE>
     3d0:	01000000 	mrseq	r0, (UNDEF: 0)
     3d4:	00885000 	addeq	r5, r8, r0
     3d8:	008f0000 	addeq	r0, pc, r0
     3dc:	00010000 	andeq	r0, r1, r0
     3e0:	00000051 	andeq	r0, r0, r1, asr r0
     3e4:	00000000 	andeq	r0, r0, r0
     3e8:	0000b800 	andeq	fp, r0, r0, lsl #16
     3ec:	0000c000 	andeq	ip, r0, r0
     3f0:	50000100 	andpl	r0, r0, r0, lsl #2
     3f4:	000000c0 	andeq	r0, r0, r0, asr #1
     3f8:	000000c7 	andeq	r0, r0, r7, asr #1
     3fc:	00510001 	subseq	r0, r1, r1
     400:	00000000 	andeq	r0, r0, r0
     404:	44000000 	strmi	r0, [r0], #-0
     408:	48000000 	stmdami	r0, {}	; <UNPREDICTABLE>
     40c:	01000000 	mrseq	r0, (UNDEF: 0)
     410:	00485000 	subeq	r5, r8, r0
     414:	00500000 	subseq	r0, r0, r0
     418:	00040000 	andeq	r0, r4, r0
     41c:	9f5001f3 	svcls	0x005001f3
	...
     428:	00000044 	andeq	r0, r0, r4, asr #32
     42c:	00000048 	andeq	r0, r0, r8, asr #32
     430:	00700005 	rsbseq	r0, r0, r5
     434:	489f2438 	ldmmi	pc, {r3, r4, r5, sl, sp}	; <UNPREDICTABLE>
     438:	50000000 	andpl	r0, r0, r0
     43c:	01000000 	mrseq	r0, (UNDEF: 0)
     440:	00005000 	andeq	r5, r0, r0
	...
     44c:	00200000 	eoreq	r0, r0, r0
     450:	00010000 	andeq	r0, r1, r0
     454:	00002050 	andeq	r2, r0, r0, asr r0
     458:	00004400 	andeq	r4, r0, r0, lsl #8
     45c:	52000100 	andpl	r0, r0, #0, 2
	...
     46c:	00000010 	andeq	r0, r0, r0, lsl r0
     470:	10510001 	subsne	r0, r1, r1
     474:	44000000 	strmi	r0, [r0], #-0
     478:	01000000 	mrseq	r0, (UNDEF: 0)
     47c:	00005100 	andeq	r5, r0, r0, lsl #2
     480:	00000000 	andeq	r0, r0, r0
     484:	00040000 	andeq	r0, r4, r0
     488:	000c0000 	andeq	r0, ip, r0
     48c:	00020000 	andeq	r0, r2, r0
     490:	000c9f31 	andeq	r9, ip, r1, lsr pc
     494:	00440000 	subeq	r0, r4, r0
     498:	00010000 	andeq	r0, r1, r0
     49c:	00000053 	andeq	r0, r0, r3, asr r0
     4a0:	00000000 	andeq	r0, r0, r0
     4a4:	00000400 	andeq	r0, r0, r0, lsl #8
     4a8:	00002000 	andeq	r2, r0, r0
     4ac:	30000200 	andcc	r0, r0, r0, lsl #4
     4b0:	0000209f 	muleq	r0, pc, r0	; <UNPREDICTABLE>
     4b4:	00004400 	andeq	r4, r0, r0, lsl #8
     4b8:	50000100 	andpl	r0, r0, r0, lsl #2
	...
     4c4:	000001a8 	andeq	r0, r0, r8, lsr #3
     4c8:	000001cf 	andeq	r0, r0, pc, asr #3
     4cc:	cf500001 	svcgt	0x00500001
     4d0:	08000001 	stmdaeq	r0, {r0}
     4d4:	04000002 	streq	r0, [r0], #-2
     4d8:	5001f300 	andpl	pc, r1, r0, lsl #6
     4dc:	0000009f 	muleq	r0, pc, r0	; <UNPREDICTABLE>
     4e0:	00000000 	andeq	r0, r0, r0
     4e4:	0001a800 	andeq	sl, r1, r0, lsl #16
     4e8:	0001cc00 	andeq	ip, r1, r0, lsl #24
     4ec:	51000100 	mrspl	r0, (UNDEF: 16)
     4f0:	000001cc 	andeq	r0, r0, ip, asr #3
     4f4:	000001cf 	andeq	r0, r0, pc, asr #3
     4f8:	00710002 	rsbseq	r0, r1, r2
	...
     504:	000001a8 	andeq	r0, r0, r8, lsr #3
     508:	000001c8 	andeq	r0, r0, r8, asr #3
     50c:	c8520001 	ldmdagt	r2, {r0}^
     510:	08000001 	stmdaeq	r0, {r0}
     514:	01000002 	tsteq	r0, r2
     518:	00005600 	andeq	r5, r0, r0, lsl #12
     51c:	00000000 	andeq	r0, r0, r0
     520:	01a80000 			; <UNDEFINED> instruction: 0x01a80000
     524:	01c00000 	biceq	r0, r0, r0
     528:	00010000 	andeq	r0, r1, r0
     52c:	0001c053 	andeq	ip, r1, r3, asr r0
     530:	00020800 	andeq	r0, r2, r0, lsl #16
     534:	55000100 	strpl	r0, [r0, #-256]	; 0xffffff00
	...
     540:	000001d0 	ldrdeq	r0, [r0], -r0	; <UNPREDICTABLE>
     544:	000001d8 	ldrdeq	r0, [r0], -r8
     548:	9f300002 	svcls	0x00300002
     54c:	000001d8 	ldrdeq	r0, [r0], -r8
     550:	00000208 	andeq	r0, r0, r8, lsl #4
     554:	00540001 	subseq	r0, r4, r1
     558:	00000000 	andeq	r0, r0, r0
     55c:	84000000 	strhi	r0, [r0], #-0
     560:	9f000001 	svcls	0x00000001
     564:	01000001 	tsteq	r0, r1
     568:	019f5000 	orrseq	r5, pc, r0
     56c:	01a80000 			; <UNDEFINED> instruction: 0x01a80000
     570:	00040000 	andeq	r0, r4, r0
     574:	9f5001f3 	svcls	0x005001f3
	...
     580:	00000184 	andeq	r0, r0, r4, lsl #3
     584:	0000019c 	muleq	r0, ip, r1
     588:	9c510001 	mrrcls	0, 0, r0, r1, cr1
     58c:	9f000001 	svcls	0x00000001
     590:	02000001 	andeq	r0, r0, #1
     594:	9f007100 	svcls	0x00007100
     598:	a8000001 	stmdage	r0, {r0}
     59c:	04000001 	streq	r0, [r0], #-1
     5a0:	5101f300 	mrspl	pc, SP_irq	; <UNPREDICTABLE>
     5a4:	0000009f 	muleq	r0, pc, r0	; <UNPREDICTABLE>
     5a8:	00000000 	andeq	r0, r0, r0
     5ac:	00018400 	andeq	r8, r1, r0, lsl #8
     5b0:	00019800 	andeq	r9, r1, r0, lsl #16
     5b4:	52000100 	andpl	r0, r0, #0, 2
     5b8:	00000198 	muleq	r0, r8, r1
     5bc:	0000019f 	muleq	r0, pc, r1	; <UNPREDICTABLE>
     5c0:	6d910002 	ldcvs	0, cr0, [r1, #8]
     5c4:	0000019f 	muleq	r0, pc, r1	; <UNPREDICTABLE>
     5c8:	000001a8 	andeq	r0, r0, r8, lsr #3
     5cc:	01f30004 	mvnseq	r0, r4
     5d0:	00009f52 	andeq	r9, r0, r2, asr pc
     5d4:	00000000 	andeq	r0, r0, r0
     5d8:	01480000 	mrseq	r0, (UNDEF: 72)
     5dc:	01670000 	cmneq	r7, r0
     5e0:	00010000 	andeq	r0, r1, r0
     5e4:	00016750 	andeq	r6, r1, r0, asr r7
     5e8:	00018400 	andeq	r8, r1, r0, lsl #8
     5ec:	f3000400 	vshl.u8	d0, d0, d0
     5f0:	009f5001 	addseq	r5, pc, r1
     5f4:	00000000 	andeq	r0, r0, r0
     5f8:	48000000 	stmdami	r0, {}	; <UNPREDICTABLE>
     5fc:	64000001 	strvs	r0, [r0], #-1
     600:	01000001 	tsteq	r0, r1
     604:	01645100 	cmneq	r4, r0, lsl #2
     608:	01670000 	cmneq	r7, r0
     60c:	00020000 	andeq	r0, r2, r0
     610:	00000071 	andeq	r0, r0, r1, ror r0
     614:	00000000 	andeq	r0, r0, r0
     618:	03ec0000 	mvneq	r0, #0
     61c:	04030000 	streq	r0, [r3], #-0
     620:	00010000 	andeq	r0, r1, r0
     624:	00040350 	andeq	r0, r4, r0, asr r3
     628:	0004ac00 	andeq	sl, r4, r0, lsl #24
     62c:	f3000400 	vshl.u8	d0, d0, d0
     630:	009f5001 	addseq	r5, pc, r1
     634:	00000000 	andeq	r0, r0, r0
     638:	ec000000 	stc	0, cr0, [r0], {-0}
     63c:	00000003 	andeq	r0, r0, r3
     640:	01000004 	tsteq	r0, r4
     644:	04005100 	streq	r5, [r0], #-256	; 0xffffff00
     648:	04ac0000 	strteq	r0, [ip], #0
     64c:	00010000 	andeq	r0, r1, r0
     650:	00000055 	andeq	r0, r0, r5, asr r0
     654:	00000000 	andeq	r0, r0, r0
     658:	0003ec00 	andeq	lr, r3, r0, lsl #24
     65c:	0003fc00 	andeq	pc, r3, r0, lsl #24
     660:	52000100 	andpl	r0, r0, #0, 2
     664:	000003fc 	strdeq	r0, [r0], -ip
     668:	000004ac 	andeq	r0, r0, ip, lsr #9
     66c:	00540001 	subseq	r0, r4, r1
     670:	00000000 	andeq	r0, r0, r0
     674:	04000000 	streq	r0, [r0], #-0
     678:	0c000004 	stceq	0, cr0, [r0], {4}
     67c:	02000004 	andeq	r0, r0, #4
     680:	0c9f3000 	ldceq	0, cr3, [pc], {0}
     684:	0f000004 	svceq	0x00000004
     688:	01000004 	tsteq	r0, r4
     68c:	04285200 	strteq	r5, [r8], #-512	; 0xfffffe00
     690:	04730000 	ldrbteq	r0, [r3], #-0
     694:	00010000 	andeq	r0, r1, r0
     698:	00048c52 	andeq	r8, r4, r2, asr ip
     69c:	00048f00 	andeq	r8, r4, r0, lsl #30
     6a0:	52000100 	andpl	r0, r0, #0, 2
	...
     6ac:	00000328 	andeq	r0, r0, r8, lsr #6
     6b0:	0000033f 	andeq	r0, r0, pc, lsr r3
     6b4:	3f500001 	svccc	0x00500001
     6b8:	ec000003 	stc	0, cr0, [r0], {3}
     6bc:	04000003 	streq	r0, [r0], #-3
     6c0:	5001f300 	andpl	pc, r1, r0, lsl #6
     6c4:	0000009f 	muleq	r0, pc, r0	; <UNPREDICTABLE>
     6c8:	00000000 	andeq	r0, r0, r0
     6cc:	00032800 	andeq	r2, r3, r0, lsl #16
     6d0:	00033c00 	andeq	r3, r3, r0, lsl #24
     6d4:	51000100 	mrspl	r0, (UNDEF: 16)
     6d8:	0000033c 	andeq	r0, r0, ip, lsr r3
     6dc:	000003ec 	andeq	r0, r0, ip, ror #7
     6e0:	00550001 	subseq	r0, r5, r1
     6e4:	00000000 	andeq	r0, r0, r0
     6e8:	28000000 	stmdacs	r0, {}	; <UNPREDICTABLE>
     6ec:	38000003 	stmdacc	r0, {r0, r1}
     6f0:	01000003 	tsteq	r0, r3
     6f4:	03385200 	teqeq	r8, #0, 4
     6f8:	03ec0000 	mvneq	r0, #0
     6fc:	00010000 	andeq	r0, r1, r0
     700:	00000054 	andeq	r0, r0, r4, asr r0
     704:	00000000 	andeq	r0, r0, r0
     708:	00034000 	andeq	r4, r3, r0
     70c:	00034800 	andeq	r4, r3, r0, lsl #16
     710:	30000200 	andcc	r0, r0, r0, lsl #4
     714:	0003489f 	muleq	r3, pc, r8	; <UNPREDICTABLE>
     718:	00034b00 	andeq	r4, r3, r0, lsl #22
     71c:	52000100 	andpl	r0, r0, #0, 2
     720:	00000364 	andeq	r0, r0, r4, ror #6
     724:	000003af 	andeq	r0, r0, pc, lsr #7
     728:	c8520001 	ldmdagt	r2, {r0}^
     72c:	cb000003 	blgt	740 <_start-0x78c0>
     730:	01000003 	tsteq	r0, r3
     734:	00005200 	andeq	r5, r0, r0, lsl #4
     738:	00000000 	andeq	r0, r0, r0
     73c:	01600000 	cmneq	r0, r0
     740:	01730000 	cmneq	r3, r0
     744:	00010000 	andeq	r0, r1, r0
     748:	00017350 	andeq	r7, r1, r0, asr r3
     74c:	00032800 	andeq	r2, r3, r0, lsl #16
     750:	56000100 	strpl	r0, [r0], -r0, lsl #2
	...
     75c:	00000160 	andeq	r0, r0, r0, ror #2
     760:	00000173 	andeq	r0, r0, r3, ror r1
     764:	73510001 	cmpvc	r1, #1
     768:	1c000001 	stcne	0, cr0, [r0], {1}
     76c:	01000002 	tsteq	r0, r2
     770:	021c5500 	andseq	r5, ip, #0, 10
     774:	02880000 	addeq	r0, r8, #0
     778:	00040000 	andeq	r0, r4, r0
     77c:	9f5101f3 	svcls	0x005101f3
     780:	00000288 	andeq	r0, r0, r8, lsl #5
     784:	000002dc 	ldrdeq	r0, [r0], -ip
     788:	dc550001 	mrrcle	0, 0, r0, r5, cr1
     78c:	28000002 	stmdacs	r0, {r1}
     790:	04000003 	streq	r0, [r0], #-3
     794:	5101f300 	mrspl	pc, SP_irq	; <UNPREDICTABLE>
     798:	0000009f 	muleq	r0, pc, r0	; <UNPREDICTABLE>
     79c:	00000000 	andeq	r0, r0, r0
     7a0:	00016000 	andeq	r6, r1, r0
     7a4:	00017300 	andeq	r7, r1, r0, lsl #6
     7a8:	52000100 	andpl	r0, r0, #0, 2
     7ac:	00000173 	andeq	r0, r0, r3, ror r1
     7b0:	00000328 	andeq	r0, r0, r8, lsr #6
     7b4:	00540001 	subseq	r0, r4, r1
     7b8:	00000000 	andeq	r0, r0, r0
     7bc:	2c000000 	stccs	0, cr0, [r0], {-0}
     7c0:	30000002 	andcc	r0, r0, r2
     7c4:	01000002 	tsteq	r0, r2
     7c8:	00005000 	andeq	r5, r0, r0
     7cc:	00000000 	andeq	r0, r0, r0
     7d0:	013c0000 	teqeq	ip, r0
     7d4:	01400000 	mrseq	r0, (UNDEF: 64)
     7d8:	00010000 	andeq	r0, r1, r0
     7dc:	00000051 	andeq	r0, r0, r1, asr r0
     7e0:	00000000 	andeq	r0, r0, r0
     7e4:	00011800 	andeq	r1, r1, r0, lsl #16
     7e8:	00011f00 	andeq	r1, r1, r0, lsl #30
     7ec:	50000100 	andpl	r0, r0, r0, lsl #2
     7f0:	0000011f 	andeq	r0, r0, pc, lsl r1
     7f4:	00000128 	andeq	r0, r0, r8, lsr #2
     7f8:	01f30004 	mvnseq	r0, r4
     7fc:	00009f50 	andeq	r9, r0, r0, asr pc
     800:	00000000 	andeq	r0, r0, r0
     804:	00140000 	andseq	r0, r4, r0
     808:	00180000 	andseq	r0, r8, r0
     80c:	00010000 	andeq	r0, r1, r0
     810:	00000050 	andeq	r0, r0, r0, asr r0
     814:	00000000 	andeq	r0, r0, r0
     818:	00015000 	andeq	r5, r1, r0
     81c:	00015700 	andeq	r5, r1, r0, lsl #14
     820:	50000100 	andpl	r0, r0, r0, lsl #2
     824:	00000157 	andeq	r0, r0, r7, asr r1
     828:	00000160 	andeq	r0, r0, r0, ror #2
     82c:	01f30004 	mvnseq	r0, r4
     830:	00009f50 	andeq	r9, r0, r0, asr pc
	...
     83c:	00040000 	andeq	r0, r4, r0
     840:	00010000 	andeq	r0, r1, r0
     844:	00001050 	andeq	r1, r0, r0, asr r0
     848:	00001000 	andeq	r1, r0, r0
     84c:	50000100 	andpl	r0, r0, r0, lsl #2
	...
     858:	0000002c 	andeq	r0, r0, ip, lsr #32
     85c:	00000038 	andeq	r0, r0, r8, lsr r0
     860:	38500001 	ldmdacc	r0, {r0}^
     864:	48000000 	stmdami	r0, {}	; <UNPREDICTABLE>
     868:	01000000 	mrseq	r0, (UNDEF: 0)
     86c:	00485500 	subeq	r5, r8, r0, lsl #10
     870:	00580000 	subseq	r0, r8, r0
     874:	00010000 	andeq	r0, r1, r0
     878:	00000050 	andeq	r0, r0, r0, asr r0
     87c:	00000000 	andeq	r0, r0, r0
     880:	00027000 	andeq	r7, r2, r0
     884:	00029400 	andeq	r9, r2, r0, lsl #8
     888:	50000100 	andpl	r0, r0, r0, lsl #2
     88c:	00000294 	muleq	r0, r4, r2
     890:	0000051c 	andeq	r0, r0, ip, lsl r5
     894:	1c590001 	mrrcne	0, 0, r0, r9, cr1
     898:	30000005 	andcc	r0, r0, r5
     89c:	04000005 	streq	r0, [r0], #-5
     8a0:	5001f300 	andpl	pc, r1, r0, lsl #6
     8a4:	0000009f 	muleq	r0, pc, r0	; <UNPREDICTABLE>
     8a8:	00000000 	andeq	r0, r0, r0
     8ac:	00027000 	andeq	r7, r2, r0
     8b0:	00028400 	andeq	r8, r2, r0, lsl #8
     8b4:	51000100 	mrspl	r0, (UNDEF: 16)
     8b8:	00000284 	andeq	r0, r0, r4, lsl #5
     8bc:	00000294 	muleq	r0, r4, r2
     8c0:	01710003 	cmneq	r1, r3
     8c4:	0002949f 	muleq	r2, pc, r4	; <UNPREDICTABLE>
     8c8:	00053000 	andeq	r3, r5, r0
     8cc:	f3000400 	vshl.u8	d0, d0, d0
     8d0:	009f5101 	addseq	r5, pc, r1, lsl #2
     8d4:	00000000 	andeq	r0, r0, r0
     8d8:	70000000 	andvc	r0, r0, r0
     8dc:	b0000002 	andlt	r0, r0, r2
     8e0:	01000002 	tsteq	r0, r2
     8e4:	02b05200 	adcseq	r5, r0, #0, 4
     8e8:	02c80000 	sbceq	r0, r8, #0
     8ec:	00010000 	andeq	r0, r1, r0
     8f0:	0002c852 	andeq	ip, r2, r2, asr r8
     8f4:	0002d000 	andeq	sp, r2, r0
     8f8:	55000100 	strpl	r0, [r0, #-256]	; 0xffffff00
     8fc:	000002d0 	ldrdeq	r0, [r0], -r0	; <UNPREDICTABLE>
     900:	000002e0 	andeq	r0, r0, r0, ror #5
     904:	e0520001 	subs	r0, r2, r1
     908:	e4000002 	str	r0, [r0], #-2
     90c:	01000003 	tsteq	r0, r3
     910:	03e45500 	mvneq	r5, #0, 10
     914:	03e80000 	mvneq	r0, #0
     918:	00010000 	andeq	r0, r1, r0
     91c:	0003e852 	andeq	lr, r3, r2, asr r8
     920:	0004e000 	andeq	lr, r4, r0
     924:	55000100 	strpl	r0, [r0, #-256]	; 0xffffff00
     928:	000004e0 	andeq	r0, r0, r0, ror #9
     92c:	00000530 	andeq	r0, r0, r0, lsr r5
     930:	00520001 	subseq	r0, r2, r1
     934:	00000000 	andeq	r0, r0, r0
     938:	80000000 	andhi	r0, r0, r0
     93c:	94000002 	strls	r0, [r0], #-2
     940:	01000002 	tsteq	r0, r2
     944:	02945000 	addseq	r5, r4, #0
     948:	02ac0000 	adceq	r0, ip, #0
     94c:	00010000 	andeq	r0, r1, r0
     950:	0002ac56 	andeq	sl, r2, r6, asr ip
     954:	0002b800 	andeq	fp, r2, r0, lsl #16
     958:	76000300 	strvc	r0, [r0], -r0, lsl #6
     95c:	02b89f01 	adcseq	r9, r8, #1, 30
     960:	02d00000 	sbcseq	r0, r0, #0
     964:	00010000 	andeq	r0, r1, r0
     968:	0002d056 	andeq	sp, r2, r6, asr r0
     96c:	0002dc00 	andeq	sp, r2, r0, lsl #24
     970:	76000300 	strvc	r0, [r0], -r0, lsl #6
     974:	02dc9f01 	sbcseq	r9, ip, #1, 30
     978:	04e00000 	strbteq	r0, [r0], #0
     97c:	00010000 	andeq	r0, r1, r0
     980:	0004e056 	andeq	lr, r4, r6, asr r0
     984:	0004ec00 	andeq	lr, r4, r0, lsl #24
     988:	76000300 	strvc	r0, [r0], -r0, lsl #6
     98c:	04ec9f01 	strbteq	r9, [ip], #3841	; 0xf01
     990:	05080000 	streq	r0, [r8, #-0]
     994:	00010000 	andeq	r0, r1, r0
     998:	00050856 	andeq	r0, r5, r6, asr r8
     99c:	00051400 	andeq	r1, r5, r0, lsl #8
     9a0:	50000100 	andpl	r0, r0, r0, lsl #2
     9a4:	00000514 	andeq	r0, r0, r4, lsl r5
     9a8:	0000051c 	andeq	r0, r0, ip, lsl r5
     9ac:	01760003 	cmneq	r6, r3
     9b0:	0000009f 	muleq	r0, pc, r0	; <UNPREDICTABLE>
     9b4:	00000000 	andeq	r0, r0, r0
     9b8:	00028800 	andeq	r8, r2, r0, lsl #16
     9bc:	00051c00 	andeq	r1, r5, r0, lsl #24
     9c0:	58000100 	stmdapl	r0, {r8}
     9c4:	0000051c 	andeq	r0, r0, ip, lsl r5
     9c8:	00000530 	andeq	r0, r0, r0, lsr r5
     9cc:	01f3000a 	mvnseq	r0, sl
     9d0:	5001f351 	andpl	pc, r1, r1, asr r3	; <UNPREDICTABLE>
     9d4:	9f1c3122 	svcls	0x001c3122
	...
     9e0:	000003e0 	andeq	r0, r0, r0, ror #7
     9e4:	000003e8 	andeq	r0, r0, r8, ror #7
     9e8:	14500001 	ldrbne	r0, [r0], #-1
     9ec:	18000004 	stmdane	r0, {r2}
     9f0:	01000004 	tsteq	r0, r4
     9f4:	04445000 	strbeq	r5, [r4], #-0
     9f8:	04480000 	strbeq	r0, [r8], #-0
     9fc:	00010000 	andeq	r0, r1, r0
     a00:	00047450 	andeq	r7, r4, r0, asr r4
     a04:	00047800 	andeq	r7, r4, r0, lsl #16
     a08:	50000100 	andpl	r0, r0, r0, lsl #2
     a0c:	000004b8 			; <UNDEFINED> instruction: 0x000004b8
     a10:	000004bc 			; <UNDEFINED> instruction: 0x000004bc
     a14:	e0500001 	subs	r0, r0, r1
     a18:	04000004 	streq	r0, [r0], #-4
     a1c:	01000005 	tsteq	r0, r5
     a20:	00005000 	andeq	r5, r0, r0
     a24:	00000000 	andeq	r0, r0, r0
     a28:	02c80000 	sbceq	r0, r8, #0
     a2c:	02d00000 	sbcseq	r0, r0, #0
     a30:	00020000 	andeq	r0, r2, r0
     a34:	02e09f30 	rsceq	r9, r0, #48, 30	; 0xc0
     a38:	02e40000 	rsceq	r0, r4, #0
     a3c:	00010000 	andeq	r0, r1, r0
     a40:	0002f054 	andeq	pc, r2, r4, asr r0	; <UNPREDICTABLE>
     a44:	00050400 	andeq	r0, r5, r0, lsl #8
     a48:	54000100 	strpl	r0, [r0], #-256	; 0xffffff00
	...
     a54:	00000080 	andeq	r0, r0, r0, lsl #1
     a58:	000000a4 	andeq	r0, r0, r4, lsr #1
     a5c:	a4500001 	ldrbge	r0, [r0], #-1
     a60:	f0000000 			; <UNDEFINED> instruction: 0xf0000000
     a64:	03000000 	movweq	r0, #0
     a68:	9f027000 	svcls	0x00027000
     a6c:	000000f0 	strdeq	r0, [r0], -r0	; <UNPREDICTABLE>
     a70:	0000021c 	andeq	r0, r0, ip, lsl r2
     a74:	01f30004 	mvnseq	r0, r4
     a78:	00009f50 	andeq	r9, r0, r0, asr pc
     a7c:	00000000 	andeq	r0, r0, r0
     a80:	00800000 	addeq	r0, r0, r0
     a84:	00a00000 	adceq	r0, r0, r0
     a88:	00010000 	andeq	r0, r1, r0
     a8c:	0000a051 	andeq	sl, r0, r1, asr r0
     a90:	00021c00 	andeq	r1, r2, r0, lsl #24
     a94:	55000100 	strpl	r0, [r0, #-256]	; 0xffffff00
	...
     aa0:	00000080 	andeq	r0, r0, r0, lsl #1
     aa4:	00000094 	muleq	r0, r4, r0
     aa8:	94520001 	ldrbls	r0, [r2], #-1
     aac:	1c000000 	stcne	0, cr0, [r0], {-0}
     ab0:	01000002 	tsteq	r0, r2
     ab4:	00005400 	andeq	r5, r0, r0, lsl #8
     ab8:	00000000 	andeq	r0, r0, r0
     abc:	00800000 	addeq	r0, r0, r0
     ac0:	00ec0000 	rsceq	r0, ip, r0
     ac4:	00010000 	andeq	r0, r1, r0
     ac8:	0000ec53 	andeq	lr, r0, r3, asr ip
     acc:	00010400 	andeq	r0, r1, r0, lsl #8
     ad0:	51000100 	mrspl	r0, (UNDEF: 16)
     ad4:	00000110 	andeq	r0, r0, r0, lsl r1
     ad8:	00000118 	andeq	r0, r0, r8, lsl r1
     adc:	68510001 	ldmdavs	r1, {r0}^
     ae0:	6c000001 	stcvs	0, cr0, [r0], {1}
     ae4:	01000001 	tsteq	r0, r1
     ae8:	016c5100 	cmneq	ip, r0, lsl #2
     aec:	018c0000 	orreq	r0, ip, r0
     af0:	00040000 	andeq	r0, r4, r0
     af4:	9f5301f3 	svcls	0x005301f3
     af8:	000001b0 			; <UNDEFINED> instruction: 0x000001b0
     afc:	000001c0 	andeq	r0, r0, r0, asr #3
     b00:	c0510001 	subsgt	r0, r1, r1
     b04:	e4000001 	str	r0, [r0], #-1
     b08:	04000001 	streq	r0, [r0], #-1
     b0c:	5301f300 	movwpl	pc, #4864	; 0x1300	; <UNPREDICTABLE>
     b10:	0001e49f 	muleq	r1, pc, r4	; <UNPREDICTABLE>
     b14:	0001e700 	andeq	lr, r1, r0, lsl #14
     b18:	51000100 	mrspl	r0, (UNDEF: 16)
     b1c:	000001e7 	andeq	r0, r0, r7, ror #3
     b20:	0000021c 	andeq	r0, r0, ip, lsl r2
     b24:	01f30004 	mvnseq	r0, r4
     b28:	00009f53 	andeq	r9, r0, r3, asr pc
     b2c:	00000000 	andeq	r0, r0, r0
     b30:	00800000 	addeq	r0, r0, r0
     b34:	009c0000 	addseq	r0, ip, r0
     b38:	00020000 	andeq	r0, r2, r0
     b3c:	009c0091 	umullseq	r0, ip, r1, r0
     b40:	01930000 	orrseq	r0, r3, r0
     b44:	00010000 	andeq	r0, r1, r0
     b48:	0001b052 	andeq	fp, r1, r2, asr r0
     b4c:	0001e700 	andeq	lr, r1, r0, lsl #14
     b50:	52000100 	andpl	r0, r0, #0, 2
	...
     b5c:	0000009c 	muleq	r0, ip, r0
     b60:	00000118 	andeq	r0, r0, r8, lsl r1
     b64:	185d0001 	ldmdane	sp, {r0}^
     b68:	1c000001 	stcne	0, cr0, [r0], {1}
     b6c:	01000001 	tsteq	r0, r1
     b70:	011c5000 	tsteq	ip, r0
     b74:	01200000 			; <UNDEFINED> instruction: 0x01200000
     b78:	00010000 	andeq	r0, r1, r0
     b7c:	0001205c 	andeq	r2, r1, ip, asr r0
     b80:	00015800 	andeq	r5, r1, r0, lsl #16
     b84:	50000100 	andpl	r0, r0, r0, lsl #2
     b88:	00000158 	andeq	r0, r0, r8, asr r1
     b8c:	00000164 	andeq	r0, r0, r4, ror #2
     b90:	027c0003 	rsbseq	r0, ip, #3
     b94:	0001649f 	muleq	r1, pc, r4	; <UNPREDICTABLE>
     b98:	00016800 	andeq	r6, r1, r0, lsl #16
     b9c:	50000100 	andpl	r0, r0, r0, lsl #2
     ba0:	00000168 	andeq	r0, r0, r8, ror #2
     ba4:	0000016c 	andeq	r0, r0, ip, ror #2
     ba8:	6c5d0001 	mrrcvs	0, 0, r0, sp, cr1
     bac:	70000001 	andvc	r0, r0, r1
     bb0:	01000001 	tsteq	r0, r1
     bb4:	01705300 	cmneq	r0, r0, lsl #6
     bb8:	01930000 	orrseq	r0, r3, r0
     bbc:	00010000 	andeq	r0, r1, r0
     bc0:	0001b050 	andeq	fp, r1, r0, asr r0
     bc4:	0001b800 	andeq	fp, r1, r0, lsl #16
     bc8:	91000400 	tstls	r0, r0, lsl #8
     bcc:	b89f7fa1 	ldmlt	pc, {r0, r5, r7, r8, r9, sl, fp, ip, sp, lr}	; <UNPREDICTABLE>
     bd0:	bc000001 	stclt	0, cr0, [r0], {1}
     bd4:	01000001 	tsteq	r0, r1
     bd8:	01bc5000 			; <UNDEFINED> instruction: 0x01bc5000
     bdc:	01c00000 	biceq	r0, r0, r0
     be0:	00010000 	andeq	r0, r1, r0
     be4:	0001c05d 	andeq	ip, r1, sp, asr r0
     be8:	0001c400 	andeq	ip, r1, r0, lsl #8
     bec:	53000100 	movwpl	r0, #256	; 0x100
     bf0:	000001c4 	andeq	r0, r0, r4, asr #3
     bf4:	000001e4 	andeq	r0, r0, r4, ror #3
     bf8:	e4500001 	ldrb	r0, [r0], #-1
     bfc:	1c000001 	stcne	0, cr0, [r0], {1}
     c00:	01000002 	tsteq	r0, r2
     c04:	00005d00 	andeq	r5, r0, r0, lsl #26
     c08:	00000000 	andeq	r0, r0, r0
     c0c:	00a00000 	adceq	r0, r0, r0
     c10:	01400000 	mrseq	r0, (UNDEF: 64)
     c14:	00010000 	andeq	r0, r1, r0
     c18:	00014c51 	andeq	r4, r1, r1, asr ip
     c1c:	00018000 	andeq	r8, r1, r0
     c20:	51000100 	mrspl	r0, (UNDEF: 16)
     c24:	00000180 	andeq	r0, r0, r0, lsl #3
     c28:	00000188 	andeq	r0, r0, r8, lsl #3
     c2c:	00710005 	rsbseq	r0, r1, r5
     c30:	889f2534 	ldmhi	pc, {r2, r4, r5, r8, sl, sp}	; <UNPREDICTABLE>
     c34:	90000001 	andls	r0, r0, r1
     c38:	01000001 	tsteq	r0, r1
     c3c:	01b05100 	lslseq	r5, r0, #2
     c40:	01d40000 	bicseq	r0, r4, r0
     c44:	00010000 	andeq	r0, r1, r0
     c48:	0001d451 	andeq	sp, r1, r1, asr r4
     c4c:	0001dc00 	andeq	sp, r1, r0, lsl #24
     c50:	71000500 	tstvc	r0, r0, lsl #10
     c54:	9f253100 	svcls	0x00253100
     c58:	000001dc 	ldrdeq	r0, [r0], -ip
     c5c:	000001e7 	andeq	r0, r0, r7, ror #3
     c60:	e7510001 	ldrb	r0, [r1, -r1]
     c64:	1c000001 	stcne	0, cr0, [r0], {1}
     c68:	04000002 	streq	r0, [r0], #-2
     c6c:	5301f300 	movwpl	pc, #4864	; 0x1300	; <UNPREDICTABLE>
     c70:	0000009f 	muleq	r0, pc, r0	; <UNPREDICTABLE>
     c74:	00000000 	andeq	r0, r0, r0
     c78:	0000ec00 	andeq	lr, r0, r0, lsl #24
     c7c:	00010000 	andeq	r0, r1, r0
     c80:	30000200 	andcc	r0, r0, r0, lsl #4
     c84:	0001009f 	muleq	r1, pc, r0	; <UNPREDICTABLE>
     c88:	00010800 	andeq	r0, r1, r0, lsl #16
     c8c:	31000200 	mrscc	r0, R8_usr
     c90:	0001109f 	muleq	r1, pc, r0	; <UNPREDICTABLE>
     c94:	00011800 	andeq	r1, r1, r0, lsl #16
     c98:	30000200 	andcc	r0, r0, r0, lsl #4
     c9c:	0001189f 	muleq	r1, pc, r8	; <UNPREDICTABLE>
     ca0:	00016800 	andeq	r6, r1, r0, lsl #16
     ca4:	57000100 	strpl	r0, [r0, -r0, lsl #2]
	...
     cb0:	00000040 	andeq	r0, r0, r0, asr #32
     cb4:	00000060 	andeq	r0, r0, r0, rrx
     cb8:	60500001 	subsvs	r0, r0, r1
     cbc:	6c000000 	stcvs	0, cr0, [r0], {-0}
     cc0:	03000000 	movweq	r0, #0
     cc4:	9f017100 	svcls	0x00017100
     cc8:	0000006c 	andeq	r0, r0, ip, rrx
     ccc:	00000074 	andeq	r0, r0, r4, ror r0
     cd0:	74510001 	ldrbvc	r0, [r1], #-1
     cd4:	80000000 	andhi	r0, r0, r0
     cd8:	03000000 	movweq	r0, #0
     cdc:	9f017100 	svcls	0x00017100
	...
     ce8:	00000040 	andeq	r0, r0, r0, asr #32
     cec:	0000005c 	andeq	r0, r0, ip, asr r0
     cf0:	5c510001 	mrrcpl	0, 0, r0, r1, cr1
     cf4:	80000000 	andhi	r0, r0, r0
     cf8:	04000000 	streq	r0, [r0], #-0
     cfc:	5101f300 	mrspl	pc, SP_irq	; <UNPREDICTABLE>
     d00:	0000009f 	muleq	r0, pc, r0	; <UNPREDICTABLE>
     d04:	00000000 	andeq	r0, r0, r0
     d08:	00004000 	andeq	r4, r0, r0
     d0c:	00005800 	andeq	r5, r0, r0, lsl #16
     d10:	52000100 	andpl	r0, r0, #0, 2
     d14:	00000058 	andeq	r0, r0, r8, asr r0
     d18:	00000064 	andeq	r0, r0, r4, rrx
     d1c:	64520001 	ldrbvs	r0, [r2], #-1
     d20:	68000000 	stmdavs	r0, {}	; <UNPREDICTABLE>
     d24:	03000000 	movweq	r0, #0
     d28:	9f017200 	svcls	0x00017200
     d2c:	00000068 	andeq	r0, r0, r8, rrx
     d30:	00000080 	andeq	r0, r0, r0, lsl #1
     d34:	00520001 	subseq	r0, r2, r1
     d38:	00000000 	andeq	r0, r0, r0
     d3c:	40000000 	andmi	r0, r0, r0
     d40:	54000000 	strpl	r0, [r0], #-0
     d44:	01000000 	mrseq	r0, (UNDEF: 0)
     d48:	00545300 	subseq	r5, r4, r0, lsl #6
     d4c:	00780000 	rsbseq	r0, r8, r0
     d50:	00010000 	andeq	r0, r1, r0
     d54:	00000053 	andeq	r0, r0, r3, asr r0
     d58:	00000000 	andeq	r0, r0, r0
     d5c:	00004800 	andeq	r4, r0, r0, lsl #16
     d60:	00005000 	andeq	r5, r0, r0
     d64:	5c000100 	stfpls	f0, [r0], {-0}
     d68:	00000050 	andeq	r0, r0, r0, asr r0
     d6c:	00000054 	andeq	r0, r0, r4, asr r0
     d70:	00720008 	rsbseq	r0, r2, r8
     d74:	231c0073 	tstcs	ip, #115	; 0x73
     d78:	00549f01 	subseq	r9, r4, r1, lsl #30
     d7c:	00580000 	subseq	r0, r8, r0
     d80:	00090000 	andeq	r0, r9, r0
     d84:	01f30072 	mvnseq	r0, r2, ror r0
     d88:	01231c53 			; <UNDEFINED> instruction: 0x01231c53
     d8c:	0000589f 	muleq	r0, pc, r8	; <UNPREDICTABLE>
     d90:	00006000 	andeq	r6, r0, r0
     d94:	72000900 	andvc	r0, r0, #0, 18
     d98:	5301f300 	movwpl	pc, #4864	; 0x1300	; <UNPREDICTABLE>
     d9c:	9f02231c 	svcls	0x0002231c
     da0:	00000060 	andeq	r0, r0, r0, rrx
     da4:	00000080 	andeq	r0, r0, r0, lsl #1
     da8:	01f3000a 	mvnseq	r0, sl
     dac:	5301f352 	movwpl	pc, #4946	; 0x1352	; <UNPREDICTABLE>
     db0:	9f01231c 	svcls	0x0001231c
	...
     dbc:	00000014 	andeq	r0, r0, r4, lsl r0
     dc0:	0000001c 	andeq	r0, r0, ip, lsl r0
     dc4:	1c500001 	mrrcne	0, 0, r0, r0, cr1	; <UNPREDICTABLE>
     dc8:	2c000000 	stccs	0, cr0, [r0], {-0}
     dcc:	03000000 	movweq	r0, #0
     dd0:	9f017000 	svcls	0x00017000
     dd4:	0000002c 	andeq	r0, r0, ip, lsr #32
     dd8:	00000040 	andeq	r0, r0, r0, asr #32
     ddc:	00500001 	subseq	r0, r0, r1
     de0:	00000000 	andeq	r0, r0, r0
     de4:	14000000 	strne	r0, [r0], #-0
     de8:	18000000 	stmdane	r0, {}	; <UNPREDICTABLE>
     dec:	01000000 	mrseq	r0, (UNDEF: 0)
     df0:	00185100 	andseq	r5, r8, r0, lsl #2
     df4:	00400000 	subeq	r0, r0, r0
     df8:	00040000 	andeq	r0, r4, r0
     dfc:	9f5101f3 	svcls	0x005101f3
	...
     e0c:	00000004 	andeq	r0, r0, r4
     e10:	04500001 	ldrbeq	r0, [r0], #-1
     e14:	0c000000 	stceq	0, cr0, [r0], {-0}
     e18:	03000000 	movweq	r0, #0
     e1c:	9f307000 	svcls	0x00307000
     e20:	0000000c 	andeq	r0, r0, ip
     e24:	00000014 	andeq	r0, r0, r4, lsl r0
     e28:	01f30004 	mvnseq	r0, r4
     e2c:	00009f50 	andeq	r9, r0, r0, asr pc
     e30:	00000000 	andeq	r0, r0, r0
     e34:	021c0000 	andseq	r0, ip, #0
     e38:	02430000 	subeq	r0, r3, #0
     e3c:	00010000 	andeq	r0, r1, r0
     e40:	00024350 	andeq	r4, r2, r0, asr r3
     e44:	00027000 	andeq	r7, r2, r0
     e48:	f3000400 	vshl.u8	d0, d0, d0
     e4c:	009f5001 	addseq	r5, pc, r1
     e50:	00000000 	andeq	r0, r0, r0
     e54:	1c000000 	stcne	0, cr0, [r0], {-0}
     e58:	43000002 	movwmi	r0, #2
     e5c:	01000002 	tsteq	r0, r2
     e60:	02435100 	subeq	r5, r3, #0, 2
     e64:	02700000 	rsbseq	r0, r0, #0
     e68:	00040000 	andeq	r0, r4, r0
     e6c:	9f5101f3 	svcls	0x005101f3
	...
     e7c:	0000000c 	andeq	r0, r0, ip
     e80:	0c500001 	mrrceq	0, 0, r0, r0, cr1	; <UNPREDICTABLE>
     e84:	34000000 	strcc	r0, [r0], #-0
     e88:	01000000 	mrseq	r0, (UNDEF: 0)
     e8c:	00005400 	andeq	r5, r0, r0, lsl #8
	...
     e98:	000b0000 	andeq	r0, fp, r0
     e9c:	00010000 	andeq	r0, r1, r0
     ea0:	00000b50 	andeq	r0, r0, r0, asr fp
     ea4:	00001400 	andeq	r1, r0, r0, lsl #8
     ea8:	54000100 	strpl	r0, [r0], #-256	; 0xffffff00
	...
     eb4:	00000010 	andeq	r0, r0, r0, lsl r0
     eb8:	0000001c 	andeq	r0, r0, ip, lsl r0
     ebc:	04730003 	ldrbteq	r0, [r3], #-3
     ec0:	00001c9f 	muleq	r0, pc, ip	; <UNPREDICTABLE>
     ec4:	00002b00 	andeq	r2, r0, r0, lsl #22
     ec8:	53000100 	movwpl	r0, #256	; 0x100
	...
     ed4:	0000002c 	andeq	r0, r0, ip, lsr #32
     ed8:	00000040 	andeq	r0, r0, r0, asr #32
     edc:	48500001 	ldmdami	r0, {r0}^
     ee0:	58000000 	stmdapl	r0, {}	; <UNPREDICTABLE>
     ee4:	01000000 	mrseq	r0, (UNDEF: 0)
     ee8:	00005000 	andeq	r5, r0, r0
     eec:	00000000 	andeq	r0, r0, r0
     ef0:	924c0000 	subls	r0, ip, #0
     ef4:	92680000 	rsbls	r0, r8, #0
     ef8:	00060000 	andeq	r0, r6, r0
     efc:	10001c0c 	andne	r1, r0, ip, lsl #24
     f00:	00009f20 	andeq	r9, r0, r0, lsr #30
     f04:	00000000 	andeq	r0, r0, r0
     f08:	924c0000 	subls	r0, ip, #0
     f0c:	92680000 	rsbls	r0, r8, #0
     f10:	00060000 	andeq	r0, r6, r0
     f14:	1000240c 	andne	r2, r0, ip, lsl #8
     f18:	00009f20 	andeq	r9, r0, r0, lsr #30
     f1c:	00000000 	andeq	r0, r0, r0
     f20:	924c0000 	subls	r0, ip, #0
     f24:	92680000 	rsbls	r0, r8, #0
     f28:	00050000 	andeq	r0, r5, r0
     f2c:	2447b408 	strbcs	fp, [r7], #-1032	; 0xfffffbf8
     f30:	0000009f 	muleq	r0, pc, r0	; <UNPREDICTABLE>
     f34:	00000000 	andeq	r0, r0, r0
     f38:	00924c00 	addseq	r4, r2, r0, lsl #24
     f3c:	00926800 	addseq	r6, r2, r0, lsl #16
     f40:	08000300 	stmdaeq	r0, {r8, r9}
     f44:	00009f20 	andeq	r9, r0, r0, lsr #30
     f48:	00000000 	andeq	r0, r0, r0
     f4c:	92200000 	eorls	r0, r0, #0
     f50:	92240000 	eorls	r0, r4, #0
     f54:	00020000 	andeq	r0, r2, r0
     f58:	92249f30 	eorls	r9, r4, #48, 30	; 0xc0
     f5c:	92280000 	eorls	r0, r8, #0
     f60:	00010000 	andeq	r0, r1, r0
     f64:	00922c53 	addseq	r2, r2, r3, asr ip
     f68:	00923400 	addseq	r3, r2, r0, lsl #8
     f6c:	53000100 	movwpl	r0, #256	; 0x100
	...
     f78:	00009208 	andeq	r9, r0, r8, lsl #4
     f7c:	0000920c 	andeq	r9, r0, ip, lsl #4
     f80:	9f300002 	svcls	0x00300002
     f84:	0000920c 	andeq	r9, r0, ip, lsl #4
     f88:	00009210 	andeq	r9, r0, r0, lsl r2
     f8c:	00500001 	subseq	r0, r0, r1
     f90:	00000000 	andeq	r0, r0, r0
     f94:	74000000 	strvc	r0, [r0], #-0
     f98:	80000000 	andhi	r0, r0, r0
     f9c:	01000000 	mrseq	r0, (UNDEF: 0)
     fa0:	00805000 	addeq	r5, r0, r0
     fa4:	00880000 	addeq	r0, r8, r0
     fa8:	00040000 	andeq	r0, r4, r0
     fac:	9f5001f3 	svcls	0x005001f3
	...
     fb8:	00000060 	andeq	r0, r0, r0, rrx
     fbc:	0000006c 	andeq	r0, r0, ip, rrx
     fc0:	6c500001 	mrrcvs	0, 0, r0, r0, cr1	; <UNPREDICTABLE>
     fc4:	74000000 	strvc	r0, [r0], #-0
     fc8:	04000000 	streq	r0, [r0], #-0
     fcc:	5001f300 	andpl	pc, r1, r0, lsl #6
     fd0:	0000009f 	muleq	r0, pc, r0	; <UNPREDICTABLE>
     fd4:	00000000 	andeq	r0, r0, r0
     fd8:	00003c00 	andeq	r3, r0, r0, lsl #24
     fdc:	00004700 	andeq	r4, r0, r0, lsl #14
     fe0:	50000100 	andpl	r0, r0, r0, lsl #2
     fe4:	00000047 	andeq	r0, r0, r7, asr #32
     fe8:	00000060 	andeq	r0, r0, r0, rrx
     fec:	00550001 	subseq	r0, r5, r1
     ff0:	00000000 	andeq	r0, r0, r0
     ff4:	50000000 	andpl	r0, r0, r0
     ff8:	54000000 	strpl	r0, [r0], #-0
     ffc:	01000000 	mrseq	r0, (UNDEF: 0)
    1000:	00005000 	andeq	r5, r0, r0
	...
    100c:	00040000 	andeq	r0, r4, r0
    1010:	00010000 	andeq	r0, r1, r0
    1014:	00000450 	andeq	r0, r0, r0, asr r4
    1018:	00000c00 	andeq	r0, r0, r0, lsl #24
    101c:	53000100 	movwpl	r0, #256	; 0x100
    1020:	0000000c 	andeq	r0, r0, ip
    1024:	00000010 	andeq	r0, r0, r0, lsl r0
    1028:	10500001 	subsne	r0, r0, r1
    102c:	1c000000 	stcne	0, cr0, [r0], {-0}
    1030:	01000000 	mrseq	r0, (UNDEF: 0)
    1034:	00005300 	andeq	r5, r0, r0, lsl #6
    1038:	00000000 	andeq	r0, r0, r0
    103c:	012c0000 			; <UNDEFINED> instruction: 0x012c0000
    1040:	01340000 	teqeq	r4, r0
    1044:	00010000 	andeq	r0, r1, r0
    1048:	00013450 	andeq	r3, r1, r0, asr r4
    104c:	00015400 	andeq	r5, r1, r0, lsl #8
    1050:	54000100 	strpl	r0, [r0], #-256	; 0xffffff00
	...
    1060:	0000000f 	andeq	r0, r0, pc
    1064:	0f500001 	svceq	0x00500001
    1068:	20000000 	andcs	r0, r0, r0
    106c:	01000000 	mrseq	r0, (UNDEF: 0)
    1070:	00005400 	andeq	r5, r0, r0, lsl #8
	...
    107c:	000f0000 	andeq	r0, pc, r0
    1080:	00010000 	andeq	r0, r1, r0
    1084:	00000f51 	andeq	r0, r0, r1, asr pc
    1088:	00002000 	andeq	r2, r0, r0
    108c:	55000100 	strpl	r0, [r0, #-256]	; 0xffffff00
	...
    1098:	000000ec 	andeq	r0, r0, ip, ror #1
    109c:	00000104 	andeq	r0, r0, r4, lsl #2
    10a0:	04500001 	ldrbeq	r0, [r0], #-1
    10a4:	14000001 	strne	r0, [r0], #-1
    10a8:	04000001 	streq	r0, [r0], #-1
    10ac:	5001f300 	andpl	pc, r1, r0, lsl #6
    10b0:	0001149f 	muleq	r1, pc, r4	; <UNPREDICTABLE>
    10b4:	00011800 	andeq	r1, r1, r0, lsl #16
    10b8:	50000100 	andpl	r0, r0, r0, lsl #2
    10bc:	00000118 	andeq	r0, r0, r8, lsl r1
    10c0:	00000120 	andeq	r0, r0, r0, lsr #2
    10c4:	01f30004 	mvnseq	r0, r4
    10c8:	00009f50 	andeq	r9, r0, r0, asr pc
    10cc:	00000000 	andeq	r0, r0, r0
    10d0:	00f80000 	rscseq	r0, r8, r0
    10d4:	01040000 	mrseq	r0, (UNDEF: 4)
    10d8:	000b0000 	andeq	r0, fp, r0
    10dc:	25350070 	ldrcs	r0, [r5, #-112]!	; 0xffffff90
    10e0:	8080b423 	addhi	fp, r0, r3, lsr #8
    10e4:	049f0281 	ldreq	r0, [pc], #641	; 10ec <_start-0x6f14>
    10e8:	07000001 	streq	r0, [r0, -r1]
    10ec:	01000001 	tsteq	r0, r1
    10f0:	01075000 	mrseq	r5, (UNDEF: 7)
    10f4:	01140000 	tsteq	r4, r0
    10f8:	000c0000 	andeq	r0, ip, r0
    10fc:	355001f3 	ldrbcc	r0, [r0, #-499]	; 0xfffffe0d
    1100:	80b42325 	adcshi	r2, r4, r5, lsr #6
    1104:	9f028180 	svcls	0x00028180
	...
    1110:	000000fc 	strdeq	r0, [r0], -ip
    1114:	00000114 	andeq	r0, r0, r4, lsl r1
    1118:	00540001 	subseq	r0, r4, r1
    111c:	00000000 	andeq	r0, r0, r0
    1120:	d0000000 	andle	r0, r0, r0
    1124:	df000000 	svcle	0x00000000
    1128:	01000000 	mrseq	r0, (UNDEF: 0)
    112c:	00df5000 	sbcseq	r5, pc, r0
    1130:	00e40000 	rsceq	r0, r4, r0
    1134:	00040000 	andeq	r0, r4, r0
    1138:	9f5001f3 	svcls	0x005001f3
    113c:	000000e4 	andeq	r0, r0, r4, ror #1
    1140:	000000e7 	andeq	r0, r0, r7, ror #1
    1144:	e7500001 	ldrb	r0, [r0, -r1]
    1148:	ec000000 	stc	0, cr0, [r0], {-0}
    114c:	04000000 	streq	r0, [r0], #-0
    1150:	5001f300 	andpl	pc, r1, r0, lsl #6
    1154:	0000009f 	muleq	r0, pc, r0	; <UNPREDICTABLE>
    1158:	00000000 	andeq	r0, r0, r0
    115c:	0000d000 	andeq	sp, r0, r0
    1160:	0000df00 	andeq	sp, r0, r0, lsl #30
    1164:	51000100 	mrspl	r0, (UNDEF: 16)
    1168:	000000df 	ldrdeq	r0, [r0], -pc	; <UNPREDICTABLE>
    116c:	000000e4 	andeq	r0, r0, r4, ror #1
    1170:	01f30004 	mvnseq	r0, r4
    1174:	00e49f51 	rsceq	r9, r4, r1, asr pc
    1178:	00e70000 	rsceq	r0, r7, r0
    117c:	00010000 	andeq	r0, r1, r0
    1180:	0000e751 	andeq	lr, r0, r1, asr r7
    1184:	0000ec00 	andeq	lr, r0, r0, lsl #24
    1188:	f3000400 	vshl.u8	d0, d0, d0
    118c:	009f5101 	addseq	r5, pc, r1, lsl #2
    1190:	00000000 	andeq	r0, r0, r0
    1194:	c0000000 	andgt	r0, r0, r0
    1198:	cb000000 	blgt	11a0 <_start-0x6e60>
    119c:	01000000 	mrseq	r0, (UNDEF: 0)
    11a0:	00cb5000 	sbceq	r5, fp, r0
    11a4:	00d00000 	sbcseq	r0, r0, r0
    11a8:	00040000 	andeq	r0, r4, r0
    11ac:	9f5001f3 	svcls	0x005001f3
	...
    11b8:	0000009c 	muleq	r0, ip, r0
    11bc:	000000b4 	strheq	r0, [r0], -r4
    11c0:	b4500001 	ldrblt	r0, [r0], #-1
    11c4:	c0000000 	andgt	r0, r0, r0
    11c8:	04000000 	streq	r0, [r0], #-0
    11cc:	5001f300 	andpl	pc, r1, r0, lsl #6
    11d0:	0000009f 	muleq	r0, pc, r0	; <UNPREDICTABLE>
    11d4:	00000000 	andeq	r0, r0, r0
    11d8:	00007800 	andeq	r7, r0, r0, lsl #16
    11dc:	00009000 	andeq	r9, r0, r0
    11e0:	50000100 	andpl	r0, r0, r0, lsl #2
    11e4:	00000090 	muleq	r0, r0, r0
    11e8:	0000009c 	muleq	r0, ip, r0
    11ec:	01f30004 	mvnseq	r0, r4
    11f0:	00009f50 	andeq	r9, r0, r0, asr pc
    11f4:	00000000 	andeq	r0, r0, r0
    11f8:	00680000 	rsbeq	r0, r8, r0
    11fc:	00730000 	rsbseq	r0, r3, r0
    1200:	00010000 	andeq	r0, r1, r0
    1204:	00007350 	andeq	r7, r0, r0, asr r3
    1208:	00007800 	andeq	r7, r0, r0, lsl #16
    120c:	f3000400 	vshl.u8	d0, d0, d0
    1210:	009f5001 	addseq	r5, pc, r1
	...
    121c:	3c000000 	stccc	0, cr0, [r0], {-0}
    1220:	01000000 	mrseq	r0, (UNDEF: 0)
    1224:	003c5000 	eorseq	r5, ip, r0
    1228:	00680000 	rsbeq	r0, r8, r0
    122c:	00040000 	andeq	r0, r4, r0
    1230:	9f5001f3 	svcls	0x005001f3
	...
    1240:	00000030 	andeq	r0, r0, r0, lsr r0
    1244:	30510001 	subscc	r0, r1, r1
    1248:	68000000 	stmdavs	r0, {}	; <UNPREDICTABLE>
    124c:	04000000 	streq	r0, [r0], #-0
    1250:	5101f300 	mrspl	pc, SP_irq	; <UNPREDICTABLE>
    1254:	0000009f 	muleq	r0, pc, r0	; <UNPREDICTABLE>
    1258:	00000000 	andeq	r0, r0, r0
    125c:	00004c00 	andeq	r4, r0, r0, lsl #24
    1260:	00005400 	andeq	r5, r0, r0, lsl #8
    1264:	50000100 	andpl	r0, r0, r0, lsl #2
    1268:	00000054 	andeq	r0, r0, r4, asr r0
    126c:	00000058 	andeq	r0, r0, r8, asr r0
    1270:	00740009 	rsbseq	r0, r4, r9
    1274:	71240075 			; <UNDEFINED> instruction: 0x71240075
    1278:	589f2100 	ldmpl	pc, {r8, sp}	; <UNPREDICTABLE>
    127c:	5f000000 	svcpl	0x00000000
    1280:	01000000 	mrseq	r0, (UNDEF: 0)
    1284:	00005100 	andeq	r5, r0, r0, lsl #2
	...
    1290:	00040000 	andeq	r0, r4, r0
    1294:	00010000 	andeq	r0, r1, r0
    1298:	00000452 	andeq	r0, r0, r2, asr r4
    129c:	00002000 	andeq	r2, r0, r0
    12a0:	f3000400 	vshl.u8	d0, d0, d0
    12a4:	009f5201 	addseq	r5, pc, r1, lsl #4
	...
    12b0:	0c000000 	stceq	0, cr0, [r0], {-0}
    12b4:	01000000 	mrseq	r0, (UNDEF: 0)
    12b8:	000c5000 	andeq	r5, ip, r0
    12bc:	00140000 	andseq	r0, r4, r0
    12c0:	00030000 	andeq	r0, r3, r0
    12c4:	149f0173 	ldrne	r0, [pc], #371	; 12cc <_start-0x6d34>
    12c8:	20000000 	andcs	r0, r0, r0
    12cc:	01000000 	mrseq	r0, (UNDEF: 0)
    12d0:	00005300 	andeq	r5, r0, r0, lsl #6
    12d4:	00000000 	andeq	r0, r0, r0
	...

Disassembly of section .debug_aranges:

00000000 <.debug_aranges>:
   0:	0000001c 	andeq	r0, r0, ip, lsl r0
   4:	00000002 	andeq	r0, r0, r2
   8:	00040000 	andeq	r0, r4, r0
   c:	00000000 	andeq	r0, r0, r0
  10:	00008010 	andeq	r8, r0, r0, lsl r0
  14:	00000624 	andeq	r0, r0, r4, lsr #12
	...
  20:	0000001c 	andeq	r0, r0, ip, lsl r0
  24:	17e20002 	strbne	r0, [r2, r2]!
  28:	00040000 	andeq	r0, r4, r0
  2c:	00000000 	andeq	r0, r0, r0
  30:	00008634 	andeq	r8, r0, r4, lsr r6
  34:	00000568 	andeq	r0, r0, r8, ror #10
	...
  40:	0000001c 	andeq	r0, r0, ip, lsl r0
  44:	33440002 	movtcc	r0, #16386	; 0x4002
  48:	00040000 	andeq	r0, r4, r0
  4c:	00000000 	andeq	r0, r0, r0
  50:	00008b9c 	muleq	r0, ip, fp
  54:	00000058 	andeq	r0, r0, r8, asr r0
	...
  60:	0000001c 	andeq	r0, r0, ip, lsl r0
  64:	3cd60002 	ldclcc	0, cr0, [r6], {2}
  68:	00040000 	andeq	r0, r4, r0
  6c:	00000000 	andeq	r0, r0, r0
  70:	00008bf4 	strdeq	r8, [r0], -r4
  74:	00000530 	andeq	r0, r0, r0, lsr r5
	...
  80:	0000001c 	andeq	r0, r0, ip, lsl r0
  84:	4b4a0002 	blmi	1280094 <__bss_end__+0x12760a4>
  88:	00040000 	andeq	r0, r4, r0
  8c:	00000000 	andeq	r0, r0, r0
  90:	00009124 	andeq	r9, r0, r4, lsr #2
  94:	00000034 	andeq	r0, r0, r4, lsr r0
	...
  a0:	0000001c 	andeq	r0, r0, ip, lsl r0
  a4:	54390002 	ldrtpl	r0, [r9], #-2
  a8:	00040000 	andeq	r0, r4, r0
  ac:	00000000 	andeq	r0, r0, r0
  b0:	00009158 	andeq	r9, r0, r8, asr r1
  b4:	0000003c 	andeq	r0, r0, ip, lsr r0
	...
  c0:	0000001c 	andeq	r0, r0, ip, lsl r0
  c4:	5d7a0002 	ldclpl	0, cr0, [sl, #-8]!
  c8:	00040000 	andeq	r0, r4, r0
  cc:	00000000 	andeq	r0, r0, r0
  d0:	00009194 	muleq	r0, r4, r1
  d4:	00000074 	andeq	r0, r0, r4, ror r0
	...
  e0:	0000001c 	andeq	r0, r0, ip, lsl r0
  e4:	67fa0002 	ldrbvs	r0, [sl, r2]!
  e8:	00040000 	andeq	r0, r4, r0
  ec:	00000000 	andeq	r0, r0, r0
  f0:	00009208 	andeq	r9, r0, r8, lsl #4
  f4:	00000078 	andeq	r0, r0, r8, ror r0
	...
 100:	0000001c 	andeq	r0, r0, ip, lsl r0
 104:	71e40002 	mvnvc	r0, r2
 108:	00040000 	andeq	r0, r4, r0
 10c:	00000000 	andeq	r0, r0, r0
 110:	00009280 	andeq	r9, r0, r0, lsl #5
 114:	00000028 	andeq	r0, r0, r8, lsr #32
	...
 120:	0000001c 	andeq	r0, r0, ip, lsl r0
 124:	7aff0002 	bvc	fffc0134 <__bss_end__+0xfffb6144>
 128:	00040000 	andeq	r0, r4, r0
 12c:	00000000 	andeq	r0, r0, r0
 130:	000092a8 	andeq	r9, r0, r8, lsr #5
 134:	00000088 	andeq	r0, r0, r8, lsl #1
	...
 140:	0000001c 	andeq	r0, r0, ip, lsl r0
 144:	851a0002 	ldrhi	r0, [sl, #-2]
 148:	00040000 	andeq	r0, r4, r0
 14c:	00000000 	andeq	r0, r0, r0
 150:	00009394 	muleq	r0, r4, r3
 154:	00000160 	andeq	r0, r0, r0, ror #2
	...
 160:	0000001c 	andeq	r0, r0, ip, lsl r0
 164:	91b30002 			; <UNDEFINED> instruction: 0x91b30002
 168:	00040000 	andeq	r0, r4, r0
 16c:	00000000 	andeq	r0, r0, r0
 170:	000094f4 	strdeq	r9, [r0], -r4
 174:	00000120 	andeq	r0, r0, r0, lsr #2
	...
 180:	0000001c 	andeq	r0, r0, ip, lsl r0
 184:	9d510002 	ldclls	0, cr0, [r1, #-8]
 188:	00040000 	andeq	r0, r4, r0
 18c:	00000000 	andeq	r0, r0, r0
 190:	00009614 	andeq	r9, r0, r4, lsl r6
 194:	00000050 	andeq	r0, r0, r0, asr r0
	...
 1a0:	0000001c 	andeq	r0, r0, ip, lsl r0
 1a4:	a75a0002 	ldrbge	r0, [sl, -r2]
 1a8:	00040000 	andeq	r0, r4, r0
 1ac:	00000000 	andeq	r0, r0, r0
 1b0:	00009664 	andeq	r9, r0, r4, ror #12
 1b4:	00000020 	andeq	r0, r0, r0, lsr #32
	...

Disassembly of section .debug_ranges:

00000000 <.debug_ranges>:
   0:	00000328 	andeq	r0, r0, r8, lsr #6
   4:	00000354 	andeq	r0, r0, r4, asr r3
   8:	00000374 	andeq	r0, r0, r4, ror r3
   c:	00000378 	andeq	r0, r0, r8, ror r3
  10:	00000408 	andeq	r0, r0, r8, lsl #8
  14:	00000410 	andeq	r0, r0, r0, lsl r4
	...
  20:	000002c4 	andeq	r0, r0, r4, asr #5
  24:	000002d0 	ldrdeq	r0, [r0], -r0	; <UNPREDICTABLE>
  28:	000002e0 	andeq	r0, r0, r0, ror #5
  2c:	00000504 	andeq	r0, r0, r4, lsl #10
	...
  38:	00009208 	andeq	r9, r0, r8, lsl #4
  3c:	00009280 	andeq	r9, r0, r0, lsl #5
	...

Disassembly of section .debug_line:

00000000 <.debug_line>:
       0:	000001d2 	ldrdeq	r0, [r0], -r2
       4:	00d80002 	sbcseq	r0, r8, r2
       8:	01020000 	mrseq	r0, (UNDEF: 2)
       c:	000d0efb 	strdeq	r0, [sp], -fp
      10:	01010101 	tsteq	r1, r1, lsl #2
      14:	01000000 	mrseq	r0, (UNDEF: 0)
      18:	2f010000 	svccs	0x00010000
      1c:	2f727375 	svccs	0x00727375
      20:	2f62696c 	svccs	0x0062696c
      24:	2f636367 	svccs	0x00636367
      28:	2d6d7261 	sfmcs	f7, 2, [sp, #-388]!	; 0xfffffe7c
      2c:	656e6f6e 	strbvs	r6, [lr, #-3950]!	; 0xfffff092
      30:	6261652d 	rsbvs	r6, r1, #188743680	; 0xb400000
      34:	2e362f69 	cdpcs	15, 3, cr2, cr6, cr9, {3}
      38:	2f312e33 	svccs	0x00312e33
      3c:	6c636e69 	stclvs	14, cr6, [r3], #-420	; 0xfffffe5c
      40:	00656475 	rsbeq	r6, r5, r5, ror r4
      44:	7273752f 	rsbsvc	r7, r3, #197132288	; 0xbc00000
      48:	636e692f 	cmnvs	lr, #770048	; 0xbc000
      4c:	6564756c 	strbvs	r7, [r4, #-1388]!	; 0xfffffa94
      50:	77656e2f 	strbvc	r6, [r5, -pc, lsr #28]!
      54:	2f62696c 	svccs	0x0062696c
      58:	00737973 	rsbseq	r7, r3, r3, ror r9
      5c:	6d6f682f 	stclvs	8, cr6, [pc, #-188]!	; ffffffa8 <__bss_end__+0xffff5fb8>
      60:	73752f65 	cmnvc	r5, #404	; 0x194
      64:	442f7265 	strtmi	r7, [pc], #-613	; 6c <_start-0x7f94>
      68:	432f7665 			; <UNDEFINED> instruction: 0x432f7665
      6c:	30343153 	eorscc	r3, r4, r3, asr r1
      70:	696c2f45 	stmdbvs	ip!, {r0, r2, r6, r8, r9, sl, fp, sp}^
      74:	00697062 	rsbeq	r7, r9, r2, rrx
      78:	63636100 	cmnvs	r3, #0, 2
      7c:	632e6c65 			; <UNDEFINED> instruction: 0x632e6c65
      80:	00000000 	andeq	r0, r0, r0
      84:	366d736c 	strbtcc	r7, [sp], -ip, ror #6
      88:	33337364 	teqcc	r3, #100, 6	; 0x90000001
      8c:	0000682e 	andeq	r6, r0, lr, lsr #16
      90:	74730000 	ldrbtvc	r0, [r3], #-0
      94:	66656464 	strbtvs	r6, [r5], -r4, ror #8
      98:	0100682e 	tsteq	r0, lr, lsr #16
      9c:	74730000 	ldrbtvc	r0, [r3], #-0
      a0:	746e6964 	strbtvc	r6, [lr], #-2404	; 0xfffff69c
      a4:	6363672d 	cmnvs	r3, #11796480	; 0xb40000
      a8:	0100682e 	tsteq	r0, lr, lsr #16
      ac:	6f6c0000 	svcvs	0x006c0000
      b0:	682e6b63 	stmdavs	lr!, {r0, r1, r5, r6, r8, r9, fp, sp, lr}
      b4:	00000200 	andeq	r0, r0, r0, lsl #4
      b8:	7079745f 	rsbsvc	r7, r9, pc, asr r4
      bc:	682e7365 	stmdavs	lr!, {r0, r2, r5, r6, r8, r9, ip, sp, lr}
      c0:	00000200 	andeq	r0, r0, r0, lsl #4
      c4:	6e656572 	mcrvs	5, 3, r6, cr5, cr2, {3}
      c8:	00682e74 	rsbeq	r2, r8, r4, ror lr
      cc:	72000002 	andvc	r0, r0, #2
      d0:	682e6970 	stmdavs	lr!, {r4, r5, r6, r8, fp, sp, lr}
      d4:	00000300 	andeq	r0, r0, r0, lsl #6
      d8:	2e633269 	cdpcs	2, 6, cr3, cr3, cr9, {3}
      dc:	00000068 	andeq	r0, r0, r8, rrx
      e0:	05000000 	streq	r0, [r0, #-0]
      e4:	00801002 	addeq	r1, r0, r2
      e8:	00c60300 	sbceq	r0, r6, r0, lsl #6
      ec:	2f313001 	svccs	0x00313001
      f0:	4b6c2c2f 	blmi	1b0b1b4 <__bss_end__+0x1b011c4>
      f4:	302f302f 	eorcc	r3, pc, pc, lsr #32
      f8:	3015314f 	andscc	r3, r5, pc, asr #2
      fc:	134a1503 	movtne	r1, #42243	; 0xa503
     100:	2e6b0367 	cdpcs	3, 6, cr0, cr11, cr7, {3}
     104:	4b4b672f 	blmi	12d9dc8 <__bss_end__+0x12cfdd8>
     108:	01040200 	mrseq	r0, R12_usr
     10c:	a14bdc9b 			; <UNDEFINED> instruction: 0xa14bdc9b
     110:	839f83a0 	orrshi	r8, pc, #160, 6	; 0x80000002
     114:	01040200 	mrseq	r0, R12_usr
     118:	03064a06 	movweq	r4, #27142	; 0x6a06
     11c:	58087fb0 	stmdapl	r8, {r4, r5, r7, r8, r9, sl, fp, ip, sp, lr}
     120:	6984699f 	stmibvs	r4, {r0, r1, r2, r3, r4, r7, r8, fp, sp, lr}
     124:	672f2f4c 	strvs	r2, [pc, -ip, asr #30]!
     128:	0068d74e 	rsbeq	sp, r8, lr, asr #14
     12c:	4b030402 	blmi	c113c <__bss_end__+0xb714c>
     130:	03040200 	movweq	r0, #16896	; 0x4200
     134:	040200b9 	streq	r0, [r2], #-185	; 0xffffff47
     138:	062e0601 	strteq	r0, [lr], -r1, lsl #12
     13c:	663f034e 	ldrtvs	r0, [pc], -lr, asr #6
     140:	678383bc 			; <UNDEFINED> instruction: 0x678383bc
     144:	682f859f 	stmdavs	pc!, {r0, r1, r2, r3, r4, r7, r8, sl, pc}	; <UNPREDICTABLE>
     148:	004a0b03 	subeq	r0, sl, r3, lsl #22
     14c:	88010402 	stmdahi	r1, {r1, sl}
     150:	8383a086 	orrhi	sl, r3, #134	; 0x86
     154:	bb6e6c63 	bllt	1b9b2e8 <__bss_end__+0x1b912f8>
     158:	03020431 	movweq	r0, #9265	; 0x2431
     15c:	04667ee2 	strbteq	r7, [r6], #-3810	; 0xfffff11e
     160:	01a30301 			; <UNDEFINED> instruction: 0x01a30301
     164:	02045808 	andeq	r5, r4, #8, 16	; 0x80000
     168:	f27edd03 	vsub.f16	d29, d14, d3
     16c:	a7030104 	strge	r0, [r3, -r4, lsl #2]
     170:	4e4c2e01 	cdpmi	14, 4, cr2, cr12, cr1, {0}
     174:	694c2f2f 	stmdbvs	ip, {r0, r1, r2, r3, r5, r8, r9, sl, fp, sp}^
     178:	8383f383 	orrhi	pc, r3, #201326594	; 0xc000002
     17c:	0302044e 	movweq	r0, #9294	; 0x244e
     180:	04667ec4 	strbteq	r7, [r6], #-3780	; 0xfffff13c
     184:	01a80301 			; <UNDEFINED> instruction: 0x01a80301
     188:	0200f44a 	andeq	pc, r0, #1241513984	; 0x4a000000
     18c:	03f70104 	mvnseq	r0, #4, 2
     190:	4ce40810 	stclmi	8, cr0, [r4], #64	; 0x40
     194:	9f9f9fa3 	svcls	0x009f9fa3
     198:	0200a09f 	andeq	sl, r0, #159	; 0x9f
     19c:	004b0304 	subeq	r0, fp, r4, lsl #6
     1a0:	83030402 	movwhi	r0, #13314	; 0x3402
     1a4:	03040200 	movweq	r0, #16896	; 0x4200
     1a8:	040200a0 	streq	r0, [r2], #-160	; 0xffffff60
     1ac:	00210803 	eoreq	r0, r1, r3, lsl #16
     1b0:	a0030402 	andge	r0, r3, r2, lsl #8
     1b4:	03040200 	movweq	r0, #16896	; 0x4200
     1b8:	004a7903 	subeq	r7, sl, r3, lsl #18
     1bc:	06010402 	streq	r0, [r1], -r2, lsl #8
     1c0:	0903062e 	stmdbeq	r3, {r1, r2, r3, r5, r9, sl}
     1c4:	304bdb4a 	subcc	sp, fp, sl, asr #22
     1c8:	674e2f4b 	strbvs	r2, [lr, -fp, asr #30]
     1cc:	4c3e0867 	ldcmi	8, cr0, [lr], #-412	; 0xfffffe64
     1d0:	000a022f 	andeq	r0, sl, pc, lsr #4
     1d4:	02410101 	subeq	r0, r1, #1073741824	; 0x40000000
     1d8:	00020000 	andeq	r0, r2, r0
     1dc:	00000104 	andeq	r0, r0, r4, lsl #2
     1e0:	0efb0102 	cdpeq	1, 15, cr0, cr11, cr2, {0}
     1e4:	0101000d 	tsteq	r1, sp
     1e8:	00000101 	andeq	r0, r0, r1, lsl #2
     1ec:	00000100 	andeq	r0, r0, r0, lsl #2
     1f0:	73752f01 	cmnvc	r5, #1, 30
     1f4:	696c2f72 	stmdbvs	ip!, {r1, r4, r5, r6, r8, r9, sl, fp, sp}^
     1f8:	63672f62 	cmnvs	r7, #392	; 0x188
     1fc:	72612f63 	rsbvc	r2, r1, #396	; 0x18c
     200:	6f6e2d6d 	svcvs	0x006e2d6d
     204:	652d656e 	strvs	r6, [sp, #-1390]!	; 0xfffffa92
     208:	2f696261 	svccs	0x00696261
     20c:	2e332e36 	mrccs	14, 1, r2, cr3, cr6, {1}
     210:	6e692f31 	mcrvs	15, 3, r2, cr9, cr1, {1}
     214:	64756c63 	ldrbtvs	r6, [r5], #-3171	; 0xfffff39d
     218:	752f0065 	strvc	r0, [pc, #-101]!	; 1bb <_start-0x7e45>
     21c:	692f7273 	stmdbvs	pc!, {r0, r1, r4, r5, r6, r9, ip, sp, lr}	; <UNPREDICTABLE>
     220:	756c636e 	strbvc	r6, [ip, #-878]!	; 0xfffffc92
     224:	6e2f6564 	cfsh64vs	mvdx6, mvdx15, #52
     228:	696c7765 	stmdbvs	ip!, {r0, r2, r5, r6, r8, r9, sl, ip, sp, lr}^
     22c:	79732f62 	ldmdbvc	r3!, {r1, r5, r6, r8, r9, sl, fp, sp}^
     230:	682f0073 	stmdavs	pc!, {r0, r1, r4, r5, r6}	; <UNPREDICTABLE>
     234:	2f656d6f 	svccs	0x00656d6f
     238:	6c676e65 	stclvs	14, cr6, [r7], #-404	; 0xfffffe6c
     23c:	632f7265 			; <UNDEFINED> instruction: 0x632f7265
     240:	7373616c 	cmnvc	r3, #108, 2
     244:	3173632f 	cmncc	r3, pc, lsr #6
     248:	2d653034 	stclcs	0, cr3, [r5, #-208]!	; 0xffffff30
     24c:	69773032 	ldmdbvs	r7!, {r1, r4, r5, ip, sp}^
     250:	696c2f6e 	stmdbvs	ip!, {r1, r2, r3, r5, r6, r8, r9, sl, fp, sp}^
     254:	00697062 	rsbeq	r7, r9, r2, rrx
     258:	6d6f682f 	stclvs	8, cr6, [pc, #-188]!	; 1a4 <_start-0x7e5c>
     25c:	6e652f65 	cdpvs	15, 6, cr2, cr5, cr5, {3}
     260:	72656c67 	rsbvc	r6, r5, #26368	; 0x6700
     264:	616c632f 	cmnvs	ip, pc, lsr #6
     268:	632f7373 			; <UNDEFINED> instruction: 0x632f7373
     26c:	30343173 	eorscc	r3, r4, r3, ror r1
     270:	30322d65 	eorscc	r2, r2, r5, ror #26
     274:	2f6e6977 	svccs	0x006e6977
     278:	7062696c 	rsbvc	r6, r2, ip, ror #18
     27c:	73632f69 	cmnvc	r3, #420	; 0x1a4
     280:	65303431 	ldrvs	r3, [r0, #-1073]!	; 0xfffffbcf
     284:	6372732d 	cmnvs	r2, #-1275068416	; 0xb4000000
     288:	32690000 	rsbcc	r0, r9, #0
     28c:	00632e63 	rsbeq	r2, r3, r3, ror #28
     290:	73000000 	movwvc	r0, #0
     294:	6e696474 	mcrvs	4, 3, r6, cr9, cr4, {3}
     298:	63672d74 	cmnvs	r7, #116, 26	; 0x1d00
     29c:	00682e63 	rsbeq	r2, r8, r3, ror #28
     2a0:	6c000001 	stcvs	0, cr0, [r0], {1}
     2a4:	2e6b636f 	cdpcs	3, 6, cr6, cr11, cr15, {3}
     2a8:	00020068 	andeq	r0, r2, r8, rrx
     2ac:	79745f00 	ldmdbvc	r4!, {r8, r9, sl, fp, ip, lr}^
     2b0:	2e736570 	mrccs	5, 3, r6, cr3, cr0, {3}
     2b4:	00020068 	andeq	r0, r2, r8, rrx
     2b8:	64747300 	ldrbtvs	r7, [r4], #-768	; 0xfffffd00
     2bc:	2e666564 	cdpcs	5, 6, cr6, cr6, cr4, {3}
     2c0:	00010068 	andeq	r0, r1, r8, rrx
     2c4:	65657200 	strbvs	r7, [r5, #-512]!	; 0xfffffe00
     2c8:	682e746e 	stmdavs	lr!, {r1, r2, r3, r5, r6, sl, ip, sp, lr}
     2cc:	00000200 	andeq	r0, r0, r0, lsl #4
     2d0:	2e697072 	mcrcs	0, 3, r7, cr9, cr2, {3}
     2d4:	00030068 	andeq	r0, r3, r8, rrx
     2d8:	69706700 	ldmdbvs	r0!, {r8, r9, sl, sp, lr}^
     2dc:	00682e6f 	rsbeq	r2, r8, pc, ror #28
     2e0:	00000004 	andeq	r0, r0, r4
     2e4:	34020500 	strcc	r0, [r2], #-1280	; 0xfffffb00
     2e8:	03000086 	movweq	r0, #134	; 0x86
     2ec:	130100f3 	movwne	r0, #4339	; 0x10f3
     2f0:	302f2f2f 	eorcc	r2, pc, pc, lsr #30
     2f4:	132e3703 			; <UNDEFINED> instruction: 0x132e3703
     2f8:	01b5034c 			; <UNDEFINED> instruction: 0x01b5034c
     2fc:	2e1d032e 	cdpcs	3, 1, cr0, cr13, cr14, {1}
     300:	2e7f8b03 	vaddcs.f64	d24, d15, d3
     304:	04040200 	streq	r0, [r4], #-512	; 0xfffffe00
     308:	04020030 	streq	r0, [r2], #-48	; 0xffffffd0
     30c:	00820605 	addeq	r0, r2, r5, lsl #12
     310:	82020402 	andhi	r0, r2, #33554432	; 0x2000000
     314:	03040200 	movweq	r0, #16896	; 0x4200
     318:	04020082 	streq	r0, [r2], #-130	; 0xffffff7e
     31c:	d906d601 	stmdble	r6, {r0, r9, sl, ip, lr, pc}
     320:	02008484 	andeq	r8, r0, #132, 8	; 0x84000000
     324:	00460104 	subeq	r0, r6, r4, lsl #2
     328:	d8010402 	stmdale	r1, {r1, sl}
     32c:	087f9d03 	ldmdaeq	pc!, {r0, r1, r8, sl, fp, ip, pc}^	; <UNPREDICTABLE>
     330:	034b2fe4 	movteq	r2, #49124	; 0xbfe4
     334:	672f2e2d 	strvs	r2, [pc, -sp, lsr #28]!
     338:	7f8f0334 	svcvc	0x008f0334
     33c:	034b2f9e 	movteq	r2, #49054	; 0xbf9e
     340:	832e00f2 			; <UNDEFINED> instruction: 0x832e00f2
     344:	04040200 	streq	r0, [r4], #-512	; 0xfffffe00
     348:	04020031 	streq	r0, [r2], #-49	; 0xffffffcf
     34c:	00820605 	addeq	r0, r2, r5, lsl #12
     350:	82020402 	andhi	r0, r2, #33554432	; 0x2000000
     354:	03040200 	movweq	r0, #16896	; 0x4200
     358:	04020082 	streq	r0, [r2], #-130	; 0xffffff7e
     35c:	d906d601 	stmdble	r6, {r0, r9, sl, ip, lr, pc}
     360:	694b3184 	stmdbvs	fp, {r2, r7, r8, ip, sp}^
     364:	2f68684b 	svccs	0x0068684b
     368:	0402004b 	streq	r0, [r2], #-75	; 0xffffffb5
     36c:	02006e04 	andeq	r6, r0, #4, 28	; 0x40
     370:	82060504 	andhi	r0, r6, #4, 10	; 0x1000000
     374:	02040200 	andeq	r0, r4, #0, 4
     378:	04020082 	streq	r0, [r2], #-130	; 0xffffff7e
     37c:	02008203 	andeq	r8, r0, #805306368	; 0x30000000
     380:	03060104 	movweq	r0, #24836	; 0x6104
     384:	0200d668 	andeq	sp, r0, #104, 12	; 0x6800000
     388:	00db0104 	sbcseq	r0, fp, r4, lsl #2
     38c:	da010402 	ble	4139c <__bss_end__+0x373ac>
     390:	01040200 	mrseq	r0, R12_usr
     394:	d7d60f03 	ldrble	r0, [r6, r3, lsl #30]
     398:	74080f03 	strvc	r0, [r8], #-3843	; 0xfffff0fd
     39c:	02006867 	andeq	r6, r0, #6750208	; 0x670000
     3a0:	004c0104 	subeq	r0, ip, r4, lsl #2
     3a4:	d9020402 	stmdble	r2, {r1, sl}
     3a8:	02040200 	andeq	r0, r4, #0, 4
     3ac:	04020061 	streq	r0, [r2], #-97	; 0xffffff9f
     3b0:	002e0601 	eoreq	r0, lr, r1, lsl #12
     3b4:	06040402 	streq	r0, [r4], -r2, lsl #8
     3b8:	0402004c 	streq	r0, [r2], #-76	; 0xffffffb4
     3bc:	00820605 	addeq	r0, r2, r5, lsl #12
     3c0:	82020402 	andhi	r0, r2, #33554432	; 0x2000000
     3c4:	03040200 	movweq	r0, #16896	; 0x4200
     3c8:	30dc0682 	sbcscc	r0, ip, r2, lsl #13
     3cc:	006967f5 	strdeq	r6, [r9], #-117	; 0xffffff8b	; <UNPREDICTABLE>
     3d0:	4c010402 	cfstrsmi	mvf0, [r1], {2}
     3d4:	02040200 	andeq	r0, r4, #0, 4
     3d8:	040200d9 	streq	r0, [r2], #-217	; 0xffffff27
     3dc:	02006102 	andeq	r6, r0, #-2147483648	; 0x80000000
     3e0:	2e060104 	adfcss	f0, f6, f4
     3e4:	04040200 	streq	r0, [r4], #-512	; 0xfffffe00
     3e8:	02004c06 	andeq	r4, r0, #1536	; 0x600
     3ec:	82060504 	andhi	r0, r6, #4, 10	; 0x1000000
     3f0:	02040200 	andeq	r0, r4, #0, 4
     3f4:	04020082 	streq	r0, [r2], #-130	; 0xffffff7e
     3f8:	dc068203 	sfmle	f0, 1, [r6], {3}
     3fc:	8a14db30 	bhi	5370c4 <__bss_end__+0x52d0d4>
     400:	6732302f 	ldrvs	r3, [r2, -pc, lsr #32]!
     404:	30843468 	addcc	r3, r4, r8, ror #8
     408:	00682f30 	rsbeq	r2, r8, r0, lsr pc
     40c:	80010402 	andhi	r0, r1, r2, lsl #8
     410:	90086203 	andls	r6, r8, r3, lsl #4
     414:	0402682f 	streq	r6, [r2], #-2095	; 0xfffff7d1
     418:	f7010100 			; <UNDEFINED> instruction: 0xf7010100
     41c:	02000000 	andeq	r0, r0, #0
     420:	0000e000 	andeq	lr, r0, r0
     424:	fb010200 	blx	40c2e <__bss_end__+0x36c3e>
     428:	01000d0e 	tsteq	r0, lr, lsl #26
     42c:	00010101 	andeq	r0, r1, r1, lsl #2
     430:	00010000 	andeq	r0, r1, r0
     434:	696c0100 	stmdbvs	ip!, {r8}^
     438:	2f006362 	svccs	0x00006362
     43c:	2f727375 	svccs	0x00727375
     440:	2f62696c 	svccs	0x0062696c
     444:	2f636367 	svccs	0x00636367
     448:	2d6d7261 	sfmcs	f7, 2, [sp, #-388]!	; 0xfffffe7c
     44c:	656e6f6e 	strbvs	r6, [lr, #-3950]!	; 0xfffff092
     450:	6261652d 	rsbvs	r6, r1, #188743680	; 0xb400000
     454:	2e362f69 	cdpcs	15, 3, cr2, cr6, cr9, {3}
     458:	2f312e33 	svccs	0x00312e33
     45c:	6c636e69 	stclvs	14, cr6, [r3], #-420	; 0xfffffe5c
     460:	00656475 	rsbeq	r6, r5, r5, ror r4
     464:	7273752f 	rsbsvc	r7, r3, #197132288	; 0xbc00000
     468:	636e692f 	cmnvs	lr, #770048	; 0xbc000
     46c:	6564756c 	strbvs	r7, [r4, #-1388]!	; 0xfffffa94
     470:	77656e2f 	strbvc	r6, [r5, -pc, lsr #28]!
     474:	2f62696c 	svccs	0x0062696c
     478:	00737973 	rsbseq	r7, r3, r3, ror r9
     47c:	6d6f682f 	stclvs	8, cr6, [pc, #-188]!	; 3c8 <_start-0x7c38>
     480:	73752f65 	cmnvc	r5, #404	; 0x194
     484:	442f7265 	strtmi	r7, [pc], #-613	; 48c <_start-0x7b74>
     488:	432f7665 			; <UNDEFINED> instruction: 0x432f7665
     48c:	30343153 	eorscc	r3, r4, r3, asr r1
     490:	696c2f45 	stmdbvs	ip!, {r0, r2, r6, r8, r9, sl, fp, sp}^
     494:	00697062 	rsbeq	r7, r9, r2, rrx
     498:	69727000 	ldmdbvs	r2!, {ip, sp, lr}^
     49c:	2e6b746e 	cdpcs	4, 6, cr7, cr11, cr14, {3}
     4a0:	00010063 	andeq	r0, r1, r3, rrx
     4a4:	64747300 	ldrbtvs	r7, [r4], #-768	; 0xfffffd00
     4a8:	2e677261 	cdpcs	2, 6, cr7, cr7, cr1, {3}
     4ac:	00020068 	andeq	r0, r2, r8, rrx
     4b0:	636f6c00 	cmnvs	pc, #0, 24
     4b4:	00682e6b 	rsbeq	r2, r8, fp, ror #28
     4b8:	5f000003 	svcpl	0x00000003
     4bc:	65707974 	ldrbvs	r7, [r0, #-2420]!	; 0xfffff68c
     4c0:	00682e73 	rsbeq	r2, r8, r3, ror lr
     4c4:	73000003 	movwvc	r0, #3
     4c8:	65646474 	strbvs	r6, [r4, #-1140]!	; 0xfffffb8c
     4cc:	00682e66 	rsbeq	r2, r8, r6, ror #28
     4d0:	72000002 	andvc	r0, r0, #2
     4d4:	746e6565 	strbtvc	r6, [lr], #-1381	; 0xfffffa9b
     4d8:	0300682e 	movweq	r6, #2094	; 0x82e
     4dc:	623c0000 	eorsvs	r0, ip, #0
     4e0:	746c6975 	strbtvc	r6, [ip], #-2421	; 0xfffff68b
     4e4:	3e6e692d 	vmulcc.f16	s13, s28, s27	; <UNPREDICTABLE>
     4e8:	00000000 	andeq	r0, r0, r0
     4ec:	2e697072 	mcrcs	0, 3, r7, cr9, cr2, {3}
     4f0:	00040068 	andeq	r0, r4, r8, rrx
     4f4:	2d617600 	stclcs	6, cr7, [r1, #-0]
     4f8:	6e697270 	mcrvs	2, 3, r7, cr9, cr0, {3}
     4fc:	682e6b74 	stmdavs	lr!, {r2, r4, r5, r6, r8, r9, fp, sp, lr}
     500:	00000100 	andeq	r0, r0, r0, lsl #2
     504:	02050000 	andeq	r0, r5, #0
     508:	00008b9c 	muleq	r0, ip, fp
     50c:	bf4b6b17 	svclt	0x004b6b17
     510:	000e0289 	andeq	r0, lr, r9, lsl #5
     514:	01c30101 	biceq	r0, r3, r1, lsl #2
     518:	00020000 	andeq	r0, r2, r0
     51c:	000000d4 	ldrdeq	r0, [r0], -r4
     520:	0efb0102 	cdpeq	1, 15, cr0, cr11, cr2, {0}
     524:	0101000d 	tsteq	r1, sp
     528:	00000101 	andeq	r0, r0, r1, lsl #2
     52c:	00000100 	andeq	r0, r0, r0, lsl #2
     530:	62696c01 	rsbvs	r6, r9, #256	; 0x100
     534:	752f0063 	strvc	r0, [pc, #-99]!	; 4d9 <_start-0x7b27>
     538:	692f7273 	stmdbvs	pc!, {r0, r1, r4, r5, r6, r9, ip, sp, lr}	; <UNPREDICTABLE>
     53c:	756c636e 	strbvc	r6, [ip, #-878]!	; 0xfffffc92
     540:	6e2f6564 	cfsh64vs	mvdx6, mvdx15, #52
     544:	696c7765 	stmdbvs	ip!, {r0, r2, r5, r6, r8, r9, sl, ip, sp, lr}^
     548:	79732f62 	ldmdbvc	r3!, {r1, r5, r6, r8, r9, sl, fp, sp}^
     54c:	752f0073 	strvc	r0, [pc, #-115]!	; 4e1 <_start-0x7b1f>
     550:	6c2f7273 	sfmvs	f7, 4, [pc], #-460	; 38c <_start-0x7c74>
     554:	672f6269 	strvs	r6, [pc, -r9, ror #4]!
     558:	612f6363 			; <UNDEFINED> instruction: 0x612f6363
     55c:	6e2d6d72 	mcrvs	13, 1, r6, cr13, cr2, {3}
     560:	2d656e6f 	stclcs	14, cr6, [r5, #-444]!	; 0xfffffe44
     564:	69626165 	stmdbvs	r2!, {r0, r2, r5, r6, r8, sp, lr}^
     568:	332e362f 			; <UNDEFINED> instruction: 0x332e362f
     56c:	692f312e 	stmdbvs	pc!, {r1, r2, r3, r5, r8, ip, sp}	; <UNPREDICTABLE>
     570:	756c636e 	strbvc	r6, [ip, #-878]!	; 0xfffffc92
     574:	2f006564 	svccs	0x00006564
     578:	656d6f68 	strbvs	r6, [sp, #-3944]!	; 0xfffff098
     57c:	6573752f 	ldrbvs	r7, [r3, #-1327]!	; 0xfffffad1
     580:	65442f72 	strbvs	r2, [r4, #-3954]	; 0xfffff08e
     584:	53432f76 	movtpl	r2, #16246	; 0x3f76
     588:	45303431 	ldrmi	r3, [r0, #-1073]!	; 0xfffffbcf
     58c:	62696c2f 	rsbvs	r6, r9, #12032	; 0x2f00
     590:	00006970 	andeq	r6, r0, r0, ror r9
     594:	702d6176 	eorvc	r6, sp, r6, ror r1
     598:	746e6972 	strbtvc	r6, [lr], #-2418	; 0xfffff68e
     59c:	00632e6b 	rsbeq	r2, r3, fp, ror #28
     5a0:	6c000001 	stcvs	0, cr0, [r0], {1}
     5a4:	2e6b636f 	cdpcs	3, 6, cr6, cr11, cr15, {3}
     5a8:	00020068 	andeq	r0, r2, r8, rrx
     5ac:	79745f00 	ldmdbvc	r4!, {r8, r9, sl, fp, ip, lr}^
     5b0:	2e736570 	mrccs	5, 3, r6, cr3, cr0, {3}
     5b4:	00020068 	andeq	r0, r2, r8, rrx
     5b8:	64747300 	ldrbtvs	r7, [r4], #-768	; 0xfffffd00
     5bc:	2e666564 	cdpcs	5, 6, cr6, cr6, cr4, {3}
     5c0:	00030068 	andeq	r0, r3, r8, rrx
     5c4:	65657200 	strbvs	r7, [r5, #-512]!	; 0xfffffe00
     5c8:	682e746e 	stmdavs	lr!, {r1, r2, r3, r5, r6, sl, ip, sp, lr}
     5cc:	00000200 	andeq	r0, r0, r0, lsl #4
     5d0:	2e697072 	mcrcs	0, 3, r7, cr9, cr2, {3}
     5d4:	00040068 	andeq	r0, r4, r8, rrx
     5d8:	64747300 	ldrbtvs	r7, [r4], #-768	; 0xfffffd00
     5dc:	2e677261 	cdpcs	2, 6, cr7, cr7, cr1, {3}
     5e0:	00030068 	andeq	r0, r3, r8, rrx
     5e4:	75623c00 	strbvc	r3, [r2, #-3072]!	; 0xfffff400
     5e8:	2d746c69 	ldclcs	12, cr6, [r4, #-420]!	; 0xfffffe5c
     5ec:	003e6e69 	eorseq	r6, lr, r9, ror #28
     5f0:	00000000 	andeq	r0, r0, r0
     5f4:	f4020500 	vst3.8	{d0,d2,d4}, [r2], r0
     5f8:	0300008b 	movweq	r0, #139	; 0x8b
     5fc:	a5010126 	strge	r0, [r1, #-294]	; 0xfffffeda
     600:	02003013 	andeq	r3, r0, #19
     604:	002f0204 	eoreq	r0, pc, r4, lsl #4
     608:	49020402 	stmdbmi	r2, {r1, sl}
     60c:	02040200 	andeq	r0, r4, #0, 4
     610:	0402002f 	streq	r0, [r2], #-47	; 0xffffffd1
     614:	4c4c2d01 	mcrrmi	13, 0, r2, ip, cr1
     618:	2f4b1430 	svccs	0x004b1430
     61c:	0402004f 	streq	r0, [r2], #-79	; 0xffffffb1
     620:	02006703 	andeq	r6, r0, #786432	; 0xc0000
     624:	4c650104 	stfmie	f0, [r5], #-16
     628:	2fa0304d 	svccs	0x00a0304d
     62c:	26023031 			; <UNDEFINED> instruction: 0x26023031
     630:	002da016 	eoreq	sl, sp, r6, lsl r0
     634:	06010402 	streq	r0, [r1], -r2, lsl #8
     638:	5148062e 	cmppl	r8, lr, lsr #12
     63c:	01040200 	mrseq	r0, R12_usr
     640:	02002e06 	andeq	r2, r0, #6, 28	; 0x60
     644:	08060104 	stmdaeq	r6, {r2, r8}
     648:	032f6759 			; <UNDEFINED> instruction: 0x032f6759
     64c:	02008273 	andeq	r8, r0, #805306375	; 0x30000007
     650:	13030104 	movwne	r0, #12548	; 0x3104
     654:	0402002e 	streq	r0, [r2], #-46	; 0xffffffd2
     658:	1503bb01 	strne	fp, [r3, #-2817]	; 0xfffff4ff
     65c:	6e03d74a 	cdpvs	7, 0, cr13, cr3, cr10, {2}
     660:	67034b4a 	strvs	r4, [r3, -sl, asr #22]
     664:	0402002e 	streq	r0, [r2], #-46	; 0xffffffd2
     668:	2e210301 	cdpcs	3, 2, cr0, cr1, cr1, {0}
     66c:	01040200 	mrseq	r0, R12_usr
     670:	040200bb 	streq	r0, [r2], #-187	; 0xffffff45
     674:	aa036a01 	bge	dae80 <__bss_end__+0xd0e90>
     678:	13ac087f 			; <UNDEFINED> instruction: 0x13ac087f
     67c:	002f4b4b 	eoreq	r4, pc, fp, asr #22
     680:	62010402 	andvs	r0, r1, #33554432	; 0x2000000
     684:	01040200 	mrseq	r0, R12_usr
     688:	00dd032f 	sbcseq	r0, sp, pc, lsr #6
     68c:	4c837408 	cfstrsmi	mvf7, [r3], {8}
     690:	02003148 	andeq	r3, r0, #72, 2
     694:	66060104 	strvs	r0, [r6], -r4, lsl #2
     698:	842f4b06 	strthi	r4, [pc], #-2822	; 6a0 <_start-0x7960>
     69c:	0330314e 	teqeq	r0, #-2147483629	; 0x80000013
     6a0:	2d2f2e78 	stccs	14, cr2, [pc, #-480]!	; 4c8 <_start-0x7b38>
     6a4:	834a0903 	movthi	r0, #43267	; 0xa903
     6a8:	004ca22c 	subeq	sl, ip, ip, lsr #4
     6ac:	02010402 	andeq	r0, r1, #33554432	; 0x2000000
     6b0:	03dc1036 	bicseq	r1, ip, #54	; 0x36
     6b4:	1603d60e 	strne	sp, [r3], -lr, lsl #12
     6b8:	03315808 	teqeq	r1, #8, 16	; 0x80000
     6bc:	59082e6a 	stmdbpl	r8, {r1, r3, r5, r6, r9, sl, fp, sp}
     6c0:	30590831 	subscc	r0, r9, r1, lsr r8
     6c4:	83305908 	teqhi	r0, #8, 18	; 0x20000
     6c8:	30590830 	subscc	r0, r9, r0, lsr r8
     6cc:	00652708 	rsbeq	r2, r5, r8, lsl #14
     6d0:	06010402 	streq	r0, [r1], -r2, lsl #8
     6d4:	6886064a 	stmvs	r6, {r1, r3, r6, r9, sl}
     6d8:	01001002 	tsteq	r0, r2
     6dc:	0000db01 	andeq	sp, r0, r1, lsl #22
     6e0:	b5000200 	strlt	r0, [r0, #-512]	; 0xfffffe00
     6e4:	02000000 	andeq	r0, r0, #0
     6e8:	0d0efb01 	vstreq	d15, [lr, #-4]
     6ec:	01010100 	mrseq	r0, (UNDEF: 17)
     6f0:	00000001 	andeq	r0, r0, r1
     6f4:	01000001 	tsteq	r0, r1
     6f8:	6362696c 	cmnvs	r2, #108, 18	; 0x1b0000
     6fc:	73752f00 	cmnvc	r5, #0, 30
     700:	6e692f72 	mcrvs	15, 3, r2, cr9, cr2, {3}
     704:	64756c63 	ldrbtvs	r6, [r5], #-3171	; 0xfffff39d
     708:	656e2f65 	strbvs	r2, [lr, #-3941]!	; 0xfffff09b
     70c:	62696c77 	rsbvs	r6, r9, #30464	; 0x7700
     710:	7379732f 	cmnvc	r9, #-1140850688	; 0xbc000000
     714:	73752f00 	cmnvc	r5, #0, 30
     718:	696c2f72 	stmdbvs	ip!, {r1, r4, r5, r6, r8, r9, sl, fp, sp}^
     71c:	63672f62 	cmnvs	r7, #392	; 0x188
     720:	72612f63 	rsbvc	r2, r1, #396	; 0x18c
     724:	6f6e2d6d 	svcvs	0x006e2d6d
     728:	652d656e 	strvs	r6, [sp, #-1390]!	; 0xfffffa92
     72c:	2f696261 	svccs	0x00696261
     730:	2e332e36 	mrccs	14, 1, r2, cr3, cr6, {1}
     734:	6e692f31 	mcrvs	15, 3, r2, cr9, cr1, {1}
     738:	64756c63 	ldrbtvs	r6, [r5], #-3171	; 0xfffff39d
     73c:	682f0065 	stmdavs	pc!, {r0, r2, r5, r6}	; <UNPREDICTABLE>
     740:	2f656d6f 	svccs	0x00656d6f
     744:	72657375 	rsbvc	r7, r5, #-738197503	; 0xd4000001
     748:	7665442f 	strbtvc	r4, [r5], -pc, lsr #8
     74c:	3153432f 	cmpcc	r3, pc, lsr #6
     750:	2f453034 	svccs	0x00453034
     754:	7062696c 	rsbvc	r6, r2, ip, ror #18
     758:	70000069 	andvc	r0, r0, r9, rrx
     75c:	2e6b7475 	mcrcs	4, 3, r7, cr11, cr5, {3}
     760:	00010063 	andeq	r0, r1, r3, rrx
     764:	636f6c00 	cmnvs	pc, #0, 24
     768:	00682e6b 	rsbeq	r2, r8, fp, ror #28
     76c:	5f000002 	svcpl	0x00000002
     770:	65707974 	ldrbvs	r7, [r0, #-2420]!	; 0xfffff68c
     774:	00682e73 	rsbeq	r2, r8, r3, ror lr
     778:	73000002 	movwvc	r0, #2
     77c:	65646474 	strbvs	r6, [r4, #-1140]!	; 0xfffffb8c
     780:	00682e66 	rsbeq	r2, r8, r6, ror #28
     784:	72000003 	andvc	r0, r0, #3
     788:	746e6565 	strbtvc	r6, [lr], #-1381	; 0xfffffa9b
     78c:	0200682e 	andeq	r6, r0, #3014656	; 0x2e0000
     790:	70720000 	rsbsvc	r0, r2, r0
     794:	00682e69 	rsbeq	r2, r8, r9, ror #28
     798:	00000004 	andeq	r0, r0, r4
     79c:	24020500 	strcs	r0, [r2], #-1280	; 0xfffffb00
     7a0:	15000091 	strne	r0, [r0, #-145]	; 0xffffff6f
     7a4:	0402004b 	streq	r0, [r2], #-75	; 0xffffffb5
     7a8:	02002f02 	andeq	r2, r0, #2, 30
     7ac:	00650204 	rsbeq	r0, r5, r4, lsl #4
     7b0:	06010402 	streq	r0, [r1], -r2, lsl #8
     7b4:	026b062e 	rsbeq	r0, fp, #48234496	; 0x2e00000
     7b8:	01010006 	tsteq	r1, r6
     7bc:	000000d0 	ldrdeq	r0, [r0], -r0	; <UNPREDICTABLE>
     7c0:	00b80002 	adcseq	r0, r8, r2
     7c4:	01020000 	mrseq	r0, (UNDEF: 2)
     7c8:	000d0efb 	strdeq	r0, [sp], -fp
     7cc:	01010101 	tsteq	r1, r1, lsl #2
     7d0:	01000000 	mrseq	r0, (UNDEF: 0)
     7d4:	6c010000 	stcvs	0, cr0, [r1], {-0}
     7d8:	00636269 	rsbeq	r6, r3, r9, ror #4
     7dc:	7273752f 	rsbsvc	r7, r3, #197132288	; 0xbc00000
     7e0:	636e692f 	cmnvs	lr, #770048	; 0xbc000
     7e4:	6564756c 	strbvs	r7, [r4, #-1388]!	; 0xfffffa94
     7e8:	77656e2f 	strbvc	r6, [r5, -pc, lsr #28]!
     7ec:	2f62696c 	svccs	0x0062696c
     7f0:	00737973 	rsbseq	r7, r3, r3, ror r9
     7f4:	7273752f 	rsbsvc	r7, r3, #197132288	; 0xbc00000
     7f8:	62696c2f 	rsbvs	r6, r9, #12032	; 0x2f00
     7fc:	6363672f 	cmnvs	r3, #12320768	; 0xbc0000
     800:	6d72612f 	ldfvse	f6, [r2, #-188]!	; 0xffffff44
     804:	6e6f6e2d 	cdpvs	14, 6, cr6, cr15, cr13, {1}
     808:	61652d65 	cmnvs	r5, r5, ror #26
     80c:	362f6962 	strtcc	r6, [pc], -r2, ror #18
     810:	312e332e 			; <UNDEFINED> instruction: 0x312e332e
     814:	636e692f 	cmnvs	lr, #770048	; 0xbc000
     818:	6564756c 	strbvs	r7, [r4, #-1388]!	; 0xfffffa94
     81c:	6f682f00 	svcvs	0x00682f00
     820:	752f656d 	strvc	r6, [pc, #-1389]!	; 2bb <_start-0x7d45>
     824:	2f726573 	svccs	0x00726573
     828:	2f766544 	svccs	0x00766544
     82c:	34315343 	ldrtcc	r5, [r1], #-835	; 0xfffffcbd
     830:	6c2f4530 	cfstr32vs	mvfx4, [pc], #-192	; 778 <_start-0x7888>
     834:	69706269 	ldmdbvs	r0!, {r0, r3, r5, r6, r9, sp, lr}^
     838:	75700000 	ldrbvc	r0, [r0, #-0]!
     83c:	61686374 	smcvs	34356	; 0x8634
     840:	00632e72 	rsbeq	r2, r3, r2, ror lr
     844:	6c000001 	stcvs	0, cr0, [r0], {1}
     848:	2e6b636f 	cdpcs	3, 6, cr6, cr11, cr15, {3}
     84c:	00020068 	andeq	r0, r2, r8, rrx
     850:	79745f00 	ldmdbvc	r4!, {r8, r9, sl, fp, ip, lr}^
     854:	2e736570 	mrccs	5, 3, r6, cr3, cr0, {3}
     858:	00020068 	andeq	r0, r2, r8, rrx
     85c:	64747300 	ldrbtvs	r7, [r4], #-768	; 0xfffffd00
     860:	2e666564 	cdpcs	5, 6, cr6, cr6, cr4, {3}
     864:	00030068 	andeq	r0, r3, r8, rrx
     868:	65657200 	strbvs	r7, [r5, #-512]!	; 0xfffffe00
     86c:	682e746e 	stmdavs	lr!, {r1, r2, r3, r5, r6, sl, ip, sp, lr}
     870:	00000200 	andeq	r0, r0, r0, lsl #4
     874:	2e697072 	mcrcs	0, 3, r7, cr9, cr2, {3}
     878:	00040068 	andeq	r0, r4, r8, rrx
     87c:	05000000 	streq	r0, [r0, #-0]
     880:	00915802 	addseq	r5, r1, r2, lsl #16
     884:	6b4a1400 	blvs	128588c <__bss_end__+0x127b89c>
     888:	0213bc13 	andseq	fp, r3, #4864	; 0x1300
     88c:	01010008 	tsteq	r1, r8
     890:	00000146 	andeq	r0, r0, r6, asr #2
     894:	01240002 			; <UNDEFINED> instruction: 0x01240002
     898:	01020000 	mrseq	r0, (UNDEF: 2)
     89c:	000d0efb 	strdeq	r0, [sp], -fp
     8a0:	01010101 	tsteq	r1, r1, lsl #2
     8a4:	01000000 	mrseq	r0, (UNDEF: 0)
     8a8:	63010000 	movwvs	r0, #4096	; 0x1000
     8ac:	30343173 	eorscc	r3, r4, r3, ror r1
     8b0:	72732d65 	rsbsvc	r2, r3, #6464	; 0x1940
     8b4:	752f0063 	strvc	r0, [pc, #-99]!	; 859 <_start-0x77a7>
     8b8:	6c2f7273 	sfmvs	f7, 4, [pc], #-460	; 6f4 <_start-0x790c>
     8bc:	672f6269 	strvs	r6, [pc, -r9, ror #4]!
     8c0:	612f6363 			; <UNDEFINED> instruction: 0x612f6363
     8c4:	6e2d6d72 	mcrvs	13, 1, r6, cr13, cr2, {3}
     8c8:	2d656e6f 	stclcs	14, cr6, [r5, #-444]!	; 0xfffffe44
     8cc:	69626165 	stmdbvs	r2!, {r0, r2, r5, r6, r8, sp, lr}^
     8d0:	332e362f 			; <UNDEFINED> instruction: 0x332e362f
     8d4:	692f312e 	stmdbvs	pc!, {r1, r2, r3, r5, r8, ip, sp}	; <UNPREDICTABLE>
     8d8:	756c636e 	strbvc	r6, [ip, #-878]!	; 0xfffffc92
     8dc:	2f006564 	svccs	0x00006564
     8e0:	2f727375 	svccs	0x00727375
     8e4:	6c636e69 	stclvs	14, cr6, [r3], #-420	; 0xfffffe5c
     8e8:	2f656475 	svccs	0x00656475
     8ec:	6c77656e 	cfldr64vs	mvdx6, [r7], #-440	; 0xfffffe48
     8f0:	732f6269 			; <UNDEFINED> instruction: 0x732f6269
     8f4:	2f007379 	svccs	0x00007379
     8f8:	656d6f68 	strbvs	r6, [sp, #-3944]!	; 0xfffff098
     8fc:	6573752f 	ldrbvs	r7, [r3, #-1327]!	; 0xfffffad1
     900:	65442f72 	strbvs	r2, [r4, #-3954]	; 0xfffff08e
     904:	53432f76 	movtpl	r2, #16246	; 0x3f76
     908:	45303431 	ldrmi	r3, [r0, #-1073]!	; 0xfffffbcf
     90c:	62696c2f 	rsbvs	r6, r9, #12032	; 0x2f00
     910:	2f006970 	svccs	0x00006970
     914:	656d6f68 	strbvs	r6, [sp, #-3944]!	; 0xfffff098
     918:	6573752f 	ldrbvs	r7, [r3, #-1327]!	; 0xfffffad1
     91c:	65442f72 	strbvs	r2, [r4, #-3954]	; 0xfffff08e
     920:	53432f76 	movtpl	r2, #16246	; 0x3f76
     924:	45303431 	ldrmi	r3, [r0, #-1073]!	; 0xfffffbcf
     928:	62696c2f 	rsbvs	r6, r9, #12032	; 0x2f00
     92c:	632f6970 			; <UNDEFINED> instruction: 0x632f6970
     930:	30343173 	eorscc	r3, r4, r3, ror r1
     934:	72732d65 	rsbsvc	r2, r3, #6464	; 0x1940
     938:	63000063 	movwvs	r0, #99	; 0x63
     93c:	72617473 	rsbvc	r7, r1, #1929379840	; 0x73000000
     940:	00632e74 	rsbeq	r2, r3, r4, ror lr
     944:	73000001 	movwvc	r0, #1
     948:	6e696474 	mcrvs	4, 3, r6, cr9, cr4, {3}
     94c:	63672d74 	cmnvs	r7, #116, 26	; 0x1d00
     950:	00682e63 	rsbeq	r2, r8, r3, ror #28
     954:	6c000002 	stcvs	0, cr0, [r0], {2}
     958:	2e6b636f 	cdpcs	3, 6, cr6, cr11, cr15, {3}
     95c:	00030068 	andeq	r0, r3, r8, rrx
     960:	79745f00 	ldmdbvc	r4!, {r8, r9, sl, fp, ip, lr}^
     964:	2e736570 	mrccs	5, 3, r6, cr3, cr0, {3}
     968:	00030068 	andeq	r0, r3, r8, rrx
     96c:	64747300 	ldrbtvs	r7, [r4], #-768	; 0xfffffd00
     970:	2e666564 	cdpcs	5, 6, cr6, cr6, cr4, {3}
     974:	00020068 	andeq	r0, r2, r8, rrx
     978:	65657200 	strbvs	r7, [r5, #-512]!	; 0xfffffe00
     97c:	682e746e 	stmdavs	lr!, {r1, r2, r3, r5, r6, sl, ip, sp, lr}
     980:	00000300 	andeq	r0, r0, r0, lsl #6
     984:	2e697072 	mcrcs	0, 3, r7, cr9, cr2, {3}
     988:	00040068 	andeq	r0, r4, r8, rrx
     98c:	2d777300 	ldclcs	3, cr7, [r7, #-0]
     990:	74726175 	ldrbtvc	r6, [r2], #-373	; 0xfffffe8b
     994:	0100682e 	tsteq	r0, lr, lsr #16
     998:	79630000 	stmdbvc	r3!, {}^	; <UNPREDICTABLE>
     99c:	2d656c63 	stclcs	12, cr6, [r5, #-396]!	; 0xfffffe74
     9a0:	6c697475 	cfstrdvs	mvd7, [r9], #-468	; 0xfffffe2c
     9a4:	0500682e 	streq	r6, [r0, #-2094]	; 0xfffff7d2
     9a8:	6f630000 	svcvs	0x00630000
     9ac:	6f72746e 	svcvs	0x0072746e
     9b0:	6c622d6c 	stclvs	13, cr2, [r2], #-432	; 0xfffffe50
     9b4:	2e6b636f 	cdpcs	3, 6, cr6, cr11, cr15, {3}
     9b8:	00010068 	andeq	r0, r1, r8, rrx
     9bc:	05000000 	streq	r0, [r0, #-0]
     9c0:	00919402 	addseq	r9, r1, r2, lsl #8
     9c4:	30151700 	andscc	r1, r5, r0, lsl #14
     9c8:	652f3132 	strvs	r3, [pc, #-306]!	; 89e <_start-0x7762>
     9cc:	6e4b2f6b 	cdpvs	15, 4, cr2, cr11, cr11, {3}
     9d0:	2e78032f 	cdpcs	3, 7, cr0, cr8, cr15, {1}
     9d4:	00100269 	andseq	r0, r0, r9, ror #4
     9d8:	00e10101 	rsceq	r0, r1, r1, lsl #2
     9dc:	00020000 	andeq	r0, r2, r0
     9e0:	000000bd 	strheq	r0, [r0], -sp
     9e4:	0efb0102 	cdpeq	1, 15, cr0, cr11, cr2, {0}
     9e8:	0101000d 	tsteq	r1, sp
     9ec:	00000101 	andeq	r0, r0, r1, lsl #2
     9f0:	00000100 	andeq	r0, r0, r0, lsl #2
     9f4:	31736301 	cmncc	r3, r1, lsl #6
     9f8:	2d653034 	stclcs	0, cr3, [r5, #-208]!	; 0xffffff30
     9fc:	00637273 	rsbeq	r7, r3, r3, ror r2
     a00:	7273752f 	rsbsvc	r7, r3, #197132288	; 0xbc00000
     a04:	636e692f 	cmnvs	lr, #770048	; 0xbc000
     a08:	6564756c 	strbvs	r7, [r4, #-1388]!	; 0xfffffa94
     a0c:	77656e2f 	strbvc	r6, [r5, -pc, lsr #28]!
     a10:	2f62696c 	svccs	0x0062696c
     a14:	00737973 	rsbseq	r7, r3, r3, ror r9
     a18:	7273752f 	rsbsvc	r7, r3, #197132288	; 0xbc00000
     a1c:	62696c2f 	rsbvs	r6, r9, #12032	; 0x2f00
     a20:	6363672f 	cmnvs	r3, #12320768	; 0xbc0000
     a24:	6d72612f 	ldfvse	f6, [r2, #-188]!	; 0xffffff44
     a28:	6e6f6e2d 	cdpvs	14, 6, cr6, cr15, cr13, {1}
     a2c:	61652d65 	cmnvs	r5, r5, ror #26
     a30:	362f6962 	strtcc	r6, [pc], -r2, ror #18
     a34:	312e332e 			; <UNDEFINED> instruction: 0x312e332e
     a38:	636e692f 	cmnvs	lr, #770048	; 0xbc000
     a3c:	6564756c 	strbvs	r7, [r4, #-1388]!	; 0xfffffa94
     a40:	6f682f00 	svcvs	0x00682f00
     a44:	752f656d 	strvc	r6, [pc, #-1389]!	; 4df <_start-0x7b21>
     a48:	2f726573 	svccs	0x00726573
     a4c:	2f766544 	svccs	0x00766544
     a50:	34315343 	ldrtcc	r5, [r1], #-835	; 0xfffffcbd
     a54:	6c2f4530 	cfstr32vs	mvfx4, [pc], #-192	; 99c <_start-0x7664>
     a58:	69706269 	ldmdbvs	r0!, {r0, r3, r5, r6, r9, sp, lr}^
     a5c:	65720000 	ldrbvs	r0, [r2, #-0]!
     a60:	746f6f62 	strbtvc	r6, [pc], #-3938	; a68 <_start-0x7598>
     a64:	0100632e 	tsteq	r0, lr, lsr #6
     a68:	6f6c0000 	svcvs	0x006c0000
     a6c:	682e6b63 	stmdavs	lr!, {r0, r1, r5, r6, r8, r9, fp, sp, lr}
     a70:	00000200 	andeq	r0, r0, r0, lsl #4
     a74:	7079745f 	rsbsvc	r7, r9, pc, asr r4
     a78:	682e7365 	stmdavs	lr!, {r0, r2, r5, r6, r8, r9, ip, sp, lr}
     a7c:	00000200 	andeq	r0, r0, r0, lsl #4
     a80:	64647473 	strbtvs	r7, [r4], #-1139	; 0xfffffb8d
     a84:	682e6665 	stmdavs	lr!, {r0, r2, r5, r6, r9, sl, sp, lr}
     a88:	00000300 	andeq	r0, r0, r0, lsl #6
     a8c:	6e656572 	mcrvs	5, 3, r6, cr5, cr2, {3}
     a90:	00682e74 	rsbeq	r2, r8, r4, ror lr
     a94:	72000002 	andvc	r0, r0, #2
     a98:	682e6970 	stmdavs	lr!, {r4, r5, r6, r8, fp, sp, lr}
     a9c:	00000400 	andeq	r0, r0, r0, lsl #8
     aa0:	02050000 	andeq	r0, r5, #0
     aa4:	00009208 	andeq	r9, r0, r8, lsl #4
     aa8:	14010d03 	strne	r0, [r1], #-3331	; 0xfffff2fd
     aac:	15852f31 	strne	r2, [r5, #3889]	; 0xf31
     ab0:	2f4d4b2f 	svccs	0x004d4b2f
     ab4:	0367526e 	cmneq	r7, #-536870906	; 0xe0000006
     ab8:	0c028270 	sfmeq	f0, 1, [r2], {112}	; 0x70
     abc:	d9010100 	stmdble	r1, {r8}
     ac0:	02000000 	andeq	r0, r0, #0
     ac4:	0000c300 	andeq	ip, r0, r0, lsl #6
     ac8:	fb010200 	blx	412d2 <__bss_end__+0x372e2>
     acc:	01000d0e 	tsteq	r0, lr, lsl #26
     ad0:	00010101 	andeq	r0, r1, r1, lsl #2
     ad4:	00010000 	andeq	r0, r1, r0
     ad8:	73630100 	cmnvc	r3, #0, 2
     adc:	65303431 	ldrvs	r3, [r0, #-1073]!	; 0xfffffbcf
     ae0:	6372732d 	cmnvs	r2, #-1275068416	; 0xb4000000
     ae4:	73752f00 	cmnvc	r5, #0, 30
     ae8:	6e692f72 	mcrvs	15, 3, r2, cr9, cr2, {3}
     aec:	64756c63 	ldrbtvs	r6, [r5], #-3171	; 0xfffff39d
     af0:	656e2f65 	strbvs	r2, [lr, #-3941]!	; 0xfffff09b
     af4:	62696c77 	rsbvs	r6, r9, #30464	; 0x7700
     af8:	7379732f 	cmnvc	r9, #-1140850688	; 0xbc000000
     afc:	73752f00 	cmnvc	r5, #0, 30
     b00:	696c2f72 	stmdbvs	ip!, {r1, r4, r5, r6, r8, r9, sl, fp, sp}^
     b04:	63672f62 	cmnvs	r7, #392	; 0x188
     b08:	72612f63 	rsbvc	r2, r1, #396	; 0x18c
     b0c:	6f6e2d6d 	svcvs	0x006e2d6d
     b10:	652d656e 	strvs	r6, [sp, #-1390]!	; 0xfffffa92
     b14:	2f696261 	svccs	0x00696261
     b18:	2e332e36 	mrccs	14, 1, r2, cr3, cr6, {1}
     b1c:	6e692f31 	mcrvs	15, 3, r2, cr9, cr1, {1}
     b20:	64756c63 	ldrbtvs	r6, [r5], #-3171	; 0xfffff39d
     b24:	682f0065 	stmdavs	pc!, {r0, r2, r5, r6}	; <UNPREDICTABLE>
     b28:	2f656d6f 	svccs	0x00656d6f
     b2c:	72657375 	rsbvc	r7, r5, #-738197503	; 0xd4000001
     b30:	7665442f 	strbtvc	r4, [r5], -pc, lsr #8
     b34:	3153432f 	cmpcc	r3, pc, lsr #6
     b38:	2f453034 	svccs	0x00453034
     b3c:	7062696c 	rsbvc	r6, r2, ip, ror #18
     b40:	63000069 	movwvs	r0, #105	; 0x69
     b44:	6e61656c 	cdpvs	5, 6, cr6, cr1, cr12, {3}
     b48:	6265722d 	rsbvs	r7, r5, #-805306366	; 0xd0000002
     b4c:	2e746f6f 	cdpcs	15, 7, cr6, cr4, cr15, {3}
     b50:	00010063 	andeq	r0, r1, r3, rrx
     b54:	636f6c00 	cmnvs	pc, #0, 24
     b58:	00682e6b 	rsbeq	r2, r8, fp, ror #28
     b5c:	5f000002 	svcpl	0x00000002
     b60:	65707974 	ldrbvs	r7, [r0, #-2420]!	; 0xfffff68c
     b64:	00682e73 	rsbeq	r2, r8, r3, ror lr
     b68:	73000002 	movwvc	r0, #2
     b6c:	65646474 	strbvs	r6, [r4, #-1140]!	; 0xfffffb8c
     b70:	00682e66 	rsbeq	r2, r8, r6, ror #28
     b74:	72000003 	andvc	r0, r0, #3
     b78:	746e6565 	strbtvc	r6, [lr], #-1381	; 0xfffffa9b
     b7c:	0200682e 	andeq	r6, r0, #3014656	; 0x2e0000
     b80:	70720000 	rsbsvc	r0, r2, r0
     b84:	00682e69 	rsbeq	r2, r8, r9, ror #28
     b88:	00000004 	andeq	r0, r0, r4
     b8c:	80020500 	andhi	r0, r2, r0, lsl #10
     b90:	15000092 	strne	r0, [r0, #-146]	; 0xffffff6e
     b94:	024b832f 	subeq	r8, fp, #-1140850688	; 0xbc000000
     b98:	01010006 	tsteq	r1, r6
     b9c:	000000e2 	andeq	r0, r0, r2, ror #1
     ba0:	00bc0002 	adcseq	r0, ip, r2
     ba4:	01020000 	mrseq	r0, (UNDEF: 2)
     ba8:	000d0efb 	strdeq	r0, [sp], -fp
     bac:	01010101 	tsteq	r1, r1, lsl #2
     bb0:	01000000 	mrseq	r0, (UNDEF: 0)
     bb4:	63010000 	movwvs	r0, #4096	; 0x1000
     bb8:	30343173 	eorscc	r3, r4, r3, ror r1
     bbc:	72732d65 	rsbsvc	r2, r3, #6464	; 0x1940
     bc0:	752f0063 	strvc	r0, [pc, #-99]!	; b65 <_start-0x749b>
     bc4:	692f7273 	stmdbvs	pc!, {r0, r1, r4, r5, r6, r9, ip, sp, lr}	; <UNPREDICTABLE>
     bc8:	756c636e 	strbvc	r6, [ip, #-878]!	; 0xfffffc92
     bcc:	6e2f6564 	cfsh64vs	mvdx6, mvdx15, #52
     bd0:	696c7765 	stmdbvs	ip!, {r0, r2, r5, r6, r8, r9, sl, ip, sp, lr}^
     bd4:	79732f62 	ldmdbvc	r3!, {r1, r5, r6, r8, r9, sl, fp, sp}^
     bd8:	752f0073 	strvc	r0, [pc, #-115]!	; b6d <_start-0x7493>
     bdc:	6c2f7273 	sfmvs	f7, 4, [pc], #-460	; a18 <_start-0x75e8>
     be0:	672f6269 	strvs	r6, [pc, -r9, ror #4]!
     be4:	612f6363 			; <UNDEFINED> instruction: 0x612f6363
     be8:	6e2d6d72 	mcrvs	13, 1, r6, cr13, cr2, {3}
     bec:	2d656e6f 	stclcs	14, cr6, [r5, #-444]!	; 0xfffffe44
     bf0:	69626165 	stmdbvs	r2!, {r0, r2, r5, r6, r8, sp, lr}^
     bf4:	332e362f 			; <UNDEFINED> instruction: 0x332e362f
     bf8:	692f312e 	stmdbvs	pc!, {r1, r2, r3, r5, r8, ip, sp}	; <UNPREDICTABLE>
     bfc:	756c636e 	strbvc	r6, [ip, #-878]!	; 0xfffffc92
     c00:	2f006564 	svccs	0x00006564
     c04:	656d6f68 	strbvs	r6, [sp, #-3944]!	; 0xfffff098
     c08:	6573752f 	ldrbvs	r7, [r3, #-1327]!	; 0xfffffad1
     c0c:	65442f72 	strbvs	r2, [r4, #-3954]	; 0xfffff08e
     c10:	53432f76 	movtpl	r2, #16246	; 0x3f76
     c14:	45303431 	ldrmi	r3, [r0, #-1073]!	; 0xfffffbcf
     c18:	62696c2f 	rsbvs	r6, r9, #12032	; 0x2f00
     c1c:	00006970 	andeq	r6, r0, r0, ror r9
     c20:	656d6974 	strbvs	r6, [sp, #-2420]!	; 0xfffff68c
     c24:	00632e72 	rsbeq	r2, r3, r2, ror lr
     c28:	6c000001 	stcvs	0, cr0, [r0], {1}
     c2c:	2e6b636f 	cdpcs	3, 6, cr6, cr11, cr15, {3}
     c30:	00020068 	andeq	r0, r2, r8, rrx
     c34:	79745f00 	ldmdbvc	r4!, {r8, r9, sl, fp, ip, lr}^
     c38:	2e736570 	mrccs	5, 3, r6, cr3, cr0, {3}
     c3c:	00020068 	andeq	r0, r2, r8, rrx
     c40:	64747300 	ldrbtvs	r7, [r4], #-768	; 0xfffffd00
     c44:	2e666564 	cdpcs	5, 6, cr6, cr6, cr4, {3}
     c48:	00030068 	andeq	r0, r3, r8, rrx
     c4c:	65657200 	strbvs	r7, [r5, #-512]!	; 0xfffffe00
     c50:	682e746e 	stmdavs	lr!, {r1, r2, r3, r5, r6, sl, ip, sp, lr}
     c54:	00000200 	andeq	r0, r0, r0, lsl #4
     c58:	2e697072 	mcrcs	0, 3, r7, cr9, cr2, {3}
     c5c:	00040068 	andeq	r0, r4, r8, rrx
     c60:	05000000 	streq	r0, [r0, #-0]
     c64:	0092a802 	addseq	sl, r2, r2, lsl #16
     c68:	2f131600 	svccs	0x00131600
     c6c:	2f31842d 	svccs	0x0031842d
     c70:	31324d4b 	teqcc	r2, fp, asr #26
     c74:	2f4c4b30 	svccs	0x004c4b30
     c78:	842f2f6a 	strthi	r2, [pc], #-3946	; c80 <_start-0x7380>
     c7c:	0008022f 	andeq	r0, r8, pc, lsr #4
     c80:	014b0101 	cmpeq	fp, r1, lsl #2
     c84:	00020000 	andeq	r0, r2, r0
     c88:	00000106 	andeq	r0, r0, r6, lsl #2
     c8c:	0efb0102 	cdpeq	1, 15, cr0, cr11, cr2, {0}
     c90:	0101000d 	tsteq	r1, sp
     c94:	00000101 	andeq	r0, r0, r1, lsl #2
     c98:	00000100 	andeq	r0, r0, r0, lsl #2
     c9c:	73752f01 	cmnvc	r5, #1, 30
     ca0:	72612f72 	rsbvc	r2, r1, #456	; 0x1c8
     ca4:	6f6e2d6d 	svcvs	0x006e2d6d
     ca8:	652d656e 	strvs	r6, [sp, #-1390]!	; 0xfffffa92
     cac:	2f696261 	svccs	0x00696261
     cb0:	6c636e69 	stclvs	14, cr6, [r3], #-420	; 0xfffffe5c
     cb4:	2f656475 	svccs	0x00656475
     cb8:	00737973 	rsbseq	r7, r3, r3, ror r9
     cbc:	7273752f 	rsbsvc	r7, r3, #197132288	; 0xbc00000
     cc0:	62696c2f 	rsbvs	r6, r9, #12032	; 0x2f00
     cc4:	6363672f 	cmnvs	r3, #12320768	; 0xbc0000
     cc8:	6d72612f 	ldfvse	f6, [r2, #-188]!	; 0xffffff44
     ccc:	6e6f6e2d 	cdpvs	14, 6, cr6, cr15, cr13, {1}
     cd0:	61652d65 	cmnvs	r5, r5, ror #26
     cd4:	372f6962 	strcc	r6, [pc, -r2, ror #18]!
     cd8:	312e332e 			; <UNDEFINED> instruction: 0x312e332e
     cdc:	636e692f 	cmnvs	lr, #770048	; 0xbc000
     ce0:	6564756c 	strbvs	r7, [r4, #-1388]!	; 0xfffffa94
     ce4:	6f682f00 	svcvs	0x00682f00
     ce8:	652f656d 	strvs	r6, [pc, #-1389]!	; 783 <_start-0x787d>
     cec:	656c676e 	strbvs	r6, [ip, #-1902]!	; 0xfffff892
     cf0:	6c632f72 	stclvs	15, cr2, [r3], #-456	; 0xfffffe38
     cf4:	2f737361 	svccs	0x00737361
     cf8:	34317363 	ldrtcc	r7, [r1], #-867	; 0xfffffc9d
     cfc:	322d6530 	eorcc	r6, sp, #48, 10	; 0xc000000
     d00:	6e697730 	mcrvs	7, 3, r7, cr9, cr0, {1}
     d04:	62696c2f 	rsbvs	r6, r9, #12032	; 0x2f00
     d08:	2f006970 	svccs	0x00006970
     d0c:	656d6f68 	strbvs	r6, [sp, #-3944]!	; 0xfffff098
     d10:	676e652f 	strbvs	r6, [lr, -pc, lsr #10]!
     d14:	2f72656c 	svccs	0x0072656c
     d18:	73616c63 	cmnvc	r1, #25344	; 0x6300
     d1c:	73632f73 	cmnvc	r3, #460	; 0x1cc
     d20:	65303431 	ldrvs	r3, [r0, #-1073]!	; 0xfffffbcf
     d24:	7730322d 	ldrvc	r3, [r0, -sp, lsr #4]!
     d28:	6c2f6e69 	stcvs	14, cr6, [pc], #-420	; b8c <_start-0x7474>
     d2c:	69706269 	ldmdbvs	r0!, {r0, r3, r5, r6, r9, sp, lr}^
     d30:	3173632f 	cmncc	r3, pc, lsr #6
     d34:	2d653034 	stclcs	0, cr3, [r5, #-208]!	; 0xffffff30
     d38:	00637273 	rsbeq	r7, r3, r3, ror r2
     d3c:	72617500 	rsbvc	r7, r1, #0, 10
     d40:	00632e74 	rsbeq	r2, r3, r4, ror lr
     d44:	6c000000 	stcvs	0, cr0, [r0], {-0}
     d48:	2e6b636f 	cdpcs	3, 6, cr6, cr11, cr15, {3}
     d4c:	00010068 	andeq	r0, r1, r8, rrx
     d50:	79745f00 	ldmdbvc	r4!, {r8, r9, sl, fp, ip, lr}^
     d54:	2e736570 	mrccs	5, 3, r6, cr3, cr0, {3}
     d58:	00010068 	andeq	r0, r1, r8, rrx
     d5c:	64747300 	ldrbtvs	r7, [r4], #-768	; 0xfffffd00
     d60:	2e666564 	cdpcs	5, 6, cr6, cr6, cr4, {3}
     d64:	00020068 	andeq	r0, r2, r8, rrx
     d68:	65657200 	strbvs	r7, [r5, #-512]!	; 0xfffffe00
     d6c:	682e746e 	stmdavs	lr!, {r1, r2, r3, r5, r6, sl, ip, sp, lr}
     d70:	00000100 	andeq	r0, r0, r0, lsl #2
     d74:	2e697072 	mcrcs	0, 3, r7, cr9, cr2, {3}
     d78:	00030068 	andeq	r0, r3, r8, rrx
     d7c:	72617500 	rsbvc	r7, r1, #0, 10
     d80:	00682e74 	rsbeq	r2, r8, r4, ror lr
     d84:	67000004 	strvs	r0, [r0, -r4]
     d88:	2e6f6970 			; <UNDEFINED> instruction: 0x2e6f6970
     d8c:	00040068 	andeq	r0, r4, r8, rrx
     d90:	05000000 	streq	r0, [r0, #-0]
     d94:	00939402 	addseq	r9, r3, r2, lsl #8
     d98:	012d0300 			; <UNDEFINED> instruction: 0x012d0300
     d9c:	0b038367 	bleq	e1b40 <__bss_end__+0xd7b50>
     da0:	6867352e 	stmdavs	r7!, {r1, r2, r3, r5, r8, sl, ip, sp}^
     da4:	0c036835 	stceq	8, cr6, [r3], {53}	; 0x35
     da8:	696b852e 	stmdbvs	fp!, {r1, r2, r3, r5, r8, sl, pc}^
     dac:	660c0369 	strvs	r0, [ip], -r9, ror #6
     db0:	082f676b 	stmdaeq	pc!, {r0, r1, r3, r5, r6, r8, r9, sl, sp, lr}	; <UNPREDICTABLE>
     db4:	4b683425 	blmi	1a0de50 <__bss_end__+0x1a03e60>
     db8:	00876836 	addeq	r6, r7, r6, lsr r8
     dbc:	2f010402 	svccs	0x00010402
     dc0:	00674b68 	rsbeq	r4, r7, r8, ror #22
     dc4:	4b010402 	blmi	41dd4 <__bss_end__+0x37de4>
     dc8:	2e4c6768 	cdpcs	7, 4, cr6, cr12, cr8, {3}
     dcc:	01000402 	tsteq	r0, r2, lsl #8
     dd0:	00013701 	andeq	r3, r1, r1, lsl #14
     dd4:	fc000200 	stc2	2, cr0, [r0], {-0}
     dd8:	02000000 	andeq	r0, r0, #0
     ddc:	0d0efb01 	vstreq	d15, [lr, #-4]
     de0:	01010100 	mrseq	r0, (UNDEF: 17)
     de4:	00000001 	andeq	r0, r0, r1
     de8:	01000001 	tsteq	r0, r1
     dec:	7273752f 	rsbsvc	r7, r3, #197132288	; 0xbc00000
     df0:	6d72612f 	ldfvse	f6, [r2, #-188]!	; 0xffffff44
     df4:	6e6f6e2d 	cdpvs	14, 6, cr6, cr15, cr13, {1}
     df8:	61652d65 	cmnvs	r5, r5, ror #26
     dfc:	692f6962 	stmdbvs	pc!, {r1, r5, r6, r8, fp, sp, lr}	; <UNPREDICTABLE>
     e00:	756c636e 	strbvc	r6, [ip, #-878]!	; 0xfffffc92
     e04:	732f6564 			; <UNDEFINED> instruction: 0x732f6564
     e08:	2f007379 	svccs	0x00007379
     e0c:	2f727375 	svccs	0x00727375
     e10:	2f62696c 	svccs	0x0062696c
     e14:	2f636367 	svccs	0x00636367
     e18:	2d6d7261 	sfmcs	f7, 2, [sp, #-388]!	; 0xfffffe7c
     e1c:	656e6f6e 	strbvs	r6, [lr, #-3950]!	; 0xfffff092
     e20:	6261652d 	rsbvs	r6, r1, #188743680	; 0xb400000
     e24:	2e372f69 	cdpcs	15, 3, cr2, cr7, cr9, {3}
     e28:	2f312e33 	svccs	0x00312e33
     e2c:	6c636e69 	stclvs	14, cr6, [r3], #-420	; 0xfffffe5c
     e30:	00656475 	rsbeq	r6, r5, r5, ror r4
     e34:	6d6f682f 	stclvs	8, cr6, [pc, #-188]!	; d80 <_start-0x7280>
     e38:	6e652f65 	cdpvs	15, 6, cr2, cr5, cr5, {3}
     e3c:	72656c67 	rsbvc	r6, r5, #26368	; 0x6700
     e40:	616c632f 	cmnvs	ip, pc, lsr #6
     e44:	632f7373 			; <UNDEFINED> instruction: 0x632f7373
     e48:	30343173 	eorscc	r3, r4, r3, ror r1
     e4c:	30322d65 	eorscc	r2, r2, r5, ror #26
     e50:	2f6e6977 	svccs	0x006e6977
     e54:	7062696c 	rsbvc	r6, r2, ip, ror #18
     e58:	682f0069 	stmdavs	pc!, {r0, r3, r5, r6}	; <UNPREDICTABLE>
     e5c:	2f656d6f 	svccs	0x00656d6f
     e60:	6c676e65 	stclvs	14, cr6, [r7], #-404	; 0xfffffe6c
     e64:	632f7265 			; <UNDEFINED> instruction: 0x632f7265
     e68:	7373616c 	cmnvc	r3, #108, 2
     e6c:	3173632f 	cmncc	r3, pc, lsr #6
     e70:	2d653034 	stclcs	0, cr3, [r5, #-208]!	; 0xffffff30
     e74:	69773032 	ldmdbvs	r7!, {r1, r4, r5, ip, sp}^
     e78:	696c2f6e 	stmdbvs	ip!, {r1, r2, r3, r5, r6, r8, r9, sl, fp, sp}^
     e7c:	2f697062 	svccs	0x00697062
     e80:	34317363 	ldrtcc	r7, [r1], #-867	; 0xfffffc9d
     e84:	732d6530 			; <UNDEFINED> instruction: 0x732d6530
     e88:	00006372 	andeq	r6, r0, r2, ror r3
     e8c:	6f697067 	svcvs	0x00697067
     e90:	0000632e 	andeq	r6, r0, lr, lsr #6
     e94:	6f6c0000 	svcvs	0x006c0000
     e98:	682e6b63 	stmdavs	lr!, {r0, r1, r5, r6, r8, r9, fp, sp, lr}
     e9c:	00000100 	andeq	r0, r0, r0, lsl #2
     ea0:	7079745f 	rsbsvc	r7, r9, pc, asr r4
     ea4:	682e7365 	stmdavs	lr!, {r0, r2, r5, r6, r8, r9, ip, sp, lr}
     ea8:	00000100 	andeq	r0, r0, r0, lsl #2
     eac:	64647473 	strbtvs	r7, [r4], #-1139	; 0xfffffb8d
     eb0:	682e6665 	stmdavs	lr!, {r0, r2, r5, r6, r9, sl, sp, lr}
     eb4:	00000200 	andeq	r0, r0, r0, lsl #4
     eb8:	6e656572 	mcrvs	5, 3, r6, cr5, cr2, {3}
     ebc:	00682e74 	rsbeq	r2, r8, r4, ror lr
     ec0:	72000001 	andvc	r0, r0, #1
     ec4:	682e6970 	stmdavs	lr!, {r4, r5, r6, r8, fp, sp, lr}
     ec8:	00000300 	andeq	r0, r0, r0, lsl #6
     ecc:	6f697067 	svcvs	0x00697067
     ed0:	0400682e 	streq	r6, [r0], #-2094	; 0xfffff7d2
     ed4:	00000000 	andeq	r0, r0, r0
     ed8:	94f40205 	ldrbtls	r0, [r4], #517	; 0x205
     edc:	27030000 	strcs	r0, [r3, -r0]
     ee0:	474c1301 	strbmi	r1, [ip, -r1, lsl #6]
     ee4:	4b68f44f 	blmi	1a3e028 <__bss_end__+0x1a34038>
     ee8:	2f4c674c 	svccs	0x004c674c
     eec:	4913314b 	ldmdbmi	r3, {r0, r1, r3, r6, r8, ip, sp}
     ef0:	134d8331 	movtne	r8, #54065	; 0xd331
     ef4:	4d833149 	stfmis	f3, [r3, #292]	; 0x124
     ef8:	2f314b2f 	svccs	0x00314b2f
     efc:	4f2b2f4d 	svcmi	0x002b2f4d
     f00:	2f324913 	svccs	0x00324913
     f04:	02322a9f 	eorseq	r2, r2, #651264	; 0x9f000
     f08:	01010004 	tsteq	r1, r4
     f0c:	00000166 	andeq	r0, r0, r6, ror #2
     f10:	014b0002 	cmpeq	fp, r2
     f14:	01020000 	mrseq	r0, (UNDEF: 2)
     f18:	000d0efb 	strdeq	r0, [sp], -fp
     f1c:	01010101 	tsteq	r1, r1, lsl #2
     f20:	01000000 	mrseq	r0, (UNDEF: 0)
     f24:	63010000 	movwvs	r0, #4096	; 0x1000
     f28:	30343173 	eorscc	r3, r4, r3, ror r1
     f2c:	72732d65 	rsbsvc	r2, r3, #6464	; 0x1940
     f30:	752f0063 	strvc	r0, [pc, #-99]!	; ed5 <_start-0x712b>
     f34:	6c2f7273 	sfmvs	f7, 4, [pc], #-460	; d70 <_start-0x7290>
     f38:	672f6269 	strvs	r6, [pc, -r9, ror #4]!
     f3c:	612f6363 			; <UNDEFINED> instruction: 0x612f6363
     f40:	6e2d6d72 	mcrvs	13, 1, r6, cr13, cr2, {3}
     f44:	2d656e6f 	stclcs	14, cr6, [r5, #-444]!	; 0xfffffe44
     f48:	69626165 	stmdbvs	r2!, {r0, r2, r5, r6, r8, sp, lr}^
     f4c:	332e362f 			; <UNDEFINED> instruction: 0x332e362f
     f50:	692f312e 	stmdbvs	pc!, {r1, r2, r3, r5, r8, ip, sp}	; <UNPREDICTABLE>
     f54:	756c636e 	strbvc	r6, [ip, #-878]!	; 0xfffffc92
     f58:	2f006564 	svccs	0x00006564
     f5c:	2f727375 	svccs	0x00727375
     f60:	6c636e69 	stclvs	14, cr6, [r3], #-420	; 0xfffffe5c
     f64:	2f656475 	svccs	0x00656475
     f68:	6c77656e 	cfldr64vs	mvdx6, [r7], #-440	; 0xfffffe48
     f6c:	732f6269 			; <UNDEFINED> instruction: 0x732f6269
     f70:	2f007379 	svccs	0x00007379
     f74:	656d6f68 	strbvs	r6, [sp, #-3944]!	; 0xfffff098
     f78:	6573752f 	ldrbvs	r7, [r3, #-1327]!	; 0xfffffad1
     f7c:	65442f72 	strbvs	r2, [r4, #-3954]	; 0xfffff08e
     f80:	53432f76 	movtpl	r2, #16246	; 0x3f76
     f84:	45303431 	ldrmi	r3, [r0, #-1073]!	; 0xfffffbcf
     f88:	62696c2f 	rsbvs	r6, r9, #12032	; 0x2f00
     f8c:	2f006970 	svccs	0x00006970
     f90:	656d6f68 	strbvs	r6, [sp, #-3944]!	; 0xfffff098
     f94:	6573752f 	ldrbvs	r7, [r3, #-1327]!	; 0xfffffad1
     f98:	65442f72 	strbvs	r2, [r4, #-3954]	; 0xfffff08e
     f9c:	53432f76 	movtpl	r2, #16246	; 0x3f76
     fa0:	45303431 	ldrmi	r3, [r0, #-1073]!	; 0xfffffbcf
     fa4:	62696c2f 	rsbvs	r6, r9, #12032	; 0x2f00
     fa8:	632f6970 			; <UNDEFINED> instruction: 0x632f6970
     fac:	30343173 	eorscc	r3, r4, r3, ror r1
     fb0:	72732d65 	rsbsvc	r2, r3, #6464	; 0x1940
     fb4:	752f0063 	strvc	r0, [pc, #-99]!	; f59 <_start-0x70a7>
     fb8:	692f7273 	stmdbvs	pc!, {r0, r1, r4, r5, r6, r9, ip, sp, lr}	; <UNPREDICTABLE>
     fbc:	756c636e 	strbvc	r6, [ip, #-878]!	; 0xfffffc92
     fc0:	6e2f6564 	cfsh64vs	mvdx6, mvdx15, #52
     fc4:	696c7765 	stmdbvs	ip!, {r0, r2, r5, r6, r8, r9, sl, ip, sp, lr}^
     fc8:	63000062 	movwvs	r0, #98	; 0x62
     fcc:	72746e6f 	rsbsvc	r6, r4, #1776	; 0x6f0
     fd0:	622d6c6f 	eorvs	r6, sp, #28416	; 0x6f00
     fd4:	6b636f6c 	blvs	18dcd8c <__bss_end__+0x18d2d9c>
     fd8:	0100632e 	tsteq	r0, lr, lsr #6
     fdc:	74730000 	ldrbtvc	r0, [r3], #-0
     fe0:	746e6964 	strbtvc	r6, [lr], #-2404	; 0xfffff69c
     fe4:	6363672d 	cmnvs	r3, #11796480	; 0xb40000
     fe8:	0200682e 	andeq	r6, r0, #3014656	; 0x2e0000
     fec:	6f6c0000 	svcvs	0x006c0000
     ff0:	682e6b63 	stmdavs	lr!, {r0, r1, r5, r6, r8, r9, fp, sp, lr}
     ff4:	00000300 	andeq	r0, r0, r0, lsl #6
     ff8:	7079745f 	rsbsvc	r7, r9, pc, asr r4
     ffc:	682e7365 	stmdavs	lr!, {r0, r2, r5, r6, r8, r9, ip, sp, lr}
    1000:	00000300 	andeq	r0, r0, r0, lsl #6
    1004:	64647473 	strbtvs	r7, [r4], #-1139	; 0xfffffb8d
    1008:	682e6665 	stmdavs	lr!, {r0, r2, r5, r6, r9, sl, sp, lr}
    100c:	00000200 	andeq	r0, r0, r0, lsl #4
    1010:	6e656572 	mcrvs	5, 3, r6, cr5, cr2, {3}
    1014:	00682e74 	rsbeq	r2, r8, r4, ror lr
    1018:	72000003 	andvc	r0, r0, #3
    101c:	682e6970 	stmdavs	lr!, {r4, r5, r6, r8, fp, sp, lr}
    1020:	00000400 	andeq	r0, r0, r0, lsl #8
    1024:	752d7773 	strvc	r7, [sp, #-1907]!	; 0xfffff88d
    1028:	2e747261 	cdpcs	2, 7, cr7, cr4, cr1, {3}
    102c:	00010068 	andeq	r0, r1, r8, rrx
    1030:	63796300 	cmnvs	r9, #0, 6
    1034:	752d656c 	strvc	r6, [sp, #-1388]!	; 0xfffffa94
    1038:	2e6c6974 			; <UNDEFINED> instruction: 0x2e6c6974
    103c:	00050068 	andeq	r0, r5, r8, rrx
    1040:	6e6f6300 	cdpvs	3, 6, cr6, cr15, cr0, {0}
    1044:	6c6f7274 	sfmvs	f7, 2, [pc], #-464	; e7c <_start-0x7184>
    1048:	6f6c622d 	svcvs	0x006c622d
    104c:	682e6b63 	stmdavs	lr!, {r0, r1, r5, r6, r8, r9, fp, sp, lr}
    1050:	00000100 	andeq	r0, r0, r0, lsl #2
    1054:	69727473 	ldmdbvs	r2!, {r0, r1, r4, r5, r6, sl, ip, sp, lr}^
    1058:	682e676e 	stmdavs	lr!, {r1, r2, r3, r5, r6, r8, r9, sl, sp, lr}
    105c:	00000600 	andeq	r0, r0, r0, lsl #12
    1060:	02050000 	andeq	r0, r5, #0
    1064:	00009614 	andeq	r9, r0, r4, lsl r6
    1068:	68833016 	stmvs	r3, {r1, r2, r4, ip, sp}
    106c:	2fa0144c 	svccs	0x00a0144c
    1070:	0006022c 	andeq	r0, r6, ip, lsr #4
    1074:	00ca0101 	sbceq	r0, sl, r1, lsl #2
    1078:	00020000 	andeq	r0, r2, r0
    107c:	000000b2 	strheq	r0, [r0], -r2
    1080:	0efb0102 	cdpeq	1, 15, cr0, cr11, cr2, {0}
    1084:	0101000d 	tsteq	r1, sp
    1088:	00000101 	andeq	r0, r0, r1, lsl #2
    108c:	00000100 	andeq	r0, r0, r0, lsl #2
    1090:	62696c01 	rsbvs	r6, r9, #256	; 0x100
    1094:	752f0063 	strvc	r0, [pc, #-99]!	; 1039 <_start-0x6fc7>
    1098:	6c2f7273 	sfmvs	f7, 4, [pc], #-460	; ed4 <_start-0x712c>
    109c:	672f6269 	strvs	r6, [pc, -r9, ror #4]!
    10a0:	612f6363 			; <UNDEFINED> instruction: 0x612f6363
    10a4:	6e2d6d72 	mcrvs	13, 1, r6, cr13, cr2, {3}
    10a8:	2d656e6f 	stclcs	14, cr6, [r5, #-444]!	; 0xfffffe44
    10ac:	69626165 	stmdbvs	r2!, {r0, r2, r5, r6, r8, sp, lr}^
    10b0:	332e362f 			; <UNDEFINED> instruction: 0x332e362f
    10b4:	692f312e 	stmdbvs	pc!, {r1, r2, r3, r5, r8, ip, sp}	; <UNPREDICTABLE>
    10b8:	756c636e 	strbvc	r6, [ip, #-878]!	; 0xfffffc92
    10bc:	2f006564 	svccs	0x00006564
    10c0:	2f727375 	svccs	0x00727375
    10c4:	6c636e69 	stclvs	14, cr6, [r3], #-420	; 0xfffffe5c
    10c8:	2f656475 	svccs	0x00656475
    10cc:	6c77656e 	cfldr64vs	mvdx6, [r7], #-440	; 0xfffffe48
    10d0:	732f6269 			; <UNDEFINED> instruction: 0x732f6269
    10d4:	2f007379 	svccs	0x00007379
    10d8:	2f727375 	svccs	0x00727375
    10dc:	6c636e69 	stclvs	14, cr6, [r3], #-420	; 0xfffffe5c
    10e0:	2f656475 	svccs	0x00656475
    10e4:	6c77656e 	cfldr64vs	mvdx6, [r7], #-440	; 0xfffffe48
    10e8:	00006269 	andeq	r6, r0, r9, ror #4
    10ec:	736d656d 	cmnvc	sp, #457179136	; 0x1b400000
    10f0:	632e7465 			; <UNDEFINED> instruction: 0x632e7465
    10f4:	00000100 	andeq	r0, r0, r0, lsl #2
    10f8:	64647473 	strbtvs	r7, [r4], #-1139	; 0xfffffb8d
    10fc:	682e6665 	stmdavs	lr!, {r0, r2, r5, r6, r9, sl, sp, lr}
    1100:	00000200 	andeq	r0, r0, r0, lsl #4
    1104:	6b636f6c 	blvs	18dcebc <__bss_end__+0x18d2ecc>
    1108:	0300682e 	movweq	r6, #2094	; 0x82e
    110c:	745f0000 	ldrbvc	r0, [pc], #-0	; 1114 <_start-0x6eec>
    1110:	73657079 	cmnvc	r5, #121	; 0x79
    1114:	0300682e 	movweq	r6, #2094	; 0x82e
    1118:	65720000 	ldrbvs	r0, [r2, #-0]!
    111c:	2e746e65 	cdpcs	14, 7, cr6, cr4, cr5, {3}
    1120:	00030068 	andeq	r0, r3, r8, rrx
    1124:	72747300 	rsbsvc	r7, r4, #0, 6
    1128:	2e676e69 	cdpcs	14, 6, cr6, cr7, cr9, {3}
    112c:	00040068 	andeq	r0, r4, r8, rrx
    1130:	05000000 	streq	r0, [r0, #-0]
    1134:	00966402 	addseq	r6, r6, r2, lsl #8
    1138:	4c131400 	cfldrsmi	mvf1, [r3], {-0}
    113c:	024d492f 	subeq	r4, sp, #770048	; 0xbc000
    1140:	01010002 	tsteq	r1, r2

Disassembly of section .debug_str:

00000000 <.debug_str>:
       0:	6f73645f 	svcvs	0x0073645f
       4:	6e61685f 	mcrvs	8, 3, r6, cr1, cr15, {2}
       8:	00656c64 	rsbeq	r6, r5, r4, ror #24
       c:	4c525443 	cfldrdmi	mvd5, [r2], {67}	; 0x43
      10:	00435f34 	subeq	r5, r3, r4, lsr pc
      14:	454d4954 	strbmi	r4, [sp, #-2388]	; 0xfffff6ac
      18:	4d415453 	cfstrdmi	mvd5, [r1, #-332]	; 0xfffffeb4
      1c:	525f3050 	subspl	r3, pc, #80	; 0x50
      20:	47004745 	strmi	r4, [r0, -r5, asr #14]
      24:	4320554e 			; <UNDEFINED> instruction: 0x4320554e
      28:	36203939 			; <UNDEFINED> instruction: 0x36203939
      2c:	312e332e 			; <UNDEFINED> instruction: 0x312e332e
      30:	31303220 	teqcc	r0, r0, lsr #4
      34:	32363037 	eorscc	r3, r6, #55	; 0x37
      38:	6d2d2030 	stcvs	0, cr2, [sp, #-192]!	; 0xffffff40
      3c:	3d757063 	ldclcc	0, cr7, [r5, #-396]!	; 0xfffffe74
      40:	316d7261 	cmncc	sp, r1, ror #4
      44:	6a363731 	bvs	d8dd10 <__bss_end__+0xd83d20>
      48:	732d667a 			; <UNDEFINED> instruction: 0x732d667a
      4c:	746d2d20 	strbtvc	r2, [sp], #-3360	; 0xfffff2e0
      50:	3d656e75 	stclcc	14, cr6, [r5, #-468]!	; 0xfffffe2c
      54:	316d7261 	cmncc	sp, r1, ror #4
      58:	6a363731 	bvs	d8dd24 <__bss_end__+0xd83d34>
      5c:	732d667a 			; <UNDEFINED> instruction: 0x732d667a
      60:	67672d20 	strbvs	r2, [r7, -r0, lsr #26]!
      64:	2d206264 	sfmcs	f6, 4, [r0, #-400]!	; 0xfffffe70
      68:	2d20674f 	stccs	7, cr6, [r0, #-316]!	; 0xfffffec4
      6c:	3d647473 	cfstrdcc	mvd7, [r4, #-460]!	; 0xfffffe34
      70:	39756e67 	ldmdbcc	r5!, {r0, r1, r2, r5, r6, r9, sl, fp, sp, lr}^
      74:	662d2039 			; <UNDEFINED> instruction: 0x662d2039
      78:	65657266 	strbvs	r7, [r5, #-614]!	; 0xfffffd9a
      7c:	6e617473 	mcrvs	4, 3, r7, cr1, cr3, {3}
      80:	676e6964 	strbvs	r6, [lr, -r4, ror #18]!
      84:	61662d20 	cmnvs	r6, r0, lsr #26
      88:	6e67696c 	vnmulvs.f16	s13, s14, s25	; <UNPREDICTABLE>
      8c:	6e75662d 	cdpvs	6, 7, cr6, cr5, cr13, {1}
      90:	6f697463 	svcvs	0x00697463
      94:	343d736e 	ldrtcc	r7, [sp], #-878	; 0xfffffc92
      98:	444c5800 	strbmi	r5, [ip], #-2048	; 0xfffff800
      9c:	49425f41 	stmdbmi	r2, {r0, r6, r8, r9, sl, fp, ip, lr}^
      a0:	53414d54 	movtpl	r4, #7508	; 0x1d54
      a4:	735f004b 	cmpvc	pc, #75	; 0x4b
      a8:	00657a69 	rsbeq	r7, r5, r9, ror #20
      ac:	4f464946 	svcmi	0x00464946
      b0:	5254435f 	subspl	r4, r4, #2080374785	; 0x7c000001
      b4:	7300314c 	movwvc	r3, #332	; 0x14c
      b8:	5f657a69 	svcpl	0x00657a69
      bc:	49460074 	stmdbmi	r6, {r2, r4, r5, r6}^
      c0:	435f4f46 	cmpmi	pc, #280	; 0x118
      c4:	334c5254 	movtcc	r5, #49748	; 0xc254
      c8:	61725f00 	cmnvs	r2, r0, lsl #30
      cc:	3834646e 	ldmdacc	r4!, {r1, r2, r3, r5, r6, sl, sp, lr}
      d0:	46494600 	strbmi	r4, [r9], -r0, lsl #12
      d4:	54435f4f 	strbpl	r5, [r3], #-3919	; 0xfffff0b1
      d8:	00354c52 	eorseq	r4, r5, r2, asr ip
      dc:	4c525443 	cfldrdmi	mvd5, [r2], {67}	; 0x43
      e0:	4c585f39 	mrrcmi	15, 3, r5, r8, cr9
      e4:	6d655f00 	stclvs	15, cr5, [r5, #-0]
      e8:	65677265 	strbvs	r7, [r7, #-613]!	; 0xfffffd9b
      ec:	0079636e 	rsbseq	r6, r9, lr, ror #6
      f0:	366d736c 	strbtcc	r7, [sp], -ip, ror #6
      f4:	33337364 	teqcc	r3, #100, 6	; 0x90000001
      f8:	745f675f 	ldrbvc	r6, [pc], #-1887	; 100 <_start-0x7f00>
      fc:	5f676d00 	svcpl	0x00676d00
     100:	6c616373 	stclvs	3, cr6, [r1], #-460	; 0xfffffe34
     104:	6e006465 	cdpvs	4, 0, cr6, cr0, cr5, {3}
     108:	616d746f 	cmnvs	sp, pc, ror #8
     10c:	74006e69 	strvc	r6, [r0], #-3689	; 0xfffff197
     110:	00706d65 	rsbseq	r6, r0, r5, ror #26
     114:	366d736c 	strbtcc	r7, [sp], -ip, ror #6
     118:	33337364 	teqcc	r3, #100, 6	; 0x90000001
     11c:	0067385f 	rsbeq	r3, r7, pc, asr r8
     120:	7263775f 	rsbvc	r7, r3, #24903680	; 0x17c0000
     124:	626d6f74 	rsbvs	r6, sp, #116, 30	; 0x1d0
     128:	6174735f 	cmnvs	r4, pc, asr r3
     12c:	5f006574 	svcpl	0x00006574
     130:	72736377 	rsbsvc	r6, r3, #-603979775	; 0xdc000001
     134:	626d6f74 	rsbvs	r6, sp, #116, 30	; 0x1d0
     138:	74735f73 	ldrbtvc	r5, [r3], #-3955	; 0xfffff08d
     13c:	00657461 	rsbeq	r7, r5, r1, ror #8
     140:	676e6f6c 	strbvs	r6, [lr, -ip, ror #30]!
     144:	6e6f6c20 	cdpvs	12, 6, cr6, cr15, cr0, {1}
     148:	6e752067 	cdpvs	0, 7, cr2, cr5, cr7, {3}
     14c:	6e676973 			; <UNDEFINED> instruction: 0x6e676973
     150:	69206465 	stmdbvs	r0!, {r0, r2, r5, r6, sl, sp, lr}
     154:	6900746e 	stmdbvs	r0, {r1, r2, r3, r5, r6, sl, ip, sp, lr}
     158:	725f756d 	subsvc	r7, pc, #457179136	; 0x1b400000
     15c:	006e5f64 	rsbeq	r5, lr, r4, ror #30
     160:	66626c5f 			; <UNDEFINED> instruction: 0x66626c5f
     164:	657a6973 	ldrbvs	r6, [sl, #-2419]!	; 0xfffff68d
     168:	72617500 	rsbvc	r7, r1, #0, 10
     16c:	6e695f74 	mcrvs	15, 3, r5, cr9, cr4, {3}
     170:	69007469 	stmdbvs	r0, {r0, r3, r5, r6, sl, ip, sp, lr}
     174:	775f6332 	smmlarvc	pc, r2, r3, r6	; <UNPREDICTABLE>
     178:	65746972 	ldrbvs	r6, [r4, #-2418]!	; 0xfffff68e
     17c:	414e4500 	cmpmi	lr, r0, lsl #10
     180:	5f454c42 	svcpl	0x00454c42
     184:	00554442 	subseq	r4, r5, r2, asr #8
     188:	72626d5f 	rsbvc	r6, r2, #6080	; 0x17c0
     18c:	63776f74 	cmnvs	r7, #116, 30	; 0x1d0
     190:	6174735f 	cmnvs	r4, pc, asr r3
     194:	6d006574 	cfstr32vs	mvfx6, [r0, #-464]	; 0xfffffe30
     198:	61725f67 	cmnvs	r2, r7, ror #30
     19c:	6f640077 	svcvs	0x00640077
     1a0:	6363615f 	cmnvs	r3, #-1073741801	; 0xc0000017
     1a4:	745f6c65 	ldrbvc	r6, [pc], #-3173	; 1ac <_start-0x7e54>
     1a8:	00747365 	rsbseq	r7, r4, r5, ror #6
     1ac:	7463775f 	strbtvc	r7, [r3], #-1887	; 0xfffff8a1
     1b0:	5f626d6f 	svcpl	0x00626d6f
     1b4:	74617473 	strbtvc	r7, [r1], #-1139	; 0xfffffb8d
     1b8:	5f5f0065 	svcpl	0x005f0065
     1bc:	735f6d74 	cmpvc	pc, #116, 26	; 0x1d00
     1c0:	6c006365 	stcvs	3, cr6, [r0], {101}	; 0x65
     1c4:	20676e6f 	rsbcs	r6, r7, pc, ror #28
     1c8:	676e6f6c 	strbvs	r6, [lr, -ip, ror #30]!
     1cc:	746e6920 	strbtvc	r6, [lr], #-2336	; 0xfffff6e0
     1d0:	54554f00 	ldrbpl	r4, [r5], #-3840	; 0xfffff100
     1d4:	4d45545f 	cfstrdmi	mvd5, [r5, #-380]	; 0xfffffe84
     1d8:	00485f50 	subeq	r5, r8, r0, asr pc
     1dc:	4c525443 	cfldrdmi	mvd5, [r2], {67}	; 0x43
     1e0:	4c585f31 	mrrcmi	15, 3, r5, r8, cr1
     1e4:	54554f00 	ldrbpl	r4, [r5], #-3840	; 0xfffff100
     1e8:	4d45545f 	cfstrdmi	mvd5, [r5, #-380]	; 0xfffffe84
     1ec:	004c5f50 	subeq	r5, ip, r0, asr pc
     1f0:	7562755f 	strbvc	r7, [r2, #-1375]!	; 0xfffffaa1
     1f4:	444d0066 	strbmi	r0, [sp], #-102	; 0xffffff9a
     1f8:	46435f31 			; <UNDEFINED> instruction: 0x46435f31
     1fc:	625f0047 	subsvs	r0, pc, #71	; 0x47
     200:	00657361 	rsbeq	r7, r5, r1, ror #6
     204:	6d745f5f 	ldclvs	15, cr5, [r4, #-380]!	; 0xfffffe84
     208:	756f685f 	strbvc	r6, [pc, #-2143]!	; fffff9b1 <__bss_end__+0xffff59c1>
     20c:	5f5f0072 	svcpl	0x005f0072
     210:	5f006673 	svcpl	0x00006673
     214:	655f6e6f 	ldrbvs	r6, [pc, #-3695]	; fffff3ad <__bss_end__+0xffff53bd>
     218:	5f746978 	svcpl	0x00746978
     21c:	73677261 	cmnvc	r7, #268435462	; 0x10000006
     220:	6f635f00 	svcvs	0x00635f00
     224:	65696b6f 	strbvs	r6, [r9, #-2927]!	; 0xfffff491
     228:	735f5f00 	cmpvc	pc, #0, 30
     22c:	65756c67 	ldrbvs	r6, [r5, #-3175]!	; 0xfffff399
     230:	52544300 	subspl	r4, r4, #0, 6
     234:	585f384c 	ldmdapl	pc, {r2, r3, r6, fp, ip, sp}^	; <UNPREDICTABLE>
     238:	5453004c 	ldrbpl	r0, [r3], #-76	; 0xffffffb4
     23c:	545f5045 	ldrbpl	r5, [pc], #-69	; 244 <_start-0x7dbc>
     240:	53454d49 	movtpl	r4, #23881	; 0x5d49
     244:	504d4154 	subpl	r4, sp, r4, asr r1
     248:	5400485f 	strpl	r4, [r0], #-2143	; 0xfffff7a1
     24c:	545f5041 	ldrbpl	r5, [pc], #-65	; 254 <_start-0x7dac>
     250:	365f5348 	ldrbcc	r5, [pc], -r8, asr #6
     254:	665f0044 	ldrbvs	r0, [pc], -r4, asr #32
     258:	7367616c 	cmnvc	r7, #108, 2
     25c:	73695f00 	cmnvc	r9, #0, 30
     260:	6178635f 	cmnvs	r8, pc, asr r3
     264:	74735f00 	ldrbtvc	r5, [r3], #-3840	; 0xfffff100
     268:	006e6964 	rsbeq	r6, lr, r4, ror #18
     26c:	5f7a7978 	svcpl	0x007a7978
     270:	5f006b6d 	svcpl	0x00006b6d
     274:	736b6c62 	cmnvc	fp, #25088	; 0x6200
     278:	00657a69 	rsbeq	r7, r5, r9, ror #20
     27c:	5854554f 	ldmdapl	r4, {r0, r1, r2, r3, r6, r8, sl, ip, lr}^
     280:	475f4c5f 			; <UNDEFINED> instruction: 0x475f4c5f
     284:	6e697500 	cdpvs	5, 6, cr7, cr9, cr0, {0}
     288:	5f363174 	svcpl	0x00363174
     28c:	676d0074 			; <UNDEFINED> instruction: 0x676d0074
     290:	6163735f 	cmnvs	r3, pc, asr r3
     294:	4900656c 	stmdbmi	r0, {r2, r3, r5, r6, r8, sl, sp, lr}
     298:	5f31544e 	svcpl	0x0031544e
     29c:	4c525443 	cfldrdmi	mvd5, [r2], {67}	; 0x43
     2a0:	76635f00 	strbtvc	r5, [r3], -r0, lsl #30
     2a4:	66756274 			; <UNDEFINED> instruction: 0x66756274
     2a8:	666f5f00 	strbtvs	r5, [pc], -r0, lsl #30
     2ac:	74657366 	strbtvc	r7, [r5], #-870	; 0xfffffc9a
     2b0:	41455200 	mrsmi	r5, (UNDEF: 101)
     2b4:	505f5344 	subspl	r5, pc, r4, asr #6
     2b8:	505f5245 	subspl	r5, pc, r5, asr #4
     2bc:	004c4c4f 	subeq	r4, ip, pc, asr #24
     2c0:	73626d5f 	cmnvc	r2, #6080	; 0x17c0
     2c4:	776f7472 			; <UNDEFINED> instruction: 0x776f7472
     2c8:	735f7363 	cmpvc	pc, #-1946157055	; 0x8c000001
     2cc:	65746174 	ldrbvs	r6, [r4, #-372]!	; 0xfffffe8c
     2d0:	54554f00 	ldrbpl	r4, [r5], #-3840	; 0xfffff100
     2d4:	5f4c5f5a 	svcpl	0x004c5f5a
     2d8:	6d5f0047 	ldclvs	0, cr0, [pc, #-284]	; 1c4 <_start-0x7e3c>
     2dc:	656c7262 	strbvs	r7, [ip, #-610]!	; 0xfffffd9e
     2e0:	74735f6e 	ldrbtvc	r5, [r3], #-3950	; 0xfffff092
     2e4:	00657461 	rsbeq	r7, r5, r1, ror #8
     2e8:	616e665f 	cmnvs	lr, pc, asr r6
     2ec:	00736772 	rsbseq	r6, r3, r2, ror r7
     2f0:	5f504154 	svcpl	0x00504154
     2f4:	00435253 	subeq	r5, r3, r3, asr r2
     2f8:	366d736c 	strbtcc	r7, [sp], -ip, ror #6
     2fc:	33337364 	teqcc	r3, #100, 6	; 0x90000001
     300:	3830325f 	ldmdacc	r0!, {r0, r1, r2, r3, r4, r6, r9, ip, sp}
     304:	4f007a68 	svcmi	0x00007a68
     308:	5f585455 	svcpl	0x00585455
     30c:	4c585f48 	mrrcmi	15, 4, r5, r8, cr8
     310:	6e665f00 	cdpvs	15, 6, cr5, cr6, cr0, {0}
     314:	735f0073 	cmpvc	pc, #115	; 0x73
     318:	006e6769 	rsbeq	r6, lr, r9, ror #14
     31c:	6f6c665f 	svcvs	0x006c665f
     320:	745f6b63 	ldrbvc	r6, [pc], #-2915	; 328 <_start-0x7cd8>
     324:	74735f00 	ldrbtvc	r5, [r3], #-3840	; 0xfffff100
     328:	72726564 	rsbsvc	r6, r2, #100, 10	; 0x19000000
     32c:	69425f00 	stmdbvs	r2, {r8, r9, sl, fp, ip, lr}^
     330:	746e6967 	strbtvc	r6, [lr], #-2407	; 0xfffff699
     334:	61675f00 	cmnvs	r7, r0, lsl #30
     338:	5f616d6d 	svcpl	0x00616d6d
     33c:	6e676973 			; <UNDEFINED> instruction: 0x6e676973
     340:	006d6167 	rsbeq	r6, sp, r7, ror #2
     344:	65636361 	strbvs	r6, [r3, #-865]!	; 0xfffffc9f
     348:	00745f6c 	rsbseq	r5, r4, ip, ror #30
     34c:	366d736c 	strbtcc	r7, [sp], -ip, ror #6
     350:	33337364 	teqcc	r3, #100, 6	; 0x90000001
     354:	6832355f 	ldmdavs	r2!, {r0, r1, r2, r3, r4, r6, r8, sl, ip, sp}
     358:	725f007a 	subsvc	r0, pc, #122	; 0x7a
     35c:	6c757365 	ldclvs	3, cr7, [r5], #-404	; 0xfffffe6c
     360:	006b5f74 	rsbeq	r5, fp, r4, ror pc
     364:	5f697072 	svcpl	0x00697072
     368:	63747570 	cmnvs	r4, #112, 10	; 0x1c000000
     36c:	00726168 	rsbseq	r6, r2, r8, ror #2
     370:	6d745f5f 	ldclvs	15, cr5, [r4, #-380]!	; 0xfffffe84
     374:	63326900 	teqvs	r2, #0, 18
     378:	696e695f 	stmdbvs	lr!, {r0, r1, r2, r3, r4, r6, r8, fp, sp, lr}^
     37c:	5f5f0074 	svcpl	0x005f0074
     380:	62686377 	rsbvs	r6, r8, #-603979775	; 0xdc000001
     384:	69707200 	ldmdbvs	r0!, {r9, ip, sp, lr}^
     388:	7365725f 	cmnvc	r5, #-268435451	; 0xf0000005
     38c:	705f7465 	subsvc	r7, pc, r5, ror #8
     390:	00637475 	rsbeq	r7, r3, r5, ror r4
     394:	6474735f 	ldrbtvs	r7, [r4], #-863	; 0xfffffca1
     398:	0074756f 	rsbseq	r7, r4, pc, ror #10
     39c:	7476635f 	ldrbtvc	r6, [r6], #-863	; 0xfffffca1
     3a0:	006e656c 	rsbeq	r6, lr, ip, ror #10
     3a4:	54415453 	strbpl	r5, [r1], #-1107	; 0xfffffbad
     3a8:	525f5355 	subspl	r5, pc, #1409286145	; 0x54000001
     3ac:	5f004745 	svcpl	0x00004745
     3b0:	656c6966 	strbvs	r6, [ip, #-2406]!	; 0xfffff69a
     3b4:	54554f00 	ldrbpl	r4, [r5], #-3840	; 0xfffff100
     3b8:	5f4c5f59 	svcpl	0x004c5f59
     3bc:	46004c58 			; <UNDEFINED> instruction: 0x46004c58
     3c0:	5f4f4649 	svcpl	0x004f4649
     3c4:	54415453 	strbpl	r5, [r1], #-1107	; 0xfffffbad
     3c8:	00315355 	eorseq	r5, r1, r5, asr r3
     3cc:	4f464946 	svcmi	0x00464946
     3d0:	4154535f 	cmpmi	r4, pc, asr r3
     3d4:	32535554 	subscc	r5, r3, #84, 10	; 0x15000000
     3d8:	6d736c00 	ldclvs	12, cr6, [r3, #-0]
     3dc:	33736436 	cmncc	r3, #905969664	; 0x36000000
     3e0:	30315f33 	eorscc	r5, r1, r3, lsr pc
     3e4:	007a6834 	rsbseq	r6, sl, r4, lsr r8
     3e8:	4f464946 	svcmi	0x00464946
     3ec:	4154535f 	cmpmi	r4, pc, asr r3
     3f0:	34535554 	ldrbcc	r5, [r3], #-1364	; 0xfffffaac
     3f4:	52544300 	subspl	r4, r4, #0, 6
     3f8:	475f324c 	ldrbmi	r3, [pc, -ip, asr #4]
     3fc:	696e5f00 	stmdbvs	lr!, {r8, r9, sl, fp, ip, lr}^
     400:	0073626f 	rsbseq	r6, r3, pc, ror #4
     404:	65707865 	ldrbvs	r7, [r0, #-2149]!	; 0xfffff79b
     408:	64657463 	strbtvs	r7, [r5], #-1123	; 0xfffffb9d
     40c:	6d736c00 	ldclvs	12, cr6, [r3, #-0]
     410:	33736436 	cmncc	r3, #905969664	; 0x36000000
     414:	36315f33 	shasxcc	r5, r1, r3
     418:	68730067 	ldmdavs	r3!, {r0, r1, r2, r5, r6}^
     41c:	2074726f 	rsbscs	r7, r4, pc, ror #4
     420:	69736e75 	ldmdbvs	r3!, {r0, r2, r4, r5, r6, r9, sl, fp, sp, lr}^
     424:	64656e67 	strbtvs	r6, [r5], #-3687	; 0xfffff199
     428:	746e6920 	strbtvc	r6, [lr], #-2336	; 0xfffff6e0
     42c:	74615f00 	strbtvc	r5, [r1], #-3840	; 0xfffff100
     430:	74697865 	strbtvc	r7, [r9], #-2149	; 0xfffff79b
     434:	735f0030 	cmpvc	pc, #48	; 0x30
     438:	616e6769 	cmnvs	lr, r9, ror #14
     43c:	75625f6c 	strbvc	r5, [r2, #-3948]!	; 0xfffff094
     440:	615f0066 	cmpvs	pc, r6, rrx
     444:	69746373 	ldmdbvs	r4!, {r0, r1, r4, r5, r6, r8, r9, sp, lr}^
     448:	625f656d 	subsvs	r6, pc, #457179136	; 0x1b400000
     44c:	64006675 	strvs	r6, [r0], #-1653	; 0xfffff98b
     450:	625f7665 	subsvs	r7, pc, #105906176	; 0x6500000
     454:	69727261 	ldmdbvs	r2!, {r0, r5, r6, r9, ip, sp, lr}^
     458:	6c007265 	sfmvs	f7, 4, [r0], {101}	; 0x65
     45c:	6c616765 	stclvs	7, cr6, [r1], #-404	; 0xfffffe6c
     460:	5f00475f 	svcpl	0x0000475f
     464:	75736572 	ldrbvc	r6, [r3, #-1394]!	; 0xfffffa8e
     468:	5f00746c 	svcpl	0x0000746c
     46c:	6863775f 	stmdavs	r3!, {r0, r1, r2, r3, r4, r6, r8, r9, sl, ip, sp, lr}^
     470:	465f5f00 	ldrbmi	r5, [pc], -r0, lsl #30
     474:	54434e55 	strbpl	r4, [r3], #-3669	; 0xfffff1ab
     478:	5f4e4f49 	svcpl	0x004e4f49
     47c:	6977005f 	ldmdbvs	r7!, {r0, r1, r2, r3, r4, r6}^
     480:	745f746e 	ldrbvc	r7, [pc], #-1134	; 488 <_start-0x7b78>
     484:	46494600 	strbmi	r4, [r9], -r0, lsl #12
     488:	54435f4f 	strbpl	r5, [r3], #-3919	; 0xfffff0b1
     48c:	00324c52 	eorseq	r4, r2, r2, asr ip
     490:	366d736c 	strbtcc	r7, [sp], -ip, ror #6
     494:	33337364 	teqcc	r3, #100, 6	; 0x90000001
     498:	3333385f 	teqcc	r3, #6225920	; 0x5f0000
     49c:	5f007a68 	svcpl	0x00007a68
     4a0:	67616c66 	strbvs	r6, [r1, -r6, ror #24]!
     4a4:	64003273 	strvs	r3, [r0], #-627	; 0xfffffd8d
     4a8:	615f7665 	cmpvs	pc, r5, ror #12
     4ac:	00726464 	rsbseq	r6, r2, r4, ror #8
     4b0:	6167656c 	cmnvs	r7, ip, ror #10
     4b4:	5f675f6c 	svcpl	0x00675f6c
     4b8:	73746962 	cmnvc	r4, #1605632	; 0x188000
     4bc:	63636100 	cmnvs	r3, #0, 2
     4c0:	735f6c65 	cmpvc	pc, #25856	; 0x6500
     4c4:	656c6163 	strbvs	r6, [ip, #-355]!	; 0xfffffe9d
     4c8:	52544300 	subspl	r4, r4, #0, 6
     4cc:	475f374c 	ldrbmi	r3, [pc, -ip, asr #14]
     4d0:	745f5f00 	ldrbvc	r5, [pc], #-3840	; 4d8 <_start-0x7b28>
     4d4:	65795f6d 	ldrbvs	r5, [r9, #-3949]!	; 0xfffff093
     4d8:	72007261 	andvc	r7, r0, #268435462	; 0x10000006
     4dc:	64416765 	strbvs	r6, [r1], #-1893	; 0xfffff89b
     4e0:	54007264 	strpl	r7, [r0], #-612	; 0xfffffd9c
     4e4:	435f5041 	cmpmi	pc, #65	; 0x41
     4e8:	6c004746 	stcvs	7, cr4, [r0], {70}	; 0x46
     4ec:	64366d73 	ldrtvs	r6, [r6], #-3443	; 0xfffff28d
     4f0:	5f333373 	svcpl	0x00333373
     4f4:	745f7a68 	ldrbvc	r7, [pc], #-2664	; 4fc <_start-0x7b04>
     4f8:	6d6e5f00 	stclvs	15, cr5, [lr, #-0]
     4fc:	6f6c6c61 	svcvs	0x006c6c61
     500:	736c0063 	cmnvc	ip, #99	; 0x63
     504:	7364366d 	cmnvc	r4, #114294784	; 0x6d00000
     508:	325f3333 	subscc	r3, pc, #-872415232	; 0xcc000000
     50c:	69730067 	ldmdbvs	r3!, {r0, r1, r2, r5, r6}^
     510:	7974657a 	ldmdbvc	r4!, {r1, r3, r4, r5, r6, r8, sl, sp, lr}^
     514:	74006570 	strvc	r6, [r0], #-1392	; 0xfffffa90
     518:	5f747365 	svcpl	0x00747365
     51c:	6900676d 	stmdbvs	r0, {r0, r2, r3, r5, r6, r8, r9, sl, sp, lr}
     520:	725f756d 	subsvc	r7, pc, #457179136	; 0x1b400000
     524:	682f0064 	stmdavs	pc!, {r2, r5, r6}	; <UNPREDICTABLE>
     528:	2f656d6f 	svccs	0x00656d6f
     52c:	72657375 	rsbvc	r7, r5, #-738197503	; 0xd4000001
     530:	7665442f 	strbtvc	r4, [r5], -pc, lsr #8
     534:	3253432f 	subscc	r4, r3, #-1140850688	; 0xbc000000
     538:	2f583034 	svccs	0x00583034
     53c:	7362616c 	cmnvc	r2, #108, 2
     540:	692d382f 	pushvs	{r0, r1, r2, r3, r5, fp, ip, sp}
     544:	612d6332 			; <UNDEFINED> instruction: 0x612d6332
     548:	6c656363 	stclvs	3, cr6, [r5], #-396	; 0xfffffe74
     54c:	646f632f 	strbtvs	r6, [pc], #-815	; 554 <_start-0x7aac>
     550:	6e5f0065 	cdpvs	0, 5, cr0, cr15, cr5, {3}
     554:	66747865 	ldrbtvs	r7, [r4], -r5, ror #16
     558:	45524600 	ldrbmi	r4, [r2, #-1536]	; 0xfffffa00
     55c:	41465f45 	cmpmi	r6, r5, asr #30
     560:	5f004c4c 	svcpl	0x00004c4c
     564:	5f6d745f 	svcpl	0x006d745f
     568:	006e6f6d 	rsbeq	r6, lr, sp, ror #30
     56c:	50455453 	subpl	r5, r5, r3, asr r4
     570:	4d49545f 	cfstrdmi	mvd5, [r9, #-380]	; 0xfffffe84
     574:	41545345 	cmpmi	r4, r5, asr #6
     578:	4c5f504d 	mrrcmi	0, 4, r5, pc, cr13	; <UNPREDICTABLE>
     57c:	74615f00 	strbtvc	r5, [r1], #-3840	; 0xfffff100
     580:	74697865 	strbtvc	r7, [r9], #-2149	; 0xfffff79b
     584:	6d736c00 	ldclvs	12, cr6, [r3, #-0]
     588:	33736436 	cmncc	r3, #905969664	; 0x36000000
     58c:	33315f33 	teqcc	r1, #51, 30	; 0xcc
     590:	5f007a68 	svcpl	0x00007a68
     594:	6964735f 	stmdbvs	r4!, {r0, r1, r2, r3, r4, r6, r8, r9, ip, sp, lr}^
     598:	696e6964 	stmdbvs	lr!, {r2, r5, r6, r8, fp, sp, lr}^
     59c:	6f5f0074 	svcvs	0x005f0074
     5a0:	745f6666 	ldrbvc	r6, [pc], #-1638	; 5a8 <_start-0x7a58>
     5a4:	6d736c00 	ldclvs	12, cr6, [r3, #-0]
     5a8:	33736436 	cmncc	r3, #905969664	; 0x36000000
     5ac:	666f5f33 	uqasxvs	r5, pc, r3	; <UNPREDICTABLE>
     5b0:	736c0066 	cmnvc	ip, #102	; 0x66
     5b4:	7364366d 	cmnvc	r4, #114294784	; 0x6d00000
     5b8:	345f3333 	ldrbcc	r3, [pc], #-819	; 5c0 <_start-0x7a40>
     5bc:	6d690067 	stclvs	0, cr0, [r9, #-412]!	; 0xfffffe64
     5c0:	79785f75 	ldmdbvc	r8!, {r0, r2, r4, r5, r6, r8, r9, sl, fp, ip, lr}^
     5c4:	00745f7a 	rsbseq	r5, r4, sl, ror pc
     5c8:	6572665f 	ldrbvs	r6, [r2, #-1631]!	; 0xfffff9a1
     5cc:	73696c65 	cmnvc	r9, #25856	; 0x6500
     5d0:	736c0074 	cmnvc	ip, #116	; 0x74
     5d4:	7364366d 	cmnvc	r4, #114294784	; 0x6d00000
     5d8:	365f3333 			; <UNDEFINED> instruction: 0x365f3333
     5dc:	68303636 	ldmdavs	r0!, {r1, r2, r4, r5, r9, sl, ip, sp}
     5e0:	4c5f007a 	mrrcmi	0, 7, r0, pc, cr10	; <UNPREDICTABLE>
     5e4:	5f4b434f 	svcpl	0x004b434f
     5e8:	55434552 	strbpl	r4, [r3, #-1362]	; 0xfffffaae
     5ec:	56495352 			; <UNDEFINED> instruction: 0x56495352
     5f0:	00545f45 	subseq	r5, r4, r5, asr #30
     5f4:	65636361 	strbvs	r6, [r3, #-865]!	; 0xfffffc9f
     5f8:	6e695f6c 	cdpvs	15, 6, cr5, cr9, cr12, {3}
     5fc:	4f007469 	svcmi	0x00007469
     600:	5f595455 	svcpl	0x00595455
     604:	00475f4c 	subeq	r5, r7, ip, asr #30
     608:	50455453 	subpl	r5, r5, r3, asr r4
     60c:	554f435f 	strbpl	r4, [pc, #-863]	; 2b5 <_start-0x7d4b>
     610:	5245544e 	subpl	r5, r5, #1308622848	; 0x4e000000
     614:	6400485f 	strvs	r4, [r0], #-2143	; 0xfffff7a1
     618:	64697669 	strbtvs	r7, [r9], #-1641	; 0xfffff997
     61c:	6e750065 	cdpvs	0, 7, cr0, cr5, cr5, {3}
     620:	6e676973 			; <UNDEFINED> instruction: 0x6e676973
     624:	63206465 			; <UNDEFINED> instruction: 0x63206465
     628:	00726168 	rsbseq	r6, r2, r8, ror #2
     62c:	50455453 	subpl	r5, r5, r3, asr r4
     630:	554f435f 	strbpl	r4, [pc, #-863]	; 2d9 <_start-0x7d27>
     634:	5245544e 	subpl	r5, r5, #1308622848	; 0x4e000000
     638:	43004c5f 	movwmi	r4, #3167	; 0xc5f
     63c:	364c5254 			; <UNDEFINED> instruction: 0x364c5254
     640:	6100475f 	tstvs	r0, pc, asr r7
     644:	6c656363 	stclvs	3, cr6, [r5], #-396	; 0xfffffe74
     648:	7361685f 	cmnvc	r1, #6225920	; 0x5f0000
     64c:	7461645f 	strbtvc	r6, [r1], #-1119	; 0xfffffba1
     650:	55460061 	strbpl	r0, [r6, #-97]	; 0xffffff9f
     654:	435f434e 	cmpmi	pc, #939524097	; 0x38000001
     658:	415f4746 	cmpmi	pc, r6, asr #14
     65c:	53454343 	movtpl	r4, #21315	; 0x5343
     660:	685f0053 	ldmdavs	pc, {r0, r1, r4, r6}^	; <UNPREDICTABLE>
     664:	7272655f 	rsbsvc	r6, r2, #398458880	; 0x17c00000
     668:	73006f6e 	movwvc	r6, #3950	; 0xf6e
     66c:	74726f68 	ldrbtvc	r6, [r2], #-3944	; 0xfffff098
     670:	746e6920 	strbtvc	r6, [lr], #-2336	; 0xfffff6e0
     674:	745f5f00 	ldrbvc	r5, [pc], #-3840	; 67c <_start-0x7984>
     678:	64795f6d 	ldrbtvs	r5, [r9], #-3949	; 0xfffff093
     67c:	5f007961 	svcpl	0x00007961
     680:	7562735f 	strbvc	r7, [r2, #-863]!	; 0xfffffca1
     684:	6c630066 	stclvs	0, cr0, [r3], #-408	; 0xfffffe68
     688:	5f6e6165 	svcpl	0x006e6165
     68c:	6f626572 	svcvs	0x00626572
     690:	5f00746f 	svcpl	0x0000746f
     694:	73626f69 	cmnvc	r2, #420	; 0x1a4
     698:	465f5f00 	ldrbmi	r5, [pc], -r0, lsl #30
     69c:	00454c49 	subeq	r4, r5, r9, asr #24
     6a0:	73626d5f 	cmnvc	r2, #6080	; 0x17c0
     6a4:	65746174 	ldrbvs	r6, [r4, #-372]!	; 0xfffffe8c
     6a8:	5f00745f 	svcpl	0x0000745f
     6ac:	4946735f 	stmdbmi	r6, {r0, r1, r2, r3, r4, r6, r8, r9, ip, sp, lr}^
     6b0:	4500454c 	strmi	r4, [r0, #-1356]	; 0xfffffab4
     6b4:	4c42414e 	stfmie	f4, [r2], {78}	; 0x4e
     6b8:	4c415f45 	mcrrmi	15, 4, r5, r1, cr5
     6bc:	58415f4c 	stmdapl	r1, {r2, r3, r6, r8, r9, sl, fp, ip, lr}^
     6c0:	5f005345 	svcpl	0x00005345
     6c4:	7473626d 	ldrbtvc	r6, [r3], #-621	; 0xfffffd93
     6c8:	00657461 	rsbeq	r7, r5, r1, ror #8
     6cc:	6e61725f 	mcrvs	2, 3, r7, cr1, cr15, {2}
     6d0:	656e5f64 	strbvs	r5, [lr, #-3940]!	; 0xfffff09c
     6d4:	4f007478 	svcmi	0x00007478
     6d8:	5f595455 	svcpl	0x00595455
     6dc:	4c585f48 	mrrcmi	15, 4, r5, r8, cr8
     6e0:	4b415700 	blmi	10562e8 <__bss_end__+0x104c2f8>
     6e4:	50555f45 	subspl	r5, r5, r5, asr #30
     6e8:	5255445f 	subspl	r4, r5, #1593835520	; 0x5f000000
     6ec:	626d5f00 	rsbvs	r5, sp, #0, 30
     6f0:	5f6e656c 	svcpl	0x006e656c
     6f4:	74617473 	strbtvc	r7, [r1], #-1139	; 0xfffffb8d
     6f8:	695f0065 	ldmdbvs	pc, {r0, r2, r5, r6}^	; <UNPREDICTABLE>
     6fc:	5f00636e 	svcpl	0x0000636e
     700:	00646e69 	rsbeq	r6, r4, r9, ror #28
     704:	7275635f 	rsbsvc	r6, r5, #2080374785	; 0x7c000001
     708:	746e6572 	strbtvc	r6, [lr], #-1394	; 0xfffffa8e
     70c:	636f6c5f 	cmnvs	pc, #24320	; 0x5f00
     710:	00656c61 	rsbeq	r6, r5, r1, ror #24
     714:	6c635f5f 	stclvs	15, cr5, [r3], #-380	; 0xfffffe84
     718:	756e6165 	strbvc	r6, [lr, #-357]!	; 0xfffffe9b
     71c:	6d5f0070 	ldclvs	0, cr0, [pc, #-448]	; 564 <_start-0x7a9c>
     720:	64777861 	ldrbtvs	r7, [r7], #-2145	; 0xfffff79f
     724:	725f0073 	subsvc	r0, pc, #115	; 0x73
     728:	746e6565 	strbtvc	r6, [lr], #-1381	; 0xfffffa9b
     72c:	54554f00 	ldrbpl	r4, [r5], #-3840	; 0xfffff100
     730:	5f485f58 	svcpl	0x00485f58
     734:	735f0047 	cmpvc	pc, #71	; 0x47
     738:	00646565 	rsbeq	r6, r4, r5, ror #10
     73c:	616c6564 	cmnvs	ip, r4, ror #10
     740:	736d5f79 	cmnvc	sp, #484	; 0x1e4
     744:	635f5f00 	cmpvs	pc, #0, 30
     748:	746e756f 	strbtvc	r7, [lr], #-1391	; 0xfffffa91
     74c:	6e697500 	cdpvs	5, 6, cr7, cr9, cr0, {0}
     750:	5f323374 	svcpl	0x00323374
     754:	735f0074 	cmpvc	pc, #116	; 0x74
     758:	006b6565 	rsbeq	r6, fp, r5, ror #10
     75c:	5f4c4156 	svcpl	0x004c4156
     760:	5f4f4857 	svcpl	0x004f4857
     764:	495f4d41 	ldmdbmi	pc, {r0, r6, r8, sl, fp, lr}^	; <UNPREDICTABLE>
     768:	70665f00 	rsbvc	r5, r6, r0, lsl #30
     76c:	745f736f 	ldrbvc	r7, [pc], #-879	; 774 <_start-0x788c>
     770:	49524f00 	ldmdbmi	r2, {r8, r9, sl, fp, lr}^
     774:	5f544e45 	svcpl	0x00544e45
     778:	5f474643 	svcpl	0x00474643
     77c:	6d690047 	stclvs	0, cr0, [r9, #-284]!	; 0xfffffee4
     780:	72775f75 	rsbsvc	r5, r7, #468	; 0x1d4
     784:	4b415700 	blmi	105638c <__bss_end__+0x104c39c>
     788:	50555f45 	subspl	r5, r5, r5, asr #30
     78c:	4352535f 	cmpmi	r2, #2080374785	; 0x7c000001
     790:	745f5f00 	ldrbvc	r5, [pc], #-3840	; 798 <_start-0x7868>
     794:	696d5f6d 	stmdbvs	sp!, {r0, r2, r3, r5, r6, r8, r9, sl, fp, ip, lr}^
     798:	736c006e 	cmnvc	ip, #110	; 0x6e
     79c:	7364366d 	cmnvc	r4, #114294784	; 0x6d00000
     7a0:	345f3333 	ldrbcc	r3, [pc], #-819	; 7a8 <_start-0x7858>
     7a4:	7a683631 	bvc	1a0e070 <__bss_end__+0x1a04080>
     7a8:	54554f00 	ldrbpl	r4, [r5], #-3840	; 0xfffff100
     7ac:	5f4c5f5a 	svcpl	0x004c5f5a
     7b0:	5f004c58 	svcpl	0x00004c58
     7b4:	79746e66 	ldmdbvc	r4!, {r1, r2, r5, r6, r9, sl, fp, sp, lr}^
     7b8:	00736570 	rsbseq	r6, r3, r0, ror r5
     7bc:	4f464946 	svcmi	0x00464946
     7c0:	4154535f 	cmpmi	r4, pc, asr r3
     7c4:	33535554 	cmpcc	r3, #84, 10	; 0x15000000
     7c8:	6d736c00 	ldclvs	12, cr6, [r3, #-0]
     7cc:	33736436 	cmncc	r3, #905969664	; 0x36000000
     7d0:	33335f33 	teqcc	r3, #51, 30	; 0xcc
     7d4:	7a683033 	bvc	1a0c8a8 <__bss_end__+0x1a028b8>
     7d8:	756d5f00 	strbvc	r5, [sp, #-3840]!	; 0xfffff100
     7dc:	5f00746c 	svcpl	0x0000746c
     7e0:	74727473 	ldrbtvc	r7, [r2], #-1139	; 0xfffffb8d
     7e4:	6c5f6b6f 	mrrcvs	11, 6, r6, pc, cr15	; <UNPREDICTABLE>
     7e8:	00747361 	rsbseq	r7, r4, r1, ror #6
     7ec:	61765f5f 	cmnvs	r6, pc, asr pc
     7f0:	0065756c 	rsbeq	r7, r5, ip, ror #10
     7f4:	5a54554f 	bpl	1515d38 <__bss_end__+0x150bd48>
     7f8:	585f485f 	ldmdapl	pc, {r0, r1, r2, r3, r4, r6, fp, lr}^	; <UNPREDICTABLE>
     7fc:	6361004c 	cmnvs	r1, #76	; 0x4c
     800:	2e6c6563 	cdpcs	5, 6, cr6, cr12, cr3, {3}
     804:	54430063 	strbpl	r0, [r3], #-99	; 0xffffff9d
     808:	5f354c52 	svcpl	0x00354c52
     80c:	554f0043 	strbpl	r0, [pc, #-67]	; 7d1 <_start-0x782f>
     810:	4c5f5854 	mrrcmi	8, 5, r5, pc, cr4	; <UNPREDICTABLE>
     814:	004c585f 	subeq	r5, ip, pc, asr r8
     818:	6464615f 	strbtvs	r6, [r4], #-351	; 0xfffffea1
     81c:	52544300 	subspl	r4, r4, #0, 6
     820:	5f30314c 	svcpl	0x0030314c
     824:	5f5f0043 	svcpl	0x005f0043
     828:	6e6f4c55 	mcrvs	12, 3, r4, cr15, cr5, {2}
     82c:	675f0067 	ldrbvs	r0, [pc, -r7, rrx]
     830:	61647465 	cmnvs	r4, r5, ror #8
     834:	655f6574 	ldrbvs	r6, [pc, #-1396]	; 2c8 <_start-0x7d38>
     838:	6c007272 	sfmvs	f7, 4, [r0], {114}	; 0x72
     83c:	64366d73 	ldrtvs	r6, [r6], #-3443	; 0xfffff28d
     840:	5f333373 	svcpl	0x00333373
     844:	61666564 	cmnvs	r6, r4, ror #10
     848:	5f746c75 	svcpl	0x00746c75
     84c:	72646461 	rsbvc	r6, r4, #1627389952	; 0x61000000
     850:	46494600 	strbmi	r4, [r9], -r0, lsl #12
     854:	54435f4f 	strbpl	r5, [r3], #-3919	; 0xfffff0b1
     858:	00344c52 	eorseq	r4, r4, r2, asr ip
     85c:	6f6c675f 	svcvs	0x006c675f
     860:	5f6c6162 	svcpl	0x006c6162
     864:	75706d69 	ldrbvc	r6, [r0, #-3433]!	; 0xfffff297
     868:	705f6572 	subsvc	r6, pc, r2, ror r5	; <UNPREDICTABLE>
     86c:	5f007274 	svcpl	0x00007274
     870:	72727563 	rsbsvc	r7, r2, #415236096	; 0x18c00000
     874:	5f746e65 	svcpl	0x00746e65
     878:	65746163 	ldrbvs	r6, [r4, #-355]!	; 0xfffffe9d
     87c:	79726f67 	ldmdbvc	r2!, {r0, r1, r2, r5, r6, r8, r9, sl, fp, sp, lr}^
     880:	4b415700 	blmi	1056488 <__bss_end__+0x104c498>
     884:	50555f45 	subspl	r5, r5, r5, asr #30
     888:	5348545f 	movtpl	r5, #33887	; 0x845f
     88c:	6d736c00 	ldclvs	12, cr6, [r3, #-0]
     890:	33736436 	cmncc	r3, #905969664	; 0x36000000
     894:	36315f33 	shasxcc	r5, r1, r3
     898:	7a683036 	bvc	1a0c978 <__bss_end__+0x1a02988>
     89c:	6e755f00 	cdpvs	15, 7, cr5, cr5, cr0, {0}
     8a0:	64657375 	strbtvs	r7, [r5], #-885	; 0xfffffc8b
     8a4:	6e61725f 	mcrvs	2, 3, r7, cr1, cr15, {2}
     8a8:	32690064 	rsbcc	r0, r9, #100	; 0x64
     8ac:	65725f63 	ldrbvs	r5, [r2, #-3939]!	; 0xfffff09d
     8b0:	61006461 	tstvs	r0, r1, ror #8
     8b4:	6c656363 	stclvs	3, cr6, [r5], #-396	; 0xfffffe74
     8b8:	0064725f 	rsbeq	r7, r4, pc, asr r2
     8bc:	65736162 	ldrbvs	r6, [r3, #-354]!	; 0xfffffe9e
     8c0:	6765725f 			; <UNDEFINED> instruction: 0x6765725f
     8c4:	64775f00 	ldrbtvs	r5, [r7], #-3840	; 0xfffff100
     8c8:	5f5f0073 	svcpl	0x005f0073
     8cc:	775f6d74 			; <UNDEFINED> instruction: 0x775f6d74
     8d0:	00796164 	rsbseq	r6, r9, r4, ror #2
     8d4:	756c675f 	strbvc	r6, [ip, #-1887]!	; 0xfffff8a1
     8d8:	55460065 	strbpl	r0, [r6, #-101]	; 0xffffff9b
     8dc:	535f434e 	cmppl	pc, #939524097	; 0x38000001
     8e0:	75004352 	strvc	r4, [r0, #-850]	; 0xfffffcae
     8e4:	38746e69 	ldmdacc	r4!, {r0, r3, r5, r6, r9, sl, fp, sp, lr}^
     8e8:	5f00745f 	svcpl	0x0000745f
     8ec:	6134366c 	teqvs	r4, ip, ror #12
     8f0:	6675625f 			; <UNDEFINED> instruction: 0x6675625f
     8f4:	69735f00 	ldmdbvs	r3!, {r8, r9, sl, fp, ip, lr}^
     8f8:	75665f67 	strbvc	r5, [r6, #-3943]!	; 0xfffff099
     8fc:	6c00636e 	stcvs	3, cr6, [r0], {110}	; 0x6e
     900:	64366d73 	ldrtvs	r6, [r6], #-3443	; 0xfffff28d
     904:	5f333373 	svcpl	0x00333373
     908:	7a683632 	bvc	1a0e1d8 <__bss_end__+0x1a041e8>
     90c:	32444d00 	subcc	r4, r4, #0, 26
     910:	4746435f 	smlsldmi	r4, r6, pc, r3	; <UNPREDICTABLE>
     914:	4d495400 	cfstrdmi	mvd5, [r9, #-0]
     918:	41545345 	cmpmi	r4, r5, asr #6
     91c:	5f32504d 	svcpl	0x0032504d
     920:	00474552 	subeq	r4, r7, r2, asr r5
     924:	75626e5f 	strbvc	r6, [r2, #-3679]!	; 0xfffff1a1
     928:	755f0066 	ldrbvc	r0, [pc, #-102]	; 8ca <_start-0x7736>
     92c:	6573756e 	ldrbvs	r7, [r3, #-1390]!	; 0xfffffa92
     930:	49540064 	ldmdbmi	r4, {r2, r5, r6}^
     934:	5453454d 	ldrbpl	r4, [r3], #-1357	; 0xfffffab3
     938:	31504d41 	cmpcc	r0, r1, asr #26
     93c:	4745525f 	smlsldmi	r5, r5, pc, r2	; <UNPREDICTABLE>
     940:	44364400 	ldrtmi	r4, [r6], #-1024	; 0xfffffc00
     944:	4352535f 	cmpmi	r2, #2080374785	; 0x7c000001
     948:	44524400 	ldrbmi	r4, [r2], #-1024	; 0xfffffc00
     94c:	414d5f59 	cmpmi	sp, r9, asr pc
     950:	5f004b53 	svcpl	0x00004b53
     954:	5f6d745f 	svcpl	0x006d745f
     958:	73647369 	cmnvc	r4, #-1543503871	; 0xa4000001
     95c:	6c5f0074 	mrrcvs	0, 7, r0, pc, cr4	; <UNPREDICTABLE>
     960:	6c61636f 	stclvs	3, cr6, [r1], #-444	; 0xfffffe44
     964:	656d6974 	strbvs	r6, [sp, #-2420]!	; 0xfffff68c
     968:	6675625f 			; <UNDEFINED> instruction: 0x6675625f
     96c:	6c635f00 	stclvs	15, cr5, [r3], #-0
     970:	0065736f 	rsbeq	r7, r5, pc, ror #6
     974:	3834725f 	ldmdacc	r4!, {r0, r1, r2, r3, r4, r6, r9, ip, sp, lr}
     978:	54554f00 	ldrbpl	r4, [r5], #-3840	; 0xfffff100
     97c:	5f485f59 	svcpl	0x00485f59
     980:	6d5f0047 	ldclvs	0, cr0, [pc, #-284]	; 86c <_start-0x7794>
     984:	776f7462 	strbvc	r7, [pc, -r2, ror #8]!
     988:	74735f63 	ldrbtvc	r5, [r3], #-3939	; 0xfffff09d
     98c:	00657461 	rsbeq	r7, r5, r1, ror #8
     990:	7335705f 	teqvc	r5, #95	; 0x5f
     994:	46494600 	strbmi	r4, [r9], -r0, lsl #12
     998:	41445f4f 	cmpmi	r4, pc, asr #30
     99c:	4f5f4154 	svcmi	0x005f4154
     9a0:	485f5455 	ldmdami	pc, {r0, r2, r4, r6, sl, ip, lr}^	; <UNPREDICTABLE>
     9a4:	544e4900 	strbpl	r4, [lr], #-2304	; 0xfffff700
     9a8:	5255445f 	subspl	r4, r5, #1593835520	; 0x5f000000
     9ac:	49460032 	stmdbmi	r6, {r1, r4, r5}^
     9b0:	445f4f46 	ldrbmi	r4, [pc], #-3910	; 9b8 <_start-0x7648>
     9b4:	5f415441 	svcpl	0x00415441
     9b8:	5f54554f 	svcpl	0x0054554f
     9bc:	554f004c 	strbpl	r0, [pc, #-76]	; 978 <_start-0x7688>
     9c0:	485f5a54 	ldmdami	pc, {r2, r4, r6, r9, fp, ip, lr}^	; <UNPREDICTABLE>
     9c4:	4900475f 	stmdbmi	r0, {r0, r1, r2, r3, r4, r6, r8, r9, sl, lr}
     9c8:	5f32544e 	svcpl	0x0032544e
     9cc:	4c525443 	cfldrdmi	mvd5, [r2], {67}	; 0x43
     9d0:	52544300 	subspl	r4, r4, #0, 6
     9d4:	435f334c 	cmpmi	pc, #76, 6	; 0x30000001
     9d8:	745f5f00 	ldrbvc	r5, [pc], #-3840	; 9e0 <_start-0x7620>
     9dc:	646d5f6d 	strbtvs	r5, [sp], #-3949	; 0xfffff093
     9e0:	52007961 	andpl	r7, r0, #1589248	; 0x184000
     9e4:	59444145 	stmdbpl	r4, {r0, r2, r6, r8, lr}^
     9e8:	5441445f 	strbpl	r4, [r1], #-1119	; 0xfffffba1
     9ec:	4e495f41 	cdpmi	15, 4, cr5, cr9, cr1, {2}
     9f0:	00524554 	subseq	r4, r2, r4, asr r5
     9f4:	746f7571 	strbtvc	r7, [pc], #-1393	; 9fc <_start-0x7604>
     9f8:	746e6569 	strbtvc	r6, [lr], #-1385	; 0xfffffa97
     9fc:	725f7300 	subsvc	r7, pc, #0, 6
     a00:	73696765 	cmnvc	r9, #26476544	; 0x1940000
     a04:	00726574 	rsbseq	r6, r2, r4, ror r5
     a08:	5f495052 	svcpl	0x00495052
     a0c:	00633269 	rsbeq	r3, r3, r9, ror #4
     a10:	656e6f64 	strbvs	r6, [lr, #-3940]!	; 0xfffff09c
     a14:	66696600 	strbtvs	r6, [r9], -r0, lsl #12
     a18:	5047006f 	subpl	r0, r7, pc, rrx
     a1c:	465f4f49 	ldrbmi	r4, [pc], -r9, asr #30
     a20:	5f434e55 	svcpl	0x00434e55
     a24:	55504e49 	ldrbpl	r4, [r0, #-3657]	; 0xfffff1b7
     a28:	32690054 	rsbcc	r0, r9, #84	; 0x54
     a2c:	73695f63 	cmnvc	r9, #396	; 0x18c
     a30:	696e695f 	stmdbvs	lr!, {r0, r1, r2, r3, r4, r6, r8, fp, sp, lr}^
     a34:	6c616974 			; <UNDEFINED> instruction: 0x6c616974
     a38:	64657a69 	strbtvs	r7, [r5], #-2665	; 0xfffff597
     a3c:	49504700 	ldmdbmi	r0, {r8, r9, sl, lr}^
     a40:	55465f4f 	strbpl	r5, [r6, #-3919]	; 0xfffff0b1
     a44:	415f434e 	cmpmi	pc, lr, asr #6
     a48:	0031544c 	eorseq	r5, r1, ip, asr #8
     a4c:	6e755f5f 	mrcvs	15, 3, r5, cr5, cr15, {2}
     a50:	64657375 	strbtvs	r7, [r5], #-885	; 0xfffffc8b
     a54:	6c630031 	stclvs	0, cr0, [r3], #-196	; 0xffffff3c
     a58:	5f6b636f 	svcpl	0x006b636f
     a5c:	65727473 	ldrbvs	r7, [r2, #-1139]!	; 0xfffffb8d
     a60:	5f686374 	svcpl	0x00686374
     a64:	656d6974 	strbvs	r6, [sp, #-2420]!	; 0xfffff68c
     a68:	0074756f 	rsbseq	r7, r4, pc, ror #10
     a6c:	6f697067 	svcvs	0x00697067
     a70:	7465735f 	strbtvc	r7, [r5], #-863	; 0xfffffca1
     a74:	6e75665f 	mrcvs	6, 3, r6, cr5, cr15, {2}
     a78:	6f697463 	svcvs	0x00697463
     a7c:	5f5f006e 	svcpl	0x005f006e
     a80:	73756e75 	cmnvc	r5, #1872	; 0x750
     a84:	00306465 	eorseq	r6, r0, r5, ror #8
     a88:	6e755f5f 	mrcvs	15, 3, r5, cr5, cr15, {2}
     a8c:	64657375 	strbtvs	r7, [r5], #-885	; 0xfffffc8b
     a90:	5f5f0032 	svcpl	0x005f0032
     a94:	73756e75 	cmnvc	r5, #1872	; 0x750
     a98:	00336465 	eorseq	r6, r3, r5, ror #8
     a9c:	66696873 			; <UNDEFINED> instruction: 0x66696873
     aa0:	32690074 	rsbcc	r0, r9, #116	; 0x74
     aa4:	00632e63 	rsbeq	r2, r3, r3, ror #28
     aa8:	64616572 	strbtvs	r6, [r1], #-1394	; 0xfffffa8e
     aac:	7200635f 	andvc	r6, r0, #2080374785	; 0x7c000001
     ab0:	5f646165 	svcpl	0x00646165
     ab4:	65720073 	ldrbvs	r0, [r2, #-115]!	; 0xffffff8d
     ab8:	705f6461 	subsvc	r6, pc, r1, ror #8
     abc:	696e6900 	stmdbvs	lr!, {r8, fp, sp, lr}^
     ac0:	6c616974 			; <UNDEFINED> instruction: 0x6c616974
     ac4:	64657a69 	strbtvs	r7, [r5], #-2665	; 0xfffff597
     ac8:	7300705f 	movwvc	r7, #95	; 0x5f
     acc:	615f7465 	cmpvs	pc, r5, ror #8
     ad0:	63006c6c 	movwvs	r6, #3180	; 0xc6c
     ad4:	6b636f6c 	blvs	18dc88c <__bss_end__+0x18d289c>
     ad8:	7669645f 			; <UNDEFINED> instruction: 0x7669645f
     adc:	73657200 	cmnvc	r5, #0, 4
     ae0:	735f7465 	cmpvc	pc, #1694498816	; 0x65000000
     ae4:	75746174 	ldrbvc	r6, [r4, #-372]!	; 0xfffffe8c
     ae8:	32690073 	rsbcc	r0, r9, #115	; 0x73
     aec:	6e695f63 	cdpvs	15, 6, cr5, cr9, cr3, {3}
     af0:	6f5f7469 	svcvs	0x005f7469
     af4:	0065636e 	rsbeq	r6, r5, lr, ror #6
     af8:	4f495047 	svcmi	0x00495047
     afc:	4e55465f 	mrcmi	6, 2, r4, cr5, cr15, {2}
     b00:	4c415f43 	mcrrmi	15, 4, r5, r1, cr3
     b04:	69003254 	stmdbvs	r0, {r2, r4, r6, r9, ip, sp}
     b08:	0064746e 	rsbeq	r7, r4, lr, ror #8
     b0c:	61656c63 	cmnvs	r5, r3, ror #24
     b10:	6e690072 	mcrvs	0, 3, r0, cr9, cr2, {3}
     b14:	69007274 	stmdbvs	r0, {r2, r4, r5, r6, r9, ip, sp, lr}
     b18:	0074746e 	rsbseq	r7, r4, lr, ror #8
     b1c:	63656863 	cmnvs	r5, #6488064	; 0x630000
     b20:	616c5f6b 	cmnvs	ip, fp, ror #30
     b24:	74756f79 	ldrbtvc	r6, [r5], #-3961	; 0xfffff087
     b28:	63326900 	teqvs	r2, #0, 18
     b2c:	6e006e65 	cdpvs	14, 0, cr6, cr0, cr5, {3}
     b30:	65747962 	ldrbvs	r7, [r4, #-2402]!	; 0xfffff69e
     b34:	6c640073 	stclvs	0, cr0, [r4], #-460	; 0xfffffe34
     b38:	63006e65 	movwvs	r6, #3685	; 0xe65
     b3c:	6b636f6c 	blvs	18dc8f4 <__bss_end__+0x18d2904>
     b40:	6c65645f 	cfstrdvs	mvd6, [r5], #-380	; 0xfffffe84
     b44:	63007961 	movwvs	r7, #2401	; 0x961
     b48:	72746e6f 	rsbsvc	r6, r4, #1776	; 0x6f0
     b4c:	70006c6f 	andvc	r6, r0, pc, ror #24
     b50:	32337475 	eorscc	r7, r3, #1962934272	; 0x75000000
     b54:	6f682f00 	svcvs	0x00682f00
     b58:	652f656d 	strvs	r6, [pc, #-1389]!	; 5f3 <_start-0x7a0d>
     b5c:	656c676e 	strbvs	r6, [ip, #-1902]!	; 0xfffff892
     b60:	6c632f72 	stclvs	15, cr2, [r3], #-456	; 0xfffffe38
     b64:	2f737361 	svccs	0x00737361
     b68:	34327363 	ldrtcc	r7, [r2], #-867	; 0xfffffc9d
     b6c:	2d786c30 	ldclcs	12, cr6, [r8, #-192]!	; 0xffffff40
     b70:	70733032 	rsbsvc	r3, r3, r2, lsr r0
     b74:	616c2f72 	smcvs	49906	; 0xc2f2
     b78:	382f7362 	stmdacc	pc!, {r1, r5, r6, r8, r9, ip, sp, lr}	; <UNPREDICTABLE>
     b7c:	6332692d 	teqvs	r2, #737280	; 0xb4000
     b80:	6363612d 	cmnvs	r3, #1073741835	; 0x4000000b
     b84:	632f6c65 			; <UNDEFINED> instruction: 0x632f6c65
     b88:	0065646f 	rsbeq	r6, r5, pc, ror #8
     b8c:	72656678 	rsbvc	r6, r5, #120, 12	; 0x7800000
     b90:	6174735f 	cmnvs	r4, pc, asr r3
     b94:	47007472 	smlsdxmi	r0, r2, r4, r7
     b98:	5f4f4950 	svcpl	0x004f4950
     b9c:	434e5546 	movtmi	r5, #58694	; 0xe546
     ba0:	54554f5f 	ldrbpl	r4, [r5], #-3935	; 0xfffff0a1
     ba4:	00545550 	subseq	r5, r4, r0, asr r5
     ba8:	33746567 	cmncc	r4, #432013312	; 0x19c00000
     bac:	66780032 			; <UNDEFINED> instruction: 0x66780032
     bb0:	655f7265 	ldrbvs	r7, [pc, #-613]	; 953 <_start-0x76ad>
     bb4:	6300646e 	movwvs	r6, #1134	; 0x46e
     bb8:	6b746b6c 	blvs	1d1b970 <__bss_end__+0x1d11980>
     bbc:	656c6300 	strbvs	r6, [ip, #-768]!	; 0xfffffd00
     bc0:	635f7261 	cmpvs	pc, #268435462	; 0x10000006
     bc4:	49504700 	ldmdbmi	r0, {r8, r9, sl, lr}^
     bc8:	55465f4f 	strbpl	r5, [r6, #-3919]	; 0xfffff0b1
     bcc:	415f434e 	cmpmi	pc, lr, asr #6
     bd0:	0030544c 	eorseq	r5, r0, ip, asr #8
     bd4:	4f495047 	svcmi	0x00495047
     bd8:	4e55465f 	mrcmi	6, 2, r4, cr5, cr15, {2}
     bdc:	4c415f43 	mcrrmi	15, 4, r5, r1, cr3
     be0:	47003354 	smlsdmi	r0, r4, r3, r3
     be4:	5f4f4950 	svcpl	0x004f4950
     be8:	434e5546 	movtmi	r5, #58694	; 0xe546
     bec:	544c415f 	strbpl	r4, [ip], #-351	; 0xfffffea1
     bf0:	50470034 	subpl	r0, r7, r4, lsr r0
     bf4:	465f4f49 	ldrbmi	r4, [pc], -r9, asr #30
     bf8:	5f434e55 	svcpl	0x00434e55
     bfc:	35544c41 	ldrbcc	r4, [r4, #-3137]	; 0xfffff3bf
     c00:	656c6300 	strbvs	r6, [ip, #-768]!	; 0xfffffd00
     c04:	735f7261 	cmpvc	pc, #268435462	; 0x10000006
     c08:	725f6300 	subsvc	r6, pc, #0, 6
     c0c:	73696765 	cmnvc	r9, #26476544	; 0x1940000
     c10:	00726574 	rsbseq	r6, r2, r4, ror r5
     c14:	61765f5f 	cmnvs	r6, pc, asr pc
     c18:	73696c5f 	cmnvc	r9, #24320	; 0x5f00
     c1c:	61760074 	cmnvs	r6, r4, ror r0
     c20:	6972705f 	ldmdbvs	r2!, {r0, r1, r2, r3, r4, r6, ip, sp, lr}^
     c24:	006b746e 	rsbeq	r7, fp, lr, ror #8
     c28:	6e675f5f 	mcrvs	15, 3, r5, cr7, cr15, {2}
     c2c:	765f6375 			; <UNDEFINED> instruction: 0x765f6375
     c30:	696c5f61 	stmdbvs	ip!, {r0, r5, r6, r8, r9, sl, fp, ip, lr}^
     c34:	47007473 	smlsdxmi	r0, r3, r4, r7
     c38:	4320554e 			; <UNDEFINED> instruction: 0x4320554e
     c3c:	36203939 			; <UNDEFINED> instruction: 0x36203939
     c40:	312e332e 			; <UNDEFINED> instruction: 0x312e332e
     c44:	31303220 	teqcc	r0, r0, lsr #4
     c48:	32363037 	eorscc	r3, r6, #55	; 0x37
     c4c:	6d2d2030 	stcvs	0, cr2, [sp, #-192]!	; 0xffffff40
     c50:	3d757063 	ldclcc	0, cr7, [r5, #-396]!	; 0xfffffe74
     c54:	316d7261 	cmncc	sp, r1, ror #4
     c58:	6a363731 	bvs	d8e924 <__bss_end__+0xd84934>
     c5c:	732d667a 			; <UNDEFINED> instruction: 0x732d667a
     c60:	746d2d20 	strbtvc	r2, [sp], #-3360	; 0xfffff2e0
     c64:	3d656e75 	stclcc	14, cr6, [r5, #-468]!	; 0xfffffe2c
     c68:	316d7261 	cmncc	sp, r1, ror #4
     c6c:	6a363731 	bvs	d8e938 <__bss_end__+0xd84948>
     c70:	732d667a 			; <UNDEFINED> instruction: 0x732d667a
     c74:	67672d20 	strbvs	r2, [r7, -r0, lsr #26]!
     c78:	2d206264 	sfmcs	f6, 4, [r0, #-400]!	; 0xfffffe70
     c7c:	2d20674f 	stccs	7, cr6, [r0, #-316]!	; 0xfffffec4
     c80:	3d647473 	cfstrdcc	mvd7, [r4, #-460]!	; 0xfffffe34
     c84:	39756e67 	ldmdbcc	r5!, {r0, r1, r2, r5, r6, r9, sl, fp, sp, lr}^
     c88:	662d2039 			; <UNDEFINED> instruction: 0x662d2039
     c8c:	65657266 	strbvs	r7, [r5, #-614]!	; 0xfffffd9a
     c90:	6e617473 	mcrvs	4, 3, r7, cr1, cr3, {3}
     c94:	676e6964 	strbvs	r6, [lr, -r4, ror #18]!
     c98:	615f5f00 	cmpvs	pc, r0, lsl #30
     c9c:	682f0070 	stmdavs	pc!, {r4, r5, r6}	; <UNPREDICTABLE>
     ca0:	2f656d6f 	svccs	0x00656d6f
     ca4:	72657375 	rsbvc	r7, r5, #-738197503	; 0xd4000001
     ca8:	7665442f 	strbtvc	r4, [r5], -pc, lsr #8
     cac:	3153432f 	cmpcc	r3, pc, lsr #6
     cb0:	2f453034 	svccs	0x00453034
     cb4:	7062696c 	rsbvc	r6, r2, ip, ror #18
     cb8:	696c0069 	stmdbvs	ip!, {r0, r3, r5, r6}^
     cbc:	702f6362 	eorvc	r6, pc, r2, ror #6
     cc0:	746e6972 	strbtvc	r6, [lr], #-2418	; 0xfffff68e
     cc4:	00632e6b 	rsbeq	r2, r3, fp, ror #28
     cc8:	6362696c 	cmnvs	r2, #108, 18	; 0x1b0000
     ccc:	2d61762f 	stclcs	6, cr7, [r1, #-188]!	; 0xffffff44
     cd0:	6e697270 	mcrvs	2, 3, r7, cr9, cr0, {3}
     cd4:	632e6b74 			; <UNDEFINED> instruction: 0x632e6b74
     cd8:	69707200 	ldmdbvs	r0!, {r9, ip, sp, lr}^
     cdc:	7465735f 	strbtvc	r7, [r5], #-863	; 0xfffffca1
     ce0:	74756f5f 	ldrbtvc	r6, [r5], #-3935	; 0xfffff0a1
     ce4:	00747570 	rsbseq	r7, r4, r0, ror r5
     ce8:	6e676973 			; <UNDEFINED> instruction: 0x6e676973
     cec:	705f6465 	subsvc	r6, pc, r5, ror #8
     cf0:	76657200 	strbtvc	r7, [r5], -r0, lsl #4
     cf4:	65737265 	ldrbvs	r7, [r3, #-613]!	; 0xfffffd9b
     cf8:	64697700 	strbtvs	r7, [r9], #-1792	; 0xfffff900
     cfc:	70006874 	andvc	r6, r0, r4, ror r8
     d00:	5f737475 	svcpl	0x00737475
     d04:	6e007066 	cdpvs	0, 0, cr7, cr0, cr6, {3}
     d08:	705f6765 	subsvc	r6, pc, r5, ror #14
     d0c:	74757000 	ldrbtvc	r7, [r5], #-0
     d10:	70665f63 	rsbvc	r5, r6, r3, ror #30
     d14:	64736900 	ldrbtvs	r6, [r3], #-2304	; 0xfffff700
     d18:	74696769 	strbtvc	r6, [r9], #-1897	; 0xfffff897
     d1c:	696d6500 	stmdbvs	sp!, {r8, sl, sp, lr}^
     d20:	6e690074 	mcrvs	0, 3, r0, cr9, cr4, {3}
     d24:	6e726574 	mrcvs	5, 3, r6, cr2, cr4, {3}
     d28:	705f6c61 	subsvc	r6, pc, r1, ror #24
     d2c:	006b7475 	rsbeq	r7, fp, r5, ror r4
     d30:	6362696c 	cmnvs	r2, #108, 18	; 0x1b0000
     d34:	7475702f 	ldrbtvc	r7, [r5], #-47	; 0xffffffd1
     d38:	00632e6b 	rsbeq	r2, r3, fp, ror #28
     d3c:	5f697072 	svcpl	0x00697072
     d40:	5f746573 	svcpl	0x00746573
     d44:	63747570 	cmnvs	r4, #112, 10	; 0x1c000000
     d48:	72617500 	rsbvc	r7, r1, #0, 10
     d4c:	75705f74 	ldrbvc	r5, [r0, #-3956]!	; 0xfffff08c
     d50:	69006374 	stmdbvs	r0, {r2, r4, r5, r6, r8, r9, sp, lr}
     d54:	7265746e 	rsbvc	r7, r5, #1845493760	; 0x6e000000
     d58:	5f6c616e 	svcpl	0x006c616e
     d5c:	63747570 	cmnvs	r4, #112, 10	; 0x1c000000
     d60:	00726168 	rsbseq	r6, r2, r8, ror #2
     d64:	6362696c 	cmnvs	r2, #108, 18	; 0x1b0000
     d68:	7475702f 	ldrbtvc	r7, [r5], #-47	; 0xffffffd1
     d6c:	72616863 	rsbvc	r6, r1, #6488064	; 0x630000
     d70:	5000632e 	andpl	r6, r0, lr, lsr #6
     d74:	5f435455 	svcpl	0x00435455
     d78:	5f505345 	svcpl	0x00505345
     d7c:	54524155 	ldrbpl	r4, [r2], #-341	; 0xfffffeab
     d80:	72617500 	rsbvc	r7, r1, #0, 10
     d84:	65645f74 	strbvs	r5, [r4, #-3956]!	; 0xfffff08c
     d88:	00745f76 	rsbseq	r5, r4, r6, ror pc
     d8c:	7473635f 	ldrbtvc	r6, [r3], #-863	; 0xfffffca1
     d90:	00747261 	rsbseq	r7, r4, r1, ror #4
     d94:	755f7773 	ldrbvc	r7, [pc, #-1907]	; 629 <_start-0x79d7>
     d98:	00747261 	rsbseq	r7, r4, r1, ror #4
     d9c:	746e6f63 	strbtvc	r6, [lr], #-3939	; 0xfffff09d
     da0:	5f6c6f72 	svcpl	0x006c6f72
     da4:	5f6b6c62 	svcpl	0x006b6c62
     da8:	55500074 	ldrbpl	r0, [r0, #-116]	; 0xffffff8c
     dac:	485f4354 	ldmdami	pc, {r2, r4, r6, r8, r9, lr}^	; <UNPREDICTABLE>
     db0:	41555f57 	cmpmi	r5, r7, asr pc
     db4:	63005452 	movwvs	r5, #1106	; 0x452
     db8:	6f736e6f 	svcvs	0x00736e6f
     dbc:	645f656c 	ldrbvs	r6, [pc], #-1388	; dc4 <_start-0x723c>
     dc0:	63007665 	movwvs	r7, #1637	; 0x665
     dc4:	6f736e6f 	svcvs	0x00736e6f
     dc8:	755f656c 	ldrbvc	r6, [pc, #-1388]	; 864 <_start-0x779c>
     dcc:	00747261 	rsbseq	r7, r4, r1, ror #4
     dd0:	73625f5f 	cmnvc	r2, #380	; 0x17c
     dd4:	74735f73 	ldrbtvc	r5, [r3], #-3955	; 0xfffff08d
     dd8:	5f747261 	svcpl	0x00747261
     ddc:	5f5f005f 	svcpl	0x005f005f
     de0:	5f737362 	svcpl	0x00737362
     de4:	5f646e65 	svcpl	0x00646e65
     de8:	7773005f 			; <UNDEFINED> instruction: 0x7773005f
     dec:	7261755f 	rsbvc	r7, r1, #398458880	; 0x17c00000
     df0:	00745f74 	rsbseq	r5, r4, r4, ror pc
     df4:	6967616d 	stmdbvs	r7!, {r0, r2, r3, r5, r6, r8, sp, lr}^
     df8:	73620063 	cmnvc	r2, #99	; 0x63
     dfc:	6e655f73 	mcrvs	15, 3, r5, cr5, cr3, {3}
     e00:	6c630064 	stclvs	0, cr0, [r3], #-400	; 0xfffffe70
     e04:	00305f72 	eorseq	r5, r0, r2, ror pc
     e08:	65746e69 	ldrbvs	r6, [r4, #-3689]!	; 0xfffff197
     e0c:	6c616e72 	stclvs	14, cr6, [r1], #-456	; 0xfffffe38
     e10:	5f77735f 	svcpl	0x0077735f
     e14:	63747570 	cmnvs	r4, #112, 10	; 0x1c000000
     e18:	00726168 	rsbseq	r6, r2, r8, ror #2
     e1c:	5f697072 	svcpl	0x00697072
     e20:	6f626572 	svcvs	0x00626572
     e24:	6200746f 	andvs	r7, r0, #1862270976	; 0x6f000000
     e28:	00647561 	rsbeq	r7, r4, r1, ror #10
     e2c:	675f6263 	ldrbvs	r6, [pc, -r3, ror #4]
     e30:	625f7465 	subsvs	r7, pc, #1694498816	; 0x65000000
     e34:	6b636f6c 	blvs	18dcbec <__bss_end__+0x18d2bfc>
     e38:	31736300 	cmncc	r3, r0, lsl #6
     e3c:	2d653034 	stclcs	0, cr3, [r5, #-208]!	; 0xffffff30
     e40:	2f637273 	svccs	0x00637273
     e44:	61747363 	cmnvs	r4, r3, ror #6
     e48:	632e7472 			; <UNDEFINED> instruction: 0x632e7472
     e4c:	54555000 	ldrbpl	r5, [r5], #-0
     e50:	57535f43 	ldrbpl	r5, [r3, -r3, asr #30]
     e54:	5241555f 	subpl	r5, r1, #398458880	; 0x17c00000
     e58:	6e6f0054 	mcrvs	0, 3, r0, cr15, cr4, {2}
     e5c:	6300305f 	movwvs	r3, #95	; 0x5f
     e60:	656c6379 	strbvs	r6, [ip, #-889]!	; 0xfffffc87
     e64:	7265705f 	rsbvc	r7, r5, #95	; 0x5f
     e68:	7469625f 	strbtvc	r6, [r9], #-607	; 0xfffffda1
     e6c:	5f4d5000 	svcpl	0x004d5000
     e70:	43545352 	cmpmi	r4, #1207959553	; 0x48000001
     e74:	54555000 	ldrbpl	r5, [r5], #-0
     e78:	50003233 	andpl	r3, r0, r3, lsr r2
     e7c:	53525f4d 	cmppl	r2, #308	; 0x134
     e80:	575f4354 			; <UNDEFINED> instruction: 0x575f4354
     e84:	47464352 	smlsldmi	r4, r6, r2, r3
     e88:	4c55465f 	mrrcmi	6, 5, r4, r5, cr15
     e8c:	45525f4c 	ldrbmi	r5, [r2, #-3916]	; 0xfffff0b4
     e90:	00544553 	subseq	r4, r4, r3, asr r5
     e94:	575f4d50 			; <UNDEFINED> instruction: 0x575f4d50
     e98:	00474f44 	subeq	r4, r7, r4, asr #30
     e9c:	72737063 	rsbsvc	r7, r3, #99	; 0x63
     ea0:	5f4d5000 	svcpl	0x004d5000
     ea4:	53534150 	cmppl	r3, #80, 2
     ea8:	44524f57 	ldrbmi	r4, [r2], #-3927	; 0xfffff0a9
     eac:	31736300 	cmncc	r3, r0, lsl #6
     eb0:	2d653034 	stclcs	0, cr3, [r5, #-208]!	; 0xffffff30
     eb4:	2f637273 	svccs	0x00637273
     eb8:	6f626572 	svcvs	0x00626572
     ebc:	632e746f 			; <UNDEFINED> instruction: 0x632e746f
     ec0:	74657300 	strbtvc	r7, [r5], #-768	; 0xfffffd00
     ec4:	6573755f 	ldrbvs	r7, [r3, #-1375]!	; 0xfffffaa1
     ec8:	656c5f72 	strbvs	r5, [ip, #-3954]!	; 0xfffff08e
     ecc:	006c6576 	rsbeq	r6, ip, r6, ror r5
     ed0:	755f7461 	ldrbvc	r7, [pc, #-1121]	; a77 <_start-0x7589>
     ed4:	5f726573 	svcpl	0x00726573
     ed8:	6576656c 	ldrbvs	r6, [r6, #-1388]!	; 0xfffffa94
     edc:	7363006c 	cmnvc	r3, #108	; 0x6c
     ee0:	65303431 	ldrvs	r3, [r0, #-1073]!	; 0xfffffbcf
     ee4:	6372732d 	cmnvs	r2, #-1275068416	; 0xb4000000
     ee8:	656c632f 	strbvs	r6, [ip, #-815]!	; 0xfffffcd1
     eec:	722d6e61 	eorvc	r6, sp, #1552	; 0x610
     ef0:	6f6f6265 	svcvs	0x006f6265
     ef4:	00632e74 	rsbeq	r2, r3, r4, ror lr
     ef8:	656d6974 	strbvs	r6, [sp, #-2420]!	; 0xfffff68c
     efc:	65675f72 	strbvs	r5, [r7, #-3954]!	; 0xfffff08e
     f00:	73755f74 	cmnvc	r5, #116, 30	; 0x1d0
     f04:	64006365 	strvs	r6, [r0], #-869	; 0xfffffc9b
     f08:	79616c65 	stmdbvc	r1!, {r0, r2, r5, r6, sl, fp, sp, lr}^
     f0c:	6365735f 	cmnvs	r5, #2080374785	; 0x7c000001
     f10:	6c656400 	cfstrdvs	mvd6, [r5], #-0
     f14:	635f7961 	cmpvs	pc, #1589248	; 0x184000
     f18:	656c6379 	strbvs	r6, [ip, #-889]!	; 0xfffffc87
     f1c:	73630073 	cmnvc	r3, #115	; 0x73
     f20:	65303431 	ldrvs	r3, [r0, #-1073]!	; 0xfffffbcf
     f24:	6372732d 	cmnvs	r2, #-1275068416	; 0xb4000000
     f28:	6d69742f 	cfstrdvs	mvd7, [r9, #-188]!	; 0xffffff44
     f2c:	632e7265 			; <UNDEFINED> instruction: 0x632e7265
     f30:	63697400 	cmnvs	r9, #0, 8
     f34:	4700736b 	strmi	r7, [r0, -fp, ror #6]
     f38:	32335445 	eorscc	r5, r3, #1157627904	; 0x45000000
     f3c:	6d697400 	cfstrdvs	mvd7, [r9, #-0]
     f40:	675f7265 	ldrbvs	r7, [pc, -r5, ror #4]
     f44:	755f7465 	ldrbvc	r7, [pc, #-1125]	; ae7 <_start-0x7519>
     f48:	5f636573 	svcpl	0x00636573
     f4c:	00776172 	rsbseq	r6, r7, r2, ror r1
     f50:	616c6564 	cmnvs	ip, r4, ror #10
     f54:	73755f79 	cmnvc	r5, #484	; 0x1e4
     f58:	6c5f5f00 	mrrcvs	15, 0, r5, pc, cr0	; <UNPREDICTABLE>
     f5c:	6c61636f 	stclvs	3, cr6, [r1], #-444	; 0xfffffe44
     f60:	00745f65 	rsbseq	r5, r4, r5, ror #30
     f64:	74617473 	strbtvc	r7, [r1], #-1139	; 0xfffffb8d
     f68:	746e6300 	strbtvc	r6, [lr], #-768	; 0xfffffd00
     f6c:	6175006c 	cmnvs	r5, ip, rrx
     f70:	632e7472 			; <UNDEFINED> instruction: 0x632e7472
     f74:	78756100 	ldmdavc	r5!, {r8, sp, lr}^
     f78:	7265705f 	rsbvc	r7, r5, #95	; 0x5f
     f7c:	73687069 	cmnvc	r8, #105	; 0x69
     f80:	78756100 	ldmdavc	r5!, {r8, sp, lr}^
     f84:	616e655f 	cmnvs	lr, pc, asr r5
     f88:	73656c62 	cmnvc	r5, #25088	; 0x6200
     f8c:	72617500 	rsbvc	r7, r1, #0, 10
     f90:	61635f74 	smcvs	13812	; 0x35f4
     f94:	75705f6e 	ldrbvc	r5, [r0, #-3950]!	; 0xfffff092
     f98:	75006374 	strvc	r6, [r0, #-884]	; 0xfffffc8c
     f9c:	5f747261 	svcpl	0x00747261
     fa0:	63746567 	cmnvs	r4, #432013312	; 0x19c00000
     fa4:	4f4c5f00 	svcmi	0x004c5f00
     fa8:	545f4b43 	ldrbpl	r4, [pc], #-2883	; fb0 <_start-0x7050>
     fac:	554e4700 	strbpl	r4, [lr, #-1792]	; 0xfffff900
     fb0:	39394320 	ldmdbcc	r9!, {r5, r8, r9, lr}
     fb4:	332e3720 			; <UNDEFINED> instruction: 0x332e3720
     fb8:	3220312e 	eorcc	r3, r0, #-2147483637	; 0x8000000b
     fbc:	30383130 	eorscc	r3, r8, r0, lsr r1
     fc0:	20323236 	eorscs	r3, r2, r6, lsr r2
     fc4:	6c657228 	sfmvs	f7, 2, [r5], #-160	; 0xffffff60
     fc8:	65736165 	ldrbvs	r6, [r3, #-357]!	; 0xfffffe9b
     fcc:	415b2029 	cmpmi	fp, r9, lsr #32
     fd0:	652f4d52 	strvs	r4, [pc, #-3410]!	; 286 <_start-0x7d7a>
     fd4:	6465626d 	strbtvs	r6, [r5], #-621	; 0xfffffd93
     fd8:	2d646564 	cfstr64cs	mvdx6, [r4, #-400]!	; 0xfffffe70
     fdc:	72622d37 	rsbvc	r2, r2, #3520	; 0xdc0
     fe0:	68636e61 	stmdavs	r3!, {r0, r5, r6, r9, sl, fp, sp, lr}^
     fe4:	76657220 	strbtvc	r7, [r5], -r0, lsr #4
     fe8:	6f697369 	svcvs	0x00697369
     fec:	3632206e 	ldrtcc	r2, [r2], -lr, rrx
     ff0:	37303931 			; <UNDEFINED> instruction: 0x37303931
     ff4:	6d2d205d 	stcvs	0, cr2, [sp, #-372]!	; 0xfffffe8c
     ff8:	3d757063 	ldclcc	0, cr7, [r5, #-396]!	; 0xfffffe74
     ffc:	316d7261 	cmncc	sp, r1, ror #4
    1000:	6a363731 	bvs	d8eccc <__bss_end__+0xd84cdc>
    1004:	732d667a 			; <UNDEFINED> instruction: 0x732d667a
    1008:	746d2d20 	strbtvc	r2, [sp], #-3360	; 0xfffff2e0
    100c:	3d656e75 	stclcc	14, cr6, [r5, #-468]!	; 0xfffffe2c
    1010:	316d7261 	cmncc	sp, r1, ror #4
    1014:	6a363731 	bvs	d8ece0 <__bss_end__+0xd84cf0>
    1018:	732d667a 			; <UNDEFINED> instruction: 0x732d667a
    101c:	67672d20 	strbvs	r2, [r7, -r0, lsr #26]!
    1020:	2d206264 	sfmcs	f6, 4, [r0, #-400]!	; 0xfffffe70
    1024:	2d20674f 	stccs	7, cr6, [r0, #-316]!	; 0xfffffec4
    1028:	3d647473 	cfstrdcc	mvd7, [r4, #-460]!	; 0xfffffe34
    102c:	39756e67 	ldmdbcc	r5!, {r0, r1, r2, r5, r6, r9, sl, fp, sp, lr}^
    1030:	662d2039 			; <UNDEFINED> instruction: 0x662d2039
    1034:	65657266 	strbvs	r7, [r5, #-614]!	; 0xfffffd9a
    1038:	6e617473 	mcrvs	4, 3, r7, cr1, cr3, {3}
    103c:	676e6964 	strbvs	r6, [lr, -r4, ror #18]!
    1040:	6f682f00 	svcvs	0x00682f00
    1044:	652f656d 	strvs	r6, [pc, #-1389]!	; adf <_start-0x7521>
    1048:	656c676e 	strbvs	r6, [ip, #-1902]!	; 0xfffff892
    104c:	6c632f72 	stclvs	15, cr2, [r3], #-456	; 0xfffffe38
    1050:	2f737361 	svccs	0x00737361
    1054:	34317363 	ldrtcc	r7, [r1], #-867	; 0xfffffc9d
    1058:	322d6530 	eorcc	r6, sp, #48, 10	; 0xc000000
    105c:	6e697730 	mcrvs	7, 3, r7, cr9, cr0, {1}
    1060:	62696c2f 	rsbvs	r6, r9, #12032	; 0x2f00
    1064:	632f6970 			; <UNDEFINED> instruction: 0x632f6970
    1068:	30343173 	eorscc	r3, r4, r3, ror r1
    106c:	72702d65 	rsbsvc	r2, r0, #6464	; 0x1940
    1070:	74617669 	strbtvc	r7, [r1], #-1641	; 0xfffff997
    1074:	755f0065 	ldrbvc	r0, [pc, #-101]	; 1017 <_start-0x6fe9>
    1078:	6570736e 	ldrbvs	r7, [r0, #-878]!	; 0xfffffc92
    107c:	69666963 	stmdbvs	r6!, {r0, r1, r5, r6, r8, fp, sp, lr}^
    1080:	6c5f6465 	cfldrdvs	mvd6, [pc], {101}	; 0x65
    1084:	6c61636f 	stclvs	3, cr6, [r1], #-444	; 0xfffffe44
    1088:	6e695f65 	cdpvs	15, 6, cr5, cr9, cr5, {3}
    108c:	5f006f66 	svcpl	0x00006f66
    1090:	636f6c5f 	cmnvs	pc, #24320	; 0x5f00
    1094:	6373006b 	cmnvs	r3, #107	; 0x6b
    1098:	63746172 	cmnvs	r4, #-2147483620	; 0x8000001c
    109c:	61750068 	cmnvs	r5, r8, rrx
    10a0:	635f7472 	cmpvs	pc, #1912602624	; 0x72000000
    10a4:	675f6e61 	ldrbvs	r6, [pc, -r1, ror #28]
    10a8:	00637465 	rsbeq	r7, r3, r5, ror #8
    10ac:	695f726f 	ldmdbvs	pc, {r0, r1, r2, r3, r5, r6, r9, ip, sp, lr}^	; <UNPREDICTABLE>
    10b0:	0032336e 	eorseq	r3, r2, lr, ror #6
    10b4:	74726175 	ldrbtvc	r6, [r2], #-373	; 0xfffffe8b
    10b8:	7361685f 	cmnvc	r1, #6225920	; 0x5f0000
    10bc:	7461645f 	strbtvc	r6, [r1], #-1119	; 0xfffffba1
    10c0:	70670061 	rsbvc	r0, r7, r1, rrx
    10c4:	735f6f69 	cmpvc	pc, #420	; 0x1a4
    10c8:	6f5f7465 	svcvs	0x005f7465
    10cc:	62006666 	andvs	r6, r0, #106954752	; 0x6600000
    10d0:	006b6e61 	rsbeq	r6, fp, r1, ror #28
    10d4:	6f697067 	svcvs	0x00697067
    10d8:	6700632e 	strvs	r6, [r0, -lr, lsr #6]
    10dc:	5f6f6970 	svcpl	0x006f6970
    10e0:	6c657366 	stclvs	3, cr7, [r5], #-408	; 0xfffffe68
    10e4:	70670030 	rsbvc	r0, r7, r0, lsr r0
    10e8:	725f6f69 	subsvc	r6, pc, #420	; 0x1a4
    10ec:	00646165 	rsbeq	r6, r4, r5, ror #2
    10f0:	6f697067 	svcvs	0x00697067
    10f4:	7465735f 	strbtvc	r7, [r5], #-863	; 0xfffffca1
    10f8:	74756f5f 	ldrbtvc	r6, [r5], #-3935	; 0xfffff0a1
    10fc:	00747570 	rsbseq	r7, r4, r0, ror r5
    1100:	6f697067 	svcvs	0x00697067
    1104:	6972775f 	ldmdbvs	r2!, {r0, r1, r2, r3, r4, r6, r8, r9, sl, ip, sp, lr}^
    1108:	67006574 	smlsdxvs	r0, r4, r5, r6
    110c:	5f6f6970 	svcpl	0x006f6970
    1110:	30746573 	rsbscc	r6, r4, r3, ror r5
    1114:	69706700 	ldmdbvs	r0!, {r8, r9, sl, sp, lr}^
    1118:	656c5f6f 	strbvs	r5, [ip, #-3951]!	; 0xfffff091
    111c:	67003076 	smlsdxvs	r0, r6, r0, r3
    1120:	5f6f6970 	svcpl	0x006f6970
    1124:	5f746573 	svcpl	0x00746573
    1128:	75706e69 	ldrbvc	r6, [r0, #-3689]!	; 0xfffff197
    112c:	70670074 	rsbvc	r0, r7, r4, ror r0
    1130:	735f6f69 	cmpvc	pc, #420	; 0x1a4
    1134:	6f5f7465 	svcvs	0x005f7465
    1138:	7067006e 	rsbvc	r0, r7, lr, rrx
    113c:	665f6f69 	ldrbvs	r6, [pc], -r9, ror #30
    1140:	5f636e75 	svcpl	0x00636e75
    1144:	70670074 	rsbvc	r0, r7, r4, ror r0
    1148:	635f6f69 	cmpvs	pc, #420	; 0x1a4
    114c:	0030726c 	eorseq	r7, r0, ip, ror #4
    1150:	6e5f6263 	cdpvs	2, 5, cr6, cr15, cr3, {3}
    1154:	63007765 	movwvs	r7, #1893	; 0x765
    1158:	30343173 	eorscc	r3, r4, r3, ror r1
    115c:	72732d65 	rsbsvc	r2, r3, #6464	; 0x1940
    1160:	6f632f63 	svcvs	0x00632f63
    1164:	6f72746e 	svcvs	0x0072746e
    1168:	6c622d6c 	stclvs	13, cr2, [r2], #-432	; 0xfffffe50
    116c:	2e6b636f 	cdpcs	3, 6, cr6, cr11, cr15, {3}
    1170:	656d0063 	strbvs	r0, [sp, #-99]!	; 0xffffff9d
    1174:	7465736d 	strbtvc	r7, [r5], #-877	; 0xfffffc93
    1178:	62696c00 	rsbvs	r6, r9, #0, 24
    117c:	656d2f63 	strbvs	r2, [sp, #-3939]!	; 0xfffff09d
    1180:	7465736d 	strbtvc	r7, [r5], #-877	; 0xfffffc93
    1184:	Address 0x0000000000001184 is out of bounds.


Disassembly of section .debug_frame:

00000000 <.debug_frame>:
   0:	0000000c 	andeq	r0, r0, ip
   4:	ffffffff 			; <UNDEFINED> instruction: 0xffffffff
   8:	7c020001 	stcvc	0, cr0, [r2], {1}
   c:	000d0c0e 	andeq	r0, sp, lr, lsl #24
  10:	0000000c 	andeq	r0, r0, ip
  14:	00000000 	andeq	r0, r0, r0
  18:	00008010 	andeq	r8, r0, r0, lsl r0
  1c:	00000044 	andeq	r0, r0, r4, asr #32
  20:	0000000c 	andeq	r0, r0, ip
  24:	00000000 	andeq	r0, r0, r0
  28:	00008054 	andeq	r8, r0, r4, asr r0
  2c:	0000000c 	andeq	r0, r0, ip
  30:	0000000c 	andeq	r0, r0, ip
  34:	00000000 	andeq	r0, r0, r0
  38:	00008060 	andeq	r8, r0, r0, rrx
  3c:	00000010 	andeq	r0, r0, r0, lsl r0
  40:	00000014 	andeq	r0, r0, r4, lsl r0
  44:	00000000 	andeq	r0, r0, r0
  48:	00008070 	andeq	r8, r0, r0, ror r0
  4c:	00000080 	andeq	r0, r0, r0, lsl #1
  50:	84080e42 	strhi	r0, [r8], #-3650	; 0xfffff1be
  54:	00018e02 	andeq	r8, r1, r2, lsl #28
  58:	00000018 	andeq	r0, r0, r8, lsl r0
  5c:	00000000 	andeq	r0, r0, r0
  60:	000080f0 	strdeq	r8, [r0], -r0
  64:	00000068 	andeq	r0, r0, r8, rrx
  68:	84100e42 	ldrhi	r0, [r0], #-3650	; 0xfffff1be
  6c:	86038504 	strhi	r8, [r3], -r4, lsl #10
  70:	00018e02 	andeq	r8, r1, r2, lsl #28
  74:	0000001c 	andeq	r0, r0, ip, lsl r0
  78:	00000000 	andeq	r0, r0, r0
  7c:	00008158 	andeq	r8, r0, r8, asr r1
  80:	0000003c 	andeq	r0, r0, ip, lsr r0
  84:	84080e42 	strhi	r0, [r8], #-3650	; 0xfffff1be
  88:	42018e02 	andmi	r8, r1, #2, 28
  8c:	0e58180e 	cdpeq	8, 5, cr1, cr8, cr14, {0}
  90:	00000008 	andeq	r0, r0, r8
  94:	00000018 	andeq	r0, r0, r8, lsl r0
  98:	00000000 	andeq	r0, r0, r0
  9c:	00008194 	muleq	r0, r4, r1
  a0:	00000024 	andeq	r0, r0, r4, lsr #32
  a4:	8e040e42 	cdphi	14, 0, cr0, cr4, cr2, {2}
  a8:	100e4201 	andne	r4, lr, r1, lsl #4
  ac:	00040e4c 	andeq	r0, r4, ip, asr #28
  b0:	00000020 	andeq	r0, r0, r0, lsr #32
  b4:	00000000 	andeq	r0, r0, r0
  b8:	000081b8 			; <UNDEFINED> instruction: 0x000081b8
  bc:	00000060 	andeq	r0, r0, r0, rrx
  c0:	84140e42 	ldrhi	r0, [r4], #-3650	; 0xfffff1be
  c4:	86048505 	strhi	r8, [r4], -r5, lsl #10
  c8:	8e028703 	cdphi	7, 0, cr8, cr2, cr3, {0}
  cc:	200e4201 	andcs	r4, lr, r1, lsl #4
  d0:	00140e6a 	andseq	r0, r4, sl, ror #28
  d4:	0000002c 	andeq	r0, r0, ip, lsr #32
  d8:	00000000 	andeq	r0, r0, r0
  dc:	00008218 	andeq	r8, r0, r8, lsl r2
  e0:	00000068 	andeq	r0, r0, r8, rrx
  e4:	42080e42 	andmi	r0, r8, #1056	; 0x420
  e8:	0884200e 	stmeq	r4, {r1, r2, r3, sp}
  ec:	06860785 	streq	r0, [r6], r5, lsl #15
  f0:	04880587 	streq	r0, [r8], #1415	; 0x587
  f4:	ce6c038e 	cdpgt	3, 6, cr0, cr12, cr14, {4}
  f8:	c5c6c7c8 	strbgt	ip, [r6, #1992]	; 0x7c8
  fc:	42080ec4 	andmi	r0, r8, #196, 28	; 0xc40
 100:	0000000e 	andeq	r0, r0, lr
 104:	00000014 	andeq	r0, r0, r4, lsl r0
 108:	00000000 	andeq	r0, r0, r0
 10c:	00008280 	andeq	r8, r0, r0, lsl #5
 110:	00000018 	andeq	r0, r0, r8, lsl r0
 114:	84080e42 	strhi	r0, [r8], #-3650	; 0xfffff1be
 118:	00018e02 	andeq	r8, r1, r2, lsl #28
 11c:	00000020 	andeq	r0, r0, r0, lsr #32
 120:	00000000 	andeq	r0, r0, r0
 124:	00008298 	muleq	r0, r8, r2
 128:	00000078 	andeq	r0, r0, r8, ror r0
 12c:	84100e42 	ldrhi	r0, [r0], #-3650	; 0xfffff1be
 130:	86038504 	strhi	r8, [r3], -r4, lsl #10
 134:	42018e02 	andmi	r8, r1, #2, 28
 138:	0e76180e 	cdpeq	8, 7, cr1, cr6, cr14, {0}
 13c:	00000010 	andeq	r0, r0, r0, lsl r0
 140:	00000024 	andeq	r0, r0, r4, lsr #32
 144:	00000000 	andeq	r0, r0, r0
 148:	00008310 	andeq	r8, r0, r0, lsl r3
 14c:	00000190 	muleq	r0, r0, r1
 150:	84140e42 	ldrhi	r0, [r4], #-3650	; 0xfffff1be
 154:	86048505 	strhi	r8, [r4], -r5, lsl #10
 158:	8e028703 	cdphi	7, 0, cr8, cr2, cr3, {0}
 15c:	200e4201 	andcs	r4, lr, r1, lsl #4
 160:	0e0a7e02 	cdpeq	14, 0, cr7, cr10, cr2, {0}
 164:	000b4214 	andeq	r4, fp, r4, lsl r2
 168:	00000020 	andeq	r0, r0, r0, lsr #32
 16c:	00000000 	andeq	r0, r0, r0
 170:	000084a0 	andeq	r8, r0, r0, lsr #9
 174:	00000114 	andeq	r0, r0, r4, lsl r1
 178:	84100e42 	ldrhi	r0, [r0], #-3650	; 0xfffff1be
 17c:	86038504 	strhi	r8, [r3], -r4, lsl #10
 180:	42018e02 	andmi	r8, r1, #2, 28
 184:	7a02400e 	bvc	901c4 <__bss_end__+0x861d4>
 188:	0000100e 	andeq	r1, r0, lr
 18c:	00000018 	andeq	r0, r0, r8, lsl r0
 190:	00000000 	andeq	r0, r0, r0
 194:	000085b4 			; <UNDEFINED> instruction: 0x000085b4
 198:	00000080 	andeq	r0, r0, r0, lsl #1
 19c:	84080e42 	strhi	r0, [r8], #-3650	; 0xfffff1be
 1a0:	42018e02 	andmi	r8, r1, #2, 28
 1a4:	0000100e 	andeq	r1, r0, lr
 1a8:	0000000c 	andeq	r0, r0, ip
 1ac:	ffffffff 			; <UNDEFINED> instruction: 0xffffffff
 1b0:	7c020001 	stcvc	0, cr0, [r2], {1}
 1b4:	000d0c0e 	andeq	r0, sp, lr, lsl #24
 1b8:	0000000c 	andeq	r0, r0, ip
 1bc:	000001a8 	andeq	r0, r0, r8, lsr #3
 1c0:	00008634 	andeq	r8, r0, r4, lsr r6
 1c4:	00000014 	andeq	r0, r0, r4, lsl r0
 1c8:	0000000c 	andeq	r0, r0, ip
 1cc:	000001a8 	andeq	r0, r0, r8, lsr #3
 1d0:	00008648 	andeq	r8, r0, r8, asr #12
 1d4:	0000000c 	andeq	r0, r0, ip
 1d8:	00000014 	andeq	r0, r0, r4, lsl r0
 1dc:	000001a8 	andeq	r0, r0, r8, lsr #3
 1e0:	00008654 	andeq	r8, r0, r4, asr r6
 1e4:	00000008 	andeq	r0, r0, r8
 1e8:	8e040e42 	cdphi	14, 0, cr0, cr4, cr2, {2}
 1ec:	00000001 	andeq	r0, r0, r1
 1f0:	00000014 	andeq	r0, r0, r4, lsl r0
 1f4:	000001a8 	andeq	r0, r0, r8, lsr #3
 1f8:	0000865c 	andeq	r8, r0, ip, asr r6
 1fc:	000000f0 	strdeq	r0, [r0], -r0	; <UNPREDICTABLE>
 200:	84080e42 	strhi	r0, [r8], #-3650	; 0xfffff1be
 204:	00018e02 	andeq	r8, r1, r2, lsl #28
 208:	00000014 	andeq	r0, r0, r4, lsl r0
 20c:	000001a8 	andeq	r0, r0, r8, lsr #3
 210:	0000874c 	andeq	r8, r0, ip, asr #14
 214:	00000010 	andeq	r0, r0, r0, lsl r0
 218:	84080e42 	strhi	r0, [r8], #-3650	; 0xfffff1be
 21c:	00018e02 	andeq	r8, r1, r2, lsl #28
 220:	00000014 	andeq	r0, r0, r4, lsl r0
 224:	000001a8 	andeq	r0, r0, r8, lsr #3
 228:	0000875c 	andeq	r8, r0, ip, asr r7
 22c:	00000028 	andeq	r0, r0, r8, lsr #32
 230:	84080e42 	strhi	r0, [r8], #-3650	; 0xfffff1be
 234:	00018e02 	andeq	r8, r1, r2, lsl #28
 238:	00000014 	andeq	r0, r0, r4, lsl r0
 23c:	000001a8 	andeq	r0, r0, r8, lsr #3
 240:	00008784 	andeq	r8, r0, r4, lsl #15
 244:	00000010 	andeq	r0, r0, r0, lsl r0
 248:	84080e42 	strhi	r0, [r8], #-3650	; 0xfffff1be
 24c:	00018e02 	andeq	r8, r1, r2, lsl #28
 250:	00000018 	andeq	r0, r0, r8, lsl r0
 254:	000001a8 	andeq	r0, r0, r8, lsr #3
 258:	00008794 	muleq	r0, r4, r7
 25c:	000001c8 	andeq	r0, r0, r8, asr #3
 260:	84100e42 	ldrhi	r0, [r0], #-3650	; 0xfffff1be
 264:	86038504 	strhi	r8, [r3], -r4, lsl #10
 268:	00018e02 	andeq	r8, r1, r2, lsl #28
 26c:	00000018 	andeq	r0, r0, r8, lsl r0
 270:	000001a8 	andeq	r0, r0, r8, lsr #3
 274:	0000895c 	andeq	r8, r0, ip, asr r9
 278:	000000c4 	andeq	r0, r0, r4, asr #1
 27c:	84100e42 	ldrhi	r0, [r0], #-3650	; 0xfffff1be
 280:	86038504 	strhi	r8, [r3], -r4, lsl #10
 284:	00018e02 	andeq	r8, r1, r2, lsl #28
 288:	00000018 	andeq	r0, r0, r8, lsl r0
 28c:	000001a8 	andeq	r0, r0, r8, lsr #3
 290:	00008a20 	andeq	r8, r0, r0, lsr #20
 294:	000000c0 	andeq	r0, r0, r0, asr #1
 298:	84100e42 	ldrhi	r0, [r0], #-3650	; 0xfffff1be
 29c:	86038504 	strhi	r8, [r3], -r4, lsl #10
 2a0:	00018e02 	andeq	r8, r1, r2, lsl #28
 2a4:	0000000c 	andeq	r0, r0, ip
 2a8:	000001a8 	andeq	r0, r0, r8, lsr #3
 2ac:	00008ae0 	andeq	r8, r0, r0, ror #21
 2b0:	00000010 	andeq	r0, r0, r0, lsl r0
 2b4:	00000014 	andeq	r0, r0, r4, lsl r0
 2b8:	000001a8 	andeq	r0, r0, r8, lsr #3
 2bc:	00008af0 	strdeq	r8, [r0], -r0
 2c0:	00000094 	muleq	r0, r4, r0
 2c4:	84080e42 	strhi	r0, [r8], #-3650	; 0xfffff1be
 2c8:	00018e02 	andeq	r8, r1, r2, lsl #28
 2cc:	00000014 	andeq	r0, r0, r4, lsl r0
 2d0:	000001a8 	andeq	r0, r0, r8, lsr #3
 2d4:	00008b84 	andeq	r8, r0, r4, lsl #23
 2d8:	00000018 	andeq	r0, r0, r8, lsl r0
 2dc:	84080e42 	strhi	r0, [r8], #-3650	; 0xfffff1be
 2e0:	00018e02 	andeq	r8, r1, r2, lsl #28
 2e4:	0000000c 	andeq	r0, r0, ip
 2e8:	ffffffff 			; <UNDEFINED> instruction: 0xffffffff
 2ec:	7c020001 	stcvc	0, cr0, [r2], {1}
 2f0:	000d0c0e 	andeq	r0, sp, lr, lsl #24
 2f4:	00000034 	andeq	r0, r0, r4, lsr r0
 2f8:	000002e4 	andeq	r0, r0, r4, ror #5
 2fc:	00008b9c 	muleq	r0, ip, fp
 300:	00000058 	andeq	r0, r0, r8, asr r0
 304:	80100e42 	andshi	r0, r0, r2, asr #28
 308:	82038104 	andhi	r8, r3, #4, 2
 30c:	42018302 	andmi	r8, r1, #134217728	; 0x8000000
 310:	07841c0e 	streq	r1, [r4, lr, lsl #24]
 314:	058e0685 	streq	r0, [lr, #1669]	; 0x685
 318:	5c280e42 	stcpl	14, cr0, [r8], #-264	; 0xfffffef8
 31c:	ce421c0e 	cdpgt	12, 4, cr1, cr2, cr14, {0}
 320:	100ec4c5 	andne	ip, lr, r5, asr #9
 324:	c1c2c342 	bicgt	ip, r2, r2, asr #6
 328:	00000ec0 	andeq	r0, r0, r0, asr #29
 32c:	0000000c 	andeq	r0, r0, ip
 330:	ffffffff 			; <UNDEFINED> instruction: 0xffffffff
 334:	7c020001 	stcvc	0, cr0, [r2], {1}
 338:	000d0c0e 	andeq	r0, sp, lr, lsl #24
 33c:	0000000c 	andeq	r0, r0, ip
 340:	0000032c 	andeq	r0, r0, ip, lsr #6
 344:	00008bf4 	strdeq	r8, [r0], -r4
 348:	00000014 	andeq	r0, r0, r4, lsl r0
 34c:	0000000c 	andeq	r0, r0, ip
 350:	0000032c 	andeq	r0, r0, ip, lsr #6
 354:	00008c08 	andeq	r8, r0, r8, lsl #24
 358:	0000002c 	andeq	r0, r0, ip, lsr #32
 35c:	0000000c 	andeq	r0, r0, ip
 360:	0000032c 	andeq	r0, r0, ip, lsr #6
 364:	00008c34 	andeq	r8, r0, r4, lsr ip
 368:	00000040 	andeq	r0, r0, r0, asr #32
 36c:	00000024 	andeq	r0, r0, r4, lsr #32
 370:	0000032c 	andeq	r0, r0, ip, lsr #6
 374:	00008c74 	andeq	r8, r0, r4, ror ip
 378:	0000019c 	muleq	r0, ip, r1
 37c:	84140e42 	ldrhi	r0, [r4], #-3650	; 0xfffff1be
 380:	86048505 	strhi	r8, [r4], -r5, lsl #10
 384:	8e028703 	cdphi	7, 0, cr8, cr2, cr3, {0}
 388:	580e4201 	stmdapl	lr, {r0, r9, lr}
 38c:	0e0a9202 	cdpeq	2, 0, cr9, cr10, cr2, {0}
 390:	000b4214 	andeq	r4, fp, r4, lsl r2
 394:	00000014 	andeq	r0, r0, r4, lsl r0
 398:	0000032c 	andeq	r0, r0, ip, lsr #6
 39c:	00008e10 	andeq	r8, r0, r0, lsl lr
 3a0:	00000054 	andeq	r0, r0, r4, asr r0
 3a4:	84080e52 	strhi	r0, [r8], #-3666	; 0xfffff1ae
 3a8:	00018e02 	andeq	r8, r1, r2, lsl #28
 3ac:	00000028 	andeq	r0, r0, r8, lsr #32
 3b0:	0000032c 	andeq	r0, r0, ip, lsr #6
 3b4:	00008e64 	andeq	r8, r0, r4, ror #28
 3b8:	000002c0 	andeq	r0, r0, r0, asr #5
 3bc:	841c0e42 	ldrhi	r0, [ip], #-3650	; 0xfffff1be
 3c0:	86068507 	strhi	r8, [r6], -r7, lsl #10
 3c4:	88048705 	stmdahi	r4, {r0, r2, r8, r9, sl, pc}
 3c8:	8e028903 	vmlahi.f16	s16, s4, s6	; <UNPREDICTABLE>
 3cc:	b00e4201 	andlt	r4, lr, r1, lsl #4
 3d0:	01500301 	cmpeq	r0, r1, lsl #6
 3d4:	00001c0e 	andeq	r1, r0, lr, lsl #24
 3d8:	0000000c 	andeq	r0, r0, ip
 3dc:	ffffffff 			; <UNDEFINED> instruction: 0xffffffff
 3e0:	7c020001 	stcvc	0, cr0, [r2], {1}
 3e4:	000d0c0e 	andeq	r0, sp, lr, lsl #24
 3e8:	00000014 	andeq	r0, r0, r4, lsl r0
 3ec:	000003d8 	ldrdeq	r0, [r0], -r8
 3f0:	00009124 	andeq	r9, r0, r4, lsr #2
 3f4:	00000034 	andeq	r0, r0, r4, lsr r0
 3f8:	84080e42 	strhi	r0, [r8], #-3650	; 0xfffff1be
 3fc:	00018e02 	andeq	r8, r1, r2, lsl #28
 400:	0000000c 	andeq	r0, r0, ip
 404:	ffffffff 			; <UNDEFINED> instruction: 0xffffffff
 408:	7c020001 	stcvc	0, cr0, [r2], {1}
 40c:	000d0c0e 	andeq	r0, sp, lr, lsl #24
 410:	00000014 	andeq	r0, r0, r4, lsl r0
 414:	00000400 	andeq	r0, r0, r0, lsl #8
 418:	00009158 	andeq	r9, r0, r8, asr r1
 41c:	00000014 	andeq	r0, r0, r4, lsl r0
 420:	84080e42 	strhi	r0, [r8], #-3650	; 0xfffff1be
 424:	00018e02 	andeq	r8, r1, r2, lsl #28
 428:	0000000c 	andeq	r0, r0, ip
 42c:	00000400 	andeq	r0, r0, r0, lsl #8
 430:	0000916c 	andeq	r9, r0, ip, ror #2
 434:	00000018 	andeq	r0, r0, r8, lsl r0
 438:	0000000c 	andeq	r0, r0, ip
 43c:	00000400 	andeq	r0, r0, r0, lsl #8
 440:	00009184 	andeq	r9, r0, r4, lsl #3
 444:	00000010 	andeq	r0, r0, r0, lsl r0
 448:	0000000c 	andeq	r0, r0, ip
 44c:	ffffffff 			; <UNDEFINED> instruction: 0xffffffff
 450:	7c020001 	stcvc	0, cr0, [r2], {1}
 454:	000d0c0e 	andeq	r0, sp, lr, lsl #24
 458:	0000000c 	andeq	r0, r0, ip
 45c:	00000448 	andeq	r0, r0, r8, asr #8
 460:	00009194 	muleq	r0, r4, r1
 464:	00000004 	andeq	r0, r0, r4
 468:	00000014 	andeq	r0, r0, r4, lsl r0
 46c:	00000448 	andeq	r0, r0, r8, asr #8
 470:	00009198 	muleq	r0, r8, r1
 474:	00000070 	andeq	r0, r0, r0, ror r0
 478:	84080e42 	strhi	r0, [r8], #-3650	; 0xfffff1be
 47c:	00018e02 	andeq	r8, r1, r2, lsl #28
 480:	0000000c 	andeq	r0, r0, ip
 484:	ffffffff 			; <UNDEFINED> instruction: 0xffffffff
 488:	7c020001 	stcvc	0, cr0, [r2], {1}
 48c:	000d0c0e 	andeq	r0, sp, lr, lsl #24
 490:	0000000c 	andeq	r0, r0, ip
 494:	00000480 	andeq	r0, r0, r0, lsl #9
 498:	00009208 	andeq	r9, r0, r8, lsl #4
 49c:	00000018 	andeq	r0, r0, r8, lsl r0
 4a0:	0000000c 	andeq	r0, r0, ip
 4a4:	00000480 	andeq	r0, r0, r0, lsl #9
 4a8:	00009220 	andeq	r9, r0, r0, lsr #4
 4ac:	00000014 	andeq	r0, r0, r4, lsl r0
 4b0:	00000014 	andeq	r0, r0, r4, lsl r0
 4b4:	00000480 	andeq	r0, r0, r0, lsl #9
 4b8:	00009234 	andeq	r9, r0, r4, lsr r2
 4bc:	0000004c 	andeq	r0, r0, ip, asr #32
 4c0:	84080e42 	strhi	r0, [r8], #-3650	; 0xfffff1be
 4c4:	00018e02 	andeq	r8, r1, r2, lsl #28
 4c8:	0000000c 	andeq	r0, r0, ip
 4cc:	ffffffff 			; <UNDEFINED> instruction: 0xffffffff
 4d0:	7c020001 	stcvc	0, cr0, [r2], {1}
 4d4:	000d0c0e 	andeq	r0, sp, lr, lsl #24
 4d8:	00000014 	andeq	r0, r0, r4, lsl r0
 4dc:	000004c8 	andeq	r0, r0, r8, asr #9
 4e0:	00009280 	andeq	r9, r0, r0, lsl #5
 4e4:	00000028 	andeq	r0, r0, r8, lsr #32
 4e8:	84080e42 	strhi	r0, [r8], #-3650	; 0xfffff1be
 4ec:	00018e02 	andeq	r8, r1, r2, lsl #28
 4f0:	0000000c 	andeq	r0, r0, ip
 4f4:	ffffffff 			; <UNDEFINED> instruction: 0xffffffff
 4f8:	7c020001 	stcvc	0, cr0, [r2], {1}
 4fc:	000d0c0e 	andeq	r0, sp, lr, lsl #24
 500:	0000000c 	andeq	r0, r0, ip
 504:	000004f0 	strdeq	r0, [r0], -r0	; <UNPREDICTABLE>
 508:	000092a8 	andeq	r9, r0, r8, lsr #5
 50c:	0000001c 	andeq	r0, r0, ip, lsl r0
 510:	00000014 	andeq	r0, r0, r4, lsl r0
 514:	000004f0 	strdeq	r0, [r0], -r0	; <UNPREDICTABLE>
 518:	000092c4 	andeq	r9, r0, r4, asr #5
 51c:	00000014 	andeq	r0, r0, r4, lsl r0
 520:	84080e42 	strhi	r0, [r8], #-3650	; 0xfffff1be
 524:	00018e02 	andeq	r8, r1, r2, lsl #28
 528:	00000014 	andeq	r0, r0, r4, lsl r0
 52c:	000004f0 	strdeq	r0, [r0], -r0	; <UNPREDICTABLE>
 530:	000092d8 	ldrdeq	r9, [r0], -r8
 534:	0000000c 	andeq	r0, r0, ip
 538:	84080e42 	strhi	r0, [r8], #-3650	; 0xfffff1be
 53c:	00018e02 	andeq	r8, r1, r2, lsl #28
 540:	00000018 	andeq	r0, r0, r8, lsl r0
 544:	000004f0 	strdeq	r0, [r0], -r0	; <UNPREDICTABLE>
 548:	000092e4 	andeq	r9, r0, r4, ror #5
 54c:	00000024 	andeq	r0, r0, r4, lsr #32
 550:	84100e42 	ldrhi	r0, [r0], #-3650	; 0xfffff1be
 554:	86038504 	strhi	r8, [r3], -r4, lsl #10
 558:	00018e02 	andeq	r8, r1, r2, lsl #28
 55c:	00000014 	andeq	r0, r0, r4, lsl r0
 560:	000004f0 	strdeq	r0, [r0], -r0	; <UNPREDICTABLE>
 564:	00009308 	andeq	r9, r0, r8, lsl #6
 568:	00000014 	andeq	r0, r0, r4, lsl r0
 56c:	84080e42 	strhi	r0, [r8], #-3650	; 0xfffff1be
 570:	00018e02 	andeq	r8, r1, r2, lsl #28
 574:	00000014 	andeq	r0, r0, r4, lsl r0
 578:	000004f0 	strdeq	r0, [r0], -r0	; <UNPREDICTABLE>
 57c:	0000931c 	andeq	r9, r0, ip, lsl r3
 580:	00000014 	andeq	r0, r0, r4, lsl r0
 584:	84080e42 	strhi	r0, [r8], #-3650	; 0xfffff1be
 588:	00018e02 	andeq	r8, r1, r2, lsl #28
 58c:	0000000c 	andeq	r0, r0, ip
 590:	ffffffff 			; <UNDEFINED> instruction: 0xffffffff
 594:	7c020001 	stcvc	0, cr0, [r2], {1}
 598:	000d0c0e 	andeq	r0, sp, lr, lsl #24
 59c:	00000018 	andeq	r0, r0, r8, lsl r0
 5a0:	0000058c 	andeq	r0, r0, ip, lsl #11
 5a4:	00009394 	muleq	r0, r4, r3
 5a8:	00000020 	andeq	r0, r0, r0, lsr #32
 5ac:	84100e42 	ldrhi	r0, [r0], #-3650	; 0xfffff1be
 5b0:	86038504 	strhi	r8, [r3], -r4, lsl #10
 5b4:	00018e02 	andeq	r8, r1, r2, lsl #28
 5b8:	00000014 	andeq	r0, r0, r4, lsl r0
 5bc:	0000058c 	andeq	r0, r0, ip, lsl #11
 5c0:	000093b4 			; <UNDEFINED> instruction: 0x000093b4
 5c4:	000000b0 	strheq	r0, [r0], -r0	; <UNPREDICTABLE>
 5c8:	84080e42 	strhi	r0, [r8], #-3650	; 0xfffff1be
 5cc:	00018e02 	andeq	r8, r1, r2, lsl #28
 5d0:	00000014 	andeq	r0, r0, r4, lsl r0
 5d4:	0000058c 	andeq	r0, r0, ip, lsl #11
 5d8:	00009464 	andeq	r9, r0, r4, ror #8
 5dc:	00000018 	andeq	r0, r0, r8, lsl r0
 5e0:	84080e42 	strhi	r0, [r8], #-3650	; 0xfffff1be
 5e4:	00018e02 	andeq	r8, r1, r2, lsl #28
 5e8:	00000014 	andeq	r0, r0, r4, lsl r0
 5ec:	0000058c 	andeq	r0, r0, ip, lsl #11
 5f0:	0000947c 	andeq	r9, r0, ip, ror r4
 5f4:	00000020 	andeq	r0, r0, r0, lsr #32
 5f8:	84080e42 	strhi	r0, [r8], #-3650	; 0xfffff1be
 5fc:	00018e02 	andeq	r8, r1, r2, lsl #28
 600:	00000014 	andeq	r0, r0, r4, lsl r0
 604:	0000058c 	andeq	r0, r0, ip, lsl #11
 608:	0000949c 	muleq	r0, ip, r4
 60c:	00000024 	andeq	r0, r0, r4, lsr #32
 610:	84080e42 	strhi	r0, [r8], #-3650	; 0xfffff1be
 614:	00018e02 	andeq	r8, r1, r2, lsl #28
 618:	00000014 	andeq	r0, r0, r4, lsl r0
 61c:	0000058c 	andeq	r0, r0, ip, lsl #11
 620:	000094c0 	andeq	r9, r0, r0, asr #9
 624:	00000028 	andeq	r0, r0, r8, lsr #32
 628:	84080e42 	strhi	r0, [r8], #-3650	; 0xfffff1be
 62c:	00018e02 	andeq	r8, r1, r2, lsl #28
 630:	00000014 	andeq	r0, r0, r4, lsl r0
 634:	0000058c 	andeq	r0, r0, ip, lsl #11
 638:	000094e8 	andeq	r9, r0, r8, ror #9
 63c:	0000000c 	andeq	r0, r0, ip
 640:	84080e42 	strhi	r0, [r8], #-3650	; 0xfffff1be
 644:	00018e02 	andeq	r8, r1, r2, lsl #28
 648:	0000000c 	andeq	r0, r0, ip
 64c:	ffffffff 			; <UNDEFINED> instruction: 0xffffffff
 650:	7c020001 	stcvc	0, cr0, [r2], {1}
 654:	000d0c0e 	andeq	r0, sp, lr, lsl #24
 658:	00000018 	andeq	r0, r0, r8, lsl r0
 65c:	00000648 	andeq	r0, r0, r8, asr #12
 660:	000094f4 	strdeq	r9, [r0], -r4
 664:	00000068 	andeq	r0, r0, r8, rrx
 668:	84100e4a 	ldrhi	r0, [r0], #-3658	; 0xfffff1b6
 66c:	86038504 	strhi	r8, [r3], -r4, lsl #10
 670:	00018e02 	andeq	r8, r1, r2, lsl #28
 674:	00000014 	andeq	r0, r0, r4, lsl r0
 678:	00000648 	andeq	r0, r0, r8, asr #12
 67c:	0000955c 	andeq	r9, r0, ip, asr r5
 680:	00000010 	andeq	r0, r0, r0, lsl r0
 684:	84080e42 	strhi	r0, [r8], #-3650	; 0xfffff1be
 688:	00018e02 	andeq	r8, r1, r2, lsl #28
 68c:	00000014 	andeq	r0, r0, r4, lsl r0
 690:	00000648 	andeq	r0, r0, r8, asr #12
 694:	0000956c 	andeq	r9, r0, ip, ror #10
 698:	00000024 	andeq	r0, r0, r4, lsr #32
 69c:	84080e46 	strhi	r0, [r8], #-3654	; 0xfffff1ba
 6a0:	00018e02 	andeq	r8, r1, r2, lsl #28
 6a4:	00000014 	andeq	r0, r0, r4, lsl r0
 6a8:	00000648 	andeq	r0, r0, r8, asr #12
 6ac:	00009590 	muleq	r0, r0, r5
 6b0:	00000024 	andeq	r0, r0, r4, lsr #32
 6b4:	84080e46 	strhi	r0, [r8], #-3654	; 0xfffff1ba
 6b8:	00018e02 	andeq	r8, r1, r2, lsl #28
 6bc:	00000014 	andeq	r0, r0, r4, lsl r0
 6c0:	00000648 	andeq	r0, r0, r8, asr #12
 6c4:	000095b4 			; <UNDEFINED> instruction: 0x000095b4
 6c8:	00000010 	andeq	r0, r0, r0, lsl r0
 6cc:	84080e42 	strhi	r0, [r8], #-3650	; 0xfffff1be
 6d0:	00018e02 	andeq	r8, r1, r2, lsl #28
 6d4:	00000014 	andeq	r0, r0, r4, lsl r0
 6d8:	00000648 	andeq	r0, r0, r8, asr #12
 6dc:	000095c4 	andeq	r9, r0, r4, asr #11
 6e0:	0000001c 	andeq	r0, r0, ip, lsl r0
 6e4:	84080e42 	strhi	r0, [r8], #-3650	; 0xfffff1be
 6e8:	00018e02 	andeq	r8, r1, r2, lsl #28
 6ec:	00000018 	andeq	r0, r0, r8, lsl r0
 6f0:	00000648 	andeq	r0, r0, r8, asr #12
 6f4:	000095e0 	andeq	r9, r0, r0, ror #11
 6f8:	00000034 	andeq	r0, r0, r4, lsr r0
 6fc:	84080e46 	strhi	r0, [r8], #-3654	; 0xfffff1ba
 700:	4e018e02 	cdpmi	14, 0, cr8, cr1, cr2, {0}
 704:	cec4000e 	cdpgt	0, 12, cr0, cr4, cr14, {0}
 708:	0000000c 	andeq	r0, r0, ip
 70c:	ffffffff 			; <UNDEFINED> instruction: 0xffffffff
 710:	7c020001 	stcvc	0, cr0, [r2], {1}
 714:	000d0c0e 	andeq	r0, sp, lr, lsl #24
 718:	00000014 	andeq	r0, r0, r4, lsl r0
 71c:	00000708 	andeq	r0, r0, r8, lsl #14
 720:	00009614 	andeq	r9, r0, r4, lsl r6
 724:	00000028 	andeq	r0, r0, r8, lsr #32
 728:	84080e42 	strhi	r0, [r8], #-3650	; 0xfffff1be
 72c:	00018e02 	andeq	r8, r1, r2, lsl #28
 730:	0000000c 	andeq	r0, r0, ip
 734:	00000708 	andeq	r0, r0, r8, lsl #14
 738:	0000963c 	andeq	r9, r0, ip, lsr r6
 73c:	00000028 	andeq	r0, r0, r8, lsr #32
 740:	0000000c 	andeq	r0, r0, ip
 744:	ffffffff 			; <UNDEFINED> instruction: 0xffffffff
 748:	7c020001 	stcvc	0, cr0, [r2], {1}
 74c:	000d0c0e 	andeq	r0, sp, lr, lsl #24
 750:	0000000c 	andeq	r0, r0, ip
 754:	00000740 	andeq	r0, r0, r0, asr #14
 758:	00009664 	andeq	r9, r0, r4, ror #12
 75c:	00000020 	andeq	r0, r0, r0, lsr #32
