
accel.elf:     file format elf32-littlearm


Disassembly of section .text:

00008000 <_start>:
    8000:	e3a0d302 	mov	sp, #134217728	; 0x8000000
    8004:	e3a0b000 	mov	fp, #0
    8008:	eb000444 	bl	9120 <_cstart>
    800c:	eb00046a 	bl	91bc <rpi_reboot>

00008010 <mg_raw>:
    8010:	e1810400 	orr	r0, r1, r0, lsl #8
    8014:	e6bf0070 	sxth	r0, r0
    8018:	e12fff1e 	bx	lr

0000801c <xyz_mk>:
    801c:	e5801000 	str	r1, [r0]
    8020:	e5802004 	str	r2, [r0, #4]
    8024:	e5803008 	str	r3, [r0, #8]
    8028:	e12fff1e 	bx	lr

0000802c <mg_scaled>:
    802c:	e92d4070 	push	{r4, r5, r6, lr}
    8030:	e3510010 	cmp	r1, #16
    8034:	ca000009 	bgt	8060 <mg_scaled+0x34>
    8038:	e1a05000 	mov	r5, r0
    803c:	e1a04001 	mov	r4, r1
    8040:	e1a01000 	mov	r1, r0
    8044:	e59f0030 	ldr	r0, [pc, #48]	; 807c <mg_scaled+0x50>
    8048:	eb0002b5 	bl	8b24 <printk>
    804c:	e1a01004 	mov	r1, r4
    8050:	e59f0028 	ldr	r0, [pc, #40]	; 8080 <mg_scaled+0x54>
    8054:	eb0002b2 	bl	8b24 <printk>
    8058:	e1a00005 	mov	r0, r5
    805c:	e8bd8070 	pop	{r4, r5, r6, pc}
    8060:	eb000423 	bl	90f4 <rpi_reset_putc>
    8064:	e3a0304c 	mov	r3, #76	; 0x4c
    8068:	e59f2014 	ldr	r2, [pc, #20]	; 8084 <mg_scaled+0x58>
    806c:	e59f1014 	ldr	r1, [pc, #20]	; 8088 <mg_scaled+0x5c>
    8070:	e59f0014 	ldr	r0, [pc, #20]	; 808c <mg_scaled+0x60>
    8074:	eb0002aa 	bl	8b24 <printk>
    8078:	eb000462 	bl	9208 <clean_reboot>
    807c:	00009664 	andeq	r9, r0, r4, ror #12
    8080:	0000966c 	andeq	r9, r0, ip, ror #12
    8084:	00009614 	andeq	r9, r0, r4, lsl r6
    8088:	0000963c 	andeq	r9, r0, ip, lsr r6
    808c:	00009644 	andeq	r9, r0, r4, asr #12

00008090 <test_mg>:
    8090:	e92d4070 	push	{r4, r5, r6, lr}
    8094:	e1a04000 	mov	r4, r0
    8098:	e1a00001 	mov	r0, r1
    809c:	e1a05003 	mov	r5, r3
    80a0:	e1a01002 	mov	r1, r2
    80a4:	ebffffd9 	bl	8010 <mg_raw>
    80a8:	e1a01005 	mov	r1, r5
    80ac:	ebffffde 	bl	802c <mg_scaled>
    80b0:	e1a05000 	mov	r5, r0
    80b4:	e1a02000 	mov	r2, r0
    80b8:	e1a01004 	mov	r1, r4
    80bc:	e59f0024 	ldr	r0, [pc, #36]	; 80e8 <test_mg+0x58>
    80c0:	eb000297 	bl	8b24 <printk>
    80c4:	e1550004 	cmp	r5, r4
    80c8:	08bd8070 	popeq	{r4, r5, r6, pc}
    80cc:	eb000408 	bl	90f4 <rpi_reset_putc>
    80d0:	e3a03055 	mov	r3, #85	; 0x55
    80d4:	e59f2010 	ldr	r2, [pc, #16]	; 80ec <test_mg+0x5c>
    80d8:	e59f1010 	ldr	r1, [pc, #16]	; 80f0 <test_mg+0x60>
    80dc:	e59f0010 	ldr	r0, [pc, #16]	; 80f4 <test_mg+0x64>
    80e0:	eb00028f 	bl	8b24 <printk>
    80e4:	eb000447 	bl	9208 <clean_reboot>
    80e8:	0000967c 	andeq	r9, r0, ip, ror r6
    80ec:	00009620 	andeq	r9, r0, r0, lsr #12
    80f0:	0000963c 	andeq	r9, r0, ip, lsr r6
    80f4:	00009694 	muleq	r0, r4, r6

000080f8 <imu_rd>:
    80f8:	e92d4010 	push	{r4, lr}
    80fc:	e24dd010 	sub	sp, sp, #16
    8100:	e1a04000 	mov	r4, r0
    8104:	e28d3010 	add	r3, sp, #16
    8108:	e5631009 	strb	r1, [r3, #-9]!
    810c:	e3a02001 	mov	r2, #1
    8110:	e1a01003 	mov	r1, r3
    8114:	eb0001f2 	bl	88e4 <i2c_write>
    8118:	e3a02001 	mov	r2, #1
    811c:	e28d100f 	add	r1, sp, #15
    8120:	e1a00004 	mov	r0, r4
    8124:	eb00021f 	bl	89a8 <i2c_read>
    8128:	e5dd000f 	ldrb	r0, [sp, #15]
    812c:	e28dd010 	add	sp, sp, #16
    8130:	e8bd8010 	pop	{r4, pc}

00008134 <imu_wr>:
    8134:	e52de004 	push	{lr}		; (str lr, [sp, #-4]!)
    8138:	e24dd00c 	sub	sp, sp, #12
    813c:	e5cd1004 	strb	r1, [sp, #4]
    8140:	e5cd2005 	strb	r2, [sp, #5]
    8144:	e3a02002 	mov	r2, #2
    8148:	e28d1004 	add	r1, sp, #4
    814c:	eb0001e4 	bl	88e4 <i2c_write>
    8150:	e28dd00c 	add	sp, sp, #12
    8154:	e49df004 	pop	{pc}		; (ldr pc, [sp], #4)

00008158 <imu_rd_n>:
    8158:	e92d4070 	push	{r4, r5, r6, lr}
    815c:	e24dd008 	sub	sp, sp, #8
    8160:	e1a04000 	mov	r4, r0
    8164:	e1a05002 	mov	r5, r2
    8168:	e1a06003 	mov	r6, r3
    816c:	e28d3008 	add	r3, sp, #8
    8170:	e5631001 	strb	r1, [r3, #-1]!
    8174:	e3a02001 	mov	r2, #1
    8178:	e1a01003 	mov	r1, r3
    817c:	eb0001d8 	bl	88e4 <i2c_write>
    8180:	e1a02006 	mov	r2, r6
    8184:	e1a01005 	mov	r1, r5
    8188:	e1a00004 	mov	r0, r4
    818c:	eb000205 	bl	89a8 <i2c_read>
    8190:	e28dd008 	add	sp, sp, #8
    8194:	e8bd8070 	pop	{r4, r5, r6, pc}

00008198 <accel_scale>:
    8198:	e24dd008 	sub	sp, sp, #8
    819c:	e92d41f0 	push	{r4, r5, r6, r7, r8, lr}
    81a0:	e1a05000 	mov	r5, r0
    81a4:	e1a04001 	mov	r4, r1
    81a8:	e28d1014 	add	r1, sp, #20
    81ac:	e981000c 	stmib	r1, {r2, r3}
    81b0:	e59d1018 	ldr	r1, [sp, #24]
    81b4:	e5940008 	ldr	r0, [r4, #8]
    81b8:	ebffff9b 	bl	802c <mg_scaled>
    81bc:	e1a06000 	mov	r6, r0
    81c0:	e59d101c 	ldr	r1, [sp, #28]
    81c4:	e5940008 	ldr	r0, [r4, #8]
    81c8:	ebffff97 	bl	802c <mg_scaled>
    81cc:	e1a07000 	mov	r7, r0
    81d0:	e59d1020 	ldr	r1, [sp, #32]
    81d4:	e5940008 	ldr	r0, [r4, #8]
    81d8:	ebffff93 	bl	802c <mg_scaled>
    81dc:	e1a03000 	mov	r3, r0
    81e0:	e1a02007 	mov	r2, r7
    81e4:	e1a01006 	mov	r1, r6
    81e8:	e1a00005 	mov	r0, r5
    81ec:	ebffff8a 	bl	801c <xyz_mk>
    81f0:	e1a00005 	mov	r0, r5
    81f4:	e8bd41f0 	pop	{r4, r5, r6, r7, r8, lr}
    81f8:	e28dd008 	add	sp, sp, #8
    81fc:	e12fff1e 	bx	lr

00008200 <accel_has_data>:
    8200:	e92d4010 	push	{r4, lr}
    8204:	e3a0101e 	mov	r1, #30
    8208:	e5d00000 	ldrb	r0, [r0]
    820c:	ebffffb9 	bl	80f8 <imu_rd>
    8210:	e2000001 	and	r0, r0, #1
    8214:	e8bd8010 	pop	{r4, pc}

00008218 <accel_rd>:
    8218:	e92d4070 	push	{r4, r5, r6, lr}
    821c:	e24dd008 	sub	sp, sp, #8
    8220:	e1a05000 	mov	r5, r0
    8224:	e1a04001 	mov	r4, r1
    8228:	e1a00004 	mov	r0, r4
    822c:	ebfffff3 	bl	8200 <accel_has_data>
    8230:	e3500000 	cmp	r0, #0
    8234:	0afffffb 	beq	8228 <accel_rd+0x10>
    8238:	e3a03006 	mov	r3, #6
    823c:	e1a0200d 	mov	r2, sp
    8240:	e3a01028 	mov	r1, #40	; 0x28
    8244:	e5d40000 	ldrb	r0, [r4]
    8248:	ebffffc2 	bl	8158 <imu_rd_n>
    824c:	e5dd1000 	ldrb	r1, [sp]
    8250:	e5dd0001 	ldrb	r0, [sp, #1]
    8254:	ebffff6d 	bl	8010 <mg_raw>
    8258:	e1a06000 	mov	r6, r0
    825c:	e5dd1002 	ldrb	r1, [sp, #2]
    8260:	e5dd0003 	ldrb	r0, [sp, #3]
    8264:	ebffff69 	bl	8010 <mg_raw>
    8268:	e1a04000 	mov	r4, r0
    826c:	e5dd1004 	ldrb	r1, [sp, #4]
    8270:	e5dd0005 	ldrb	r0, [sp, #5]
    8274:	ebffff65 	bl	8010 <mg_raw>
    8278:	e5856000 	str	r6, [r5]
    827c:	e5854004 	str	r4, [r5, #4]
    8280:	e5850008 	str	r0, [r5, #8]
    8284:	e1a00005 	mov	r0, r5
    8288:	e28dd008 	add	sp, sp, #8
    828c:	e8bd8070 	pop	{r4, r5, r6, pc}

00008290 <accel_init>:
    8290:	e92d40f0 	push	{r4, r5, r6, r7, lr}
    8294:	e24dd02c 	sub	sp, sp, #44	; 0x2c
    8298:	e1a05000 	mov	r5, r0
    829c:	e1a07001 	mov	r7, r1
    82a0:	e1a04002 	mov	r4, r2
    82a4:	e1a06003 	mov	r6, r3
    82a8:	eb000402 	bl	92b8 <dev_barrier>
    82ac:	e2463008 	sub	r3, r6, #8
    82b0:	e3530002 	cmp	r3, #2
    82b4:	9a00000a 	bls	82e4 <accel_init+0x54>
    82b8:	e59f3144 	ldr	r3, [pc, #324]	; 8404 <accel_init+0x174>
    82bc:	e1540003 	cmp	r4, r3
    82c0:	13540802 	cmpne	r4, #131072	; 0x20000
    82c4:	0a00000e 	beq	8304 <accel_init+0x74>
    82c8:	e59f3138 	ldr	r3, [pc, #312]	; 8408 <accel_init+0x178>
    82cc:	e59f2138 	ldr	r2, [pc, #312]	; 840c <accel_init+0x17c>
    82d0:	e1540003 	cmp	r4, r3
    82d4:	11540002 	cmpne	r4, r2
    82d8:	1a000030 	bne	83a0 <accel_init+0x110>
    82dc:	e3a03001 	mov	r3, #1
    82e0:	ea000008 	b	8308 <accel_init+0x78>
    82e4:	eb000382 	bl	90f4 <rpi_reset_putc>
    82e8:	e58d6000 	str	r6, [sp]
    82ec:	e3a03096 	mov	r3, #150	; 0x96
    82f0:	e59f2118 	ldr	r2, [pc, #280]	; 8410 <accel_init+0x180>
    82f4:	e59f1118 	ldr	r1, [pc, #280]	; 8414 <accel_init+0x184>
    82f8:	e59f0118 	ldr	r0, [pc, #280]	; 8418 <accel_init+0x188>
    82fc:	eb000208 	bl	8b24 <printk>
    8300:	eb0003c0 	bl	9208 <clean_reboot>
    8304:	e3a03001 	mov	r3, #1
    8308:	e3530000 	cmp	r3, #0
    830c:	0a000025 	beq	83a8 <accel_init+0x118>
    8310:	e356000a 	cmp	r6, #10
    8314:	8a00002b 	bhi	83c8 <accel_init+0x138>
    8318:	e6ef3074 	uxtb	r3, r4
    831c:	e3530003 	cmp	r3, #3
    8320:	8a000030 	bhi	83e8 <accel_init+0x158>
    8324:	e5cd701c 	strb	r7, [sp, #28]
    8328:	e58d6020 	str	r6, [sp, #32]
    832c:	e58d4024 	str	r4, [sp, #36]	; 0x24
    8330:	e3a02038 	mov	r2, #56	; 0x38
    8334:	e3a01018 	mov	r1, #24
    8338:	e1a00007 	mov	r0, r7
    833c:	ebffff7c 	bl	8134 <imu_wr>
    8340:	e59d2020 	ldr	r2, [sp, #32]
    8344:	e1a02202 	lsl	r2, r2, #4
    8348:	e20220f0 	and	r2, r2, #240	; 0xf0
    834c:	e3a01010 	mov	r1, #16
    8350:	e5dd001c 	ldrb	r0, [sp, #28]
    8354:	ebffff76 	bl	8134 <imu_wr>
    8358:	e3a02040 	mov	r2, #64	; 0x40
    835c:	e3a01012 	mov	r1, #18
    8360:	e5dd001c 	ldrb	r0, [sp, #28]
    8364:	ebffff72 	bl	8134 <imu_wr>
    8368:	e3a00014 	mov	r0, #20
    836c:	eb0003c7 	bl	9290 <delay_ms>
    8370:	e28d401c 	add	r4, sp, #28
    8374:	e1a01004 	mov	r1, r4
    8378:	e28d0008 	add	r0, sp, #8
    837c:	ebffffa5 	bl	8218 <accel_rd>
    8380:	e1a01004 	mov	r1, r4
    8384:	e28d0008 	add	r0, sp, #8
    8388:	ebffffa2 	bl	8218 <accel_rd>
    838c:	e8940007 	ldm	r4, {r0, r1, r2}
    8390:	e8850007 	stm	r5, {r0, r1, r2}
    8394:	e1a00005 	mov	r0, r5
    8398:	e28dd02c 	add	sp, sp, #44	; 0x2c
    839c:	e8bd80f0 	pop	{r4, r5, r6, r7, pc}
    83a0:	e3a03000 	mov	r3, #0
    83a4:	eaffffd7 	b	8308 <accel_init+0x78>
    83a8:	eb000351 	bl	90f4 <rpi_reset_putc>
    83ac:	e58d4000 	str	r4, [sp]
    83b0:	e3a0309b 	mov	r3, #155	; 0x9b
    83b4:	e59f2054 	ldr	r2, [pc, #84]	; 8410 <accel_init+0x180>
    83b8:	e59f1054 	ldr	r1, [pc, #84]	; 8414 <accel_init+0x184>
    83bc:	e59f0058 	ldr	r0, [pc, #88]	; 841c <accel_init+0x18c>
    83c0:	eb0001d7 	bl	8b24 <printk>
    83c4:	eb00038f 	bl	9208 <clean_reboot>
    83c8:	eb000349 	bl	90f4 <rpi_reset_putc>
    83cc:	e58d6000 	str	r6, [sp]
    83d0:	e3a0309d 	mov	r3, #157	; 0x9d
    83d4:	e59f2034 	ldr	r2, [pc, #52]	; 8410 <accel_init+0x180>
    83d8:	e59f1034 	ldr	r1, [pc, #52]	; 8414 <accel_init+0x184>
    83dc:	e59f003c 	ldr	r0, [pc, #60]	; 8420 <accel_init+0x190>
    83e0:	eb0001cf 	bl	8b24 <printk>
    83e4:	eb000387 	bl	9208 <clean_reboot>
    83e8:	eb000341 	bl	90f4 <rpi_reset_putc>
    83ec:	e3a030a2 	mov	r3, #162	; 0xa2
    83f0:	e59f2018 	ldr	r2, [pc, #24]	; 8410 <accel_init+0x180>
    83f4:	e59f1018 	ldr	r1, [pc, #24]	; 8414 <accel_init+0x184>
    83f8:	e59f0024 	ldr	r0, [pc, #36]	; 8424 <accel_init+0x194>
    83fc:	eb0001c8 	bl	8b24 <printk>
    8400:	eb000380 	bl	9208 <clean_reboot>
    8404:	00040002 	andeq	r0, r4, r2
    8408:	00100001 	andseq	r0, r0, r1
    840c:	00080003 	andeq	r0, r8, r3
    8410:	00009628 	andeq	r9, r0, r8, lsr #12
    8414:	0000963c 	andeq	r9, r0, ip, lsr r6
    8418:	000096b4 			; <UNDEFINED> instruction: 0x000096b4
    841c:	000096f8 	strdeq	r9, [r0], -r8
    8420:	00009720 	andeq	r9, r0, r0, lsr #14
    8424:	00009740 	andeq	r9, r0, r0, asr #14

00008428 <do_accel_test>:
    8428:	e92d4070 	push	{r4, r5, r6, lr}
    842c:	e24dd030 	sub	sp, sp, #48	; 0x30
    8430:	e3a03006 	mov	r3, #6
    8434:	e3a02802 	mov	r2, #131072	; 0x20000
    8438:	e3a0106b 	mov	r1, #107	; 0x6b
    843c:	e28d0024 	add	r0, sp, #36	; 0x24
    8440:	ebffff92 	bl	8290 <accel_init>
    8444:	e3a03002 	mov	r3, #2
    8448:	e3a02000 	mov	r2, #0
    844c:	e1a01002 	mov	r1, r2
    8450:	e1a00002 	mov	r0, r2
    8454:	ebffff0d 	bl	8090 <test_mg>
    8458:	e3a03002 	mov	r3, #2
    845c:	e3a02069 	mov	r2, #105	; 0x69
    8460:	e3a01016 	mov	r1, #22
    8464:	e59f00bc 	ldr	r0, [pc, #188]	; 8528 <do_accel_test+0x100>
    8468:	ebffff08 	bl	8090 <test_mg>
    846c:	e3a03002 	mov	r3, #2
    8470:	e3a02009 	mov	r2, #9
    8474:	e3a01040 	mov	r1, #64	; 0x40
    8478:	e3a00ffa 	mov	r0, #1000	; 0x3e8
    847c:	ebffff03 	bl	8090 <test_mg>
    8480:	e3a03002 	mov	r3, #2
    8484:	e3a02097 	mov	r2, #151	; 0x97
    8488:	e3a010e9 	mov	r1, #233	; 0xe9
    848c:	e59f0098 	ldr	r0, [pc, #152]	; 852c <do_accel_test+0x104>
    8490:	ebfffefe 	bl	8090 <test_mg>
    8494:	e3a03002 	mov	r3, #2
    8498:	e3a020f7 	mov	r2, #247	; 0xf7
    849c:	e3a010bf 	mov	r1, #191	; 0xbf
    84a0:	e59f0088 	ldr	r0, [pc, #136]	; 8530 <do_accel_test+0x108>
    84a4:	ebfffef9 	bl	8090 <test_mg>
    84a8:	e3a06000 	mov	r6, #0
    84ac:	ea000019 	b	8518 <do_accel_test+0xf0>
    84b0:	e28d4018 	add	r4, sp, #24
    84b4:	e28d1024 	add	r1, sp, #36	; 0x24
    84b8:	e1a00004 	mov	r0, r4
    84bc:	ebffff55 	bl	8218 <accel_rd>
    84c0:	e59d3020 	ldr	r3, [sp, #32]
    84c4:	e59d201c 	ldr	r2, [sp, #28]
    84c8:	e59d1018 	ldr	r1, [sp, #24]
    84cc:	e59f0060 	ldr	r0, [pc, #96]	; 8534 <do_accel_test+0x10c>
    84d0:	eb000193 	bl	8b24 <printk>
    84d4:	e28d5008 	add	r5, sp, #8
    84d8:	e59d3020 	ldr	r3, [sp, #32]
    84dc:	e58d3000 	str	r3, [sp]
    84e0:	e894000c 	ldm	r4, {r2, r3}
    84e4:	e28d1024 	add	r1, sp, #36	; 0x24
    84e8:	e1a00005 	mov	r0, r5
    84ec:	ebffff29 	bl	8198 <accel_scale>
    84f0:	e8950007 	ldm	r5, {r0, r1, r2}
    84f4:	e8840007 	stm	r4, {r0, r1, r2}
    84f8:	e59d3020 	ldr	r3, [sp, #32]
    84fc:	e59d201c 	ldr	r2, [sp, #28]
    8500:	e59d1018 	ldr	r1, [sp, #24]
    8504:	e59f002c 	ldr	r0, [pc, #44]	; 8538 <do_accel_test+0x110>
    8508:	eb000185 	bl	8b24 <printk>
    850c:	e3a00f7d 	mov	r0, #500	; 0x1f4
    8510:	eb00035e 	bl	9290 <delay_ms>
    8514:	e2866001 	add	r6, r6, #1
    8518:	e3560009 	cmp	r6, #9
    851c:	daffffe3 	ble	84b0 <do_accel_test+0x88>
    8520:	e28dd030 	add	sp, sp, #48	; 0x30
    8524:	e8bd8070 	pop	{r4, r5, r6, pc}
    8528:	0000015e 	andeq	r0, r0, lr, asr r1
    852c:	fffffea2 			; <UNDEFINED> instruction: 0xfffffea2
    8530:	fffffc18 			; <UNDEFINED> instruction: 0xfffffc18
    8534:	00009768 	andeq	r9, r0, r8, ror #14
    8538:	0000978c 	andeq	r9, r0, ip, lsl #15

0000853c <notmain>:
    853c:	e92d4010 	push	{r4, lr}
    8540:	e24dd008 	sub	sp, sp, #8
    8544:	eb00037c 	bl	933c <uart_init>
    8548:	e3a00064 	mov	r0, #100	; 0x64
    854c:	eb00034f 	bl	9290 <delay_ms>
    8550:	eb000148 	bl	8a78 <i2c_init>
    8554:	e3a00064 	mov	r0, #100	; 0x64
    8558:	eb00034c 	bl	9290 <delay_ms>
    855c:	e3a0100f 	mov	r1, #15
    8560:	e3a0006b 	mov	r0, #107	; 0x6b
    8564:	ebfffee3 	bl	80f8 <imu_rd>
    8568:	e3500069 	cmp	r0, #105	; 0x69
    856c:	0a00000a 	beq	859c <notmain+0x60>
    8570:	e1a04000 	mov	r4, r0
    8574:	eb0002de 	bl	90f4 <rpi_reset_putc>
    8578:	e58d4004 	str	r4, [sp, #4]
    857c:	e3a03069 	mov	r3, #105	; 0x69
    8580:	e58d3000 	str	r3, [sp]
    8584:	e3a030d9 	mov	r3, #217	; 0xd9
    8588:	e59f201c 	ldr	r2, [pc, #28]	; 85ac <notmain+0x70>
    858c:	e59f101c 	ldr	r1, [pc, #28]	; 85b0 <notmain+0x74>
    8590:	e59f001c 	ldr	r0, [pc, #28]	; 85b4 <notmain+0x78>
    8594:	eb000162 	bl	8b24 <printk>
    8598:	eb00031a 	bl	9208 <clean_reboot>
    859c:	e59f0014 	ldr	r0, [pc, #20]	; 85b8 <notmain+0x7c>
    85a0:	eb00015f 	bl	8b24 <printk>
    85a4:	ebffff9f 	bl	8428 <do_accel_test>
    85a8:	eb000316 	bl	9208 <clean_reboot>
    85ac:	00009634 	andeq	r9, r0, r4, lsr r6
    85b0:	0000963c 	andeq	r9, r0, ip, lsr r6
    85b4:	000097b8 			; <UNDEFINED> instruction: 0x000097b8
    85b8:	000097f4 	strdeq	r9, [r0], -r4

000085bc <clear_c>:
    85bc:	e3c0000e 	bic	r0, r0, #14
    85c0:	e3c00040 	bic	r0, r0, #64	; 0x40
    85c4:	e3c00b1e 	bic	r0, r0, #30720	; 0x7800
    85c8:	e6ff0070 	uxth	r0, r0
    85cc:	e12fff1e 	bx	lr

000085d0 <clear_s>:
    85d0:	e1a00b00 	lsl	r0, r0, #22
    85d4:	e1a00b20 	lsr	r0, r0, #22
    85d8:	e12fff1e 	bx	lr

000085dc <check_layout>:
    85dc:	e52de004 	push	{lr}		; (str lr, [sp, #-4]!)
    85e0:	e49df004 	pop	{pc}		; (ldr pc, [sp], #4)

000085e4 <xfer_end>:
    85e4:	e92d4010 	push	{r4, lr}
    85e8:	e59f30c0 	ldr	r3, [pc, #192]	; 86b0 <xfer_end+0xcc>
    85ec:	e5933004 	ldr	r3, [r3, #4]
    85f0:	e3130002 	tst	r3, #2
    85f4:	1a000015 	bne	8650 <xfer_end+0x6c>
    85f8:	e59f30b0 	ldr	r3, [pc, #176]	; 86b0 <xfer_end+0xcc>
    85fc:	e5933004 	ldr	r3, [r3, #4]
    8600:	e3130c01 	tst	r3, #256	; 0x100
    8604:	1a00000a 	bne	8634 <xfer_end+0x50>
    8608:	e59f30a0 	ldr	r3, [pc, #160]	; 86b0 <xfer_end+0xcc>
    860c:	e5933004 	ldr	r3, [r3, #4]
    8610:	e3130c02 	tst	r3, #512	; 0x200
    8614:	0afffff3 	beq	85e8 <xfer_end+0x4>
    8618:	eb0002b5 	bl	90f4 <rpi_reset_putc>
    861c:	e59f3090 	ldr	r3, [pc, #144]	; 86b4 <xfer_end+0xd0>
    8620:	e59f2090 	ldr	r2, [pc, #144]	; 86b8 <xfer_end+0xd4>
    8624:	e59f1090 	ldr	r1, [pc, #144]	; 86bc <xfer_end+0xd8>
    8628:	e59f0090 	ldr	r0, [pc, #144]	; 86c0 <xfer_end+0xdc>
    862c:	eb00013c 	bl	8b24 <printk>
    8630:	eb0002f4 	bl	9208 <clean_reboot>
    8634:	eb0002ae 	bl	90f4 <rpi_reset_putc>
    8638:	e59f3074 	ldr	r3, [pc, #116]	; 86b4 <xfer_end+0xd0>
    863c:	e59f2074 	ldr	r2, [pc, #116]	; 86b8 <xfer_end+0xd4>
    8640:	e59f1074 	ldr	r1, [pc, #116]	; 86bc <xfer_end+0xd8>
    8644:	e59f0078 	ldr	r0, [pc, #120]	; 86c4 <xfer_end+0xe0>
    8648:	eb000135 	bl	8b24 <printk>
    864c:	eb0002ed 	bl	9208 <clean_reboot>
    8650:	e59f3058 	ldr	r3, [pc, #88]	; 86b0 <xfer_end+0xcc>
    8654:	e5933004 	ldr	r3, [r3, #4]
    8658:	e3130001 	tst	r3, #1
    865c:	1a000005 	bne	8678 <xfer_end+0x94>
    8660:	e59f3048 	ldr	r3, [pc, #72]	; 86b0 <xfer_end+0xcc>
    8664:	e5933004 	ldr	r3, [r3, #4]
    8668:	e3130c01 	tst	r3, #256	; 0x100
    866c:	1a000008 	bne	8694 <xfer_end+0xb0>
    8670:	eb000310 	bl	92b8 <dev_barrier>
    8674:	e8bd8010 	pop	{r4, pc}
    8678:	eb00029d 	bl	90f4 <rpi_reset_putc>
    867c:	e59f3044 	ldr	r3, [pc, #68]	; 86c8 <xfer_end+0xe4>
    8680:	e59f2030 	ldr	r2, [pc, #48]	; 86b8 <xfer_end+0xd4>
    8684:	e59f1030 	ldr	r1, [pc, #48]	; 86bc <xfer_end+0xd8>
    8688:	e59f003c 	ldr	r0, [pc, #60]	; 86cc <xfer_end+0xe8>
    868c:	eb000124 	bl	8b24 <printk>
    8690:	eb0002dc 	bl	9208 <clean_reboot>
    8694:	eb000296 	bl	90f4 <rpi_reset_putc>
    8698:	e3a03f46 	mov	r3, #280	; 0x118
    869c:	e59f2014 	ldr	r2, [pc, #20]	; 86b8 <xfer_end+0xd4>
    86a0:	e59f1014 	ldr	r1, [pc, #20]	; 86bc <xfer_end+0xd8>
    86a4:	e59f0024 	ldr	r0, [pc, #36]	; 86d0 <xfer_end+0xec>
    86a8:	eb00011d 	bl	8b24 <printk>
    86ac:	eb0002d5 	bl	9208 <clean_reboot>
    86b0:	20804000 	addcs	r4, r0, r0
    86b4:	00000113 	andeq	r0, r0, r3, lsl r1
    86b8:	0000982c 	andeq	r9, r0, ip, lsr #16
    86bc:	00009868 	andeq	r9, r0, r8, ror #16
    86c0:	00009984 	andeq	r9, r0, r4, lsl #19
    86c4:	00009960 	andeq	r9, r0, r0, ror #18
    86c8:	00000116 	andeq	r0, r0, r6, lsl r1
    86cc:	000099b4 			; <UNDEFINED> instruction: 0x000099b4
    86d0:	000099d8 	ldrdeq	r9, [r0], -r8

000086d4 <read_s>:
    86d4:	e92d4010 	push	{r4, lr}
    86d8:	eb000308 	bl	9300 <get32>
    86dc:	ebffffbb 	bl	85d0 <clear_s>
    86e0:	e8bd8010 	pop	{r4, pc}

000086e4 <reset_status>:
    86e4:	e92d4010 	push	{r4, lr}
    86e8:	e59f4018 	ldr	r4, [pc, #24]	; 8708 <reset_status+0x24>
    86ec:	e1a00004 	mov	r0, r4
    86f0:	ebfffff7 	bl	86d4 <read_s>
    86f4:	e3801002 	orr	r1, r0, #2
    86f8:	e3811c03 	orr	r1, r1, #768	; 0x300
    86fc:	e1a00004 	mov	r0, r4
    8700:	eb0002f2 	bl	92d0 <put32>
    8704:	e8bd8010 	pop	{r4, pc}
    8708:	20804004 	addcs	r4, r0, r4

0000870c <read_c>:
    870c:	e92d4010 	push	{r4, lr}
    8710:	eb0002fa 	bl	9300 <get32>
    8714:	ebffffa8 	bl	85bc <clear_c>
    8718:	e8bd8010 	pop	{r4, pc}

0000871c <xfer_start>:
    871c:	e92d4070 	push	{r4, r5, r6, lr}
    8720:	e1a06000 	mov	r6, r0
    8724:	e1a05001 	mov	r5, r1
    8728:	e1a04002 	mov	r4, r2
    872c:	eb0002e1 	bl	92b8 <dev_barrier>
    8730:	e59f3180 	ldr	r3, [pc, #384]	; 88b8 <xfer_start+0x19c>
    8734:	e5933004 	ldr	r3, [r3, #4]
    8738:	e3130001 	tst	r3, #1
    873c:	0a000015 	beq	8798 <xfer_start+0x7c>
    8740:	e59f3170 	ldr	r3, [pc, #368]	; 88b8 <xfer_start+0x19c>
    8744:	e5933004 	ldr	r3, [r3, #4]
    8748:	e3130c01 	tst	r3, #256	; 0x100
    874c:	1a00000a 	bne	877c <xfer_start+0x60>
    8750:	e59f3160 	ldr	r3, [pc, #352]	; 88b8 <xfer_start+0x19c>
    8754:	e5933004 	ldr	r3, [r3, #4]
    8758:	e3130c02 	tst	r3, #512	; 0x200
    875c:	0afffff3 	beq	8730 <xfer_start+0x14>
    8760:	eb000263 	bl	90f4 <rpi_reset_putc>
    8764:	e3a030f3 	mov	r3, #243	; 0xf3
    8768:	e59f214c 	ldr	r2, [pc, #332]	; 88bc <xfer_start+0x1a0>
    876c:	e59f114c 	ldr	r1, [pc, #332]	; 88c0 <xfer_start+0x1a4>
    8770:	e59f014c 	ldr	r0, [pc, #332]	; 88c4 <xfer_start+0x1a8>
    8774:	eb0000ea 	bl	8b24 <printk>
    8778:	eb0002a2 	bl	9208 <clean_reboot>
    877c:	eb00025c 	bl	90f4 <rpi_reset_putc>
    8780:	e3a030f3 	mov	r3, #243	; 0xf3
    8784:	e59f2130 	ldr	r2, [pc, #304]	; 88bc <xfer_start+0x1a0>
    8788:	e59f1130 	ldr	r1, [pc, #304]	; 88c0 <xfer_start+0x1a4>
    878c:	e59f0134 	ldr	r0, [pc, #308]	; 88c8 <xfer_start+0x1ac>
    8790:	eb0000e3 	bl	8b24 <printk>
    8794:	eb00029b 	bl	9208 <clean_reboot>
    8798:	e59f3118 	ldr	r3, [pc, #280]	; 88b8 <xfer_start+0x19c>
    879c:	e5933004 	ldr	r3, [r3, #4]
    87a0:	e3130040 	tst	r3, #64	; 0x40
    87a4:	0a000026 	beq	8844 <xfer_start+0x128>
    87a8:	ebffffcd 	bl	86e4 <reset_status>
    87ac:	e1b033a6 	lsrs	r3, r6, #7
    87b0:	1a00002a 	bne	8860 <xfer_start+0x144>
    87b4:	e1a01006 	mov	r1, r6
    87b8:	e59f010c 	ldr	r0, [pc, #268]	; 88cc <xfer_start+0x1b0>
    87bc:	eb0002c3 	bl	92d0 <put32>
    87c0:	e1b03825 	lsrs	r3, r5, #16
    87c4:	1a00002c 	bne	887c <xfer_start+0x160>
    87c8:	e1a01005 	mov	r1, r5
    87cc:	e59f00fc 	ldr	r0, [pc, #252]	; 88d0 <xfer_start+0x1b4>
    87d0:	eb0002be 	bl	92d0 <put32>
    87d4:	e59f50dc 	ldr	r5, [pc, #220]	; 88b8 <xfer_start+0x19c>
    87d8:	e1a00005 	mov	r0, r5
    87dc:	ebffffca 	bl	870c <read_c>
    87e0:	e38000b0 	orr	r0, r0, #176	; 0xb0
    87e4:	e2041001 	and	r1, r4, #1
    87e8:	e3c00001 	bic	r0, r0, #1
    87ec:	e1811000 	orr	r1, r1, r0
    87f0:	e1a00005 	mov	r0, r5
    87f4:	eb0002b5 	bl	92d0 <put32>
    87f8:	e59f30b8 	ldr	r3, [pc, #184]	; 88b8 <xfer_start+0x19c>
    87fc:	e5933004 	ldr	r3, [r3, #4]
    8800:	e3130001 	tst	r3, #1
    8804:	1a00002a 	bne	88b4 <xfer_start+0x198>
    8808:	e59f30a8 	ldr	r3, [pc, #168]	; 88b8 <xfer_start+0x19c>
    880c:	e5933004 	ldr	r3, [r3, #4]
    8810:	e3130c01 	tst	r3, #256	; 0x100
    8814:	1a00001f 	bne	8898 <xfer_start+0x17c>
    8818:	e59f3098 	ldr	r3, [pc, #152]	; 88b8 <xfer_start+0x19c>
    881c:	e5933004 	ldr	r3, [r3, #4]
    8820:	e3130c02 	tst	r3, #512	; 0x200
    8824:	0afffff3 	beq	87f8 <xfer_start+0xdc>
    8828:	eb000231 	bl	90f4 <rpi_reset_putc>
    882c:	e59f30a0 	ldr	r3, [pc, #160]	; 88d4 <xfer_start+0x1b8>
    8830:	e59f2084 	ldr	r2, [pc, #132]	; 88bc <xfer_start+0x1a0>
    8834:	e59f1084 	ldr	r1, [pc, #132]	; 88c0 <xfer_start+0x1a4>
    8838:	e59f0084 	ldr	r0, [pc, #132]	; 88c4 <xfer_start+0x1a8>
    883c:	eb0000b8 	bl	8b24 <printk>
    8840:	eb000270 	bl	9208 <clean_reboot>
    8844:	eb00022a 	bl	90f4 <rpi_reset_putc>
    8848:	e3a030f6 	mov	r3, #246	; 0xf6
    884c:	e59f2068 	ldr	r2, [pc, #104]	; 88bc <xfer_start+0x1a0>
    8850:	e59f1068 	ldr	r1, [pc, #104]	; 88c0 <xfer_start+0x1a4>
    8854:	e59f007c 	ldr	r0, [pc, #124]	; 88d8 <xfer_start+0x1bc>
    8858:	eb0000b1 	bl	8b24 <printk>
    885c:	eb000269 	bl	9208 <clean_reboot>
    8860:	eb000223 	bl	90f4 <rpi_reset_putc>
    8864:	e3a030fb 	mov	r3, #251	; 0xfb
    8868:	e59f204c 	ldr	r2, [pc, #76]	; 88bc <xfer_start+0x1a0>
    886c:	e59f104c 	ldr	r1, [pc, #76]	; 88c0 <xfer_start+0x1a4>
    8870:	e59f0064 	ldr	r0, [pc, #100]	; 88dc <xfer_start+0x1c0>
    8874:	eb0000aa 	bl	8b24 <printk>
    8878:	eb000262 	bl	9208 <clean_reboot>
    887c:	eb00021c 	bl	90f4 <rpi_reset_putc>
    8880:	e3a030ff 	mov	r3, #255	; 0xff
    8884:	e59f2030 	ldr	r2, [pc, #48]	; 88bc <xfer_start+0x1a0>
    8888:	e59f1030 	ldr	r1, [pc, #48]	; 88c0 <xfer_start+0x1a4>
    888c:	e59f004c 	ldr	r0, [pc, #76]	; 88e0 <xfer_start+0x1c4>
    8890:	eb0000a3 	bl	8b24 <printk>
    8894:	eb00025b 	bl	9208 <clean_reboot>
    8898:	eb000215 	bl	90f4 <rpi_reset_putc>
    889c:	e59f3030 	ldr	r3, [pc, #48]	; 88d4 <xfer_start+0x1b8>
    88a0:	e59f2014 	ldr	r2, [pc, #20]	; 88bc <xfer_start+0x1a0>
    88a4:	e59f1014 	ldr	r1, [pc, #20]	; 88c0 <xfer_start+0x1a4>
    88a8:	e59f0018 	ldr	r0, [pc, #24]	; 88c8 <xfer_start+0x1ac>
    88ac:	eb00009c 	bl	8b24 <printk>
    88b0:	eb000254 	bl	9208 <clean_reboot>
    88b4:	e8bd8070 	pop	{r4, r5, r6, pc}
    88b8:	20804000 	addcs	r4, r0, r0
    88bc:	00009838 	andeq	r9, r0, r8, lsr r8
    88c0:	00009868 	andeq	r9, r0, r8, ror #16
    88c4:	00009984 	andeq	r9, r0, r4, lsl #19
    88c8:	00009960 	andeq	r9, r0, r0, ror #18
    88cc:	2080400c 	addcs	r4, r0, ip
    88d0:	20804008 	addcs	r4, r0, r8
    88d4:	0000010e 	andeq	r0, r0, lr, lsl #2
    88d8:	000099fc 	strdeq	r9, [r0], -ip
    88dc:	00009a24 	andeq	r9, r0, r4, lsr #20
    88e0:	00009a48 	andeq	r9, r0, r8, asr #20

000088e4 <i2c_write>:
    88e4:	e92d4070 	push	{r4, r5, r6, lr}
    88e8:	e1a05001 	mov	r5, r1
    88ec:	e1a04002 	mov	r4, r2
    88f0:	e3a02000 	mov	r2, #0
    88f4:	e1a01004 	mov	r1, r4
    88f8:	ebffff87 	bl	871c <xfer_start>
    88fc:	e3a02000 	mov	r2, #0
    8900:	ea00000a 	b	8930 <i2c_write+0x4c>
    8904:	eb0001fa 	bl	90f4 <rpi_reset_putc>
    8908:	e59f3080 	ldr	r3, [pc, #128]	; 8990 <i2c_write+0xac>
    890c:	e59f2080 	ldr	r2, [pc, #128]	; 8994 <i2c_write+0xb0>
    8910:	e59f1080 	ldr	r1, [pc, #128]	; 8998 <i2c_write+0xb4>
    8914:	e59f0080 	ldr	r0, [pc, #128]	; 899c <i2c_write+0xb8>
    8918:	eb000081 	bl	8b24 <printk>
    891c:	eb000239 	bl	9208 <clean_reboot>
    8920:	e7d51002 	ldrb	r1, [r5, r2]
    8924:	e59f3074 	ldr	r3, [pc, #116]	; 89a0 <i2c_write+0xbc>
    8928:	e5831010 	str	r1, [r3, #16]
    892c:	e2822001 	add	r2, r2, #1
    8930:	e1520004 	cmp	r2, r4
    8934:	2a000012 	bcs	8984 <i2c_write+0xa0>
    8938:	e59f3060 	ldr	r3, [pc, #96]	; 89a0 <i2c_write+0xbc>
    893c:	e5933004 	ldr	r3, [r3, #4]
    8940:	e3130010 	tst	r3, #16
    8944:	1afffff5 	bne	8920 <i2c_write+0x3c>
    8948:	e59f3050 	ldr	r3, [pc, #80]	; 89a0 <i2c_write+0xbc>
    894c:	e5933004 	ldr	r3, [r3, #4]
    8950:	e3130c01 	tst	r3, #256	; 0x100
    8954:	1affffea 	bne	8904 <i2c_write+0x20>
    8958:	e59f3040 	ldr	r3, [pc, #64]	; 89a0 <i2c_write+0xbc>
    895c:	e5933004 	ldr	r3, [r3, #4]
    8960:	e3130c02 	tst	r3, #512	; 0x200
    8964:	0afffff3 	beq	8938 <i2c_write+0x54>
    8968:	eb0001e1 	bl	90f4 <rpi_reset_putc>
    896c:	e59f301c 	ldr	r3, [pc, #28]	; 8990 <i2c_write+0xac>
    8970:	e59f201c 	ldr	r2, [pc, #28]	; 8994 <i2c_write+0xb0>
    8974:	e59f101c 	ldr	r1, [pc, #28]	; 8998 <i2c_write+0xb4>
    8978:	e59f0024 	ldr	r0, [pc, #36]	; 89a4 <i2c_write+0xc0>
    897c:	eb000068 	bl	8b24 <printk>
    8980:	eb000220 	bl	9208 <clean_reboot>
    8984:	ebffff16 	bl	85e4 <xfer_end>
    8988:	e3a00001 	mov	r0, #1
    898c:	e8bd8070 	pop	{r4, r5, r6, pc}
    8990:	00000123 	andeq	r0, r0, r3, lsr #2
    8994:	00009844 	andeq	r9, r0, r4, asr #16
    8998:	00009868 	andeq	r9, r0, r8, ror #16
    899c:	00009960 	andeq	r9, r0, r0, ror #18
    89a0:	20804000 	addcs	r4, r0, r0
    89a4:	00009984 	andeq	r9, r0, r4, lsl #19

000089a8 <i2c_read>:
    89a8:	e92d4070 	push	{r4, r5, r6, lr}
    89ac:	e1a05001 	mov	r5, r1
    89b0:	e1a04002 	mov	r4, r2
    89b4:	e3a02001 	mov	r2, #1
    89b8:	e1a01004 	mov	r1, r4
    89bc:	ebffff56 	bl	871c <xfer_start>
    89c0:	e3a02000 	mov	r2, #0
    89c4:	ea00000a 	b	89f4 <i2c_read+0x4c>
    89c8:	eb0001c9 	bl	90f4 <rpi_reset_putc>
    89cc:	e3a03f4d 	mov	r3, #308	; 0x134
    89d0:	e59f207c 	ldr	r2, [pc, #124]	; 8a54 <i2c_read+0xac>
    89d4:	e59f107c 	ldr	r1, [pc, #124]	; 8a58 <i2c_read+0xb0>
    89d8:	e59f007c 	ldr	r0, [pc, #124]	; 8a5c <i2c_read+0xb4>
    89dc:	eb000050 	bl	8b24 <printk>
    89e0:	eb000208 	bl	9208 <clean_reboot>
    89e4:	e59f3074 	ldr	r3, [pc, #116]	; 8a60 <i2c_read+0xb8>
    89e8:	e5933010 	ldr	r3, [r3, #16]
    89ec:	e7c53002 	strb	r3, [r5, r2]
    89f0:	e2822001 	add	r2, r2, #1
    89f4:	e1520004 	cmp	r2, r4
    89f8:	2a000012 	bcs	8a48 <i2c_read+0xa0>
    89fc:	e59f305c 	ldr	r3, [pc, #92]	; 8a60 <i2c_read+0xb8>
    8a00:	e5933004 	ldr	r3, [r3, #4]
    8a04:	e3130020 	tst	r3, #32
    8a08:	1afffff5 	bne	89e4 <i2c_read+0x3c>
    8a0c:	e59f304c 	ldr	r3, [pc, #76]	; 8a60 <i2c_read+0xb8>
    8a10:	e5933004 	ldr	r3, [r3, #4]
    8a14:	e3130c01 	tst	r3, #256	; 0x100
    8a18:	1affffea 	bne	89c8 <i2c_read+0x20>
    8a1c:	e59f303c 	ldr	r3, [pc, #60]	; 8a60 <i2c_read+0xb8>
    8a20:	e5933004 	ldr	r3, [r3, #4]
    8a24:	e3130c02 	tst	r3, #512	; 0x200
    8a28:	0afffff3 	beq	89fc <i2c_read+0x54>
    8a2c:	eb0001b0 	bl	90f4 <rpi_reset_putc>
    8a30:	e3a03f4d 	mov	r3, #308	; 0x134
    8a34:	e59f2018 	ldr	r2, [pc, #24]	; 8a54 <i2c_read+0xac>
    8a38:	e59f1018 	ldr	r1, [pc, #24]	; 8a58 <i2c_read+0xb0>
    8a3c:	e59f0020 	ldr	r0, [pc, #32]	; 8a64 <i2c_read+0xbc>
    8a40:	eb000037 	bl	8b24 <printk>
    8a44:	eb0001ef 	bl	9208 <clean_reboot>
    8a48:	ebfffee5 	bl	85e4 <xfer_end>
    8a4c:	e3a00001 	mov	r0, #1
    8a50:	e8bd8070 	pop	{r4, r5, r6, pc}
    8a54:	00009850 	andeq	r9, r0, r0, asr r8
    8a58:	00009868 	andeq	r9, r0, r8, ror #16
    8a5c:	00009960 	andeq	r9, r0, r0, ror #18
    8a60:	20804000 	addcs	r4, r0, r0
    8a64:	00009984 	andeq	r9, r0, r4, lsl #19

00008a68 <i2c_is_initialized>:
    8a68:	e59f3004 	ldr	r3, [pc, #4]	; 8a74 <i2c_is_initialized+0xc>
    8a6c:	e5930000 	ldr	r0, [r3]
    8a70:	e12fff1e 	bx	lr
    8a74:	00009b8c 	andeq	r9, r0, ip, lsl #23

00008a78 <i2c_init>:
    8a78:	e92d4010 	push	{r4, lr}
    8a7c:	ebfffed6 	bl	85dc <check_layout>
    8a80:	eb00020c 	bl	92b8 <dev_barrier>
    8a84:	e3a01004 	mov	r1, #4
    8a88:	e3a00002 	mov	r0, #2
    8a8c:	eb00027a 	bl	947c <gpio_set_function>
    8a90:	e3a01004 	mov	r1, #4
    8a94:	e3a00003 	mov	r0, #3
    8a98:	eb000277 	bl	947c <gpio_set_function>
    8a9c:	eb000205 	bl	92b8 <dev_barrier>
    8aa0:	e59f404c 	ldr	r4, [pc, #76]	; 8af4 <i2c_init+0x7c>
    8aa4:	e3a01902 	mov	r1, #32768	; 0x8000
    8aa8:	e1a00004 	mov	r0, r4
    8aac:	eb000207 	bl	92d0 <put32>
    8ab0:	eb000200 	bl	92b8 <dev_barrier>
    8ab4:	ebffff0a 	bl	86e4 <reset_status>
    8ab8:	eb0001fe 	bl	92b8 <dev_barrier>
    8abc:	e5943004 	ldr	r3, [r4, #4]
    8ac0:	e3130001 	tst	r3, #1
    8ac4:	1a000003 	bne	8ad8 <i2c_init+0x60>
    8ac8:	e3a02001 	mov	r2, #1
    8acc:	e59f3024 	ldr	r3, [pc, #36]	; 8af8 <i2c_init+0x80>
    8ad0:	e5832000 	str	r2, [r3]
    8ad4:	e8bd8010 	pop	{r4, pc}
    8ad8:	eb000185 	bl	90f4 <rpi_reset_putc>
    8adc:	e59f3018 	ldr	r3, [pc, #24]	; 8afc <i2c_init+0x84>
    8ae0:	e59f2018 	ldr	r2, [pc, #24]	; 8b00 <i2c_init+0x88>
    8ae4:	e59f1018 	ldr	r1, [pc, #24]	; 8b04 <i2c_init+0x8c>
    8ae8:	e59f0018 	ldr	r0, [pc, #24]	; 8b08 <i2c_init+0x90>
    8aec:	eb00000c 	bl	8b24 <printk>
    8af0:	eb0001c4 	bl	9208 <clean_reboot>
    8af4:	20804000 	addcs	r4, r0, r0
    8af8:	00009b8c 	andeq	r9, r0, ip, lsl #23
    8afc:	00000162 	andeq	r0, r0, r2, ror #2
    8b00:	0000985c 	andeq	r9, r0, ip, asr r8
    8b04:	00009868 	andeq	r9, r0, r8, ror #16
    8b08:	000099b4 			; <UNDEFINED> instruction: 0x000099b4

00008b0c <i2c_init_once>:
    8b0c:	e92d4010 	push	{r4, lr}
    8b10:	ebffffd4 	bl	8a68 <i2c_is_initialized>
    8b14:	e3500000 	cmp	r0, #0
    8b18:	18bd8010 	popne	{r4, pc}
    8b1c:	ebffffd5 	bl	8a78 <i2c_init>
    8b20:	e8bd8010 	pop	{r4, pc}

00008b24 <printk>:
    8b24:	e92d000f 	push	{r0, r1, r2, r3}
    8b28:	e92d4030 	push	{r4, r5, lr}
    8b2c:	e24dd00c 	sub	sp, sp, #12
    8b30:	e28d301c 	add	r3, sp, #28
    8b34:	e58d3004 	str	r3, [sp, #4]
    8b38:	e59f4034 	ldr	r4, [pc, #52]	; 8b74 <printk+0x50>
    8b3c:	e59d2018 	ldr	r2, [sp, #24]
    8b40:	e3a01b01 	mov	r1, #1024	; 0x400
    8b44:	e1a00004 	mov	r0, r4
    8b48:	eb0000a7 	bl	8dec <va_printk>
    8b4c:	e1a05000 	mov	r5, r0
    8b50:	e59f3020 	ldr	r3, [pc, #32]	; 8b78 <printk+0x54>
    8b54:	e5933000 	ldr	r3, [r3]
    8b58:	e1a00004 	mov	r0, r4
    8b5c:	e12fff33 	blx	r3
    8b60:	e1a00005 	mov	r0, r5
    8b64:	e28dd00c 	add	sp, sp, #12
    8b68:	e8bd4030 	pop	{r4, r5, lr}
    8b6c:	e28dd010 	add	sp, sp, #16
    8b70:	e12fff1e 	bx	lr
    8b74:	00009b90 	muleq	r0, r0, fp
    8b78:	0000960c 	andeq	r9, r0, ip, lsl #12

00008b7c <isdigit>:
    8b7c:	e2400030 	sub	r0, r0, #48	; 0x30
    8b80:	e3500009 	cmp	r0, #9
    8b84:	83a00000 	movhi	r0, #0
    8b88:	93a00001 	movls	r0, #1
    8b8c:	e12fff1e 	bx	lr

00008b90 <pad>:
    8b90:	e0401001 	sub	r1, r0, r1
    8b94:	ea000003 	b	8ba8 <pad+0x18>
    8b98:	e3a03020 	mov	r3, #32
    8b9c:	e5c03000 	strb	r3, [r0]
    8ba0:	e2811001 	add	r1, r1, #1
    8ba4:	e2800001 	add	r0, r0, #1
    8ba8:	e1510002 	cmp	r1, r2
    8bac:	bafffff9 	blt	8b98 <pad+0x8>
    8bb0:	e3a03000 	mov	r3, #0
    8bb4:	e5c03000 	strb	r3, [r0]
    8bb8:	e12fff1e 	bx	lr

00008bbc <reverse>:
    8bbc:	e042c003 	sub	ip, r2, r3
    8bc0:	e28cc001 	add	ip, ip, #1
    8bc4:	e15c0001 	cmp	ip, r1
    8bc8:	c04cc001 	subgt	ip, ip, r1
    8bcc:	c083300c 	addgt	r3, r3, ip
    8bd0:	e2422001 	sub	r2, r2, #1
    8bd4:	e1a01000 	mov	r1, r0
    8bd8:	ea000002 	b	8be8 <reverse+0x2c>
    8bdc:	e452c001 	ldrb	ip, [r2], #-1
    8be0:	e5c1c000 	strb	ip, [r1]
    8be4:	e2811001 	add	r1, r1, #1
    8be8:	e1520003 	cmp	r2, r3
    8bec:	2afffffa 	bcs	8bdc <reverse+0x20>
    8bf0:	e3a03000 	mov	r3, #0
    8bf4:	e5c13000 	strb	r3, [r1]
    8bf8:	e12fff1e 	bx	lr

00008bfc <emit>:
    8bfc:	e92d40f0 	push	{r4, r5, r6, r7, lr}
    8c00:	e24dd044 	sub	sp, sp, #68	; 0x44
    8c04:	e1a05001 	mov	r5, r1
    8c08:	e1a04002 	mov	r4, r2
    8c0c:	e59d2058 	ldr	r2, [sp, #88]	; 0x58
    8c10:	e1520004 	cmp	r2, r4
    8c14:	c2442001 	subgt	r2, r4, #1
    8c18:	e1a01003 	mov	r1, r3
    8c1c:	e2400002 	sub	r0, r0, #2
    8c20:	e350000e 	cmp	r0, #14
    8c24:	979ff100 	ldrls	pc, [pc, r0, lsl #2]
    8c28:	ea00004c 	b	8d60 <emit+0x164>
    8c2c:	00008d38 	andeq	r8, r0, r8, lsr sp
    8c30:	00008d60 	andeq	r8, r0, r0, ror #26
    8c34:	00008d60 	andeq	r8, r0, r0, ror #26
    8c38:	00008d60 	andeq	r8, r0, r0, ror #26
    8c3c:	00008d60 	andeq	r8, r0, r0, ror #26
    8c40:	00008d60 	andeq	r8, r0, r0, ror #26
    8c44:	00008d2c 	andeq	r8, r0, ip, lsr #26
    8c48:	00008d60 	andeq	r8, r0, r0, ror #26
    8c4c:	00008c68 	andeq	r8, r0, r8, ror #24
    8c50:	00008d60 	andeq	r8, r0, r0, ror #26
    8c54:	00008d60 	andeq	r8, r0, r0, ror #26
    8c58:	00008d60 	andeq	r8, r0, r0, ror #26
    8c5c:	00008d60 	andeq	r8, r0, r0, ror #26
    8c60:	00008d60 	andeq	r8, r0, r0, ror #26
    8c64:	00008ce4 	andeq	r8, r0, r4, ror #25
    8c68:	e59d005c 	ldr	r0, [sp, #92]	; 0x5c
    8c6c:	e2900000 	adds	r0, r0, #0
    8c70:	13a00001 	movne	r0, #1
    8c74:	e0100fa3 	ands	r0, r0, r3, lsr #31
    8c78:	0a000003 	beq	8c8c <emit+0x90>
    8c7c:	e2631000 	rsb	r1, r3, #0
    8c80:	e3a07001 	mov	r7, #1
    8c84:	e1a0c00d 	mov	ip, sp
    8c88:	ea000002 	b	8c98 <emit+0x9c>
    8c8c:	e3a07000 	mov	r7, #0
    8c90:	eafffffb 	b	8c84 <emit+0x88>
    8c94:	e1a0c000 	mov	ip, r0
    8c98:	e28c0001 	add	r0, ip, #1
    8c9c:	e59f30d8 	ldr	r3, [pc, #216]	; 8d7c <emit+0x180>
    8ca0:	e083e193 	umull	lr, r3, r3, r1
    8ca4:	e1a031a3 	lsr	r3, r3, #3
    8ca8:	e1a0e003 	mov	lr, r3
    8cac:	e0833103 	add	r3, r3, r3, lsl #2
    8cb0:	e1a06083 	lsl	r6, r3, #1
    8cb4:	e0413006 	sub	r3, r1, r6
    8cb8:	e59f10c0 	ldr	r1, [pc, #192]	; 8d80 <emit+0x184>
    8cbc:	e7d13003 	ldrb	r3, [r1, r3]
    8cc0:	e5cc3000 	strb	r3, [ip]
    8cc4:	e1a0100e 	mov	r1, lr
    8cc8:	e35e0000 	cmp	lr, #0
    8ccc:	1afffff0 	bne	8c94 <emit+0x98>
    8cd0:	e3570000 	cmp	r7, #0
    8cd4:	13a0302d 	movne	r3, #45	; 0x2d
    8cd8:	15c03000 	strbne	r3, [r0]
    8cdc:	128c0002 	addne	r0, ip, #2
    8ce0:	ea000008 	b	8d08 <emit+0x10c>
    8ce4:	e1a0300d 	mov	r3, sp
    8ce8:	e2830001 	add	r0, r3, #1
    8cec:	e201c00f 	and	ip, r1, #15
    8cf0:	e59fe08c 	ldr	lr, [pc, #140]	; 8d84 <emit+0x188>
    8cf4:	e7dec00c 	ldrb	ip, [lr, ip]
    8cf8:	e5c3c000 	strb	ip, [r3]
    8cfc:	e1a03000 	mov	r3, r0
    8d00:	e1b01221 	lsrs	r1, r1, #4
    8d04:	1afffff7 	bne	8ce8 <emit+0xec>
    8d08:	e1a0100d 	mov	r1, sp
    8d0c:	ebffff9f 	bl	8b90 <pad>
    8d10:	e1a0300d 	mov	r3, sp
    8d14:	e1a02000 	mov	r2, r0
    8d18:	e1a01004 	mov	r1, r4
    8d1c:	e1a00005 	mov	r0, r5
    8d20:	ebffffa5 	bl	8bbc <reverse>
    8d24:	e28dd044 	add	sp, sp, #68	; 0x44
    8d28:	e8bd80f0 	pop	{r4, r5, r6, r7, pc}
    8d2c:	e5cd3000 	strb	r3, [sp]
    8d30:	e28d0001 	add	r0, sp, #1
    8d34:	eafffff3 	b	8d08 <emit+0x10c>
    8d38:	e1a0300d 	mov	r3, sp
    8d3c:	e2830001 	add	r0, r3, #1
    8d40:	e201c001 	and	ip, r1, #1
    8d44:	e59fe03c 	ldr	lr, [pc, #60]	; 8d88 <emit+0x18c>
    8d48:	e7dec00c 	ldrb	ip, [lr, ip]
    8d4c:	e5c3c000 	strb	ip, [r3]
    8d50:	e1a03000 	mov	r3, r0
    8d54:	e1b010a1 	lsrs	r1, r1, #1
    8d58:	1afffff7 	bne	8d3c <emit+0x140>
    8d5c:	eaffffe9 	b	8d08 <emit+0x10c>
    8d60:	eb0000e3 	bl	90f4 <rpi_reset_putc>
    8d64:	e3a03075 	mov	r3, #117	; 0x75
    8d68:	e59f201c 	ldr	r2, [pc, #28]	; 8d8c <emit+0x190>
    8d6c:	e59f101c 	ldr	r1, [pc, #28]	; 8d90 <emit+0x194>
    8d70:	e59f001c 	ldr	r0, [pc, #28]	; 8d94 <emit+0x198>
    8d74:	ebffff6a 	bl	8b24 <printk>
    8d78:	eb000122 	bl	9208 <clean_reboot>
    8d7c:	cccccccd 	stclgt	12, cr12, [ip], {205}	; 0xcd
    8d80:	00009abc 			; <UNDEFINED> instruction: 0x00009abc
    8d84:	00009ac8 	andeq	r9, r0, r8, asr #21
    8d88:	00009adc 	ldrdeq	r9, [r0], -ip
    8d8c:	00009a70 	andeq	r9, r0, r0, ror sl
    8d90:	00009a94 	muleq	r0, r4, sl
    8d94:	00009aa8 	andeq	r9, r0, r8, lsr #21

00008d98 <rpi_set_output>:
    8d98:	e3500000 	cmp	r0, #0
    8d9c:	0a000005 	beq	8db8 <rpi_set_output+0x20>
    8da0:	e59f3030 	ldr	r3, [pc, #48]	; 8dd8 <rpi_set_output+0x40>
    8da4:	e5830000 	str	r0, [r3]
    8da8:	e3510000 	cmp	r1, #0
    8dac:	159f3028 	ldrne	r3, [pc, #40]	; 8ddc <rpi_set_output+0x44>
    8db0:	15831000 	strne	r1, [r3]
    8db4:	e12fff1e 	bx	lr
    8db8:	e92d4010 	push	{r4, lr}
    8dbc:	eb0000cc 	bl	90f4 <rpi_reset_putc>
    8dc0:	e3a03020 	mov	r3, #32
    8dc4:	e59f2014 	ldr	r2, [pc, #20]	; 8de0 <rpi_set_output+0x48>
    8dc8:	e59f1014 	ldr	r1, [pc, #20]	; 8de4 <rpi_set_output+0x4c>
    8dcc:	e59f0014 	ldr	r0, [pc, #20]	; 8de8 <rpi_set_output+0x50>
    8dd0:	ebffff53 	bl	8b24 <printk>
    8dd4:	eb00010b 	bl	9208 <clean_reboot>
    8dd8:	00009610 	andeq	r9, r0, r0, lsl r6
    8ddc:	0000960c 	andeq	r9, r0, ip, lsl #12
    8de0:	00009a78 	andeq	r9, r0, r8, ror sl
    8de4:	00009a94 	muleq	r0, r4, sl
    8de8:	00009ae0 	andeq	r9, r0, r0, ror #21

00008dec <va_printk>:
    8dec:	e92d43f0 	push	{r4, r5, r6, r7, r8, r9, lr}
    8df0:	e24dd094 	sub	sp, sp, #148	; 0x94
    8df4:	e1a09000 	mov	r9, r0
    8df8:	e58d300c 	str	r3, [sp, #12]
    8dfc:	e2411001 	sub	r1, r1, #1
    8e00:	e0808001 	add	r8, r0, r1
    8e04:	e3a03000 	mov	r3, #0
    8e08:	e5c03000 	strb	r3, [r0]
    8e0c:	e1a06000 	mov	r6, r0
    8e10:	e5d23000 	ldrb	r3, [r2]
    8e14:	e3530000 	cmp	r3, #0
    8e18:	0a000098 	beq	9080 <va_printk+0x294>
    8e1c:	e1560008 	cmp	r6, r8
    8e20:	2a000096 	bcs	9080 <va_printk+0x294>
    8e24:	e3530025 	cmp	r3, #37	; 0x25
    8e28:	12822001 	addne	r2, r2, #1
    8e2c:	15c63000 	strbne	r3, [r6]
    8e30:	12866001 	addne	r6, r6, #1
    8e34:	1afffff5 	bne	8e10 <va_printk+0x24>
    8e38:	e5d21001 	ldrb	r1, [r2, #1]
    8e3c:	e3510025 	cmp	r1, #37	; 0x25
    8e40:	12825001 	addne	r5, r2, #1
    8e44:	13a04000 	movne	r4, #0
    8e48:	1a000008 	bne	8e70 <va_printk+0x84>
    8e4c:	e5c63000 	strb	r3, [r6]
    8e50:	e2822002 	add	r2, r2, #2
    8e54:	e2866001 	add	r6, r6, #1
    8e58:	eaffffec 	b	8e10 <va_printk+0x24>
    8e5c:	e0844104 	add	r4, r4, r4, lsl #2
    8e60:	e1a03084 	lsl	r3, r4, #1
    8e64:	e0834007 	add	r4, r3, r7
    8e68:	e2444030 	sub	r4, r4, #48	; 0x30
    8e6c:	e2855001 	add	r5, r5, #1
    8e70:	e5d57000 	ldrb	r7, [r5]
    8e74:	e1a00007 	mov	r0, r7
    8e78:	ebffff3f 	bl	8b7c <isdigit>
    8e7c:	e3500000 	cmp	r0, #0
    8e80:	1afffff5 	bne	8e5c <va_printk+0x70>
    8e84:	e354001f 	cmp	r4, #31
    8e88:	8a00001a 	bhi	8ef8 <va_printk+0x10c>
    8e8c:	e2477062 	sub	r7, r7, #98	; 0x62
    8e90:	e3570016 	cmp	r7, #22
    8e94:	979ff107 	ldrls	pc, [pc, r7, lsl #2]
    8e98:	ea000066 	b	9038 <va_printk+0x24c>
    8e9c:	00008fc4 	andeq	r8, r0, r4, asr #31
    8ea0:	00009008 	andeq	r9, r0, r8
    8ea4:	00008f30 	andeq	r8, r0, r0, lsr pc
    8ea8:	00009038 	andeq	r9, r0, r8, lsr r0
    8eac:	00008f14 	andeq	r8, r0, r4, lsl pc
    8eb0:	00009038 	andeq	r9, r0, r8, lsr r0
    8eb4:	00009038 	andeq	r9, r0, r8, lsr r0
    8eb8:	00009038 	andeq	r9, r0, r8, lsr r0
    8ebc:	00009038 	andeq	r9, r0, r8, lsr r0
    8ec0:	00009038 	andeq	r9, r0, r8, lsr r0
    8ec4:	00009038 	andeq	r9, r0, r8, lsr r0
    8ec8:	00009038 	andeq	r9, r0, r8, lsr r0
    8ecc:	00009038 	andeq	r9, r0, r8, lsr r0
    8ed0:	00009038 	andeq	r9, r0, r8, lsr r0
    8ed4:	00008f94 	muleq	r0, r4, pc	; <UNPREDICTABLE>
    8ed8:	00009038 	andeq	r9, r0, r8, lsr r0
    8edc:	00009038 	andeq	r9, r0, r8, lsr r0
    8ee0:	00008ff4 	strdeq	r8, [r0], -r4
    8ee4:	00009038 	andeq	r9, r0, r8, lsr r0
    8ee8:	00008f64 	andeq	r8, r0, r4, ror #30
    8eec:	00009038 	andeq	r9, r0, r8, lsr r0
    8ef0:	00009038 	andeq	r9, r0, r8, lsr r0
    8ef4:	00008f94 	muleq	r0, r4, pc	; <UNPREDICTABLE>
    8ef8:	eb00007d 	bl	90f4 <rpi_reset_putc>
    8efc:	e3a03092 	mov	r3, #146	; 0x92
    8f00:	e59f2190 	ldr	r2, [pc, #400]	; 9098 <va_printk+0x2ac>
    8f04:	e59f1190 	ldr	r1, [pc, #400]	; 909c <va_printk+0x2b0>
    8f08:	e59f0190 	ldr	r0, [pc, #400]	; 90a0 <va_printk+0x2b4>
    8f0c:	ebffff04 	bl	8b24 <printk>
    8f10:	eb0000bc 	bl	9208 <clean_reboot>
    8f14:	eb000076 	bl	90f4 <rpi_reset_putc>
    8f18:	e3a03098 	mov	r3, #152	; 0x98
    8f1c:	e59f2174 	ldr	r2, [pc, #372]	; 9098 <va_printk+0x2ac>
    8f20:	e59f1174 	ldr	r1, [pc, #372]	; 909c <va_printk+0x2b0>
    8f24:	e59f0178 	ldr	r0, [pc, #376]	; 90a4 <va_printk+0x2b8>
    8f28:	ebfffefd 	bl	8b24 <printk>
    8f2c:	eb0000b5 	bl	9208 <clean_reboot>
    8f30:	e59d300c 	ldr	r3, [sp, #12]
    8f34:	e2832004 	add	r2, r3, #4
    8f38:	e58d200c 	str	r2, [sp, #12]
    8f3c:	e5933000 	ldr	r3, [r3]
    8f40:	e3a02001 	mov	r2, #1
    8f44:	e58d2004 	str	r2, [sp, #4]
    8f48:	e58d4000 	str	r4, [sp]
    8f4c:	e3a02080 	mov	r2, #128	; 0x80
    8f50:	e28d1010 	add	r1, sp, #16
    8f54:	e3a0000a 	mov	r0, #10
    8f58:	ebffff27 	bl	8bfc <emit>
    8f5c:	e2852001 	add	r2, r5, #1
    8f60:	ea000040 	b	9068 <va_printk+0x27c>
    8f64:	e59d300c 	ldr	r3, [sp, #12]
    8f68:	e2832004 	add	r2, r3, #4
    8f6c:	e58d200c 	str	r2, [sp, #12]
    8f70:	e5933000 	ldr	r3, [r3]
    8f74:	e3a02000 	mov	r2, #0
    8f78:	e58d2004 	str	r2, [sp, #4]
    8f7c:	e58d4000 	str	r4, [sp]
    8f80:	e3a02080 	mov	r2, #128	; 0x80
    8f84:	e28d1010 	add	r1, sp, #16
    8f88:	e3a0000a 	mov	r0, #10
    8f8c:	ebffff1a 	bl	8bfc <emit>
    8f90:	eafffff1 	b	8f5c <va_printk+0x170>
    8f94:	e59d300c 	ldr	r3, [sp, #12]
    8f98:	e2832004 	add	r2, r3, #4
    8f9c:	e58d200c 	str	r2, [sp, #12]
    8fa0:	e5933000 	ldr	r3, [r3]
    8fa4:	e3a02000 	mov	r2, #0
    8fa8:	e58d2004 	str	r2, [sp, #4]
    8fac:	e58d4000 	str	r4, [sp]
    8fb0:	e3a02080 	mov	r2, #128	; 0x80
    8fb4:	e28d1010 	add	r1, sp, #16
    8fb8:	e3a00010 	mov	r0, #16
    8fbc:	ebffff0e 	bl	8bfc <emit>
    8fc0:	eaffffe5 	b	8f5c <va_printk+0x170>
    8fc4:	e59d300c 	ldr	r3, [sp, #12]
    8fc8:	e2832004 	add	r2, r3, #4
    8fcc:	e58d200c 	str	r2, [sp, #12]
    8fd0:	e5933000 	ldr	r3, [r3]
    8fd4:	e3a02000 	mov	r2, #0
    8fd8:	e58d2004 	str	r2, [sp, #4]
    8fdc:	e58d4000 	str	r4, [sp]
    8fe0:	e3a02080 	mov	r2, #128	; 0x80
    8fe4:	e28d1010 	add	r1, sp, #16
    8fe8:	e3a00002 	mov	r0, #2
    8fec:	ebffff02 	bl	8bfc <emit>
    8ff0:	eaffffd9 	b	8f5c <va_printk+0x170>
    8ff4:	e59d300c 	ldr	r3, [sp, #12]
    8ff8:	e2832004 	add	r2, r3, #4
    8ffc:	e58d200c 	str	r2, [sp, #12]
    9000:	e5930000 	ldr	r0, [r3]
    9004:	eaffffd4 	b	8f5c <va_printk+0x170>
    9008:	e59d300c 	ldr	r3, [sp, #12]
    900c:	e2832004 	add	r2, r3, #4
    9010:	e58d200c 	str	r2, [sp, #12]
    9014:	e5933000 	ldr	r3, [r3]
    9018:	e3a02000 	mov	r2, #0
    901c:	e58d2004 	str	r2, [sp, #4]
    9020:	e58d4000 	str	r4, [sp]
    9024:	e3a02080 	mov	r2, #128	; 0x80
    9028:	e28d1010 	add	r1, sp, #16
    902c:	e3a00008 	mov	r0, #8
    9030:	ebfffef1 	bl	8bfc <emit>
    9034:	eaffffc8 	b	8f5c <va_printk+0x170>
    9038:	eb00002d 	bl	90f4 <rpi_reset_putc>
    903c:	e5d53000 	ldrb	r3, [r5]
    9040:	e58d3000 	str	r3, [sp]
    9044:	e3a030b9 	mov	r3, #185	; 0xb9
    9048:	e59f2048 	ldr	r2, [pc, #72]	; 9098 <va_printk+0x2ac>
    904c:	e59f1048 	ldr	r1, [pc, #72]	; 909c <va_printk+0x2b0>
    9050:	e59f0050 	ldr	r0, [pc, #80]	; 90a8 <va_printk+0x2bc>
    9054:	ebfffeb2 	bl	8b24 <printk>
    9058:	eb00006a 	bl	9208 <clean_reboot>
    905c:	e2800001 	add	r0, r0, #1
    9060:	e5c63000 	strb	r3, [r6]
    9064:	e2866001 	add	r6, r6, #1
    9068:	e1560008 	cmp	r6, r8
    906c:	2affff67 	bcs	8e10 <va_printk+0x24>
    9070:	e5d03000 	ldrb	r3, [r0]
    9074:	e3530000 	cmp	r3, #0
    9078:	1afffff7 	bne	905c <va_printk+0x270>
    907c:	eaffff63 	b	8e10 <va_printk+0x24>
    9080:	e2860001 	add	r0, r6, #1
    9084:	e3a03000 	mov	r3, #0
    9088:	e5c63000 	strb	r3, [r6]
    908c:	e0400009 	sub	r0, r0, r9
    9090:	e28dd094 	add	sp, sp, #148	; 0x94
    9094:	e8bd83f0 	pop	{r4, r5, r6, r7, r8, r9, pc}
    9098:	00009a88 	andeq	r9, r0, r8, lsl #21
    909c:	00009a94 	muleq	r0, r4, sl
    90a0:	00009af8 	strdeq	r9, [r0], -r8
    90a4:	00009b14 	andeq	r9, r0, r4, lsl fp
    90a8:	00009b3c 	andeq	r9, r0, ip, lsr fp

000090ac <internal_putk>:
    90ac:	e92d4010 	push	{r4, lr}
    90b0:	e1a04000 	mov	r4, r0
    90b4:	ea000003 	b	90c8 <internal_putk+0x1c>
    90b8:	e59f301c 	ldr	r3, [pc, #28]	; 90dc <internal_putk+0x30>
    90bc:	e5933000 	ldr	r3, [r3]
    90c0:	e12fff33 	blx	r3
    90c4:	e2844001 	add	r4, r4, #1
    90c8:	e5d40000 	ldrb	r0, [r4]
    90cc:	e3500000 	cmp	r0, #0
    90d0:	1afffff8 	bne	90b8 <internal_putk+0xc>
    90d4:	e3a00001 	mov	r0, #1
    90d8:	e8bd8010 	pop	{r4, pc}
    90dc:	00009610 	andeq	r9, r0, r0, lsl r6

000090e0 <internal_putchar>:
    90e0:	e92d4010 	push	{r4, lr}
    90e4:	e1a04000 	mov	r4, r0
    90e8:	eb0000d6 	bl	9448 <uart_putc>
    90ec:	e1a00004 	mov	r0, r4
    90f0:	e8bd8010 	pop	{r4, pc}

000090f4 <rpi_reset_putc>:
    90f4:	e59f2008 	ldr	r2, [pc, #8]	; 9104 <rpi_reset_putc+0x10>
    90f8:	e59f3008 	ldr	r3, [pc, #8]	; 9108 <rpi_reset_putc+0x14>
    90fc:	e5832000 	str	r2, [r3]
    9100:	e12fff1e 	bx	lr
    9104:	000090e0 	andeq	r9, r0, r0, ror #1
    9108:	00009610 	andeq	r9, r0, r0, lsl r6

0000910c <rpi_set_putc>:
    910c:	e59f3004 	ldr	r3, [pc, #4]	; 9118 <rpi_set_putc+0xc>
    9110:	e5830000 	str	r0, [r3]
    9114:	e12fff1e 	bx	lr
    9118:	00009610 	andeq	r9, r0, r0, lsl r6

0000911c <internal_sw_putchar>:
    911c:	e12fff1e 	bx	lr

00009120 <_cstart>:
    9120:	e92d4010 	push	{r4, lr}
    9124:	e59f3050 	ldr	r3, [pc, #80]	; 917c <_cstart+0x5c>
    9128:	ea000002 	b	9138 <_cstart+0x18>
    912c:	e3a02000 	mov	r2, #0
    9130:	e5832000 	str	r2, [r3]
    9134:	e2833004 	add	r3, r3, #4
    9138:	e59f2040 	ldr	r2, [pc, #64]	; 9180 <_cstart+0x60>
    913c:	e1530002 	cmp	r3, r2
    9140:	3afffff9 	bcc	912c <_cstart+0xc>
    9144:	eb00011e 	bl	95c4 <cb_get_block>
    9148:	e3500000 	cmp	r0, #0
    914c:	0a000002 	beq	915c <_cstart+0x3c>
    9150:	e5d03004 	ldrb	r3, [r0, #4]
    9154:	e3530002 	cmp	r3, #2
    9158:	0a000001 	beq	9164 <_cstart+0x44>
    915c:	ebfffcf6 	bl	853c <notmain>
    9160:	eb000015 	bl	91bc <rpi_reboot>
    9164:	e59f2018 	ldr	r2, [pc, #24]	; 9184 <_cstart+0x64>
    9168:	e59f3018 	ldr	r3, [pc, #24]	; 9188 <_cstart+0x68>
    916c:	e5832000 	str	r2, [r3]
    9170:	e59f0014 	ldr	r0, [pc, #20]	; 918c <_cstart+0x6c>
    9174:	ebfffe6a 	bl	8b24 <printk>
    9178:	eafffff7 	b	915c <_cstart+0x3c>
    917c:	00009b8c 	andeq	r9, r0, ip, lsl #23
    9180:	00009f90 	muleq	r0, r0, pc	; <UNPREDICTABLE>
    9184:	0000911c 	andeq	r9, r0, ip, lsl r1
    9188:	00009610 	andeq	r9, r0, r0, lsl r6
    918c:	00009b74 	andeq	r9, r0, r4, ror fp

00009190 <at_user_level>:
    9190:	e10f0000 	mrs	r0, CPSR
    9194:	e200001f 	and	r0, r0, #31
    9198:	e3500010 	cmp	r0, #16
    919c:	13a00000 	movne	r0, #0
    91a0:	03a00001 	moveq	r0, #1
    91a4:	e12fff1e 	bx	lr

000091a8 <set_user_level>:
    91a8:	e10f3000 	mrs	r3, CPSR
    91ac:	e3c3301f 	bic	r3, r3, #31
    91b0:	e3833010 	orr	r3, r3, #16
    91b4:	e129f003 	msr	CPSR_fc, r3
    91b8:	e12fff1e 	bx	lr

000091bc <rpi_reboot>:
    91bc:	e92d4010 	push	{r4, lr}
    91c0:	ebfffff2 	bl	9190 <at_user_level>
    91c4:	e3500000 	cmp	r0, #0
    91c8:	1a000008 	bne	91f0 <rpi_reboot+0x34>
    91cc:	e3a0001e 	mov	r0, #30
    91d0:	eb00002e 	bl	9290 <delay_ms>
    91d4:	e59f101c 	ldr	r1, [pc, #28]	; 91f8 <rpi_reboot+0x3c>
    91d8:	e59f001c 	ldr	r0, [pc, #28]	; 91fc <rpi_reboot+0x40>
    91dc:	eb00003d 	bl	92d8 <PUT32>
    91e0:	e59f1018 	ldr	r1, [pc, #24]	; 9200 <rpi_reboot+0x44>
    91e4:	e59f0018 	ldr	r0, [pc, #24]	; 9204 <rpi_reboot+0x48>
    91e8:	eb00003a 	bl	92d8 <PUT32>
    91ec:	eafffffe 	b	91ec <rpi_reboot+0x30>
    91f0:	ebffffec 	bl	91a8 <set_user_level>
    91f4:	eafffff4 	b	91cc <rpi_reboot+0x10>
    91f8:	5a000001 	bpl	9204 <rpi_reboot+0x48>
    91fc:	20100024 	andscs	r0, r0, r4, lsr #32
    9200:	5a000020 	bpl	9288 <delay_us+0x1c>
    9204:	2010001c 	andscs	r0, r0, ip, lsl r0

00009208 <clean_reboot>:
    9208:	e92d4010 	push	{r4, lr}
    920c:	e59f3014 	ldr	r3, [pc, #20]	; 9228 <clean_reboot+0x20>
    9210:	e5933000 	ldr	r3, [r3]
    9214:	e59f0010 	ldr	r0, [pc, #16]	; 922c <clean_reboot+0x24>
    9218:	e12fff33 	blx	r3
    921c:	e3a00064 	mov	r0, #100	; 0x64
    9220:	eb00001a 	bl	9290 <delay_ms>
    9224:	ebffffe4 	bl	91bc <rpi_reboot>
    9228:	0000960c 	andeq	r9, r0, ip, lsl #12
    922c:	00009b80 	andeq	r9, r0, r0, lsl #23

00009230 <delay_cycles>:
    9230:	ea000001 	b	923c <delay_cycles+0xc>
    9234:	e2811000 	add	r1, r1, #0
    9238:	e1a00003 	mov	r0, r3
    923c:	e2403001 	sub	r3, r0, #1
    9240:	e3500000 	cmp	r0, #0
    9244:	1afffffa 	bne	9234 <delay_cycles+0x4>
    9248:	e12fff1e 	bx	lr

0000924c <timer_get_usec_raw>:
    924c:	e92d4010 	push	{r4, lr}
    9250:	e59f0004 	ldr	r0, [pc, #4]	; 925c <timer_get_usec_raw+0x10>
    9254:	eb00002b 	bl	9308 <GET32>
    9258:	e8bd8010 	pop	{r4, pc}
    925c:	20003004 	andcs	r3, r0, r4

00009260 <timer_get_usec>:
    9260:	e92d4010 	push	{r4, lr}
    9264:	ebfffff8 	bl	924c <timer_get_usec_raw>
    9268:	e8bd8010 	pop	{r4, pc}

0000926c <delay_us>:
    926c:	e92d4070 	push	{r4, r5, r6, lr}
    9270:	e1a05000 	mov	r5, r0
    9274:	ebfffff9 	bl	9260 <timer_get_usec>
    9278:	e1a04000 	mov	r4, r0
    927c:	ebfffff7 	bl	9260 <timer_get_usec>
    9280:	e0400004 	sub	r0, r0, r4
    9284:	e1500005 	cmp	r0, r5
    9288:	3afffffb 	bcc	927c <delay_us+0x10>
    928c:	e8bd8070 	pop	{r4, r5, r6, pc}

00009290 <delay_ms>:
    9290:	e92d4010 	push	{r4, lr}
    9294:	e3a03ffa 	mov	r3, #1000	; 0x3e8
    9298:	e0000093 	mul	r0, r3, r0
    929c:	ebfffff2 	bl	926c <delay_us>
    92a0:	e8bd8010 	pop	{r4, pc}

000092a4 <delay_sec>:
    92a4:	e92d4010 	push	{r4, lr}
    92a8:	e3a03ffa 	mov	r3, #1000	; 0x3e8
    92ac:	e0000093 	mul	r0, r3, r0
    92b0:	ebfffff6 	bl	9290 <delay_ms>
    92b4:	e8bd8010 	pop	{r4, pc}

000092b8 <dev_barrier>:
    92b8:	ea000002 	b	92c8 <dsb>

000092bc <dmb>:
    92bc:	e3a00000 	mov	r0, #0
    92c0:	ee070fba 	mcr	15, 0, r0, cr7, cr10, {5}
    92c4:	e12fff1e 	bx	lr

000092c8 <dsb>:
    92c8:	ee070f9a 	mcr	15, 0, r0, cr7, cr10, {4}
    92cc:	e12fff1e 	bx	lr

000092d0 <put32>:
    92d0:	e5801000 	str	r1, [r0]
    92d4:	e12fff1e 	bx	lr

000092d8 <PUT32>:
    92d8:	e5801000 	str	r1, [r0]
    92dc:	e12fff1e 	bx	lr

000092e0 <put16>:
    92e0:	e1c010b0 	strh	r1, [r0]
    92e4:	e12fff1e 	bx	lr

000092e8 <PUT16>:
    92e8:	e1c010b0 	strh	r1, [r0]
    92ec:	e12fff1e 	bx	lr

000092f0 <put8>:
    92f0:	e5c01000 	strb	r1, [r0]
    92f4:	e12fff1e 	bx	lr

000092f8 <PUT8>:
    92f8:	e5c01000 	strb	r1, [r0]
    92fc:	e12fff1e 	bx	lr

00009300 <get32>:
    9300:	e5900000 	ldr	r0, [r0]
    9304:	e12fff1e 	bx	lr

00009308 <GET32>:
    9308:	e5900000 	ldr	r0, [r0]
    930c:	e12fff1e 	bx	lr

00009310 <GETPC>:
    9310:	e1a0000e 	mov	r0, lr
    9314:	e12fff1e 	bx	lr

00009318 <dummy>:
    9318:	e12fff1e 	bx	lr

0000931c <or_in32>:
    931c:	e92d4070 	push	{r4, r5, r6, lr}
    9320:	e1a04000 	mov	r4, r0
    9324:	e1a05001 	mov	r5, r1
    9328:	ebfffff4 	bl	9300 <get32>
    932c:	e1801005 	orr	r1, r0, r5
    9330:	e1a00004 	mov	r0, r4
    9334:	ebffffe5 	bl	92d0 <put32>
    9338:	e8bd8070 	pop	{r4, r5, r6, pc}

0000933c <uart_init>:
    933c:	e92d4010 	push	{r4, lr}
    9340:	e3a01002 	mov	r1, #2
    9344:	e3a0000e 	mov	r0, #14
    9348:	eb00004b 	bl	947c <gpio_set_function>
    934c:	e3a01002 	mov	r1, #2
    9350:	e3a0000f 	mov	r0, #15
    9354:	eb000048 	bl	947c <gpio_set_function>
    9358:	ebffffd6 	bl	92b8 <dev_barrier>
    935c:	e3a01001 	mov	r1, #1
    9360:	e59f0064 	ldr	r0, [pc, #100]	; 93cc <uart_init+0x90>
    9364:	ebffffec 	bl	931c <or_in32>
    9368:	ebffffd2 	bl	92b8 <dev_barrier>
    936c:	e59f405c 	ldr	r4, [pc, #92]	; 93d0 <uart_init+0x94>
    9370:	e3a01000 	mov	r1, #0
    9374:	e1a00004 	mov	r0, r4
    9378:	ebffffd4 	bl	92d0 <put32>
    937c:	e3a01000 	mov	r1, #0
    9380:	e59f004c 	ldr	r0, [pc, #76]	; 93d4 <uart_init+0x98>
    9384:	ebffffd1 	bl	92d0 <put32>
    9388:	e3a01003 	mov	r1, #3
    938c:	e59f0044 	ldr	r0, [pc, #68]	; 93d8 <uart_init+0x9c>
    9390:	ebffffce 	bl	92d0 <put32>
    9394:	e3a01000 	mov	r1, #0
    9398:	e59f003c 	ldr	r0, [pc, #60]	; 93dc <uart_init+0xa0>
    939c:	ebffffcb 	bl	92d0 <put32>
    93a0:	e3a010c7 	mov	r1, #199	; 0xc7
    93a4:	e59f0034 	ldr	r0, [pc, #52]	; 93e0 <uart_init+0xa4>
    93a8:	ebffffc8 	bl	92d0 <put32>
    93ac:	e59f1030 	ldr	r1, [pc, #48]	; 93e4 <uart_init+0xa8>
    93b0:	e59f0030 	ldr	r0, [pc, #48]	; 93e8 <uart_init+0xac>
    93b4:	ebffffc5 	bl	92d0 <put32>
    93b8:	e3a01003 	mov	r1, #3
    93bc:	e1a00004 	mov	r0, r4
    93c0:	ebffffc2 	bl	92d0 <put32>
    93c4:	ebffffbb 	bl	92b8 <dev_barrier>
    93c8:	e8bd8010 	pop	{r4, pc}
    93cc:	20215004 	eorcs	r5, r1, r4
    93d0:	20215060 	eorcs	r5, r1, r0, rrx
    93d4:	20215044 	eorcs	r5, r1, r4, asr #32
    93d8:	2021504c 	eorcs	r5, r1, ip, asr #32
    93dc:	20215050 	eorcs	r5, r1, r0, asr r0
    93e0:	20215048 	eorcs	r5, r1, r8, asr #32
    93e4:	0000010e 	andeq	r0, r0, lr, lsl #2
    93e8:	20215068 	eorcs	r5, r1, r8, rrx

000093ec <uart_can_getc>:
    93ec:	e92d4010 	push	{r4, lr}
    93f0:	e59f0008 	ldr	r0, [pc, #8]	; 9400 <uart_can_getc+0x14>
    93f4:	ebffffc1 	bl	9300 <get32>
    93f8:	e2000001 	and	r0, r0, #1
    93fc:	e8bd8010 	pop	{r4, pc}
    9400:	20215064 	eorcs	r5, r1, r4, rrx

00009404 <uart_can_putc>:
    9404:	e92d4010 	push	{r4, lr}
    9408:	e59f0010 	ldr	r0, [pc, #16]	; 9420 <uart_can_putc+0x1c>
    940c:	ebffffbb 	bl	9300 <get32>
    9410:	e3100002 	tst	r0, #2
    9414:	13a00001 	movne	r0, #1
    9418:	03a00000 	moveq	r0, #0
    941c:	e8bd8010 	pop	{r4, pc}
    9420:	20215064 	eorcs	r5, r1, r4, rrx

00009424 <uart_getc>:
    9424:	e92d4010 	push	{r4, lr}
    9428:	ebffffef 	bl	93ec <uart_can_getc>
    942c:	e3500000 	cmp	r0, #0
    9430:	0afffffc 	beq	9428 <uart_getc+0x4>
    9434:	e59f0008 	ldr	r0, [pc, #8]	; 9444 <uart_getc+0x20>
    9438:	ebffffb0 	bl	9300 <get32>
    943c:	e6ef0070 	uxtb	r0, r0
    9440:	e8bd8010 	pop	{r4, pc}
    9444:	20215040 	eorcs	r5, r1, r0, asr #32

00009448 <uart_putc>:
    9448:	e92d4010 	push	{r4, lr}
    944c:	e1a04000 	mov	r4, r0
    9450:	ebffffeb 	bl	9404 <uart_can_putc>
    9454:	e3500000 	cmp	r0, #0
    9458:	0afffffc 	beq	9450 <uart_putc+0x8>
    945c:	e6ef1074 	uxtb	r1, r4
    9460:	e59f0004 	ldr	r0, [pc, #4]	; 946c <uart_putc+0x24>
    9464:	ebffff99 	bl	92d0 <put32>
    9468:	e8bd8010 	pop	{r4, pc}
    946c:	20215040 	eorcs	r5, r1, r0, asr #32

00009470 <uart_has_data>:
    9470:	e92d4010 	push	{r4, lr}
    9474:	ebffffdc 	bl	93ec <uart_can_getc>
    9478:	e8bd8010 	pop	{r4, pc}

0000947c <gpio_set_function>:
    947c:	e350001f 	cmp	r0, #31
    9480:	812fff1e 	bxhi	lr
    9484:	e3d13007 	bics	r3, r1, #7
    9488:	112fff1e 	bxne	lr
    948c:	e92d4070 	push	{r4, r5, r6, lr}
    9490:	e1a04001 	mov	r4, r1
    9494:	e59f2044 	ldr	r2, [pc, #68]	; 94e0 <gpio_set_function+0x64>
    9498:	e0832290 	umull	r2, r3, r0, r2
    949c:	e1a031a3 	lsr	r3, r3, #3
    94a0:	e1a02003 	mov	r2, r3
    94a4:	e0833103 	add	r3, r3, r3, lsl #2
    94a8:	e1a01083 	lsl	r1, r3, #1
    94ac:	e0403001 	sub	r3, r0, r1
    94b0:	e0835083 	add	r5, r3, r3, lsl #1
    94b4:	e2820302 	add	r0, r2, #134217728	; 0x8000000
    94b8:	e2800702 	add	r0, r0, #524288	; 0x80000
    94bc:	e1a06100 	lsl	r6, r0, #2
    94c0:	e1a00006 	mov	r0, r6
    94c4:	ebffff8f 	bl	9308 <GET32>
    94c8:	e3a01007 	mov	r1, #7
    94cc:	e1c01511 	bic	r1, r0, r1, lsl r5
    94d0:	e1811514 	orr	r1, r1, r4, lsl r5
    94d4:	e1a00006 	mov	r0, r6
    94d8:	ebffff7e 	bl	92d8 <PUT32>
    94dc:	e8bd8070 	pop	{r4, r5, r6, pc}
    94e0:	cccccccd 	stclgt	12, cr12, [ip], {205}	; 0xcd

000094e4 <gpio_set_output>:
    94e4:	e92d4010 	push	{r4, lr}
    94e8:	e3a01001 	mov	r1, #1
    94ec:	ebffffe2 	bl	947c <gpio_set_function>
    94f0:	e8bd8010 	pop	{r4, pc}

000094f4 <gpio_set_on>:
    94f4:	e350001f 	cmp	r0, #31
    94f8:	812fff1e 	bxhi	lr
    94fc:	e92d4010 	push	{r4, lr}
    9500:	e3a01001 	mov	r1, #1
    9504:	e1a01011 	lsl	r1, r1, r0
    9508:	e59f0004 	ldr	r0, [pc, #4]	; 9514 <gpio_set_on+0x20>
    950c:	ebffff71 	bl	92d8 <PUT32>
    9510:	e8bd8010 	pop	{r4, pc}
    9514:	2020001c 	eorcs	r0, r0, ip, lsl r0

00009518 <gpio_set_off>:
    9518:	e350001f 	cmp	r0, #31
    951c:	812fff1e 	bxhi	lr
    9520:	e92d4010 	push	{r4, lr}
    9524:	e3a01001 	mov	r1, #1
    9528:	e1a01011 	lsl	r1, r1, r0
    952c:	e59f0004 	ldr	r0, [pc, #4]	; 9538 <gpio_set_off+0x20>
    9530:	ebffff68 	bl	92d8 <PUT32>
    9534:	e8bd8010 	pop	{r4, pc}
    9538:	20200028 	eorcs	r0, r0, r8, lsr #32

0000953c <gpio_set_input>:
    953c:	e92d4010 	push	{r4, lr}
    9540:	e3a01000 	mov	r1, #0
    9544:	ebffffcc 	bl	947c <gpio_set_function>
    9548:	e8bd8010 	pop	{r4, pc}

0000954c <gpio_write>:
    954c:	e92d4010 	push	{r4, lr}
    9550:	e3510000 	cmp	r1, #0
    9554:	1a000001 	bne	9560 <gpio_write+0x14>
    9558:	ebffffee 	bl	9518 <gpio_set_off>
    955c:	e8bd8010 	pop	{r4, pc}
    9560:	ebffffe3 	bl	94f4 <gpio_set_on>
    9564:	e8bd8010 	pop	{r4, pc}

00009568 <gpio_read>:
    9568:	e350001f 	cmp	r0, #31
    956c:	8a000007 	bhi	9590 <gpio_read+0x28>
    9570:	e92d4010 	push	{r4, lr}
    9574:	e200401f 	and	r4, r0, #31
    9578:	e59f3018 	ldr	r3, [pc, #24]	; 9598 <gpio_read+0x30>
    957c:	e08302a0 	add	r0, r3, r0, lsr #5
    9580:	ebffff60 	bl	9308 <GET32>
    9584:	e1a00430 	lsr	r0, r0, r4
    9588:	e2000001 	and	r0, r0, #1
    958c:	e8bd8010 	pop	{r4, pc}
    9590:	e3e00000 	mvn	r0, #0
    9594:	e12fff1e 	bx	lr
    9598:	20200034 	eorcs	r0, r0, r4, lsr r0

0000959c <cb_new>:
    959c:	e92d4010 	push	{r4, lr}
    95a0:	e3a02004 	mov	r2, #4
    95a4:	e3a01000 	mov	r1, #0
    95a8:	e3a00409 	mov	r0, #150994944	; 0x9000000
    95ac:	eb00000e 	bl	95ec <memset>
    95b0:	e3a00409 	mov	r0, #150994944	; 0x9000000
    95b4:	e59f3004 	ldr	r3, [pc, #4]	; 95c0 <cb_new+0x24>
    95b8:	e5803000 	str	r3, [r0]
    95bc:	e8bd8010 	pop	{r4, pc}
    95c0:	12345678 	eorsne	r5, r4, #120, 12	; 0x7800000

000095c4 <cb_get_block>:
    95c4:	e3a03409 	mov	r3, #150994944	; 0x9000000
    95c8:	e5932000 	ldr	r2, [r3]
    95cc:	e59f3014 	ldr	r3, [pc, #20]	; 95e8 <cb_get_block+0x24>
    95d0:	e1520003 	cmp	r2, r3
    95d4:	1a000001 	bne	95e0 <cb_get_block+0x1c>
    95d8:	e3a00409 	mov	r0, #150994944	; 0x9000000
    95dc:	e12fff1e 	bx	lr
    95e0:	e3a00000 	mov	r0, #0
    95e4:	e12fff1e 	bx	lr
    95e8:	12345678 	eorsne	r5, r4, #120, 12	; 0x7800000

000095ec <memset>:
    95ec:	e0802002 	add	r2, r0, r2
    95f0:	e1a03000 	mov	r3, r0
    95f4:	ea000001 	b	9600 <memset+0x14>
    95f8:	e5c31000 	strb	r1, [r3]
    95fc:	e2833001 	add	r3, r3, #1
    9600:	e1530002 	cmp	r3, r2
    9604:	3afffffb 	bcc	95f8 <memset+0xc>
    9608:	e12fff1e 	bx	lr

Disassembly of section .data:

0000960c <putk>:
    960c:	000090ac 	andeq	r9, r0, ip, lsr #1

00009610 <rpi_putchar>:
    9610:	000090e0 	andeq	r9, r0, r0, ror #1

Disassembly of section .rodata:

00009614 <__FUNCTION__.4371>:
    9614:	735f676d 	cmpvc	pc, #28573696	; 0x1b40000
    9618:	656c6163 	strbvs	r6, [ip, #-355]!	; 0xfffffe9d
    961c:	00000064 	andeq	r0, r0, r4, rrx

00009620 <__FUNCTION__.4379>:
    9620:	74736574 	ldrbtvc	r6, [r3], #-1396	; 0xfffffa8c
    9624:	00676d5f 	rsbeq	r6, r7, pc, asr sp

00009628 <__FUNCTION__.4416>:
    9628:	65636361 	strbvs	r6, [r3, #-865]!	; 0xfffffc9f
    962c:	6e695f6c 	cdpvs	15, 6, cr5, cr9, cr12, {3}
    9630:	00007469 	andeq	r7, r0, r9, ror #8

00009634 <__FUNCTION__.4440>:
    9634:	6d746f6e 	ldclvs	15, cr6, [r4, #-440]!	; 0xfffffe48
    9638:	006e6961 	rsbeq	r6, lr, r1, ror #18
    963c:	65636361 	strbvs	r6, [r3, #-865]!	; 0xfffffc9f
    9640:	00632e6c 	rsbeq	r2, r3, ip, ror #28
    9644:	494e4150 	stmdbmi	lr, {r4, r6, r8, lr}^
    9648:	73253a43 			; <UNDEFINED> instruction: 0x73253a43
    964c:	3a73253a 	bcc	1cd2b3c <__bss_end__+0x1cc8bac>
    9650:	6d3a6425 	cfldrsvs	mvf6, [sl, #-148]!	; 0xffffff6c
    9654:	63735f67 	cmnvs	r3, #412	; 0x19c
    9658:	20656c61 	rsbcs	r6, r5, r1, ror #24
    965c:	31203d3c 			; <UNDEFINED> instruction: 0x31203d3c
    9660:	00000a36 	andeq	r0, r0, r6, lsr sl
    9664:	64253d56 	strtvs	r3, [r5], #-3414	; 0xfffff2aa
    9668:	0000000a 	andeq	r0, r0, sl
    966c:	735f676d 	cmpvc	pc, #28573696	; 0x1b40000
    9670:	656c6163 	strbvs	r6, [ip, #-355]!	; 0xfffffe9d
    9674:	0a64253d 	beq	1912b70 <__bss_end__+0x1908be0>
    9678:	00000000 	andeq	r0, r0, r0
    967c:	65707865 	ldrbvs	r7, [r0, #-2149]!	; 0xfffff79b
    9680:	3d207463 	cfstrscc	mvf7, [r0, #-396]!	; 0xfffffe74
    9684:	2c642520 	cfstr64cs	mvdx2, [r4], #-128	; 0xffffff80
    9688:	746f6720 	strbtvc	r6, [pc], #-1824	; 9690 <__FUNCTION__.4440+0x5c>
    968c:	0a642520 	beq	1912b14 <__bss_end__+0x1908b84>
    9690:	00000000 	andeq	r0, r0, r0
    9694:	494e4150 	stmdbmi	lr, {r4, r6, r8, lr}^
    9698:	73253a43 			; <UNDEFINED> instruction: 0x73253a43
    969c:	3a73253a 	bcc	1cd2b8c <__bss_end__+0x1cc8bfc>
    96a0:	733a6425 	teqvc	sl, #620756992	; 0x25000000
    96a4:	3d20695f 			; <UNDEFINED> instruction: 0x3d20695f
    96a8:	7865203d 	stmdavc	r5!, {r0, r2, r3, r4, r5, sp}^
    96ac:	74636570 	strbtvc	r6, [r3], #-1392	; 0xfffffa90
    96b0:	000a6465 	andeq	r6, sl, r5, ror #8
    96b4:	494e4150 	stmdbmi	lr, {r4, r6, r8, lr}^
    96b8:	73253a43 			; <UNDEFINED> instruction: 0x73253a43
    96bc:	3a73253a 	bcc	1cd2bac <__bss_end__+0x1cc8c1c>
    96c0:	613a6425 	teqvs	sl, r5, lsr #8
    96c4:	6c656363 	stclvs	3, cr6, [r5], #-396	; 0xfffffe74
    96c8:	7a68203a 	bvc	1a117b8 <__bss_end__+0x1a07828>
    96cc:	74657320 	strbtvc	r7, [r5], #-800	; 0xfffffce0
    96d0:	676e6974 			; <UNDEFINED> instruction: 0x676e6974
    96d4:	20666f20 	rsbcs	r6, r6, r0, lsr #30
    96d8:	64207825 	strtvs	r7, [r0], #-2085	; 0xfffff7db
    96dc:	2073656f 	rsbscs	r6, r3, pc, ror #10
    96e0:	20746f6e 	rsbscs	r6, r4, lr, ror #30
    96e4:	65707061 	ldrbvs	r7, [r0, #-97]!	; 0xffffff9f
    96e8:	74207261 	strtvc	r7, [r0], #-609	; 0xfffffd9f
    96ec:	6f77206f 	svcvs	0x0077206f
    96f0:	0a0a6b72 	beq	2a44c0 <__bss_end__+0x29a530>
    96f4:	00000000 	andeq	r0, r0, r0
    96f8:	494e4150 	stmdbmi	lr, {r4, r6, r8, lr}^
    96fc:	73253a43 			; <UNDEFINED> instruction: 0x73253a43
    9700:	3a73253a 	bcc	1cd2bf0 <__bss_end__+0x1cc8c60>
    9704:	693a6425 	ldmdbvs	sl!, {r0, r2, r5, sl, sp, lr}
    9708:	6c61766e 	stclvs	6, cr7, [r1], #-440	; 0xfffffe48
    970c:	47206469 	strmi	r6, [r0, -r9, ror #8]!
    9710:	6c617620 	stclvs	6, cr7, [r1], #-128	; 0xffffff80
    9714:	203a6575 	eorscs	r6, sl, r5, ror r5
    9718:	0a0a7825 	beq	2a77b4 <__bss_end__+0x29d824>
    971c:	00000000 	andeq	r0, r0, r0
    9720:	494e4150 	stmdbmi	lr, {r4, r6, r8, lr}^
    9724:	73253a43 			; <UNDEFINED> instruction: 0x73253a43
    9728:	3a73253a 	bcc	1cd2c18 <__bss_end__+0x1cc8c88>
    972c:	693a6425 	ldmdbvs	sl!, {r0, r2, r5, sl, sp, lr}
    9730:	6c61766e 	stclvs	6, cr7, [r1], #-440	; 0xfffffe48
    9734:	68206469 	stmdavs	r0!, {r0, r3, r5, r6, sl, sp, lr}
    9738:	25203a7a 	strcs	r3, [r0, #-2682]!	; 0xfffff586
    973c:	000a0a78 	andeq	r0, sl, r8, ror sl
    9740:	494e4150 	stmdbmi	lr, {r4, r6, r8, lr}^
    9744:	73253a43 			; <UNDEFINED> instruction: 0x73253a43
    9748:	3a73253a 	bcc	1cd2c38 <__bss_end__+0x1cc8ca8>
    974c:	6c3a6425 	cfldrsvs	mvf6, [sl], #-148	; 0xffffff6c
    9750:	6c616765 	stclvs	7, cr6, [r1], #-404	; 0xfffffe6c
    9754:	625f675f 	subsvs	r6, pc, #24903680	; 0x17c0000
    9758:	28737469 	ldmdacs	r3!, {r0, r3, r5, r6, sl, ip, sp, lr}^
    975c:	69625f67 	stmdbvs	r2!, {r0, r1, r2, r5, r6, r8, r9, sl, fp, ip, lr}^
    9760:	0a297374 	beq	a66538 <__bss_end__+0xa5c5a8>
    9764:	00000000 	andeq	r0, r0, r0
    9768:	65636361 	strbvs	r6, [r3, #-865]!	; 0xfffffc9f
    976c:	6172206c 	cmnvs	r2, ip, rrx
    9770:	61762077 	cmnvs	r6, r7, ror r0
    9774:	7365756c 	cmnvc	r5, #108, 10	; 0x1b000000
    9778:	3d78203a 	ldclcc	0, cr2, [r8, #-232]!	; 0xffffff18
    977c:	792c6425 	stmdbvc	ip!, {r0, r2, r5, sl, sp, lr}
    9780:	2c64253d 	cfstr64cs	mvdx2, [r4], #-244	; 0xffffff0c
    9784:	64253d7a 	strtvs	r3, [r5], #-3450	; 0xfffff286
    9788:	0000000a 	andeq	r0, r0, sl
    978c:	65636361 	strbvs	r6, [r3, #-865]!	; 0xfffffc9f
    9790:	6373206c 	cmnvs	r3, #108	; 0x6c
    9794:	64656c61 	strbtvs	r6, [r5], #-3169	; 0xfffff39f
    9798:	6c617620 	stclvs	6, cr7, [r1], #-128	; 0xffffff80
    979c:	20736575 	rsbscs	r6, r3, r5, ror r5
    97a0:	6d206e69 	stcvs	14, cr6, [r0, #-420]!	; 0xfffffe5c
    97a4:	78203a67 	stmdavc	r0!, {r0, r1, r2, r5, r6, r9, fp, ip, sp}
    97a8:	2c64253d 	cfstr64cs	mvdx2, [r4], #-244	; 0xffffff0c
    97ac:	64253d79 	strtvs	r3, [r5], #-3449	; 0xfffff287
    97b0:	253d7a2c 	ldrcs	r7, [sp, #-2604]!	; 0xfffff5d4
    97b4:	00000a64 	andeq	r0, r0, r4, ror #20
    97b8:	494e4150 	stmdbmi	lr, {r4, r6, r8, lr}^
    97bc:	73253a43 			; <UNDEFINED> instruction: 0x73253a43
    97c0:	3a73253a 	bcc	1cd2cb0 <__bss_end__+0x1cc8d20>
    97c4:	493a6425 	ldmdbmi	sl!, {r0, r2, r5, sl, sp, lr}
    97c8:	6974696e 	ldmdbvs	r4!, {r1, r2, r3, r5, r6, r8, fp, sp, lr}^
    97cc:	70206c61 	eorvc	r6, r0, r1, ror #24
    97d0:	65626f72 	strbvs	r6, [r2, #-3954]!	; 0xfffff08e
    97d4:	69616620 	stmdbvs	r1!, {r5, r9, sl, sp, lr}^
    97d8:	3a64656c 	bcc	1922d90 <__bss_end__+0x1918e00>
    97dc:	70786520 	rsbsvc	r6, r8, r0, lsr #10
    97e0:	65746365 	ldrbvs	r6, [r4, #-869]!	; 0xfffffc9b
    97e4:	78252064 	stmdavc	r5!, {r2, r5, r6, sp}
    97e8:	6f67202c 	svcvs	0x0067202c
    97ec:	78252074 	stmdavc	r5!, {r2, r4, r5, r6, sp}
    97f0:	00000a0a 	andeq	r0, r0, sl, lsl #20
    97f4:	43435553 	movtmi	r5, #13651	; 0x3553
    97f8:	3a535345 	bcc	14de514 <__bss_end__+0x14d4584>
    97fc:	6d736c20 	ldclvs	12, cr6, [r3, #-128]!	; 0xffffff80
    9800:	6b636120 	blvs	18e1c88 <__bss_end__+0x18d7cf8>
    9804:	6c776f6e 	ldclvs	15, cr6, [r7], #-440	; 0xfffffe48
    9808:	65676465 	strbvs	r6, [r7, #-1125]!	; 0xfffffb9b
    980c:	756f2064 	strbvc	r2, [pc, #-100]!	; 97b0 <__FUNCTION__.4440+0x17c>
    9810:	69702072 	ldmdbvs	r0!, {r1, r4, r5, r6, sp}^
    9814:	2121676e 			; <UNDEFINED> instruction: 0x2121676e
    9818:	0000000a 	andeq	r0, r0, sl

0000981c <__FUNCTION__.4436>:
    981c:	63656863 	cmnvs	r5, #6488064	; 0x630000
    9820:	616c5f6b 	cmnvs	ip, fp, ror #30
    9824:	74756f79 	ldrbtvc	r6, [r5], #-3961	; 0xfffff087
    9828:	00000000 	andeq	r0, r0, r0

0000982c <__FUNCTION__.4342>:
    982c:	72656678 	rsbvc	r6, r5, #120, 12	; 0x7800000
    9830:	646e655f 	strbtvs	r6, [lr], #-1375	; 0xfffffaa1
    9834:	00000000 	andeq	r0, r0, r0

00009838 <__FUNCTION__.4321>:
    9838:	72656678 	rsbvc	r6, r5, #120, 12	; 0x7800000
    983c:	6174735f 	cmnvs	r4, pc, asr r3
    9840:	00007472 	andeq	r7, r0, r2, ror r4

00009844 <__FUNCTION__.4352>:
    9844:	5f633269 	svcpl	0x00633269
    9848:	74697277 	strbtvc	r7, [r9], #-631	; 0xfffffd89
    984c:	00000065 	andeq	r0, r0, r5, rrx

00009850 <__FUNCTION__.4365>:
    9850:	5f633269 	svcpl	0x00633269
    9854:	64616572 	strbtvs	r6, [r1], #-1394	; 0xfffffa8e
    9858:	00000000 	andeq	r0, r0, r0

0000985c <__FUNCTION__.4407>:
    985c:	5f633269 	svcpl	0x00633269
    9860:	74696e69 	strbtvc	r6, [r9], #-3689	; 0xfffff197
    9864:	00000000 	andeq	r0, r0, r0
    9868:	2e633269 	cdpcs	2, 6, cr3, cr3, cr9, {3}
    986c:	00000063 	andeq	r0, r0, r3, rrx
    9870:	494e4150 	stmdbmi	lr, {r4, r6, r8, lr}^
    9874:	73253a43 			; <UNDEFINED> instruction: 0x73253a43
    9878:	3a73253a 	bcc	1cd2d68 <__bss_end__+0x1cc8dd8>
    987c:	6f3a6425 	svcvs	0x003a6425
    9880:	65736666 	ldrbvs	r6, [r3, #-1638]!	; 0xfffff99a
    9884:	72772074 	rsbsvc	r2, r7, #116	; 0x74
    9888:	3a676e6f 	bcc	19e524c <__bss_end__+0x19db2bc>
    988c:	70786520 	rsbsvc	r6, r8, r0, lsr #10
    9890:	20746365 	rsbscs	r6, r4, r5, ror #6
    9894:	67207825 	strvs	r7, [r0, -r5, lsr #16]!
    9898:	2520746f 	strcs	r7, [r0, #-1135]!	; 0xfffffb91
    989c:	73252078 			; <UNDEFINED> instruction: 0x73252078
    98a0:	666f5b20 	strbtvs	r5, [pc], -r0, lsr #22
    98a4:	64253d66 	strtvs	r3, [r5], #-3430	; 0xfffff29a
    98a8:	69626e2c 	stmdbvs	r2!, {r2, r3, r5, r9, sl, fp, sp, lr}^
    98ac:	253d7374 	ldrcs	r7, [sp, #-884]!	; 0xfffffc8c
    98b0:	0a0a5d64 	beq	2a0e48 <__bss_end__+0x296eb8>
    98b4:	00000000 	andeq	r0, r0, r0
    98b8:	64616572 	strbtvs	r6, [r1], #-1394	; 0xfffffa8e
    98bc:	00000000 	andeq	r0, r0, r0
    98c0:	61656c63 	cmnvs	r5, r3, ror #24
    98c4:	00000072 	andeq	r0, r0, r2, ror r0
    98c8:	494e4150 	stmdbmi	lr, {r4, r6, r8, lr}^
    98cc:	73253a43 			; <UNDEFINED> instruction: 0x73253a43
    98d0:	3a73253a 	bcc	1cd2dc0 <__bss_end__+0x1cc8e30>
    98d4:	773a6425 	ldrvc	r6, [sl, -r5, lsr #8]!
    98d8:	68746469 	ldmdavs	r4!, {r0, r3, r5, r6, sl, sp, lr}^
    98dc:	6f727720 	svcvs	0x00727720
    98e0:	203a676e 	eorscs	r6, sl, lr, ror #14
    98e4:	65707865 	ldrbvs	r7, [r0, #-2149]!	; 0xfffff79b
    98e8:	25207463 	strcs	r7, [r0, #-1123]!	; 0xfffffb9d
    98ec:	6f672078 	svcvs	0x00672078
    98f0:	78252074 	stmdavc	r5!, {r2, r4, r5, r6, sp}
    98f4:	20732520 	rsbscs	r2, r3, r0, lsr #10
    98f8:	66666f5b 	uqsaxvs	r6, r6, fp
    98fc:	2c64253d 	cfstr64cs	mvdx2, [r4], #-244	; 0xffffff0c
    9900:	7469626e 	strbtvc	r6, [r9], #-622	; 0xfffffd92
    9904:	64253d73 	strtvs	r3, [r5], #-3443	; 0xfffff28d
    9908:	000a0a5d 	andeq	r0, sl, sp, asr sl
    990c:	00007473 	andeq	r7, r0, r3, ror r4
    9910:	64746e69 	ldrbtvs	r6, [r4], #-3689	; 0xfffff197
    9914:	00000000 	andeq	r0, r0, r0
    9918:	74746e69 	ldrbtvc	r6, [r4], #-3689	; 0xfffff197
    991c:	00000000 	andeq	r0, r0, r0
    9920:	72746e69 	rsbsvc	r6, r4, #1680	; 0x690
    9924:	00000000 	andeq	r0, r0, r0
    9928:	65633269 	strbvs	r3, [r3, #-617]!	; 0xfffffd97
    992c:	0000006e 	andeq	r0, r0, lr, rrx
    9930:	00006174 	andeq	r6, r0, r4, ror r1
    9934:	656e6f64 	strbvs	r6, [lr, #-3940]!	; 0xfffff09c
    9938:	00000000 	andeq	r0, r0, r0
    993c:	00777874 	rsbseq	r7, r7, r4, ror r8
    9940:	00727872 	rsbseq	r7, r2, r2, ror r8
    9944:	00647874 	rsbeq	r7, r4, r4, ror r8
    9948:	00647872 	rsbeq	r7, r4, r2, ror r8
    994c:	00657874 	rsbeq	r7, r5, r4, ror r8
    9950:	00667872 	rsbeq	r7, r6, r2, ror r8
    9954:	00727265 	rsbseq	r7, r2, r5, ror #4
    9958:	746b6c63 	strbtvc	r6, [fp], #-3171	; 0xfffff39d
    995c:	0000006b 	andeq	r0, r0, fp, rrx
    9960:	494e4150 	stmdbmi	lr, {r4, r6, r8, lr}^
    9964:	73253a43 			; <UNDEFINED> instruction: 0x73253a43
    9968:	3a73253a 	bcc	1cd2e58 <__bss_end__+0x1cc8ec8>
    996c:	693a6425 	ldmdbvs	sl!, {r0, r2, r5, sl, sp, lr}
    9970:	73206332 			; <UNDEFINED> instruction: 0x73206332
    9974:	6576616c 	ldrbvs	r6, [r6, #-364]!	; 0xfffffe94
    9978:	6b636120 	blvs	18e1e00 <__bss_end__+0x18d7e70>
    997c:	72726520 	rsbsvc	r6, r2, #32, 10	; 0x8000000
    9980:	000a726f 	andeq	r7, sl, pc, ror #4
    9984:	494e4150 	stmdbmi	lr, {r4, r6, r8, lr}^
    9988:	73253a43 			; <UNDEFINED> instruction: 0x73253a43
    998c:	3a73253a 	bcc	1cd2e7c <__bss_end__+0x1cc8eec>
    9990:	693a6425 	ldmdbvs	sl!, {r0, r2, r5, sl, sp, lr}
    9994:	73206332 			; <UNDEFINED> instruction: 0x73206332
    9998:	6576616c 	ldrbvs	r6, [r6, #-364]!	; 0xfffffe94
    999c:	6c656820 	stclvs	8, cr6, [r5], #-128	; 0xffffff80
    99a0:	696c2064 	stmdbvs	ip!, {r2, r5, r6, sp}^
    99a4:	7420656e 	strtvc	r6, [r0], #-1390	; 0xfffffa92
    99a8:	6c206f6f 	stcvs	15, cr6, [r0], #-444	; 0xfffffe44
    99ac:	0a676e6f 	beq	19e5370 <__bss_end__+0x19db3e0>
    99b0:	00000000 	andeq	r0, r0, r0
    99b4:	494e4150 	stmdbmi	lr, {r4, r6, r8, lr}^
    99b8:	73253a43 			; <UNDEFINED> instruction: 0x73253a43
    99bc:	3a73253a 	bcc	1cd2eac <__bss_end__+0x1cc8f1c>
    99c0:	693a6425 	ldmdbvs	sl!, {r0, r2, r5, sl, sp, lr}
    99c4:	3e2d6332 	mcrcc	3, 1, r6, cr13, cr2, {1}
    99c8:	74617473 	strbtvc	r7, [r1], #-1139	; 0xfffffb8d
    99cc:	742e7375 	strtvc	r7, [lr], #-885	; 0xfffffc8b
    99d0:	3d3d2061 	ldccc	0, cr2, [sp, #-388]!	; 0xfffffe7c
    99d4:	000a3020 	andeq	r3, sl, r0, lsr #32
    99d8:	494e4150 	stmdbmi	lr, {r4, r6, r8, lr}^
    99dc:	73253a43 			; <UNDEFINED> instruction: 0x73253a43
    99e0:	3a73253a 	bcc	1cd2ed0 <__bss_end__+0x1cc8f40>
    99e4:	213a6425 	teqcs	sl, r5, lsr #8
    99e8:	2d633269 	sfmcs	f3, 2, [r3, #-420]!	; 0xfffffe5c
    99ec:	6174733e 	cmnvs	r4, lr, lsr r3
    99f0:	2e737574 	mrccs	5, 3, r7, cr3, cr4, {3}
    99f4:	0a727265 	beq	1ca6390 <__bss_end__+0x1c9c400>
    99f8:	00000000 	andeq	r0, r0, r0
    99fc:	494e4150 	stmdbmi	lr, {r4, r6, r8, lr}^
    9a00:	73253a43 			; <UNDEFINED> instruction: 0x73253a43
    9a04:	3a73253a 	bcc	1cd2ef4 <__bss_end__+0x1cc8f64>
    9a08:	693a6425 	ldmdbvs	sl!, {r0, r2, r5, sl, sp, lr}
    9a0c:	3e2d6332 	mcrcc	3, 1, r6, cr13, cr2, {1}
    9a10:	74617473 	strbtvc	r7, [r1], #-1139	; 0xfffffb8d
    9a14:	742e7375 	strtvc	r7, [lr], #-885	; 0xfffffc8b
    9a18:	3d206578 	cfstr32cc	mvfx6, [r0, #-480]!	; 0xfffffe20
    9a1c:	0a31203d 	beq	c51b18 <__bss_end__+0xc47b88>
    9a20:	00000000 	andeq	r0, r0, r0
    9a24:	494e4150 	stmdbmi	lr, {r4, r6, r8, lr}^
    9a28:	73253a43 			; <UNDEFINED> instruction: 0x73253a43
    9a2c:	3a73253a 	bcc	1cd2f1c <__bss_end__+0x1cc8f8c>
    9a30:	283a6425 	ldmdacs	sl!, {r0, r2, r5, sl, sp, lr}
    9a34:	64646128 	strbtvs	r6, [r4], #-296	; 0xfffffed8
    9a38:	3e202972 			; <UNDEFINED> instruction: 0x3e202972
    9a3c:	2937203e 	ldmdbcs	r7!, {r1, r2, r3, r4, r5, sp}
    9a40:	203d3d20 	eorscs	r3, sp, r0, lsr #26
    9a44:	00000a30 	andeq	r0, r0, r0, lsr sl
    9a48:	494e4150 	stmdbmi	lr, {r4, r6, r8, lr}^
    9a4c:	73253a43 			; <UNDEFINED> instruction: 0x73253a43
    9a50:	3a73253a 	bcc	1cd2f40 <__bss_end__+0x1cc8fb0>
    9a54:	283a6425 	ldmdacs	sl!, {r0, r2, r5, sl, sp, lr}
    9a58:	79626e28 	stmdbvc	r2!, {r3, r5, r9, sl, fp, sp, lr}^
    9a5c:	29736574 	ldmdbcs	r3!, {r2, r4, r5, r6, r8, sl, sp, lr}^
    9a60:	203e3e20 	eorscs	r3, lr, r0, lsr #28
    9a64:	20293631 	eorcs	r3, r9, r1, lsr r6
    9a68:	30203d3d 	eorcc	r3, r0, sp, lsr sp
    9a6c:	0000000a 	andeq	r0, r0, sl

00009a70 <__FUNCTION__.4273>:
    9a70:	74696d65 	strbtvc	r6, [r9], #-3429	; 0xfffff29b
    9a74:	00000000 	andeq	r0, r0, r0

00009a78 <__FUNCTION__.4221>:
    9a78:	5f697072 	svcpl	0x00697072
    9a7c:	5f746573 	svcpl	0x00746573
    9a80:	7074756f 	rsbsvc	r7, r4, pc, ror #10
    9a84:	00007475 	andeq	r7, r0, r5, ror r4

00009a88 <__FUNCTION__.4295>:
    9a88:	705f6176 	subsvc	r6, pc, r6, ror r1	; <UNPREDICTABLE>
    9a8c:	746e6972 	strbtvc	r6, [lr], #-2418	; 0xfffff68e
    9a90:	0000006b 	andeq	r0, r0, fp, rrx
    9a94:	6362696c 	cmnvs	r2, #108, 18	; 0x1b0000
    9a98:	2d61762f 	stclcs	6, cr7, [r1, #-188]!	; 0xffffff44
    9a9c:	6e697270 	mcrvs	2, 3, r7, cr9, cr0, {3}
    9aa0:	632e6b74 			; <UNDEFINED> instruction: 0x632e6b74
    9aa4:	00000000 	andeq	r0, r0, r0
    9aa8:	494e4150 	stmdbmi	lr, {r4, r6, r8, lr}^
    9aac:	73253a43 			; <UNDEFINED> instruction: 0x73253a43
    9ab0:	3a73253a 	bcc	1cd2fa0 <__bss_end__+0x1cc9010>
    9ab4:	303a6425 	eorscc	r6, sl, r5, lsr #8
    9ab8:	0000000a 	andeq	r0, r0, sl
    9abc:	33323130 	teqcc	r2, #48, 2
    9ac0:	37363534 			; <UNDEFINED> instruction: 0x37363534
    9ac4:	00003938 	andeq	r3, r0, r8, lsr r9
    9ac8:	33323130 	teqcc	r2, #48, 2
    9acc:	37363534 			; <UNDEFINED> instruction: 0x37363534
    9ad0:	62613938 	rsbvs	r3, r1, #56, 18	; 0xe0000
    9ad4:	66656463 	strbtvs	r6, [r5], -r3, ror #8
    9ad8:	00000000 	andeq	r0, r0, r0
    9adc:	00003130 	andeq	r3, r0, r0, lsr r1
    9ae0:	494e4150 	stmdbmi	lr, {r4, r6, r8, lr}^
    9ae4:	73253a43 			; <UNDEFINED> instruction: 0x73253a43
    9ae8:	3a73253a 	bcc	1cd2fd8 <__bss_end__+0x1cc9048>
    9aec:	703a6425 	eorsvc	r6, sl, r5, lsr #8
    9af0:	5f637475 	svcpl	0x00637475
    9af4:	000a7066 	andeq	r7, sl, r6, rrx
    9af8:	494e4150 	stmdbmi	lr, {r4, r6, r8, lr}^
    9afc:	73253a43 			; <UNDEFINED> instruction: 0x73253a43
    9b00:	3a73253a 	bcc	1cd2ff0 <__bss_end__+0x1cc9060>
    9b04:	773a6425 	ldrvc	r6, [sl, -r5, lsr #8]!
    9b08:	68746469 	ldmdavs	r4!, {r0, r3, r5, r6, sl, sp, lr}^
    9b0c:	33203c20 			; <UNDEFINED> instruction: 0x33203c20
    9b10:	00000a32 	andeq	r0, r0, r2, lsr sl
    9b14:	494e4150 	stmdbmi	lr, {r4, r6, r8, lr}^
    9b18:	73253a43 			; <UNDEFINED> instruction: 0x73253a43
    9b1c:	3a73253a 	bcc	1cd300c <__bss_end__+0x1cc907c>
    9b20:	663a6425 	ldrtvs	r6, [sl], -r5, lsr #8
    9b24:	74616f6c 	strbtvc	r6, [r1], #-3948	; 0xfffff094
    9b28:	746f6e20 	strbtvc	r6, [pc], #-3616	; 9b30 <__FUNCTION__.4295+0xa8>
    9b2c:	616e6520 	cmnvs	lr, r0, lsr #10
    9b30:	64656c62 	strbtvs	r6, [r5], #-3170	; 0xfffff39e
    9b34:	0a212121 	beq	851fc0 <__bss_end__+0x848030>
    9b38:	00000000 	andeq	r0, r0, r0
    9b3c:	494e4150 	stmdbmi	lr, {r4, r6, r8, lr}^
    9b40:	73253a43 			; <UNDEFINED> instruction: 0x73253a43
    9b44:	3a73253a 	bcc	1cd3034 <__bss_end__+0x1cc90a4>
    9b48:	703a6425 	eorsvc	r6, sl, r5, lsr #8
    9b4c:	746e6972 	strbtvc	r6, [lr], #-2418	; 0xfffff68e
    9b50:	6e203a6b 	vnmulvs.f32	s6, s0, s23
    9b54:	6820746f 	stmdavs	r0!, {r0, r1, r2, r3, r5, r6, sl, ip, sp, lr}
    9b58:	6c646e61 	stclvs	14, cr6, [r4], #-388	; 0xfffffe7c
    9b5c:	20676e69 	rsbcs	r6, r7, r9, ror #28
    9b60:	63657073 	cmnvs	r5, #115	; 0x73
    9b64:	65696669 	strbvs	r6, [r9, #-1641]!	; 0xfffff997
    9b68:	25272072 	strcs	r2, [r7, #-114]!	; 0xffffff8e
    9b6c:	0a0a2763 	beq	293900 <__bss_end__+0x289970>
    9b70:	00000000 	andeq	r0, r0, r0
    9b74:	63637573 	cmnvs	r3, #482344960	; 0x1cc00000
    9b78:	21737365 	cmncs	r3, r5, ror #6
    9b7c:	0000000a 	andeq	r0, r0, sl
    9b80:	454e4f44 	strbmi	r4, [lr, #-3908]	; 0xfffff0bc
    9b84:	0a212121 	beq	852010 <__bss_end__+0x848080>
    9b88:	00000000 	andeq	r0, r0, r0

Disassembly of section .bss:

00009b8c <__bss_start__>:
    9b8c:	00000000 	andeq	r0, r0, r0

00009b90 <buf.4221>:
	...

Disassembly of section .ARM.attributes:

00000000 <.ARM.attributes>:
   0:	00002a41 	andeq	r2, r0, r1, asr #20
   4:	61656100 	cmnvs	r5, r0, lsl #2
   8:	01006962 	tsteq	r0, r2, ror #18
   c:	00000020 	andeq	r0, r0, r0, lsr #32
  10:	4b5a3605 	blmi	168d82c <__bss_end__+0x168389c>
  14:	08070600 	stmdaeq	r7, {r9, sl}
  18:	12010901 	andne	r0, r1, #16384	; 0x4000
  1c:	15011404 	strne	r1, [r1, #-1028]	; 0xfffffbfc
  20:	18031701 	stmdane	r3, {r0, r8, r9, sl, ip}
  24:	22011a01 	andcs	r1, r1, #4096	; 0x1000
  28:	Address 0x0000000000000028 is out of bounds.


Disassembly of section .comment:

00000000 <.comment>:
   0:	3a434347 	bcc	10d0d24 <__bss_end__+0x10c6d94>
   4:	35312820 	ldrcc	r2, [r1, #-2080]!	; 0xfffff7e0
   8:	332e363a 			; <UNDEFINED> instruction: 0x332e363a
   c:	732b312e 			; <UNDEFINED> instruction: 0x732b312e
  10:	35326e76 	ldrcc	r6, [r2, #-3702]!	; 0xfffff18a
  14:	39333033 	ldmdbcc	r3!, {r0, r1, r4, r5, ip, sp}
  18:	7562312d 	strbvc	r3, [r2, #-301]!	; 0xfffffed3
  1c:	31646c69 	cmncc	r4, r9, ror #24
  20:	2e362029 	cdpcs	0, 3, cr2, cr6, cr9, {1}
  24:	20312e33 	eorscs	r2, r1, r3, lsr lr
  28:	37313032 			; <UNDEFINED> instruction: 0x37313032
  2c:	30323630 	eorscc	r3, r2, r0, lsr r6
  30:	43434700 	movtmi	r4, #14080	; 0x3700
  34:	4728203a 			; <UNDEFINED> instruction: 0x4728203a
  38:	5420554e 	strtpl	r5, [r0], #-1358	; 0xfffffab2
  3c:	736c6f6f 	cmnvc	ip, #444	; 0x1bc
  40:	726f6620 	rsbvc	r6, pc, #32, 12	; 0x2000000
  44:	6d724120 	ldfvse	f4, [r2, #-128]!	; 0xffffff80
  48:	626d4520 	rsbvs	r4, sp, #32, 10	; 0x8000000
  4c:	65646465 	strbvs	r6, [r4, #-1125]!	; 0xfffffb9b
  50:	72502064 	subsvc	r2, r0, #100	; 0x64
  54:	7365636f 	cmnvc	r5, #-1140850687	; 0xbc000001
  58:	73726f73 	cmnvc	r2, #460	; 0x1cc
  5c:	322d3720 	eorcc	r3, sp, #32, 14	; 0x800000
  60:	2d383130 	ldfcss	f3, [r8, #-192]!	; 0xffffff40
  64:	752d3371 	strvc	r3, [sp, #-881]!	; 0xfffffc8f
  68:	74616470 	strbtvc	r6, [r1], #-1136	; 0xfffffb90
  6c:	37202965 	strcc	r2, [r0, -r5, ror #18]!
  70:	312e332e 			; <UNDEFINED> instruction: 0x312e332e
  74:	31303220 	teqcc	r0, r0, lsr #4
  78:	32363038 	eorscc	r3, r6, #56	; 0x38
  7c:	72282032 	eorvc	r2, r8, #50	; 0x32
  80:	61656c65 	cmnvs	r5, r5, ror #24
  84:	20296573 	eorcs	r6, r9, r3, ror r5
  88:	4d52415b 	ldfmie	f4, [r2, #-364]	; 0xfffffe94
  8c:	626d652f 	rsbvs	r6, sp, #197132288	; 0xbc00000
  90:	65646465 	strbvs	r6, [r4, #-1125]!	; 0xfffffb9b
  94:	2d372d64 	ldccs	13, cr2, [r7, #-400]!	; 0xfffffe70
  98:	6e617262 	cdpvs	2, 6, cr7, cr1, cr2, {3}
  9c:	72206863 	eorvc	r6, r0, #6488064	; 0x630000
  a0:	73697665 	cmnvc	r9, #105906176	; 0x6500000
  a4:	206e6f69 	rsbcs	r6, lr, r9, ror #30
  a8:	39313632 	ldmdbcc	r1!, {r1, r4, r5, r9, sl, ip, sp}
  ac:	005d3730 	subseq	r3, sp, r0, lsr r7

Disassembly of section .debug_info:

00000000 <.debug_info>:
       0:	0000171b 	andeq	r1, r0, fp, lsl r7
       4:	00000004 	andeq	r0, r0, r4
       8:	01040000 	mrseq	r0, (UNDEF: 4)
       c:	00000023 	andeq	r0, r0, r3, lsr #32
      10:	0007f60c 	andeq	pc, r7, ip, lsl #12
      14:	00052500 	andeq	r2, r5, r0, lsl #10
      18:	00801000 	addeq	r1, r0, r0
      1c:	0005ac00 	andeq	sl, r5, r0, lsl #24
      20:	00000000 	andeq	r0, r0, r0
      24:	05040200 	streq	r0, [r4, #-512]	; 0xfffffe00
      28:	00746e69 	rsbseq	r6, r4, r9, ror #28
      2c:	57070403 	strpl	r0, [r7, -r3, lsl #8]
      30:	03000001 	movweq	r0, #1
      34:	06180601 	ldreq	r0, [r8], -r1, lsl #12
      38:	02030000 	andeq	r0, r3, #0
      3c:	00066305 	andeq	r6, r6, r5, lsl #6
      40:	05040300 	streq	r0, [r4, #-768]	; 0xfffffd00
      44:	000001cb 	andeq	r0, r0, fp, asr #3
      48:	c6050803 	strgt	r0, [r5], -r3, lsl #16
      4c:	04000001 	streq	r0, [r0], #-1
      50:	000008d0 	ldrdeq	r0, [r0], -r0	; <UNPREDICTABLE>
      54:	005a2e03 	subseq	r2, sl, r3, lsl #28
      58:	01030000 	mrseq	r0, (UNDEF: 3)
      5c:	00061608 	andeq	r1, r6, r8, lsl #12
      60:	02880400 	addeq	r0, r8, #0, 8
      64:	31030000 	mrscc	r0, (UNDEF: 3)
      68:	0000006c 	andeq	r0, r0, ip, rrx
      6c:	1d070203 	sfmne	f0, 4, [r7, #-12]
      70:	04000004 	streq	r0, [r0], #-4
      74:	00000745 	andeq	r0, r0, r5, asr #14
      78:	007e3403 	rsbseq	r3, lr, r3, lsl #8
      7c:	04030000 	streq	r0, [r3], #-0
      80:	00015207 	andeq	r5, r1, r7, lsl #4
      84:	07080300 	streq	r0, [r8, -r0, lsl #6]
      88:	0000014d 	andeq	r0, r0, sp, asr #2
      8c:	0005e104 	andeq	lr, r5, r4, lsl #2
      90:	25070400 	strcs	r0, [r7, #-1024]	; 0xfffffc00
      94:	04000000 	streq	r0, [r0], #-0
      98:	0000059d 	muleq	r0, sp, r5
      9c:	00412c05 	subeq	r2, r1, r5, lsl #24
      a0:	61040000 	mrsvs	r0, (UNDEF: 4)
      a4:	05000007 	streq	r0, [r0, #-7]
      a8:	00004172 	andeq	r4, r0, r2, ror r1
      ac:	04810500 	streq	r0, [r1], #1280	; 0x500
      b0:	65060000 	strvs	r0, [r6, #-0]
      b4:	00002c01 	andeq	r2, r0, r1, lsl #24
      b8:	05040600 	streq	r0, [r4, #-1536]	; 0xfffffa00
      bc:	0000d8a6 	andeq	sp, r0, r6, lsr #17
      c0:	046e0700 	strbteq	r0, [lr], #-1792	; 0xfffff900
      c4:	a8050000 	stmdage	r5, {}	; <UNPREDICTABLE>
      c8:	000000ad 	andeq	r0, r0, sp, lsr #1
      cc:	00038107 	andeq	r8, r3, r7, lsl #2
      d0:	d8a90500 	stmiale	r9!, {r8, sl}
      d4:	00000000 	andeq	r0, r0, r0
      d8:	00005a08 	andeq	r5, r0, r8, lsl #20
      dc:	0000e800 	andeq	lr, r0, r0, lsl #16
      e0:	00e80900 	rsceq	r0, r8, r0, lsl #18
      e4:	00030000 	andeq	r0, r3, r0
      e8:	0d070403 	cfstrseq	mvf0, [r7, #-12]
      ec:	0a000005 	beq	108 <_start-0x7ef8>
      f0:	10a30508 	adcne	r0, r3, r8, lsl #10
      f4:	0b000001 	bleq	100 <_start-0x7f00>
      f8:	0000073d 	andeq	r0, r0, sp, lsr r7
      fc:	0025a505 	eoreq	sl, r5, r5, lsl #10
     100:	0b000000 	bleq	108 <_start-0x7ef8>
     104:	000007e4 	andeq	r0, r0, r4, ror #15
     108:	00b9aa05 	adcseq	sl, r9, r5, lsl #20
     10c:	00040000 	andeq	r0, r4, r0
     110:	00069804 	andeq	r9, r6, r4, lsl #16
     114:	efab0500 	svc	0x00ab0500
     118:	04000000 	streq	r0, [r0], #-0
     11c:	0000031f 	andeq	r0, r0, pc, lsl r3
     120:	008caf05 	addeq	sl, ip, r5, lsl #30
     124:	040c0000 	streq	r0, [ip], #-0
     128:	012e040d 			; <UNDEFINED> instruction: 0x012e040d
     12c:	01030000 	mrseq	r0, (UNDEF: 3)
     130:	00061f08 	andeq	r1, r6, r8, lsl #30
     134:	012e0e00 			; <UNDEFINED> instruction: 0x012e0e00
     138:	1e040000 	cdpne	0, 0, cr0, cr4, cr0, {0}
     13c:	07000008 	streq	r0, [r0, -r8]
     140:	00007e16 	andeq	r7, r0, r6, lsl lr
     144:	03300f00 	teqeq	r0, #0, 30
     148:	07180000 	ldreq	r0, [r8, -r0]
     14c:	0001982d 	andeq	r9, r1, sp, lsr #16
     150:	06c90b00 	strbeq	r0, [r9], r0, lsl #22
     154:	2f070000 	svccs	0x00070000
     158:	00000198 	muleq	r0, r8, r1
     15c:	6b5f1000 	blvs	17c4164 <__bss_end__+0x17ba1d4>
     160:	25300700 	ldrcs	r0, [r0, #-1792]!	; 0xfffff900
     164:	04000000 	streq	r0, [r0], #-0
     168:	0007160b 	andeq	r1, r7, fp, lsl #12
     16c:	25300700 	ldrcs	r0, [r0, #-1792]!	; 0xfffff900
     170:	08000000 	stmdaeq	r0, {}	; <UNPREDICTABLE>
     174:	0003190b 	andeq	r1, r3, fp, lsl #18
     178:	25300700 	ldrcs	r0, [r0, #-1792]!	; 0xfffff900
     17c:	0c000000 	stceq	0, cr0, [r0], {-0}
     180:	0008b20b 	andeq	fp, r8, fp, lsl #4
     184:	25300700 	ldrcs	r0, [r0, #-1792]!	; 0xfffff900
     188:	10000000 	andne	r0, r0, r0
     18c:	00785f10 	rsbseq	r5, r8, r0, lsl pc
     190:	019e3107 	orrseq	r3, lr, r7, lsl #2
     194:	00140000 	andseq	r0, r4, r0
     198:	0145040d 	cmpeq	r5, sp, lsl #8
     19c:	3a080000 	bcc	2001a4 <__bss_end__+0x1f6214>
     1a0:	ae000001 	cdpge	0, 0, cr0, cr0, cr1, {0}
     1a4:	09000001 	stmdbeq	r0, {r0}
     1a8:	000000e8 	andeq	r0, r0, r8, ror #1
     1ac:	730f0000 	movwvc	r0, #61440	; 0xf000
     1b0:	24000003 	strcs	r0, [r0], #-3
     1b4:	02273507 	eoreq	r3, r7, #29360128	; 0x1c00000
     1b8:	bd0b0000 	stclt	0, cr0, [fp, #-0]
     1bc:	07000001 	streq	r0, [r0, -r1]
     1c0:	00002537 	andeq	r2, r0, r7, lsr r5
     1c4:	890b0000 	stmdbhi	fp, {}	; <UNPREDICTABLE>
     1c8:	07000007 	streq	r0, [r0, -r7]
     1cc:	00002538 	andeq	r2, r0, r8, lsr r5
     1d0:	070b0400 	streq	r0, [fp, -r0, lsl #8]
     1d4:	07000002 	streq	r0, [r0, -r2]
     1d8:	00002539 	andeq	r2, r0, r9, lsr r5
     1dc:	bc0b0800 	stclt	8, cr0, [fp], {-0}
     1e0:	07000009 	streq	r0, [r0, -r9]
     1e4:	0000253a 	andeq	r2, r0, sl, lsr r5
     1e8:	620b0c00 	andvs	r0, fp, #0, 24
     1ec:	07000005 	streq	r0, [r0, -r5]
     1f0:	0000253b 	andeq	r2, r0, fp, lsr r5
     1f4:	d00b1000 	andle	r1, fp, r0
     1f8:	07000004 	streq	r0, [r0, -r4]
     1fc:	0000253c 	andeq	r2, r0, ip, lsr r5
     200:	b70b1400 	strlt	r1, [fp, -r0, lsl #8]
     204:	07000008 	streq	r0, [r0, -r8]
     208:	0000253d 	andeq	r2, r0, sp, lsr r5
     20c:	6d0b1800 	stcvs	8, cr1, [fp, #-0]
     210:	07000006 	streq	r0, [r0, -r6]
     214:	0000253e 	andeq	r2, r0, lr, lsr r5
     218:	360b1c00 	strcc	r1, [fp], -r0, lsl #24
     21c:	07000009 	streq	r0, [r0, -r9]
     220:	0000253f 	andeq	r2, r0, pc, lsr r5
     224:	11002000 	mrsne	r2, (UNDEF: 0)
     228:	00000216 	andeq	r0, r0, r6, lsl r2
     22c:	48070108 	stmdami	r7, {r3, r8}
     230:	00000267 	andeq	r0, r0, r7, ror #4
     234:	0002eb0b 	andeq	lr, r2, fp, lsl #22
     238:	67490700 	strbvs	r0, [r9, -r0, lsl #14]
     23c:	00000002 	andeq	r0, r0, r2
     240:	0000000b 	andeq	r0, r0, fp
     244:	674a0700 	strbvs	r0, [sl, -r0, lsl #14]
     248:	80000002 	andhi	r0, r0, r2
     24c:	0007ab12 	andeq	sl, r7, r2, lsl fp
     250:	3a4c0700 	bcc	1301e58 <__bss_end__+0x12f7ec8>
     254:	00000001 	andeq	r0, r0, r1
     258:	02601201 	rsbeq	r1, r0, #268435456	; 0x10000000
     25c:	4f070000 	svcmi	0x00070000
     260:	0000013a 	andeq	r0, r0, sl, lsr r1
     264:	08000104 	stmdaeq	r0, {r2, r8}
     268:	00000126 	andeq	r0, r0, r6, lsr #2
     26c:	00000277 	andeq	r0, r0, r7, ror r2
     270:	0000e809 	andeq	lr, r0, r9, lsl #16
     274:	11001f00 	tstne	r0, r0, lsl #30
     278:	0000057c 	andeq	r0, r0, ip, ror r5
     27c:	5b070190 	blpl	1c08c4 <__bss_end__+0x1b6934>
     280:	000002b5 			; <UNDEFINED> instruction: 0x000002b5
     284:	0006c90b 	andeq	ip, r6, fp, lsl #18
     288:	b55c0700 	ldrblt	r0, [ip, #-1792]	; 0xfffff900
     28c:	00000002 	andeq	r0, r0, r2
     290:	0006f70b 	andeq	pc, r6, fp, lsl #14
     294:	255d0700 	ldrbcs	r0, [sp, #-1792]	; 0xfffff900
     298:	04000000 	streq	r0, [r0], #-0
     29c:	0003140b 	andeq	r1, r3, fp, lsl #8
     2a0:	bb5f0700 	bllt	17c1ea8 <__bss_end__+0x17b7f18>
     2a4:	08000002 	stmdaeq	r0, {r1}
     2a8:	0002160b 	andeq	r1, r2, fp, lsl #12
     2ac:	27600700 	strbcs	r0, [r0, -r0, lsl #14]!
     2b0:	88000002 	stmdahi	r0, {r1}
     2b4:	77040d00 	strvc	r0, [r4, -r0, lsl #26]
     2b8:	08000002 	stmdaeq	r0, {r1}
     2bc:	000002cb 	andeq	r0, r0, fp, asr #5
     2c0:	000002cb 	andeq	r0, r0, fp, asr #5
     2c4:	0000e809 	andeq	lr, r0, r9, lsl #16
     2c8:	0d001f00 	stceq	15, cr1, [r0, #-0]
     2cc:	0002d104 	andeq	sp, r2, r4, lsl #2
     2d0:	770f1300 	strvc	r1, [pc, -r0, lsl #6]
     2d4:	08000006 	stmdaeq	r0, {r1, r2}
     2d8:	02f77307 	rscseq	r7, r7, #469762048	; 0x1c000000
     2dc:	010b0000 	mrseq	r0, (UNDEF: 11)
     2e0:	07000002 	streq	r0, [r0, -r2]
     2e4:	0002f774 	andeq	pc, r2, r4, ror r7	; <UNPREDICTABLE>
     2e8:	a60b0000 	strge	r0, [fp], -r0
     2ec:	07000000 	streq	r0, [r0, -r0]
     2f0:	00002575 	andeq	r2, r0, r5, ror r5
     2f4:	0d000400 	cfstrseq	mvf0, [r0, #-0]
     2f8:	00005a04 	andeq	r5, r0, r4, lsl #20
     2fc:	06a30f00 	strteq	r0, [r3], r0, lsl #30
     300:	07680000 	strbeq	r0, [r8, -r0]!
     304:	000427b3 			; <UNDEFINED> instruction: 0x000427b3
     308:	705f1000 	subsvc	r1, pc, r0
     30c:	f7b40700 			; <UNDEFINED> instruction: 0xf7b40700
     310:	00000002 	andeq	r0, r0, r2
     314:	00725f10 	rsbseq	r5, r2, r0, lsl pc
     318:	0025b507 	eoreq	fp, r5, r7, lsl #10
     31c:	10040000 	andne	r0, r4, r0
     320:	0700775f 	smlsdeq	r0, pc, r7, r7	; <UNPREDICTABLE>
     324:	000025b6 			; <UNDEFINED> instruction: 0x000025b6
     328:	590b0800 	stmdbpl	fp, {fp}
     32c:	07000002 	streq	r0, [r0, -r2]
     330:	00003ab7 			; <UNDEFINED> instruction: 0x00003ab7
     334:	b20b0c00 	andlt	r0, fp, #0, 24
     338:	07000003 	streq	r0, [r0, -r3]
     33c:	00003ab8 			; <UNDEFINED> instruction: 0x00003ab8
     340:	5f100e00 	svcpl	0x00100e00
     344:	07006662 	streq	r6, [r0, -r2, ror #12]
     348:	0002d2b9 			; <UNDEFINED> instruction: 0x0002d2b9
     34c:	6d0b1000 	stcvs	0, cr1, [fp, #-0]
     350:	07000001 	streq	r0, [r0, -r1]
     354:	000025ba 			; <UNDEFINED> instruction: 0x000025ba
     358:	240b1800 	strcs	r1, [fp], #-2048	; 0xfffff800
     35c:	07000002 	streq	r0, [r0, -r2]
     360:	000126c1 	andeq	r2, r1, r1, asr #13
     364:	9a0b1c00 	bls	2c736c <__bss_end__+0x2bd3dc>
     368:	07000008 	streq	r0, [r0, -r8]
     36c:	000582c3 	andeq	r8, r5, r3, asr #5
     370:	790b2000 	stmdbvc	fp, {sp}
     374:	07000001 	streq	r0, [r0, -r1]
     378:	0005acc5 	andeq	sl, r5, r5, asr #25
     37c:	4e0b2400 	cfcpysmi	mvf2, mvf11
     380:	07000007 	streq	r0, [r0, -r7]
     384:	0005d0c8 	andeq	sp, r5, r8, asr #1
     388:	500b2800 	andpl	r2, fp, r0, lsl #16
     38c:	07000009 	streq	r0, [r0, -r9]
     390:	0005eac9 	andeq	lr, r5, r9, asr #21
     394:	5f102c00 	svcpl	0x00102c00
     398:	07006275 	smlsdxeq	r0, r5, r2, r6
     39c:	0002d2cc 	andeq	sp, r2, ip, asr #5
     3a0:	5f103000 	svcpl	0x00103000
     3a4:	07007075 	smlsdxeq	r0, r5, r0, r7
     3a8:	0002f7cd 	andeq	pc, r2, sp, asr #15
     3ac:	5f103800 	svcpl	0x00103800
     3b0:	07007275 	smlsdxeq	r0, r5, r2, r7
     3b4:	000025ce 	andeq	r2, r0, lr, asr #11
     3b8:	f30b3c00 			; <UNDEFINED> instruction: 0xf30b3c00
     3bc:	07000001 	streq	r0, [r0, -r1]
     3c0:	0005f0d1 	ldrdeq	pc, [r5], -r1
     3c4:	110b4000 	mrsne	r4, (UNDEF: 11)
     3c8:	07000009 	streq	r0, [r0, -r9]
     3cc:	000600d2 	ldrdeq	r0, [r6], -r2
     3d0:	5f104300 	svcpl	0x00104300
     3d4:	0700626c 	streq	r6, [r0, -ip, ror #4]
     3d8:	0002d2d5 	ldrdeq	sp, [r2], -r5
     3dc:	760b4400 	strvc	r4, [fp], -r0, lsl #8
     3e0:	07000002 	streq	r0, [r0, -r2]
     3e4:	000025d8 	ldrdeq	r2, [r0], -r8
     3e8:	ac0b4c00 	stcge	12, cr4, [fp], {-0}
     3ec:	07000002 	streq	r0, [r0, -r2]
     3f0:	000097d9 	ldrdeq	r9, [r0], -r9	; <UNPREDICTABLE>
     3f4:	440b5000 	strmi	r5, [fp], #-0
     3f8:	07000006 	streq	r0, [r0, -r6]
     3fc:	000445dc 	ldrdeq	r4, [r4], -ip
     400:	6a0b5400 	bvs	2d5408 <__bss_end__+0x2cb478>
     404:	07000010 	smladeq	r0, r0, r0, r0
     408:	00011be0 	andeq	r1, r1, r0, ror #23
     40c:	bb0b5800 	bllt	2d6414 <__bss_end__+0x2cc484>
     410:	07000006 	streq	r0, [r0, -r6]
     414:	000110e2 	andeq	r1, r1, r2, ror #1
     418:	9e0b5c00 	cdpls	12, 0, cr5, cr11, cr0, {0}
     41c:	07000004 	streq	r0, [r0, -r4]
     420:	000025e3 	andeq	r2, r0, r3, ror #11
     424:	14006400 	strne	r6, [r0], #-1024	; 0xfffffc00
     428:	00000025 	andeq	r0, r0, r5, lsr #32
     42c:	00000445 	andeq	r0, r0, r5, asr #8
     430:	00044515 	andeq	r4, r4, r5, lsl r5
     434:	01261500 			; <UNDEFINED> instruction: 0x01261500
     438:	28150000 	ldmdacs	r5, {}	; <UNPREDICTABLE>
     43c:	15000001 	strne	r0, [r0, #-1]
     440:	00000025 	andeq	r0, r0, r5, lsr #32
     444:	50040d00 	andpl	r0, r4, r0, lsl #26
     448:	0e000004 	cdpeq	0, 0, cr0, cr0, cr4, {0}
     44c:	00000445 	andeq	r0, r0, r5, asr #8
     450:	00071e16 	andeq	r1, r7, r6, lsl lr
     454:	07042800 	streq	r2, [r4, -r0, lsl #16]
     458:	05820238 	streq	r0, [r2, #568]	; 0x238
     45c:	5c170000 	ldcpl	0, cr0, [r7], {-0}
     460:	07000006 	streq	r0, [r0, -r6]
     464:	0025023a 	eoreq	r0, r5, sl, lsr r2
     468:	17000000 	strne	r0, [r0, -r0]
     46c:	00000268 	andeq	r0, r0, r8, ror #4
     470:	57023f07 	strpl	r3, [r2, -r7, lsl #30]
     474:	04000006 	streq	r0, [r0], #-6
     478:	00039717 	andeq	r9, r3, r7, lsl r7
     47c:	023f0700 	eorseq	r0, pc, #0, 14
     480:	00000657 	andeq	r0, r0, r7, asr r6
     484:	03281708 			; <UNDEFINED> instruction: 0x03281708
     488:	3f070000 	svccc	0x00070000
     48c:	00065702 	andeq	r5, r6, r2, lsl #14
     490:	f2170c00 			; <UNDEFINED> instruction: 0xf2170c00
     494:	07000006 	streq	r0, [r0, -r6]
     498:	00250241 	eoreq	r0, r5, r1, asr #4
     49c:	17100000 	ldrne	r0, [r0, -r0]
     4a0:	000000ed 	andeq	r0, r0, sp, ror #1
     4a4:	39024207 	stmdbcc	r2, {r0, r1, r2, r9, lr}
     4a8:	14000008 	strne	r0, [r0], #-8
     4ac:	00085c17 	andeq	r5, r8, r7, lsl ip
     4b0:	02440700 	subeq	r0, r4, #0, 14
     4b4:	00000025 	andeq	r0, r0, r5, lsr #32
     4b8:	06fc1730 			; <UNDEFINED> instruction: 0x06fc1730
     4bc:	45070000 	strmi	r0, [r7, #-0]
     4c0:	0005a602 	andeq	sl, r5, r2, lsl #12
     4c4:	92173400 	andsls	r3, r7, #0, 8
     4c8:	07000005 	streq	r0, [r0, -r5]
     4cc:	00250247 	eoreq	r0, r5, r7, asr #4
     4d0:	17380000 	ldrne	r0, [r8, -r0]!
     4d4:	0000070c 	andeq	r0, r0, ip, lsl #14
     4d8:	54024907 	strpl	r4, [r2], #-2311	; 0xfffff6f9
     4dc:	3c000008 	stccc	0, cr0, [r0], {8}
     4e0:	00046617 	andeq	r6, r4, r7, lsl r6
     4e4:	024c0700 	subeq	r0, ip, #0, 14
     4e8:	00000198 	muleq	r0, r8, r1
     4ec:	035d1740 	cmpeq	sp, #64, 14	; 0x1000000
     4f0:	4d070000 	stcmi	0, cr0, [r7, #-0]
     4f4:	00002502 	andeq	r2, r0, r2, lsl #10
     4f8:	73174400 	tstvc	r7, #0, 8
     4fc:	07000009 	streq	r0, [r0, -r9]
     500:	0198024e 	orrseq	r0, r8, lr, asr #4
     504:	17480000 	strbne	r0, [r8, -r0]
     508:	000005c7 	andeq	r0, r0, r7, asr #11
     50c:	5a024f07 	bpl	94130 <__bss_end__+0x8a1a0>
     510:	4c000008 	stcmi	0, cr0, [r0], {8}
     514:	00039f17 	andeq	r9, r3, r7, lsl pc
     518:	02520700 	subseq	r0, r2, #0, 14
     51c:	00000025 	andeq	r0, r0, r5, lsr #32
     520:	02a41750 	adceq	r1, r4, #80, 14	; 0x1400000
     524:	53070000 	movwpl	r0, #28672	; 0x7000
     528:	00012802 	andeq	r2, r1, r2, lsl #16
     52c:	2c175400 	cfldrscs	mvf5, [r7], {-0}
     530:	07000011 	smladeq	r0, r1, r0, r0
     534:	08170276 	ldmdaeq	r7, {r1, r2, r4, r5, r6, r9}
     538:	18580000 	ldmdane	r8, {}^	; <UNPREDICTABLE>
     53c:	0000057c 	andeq	r0, r0, ip, ror r5
     540:	b5027a07 	strlt	r7, [r2, #-2567]	; 0xfffff5f9
     544:	48000002 	stmdami	r0, {r1}
     548:	04301801 	ldrteq	r1, [r0], #-2049	; 0xfffff7ff
     54c:	7b070000 	blvc	1c0554 <__bss_end__+0x1b65c4>
     550:	00027702 	andeq	r7, r2, r2, lsl #14
     554:	18014c00 	stmdane	r1, {sl, fp, lr}
     558:	000008e2 	andeq	r0, r0, r2, ror #17
     55c:	6b027f07 	blvs	a0180 <__bss_end__+0x961f0>
     560:	dc000008 	stcle	0, cr0, [r0], {8}
     564:	022c1802 	eoreq	r1, ip, #131072	; 0x20000
     568:	84070000 	strhi	r0, [r7], #-0
     56c:	00061c02 	andeq	r1, r6, r2, lsl #24
     570:	1802e000 	stmdane	r2, {sp, lr, pc}
     574:	00000211 	andeq	r0, r0, r1, lsl r2
     578:	77028507 	strvc	r8, [r2, -r7, lsl #10]
     57c:	ec000008 	stc	0, cr0, [r0], {8}
     580:	040d0002 	streq	r0, [sp], #-2
     584:	00000427 	andeq	r0, r0, r7, lsr #8
     588:	00002514 	andeq	r2, r0, r4, lsl r5
     58c:	0005a600 	andeq	sl, r5, r0, lsl #12
     590:	04451500 	strbeq	r1, [r5], #-1280	; 0xfffffb00
     594:	26150000 	ldrcs	r0, [r5], -r0
     598:	15000001 	strne	r0, [r0, #-1]
     59c:	000005a6 	andeq	r0, r0, r6, lsr #11
     5a0:	00002515 	andeq	r2, r0, r5, lsl r5
     5a4:	040d0000 	streq	r0, [sp], #-0
     5a8:	00000135 	andeq	r0, r0, r5, lsr r1
     5ac:	0588040d 	streq	r0, [r8, #1037]	; 0x40d
     5b0:	a2140000 	andsge	r0, r4, #0
     5b4:	d0000000 	andle	r0, r0, r0
     5b8:	15000005 	strne	r0, [r0, #-5]
     5bc:	00000445 	andeq	r0, r0, r5, asr #8
     5c0:	00012615 	andeq	r2, r1, r5, lsl r6
     5c4:	00a21500 	adceq	r1, r2, r0, lsl #10
     5c8:	25150000 	ldrcs	r0, [r5, #-0]
     5cc:	00000000 	andeq	r0, r0, r0
     5d0:	05b2040d 	ldreq	r0, [r2, #1037]!	; 0x40d
     5d4:	25140000 	ldrcs	r0, [r4, #-0]
     5d8:	ea000000 	b	5e0 <_start-0x7a20>
     5dc:	15000005 	strne	r0, [r0, #-5]
     5e0:	00000445 	andeq	r0, r0, r5, asr #8
     5e4:	00012615 	andeq	r2, r1, r5, lsl r6
     5e8:	040d0000 	streq	r0, [sp], #-0
     5ec:	000005d6 	ldrdeq	r0, [r0], -r6
     5f0:	00005a08 	andeq	r5, r0, r8, lsl #20
     5f4:	00060000 	andeq	r0, r6, r0
     5f8:	00e80900 	rsceq	r0, r8, r0, lsl #18
     5fc:	00020000 	andeq	r0, r2, r0
     600:	00005a08 	andeq	r5, r0, r8, lsl #20
     604:	00061000 	andeq	r1, r6, r0
     608:	00e80900 	rsceq	r0, r8, r0, lsl #18
     60c:	00000000 	andeq	r0, r0, r0
     610:	00069105 	andeq	r9, r6, r5, lsl #2
     614:	011d0700 	tsteq	sp, r0, lsl #14
     618:	000002fd 	strdeq	r0, [r0], -sp
     61c:	0008c119 	andeq	ip, r8, r9, lsl r1
     620:	21070c00 	tstcs	r7, r0, lsl #24
     624:	00065101 	andeq	r5, r6, r1, lsl #2
     628:	06c91700 	strbeq	r1, [r9], r0, lsl #14
     62c:	23070000 	movwcs	r0, #28672	; 0x7000
     630:	00065101 	andeq	r5, r6, r1, lsl #2
     634:	00170000 	andseq	r0, r7, r0
     638:	07000004 	streq	r0, [r0, -r4]
     63c:	00250124 	eoreq	r0, r5, r4, lsr #2
     640:	17040000 	strne	r0, [r4, -r0]
     644:	0000068b 	andeq	r0, r0, fp, lsl #13
     648:	57012507 	strpl	r2, [r1, -r7, lsl #10]
     64c:	08000006 	stmdaeq	r0, {r1, r2}
     650:	1c040d00 	stcne	13, cr0, [r4], {-0}
     654:	0d000006 	stceq	0, cr0, [r0, #-24]	; 0xffffffe8
     658:	00061004 	andeq	r1, r6, r4
     65c:	00d11900 	sbcseq	r1, r1, r0, lsl #18
     660:	070e0000 	streq	r0, [lr, -r0]
     664:	0692013d 			; <UNDEFINED> instruction: 0x0692013d
     668:	2e170000 	cdpcs	0, 1, cr0, cr7, cr0, {0}
     66c:	07000007 	streq	r0, [r0, -r7]
     670:	0692013e 			; <UNDEFINED> instruction: 0x0692013e
     674:	17000000 	strne	r0, [r0, -r0]
     678:	000007d1 	ldrdeq	r0, [r0], -r1
     67c:	92013f07 	andls	r3, r1, #7, 30
     680:	06000006 	streq	r0, [r0], -r6
     684:	00081017 	andeq	r1, r8, r7, lsl r0
     688:	01400700 	cmpeq	r0, r0, lsl #14
     68c:	0000006c 	andeq	r0, r0, ip, rrx
     690:	6c08000c 	stcvs	0, cr0, [r8], {12}
     694:	a2000000 	andge	r0, r0, #0
     698:	09000006 	stmdbeq	r0, {r1, r2}
     69c:	000000e8 	andeq	r0, r0, r8, ror #1
     6a0:	d01a0002 	andsle	r0, sl, r2
     6a4:	a3025707 	movwge	r5, #9991	; 0x2707
     6a8:	17000007 	strne	r0, [r0, -r7]
     6ac:	0000088a 	andeq	r0, r0, sl, lsl #17
     6b0:	2c025907 			; <UNDEFINED> instruction: 0x2c025907
     6b4:	00000000 	andeq	r0, r0, r0
     6b8:	0007d717 	andeq	sp, r7, r7, lsl r7
     6bc:	025a0700 	subseq	r0, sl, #0, 14
     6c0:	00000128 	andeq	r0, r0, r8, lsr #2
     6c4:	04451704 	strbeq	r1, [r5], #-1796	; 0xfffff8fc
     6c8:	5b070000 	blpl	1c06d0 <__bss_end__+0x1b6740>
     6cc:	0007a302 	andeq	sl, r7, r2, lsl #6
     6d0:	41170800 	tstmi	r7, r0, lsl #16
     6d4:	07000009 	streq	r0, [r0, -r9]
     6d8:	01ae025c 			; <UNDEFINED> instruction: 0x01ae025c
     6dc:	17240000 	strne	r0, [r4, -r0]!
     6e0:	00000338 	andeq	r0, r0, r8, lsr r3
     6e4:	25025d07 	strcs	r5, [r2, #-3335]	; 0xfffff2f9
     6e8:	48000000 	stmdami	r0, {}	; <UNPREDICTABLE>
     6ec:	0006c417 	andeq	ip, r6, r7, lsl r4
     6f0:	025e0700 	subseq	r0, lr, #0, 14
     6f4:	00000085 	andeq	r0, r0, r5, lsl #1
     6f8:	09571750 	ldmdbeq	r7, {r4, r6, r8, r9, sl, ip}^
     6fc:	5f070000 	svcpl	0x00070000
     700:	00065d02 	andeq	r5, r6, r2, lsl #26
     704:	e5175800 	ldr	r5, [r7, #-2048]	; 0xfffff800
     708:	07000006 	streq	r0, [r0, -r6]
     70c:	01100260 	tsteq	r0, r0, ror #4
     710:	17680000 	strbne	r0, [r8, -r0]!
     714:	00000965 	andeq	r0, r0, r5, ror #18
     718:	10026107 	andne	r6, r2, r7, lsl #2
     71c:	70000001 	andvc	r0, r0, r1
     720:	0001af17 	andeq	sl, r1, r7, lsl pc
     724:	02620700 	rsbeq	r0, r2, #0, 14
     728:	00000110 	andeq	r0, r0, r0, lsl r1
     72c:	08d81778 	ldmeq	r8, {r3, r4, r5, r6, r8, r9, sl, ip}^
     730:	63070000 	movwvs	r0, #28672	; 0x7000
     734:	0007b302 	andeq	fp, r7, r2, lsl #6
     738:	39178000 	ldmdbcc	r7, {pc}
     73c:	07000004 	streq	r0, [r0, -r4]
     740:	07c30264 	strbeq	r0, [r3, r4, ror #4]
     744:	17880000 	strne	r0, [r8, r0]
     748:	00000826 	andeq	r0, r0, r6, lsr #16
     74c:	25026507 	strcs	r6, [r2, #-1287]	; 0xfffffaf9
     750:	a0000000 	andge	r0, r0, r0
     754:	0002dd17 	andeq	sp, r2, r7, lsl sp
     758:	02660700 	rsbeq	r0, r6, #0, 14
     75c:	00000110 	andeq	r0, r0, r0, lsl r1
     760:	018b17a4 	orreq	r1, fp, r4, lsr #15
     764:	67070000 	strvs	r0, [r7, -r0]
     768:	00011002 	andeq	r1, r1, r2
     76c:	c317ac00 	tstgt	r7, #0, 24
     770:	07000002 	streq	r0, [r0, -r2]
     774:	01100268 	tsteq	r0, r8, ror #4
     778:	17b40000 	ldrne	r0, [r4, r0]!
     77c:	0000012d 	andeq	r0, r0, sp, lsr #2
     780:	10026907 	andne	r6, r2, r7, lsl #18
     784:	bc000001 	stclt	0, cr0, [r0], {1}
     788:	00013c17 	andeq	r3, r1, r7, lsl ip
     78c:	026a0700 	rsbeq	r0, sl, #0, 14
     790:	00000110 	andeq	r0, r0, r0, lsl r1
     794:	065a17c4 	ldrbeq	r1, [sl], -r4, asr #15
     798:	6b070000 	blvs	1c07a0 <__bss_end__+0x1b6810>
     79c:	00002502 	andeq	r2, r0, r2, lsl #10
     7a0:	0800cc00 	stmdaeq	r0, {sl, fp, lr, pc}
     7a4:	0000012e 	andeq	r0, r0, lr, lsr #2
     7a8:	000007b3 			; <UNDEFINED> instruction: 0x000007b3
     7ac:	0000e809 	andeq	lr, r0, r9, lsl #16
     7b0:	08001900 	stmdaeq	r0, {r8, fp, ip}
     7b4:	0000012e 	andeq	r0, r0, lr, lsr #2
     7b8:	000007c3 	andeq	r0, r0, r3, asr #15
     7bc:	0000e809 	andeq	lr, r0, r9, lsl #16
     7c0:	08000700 	stmdaeq	r0, {r8, r9, sl}
     7c4:	0000012e 	andeq	r0, r0, lr, lsr #2
     7c8:	000007d3 	ldrdeq	r0, [r0], -r3
     7cc:	0000e809 	andeq	lr, r0, r9, lsl #16
     7d0:	1a001700 	bne	63d8 <_start-0x1c28>
     7d4:	027007f0 	rsbseq	r0, r0, #240, 14	; 0x3c00000
     7d8:	000007f7 	strdeq	r0, [r0], -r7
     7dc:	00055117 	andeq	r5, r5, r7, lsl r1
     7e0:	02730700 	rsbseq	r0, r3, #0, 14
     7e4:	000007f7 	strdeq	r0, [r0], -r7
     7e8:	04f81700 	ldrbteq	r1, [r8], #1792	; 0x700
     7ec:	74070000 	strvc	r0, [r7], #-0
     7f0:	00080702 	andeq	r0, r8, r2, lsl #14
     7f4:	08007800 	stmdaeq	r0, {fp, ip, sp, lr}
     7f8:	000002f7 	strdeq	r0, [r0], -r7
     7fc:	00000807 	andeq	r0, r0, r7, lsl #16
     800:	0000e809 	andeq	lr, r0, r9, lsl #16
     804:	08001d00 	stmdaeq	r0, {r8, sl, fp, ip}
     808:	0000002c 	andeq	r0, r0, ip, lsr #32
     80c:	00000817 	andeq	r0, r0, r7, lsl r8
     810:	0000e809 	andeq	lr, r0, r9, lsl #16
     814:	1b001d00 	blne	7c1c <_start-0x3e4>
     818:	025507f0 	subseq	r0, r5, #240, 14	; 0x3c00000
     81c:	00000839 	andeq	r0, r0, r9, lsr r8
     820:	00071e1c 	andeq	r1, r7, ip, lsl lr
     824:	026c0700 	rsbeq	r0, ip, #0, 14
     828:	000006a2 	andeq	r0, r0, r2, lsr #13
     82c:	0009171c 	andeq	r1, r9, ip, lsl r7
     830:	02750700 	rsbseq	r0, r5, #0, 14
     834:	000007d3 	ldrdeq	r0, [r0], -r3
     838:	012e0800 			; <UNDEFINED> instruction: 0x012e0800
     83c:	08490000 	stmdaeq	r9, {}^	; <UNPREDICTABLE>
     840:	e8090000 	stmda	r9, {}	; <UNPREDICTABLE>
     844:	18000000 	stmdane	r0, {}	; <UNPREDICTABLE>
     848:	08541d00 	ldmdaeq	r4, {r8, sl, fp, ip}^
     84c:	45150000 	ldrmi	r0, [r5, #-0]
     850:	00000004 	andeq	r0, r0, r4
     854:	0849040d 	stmdaeq	r9, {r0, r2, r3, sl}^
     858:	040d0000 	streq	r0, [sp], #-0
     85c:	00000198 	muleq	r0, r8, r1
     860:	00086b1d 	andeq	r6, r8, sp, lsl fp
     864:	00251500 	eoreq	r1, r5, r0, lsl #10
     868:	0d000000 	stceq	0, cr0, [r0, #-0]
     86c:	00087104 	andeq	r7, r8, r4, lsl #2
     870:	60040d00 	andvs	r0, r4, r0, lsl #26
     874:	08000008 	stmdaeq	r0, {r3}
     878:	00000610 	andeq	r0, r0, r0, lsl r6
     87c:	00000887 	andeq	r0, r0, r7, lsl #17
     880:	0000e809 	andeq	lr, r0, r9, lsl #16
     884:	1e000200 	cdpne	2, 0, cr0, cr0, cr0, {0}
     888:	00000850 	andeq	r0, r0, r0, asr r8
     88c:	4502fd07 	strmi	pc, [r2, #-3335]	; 0xfffff2f9
     890:	1e000004 	cdpne	0, 0, cr0, cr0, cr4, {0}
     894:	00000849 	andeq	r0, r0, r9, asr #16
     898:	4b02fe07 	blmi	c00bc <__bss_end__+0xb612c>
     89c:	14000004 	strne	r0, [r0], #-4
     8a0:	00000025 	andeq	r0, r0, r5, lsr #32
     8a4:	000008ae 	andeq	r0, r0, lr, lsr #17
     8a8:	00002515 	andeq	r2, r0, r5, lsl r5
     8ac:	671f0000 	ldrvs	r0, [pc, -r0]
     8b0:	08000003 	stmdaeq	r0, {r0, r1}
     8b4:	0008b91d 	andeq	fp, r8, sp, lsl r9
     8b8:	9f040d00 	svcls	0x00040d00
     8bc:	14000008 	strne	r0, [r0], #-8
     8c0:	00000025 	andeq	r0, r0, r5, lsr #32
     8c4:	000008ce 	andeq	r0, r0, lr, asr #17
     8c8:	0005a615 	andeq	sl, r5, r5, lsl r6
     8cc:	051f0000 	ldreq	r0, [pc, #-0]	; 8d4 <_start-0x772c>
     8d0:	0800000d 	stmdaeq	r0, {r0, r2, r3}
     8d4:	0008d922 	andeq	sp, r8, r2, lsr #18
     8d8:	bf040d00 	svclt	0x00040d00
     8dc:	20000008 	andcs	r0, r0, r8
     8e0:	00005a01 	andeq	r5, r0, r1, lsl #20
     8e4:	f2040200 	vhsub.s8	d0, d4, d0
     8e8:	21000008 	tstcs	r0, r8
     8ec:	00000833 	andeq	r0, r0, r3, lsr r8
     8f0:	0420006b 	strteq	r0, [r0], #-107	; 0xffffff95
     8f4:	0000002c 	andeq	r0, r0, ip, lsr #32
     8f8:	09230702 	stmdbeq	r3!, {r1, r8, r9, sl}
     8fc:	01220000 			; <UNDEFINED> instruction: 0x01220000
     900:	00000005 	andeq	r0, r0, r5
     904:	22000200 	andcs	r0, r0, #0, 4
     908:	000005b1 			; <UNDEFINED> instruction: 0x000005b1
     90c:	00040002 	andeq	r0, r4, r2
     910:	00012122 	andeq	r2, r1, r2, lsr #2
     914:	08000300 	stmdaeq	r0, {r8, r9}
     918:	04102200 	ldreq	r2, [r0], #-512	; 0xfffffe00
     91c:	00010000 	andeq	r0, r1, r0
     920:	04000010 	streq	r0, [r0], #-16
     924:	000000f8 	strdeq	r0, [r0], -r8
     928:	08f20f02 	ldmeq	r2!, {r1, r8, r9, sl, fp}^
     92c:	01200000 			; <UNDEFINED> instruction: 0x01200000
     930:	0000005a 	andeq	r0, r0, sl, asr r0
     934:	097d2c02 	ldmdbeq	sp!, {r1, sl, fp, sp}^
     938:	a4210000 	strtge	r0, [r1], #-0
     93c:	00000005 	andeq	r0, r0, r5
     940:	00058421 	andeq	r8, r5, r1, lsr #8
     944:	ec210100 	stfs	f0, [r1], #-0
     948:	02000008 	andeq	r0, r0, #8
     94c:	00034f21 	andeq	r4, r3, r1, lsr #30
     950:	dc210300 	stcle	3, cr0, [r1], #-0
     954:	04000003 	streq	r0, [r0], #-3
     958:	0002fb21 	andeq	pc, r2, r1, lsr #22
     95c:	92210500 	eorls	r0, r1, #0, 10
     960:	06000007 	streq	r0, [r0], -r7
     964:	0000b721 	andeq	fp, r0, r1, lsr #14
     968:	7a210700 	bvc	842570 <__bss_end__+0x8385e0>
     96c:	08000008 	stmdaeq	r0, {r3}
     970:	0007c121 	andeq	ip, r7, r1, lsr #2
     974:	d1210900 			; <UNDEFINED> instruction: 0xd1210900
     978:	0a000005 	beq	994 <_start-0x766c>
     97c:	04ea0400 	strbteq	r0, [sl], #1024	; 0x400
     980:	3a020000 	bcc	80988 <__bss_end__+0x769f8>
     984:	0000092e 	andeq	r0, r0, lr, lsr #18
     988:	0004da23 	andeq	sp, r4, r3, lsr #20
     98c:	005a0100 	subseq	r0, sl, r0, lsl #2
     990:	48020000 	stmdami	r2, {}	; <UNPREDICTABLE>
     994:	00000b01 	andeq	r0, r0, r1, lsl #22
     998:	00064a21 	andeq	r4, r6, r1, lsr #20
     99c:	ac210100 	stfges	f0, [r1], #-0
     9a0:	06000000 	streq	r0, [r0], -r0
     9a4:	00048821 	andeq	r8, r4, r1, lsr #16
     9a8:	c6210700 	strtgt	r0, [r1], -r0, lsl #14
     9ac:	08000000 	stmdaeq	r0, {}	; <UNPREDICTABLE>
     9b0:	00049321 	andeq	r9, r4, r1, lsr #6
     9b4:	d9210900 	stmdble	r1!, {r8, fp}
     9b8:	0a000000 	beq	9c0 <_start-0x7640>
     9bc:	00076921 	andeq	r6, r7, r1, lsr #18
     9c0:	9a210b00 	bls	8435c8 <__bss_end__+0x839638>
     9c4:	0d000002 	stceq	0, cr0, [r0, #-8]
     9c8:	0009aa21 	andeq	sl, r9, r1, lsr #20
     9cc:	58210e00 	stmdapl	r1!, {r9, sl, fp}
     9d0:	0f000007 	svceq	0x00000007
     9d4:	0001df21 	andeq	sp, r1, r1, lsr #30
     9d8:	f8211000 			; <UNDEFINED> instruction: 0xf8211000
     9dc:	11000003 	tstne	r0, r3
     9e0:	0009b421 	andeq	fp, r9, r1, lsr #8
     9e4:	0c211200 	sfmeq	f1, 4, [r1], #-0
     9e8:	13000000 	movwne	r0, #0
     9ec:	0007fe21 	andeq	pc, r7, r1, lsr #28
     9f0:	33211400 			; <UNDEFINED> instruction: 0x33211400
     9f4:	15000006 	strne	r0, [r0, #-6]
     9f8:	0004c821 	andeq	ip, r4, r1, lsr #16
     9fc:	34211600 	strtcc	r1, [r1], #-1536	; 0xfffffa00
     a00:	17000002 	strne	r0, [r0, -r2]
     a04:	0000e421 	andeq	lr, r0, r1, lsr #8
     a08:	15211800 	strne	r1, [r1, #-2048]!	; 0xfffff800
     a0c:	19000008 	stmdbne	r0, {r3}
     a10:	00077d21 	andeq	r7, r7, r1, lsr #26
     a14:	f3211b00 	vqrdmulh.s32	d1, d1, d0
     a18:	1c000002 	stcne	0, cr0, [r0], {2}
     a1c:	00092e21 	andeq	r2, r9, r1, lsr #28
     a20:	a7211d00 	strge	r1, [r1, -r0, lsl #26]!
     a24:	1e000003 	cdpne	0, 0, cr0, cr0, cr3, {0}
     a28:	0001e821 	andeq	lr, r1, r1, lsr #16
     a2c:	d4212000 	strtle	r2, [r1], #-0
     a30:	21000001 	tstcs	r0, r1
     a34:	00027f21 	andeq	r7, r2, r1, lsr #30
     a38:	25212200 	strcs	r2, [r1, #-512]!	; 0xfffffe00
     a3c:	23000007 	movwcs	r0, #7
     a40:	0005fe21 	andeq	pc, r5, r1, lsr #28
     a44:	5c212400 	cfstrspl	mvf2, [r1], #-0
     a48:	25000009 	strcs	r0, [r0, #-9]
     a4c:	0002d421 	andeq	sp, r2, r1, lsr #8
     a50:	a1212600 			; <UNDEFINED> instruction: 0xa1212600
     a54:	27000009 	strcs	r0, [r0, -r9]
     a58:	00080621 	andeq	r0, r8, r1, lsr #12
     a5c:	0a212800 	beq	84aa64 <__bss_end__+0x840ad4>
     a60:	29000003 	stmdbcs	r0, {r0, r1}
     a64:	0003b821 	andeq	fp, r3, r1, lsr #16
     a68:	cf212a00 	svcgt	0x00212a00
     a6c:	2b000006 	blcs	a8c <_start-0x7574>
     a70:	0007a121 	andeq	sl, r7, r1, lsr #2
     a74:	ec212c00 	stc	12, cr2, [r1], #-0
     a78:	2d000007 	stccs	0, cr0, [r0, #-28]	; 0xffffffe4
     a7c:	0003c221 	andeq	ip, r3, r1, lsr #4
     a80:	cf213a00 	svcgt	0x00213a00
     a84:	3b000003 	blcc	a98 <_start-0x7568>
     a88:	0007b421 	andeq	fp, r7, r1, lsr #8
     a8c:	eb213c00 	bl	84fa94 <__bss_end__+0x845b04>
     a90:	3d000003 	stccc	0, cr0, [r0, #-12]
     a94:	00099121 	andeq	r9, r9, r1, lsr #2
     a98:	78213e00 	stmdavc	r1!, {r9, sl, fp, ip, sp}
     a9c:	3f000009 	svccc	0x00000009
     aa0:	00001421 	andeq	r1, r0, r1, lsr #8
     aa4:	1f214000 	svcne	0x00214000
     aa8:	41000009 	tstmi	r0, r9
     aac:	00090221 	andeq	r0, r9, r1, lsr #4
     ab0:	6b214200 	blvs	8512b8 <__bss_end__+0x847328>
     ab4:	49000005 	stmdbmi	r0, {r0, r2}
     ab8:	00023d21 	andeq	r3, r2, r1, lsr #26
     abc:	24214a00 	strtcs	r4, [r1], #-2560	; 0xfffff600
     ac0:	4b000006 	blmi	ae0 <_start-0x7520>
     ac4:	00060721 	andeq	r0, r6, r1, lsr #14
     ac8:	c7214c00 	strgt	r4, [r1, -r0, lsl #24]!
     acc:	53000008 	movwpl	r0, #8
     ad0:	0004e221 	andeq	lr, r4, r1, lsr #4
     ad4:	4e215800 	cdpmi	8, 2, cr5, cr1, cr0, {0}
     ad8:	59000002 	stmdbpl	r0, {r1}
     adc:	00098821 	andeq	r8, r9, r1, lsr #16
     ae0:	6e215a00 	vmulvs.f32	s10, s2, s0
     ae4:	5b000008 	blpl	b0c <_start-0x74f4>
     ae8:	0006d921 	andeq	sp, r6, r1, lsr #18
     aec:	58215c00 	stmdapl	r1!, {sl, fp, ip, lr}
     af0:	5d000005 	stcpl	0, cr0, [r0, #-20]	; 0xffffffec
     af4:	0001f921 	andeq	pc, r1, r1, lsr #18
     af8:	fa215e00 	blx	858300 <__bss_end__+0x84e370>
     afc:	5f000008 	svcpl	0x00000008
     b00:	020c0a00 	andeq	r0, ip, #0, 20
     b04:	000b2892 	muleq	fp, r2, r8
     b08:	00781000 	rsbseq	r1, r8, r0
     b0c:	00259202 	eoreq	r9, r5, r2, lsl #4
     b10:	10000000 	andne	r0, r0, r0
     b14:	92020079 	andls	r0, r2, #121	; 0x79
     b18:	00000025 	andeq	r0, r0, r5, lsr #32
     b1c:	007a1004 	rsbseq	r1, sl, r4
     b20:	00259202 	eoreq	r9, r5, r2, lsl #4
     b24:	00080000 	andeq	r0, r8, r0
     b28:	0005bd04 	andeq	fp, r5, r4, lsl #26
     b2c:	01920200 	orrseq	r0, r2, r0, lsl #4
     b30:	0a00000b 	beq	b64 <_start-0x749c>
     b34:	5d97020c 	lfmpl	f0, 4, [r7, #48]	; 0x30
     b38:	0b00000b 	bleq	b6c <_start-0x7494>
     b3c:	00000844 	andeq	r0, r0, r4, asr #16
     b40:	004f9802 	subeq	r9, pc, r2, lsl #16
     b44:	10000000 	andne	r0, r0, r0
     b48:	02007a68 	andeq	r7, r0, #104, 20	; 0x68000
     b4c:	00002c99 	muleq	r0, r9, ip
     b50:	67100400 	ldrvs	r0, [r0, -r0, lsl #8]
     b54:	2c9a0200 	lfmcs	f0, 4, [sl], {0}
     b58:	08000000 	stmdaeq	r0, {}	; <UNPREDICTABLE>
     b5c:	03470400 	movteq	r0, #29696	; 0x7400
     b60:	9b020000 	blls	80b68 <__bss_end__+0x76bd8>
     b64:	00000b33 	andeq	r0, r0, r3, lsr fp
     b68:	005a0120 	subseq	r0, sl, r0, lsr #2
     b6c:	1d010000 	stcne	0, cr0, [r1, #-0]
     b70:	00000b93 	muleq	r0, r3, fp
     b74:	0006ab21 	andeq	sl, r6, r1, lsr #22
     b78:	c6213800 	strtgt	r3, [r1], -r0, lsl #16
     b7c:	01000009 	tsteq	r0, r9
     b80:	00009921 	andeq	r9, r0, r1, lsr #18
     b84:	b4210100 	strtlt	r0, [r1], #-256	; 0xffffff00
     b88:	06000002 	streq	r0, [r0], -r2
     b8c:	00018021 	andeq	r8, r1, r1, lsr #32
     b90:	20004000 	andcs	r4, r0, r0
     b94:	00005a01 	andeq	r5, r0, r1, lsl #20
     b98:	a6240100 	strtge	r0, [r4], -r0, lsl #2
     b9c:	2100000b 	tstcs	r0, fp
     ba0:	00000754 	andeq	r0, r0, r4, asr r7
     ba4:	0f240069 	svceq	0x00240069
     ba8:	01000001 	tsteq	r0, r1
     bac:	00853cce 	addeq	r3, r5, lr, asr #25
     bb0:	00008000 	andeq	r8, r0, r0
     bb4:	af9c0100 	svcge	0x009c0100
     bb8:	2500000c 	strcs	r0, [r0, #-12]
     bbc:	000004a6 	andeq	r0, r0, r6, lsr #9
     bc0:	004fd601 	subeq	sp, pc, r1, lsl #12
     bc4:	266b0000 	strbtcs	r0, [fp], -r0
     bc8:	d7010076 	smlsdxle	r1, r6, r0, r0
     bcc:	0000004f 	andeq	r0, r0, pc, asr #32
     bd0:	00000000 	andeq	r0, r0, r0
     bd4:	00047427 	andeq	r7, r4, r7, lsr #8
     bd8:	000cbf00 	andeq	fp, ip, r0, lsl #30
     bdc:	34030500 	strcc	r0, [r3], #-1280	; 0xfffffb00
     be0:	28000096 	stmdacs	r0, {r1, r2, r4, r7}
     be4:	00008548 	andeq	r8, r0, r8, asr #10
     be8:	000016bb 			; <UNDEFINED> instruction: 0x000016bb
     bec:	00855029 	addeq	r5, r5, r9, lsr #32
     bf0:	0016c600 	andseq	ip, r6, r0, lsl #12
     bf4:	000c0000 	andeq	r0, ip, r0
     bf8:	50012a00 	andpl	r2, r1, r0, lsl #20
     bfc:	00640802 	rsbeq	r0, r4, r2, lsl #16
     c00:	00855428 	addeq	r5, r5, r8, lsr #8
     c04:	0016d100 	andseq	sp, r6, r0, lsl #2
     c08:	855c2900 	ldrbhi	r2, [ip, #-2304]	; 0xfffff700
     c0c:	16c60000 	strbne	r0, [r6], r0
     c10:	0c1d0000 	ldceq	0, cr0, [sp], {-0}
     c14:	012a0000 			; <UNDEFINED> instruction: 0x012a0000
     c18:	64080250 	strvs	r0, [r8], #-592	; 0xfffffdb0
     c1c:	85682900 	strbhi	r2, [r8, #-2304]!	; 0xfffff700
     c20:	16090000 	strne	r0, [r9], -r0
     c24:	0c360000 	ldceq	0, cr0, [r6], #-0
     c28:	012a0000 			; <UNDEFINED> instruction: 0x012a0000
     c2c:	6b080250 	blvs	201574 <__bss_end__+0x1f75e4>
     c30:	0151012a 	cmpeq	r1, sl, lsr #2
     c34:	7828003f 	stmdavc	r8!, {r0, r1, r2, r3, r4, r5}
     c38:	dc000085 	stcle	0, cr0, [r0], {133}	; 0x85
     c3c:	29000016 	stmdbcs	r0, {r1, r2, r4}
     c40:	00008598 	muleq	r0, r8, r5
     c44:	000016e7 	andeq	r1, r0, r7, ror #13
     c48:	00000c7c 	andeq	r0, r0, ip, ror ip
     c4c:	0550012a 	ldrbeq	r0, [r0, #-298]	; 0xfffffed6
     c50:	0097b803 	addseq	fp, r7, r3, lsl #16
     c54:	51012a00 	tstpl	r1, r0, lsl #20
     c58:	963c0305 	ldrtls	r0, [ip], -r5, lsl #6
     c5c:	012a0000 			; <UNDEFINED> instruction: 0x012a0000
     c60:	34030552 	strcc	r0, [r3], #-1362	; 0xfffffaae
     c64:	2a000096 	bcs	ec4 <_start-0x713c>
     c68:	08025301 	stmdaeq	r2, {r0, r8, r9, ip, lr}
     c6c:	7d022ad9 	vstrvc	s4, [r2, #-868]	; 0xfffffc9c
     c70:	69080200 	stmdbvs	r8, {r9}
     c74:	047d022a 	ldrbteq	r0, [sp], #-554	; 0xfffffdd6
     c78:	00007402 	andeq	r7, r0, r2, lsl #8
     c7c:	00859c28 	addeq	r9, r5, r8, lsr #24
     c80:	0016f200 	andseq	pc, r6, r0, lsl #4
     c84:	85a42900 	strhi	r2, [r4, #2304]!	; 0x900
     c88:	16e70000 	strbtne	r0, [r7], r0
     c8c:	0c9c0000 	ldceq	0, cr0, [ip], {0}
     c90:	012a0000 			; <UNDEFINED> instruction: 0x012a0000
     c94:	f4030550 	vst3.16	{d0,d2,d4}, [r3 :64], r0
     c98:	00000097 	muleq	r0, r7, r0
     c9c:	0085a828 	addeq	sl, r5, r8, lsr #16
     ca0:	000cc400 	andeq	ip, ip, r0, lsl #8
     ca4:	85ac2800 	strhi	r2, [ip, #2048]!	; 0x800
     ca8:	16f20000 	ldrbtne	r0, [r2], r0
     cac:	08000000 	stmdaeq	r0, {}	; <UNPREDICTABLE>
     cb0:	00000135 	andeq	r0, r0, r5, lsr r1
     cb4:	00000cbf 			; <UNDEFINED> instruction: 0x00000cbf
     cb8:	0000e809 	andeq	lr, r0, r9, lsl #16
     cbc:	0e000700 	cdpeq	7, 0, cr0, cr0, cr0, {0}
     cc0:	00000caf 	andeq	r0, r0, pc, lsr #25
     cc4:	0001a124 	andeq	sl, r1, r4, lsr #2
     cc8:	28b30100 	ldmcs	r3!, {r8}
     ccc:	14000084 	strne	r0, [r0], #-132	; 0xffffff7c
     cd0:	01000001 	tsteq	r0, r1
     cd4:	000ea99c 	muleq	lr, ip, r9
     cd8:	00682b00 	rsbeq	r2, r8, r0, lsl #22
     cdc:	0b5db501 	bleq	176e0e8 <__bss_end__+0x1764158>
     ce0:	91020000 	mrsls	r0, (UNDEF: 2)
     ce4:	00782c64 	rsbseq	r2, r8, r4, ror #24
     ce8:	0025b701 	eoreq	fp, r5, r1, lsl #14
     cec:	792c0000 	stmdbvc	ip!, {}	; <UNPREDICTABLE>
     cf0:	25b70100 	ldrcs	r0, [r7, #256]!	; 0x100
     cf4:	2c000000 	stccs	0, cr0, [r0], {-0}
     cf8:	b701007a 	smlsdxlt	r1, sl, r0, r0
     cfc:	00000025 	andeq	r0, r0, r5, lsr #32
     d00:	0084a82d 	addeq	sl, r4, sp, lsr #16
     d04:	00007800 	andeq	r7, r0, r0, lsl #16
     d08:	000dce00 	andeq	ip, sp, r0, lsl #28
     d0c:	00692600 	rsbeq	r2, r9, r0, lsl #12
     d10:	0025c001 	eoreq	ip, r5, r1
     d14:	001e0000 	andseq	r0, lr, r0
     d18:	b02e0000 	eorlt	r0, lr, r0
     d1c:	64000084 	strvs	r0, [r0], #-132	; 0xffffff7c
     d20:	2b000000 	blcs	d28 <_start-0x72d8>
     d24:	c1010076 	tstgt	r1, r6, ror r0
     d28:	00000b28 	andeq	r0, r0, r8, lsr #22
     d2c:	29589102 	ldmdbcs	r8, {r1, r8, ip, pc}^
     d30:	000084c0 	andeq	r8, r0, r0, asr #9
     d34:	0000110c 	andeq	r1, r0, ip, lsl #2
     d38:	00000d49 	andeq	r0, r0, r9, asr #26
     d3c:	0250012a 	subseq	r0, r0, #-2147483638	; 0x8000000a
     d40:	012a0074 			; <UNDEFINED> instruction: 0x012a0074
     d44:	5c910251 	lfmpl	f0, 4, [r1], {81}	; 0x51
     d48:	84d42900 	ldrbhi	r2, [r4], #2304	; 0x900
     d4c:	16e70000 	strbtne	r0, [r7], r0
     d50:	0d750000 	ldcleq	0, cr0, [r5, #-0]
     d54:	012a0000 			; <UNDEFINED> instruction: 0x012a0000
     d58:	68030550 	stmdavs	r3, {r4, r6, r8, sl}
     d5c:	2a000097 	bcs	fc0 <_start-0x7040>
     d60:	74035101 	strvc	r5, [r3], #-257	; 0xfffffeff
     d64:	012a0600 			; <UNDEFINED> instruction: 0x012a0600
     d68:	54910352 	ldrpl	r0, [r1], #850	; 0x352
     d6c:	53012a06 	movwpl	r2, #6662	; 0x1a06
     d70:	06589103 	ldrbeq	r9, [r8], -r3, lsl #2
     d74:	84f02900 	ldrbthi	r2, [r0], #2304	; 0x900
     d78:	12000000 	andne	r0, r0, #0
     d7c:	0d8f0000 	stceq	0, cr0, [pc]	; d84 <_start-0x727c>
     d80:	012a0000 			; <UNDEFINED> instruction: 0x012a0000
     d84:	00750250 	rsbseq	r0, r5, r0, asr r2
     d88:	0251012a 	subseq	r0, r1, #-2147483638	; 0x8000000a
     d8c:	29005c91 	stmdbcs	r0, {r0, r4, r7, sl, fp, ip, lr}
     d90:	0000850c 	andeq	r8, r0, ip, lsl #10
     d94:	000016e7 	andeq	r1, r0, r7, ror #13
     d98:	00000dbb 			; <UNDEFINED> instruction: 0x00000dbb
     d9c:	0550012a 	ldrbeq	r0, [r0, #-298]	; 0xfffffed6
     da0:	00978c03 	addseq	r8, r7, r3, lsl #24
     da4:	51012a00 	tstpl	r1, r0, lsl #20
     da8:	06007403 	streq	r7, [r0], -r3, lsl #8
     dac:	0352012a 	cmpeq	r2, #-2147483638	; 0x8000000a
     db0:	2a065491 	bcs	195ffc <__bss_end__+0x18c06c>
     db4:	91035301 	tstls	r3, r1, lsl #6
     db8:	2f000658 	svccs	0x00000658
     dbc:	00008514 	andeq	r8, r0, r4, lsl r5
     dc0:	000016c6 	andeq	r1, r0, r6, asr #13
     dc4:	0350012a 	cmpeq	r0, #-2147483638	; 0x8000000a
     dc8:	0001f40a 	andeq	pc, r1, sl, lsl #8
     dcc:	44290000 	strtmi	r0, [r9], #-0
     dd0:	a9000084 	stmdbge	r0, {r2, r7}
     dd4:	f400000e 	vst4.8	{d0-d3}, [r0], lr
     dd8:	2a00000d 	bcs	e14 <_start-0x71ec>
     ddc:	91025001 	tstls	r2, r1
     de0:	51012a5c 	tstpl	r1, ip, asr sl
     de4:	2a6b0802 	bcs	1ac2df4 <__bss_end__+0x1ab8e64>
     de8:	40035201 	andmi	r5, r3, r1, lsl #4
     dec:	012a243d 			; <UNDEFINED> instruction: 0x012a243d
     df0:	00360153 	eorseq	r0, r6, r3, asr r1
     df4:	00845829 	addeq	r5, r4, r9, lsr #16
     df8:	0012ff00 	andseq	pc, r2, r0, lsl #30
     dfc:	000e1600 	andeq	r1, lr, r0, lsl #12
     e00:	50012a00 	andpl	r2, r1, r0, lsl #20
     e04:	012a3001 			; <UNDEFINED> instruction: 0x012a3001
     e08:	2a300151 	bcs	c01354 <__bss_end__+0xbf73c4>
     e0c:	30015201 	andcc	r5, r1, r1, lsl #4
     e10:	0153012a 	cmpeq	r3, sl, lsr #2
     e14:	6c290032 	stcvs	0, cr0, [r9], #-200	; 0xffffff38
     e18:	ff000084 			; <UNDEFINED> instruction: 0xff000084
     e1c:	3b000012 	blcc	e6c <_start-0x7194>
     e20:	2a00000e 	bcs	e60 <_start-0x71a0>
     e24:	0a035001 	beq	d4e30 <__bss_end__+0xcaea0>
     e28:	012a015e 			; <UNDEFINED> instruction: 0x012a015e
     e2c:	2a460151 	bcs	1181378 <__bss_end__+0x11773e8>
     e30:	08025201 	stmdaeq	r2, {r0, r9, ip, lr}
     e34:	53012a69 	movwpl	r2, #6761	; 0x1a69
     e38:	29003201 	stmdbcs	r0, {r0, r9, ip, sp}
     e3c:	00008480 	andeq	r8, r0, r0, lsl #9
     e40:	000012ff 	strdeq	r1, [r0], -pc	; <UNPREDICTABLE>
     e44:	00000e60 	andeq	r0, r0, r0, ror #28
     e48:	0350012a 	cmpeq	r0, #-2147483638	; 0x8000000a
     e4c:	2a03e80a 	bcs	fae7c <__bss_end__+0xf0eec>
     e50:	08025101 	stmdaeq	r2, {r0, r8, ip, lr}
     e54:	52012a40 	andpl	r2, r1, #64, 20	; 0x40000
     e58:	012a3901 			; <UNDEFINED> instruction: 0x012a3901
     e5c:	00320153 	eorseq	r0, r2, r3, asr r1
     e60:	00849429 	addeq	r9, r4, r9, lsr #8
     e64:	0012ff00 	andseq	pc, r2, r0, lsl #30
     e68:	000e8600 	andeq	r8, lr, r0, lsl #12
     e6c:	50012a00 	andpl	r2, r1, r0, lsl #20
     e70:	fea20b03 			; <UNDEFINED> instruction: 0xfea20b03
     e74:	0251012a 	subseq	r0, r1, #-2147483638	; 0x8000000a
     e78:	012ae909 			; <UNDEFINED> instruction: 0x012ae909
     e7c:	97090252 	smlsdls	r9, r2, r2, r0
     e80:	0153012a 	cmpeq	r3, sl, lsr #2
     e84:	a82f0032 	stmdage	pc!, {r1, r4, r5}	; <UNPREDICTABLE>
     e88:	ff000084 			; <UNDEFINED> instruction: 0xff000084
     e8c:	2a000012 	bcs	edc <_start-0x7124>
     e90:	0b035001 	bleq	d4e9c <__bss_end__+0xcaf0c>
     e94:	012afc18 	msreq	CPSR_fx, r8, lsl ip
     e98:	bf090251 	svclt	0x00090251
     e9c:	0252012a 	subseq	r0, r2, #-2147483638	; 0x8000000a
     ea0:	012af709 	msreq	(UNDEF: 58), r9
     ea4:	00320153 	eorseq	r0, r2, r3, asr r1
     ea8:	05f33000 	ldrbeq	r3, [r3, #0]!
     eac:	8d010000 	stchi	0, cr0, [r1, #-0]
     eb0:	00000b5d 	andeq	r0, r0, sp, asr fp
     eb4:	00008290 	muleq	r0, r0, r2
     eb8:	00000198 	muleq	r0, r8, r1
     ebc:	10f79c01 	rscsne	r9, r7, r1, lsl #24
     ec0:	44310000 	ldrtmi	r0, [r1], #-0
     ec4:	01000008 	tsteq	r0, r8
     ec8:	00004f8d 	andeq	r4, r0, sp, lsl #31
     ecc:	00003d00 	andeq	r3, r0, r0, lsl #26
     ed0:	00673200 	rsbeq	r3, r7, r0, lsl #4
     ed4:	09238d01 	stmdbeq	r3!, {r0, r8, sl, fp, pc}
     ed8:	005e0000 	subseq	r0, lr, r0
     edc:	68320000 	ldmdavs	r2!, {}	; <UNPREDICTABLE>
     ee0:	8d01007a 	stchi	0, cr0, [r1, #-488]	; 0xfffffe18
     ee4:	0000097d 	andeq	r0, r0, sp, ror r9
     ee8:	00000095 	muleq	r0, r5, r0
     eec:	00047427 	andeq	r7, r4, r7, lsr #8
     ef0:	00110700 	andseq	r0, r1, r0, lsl #14
     ef4:	28030500 	stmdacs	r3, {r8, sl}
     ef8:	33000096 	movwcc	r0, #150	; 0x96
     efc:	00000292 	muleq	r0, r2, r2
     f00:	002ca001 	eoreq	sl, ip, r1
     f04:	00b60000 	adcseq	r0, r6, r0
     f08:	b5330000 	ldrlt	r0, [r3, #-0]!
     f0c:	01000004 	tsteq	r0, r4
     f10:	00002ca1 	andeq	r2, r0, r1, lsr #25
     f14:	0000ec00 	andeq	lr, r0, r0, lsl #24
     f18:	00682b00 	rsbeq	r2, r8, r0, lsl #22
     f1c:	0b5da401 	bleq	1769f28 <__bss_end__+0x175ff98>
     f20:	91020000 	mrsls	r0, (UNDEF: 2)
     f24:	16a1345c 	ssatne	r3, #2, ip, asr #8
     f28:	82b80000 	adcshi	r0, r8, #0
     f2c:	00000000 	andeq	r0, r0, r0
     f30:	9a010000 	bls	40f38 <__bss_end__+0x36fa8>
     f34:	00000f42 	andeq	r0, r0, r2, asr #30
     f38:	0016b135 	andseq	fp, r6, r5, lsr r1
     f3c:	00012a00 	andeq	r2, r1, r0, lsl #20
     f40:	ac280000 	stcge	0, cr0, [r8], #-0
     f44:	fd000082 	stc2	0, cr0, [r0, #-520]	; 0xfffffdf8
     f48:	28000016 	stmdacs	r0, {r1, r2, r4}
     f4c:	000082e8 	andeq	r8, r0, r8, ror #5
     f50:	000016dc 	ldrdeq	r1, [r0], -ip
     f54:	00830029 	addeq	r0, r3, r9, lsr #32
     f58:	0016e700 	andseq	lr, r6, r0, lsl #14
     f5c:	000f8a00 	andeq	r8, pc, r0, lsl #20
     f60:	50012a00 	andpl	r2, r1, r0, lsl #20
     f64:	96b40305 	ldrtls	r0, [r4], r5, lsl #6
     f68:	012a0000 			; <UNDEFINED> instruction: 0x012a0000
     f6c:	3c030551 	cfstr32cc	mvfx0, [r3], {81}	; 0x51
     f70:	2a000096 	bcs	11d0 <_start-0x6e30>
     f74:	03055201 	movweq	r5, #20993	; 0x5201
     f78:	00009628 	andeq	r9, r0, r8, lsr #12
     f7c:	0253012a 	subseq	r0, r3, #-2147483638	; 0x8000000a
     f80:	022a9608 	eoreq	r9, sl, #8, 12	; 0x800000
     f84:	7602007d 			; <UNDEFINED> instruction: 0x7602007d
     f88:	04280000 	strteq	r0, [r8], #-0
     f8c:	f2000083 	vhadd.s8	d0, d16, d3
     f90:	29000016 	stmdbcs	r0, {r1, r2, r4}
     f94:	00008340 	andeq	r8, r0, r0, asr #6
     f98:	00001595 	muleq	r0, r5, r5
     f9c:	00000fb2 			; <UNDEFINED> instruction: 0x00000fb2
     fa0:	0250012a 	subseq	r0, r0, #-2147483638	; 0x8000000a
     fa4:	012a0077 			; <UNDEFINED> instruction: 0x012a0077
     fa8:	2a480151 	bcs	12014f4 <__bss_end__+0x11f7564>
     fac:	08025201 	stmdaeq	r2, {r0, r9, ip, lr}
     fb0:	58290038 	stmdapl	r9!, {r3, r4, r5}
     fb4:	95000083 	strls	r0, [r0, #-131]	; 0xffffff7d
     fb8:	c5000015 	strgt	r0, [r0, #-21]	; 0xffffffeb
     fbc:	2a00000f 	bcs	1000 <_start-0x7000>
     fc0:	40015101 	andmi	r5, r1, r1, lsl #2
     fc4:	83682900 	cmnhi	r8, #0, 18
     fc8:	15950000 	ldrne	r0, [r5]
     fcc:	0fde0000 	svceq	0x00de0000
     fd0:	012a0000 			; <UNDEFINED> instruction: 0x012a0000
     fd4:	2a420151 	bcs	1081520 <__bss_end__+0x1077590>
     fd8:	08025201 	stmdaeq	r2, {r0, r9, ip, lr}
     fdc:	70290040 	eorvc	r0, r9, r0, asr #32
     fe0:	c6000083 	strgt	r0, [r0], -r3, lsl #1
     fe4:	f1000016 	cps	#22
     fe8:	2a00000f 	bcs	102c <_start-0x6fd4>
     fec:	44015001 	strmi	r5, [r1], #-1
     ff0:	83802900 	orrhi	r2, r0, #0, 18
     ff4:	110c0000 	mrsne	r0, (UNDEF: 12)
     ff8:	100b0000 	andne	r0, fp, r0
     ffc:	012a0000 			; <UNDEFINED> instruction: 0x012a0000
    1000:	40910250 	addsmi	r0, r1, r0, asr r2
    1004:	0251012a 	subseq	r0, r1, #-2147483638	; 0x8000000a
    1008:	29000074 	stmdbcs	r0, {r2, r4, r5, r6}
    100c:	0000838c 	andeq	r8, r0, ip, lsl #7
    1010:	0000110c 	andeq	r1, r0, ip, lsl #2
    1014:	00001025 	andeq	r1, r0, r5, lsr #32
    1018:	0250012a 	subseq	r0, r0, #-2147483638	; 0x8000000a
    101c:	012a4091 			; <UNDEFINED> instruction: 0x012a4091
    1020:	00740251 	rsbseq	r0, r4, r1, asr r2
    1024:	83ac2800 			; <UNDEFINED> instruction: 0x83ac2800
    1028:	16dc0000 	ldrbne	r0, [ip], r0
    102c:	c4290000 	strtgt	r0, [r9], #-0
    1030:	e7000083 	str	r0, [r0, -r3, lsl #1]
    1034:	64000016 	strvs	r0, [r0], #-22	; 0xffffffea
    1038:	2a000010 	bcs	1080 <_start-0x6f80>
    103c:	03055001 	movweq	r5, #20481	; 0x5001
    1040:	000096f8 	strdeq	r9, [r0], -r8
    1044:	0551012a 	ldrbeq	r0, [r1, #-298]	; 0xfffffed6
    1048:	00963c03 	addseq	r3, r6, r3, lsl #24
    104c:	52012a00 	andpl	r2, r1, #0, 20
    1050:	96280305 	strtls	r0, [r8], -r5, lsl #6
    1054:	012a0000 			; <UNDEFINED> instruction: 0x012a0000
    1058:	9b080253 	blls	2019ac <__bss_end__+0x1f7a1c>
    105c:	007d022a 	rsbseq	r0, sp, sl, lsr #4
    1060:	00007402 	andeq	r7, r0, r2, lsl #8
    1064:	0083c828 	addeq	ip, r3, r8, lsr #16
    1068:	0016f200 	andseq	pc, r6, r0, lsl #4
    106c:	83cc2800 	bichi	r2, ip, #0, 16
    1070:	16dc0000 	ldrbne	r0, [ip], r0
    1074:	e4290000 	strt	r0, [r9], #-0
    1078:	e7000083 	str	r0, [r0, -r3, lsl #1]
    107c:	ac000016 	stcge	0, cr0, [r0], {22}
    1080:	2a000010 	bcs	10c8 <_start-0x6f38>
    1084:	03055001 	movweq	r5, #20481	; 0x5001
    1088:	00009720 	andeq	r9, r0, r0, lsr #14
    108c:	0551012a 	ldrbeq	r0, [r1, #-298]	; 0xfffffed6
    1090:	00963c03 	addseq	r3, r6, r3, lsl #24
    1094:	52012a00 	andpl	r2, r1, #0, 20
    1098:	96280305 	strtls	r0, [r8], -r5, lsl #6
    109c:	012a0000 			; <UNDEFINED> instruction: 0x012a0000
    10a0:	9d080253 	sfmls	f0, 4, [r8, #-332]	; 0xfffffeb4
    10a4:	007d022a 	rsbseq	r0, sp, sl, lsr #4
    10a8:	00007602 	andeq	r7, r0, r2, lsl #12
    10ac:	0083e828 	addeq	lr, r3, r8, lsr #16
    10b0:	0016f200 	andseq	pc, r6, r0, lsl #4
    10b4:	83ec2800 	mvnhi	r2, #0, 16
    10b8:	16dc0000 	ldrbne	r0, [ip], r0
    10bc:	00290000 	eoreq	r0, r9, r0
    10c0:	e7000084 	str	r0, [r0, -r4, lsl #1]
    10c4:	ed000016 	stc	0, cr0, [r0, #-88]	; 0xffffffa8
    10c8:	2a000010 	bcs	1110 <_start-0x6ef0>
    10cc:	03055001 	movweq	r5, #20481	; 0x5001
    10d0:	00009740 	andeq	r9, r0, r0, asr #14
    10d4:	0551012a 	ldrbeq	r0, [r1, #-298]	; 0xfffffed6
    10d8:	00963c03 	addseq	r3, r6, r3, lsl #24
    10dc:	52012a00 	andpl	r2, r1, #0, 20
    10e0:	96280305 	strtls	r0, [r8], -r5, lsl #6
    10e4:	012a0000 			; <UNDEFINED> instruction: 0x012a0000
    10e8:	a2080253 	andge	r0, r8, #805306373	; 0x30000005
    10ec:	84042800 	strhi	r2, [r4], #-2048	; 0xfffff800
    10f0:	16f20000 	ldrbtne	r0, [r2], r0
    10f4:	08000000 	stmdaeq	r0, {}	; <UNPREDICTABLE>
    10f8:	00000135 	andeq	r0, r0, r5, lsr r1
    10fc:	00001107 	andeq	r1, r0, r7, lsl #2
    1100:	0000e809 	andeq	lr, r0, r9, lsl #16
    1104:	0e000a00 	vmlaeq.f32	s0, s0, s0
    1108:	000010f7 	strdeq	r1, [r0], -r7
    110c:	0008a030 	andeq	sl, r8, r0, lsr r0
    1110:	28740100 	ldmdacs	r4!, {r8}^
    1114:	1800000b 	stmdane	r0, {r0, r1, r3}
    1118:	78000082 	stmdavc	r0, {r1, r7}
    111c:	01000000 	mrseq	r0, (UNDEF: 0)
    1120:	0011a59c 	mulseq	r1, ip, r5
    1124:	00683200 	rsbeq	r3, r8, r0, lsl #4
    1128:	11a57401 			; <UNDEFINED> instruction: 0x11a57401
    112c:	01530000 	cmpeq	r3, r0
    1130:	91360000 	teqls	r6, r0
    1134:	01000002 	tsteq	r0, r2
    1138:	00002c77 	andeq	r2, r0, r7, ror ip
    113c:	08443600 	stmdaeq	r4, {r9, sl, ip, sp}^
    1140:	78010000 	stmdavc	r1, {}	; <UNPREDICTABLE>
    1144:	0000004f 	andeq	r0, r0, pc, asr #32
    1148:	6675622b 	ldrbtvs	r6, [r5], -fp, lsr #4
    114c:	ab7d0100 	blge	1f41554 <__bss_end__+0x1f375c4>
    1150:	02000011 	andeq	r0, r0, #17
    1154:	30296891 	mlacc	r9, r1, r8, r6
    1158:	bb000082 	bllt	1368 <_start-0x6c98>
    115c:	6a000011 	bvs	11a8 <_start-0x6e58>
    1160:	2a000011 	bcs	11ac <_start-0x6e54>
    1164:	74025001 	strvc	r5, [r2], #-1
    1168:	4c290000 	stcmi	0, cr0, [r9], #-0
    116c:	02000082 	andeq	r0, r0, #130	; 0x82
    1170:	89000015 	stmdbhi	r0, {r0, r2, r4}
    1174:	2a000011 	bcs	11c0 <_start-0x6e40>
    1178:	08025101 	stmdaeq	r2, {r0, r8, ip, lr}
    117c:	52012a28 	andpl	r2, r1, #40, 20	; 0x28000
    1180:	2a007d02 	bcs	20590 <__bss_end__+0x16600>
    1184:	36015301 	strcc	r5, [r1], -r1, lsl #6
    1188:	82582800 	subshi	r2, r8, #0, 16
    118c:	14bf0000 	ldrtne	r0, [pc], #0	; 1194 <_start-0x6e6c>
    1190:	68280000 	stmdavs	r8!, {}	; <UNPREDICTABLE>
    1194:	bf000082 	svclt	0x00000082
    1198:	28000014 	stmdacs	r0, {r2, r4}
    119c:	00008278 	andeq	r8, r0, r8, ror r2
    11a0:	000014bf 			; <UNDEFINED> instruction: 0x000014bf
    11a4:	5d040d00 	stcpl	13, cr0, [r4, #-0]
    11a8:	0800000b 	stmdaeq	r0, {r0, r1, r3}
    11ac:	0000004f 	andeq	r0, r0, pc, asr #32
    11b0:	000011bb 			; <UNDEFINED> instruction: 0x000011bb
    11b4:	0000e809 	andeq	lr, r0, r9, lsl #16
    11b8:	30000500 	andcc	r0, r0, r0, lsl #10
    11bc:	0000063b 	andeq	r0, r0, fp, lsr r6
    11c0:	00256601 	eoreq	r6, r5, r1, lsl #12
    11c4:	82000000 	andhi	r0, r0, #0
    11c8:	00180000 	andseq	r0, r8, r0
    11cc:	9c010000 	stcls	0, cr0, [r1], {-0}
    11d0:	00001200 	andeq	r1, r0, r0, lsl #4
    11d4:	01006832 	tsteq	r0, r2, lsr r8
    11d8:	0011a566 	andseq	sl, r1, r6, ror #10
    11dc:	00017f00 	andeq	r7, r1, r0, lsl #30
    11e0:	0abd3300 	beq	fef4dde8 <__bss_end__+0xfef43e58>
    11e4:	67010000 	strvs	r0, [r1, -r0]
    11e8:	0000004f 	andeq	r0, r0, pc, asr #32
    11ec:	000001a0 	andeq	r0, r0, r0, lsr #3
    11f0:	0082102f 	addeq	r1, r2, pc, lsr #32
    11f4:	00160900 	andseq	r0, r6, r0, lsl #18
    11f8:	51012a00 	tstpl	r1, r0, lsl #20
    11fc:	00004e01 	andeq	r4, r0, r1, lsl #28
    1200:	0004bc30 	andeq	fp, r4, r0, lsr ip
    1204:	285d0100 	ldmdacs	sp, {r8}^
    1208:	9800000b 	stmdals	r0, {r0, r1, r3}
    120c:	68000081 	stmdavs	r0, {r0, r7}
    1210:	01000000 	mrseq	r0, (UNDEF: 0)
    1214:	0012c49c 	mulseq	r2, ip, r4
    1218:	00683200 	rsbeq	r3, r8, r0, lsl #4
    121c:	11a55d01 			; <UNDEFINED> instruction: 0x11a55d01
    1220:	01b30000 			; <UNDEFINED> instruction: 0x01b30000
    1224:	78370000 	ldmdavc	r7!, {}	; <UNPREDICTABLE>
    1228:	01007a79 	tsteq	r0, r9, ror sl
    122c:	000b285d 	andeq	r2, fp, sp, asr r8
    1230:	78910200 	ldmvc	r1, {r9}
    1234:	01006726 	tsteq	r0, r6, lsr #14
    1238:	0000255e 	andeq	r2, r0, lr, asr r5
    123c:	0001df00 	andeq	sp, r1, r0, lsl #30
    1240:	00782600 	rsbseq	r2, r8, r0, lsl #12
    1244:	00255f01 	eoreq	r5, r5, r1, lsl #30
    1248:	01f30000 	mvnseq	r0, r0
    124c:	79260000 	stmdbvc	r6!, {}	; <UNPREDICTABLE>
    1250:	25600100 	strbcs	r0, [r0, #-256]!	; 0xffffff00
    1254:	11000000 	mrsne	r0, (UNDEF: 0)
    1258:	26000002 	strcs	r0, [r0], -r2
    125c:	6101007a 	tstvs	r1, sl, ror r0
    1260:	00000025 	andeq	r0, r0, r5, lsr #32
    1264:	0000022f 	andeq	r0, r0, pc, lsr #4
    1268:	0081bc29 	addeq	fp, r1, r9, lsr #24
    126c:	0013ea00 	andseq	lr, r3, r0, lsl #20
    1270:	00127d00 	andseq	r7, r2, r0, lsl #26
    1274:	51012a00 	tstpl	r1, r0, lsl #20
    1278:	06609103 	strbteq	r9, [r0], -r3, lsl #2
    127c:	81cc2900 	bichi	r2, ip, r0, lsl #18
    1280:	13ea0000 	mvnne	r0, #0
    1284:	12920000 	addsne	r0, r2, #0
    1288:	012a0000 			; <UNDEFINED> instruction: 0x012a0000
    128c:	64910351 	ldrvs	r0, [r1], #849	; 0x351
    1290:	dc290006 	stcle	0, cr0, [r9], #-24	; 0xffffffe8
    1294:	ea000081 	b	14a0 <_start-0x6b60>
    1298:	a7000013 	smladge	r0, r3, r0, r0
    129c:	2a000012 	bcs	12ec <_start-0x6d14>
    12a0:	91035101 	tstls	r3, r1, lsl #2
    12a4:	2f000668 	svccs	0x00000668
    12a8:	000081f0 	strdeq	r8, [r0], -r0
    12ac:	000012c4 	andeq	r1, r0, r4, asr #5
    12b0:	0250012a 	subseq	r0, r0, #-2147483638	; 0x8000000a
    12b4:	012a0075 			; <UNDEFINED> instruction: 0x012a0075
    12b8:	00760251 	rsbseq	r0, r6, r1, asr r2
    12bc:	0252012a 	subseq	r0, r2, #-2147483638	; 0x8000000a
    12c0:	00000077 	andeq	r0, r0, r7, ror r0
    12c4:	00026f38 	andeq	r6, r2, r8, lsr pc
    12c8:	28580100 	ldmdacs	r8, {r8}^
    12cc:	1c00000b 	stcne	0, cr0, [r0], {11}
    12d0:	10000080 	andne	r0, r0, r0, lsl #1
    12d4:	01000000 	mrseq	r0, (UNDEF: 0)
    12d8:	0012ff9c 	mulseq	r2, ip, pc	; <UNPREDICTABLE>
    12dc:	00783700 	rsbseq	r3, r8, r0, lsl #14
    12e0:	00255801 	eoreq	r5, r5, r1, lsl #16
    12e4:	51010000 	mrspl	r0, (UNDEF: 1)
    12e8:	01007937 	tsteq	r0, r7, lsr r9
    12ec:	00002558 	andeq	r2, r0, r8, asr r5
    12f0:	37520100 	ldrbcc	r0, [r2, -r0, lsl #2]
    12f4:	5801007a 	stmdapl	r1, {r1, r3, r4, r5, r6}
    12f8:	00000025 	andeq	r0, r0, r5, lsr #32
    12fc:	39005301 	stmdbcc	r0, {r0, r8, r9, ip, lr}
    1300:	00000516 	andeq	r0, r0, r6, lsl r5
    1304:	80905201 	addshi	r5, r0, r1, lsl #4
    1308:	00680000 	rsbeq	r0, r8, r0
    130c:	9c010000 	stcls	0, cr0, [r1], {-0}
    1310:	000013ea 	andeq	r1, r0, sl, ror #7
    1314:	00040731 	andeq	r0, r4, r1, lsr r7
    1318:	25520100 	ldrbcs	r0, [r2, #-256]	; 0xffffff00
    131c:	4d000000 	stcmi	0, cr0, [r0, #-0]
    1320:	32000002 	andcc	r0, r0, #2
    1324:	52010068 	andpl	r0, r1, #104	; 0x68
    1328:	0000004f 	andeq	r0, r0, pc, asr #32
    132c:	0000026b 	andeq	r0, r0, fp, ror #4
    1330:	01006c32 	tsteq	r0, r2, lsr ip
    1334:	00004f52 	andeq	r4, r0, r2, asr pc
    1338:	00028c00 	andeq	r8, r2, r0, lsl #24
    133c:	00673200 	rsbeq	r3, r7, r0, lsl #4
    1340:	002c5201 	eoreq	r5, ip, r1, lsl #4
    1344:	02ad0000 	adceq	r0, sp, #0
    1348:	73260000 			; <UNDEFINED> instruction: 0x73260000
    134c:	0100695f 	tsteq	r0, pc, asr r9
    1350:	00002553 	andeq	r2, r0, r3, asr r5
    1354:	0002d900 	andeq	sp, r2, r0, lsl #18
    1358:	04742700 	ldrbteq	r2, [r4], #-1792	; 0xfffff900
    135c:	0cbf0000 	ldceq	0, cr0, [pc]	; 1364 <_start-0x6c9c>
    1360:	03050000 	movweq	r0, #20480	; 0x5000
    1364:	00009620 	andeq	r9, r0, r0, lsr #12
    1368:	0080a828 	addeq	sl, r0, r8, lsr #16
    136c:	0014bf00 	andseq	fp, r4, r0, lsl #30
    1370:	80b02900 	adcshi	r2, r0, r0, lsl #18
    1374:	13ea0000 	mvnne	r0, #0
    1378:	13850000 	orrne	r0, r5, #0
    137c:	012a0000 			; <UNDEFINED> instruction: 0x012a0000
    1380:	00750251 	rsbseq	r0, r5, r1, asr r2
    1384:	80c42900 	sbchi	r2, r4, r0, lsl #18
    1388:	16e70000 	strbtne	r0, [r7], r0
    138c:	13a80000 			; <UNDEFINED> instruction: 0x13a80000
    1390:	012a0000 			; <UNDEFINED> instruction: 0x012a0000
    1394:	7c030550 	cfstr32vc	mvfx0, [r3], {80}	; 0x50
    1398:	2a000096 	bcs	15f8 <_start-0x6a08>
    139c:	74025101 	strvc	r5, [r2], #-257	; 0xfffffeff
    13a0:	52012a00 	andpl	r2, r1, #0, 20
    13a4:	00007502 	andeq	r7, r0, r2, lsl #10
    13a8:	0080d028 	addeq	sp, r0, r8, lsr #32
    13ac:	0016dc00 	andseq	sp, r6, r0, lsl #24
    13b0:	80e42900 	rschi	r2, r4, r0, lsl #18
    13b4:	16e70000 	strbtne	r0, [r7], r0
    13b8:	13e00000 	mvnne	r0, #0
    13bc:	012a0000 			; <UNDEFINED> instruction: 0x012a0000
    13c0:	94030550 	strls	r0, [r3], #-1360	; 0xfffffab0
    13c4:	2a000096 	bcs	1624 <_start-0x69dc>
    13c8:	03055101 	movweq	r5, #20737	; 0x5101
    13cc:	0000963c 	andeq	r9, r0, ip, lsr r6
    13d0:	0552012a 	ldrbeq	r0, [r2, #-298]	; 0xfffffed6
    13d4:	00962003 	addseq	r2, r6, r3
    13d8:	53012a00 	movwpl	r2, #6656	; 0x1a00
    13dc:	00550802 	subseq	r0, r5, r2, lsl #16
    13e0:	0080e828 	addeq	lr, r0, r8, lsr #16
    13e4:	0016f200 	andseq	pc, r6, r0, lsl #4
    13e8:	05380000 	ldreq	r0, [r8, #-0]!
    13ec:	01000001 	tsteq	r0, r1
    13f0:	0000254b 	andeq	r2, r0, fp, asr #10
    13f4:	00802c00 	addeq	r2, r0, r0, lsl #24
    13f8:	00006400 	andeq	r6, r0, r0, lsl #8
    13fc:	aa9c0100 	bge	fe701804 <__bss_end__+0xfe6f7874>
    1400:	32000014 	andcc	r0, r0, #20
    1404:	4b010076 	blmi	415e4 <__bss_end__+0x37654>
    1408:	00000025 	andeq	r0, r0, r5, lsr #32
    140c:	00000302 	andeq	r0, r0, r2, lsl #6
    1410:	00029131 	andeq	r9, r2, r1, lsr r1
    1414:	254b0100 	strbcs	r0, [fp, #-256]	; 0xffffff00
    1418:	44000000 	strmi	r0, [r0], #-0
    141c:	27000003 	strcs	r0, [r0, -r3]
    1420:	00000474 	andeq	r0, r0, r4, ror r4
    1424:	000014ba 			; <UNDEFINED> instruction: 0x000014ba
    1428:	96140305 	ldrls	r0, [r4], -r5, lsl #6
    142c:	4c290000 	stcmi	0, cr0, [r9], #-0
    1430:	e7000080 	str	r0, [r0, -r0, lsl #1]
    1434:	4b000016 	blmi	1494 <_start-0x6b6c>
    1438:	2a000014 	bcs	1490 <_start-0x6b70>
    143c:	03055001 	movweq	r5, #20481	; 0x5001
    1440:	00009664 	andeq	r9, r0, r4, ror #12
    1444:	0251012a 	subseq	r0, r1, #-2147483638	; 0x8000000a
    1448:	29000075 	stmdbcs	r0, {r0, r2, r4, r5, r6}
    144c:	00008058 	andeq	r8, r0, r8, asr r0
    1450:	000016e7 	andeq	r1, r0, r7, ror #13
    1454:	00001468 	andeq	r1, r0, r8, ror #8
    1458:	0550012a 	ldrbeq	r0, [r0, #-298]	; 0xfffffed6
    145c:	00966c03 	addseq	r6, r6, r3, lsl #24
    1460:	51012a00 	tstpl	r1, r0, lsl #20
    1464:	00007402 	andeq	r7, r0, r2, lsl #8
    1468:	00806428 	addeq	r6, r0, r8, lsr #8
    146c:	0016dc00 	andseq	sp, r6, r0, lsl #24
    1470:	80782900 	rsbshi	r2, r8, r0, lsl #18
    1474:	16e70000 	strbtne	r0, [r7], r0
    1478:	14a00000 	strtne	r0, [r0], #0
    147c:	012a0000 			; <UNDEFINED> instruction: 0x012a0000
    1480:	44030550 	strmi	r0, [r3], #-1360	; 0xfffffab0
    1484:	2a000096 	bcs	16e4 <_start-0x691c>
    1488:	03055101 	movweq	r5, #20737	; 0x5101
    148c:	0000963c 	andeq	r9, r0, ip, lsr r6
    1490:	0552012a 	ldrbeq	r0, [r2, #-298]	; 0xfffffed6
    1494:	00961403 	addseq	r1, r6, r3, lsl #8
    1498:	53012a00 	movwpl	r2, #6656	; 0x1a00
    149c:	004c0802 	subeq	r0, ip, r2, lsl #16
    14a0:	00807c28 	addeq	r7, r0, r8, lsr #24
    14a4:	0016f200 	andseq	pc, r6, r0, lsl #4
    14a8:	35080000 	strcc	r0, [r8, #-0]
    14ac:	ba000001 	blt	14b8 <_start-0x6b48>
    14b0:	09000014 	stmdbeq	r0, {r2, r4}
    14b4:	000000e8 	andeq	r0, r0, r8, ror #1
    14b8:	aa0e0009 	bge	3814e4 <__bss_end__+0x377554>
    14bc:	38000014 	stmdacc	r0, {r2, r4}
    14c0:	0000019a 	muleq	r0, sl, r1
    14c4:	003a4401 	eorseq	r4, sl, r1, lsl #8
    14c8:	80100000 	andshi	r0, r0, r0
    14cc:	000c0000 	andeq	r0, ip, r0
    14d0:	9c010000 	stcls	0, cr0, [r1], {-0}
    14d4:	00001502 	andeq	r1, r0, r2, lsl #10
    14d8:	00696832 	rsbeq	r6, r9, r2, lsr r8
    14dc:	004f4401 	subeq	r4, pc, r1, lsl #8
    14e0:	037b0000 	cmneq	fp, #0
    14e4:	6c370000 	ldcvs	0, cr0, [r7], #-0
    14e8:	4401006f 	strmi	r0, [r1], #-111	; 0xffffff91
    14ec:	0000004f 	andeq	r0, r0, pc, asr #32
    14f0:	72265101 	eorvc	r5, r6, #1073741824	; 0x40000000
    14f4:	01007365 	tsteq	r0, r5, ror #6
    14f8:	00006145 	andeq	r6, r0, r5, asr #2
    14fc:	00039c00 	andeq	r9, r3, r0, lsl #24
    1500:	64300000 	ldrtvs	r0, [r0], #-0
    1504:	01000001 	tsteq	r0, r1
    1508:	0000253a 	andeq	r2, r0, sl, lsr r5
    150c:	00815800 	addeq	r5, r1, r0, lsl #16
    1510:	00004000 	andeq	r4, r0, r0
    1514:	8f9c0100 	svchi	0x009c0100
    1518:	31000015 	tstcc	r0, r5, lsl r0
    151c:	00000844 	andeq	r0, r0, r4, asr #16
    1520:	004f3a01 	subeq	r3, pc, r1, lsl #20
    1524:	03be0000 			; <UNDEFINED> instruction: 0x03be0000
    1528:	a9310000 	ldmdbge	r1!, {}	; <UNPREDICTABLE>
    152c:	01000008 	tsteq	r0, r8
    1530:	00004f3a 	andeq	r4, r0, sl, lsr pc
    1534:	0003df00 	andeq	sp, r3, r0, lsl #30
    1538:	00763200 	rsbseq	r3, r6, r0, lsl #4
    153c:	158f3a01 	strne	r3, [pc, #2561]	; 1f45 <_start-0x60bb>
    1540:	03fe0000 	mvnseq	r0, #0
    1544:	6e320000 	cdpvs	0, 3, cr0, cr2, cr0, {0}
    1548:	733a0100 	teqvc	sl, #0, 2
    154c:	1c000000 	stcne	0, cr0, [r0], {-0}
    1550:	29000004 	stmdbcs	r0, {r2}
    1554:	00008180 	andeq	r8, r0, r0, lsl #3
    1558:	00001708 	andeq	r1, r0, r8, lsl #14
    155c:	00001572 	andeq	r1, r0, r2, ror r5
    1560:	0250012a 	subseq	r0, r0, #-2147483638	; 0x8000000a
    1564:	012a0074 			; <UNDEFINED> instruction: 0x012a0074
    1568:	67910251 			; <UNDEFINED> instruction: 0x67910251
    156c:	0152012a 	cmpeq	r2, sl, lsr #2
    1570:	902f0031 	eorls	r0, pc, r1, lsr r0	; <UNPREDICTABLE>
    1574:	13000081 	movwne	r0, #129	; 0x81
    1578:	2a000017 	bcs	15dc <_start-0x6a24>
    157c:	74025001 	strvc	r5, [r2], #-1
    1580:	51012a00 	tstpl	r1, r0, lsl #20
    1584:	2a007502 	bcs	1e994 <__bss_end__+0x14a04>
    1588:	76025201 	strvc	r5, [r2], -r1, lsl #4
    158c:	0d000000 	stceq	0, cr0, [r0, #-0]
    1590:	00004f04 	andeq	r4, r0, r4, lsl #30
    1594:	07762400 	ldrbeq	r2, [r6, -r0, lsl #8]!
    1598:	30010000 	andcc	r0, r1, r0
    159c:	00008134 	andeq	r8, r0, r4, lsr r1
    15a0:	00000024 	andeq	r0, r0, r4, lsr #32
    15a4:	15f99c01 	ldrbne	r9, [r9, #3073]!	; 0xc01
    15a8:	44310000 	ldrtmi	r0, [r1], #-0
    15ac:	01000008 	tsteq	r0, r8
    15b0:	00004f30 	andeq	r4, r0, r0, lsr pc
    15b4:	00043a00 	andeq	r3, r4, r0, lsl #20
    15b8:	65723200 	ldrbvs	r3, [r2, #-512]!	; 0xfffffe00
    15bc:	30010067 	andcc	r0, r1, r7, rrx
    15c0:	0000004f 	andeq	r0, r0, pc, asr #32
    15c4:	0000045b 	andeq	r0, r0, fp, asr r4
    15c8:	01007632 	tsteq	r0, r2, lsr r6
    15cc:	00004f30 	andeq	r4, r0, r0, lsr pc
    15d0:	00048800 	andeq	r8, r4, r0, lsl #16
    15d4:	06453a00 	strbeq	r3, [r5], -r0, lsl #20
    15d8:	31010000 	mrscc	r0, (UNDEF: 1)
    15dc:	000015f9 	strdeq	r1, [r0], -r9
    15e0:	2f749102 	svccs	0x00749102
    15e4:	00008150 	andeq	r8, r0, r0, asr r1
    15e8:	00001708 	andeq	r1, r0, r8, lsl #14
    15ec:	0251012a 	subseq	r0, r1, #-2147483638	; 0x8000000a
    15f0:	012a6c91 			; <UNDEFINED> instruction: 0x012a6c91
    15f4:	00320152 	eorseq	r0, r2, r2, asr r1
    15f8:	004f0800 	subeq	r0, pc, r0, lsl #16
    15fc:	16090000 	strne	r0, [r9], -r0
    1600:	e8090000 	stmda	r9, {}	; <UNPREDICTABLE>
    1604:	01000000 	mrseq	r0, (UNDEF: 0)
    1608:	051e3000 	ldreq	r3, [lr, #-0]
    160c:	27010000 	strcs	r0, [r1, -r0]
    1610:	0000004f 	andeq	r0, r0, pc, asr #32
    1614:	000080f8 	strdeq	r8, [r0], -r8	; <UNPREDICTABLE>
    1618:	0000003c 	andeq	r0, r0, ip, lsr r0
    161c:	16879c01 	strne	r9, [r7], r1, lsl #24
    1620:	44310000 	ldrtmi	r0, [r1], #-0
    1624:	01000008 	tsteq	r0, r8
    1628:	00004f27 	andeq	r4, r0, r7, lsr #30
    162c:	0004b500 	andeq	fp, r4, r0, lsl #10
    1630:	65723200 	ldrbvs	r3, [r2, #-512]!	; 0xfffffe00
    1634:	27010067 	strcs	r0, [r1, -r7, rrx]
    1638:	0000004f 	andeq	r0, r0, pc, asr #32
    163c:	000004d6 	ldrdeq	r0, [r0], -r6
    1640:	0100762b 	tsteq	r0, fp, lsr #12
    1644:	00004f2a 	andeq	r4, r0, sl, lsr #30
    1648:	77910200 	ldrvc	r0, [r1, r0, lsl #4]
    164c:	00811829 	addeq	r1, r1, r9, lsr #16
    1650:	00170800 	andseq	r0, r7, r0, lsl #16
    1654:	00166b00 	andseq	r6, r6, r0, lsl #22
    1658:	50012a00 	andpl	r2, r1, r0, lsl #20
    165c:	2a007402 	bcs	1e66c <__bss_end__+0x146dc>
    1660:	91025101 	tstls	r2, r1, lsl #2
    1664:	52012a67 	andpl	r2, r1, #421888	; 0x67000
    1668:	2f003101 	svccs	0x00003101
    166c:	00008128 	andeq	r8, r0, r8, lsr #2
    1670:	00001713 	andeq	r1, r0, r3, lsl r7
    1674:	0250012a 	subseq	r0, r0, #-2147483638	; 0x8000000a
    1678:	012a0074 			; <UNDEFINED> instruction: 0x012a0074
    167c:	6f910251 	svcvs	0x00910251
    1680:	0152012a 	cmpeq	r2, sl, lsr #2
    1684:	3b000031 	blcc	1750 <_start-0x68b0>
    1688:	000004af 	andeq	r0, r0, pc, lsr #9
    168c:	00251a02 	eoreq	r1, r5, r2, lsl #20
    1690:	a1030000 	mrsge	r0, (UNDEF: 3)
    1694:	3c000016 	stccc	0, cr0, [r0], {22}
    1698:	1a020062 	bne	81828 <__bss_end__+0x77898>
    169c:	0000002c 	andeq	r0, r0, ip, lsr #32
    16a0:	045e3b00 	ldrbeq	r3, [lr], #-2816	; 0xfffff500
    16a4:	12020000 	andne	r0, r2, #0
    16a8:	00000025 	andeq	r0, r0, r5, lsr #32
    16ac:	0016bb03 	andseq	fp, r6, r3, lsl #22
    16b0:	00733c00 	rsbseq	r3, r3, r0, lsl #24
    16b4:	09231202 	stmdbeq	r3!, {r1, r9, ip}
    16b8:	3d000000 	stccc	0, cr0, [r0, #-0]
    16bc:	00000117 	andeq	r0, r0, r7, lsl r1
    16c0:	00000117 	andeq	r0, r0, r7, lsl r1
    16c4:	343d3a08 	ldrtcc	r3, [sp], #-2568	; 0xfffff5f8
    16c8:	34000007 	strcc	r0, [r0], #-7
    16cc:	08000007 	stmdaeq	r0, {r0, r1, r2}
    16d0:	03783d4f 	cmneq	r8, #5056	; 0x13c0
    16d4:	03780000 	cmneq	r8, #0
    16d8:	06090000 	streq	r0, [r9], -r0
    16dc:	0003883d 	andeq	r8, r3, sp, lsr r8
    16e0:	00038800 	andeq	r8, r3, r0, lsl #16
    16e4:	3d1e0800 	ldccc	8, cr0, [lr, #-0]
    16e8:	00000bfb 	strdeq	r0, [r0], -fp
    16ec:	00000bfb 	strdeq	r0, [r0], -fp
    16f0:	7e3d2908 	vaddvc.f16	s4, s26, s16	; <UNPREDICTABLE>
    16f4:	7e000006 	cdpvc	0, 0, cr0, cr0, cr6, {0}
    16f8:	08000006 	stmdaeq	r0, {r1, r2}
    16fc:	04523d65 	ldrbeq	r3, [r2], #-3429	; 0xfffff29b
    1700:	04520000 	ldrbeq	r0, [r2], #-0
    1704:	89080000 	stmdbhi	r8, {}	; <UNPREDICTABLE>
    1708:	0001763d 	andeq	r7, r1, sp, lsr r6
    170c:	00017600 	andeq	r7, r1, r0, lsl #12
    1710:	3d0c0900 	vstrcc.16	s0, [ip, #-0]	; <UNPREDICTABLE>
    1714:	00000897 	muleq	r0, r7, r8
    1718:	00000897 	muleq	r0, r7, r8
    171c:	5e000e09 	cdppl	14, 0, cr0, cr0, cr9, {0}
    1720:	0400001b 	streq	r0, [r0], #-27	; 0xffffffe5
    1724:	00034d00 	andeq	r4, r3, r0, lsl #26
    1728:	23010400 	movwcs	r0, #5120	; 0x1400
    172c:	0c000000 	stceq	0, cr0, [r0], {-0}
    1730:	00000a7c 	andeq	r0, r0, ip, ror sl
    1734:	00000b2f 	andeq	r0, r0, pc, lsr #22
    1738:	000085bc 			; <UNDEFINED> instruction: 0x000085bc
    173c:	00000568 	andeq	r0, r0, r8, ror #10
    1740:	000001b6 			; <UNDEFINED> instruction: 0x000001b6
    1744:	69050402 	stmdbvs	r5, {r1, sl}
    1748:	0300746e 	movweq	r7, #1134	; 0x46e
    174c:	01570704 	cmpeq	r7, r4, lsl #14
    1750:	2c040000 	stccs	0, cr0, [r4], {-0}
    1754:	03000000 	movweq	r0, #0
    1758:	06180601 	ldreq	r0, [r8], -r1, lsl #12
    175c:	02030000 	andeq	r0, r3, #0
    1760:	00066305 	andeq	r6, r6, r5, lsl #6
    1764:	05040300 	streq	r0, [r4, #-768]	; 0xfffffd00
    1768:	000001cb 	andeq	r0, r0, fp, asr #3
    176c:	c6050803 	strgt	r0, [r5], -r3, lsl #16
    1770:	05000001 	streq	r0, [r0, #-1]
    1774:	000008d0 	ldrdeq	r0, [r0], -r0	; <UNPREDICTABLE>
    1778:	005f2e02 	subseq	r2, pc, r2, lsl #28
    177c:	01030000 	mrseq	r0, (UNDEF: 3)
    1780:	00061608 	andeq	r1, r6, r8, lsl #12
    1784:	07020300 	streq	r0, [r2, -r0, lsl #6]
    1788:	0000041d 	andeq	r0, r0, sp, lsl r4
    178c:	00074505 	andeq	r4, r7, r5, lsl #10
    1790:	78340200 	ldmdavc	r4!, {r9}
    1794:	03000000 	movweq	r0, #0
    1798:	01520704 	cmpeq	r2, r4, lsl #14
    179c:	08030000 	stmdaeq	r3, {}	; <UNPREDICTABLE>
    17a0:	00014d07 	andeq	r4, r1, r7, lsl #26
    17a4:	05e10500 	strbeq	r0, [r1, #1280]!	; 0x500
    17a8:	07030000 	streq	r0, [r3, -r0]
    17ac:	00000025 	andeq	r0, r0, r5, lsr #32
    17b0:	00059d05 	andeq	r9, r5, r5, lsl #26
    17b4:	462c0400 	strtmi	r0, [ip], -r0, lsl #8
    17b8:	05000000 	streq	r0, [r0, #-0]
    17bc:	00000761 	andeq	r0, r0, r1, ror #14
    17c0:	00467204 	subeq	r7, r6, r4, lsl #4
    17c4:	81060000 	mrshi	r0, (UNDEF: 6)
    17c8:	05000004 	streq	r0, [r0, #-4]
    17cc:	002c0165 	eoreq	r0, ip, r5, ror #2
    17d0:	04070000 	streq	r0, [r7], #-0
    17d4:	00d2a604 	sbcseq	sl, r2, r4, lsl #12
    17d8:	6e080000 	cdpvs	0, 0, cr0, cr8, cr0, {0}
    17dc:	04000004 	streq	r0, [r0], #-4
    17e0:	0000a7a8 	andeq	sl, r0, r8, lsr #15
    17e4:	03810800 	orreq	r0, r1, #0, 16
    17e8:	a9040000 	stmdbge	r4, {}	; <UNPREDICTABLE>
    17ec:	000000d2 	ldrdeq	r0, [r0], -r2
    17f0:	005f0900 	subseq	r0, pc, r0, lsl #18
    17f4:	00e20000 	rsceq	r0, r2, r0
    17f8:	e20a0000 	and	r0, sl, #0
    17fc:	03000000 	movweq	r0, #0
    1800:	07040300 	streq	r0, [r4, -r0, lsl #6]
    1804:	0000050d 	andeq	r0, r0, sp, lsl #10
    1808:	a304080b 	movwge	r0, #18443	; 0x480b
    180c:	0000010a 	andeq	r0, r0, sl, lsl #2
    1810:	00073d0c 	andeq	r3, r7, ip, lsl #26
    1814:	25a50400 	strcs	r0, [r5, #1024]!	; 0x400
    1818:	00000000 	andeq	r0, r0, r0
    181c:	0007e40c 	andeq	lr, r7, ip, lsl #8
    1820:	b3aa0400 			; <UNDEFINED> instruction: 0xb3aa0400
    1824:	04000000 	streq	r0, [r0], #-0
    1828:	06980500 	ldreq	r0, [r8], r0, lsl #10
    182c:	ab040000 	blge	101834 <__bss_end__+0xf78a4>
    1830:	000000e9 	andeq	r0, r0, r9, ror #1
    1834:	00031f05 	andeq	r1, r3, r5, lsl #30
    1838:	86af0400 	strthi	r0, [pc], r0, lsl #8
    183c:	0d000000 	stceq	0, cr0, [r0, #-0]
    1840:	28040e04 	stmdacs	r4, {r2, r9, sl, fp}
    1844:	03000001 	movweq	r0, #1
    1848:	061f0801 	ldreq	r0, [pc], -r1, lsl #16
    184c:	28040000 	stmdacs	r4, {}	; <UNPREDICTABLE>
    1850:	05000001 	streq	r0, [r0, #-1]
    1854:	0000081e 	andeq	r0, r0, lr, lsl r8
    1858:	00781606 	rsbseq	r1, r8, r6, lsl #12
    185c:	300f0000 	andcc	r0, pc, r0
    1860:	18000003 	stmdane	r0, {r0, r1}
    1864:	01922d06 	orrseq	r2, r2, r6, lsl #26
    1868:	c90c0000 	stmdbgt	ip, {}	; <UNPREDICTABLE>
    186c:	06000006 	streq	r0, [r0], -r6
    1870:	0001922f 	andeq	r9, r1, pc, lsr #4
    1874:	5f100000 	svcpl	0x00100000
    1878:	3006006b 	andcc	r0, r6, fp, rrx
    187c:	00000025 	andeq	r0, r0, r5, lsr #32
    1880:	07160c04 	ldreq	r0, [r6, -r4, lsl #24]
    1884:	30060000 	andcc	r0, r6, r0
    1888:	00000025 	andeq	r0, r0, r5, lsr #32
    188c:	03190c08 	tsteq	r9, #8, 24	; 0x800
    1890:	30060000 	andcc	r0, r6, r0
    1894:	00000025 	andeq	r0, r0, r5, lsr #32
    1898:	08b20c0c 	ldmeq	r2!, {r2, r3, sl, fp}
    189c:	30060000 	andcc	r0, r6, r0
    18a0:	00000025 	andeq	r0, r0, r5, lsr #32
    18a4:	785f1010 	ldmdavc	pc, {r4, ip}^	; <UNPREDICTABLE>
    18a8:	98310600 	ldmdals	r1!, {r9, sl}
    18ac:	14000001 	strne	r0, [r0], #-1
    18b0:	3f040e00 	svccc	0x00040e00
    18b4:	09000001 	stmdbeq	r0, {r0}
    18b8:	00000134 	andeq	r0, r0, r4, lsr r1
    18bc:	000001a8 	andeq	r0, r0, r8, lsr #3
    18c0:	0000e20a 	andeq	lr, r0, sl, lsl #4
    18c4:	0f000000 	svceq	0x00000000
    18c8:	00000373 	andeq	r0, r0, r3, ror r3
    18cc:	21350624 	teqcs	r5, r4, lsr #12
    18d0:	0c000002 	stceq	0, cr0, [r0], {2}
    18d4:	000001bd 			; <UNDEFINED> instruction: 0x000001bd
    18d8:	00253706 	eoreq	r3, r5, r6, lsl #14
    18dc:	0c000000 	stceq	0, cr0, [r0], {-0}
    18e0:	00000789 	andeq	r0, r0, r9, lsl #15
    18e4:	00253806 	eoreq	r3, r5, r6, lsl #16
    18e8:	0c040000 	stceq	0, cr0, [r4], {-0}
    18ec:	00000207 	andeq	r0, r0, r7, lsl #4
    18f0:	00253906 	eoreq	r3, r5, r6, lsl #18
    18f4:	0c080000 	stceq	0, cr0, [r8], {-0}
    18f8:	000009bc 			; <UNDEFINED> instruction: 0x000009bc
    18fc:	00253a06 	eoreq	r3, r5, r6, lsl #20
    1900:	0c0c0000 	stceq	0, cr0, [ip], {-0}
    1904:	00000562 	andeq	r0, r0, r2, ror #10
    1908:	00253b06 	eoreq	r3, r5, r6, lsl #22
    190c:	0c100000 	ldceq	0, cr0, [r0], {-0}
    1910:	000004d0 	ldrdeq	r0, [r0], -r0	; <UNPREDICTABLE>
    1914:	00253c06 	eoreq	r3, r5, r6, lsl #24
    1918:	0c140000 	ldceq	0, cr0, [r4], {-0}
    191c:	000008b7 			; <UNDEFINED> instruction: 0x000008b7
    1920:	00253d06 	eoreq	r3, r5, r6, lsl #26
    1924:	0c180000 	ldceq	0, cr0, [r8], {-0}
    1928:	0000066d 	andeq	r0, r0, sp, ror #12
    192c:	00253e06 	eoreq	r3, r5, r6, lsl #28
    1930:	0c1c0000 	ldceq	0, cr0, [ip], {-0}
    1934:	00000936 	andeq	r0, r0, r6, lsr r9
    1938:	00253f06 	eoreq	r3, r5, r6, lsl #30
    193c:	00200000 	eoreq	r0, r0, r0
    1940:	00021611 	andeq	r1, r2, r1, lsl r6
    1944:	06010800 	streq	r0, [r1], -r0, lsl #16
    1948:	00026148 	andeq	r6, r2, r8, asr #2
    194c:	02eb0c00 	rsceq	r0, fp, #0, 24
    1950:	49060000 	stmdbmi	r6, {}	; <UNPREDICTABLE>
    1954:	00000261 	andeq	r0, r0, r1, ror #4
    1958:	00000c00 	andeq	r0, r0, r0, lsl #24
    195c:	4a060000 	bmi	181964 <__bss_end__+0x1779d4>
    1960:	00000261 	andeq	r0, r0, r1, ror #4
    1964:	07ab1280 	streq	r1, [fp, r0, lsl #5]!
    1968:	4c060000 	stcmi	0, cr0, [r6], {-0}
    196c:	00000134 	andeq	r0, r0, r4, lsr r1
    1970:	60120100 	andsvs	r0, r2, r0, lsl #2
    1974:	06000002 	streq	r0, [r0], -r2
    1978:	0001344f 	andeq	r3, r1, pc, asr #8
    197c:	00010400 	andeq	r0, r1, r0, lsl #8
    1980:	00012009 	andeq	r2, r1, r9
    1984:	00027100 	andeq	r7, r2, r0, lsl #2
    1988:	00e20a00 	rsceq	r0, r2, r0, lsl #20
    198c:	001f0000 	andseq	r0, pc, r0
    1990:	00057c11 	andeq	r7, r5, r1, lsl ip
    1994:	06019000 	streq	r9, [r1], -r0
    1998:	0002af5b 	andeq	sl, r2, fp, asr pc
    199c:	06c90c00 	strbeq	r0, [r9], r0, lsl #24
    19a0:	5c060000 	stcpl	0, cr0, [r6], {-0}
    19a4:	000002af 	andeq	r0, r0, pc, lsr #5
    19a8:	06f70c00 	ldrbteq	r0, [r7], r0, lsl #24
    19ac:	5d060000 	stcpl	0, cr0, [r6, #-0]
    19b0:	00000025 	andeq	r0, r0, r5, lsr #32
    19b4:	03140c04 	tsteq	r4, #4, 24	; 0x400
    19b8:	5f060000 	svcpl	0x00060000
    19bc:	000002b5 			; <UNDEFINED> instruction: 0x000002b5
    19c0:	02160c08 	andseq	r0, r6, #8, 24	; 0x800
    19c4:	60060000 	andvs	r0, r6, r0
    19c8:	00000221 	andeq	r0, r0, r1, lsr #4
    19cc:	040e0088 	streq	r0, [lr], #-136	; 0xffffff78
    19d0:	00000271 	andeq	r0, r0, r1, ror r2
    19d4:	0002c509 	andeq	ip, r2, r9, lsl #10
    19d8:	0002c500 	andeq	ip, r2, r0, lsl #10
    19dc:	00e20a00 	rsceq	r0, r2, r0, lsl #20
    19e0:	001f0000 	andseq	r0, pc, r0
    19e4:	02cb040e 	sbceq	r0, fp, #234881024	; 0xe000000
    19e8:	0f130000 	svceq	0x00130000
    19ec:	00000677 	andeq	r0, r0, r7, ror r6
    19f0:	f1730608 			; <UNDEFINED> instruction: 0xf1730608
    19f4:	0c000002 	stceq	0, cr0, [r0], {2}
    19f8:	00000201 	andeq	r0, r0, r1, lsl #4
    19fc:	02f17406 	rscseq	r7, r1, #100663296	; 0x6000000
    1a00:	0c000000 	stceq	0, cr0, [r0], {-0}
    1a04:	000000a6 	andeq	r0, r0, r6, lsr #1
    1a08:	00257506 	eoreq	r7, r5, r6, lsl #10
    1a0c:	00040000 	andeq	r0, r4, r0
    1a10:	005f040e 	subseq	r0, pc, lr, lsl #8
    1a14:	a30f0000 	movwge	r0, #61440	; 0xf000
    1a18:	68000006 	stmdavs	r0, {r1, r2}
    1a1c:	0421b306 	strteq	fp, [r1], #-774	; 0xfffffcfa
    1a20:	5f100000 	svcpl	0x00100000
    1a24:	b4060070 	strlt	r0, [r6], #-112	; 0xffffff90
    1a28:	000002f1 	strdeq	r0, [r0], -r1
    1a2c:	725f1000 	subsvc	r1, pc, #0
    1a30:	25b50600 	ldrcs	r0, [r5, #1536]!	; 0x600
    1a34:	04000000 	streq	r0, [r0], #-0
    1a38:	00775f10 	rsbseq	r5, r7, r0, lsl pc
    1a3c:	0025b606 	eoreq	fp, r5, r6, lsl #12
    1a40:	0c080000 	stceq	0, cr0, [r8], {-0}
    1a44:	00000259 	andeq	r0, r0, r9, asr r2
    1a48:	003fb706 	eorseq	fp, pc, r6, lsl #14
    1a4c:	0c0c0000 	stceq	0, cr0, [ip], {-0}
    1a50:	000003b2 			; <UNDEFINED> instruction: 0x000003b2
    1a54:	003fb806 	eorseq	fp, pc, r6, lsl #16
    1a58:	100e0000 	andne	r0, lr, r0
    1a5c:	0066625f 	rsbeq	r6, r6, pc, asr r2
    1a60:	02ccb906 	sbceq	fp, ip, #98304	; 0x18000
    1a64:	0c100000 	ldceq	0, cr0, [r0], {-0}
    1a68:	0000016d 	andeq	r0, r0, sp, ror #2
    1a6c:	0025ba06 	eoreq	fp, r5, r6, lsl #20
    1a70:	0c180000 	ldceq	0, cr0, [r8], {-0}
    1a74:	00000224 	andeq	r0, r0, r4, lsr #4
    1a78:	0120c106 			; <UNDEFINED> instruction: 0x0120c106
    1a7c:	0c1c0000 	ldceq	0, cr0, [ip], {-0}
    1a80:	0000089a 	muleq	r0, sl, r8
    1a84:	057cc306 	ldrbeq	ip, [ip, #-774]!	; 0xfffffcfa
    1a88:	0c200000 	stceq	0, cr0, [r0], #-0
    1a8c:	00000179 	andeq	r0, r0, r9, ror r1
    1a90:	05a6c506 	streq	ip, [r6, #1286]!	; 0x506
    1a94:	0c240000 	stceq	0, cr0, [r4], #-0
    1a98:	0000074e 	andeq	r0, r0, lr, asr #14
    1a9c:	05cac806 	strbeq	ip, [sl, #2054]	; 0x806
    1aa0:	0c280000 	stceq	0, cr0, [r8], #-0
    1aa4:	00000950 	andeq	r0, r0, r0, asr r9
    1aa8:	05e4c906 	strbeq	ip, [r4, #2310]!	; 0x906
    1aac:	102c0000 	eorne	r0, ip, r0
    1ab0:	0062755f 	rsbeq	r7, r2, pc, asr r5
    1ab4:	02cccc06 	sbceq	ip, ip, #1536	; 0x600
    1ab8:	10300000 	eorsne	r0, r0, r0
    1abc:	0070755f 	rsbseq	r7, r0, pc, asr r5
    1ac0:	02f1cd06 	rscseq	ip, r1, #384	; 0x180
    1ac4:	10380000 	eorsne	r0, r8, r0
    1ac8:	0072755f 	rsbseq	r7, r2, pc, asr r5
    1acc:	0025ce06 	eoreq	ip, r5, r6, lsl #28
    1ad0:	0c3c0000 	ldceq	0, cr0, [ip], #-0
    1ad4:	000001f3 	strdeq	r0, [r0], -r3
    1ad8:	05ead106 	strbeq	sp, [sl, #262]!	; 0x106
    1adc:	0c400000 	mareq	acc0, r0, r0
    1ae0:	00000911 	andeq	r0, r0, r1, lsl r9
    1ae4:	05fad206 	ldrbeq	sp, [sl, #518]!	; 0x206
    1ae8:	10430000 	subne	r0, r3, r0
    1aec:	00626c5f 	rsbeq	r6, r2, pc, asr ip
    1af0:	02ccd506 	sbceq	sp, ip, #25165824	; 0x1800000
    1af4:	0c440000 	mareq	acc0, r0, r4
    1af8:	00000276 	andeq	r0, r0, r6, ror r2
    1afc:	0025d806 	eoreq	sp, r5, r6, lsl #16
    1b00:	0c4c0000 	mareq	acc0, r0, ip
    1b04:	000002ac 	andeq	r0, r0, ip, lsr #5
    1b08:	0091d906 	addseq	sp, r1, r6, lsl #18
    1b0c:	0c500000 	mraeq	r0, r0, acc0
    1b10:	00000644 	andeq	r0, r0, r4, asr #12
    1b14:	043fdc06 	ldrteq	sp, [pc], #-3078	; 1b1c <_start-0x64e4>
    1b18:	0c540000 	mraeq	r0, r4, acc0
    1b1c:	0000106a 	andeq	r1, r0, sl, rrx
    1b20:	0115e006 	tsteq	r5, r6
    1b24:	0c580000 	mraeq	r0, r8, acc0
    1b28:	000006bb 			; <UNDEFINED> instruction: 0x000006bb
    1b2c:	010ae206 	tsteq	sl, r6, lsl #4
    1b30:	0c5c0000 	mraeq	r0, ip, acc0
    1b34:	0000049e 	muleq	r0, lr, r4
    1b38:	0025e306 	eoreq	lr, r5, r6, lsl #6
    1b3c:	00640000 	rsbeq	r0, r4, r0
    1b40:	00002514 	andeq	r2, r0, r4, lsl r5
    1b44:	00043f00 	andeq	r3, r4, r0, lsl #30
    1b48:	043f1500 	ldrteq	r1, [pc], #-1280	; 1b50 <_start-0x64b0>
    1b4c:	20150000 	andscs	r0, r5, r0
    1b50:	15000001 	strne	r0, [r0, #-1]
    1b54:	00000122 	andeq	r0, r0, r2, lsr #2
    1b58:	00002515 	andeq	r2, r0, r5, lsl r5
    1b5c:	040e0000 	streq	r0, [lr], #-0
    1b60:	0000044a 	andeq	r0, r0, sl, asr #8
    1b64:	00043f04 	andeq	r3, r4, r4, lsl #30
    1b68:	071e1600 	ldreq	r1, [lr, -r0, lsl #12]
    1b6c:	04280000 	strteq	r0, [r8], #-0
    1b70:	7c023806 	stcvc	8, cr3, [r2], {6}
    1b74:	17000005 	strne	r0, [r0, -r5]
    1b78:	0000065c 	andeq	r0, r0, ip, asr r6
    1b7c:	25023a06 	strcs	r3, [r2, #-2566]	; 0xfffff5fa
    1b80:	00000000 	andeq	r0, r0, r0
    1b84:	00026817 	andeq	r6, r2, r7, lsl r8
    1b88:	023f0600 	eorseq	r0, pc, #0, 12
    1b8c:	00000651 	andeq	r0, r0, r1, asr r6
    1b90:	03971704 	orrseq	r1, r7, #4, 14	; 0x100000
    1b94:	3f060000 	svccc	0x00060000
    1b98:	00065102 	andeq	r5, r6, r2, lsl #2
    1b9c:	28170800 	ldmdacs	r7, {fp}
    1ba0:	06000003 	streq	r0, [r0], -r3
    1ba4:	0651023f 			; <UNDEFINED> instruction: 0x0651023f
    1ba8:	170c0000 	strne	r0, [ip, -r0]
    1bac:	000006f2 	strdeq	r0, [r0], -r2
    1bb0:	25024106 	strcs	r4, [r2, #-262]	; 0xfffffefa
    1bb4:	10000000 	andne	r0, r0, r0
    1bb8:	0000ed17 	andeq	lr, r0, r7, lsl sp
    1bbc:	02420600 	subeq	r0, r2, #0, 12
    1bc0:	00000833 	andeq	r0, r0, r3, lsr r8
    1bc4:	085c1714 	ldmdaeq	ip, {r2, r4, r8, r9, sl, ip}^
    1bc8:	44060000 	strmi	r0, [r6], #-0
    1bcc:	00002502 	andeq	r2, r0, r2, lsl #10
    1bd0:	fc173000 	ldc2	0, cr3, [r7], {-0}
    1bd4:	06000006 	streq	r0, [r0], -r6
    1bd8:	05a00245 	streq	r0, [r0, #581]!	; 0x245
    1bdc:	17340000 	ldrne	r0, [r4, -r0]!
    1be0:	00000592 	muleq	r0, r2, r5
    1be4:	25024706 	strcs	r4, [r2, #-1798]	; 0xfffff8fa
    1be8:	38000000 	stmdacc	r0, {}	; <UNPREDICTABLE>
    1bec:	00070c17 	andeq	r0, r7, r7, lsl ip
    1bf0:	02490600 	subeq	r0, r9, #0, 12
    1bf4:	0000084e 	andeq	r0, r0, lr, asr #16
    1bf8:	0466173c 	strbteq	r1, [r6], #-1852	; 0xfffff8c4
    1bfc:	4c060000 	stcmi	0, cr0, [r6], {-0}
    1c00:	00019202 	andeq	r9, r1, r2, lsl #4
    1c04:	5d174000 	ldcpl	0, cr4, [r7, #-0]
    1c08:	06000003 	streq	r0, [r0], -r3
    1c0c:	0025024d 	eoreq	r0, r5, sp, asr #4
    1c10:	17440000 	strbne	r0, [r4, -r0]
    1c14:	00000973 	andeq	r0, r0, r3, ror r9
    1c18:	92024e06 	andls	r4, r2, #6, 28	; 0x60
    1c1c:	48000001 	stmdami	r0, {r0}
    1c20:	0005c717 	andeq	ip, r5, r7, lsl r7
    1c24:	024f0600 	subeq	r0, pc, #0, 12
    1c28:	00000854 	andeq	r0, r0, r4, asr r8
    1c2c:	039f174c 	orrseq	r1, pc, #76, 14	; 0x1300000
    1c30:	52060000 	andpl	r0, r6, #0
    1c34:	00002502 	andeq	r2, r0, r2, lsl #10
    1c38:	a4175000 	ldrge	r5, [r7], #-0
    1c3c:	06000002 	streq	r0, [r0], -r2
    1c40:	01220253 			; <UNDEFINED> instruction: 0x01220253
    1c44:	17540000 	ldrbne	r0, [r4, -r0]
    1c48:	0000112c 	andeq	r1, r0, ip, lsr #2
    1c4c:	11027606 	tstne	r2, r6, lsl #12
    1c50:	58000008 	stmdapl	r0, {r3}
    1c54:	00057c18 	andeq	r7, r5, r8, lsl ip
    1c58:	027a0600 	rsbseq	r0, sl, #0, 12
    1c5c:	000002af 	andeq	r0, r0, pc, lsr #5
    1c60:	30180148 	andscc	r0, r8, r8, asr #2
    1c64:	06000004 	streq	r0, [r0], -r4
    1c68:	0271027b 	rsbseq	r0, r1, #-1342177273	; 0xb0000007
    1c6c:	014c0000 	mrseq	r0, (UNDEF: 76)
    1c70:	0008e218 	andeq	lr, r8, r8, lsl r2
    1c74:	027f0600 	rsbseq	r0, pc, #0, 12
    1c78:	00000865 	andeq	r0, r0, r5, ror #16
    1c7c:	2c1802dc 	lfmcs	f0, 4, [r8], {220}	; 0xdc
    1c80:	06000002 	streq	r0, [r0], -r2
    1c84:	06160284 	ldreq	r0, [r6], -r4, lsl #5
    1c88:	02e00000 	rsceq	r0, r0, #0
    1c8c:	00021118 	andeq	r1, r2, r8, lsl r1
    1c90:	02850600 	addeq	r0, r5, #0, 12
    1c94:	00000871 	andeq	r0, r0, r1, ror r8
    1c98:	0e0002ec 	cdpeq	2, 0, cr0, cr0, cr12, {7}
    1c9c:	00042104 	andeq	r2, r4, r4, lsl #2
    1ca0:	00251400 	eoreq	r1, r5, r0, lsl #8
    1ca4:	05a00000 	streq	r0, [r0, #0]!
    1ca8:	3f150000 	svccc	0x00150000
    1cac:	15000004 	strne	r0, [r0, #-4]
    1cb0:	00000120 	andeq	r0, r0, r0, lsr #2
    1cb4:	0005a015 	andeq	sl, r5, r5, lsl r0
    1cb8:	00251500 	eoreq	r1, r5, r0, lsl #10
    1cbc:	0e000000 	cdpeq	0, 0, cr0, cr0, cr0, {0}
    1cc0:	00012f04 	andeq	r2, r1, r4, lsl #30
    1cc4:	82040e00 	andhi	r0, r4, #0, 28
    1cc8:	14000005 	strne	r0, [r0], #-5
    1ccc:	0000009c 	muleq	r0, ip, r0
    1cd0:	000005ca 	andeq	r0, r0, sl, asr #11
    1cd4:	00043f15 	andeq	r3, r4, r5, lsl pc
    1cd8:	01201500 			; <UNDEFINED> instruction: 0x01201500
    1cdc:	9c150000 	ldcls	0, cr0, [r5], {-0}
    1ce0:	15000000 	strne	r0, [r0, #-0]
    1ce4:	00000025 	andeq	r0, r0, r5, lsr #32
    1ce8:	ac040e00 	stcge	14, cr0, [r4], {-0}
    1cec:	14000005 	strne	r0, [r0], #-5
    1cf0:	00000025 	andeq	r0, r0, r5, lsr #32
    1cf4:	000005e4 	andeq	r0, r0, r4, ror #11
    1cf8:	00043f15 	andeq	r3, r4, r5, lsl pc
    1cfc:	01201500 			; <UNDEFINED> instruction: 0x01201500
    1d00:	0e000000 	cdpeq	0, 0, cr0, cr0, cr0, {0}
    1d04:	0005d004 	andeq	sp, r5, r4
    1d08:	005f0900 	subseq	r0, pc, r0, lsl #18
    1d0c:	05fa0000 	ldrbeq	r0, [sl, #0]!
    1d10:	e20a0000 	and	r0, sl, #0
    1d14:	02000000 	andeq	r0, r0, #0
    1d18:	005f0900 	subseq	r0, pc, r0, lsl #18
    1d1c:	060a0000 	streq	r0, [sl], -r0
    1d20:	e20a0000 	and	r0, sl, #0
    1d24:	00000000 	andeq	r0, r0, r0
    1d28:	06910600 	ldreq	r0, [r1], r0, lsl #12
    1d2c:	1d060000 	stcne	0, cr0, [r6, #-0]
    1d30:	0002f701 	andeq	pc, r2, r1, lsl #14
    1d34:	08c11900 	stmiaeq	r1, {r8, fp, ip}^
    1d38:	060c0000 	streq	r0, [ip], -r0
    1d3c:	064b0121 	strbeq	r0, [fp], -r1, lsr #2
    1d40:	c9170000 	ldmdbgt	r7, {}	; <UNPREDICTABLE>
    1d44:	06000006 	streq	r0, [r0], -r6
    1d48:	064b0123 	strbeq	r0, [fp], -r3, lsr #2
    1d4c:	17000000 	strne	r0, [r0, -r0]
    1d50:	00000400 	andeq	r0, r0, r0, lsl #8
    1d54:	25012406 	strcs	r2, [r1, #-1030]	; 0xfffffbfa
    1d58:	04000000 	streq	r0, [r0], #-0
    1d5c:	00068b17 	andeq	r8, r6, r7, lsl fp
    1d60:	01250600 			; <UNDEFINED> instruction: 0x01250600
    1d64:	00000651 	andeq	r0, r0, r1, asr r6
    1d68:	040e0008 	streq	r0, [lr], #-8
    1d6c:	00000616 	andeq	r0, r0, r6, lsl r6
    1d70:	060a040e 	streq	r0, [sl], -lr, lsl #8
    1d74:	d1190000 	tstle	r9, r0
    1d78:	0e000000 	cdpeq	0, 0, cr0, cr0, cr0, {0}
    1d7c:	8c013d06 	stchi	13, cr3, [r1], {6}
    1d80:	17000006 	strne	r0, [r0, -r6]
    1d84:	0000072e 	andeq	r0, r0, lr, lsr #14
    1d88:	8c013e06 	stchi	14, cr3, [r1], {6}
    1d8c:	00000006 	andeq	r0, r0, r6
    1d90:	0007d117 	andeq	sp, r7, r7, lsl r1
    1d94:	013f0600 	teqeq	pc, r0, lsl #12
    1d98:	0000068c 	andeq	r0, r0, ip, lsl #13
    1d9c:	08101706 	ldmdaeq	r0, {r1, r2, r8, r9, sl, ip}
    1da0:	40060000 	andmi	r0, r6, r0
    1da4:	00006601 	andeq	r6, r0, r1, lsl #12
    1da8:	09000c00 	stmdbeq	r0, {sl, fp}
    1dac:	00000066 	andeq	r0, r0, r6, rrx
    1db0:	0000069c 	muleq	r0, ip, r6
    1db4:	0000e20a 	andeq	lr, r0, sl, lsl #4
    1db8:	1a000200 	bne	25c0 <_start-0x5a40>
    1dbc:	025706d0 	subseq	r0, r7, #208, 12	; 0xd000000
    1dc0:	0000079d 	muleq	r0, sp, r7
    1dc4:	00088a17 	andeq	r8, r8, r7, lsl sl
    1dc8:	02590600 	subseq	r0, r9, #0, 12
    1dcc:	0000002c 	andeq	r0, r0, ip, lsr #32
    1dd0:	07d71700 	ldrbeq	r1, [r7, r0, lsl #14]
    1dd4:	5a060000 	bpl	181ddc <__bss_end__+0x177e4c>
    1dd8:	00012202 	andeq	r2, r1, r2, lsl #4
    1ddc:	45170400 	ldrmi	r0, [r7, #-1024]	; 0xfffffc00
    1de0:	06000004 	streq	r0, [r0], -r4
    1de4:	079d025b 			; <UNDEFINED> instruction: 0x079d025b
    1de8:	17080000 	strne	r0, [r8, -r0]
    1dec:	00000941 	andeq	r0, r0, r1, asr #18
    1df0:	a8025c06 	stmdage	r2, {r1, r2, sl, fp, ip, lr}
    1df4:	24000001 	strcs	r0, [r0], #-1
    1df8:	00033817 	andeq	r3, r3, r7, lsl r8
    1dfc:	025d0600 	subseq	r0, sp, #0, 12
    1e00:	00000025 	andeq	r0, r0, r5, lsr #32
    1e04:	06c41748 	strbeq	r1, [r4], r8, asr #14
    1e08:	5e060000 	cdppl	0, 0, cr0, cr6, cr0, {0}
    1e0c:	00007f02 	andeq	r7, r0, r2, lsl #30
    1e10:	57175000 	ldrpl	r5, [r7, -r0]
    1e14:	06000009 	streq	r0, [r0], -r9
    1e18:	0657025f 			; <UNDEFINED> instruction: 0x0657025f
    1e1c:	17580000 	ldrbne	r0, [r8, -r0]
    1e20:	000006e5 	andeq	r0, r0, r5, ror #13
    1e24:	0a026006 	beq	99e44 <__bss_end__+0x8feb4>
    1e28:	68000001 	stmdavs	r0, {r0}
    1e2c:	00096517 	andeq	r6, r9, r7, lsl r5
    1e30:	02610600 	rsbeq	r0, r1, #0, 12
    1e34:	0000010a 	andeq	r0, r0, sl, lsl #2
    1e38:	01af1770 			; <UNDEFINED> instruction: 0x01af1770
    1e3c:	62060000 	andvs	r0, r6, #0
    1e40:	00010a02 	andeq	r0, r1, r2, lsl #20
    1e44:	d8177800 	ldmdale	r7, {fp, ip, sp, lr}
    1e48:	06000008 	streq	r0, [r0], -r8
    1e4c:	07ad0263 	streq	r0, [sp, r3, ror #4]!
    1e50:	17800000 	strne	r0, [r0, r0]
    1e54:	00000439 	andeq	r0, r0, r9, lsr r4
    1e58:	bd026406 	cfstrslt	mvf6, [r2, #-24]	; 0xffffffe8
    1e5c:	88000007 	stmdahi	r0, {r0, r1, r2}
    1e60:	00082617 	andeq	r2, r8, r7, lsl r6
    1e64:	02650600 	rsbeq	r0, r5, #0, 12
    1e68:	00000025 	andeq	r0, r0, r5, lsr #32
    1e6c:	02dd17a0 	sbcseq	r1, sp, #160, 14	; 0x2800000
    1e70:	66060000 	strvs	r0, [r6], -r0
    1e74:	00010a02 	andeq	r0, r1, r2, lsl #20
    1e78:	8b17a400 	blhi	5eae80 <__bss_end__+0x5e0ef0>
    1e7c:	06000001 	streq	r0, [r0], -r1
    1e80:	010a0267 	tsteq	sl, r7, ror #4
    1e84:	17ac0000 	strne	r0, [ip, r0]!
    1e88:	000002c3 	andeq	r0, r0, r3, asr #5
    1e8c:	0a026806 	beq	9beac <__bss_end__+0x91f1c>
    1e90:	b4000001 	strlt	r0, [r0], #-1
    1e94:	00012d17 	andeq	r2, r1, r7, lsl sp
    1e98:	02690600 	rsbeq	r0, r9, #0, 12
    1e9c:	0000010a 	andeq	r0, r0, sl, lsl #2
    1ea0:	013c17bc 	teqeq	ip, ip	; <illegal shifter operand>
    1ea4:	6a060000 	bvs	181eac <__bss_end__+0x177f1c>
    1ea8:	00010a02 	andeq	r0, r1, r2, lsl #20
    1eac:	5a17c400 	bpl	5f2eb4 <__bss_end__+0x5e8f24>
    1eb0:	06000006 	streq	r0, [r0], -r6
    1eb4:	0025026b 	eoreq	r0, r5, fp, ror #4
    1eb8:	00cc0000 	sbceq	r0, ip, r0
    1ebc:	00012809 	andeq	r2, r1, r9, lsl #16
    1ec0:	0007ad00 	andeq	sl, r7, r0, lsl #26
    1ec4:	00e20a00 	rsceq	r0, r2, r0, lsl #20
    1ec8:	00190000 	andseq	r0, r9, r0
    1ecc:	00012809 	andeq	r2, r1, r9, lsl #16
    1ed0:	0007bd00 	andeq	fp, r7, r0, lsl #26
    1ed4:	00e20a00 	rsceq	r0, r2, r0, lsl #20
    1ed8:	00070000 	andeq	r0, r7, r0
    1edc:	00012809 	andeq	r2, r1, r9, lsl #16
    1ee0:	0007cd00 	andeq	ip, r7, r0, lsl #26
    1ee4:	00e20a00 	rsceq	r0, r2, r0, lsl #20
    1ee8:	00170000 	andseq	r0, r7, r0
    1eec:	7006f01a 	andvc	pc, r6, sl, lsl r0	; <UNPREDICTABLE>
    1ef0:	0007f102 	andeq	pc, r7, r2, lsl #2
    1ef4:	05511700 	ldrbeq	r1, [r1, #-1792]	; 0xfffff900
    1ef8:	73060000 	movwvc	r0, #24576	; 0x6000
    1efc:	0007f102 	andeq	pc, r7, r2, lsl #2
    1f00:	f8170000 			; <UNDEFINED> instruction: 0xf8170000
    1f04:	06000004 	streq	r0, [r0], -r4
    1f08:	08010274 	stmdaeq	r1, {r2, r4, r5, r6, r9}
    1f0c:	00780000 	rsbseq	r0, r8, r0
    1f10:	0002f109 	andeq	pc, r2, r9, lsl #2
    1f14:	00080100 	andeq	r0, r8, r0, lsl #2
    1f18:	00e20a00 	rsceq	r0, r2, r0, lsl #20
    1f1c:	001d0000 	andseq	r0, sp, r0
    1f20:	00002c09 	andeq	r2, r0, r9, lsl #24
    1f24:	00081100 	andeq	r1, r8, r0, lsl #2
    1f28:	00e20a00 	rsceq	r0, r2, r0, lsl #20
    1f2c:	001d0000 	andseq	r0, sp, r0
    1f30:	5506f01b 	strpl	pc, [r6, #-27]	; 0xffffffe5
    1f34:	00083302 	andeq	r3, r8, r2, lsl #6
    1f38:	071e1c00 	ldreq	r1, [lr, -r0, lsl #24]
    1f3c:	6c060000 	stcvs	0, cr0, [r6], {-0}
    1f40:	00069c02 	andeq	r9, r6, r2, lsl #24
    1f44:	09171c00 	ldmdbeq	r7, {sl, fp, ip}
    1f48:	75060000 	strvc	r0, [r6, #-0]
    1f4c:	0007cd02 	andeq	ip, r7, r2, lsl #26
    1f50:	28090000 	stmdacs	r9, {}	; <UNPREDICTABLE>
    1f54:	43000001 	movwmi	r0, #1
    1f58:	0a000008 	beq	1f80 <_start-0x6080>
    1f5c:	000000e2 	andeq	r0, r0, r2, ror #1
    1f60:	4e1d0018 	mrcmi	0, 0, r0, cr13, cr8, {0}
    1f64:	15000008 	strne	r0, [r0, #-8]
    1f68:	0000043f 	andeq	r0, r0, pc, lsr r4
    1f6c:	43040e00 	movwmi	r0, #19968	; 0x4e00
    1f70:	0e000008 	cdpeq	0, 0, cr0, cr0, cr8, {0}
    1f74:	00019204 	andeq	r9, r1, r4, lsl #4
    1f78:	08651d00 	stmdaeq	r5!, {r8, sl, fp, ip}^
    1f7c:	25150000 	ldrcs	r0, [r5, #-0]
    1f80:	00000000 	andeq	r0, r0, r0
    1f84:	086b040e 	stmdaeq	fp!, {r1, r2, r3, sl}^
    1f88:	040e0000 	streq	r0, [lr], #-0
    1f8c:	0000085a 	andeq	r0, r0, sl, asr r8
    1f90:	00060a09 	andeq	r0, r6, r9, lsl #20
    1f94:	00088100 	andeq	r8, r8, r0, lsl #2
    1f98:	00e20a00 	rsceq	r0, r2, r0, lsl #20
    1f9c:	00020000 	andeq	r0, r2, r0
    1fa0:	0008501e 	andeq	r5, r8, lr, lsl r0
    1fa4:	02fd0600 	rscseq	r0, sp, #0, 12
    1fa8:	0000043f 	andeq	r0, r0, pc, lsr r4
    1fac:	0008491e 	andeq	r4, r8, lr, lsl r9
    1fb0:	02fe0600 	rscseq	r0, lr, #0, 12
    1fb4:	00000445 	andeq	r0, r0, r5, asr #8
    1fb8:	00002514 	andeq	r2, r0, r4, lsl r5
    1fbc:	0008a800 	andeq	sl, r8, r0, lsl #16
    1fc0:	00251500 	eoreq	r1, r5, r0, lsl #10
    1fc4:	1f000000 	svcne	0x00000000
    1fc8:	00000367 	andeq	r0, r0, r7, ror #6
    1fcc:	08b31d07 	ldmeq	r3!, {r0, r1, r2, r8, sl, fp, ip}
    1fd0:	040e0000 	streq	r0, [lr], #-0
    1fd4:	00000899 	muleq	r0, r9, r8
    1fd8:	00002514 	andeq	r2, r0, r4, lsl r5
    1fdc:	0008c800 	andeq	ip, r8, r0, lsl #16
    1fe0:	05a01500 	streq	r1, [r0, #1280]!	; 0x500
    1fe4:	1f000000 	svcne	0x00000000
    1fe8:	00000d05 	andeq	r0, r0, r5, lsl #26
    1fec:	08d32207 	ldmeq	r3, {r0, r1, r2, r9, sp}^
    1ff0:	040e0000 	streq	r0, [lr], #-0
    1ff4:	000008b9 			; <UNDEFINED> instruction: 0x000008b9
    1ff8:	005f0120 	subseq	r0, pc, r0, lsr #2
    1ffc:	0c080000 	stceq	0, cr0, [r8], {-0}
    2000:	00000916 	andeq	r0, r0, r6, lsl r9
    2004:	0009f421 	andeq	pc, r9, r1, lsr #8
    2008:	71210000 			; <UNDEFINED> instruction: 0x71210000
    200c:	0100000b 	tsteq	r0, fp
    2010:	000b9f21 	andeq	r9, fp, r1, lsr #30
    2014:	17210400 	strne	r0, [r1, -r0, lsl #8]!
    2018:	0500000a 	streq	r0, [r0, #-10]
    201c:	000ad221 	andeq	sp, sl, r1, lsr #4
    2020:	ae210600 	cfmadda32ge	mvax0, mvax0, mvfx1, mvfx0
    2024:	0700000b 	streq	r0, [r0, -fp]
    2028:	000bbd21 	andeq	fp, fp, r1, lsr #26
    202c:	cc210300 	stcgt	3, cr0, [r1], #-0
    2030:	0200000b 	andeq	r0, r0, #11
    2034:	01040b00 	tsteq	r4, r0, lsl #22
    2038:	0009c356 	andeq	ip, r9, r6, asr r3
    203c:	089b2200 	ldmeq	fp, {r9, sp}
    2040:	57010000 	strpl	r0, [r1, -r0]
    2044:	0000006d 	andeq	r0, r0, sp, rrx
    2048:	001f0104 	andseq	r0, pc, r4, lsl #2
    204c:	000a5822 	andeq	r5, sl, r2, lsr #16
    2050:	6d590100 	ldfvse	f0, [r9, #-0]
    2054:	04000000 	streq	r0, [r0], #-0
    2058:	22001c03 	andcs	r1, r0, #768	; 0x300
    205c:	00000ae6 	andeq	r0, r0, r6, ror #21
    2060:	006d5a01 	rsbeq	r5, sp, r1, lsl #20
    2064:	02040000 	andeq	r0, r4, #0
    2068:	2622001a 			; <UNDEFINED> instruction: 0x2622001a
    206c:	0100000a 	tsteq	r0, sl
    2070:	00006d60 	andeq	r6, r0, r0, ror #26
    2074:	19010400 	stmdbne	r1, {sl}
    2078:	74732300 	ldrbtvc	r2, [r3], #-768	; 0xfffffd00
    207c:	6d610100 	stfvse	f0, [r1, #-0]
    2080:	04000000 	streq	r0, [r0], #-0
    2084:	22001801 	andcs	r1, r0, #65536	; 0x10000
    2088:	00000ae1 	andeq	r0, r0, r1, ror #21
    208c:	006d6501 	rsbeq	r6, sp, r1, lsl #10
    2090:	01040000 	mrseq	r0, (UNDEF: 4)
    2094:	f1220017 			; <UNDEFINED> instruction: 0xf1220017
    2098:	0100000a 	tsteq	r0, sl
    209c:	00006d68 	andeq	r6, r0, r8, ror #26
    20a0:	16010400 	strne	r0, [r1], -r0, lsl #8
    20a4:	0aec2200 	beq	ffb0a8ac <__bss_end__+0xffb0091c>
    20a8:	6b010000 	blvs	420b0 <__bss_end__+0x38120>
    20ac:	0000006d 	andeq	r0, r0, sp, rrx
    20b0:	00150104 	andseq	r0, r5, r4, lsl #2
    20b4:	000a6222 	andeq	r6, sl, r2, lsr #4
    20b8:	6d6e0100 	stfvse	f0, [lr, #-0]
    20bc:	04000000 	streq	r0, [r0], #-0
    20c0:	22001104 	andcs	r1, r0, #4, 2
    20c4:	00000b03 	andeq	r0, r0, r3, lsl #22
    20c8:	006d6f01 	rsbeq	r6, sp, r1, lsl #30
    20cc:	01040000 	mrseq	r0, (UNDEF: 4)
    20d0:	6c220010 	stcvs	0, cr0, [r2], #-64	; 0xffffffc0
    20d4:	0100000a 	tsteq	r0, sl
    20d8:	00006d72 	andeq	r6, r0, r2, ror sp
    20dc:	00100400 	andseq	r0, r0, r0, lsl #8
    20e0:	e3050000 	movw	r0, #20480	; 0x5000
    20e4:	0100000b 	tsteq	r0, fp
    20e8:	00091673 	andeq	r1, r9, r3, ror r6
    20ec:	09c32400 	stmibeq	r3, {sl, sp}^
    20f0:	040b0000 	streq	r0, [fp], #-0
    20f4:	0a808101 	beq	fe022500 <__bss_end__+0xfe018570>
    20f8:	74230000 	strtvc	r0, [r3], #-0
    20fc:	82010061 	andhi	r0, r1, #97	; 0x61
    2100:	0000002c 	andeq	r0, r0, ip, lsr #32
    2104:	001f0104 	andseq	r0, pc, r4, lsl #2
    2108:	0009ea22 	andeq	lr, r9, r2, lsr #20
    210c:	2c850100 	stfcss	f0, [r5], {0}
    2110:	04000000 	streq	r0, [r0], #-0
    2114:	23001e01 	movwcs	r1, #3585	; 0xe01
    2118:	00777874 	rsbseq	r7, r7, r4, ror r8
    211c:	002c8901 	eoreq	r8, ip, r1, lsl #18
    2120:	01040000 	mrseq	r0, (UNDEF: 4)
    2124:	7223001d 	eorvc	r0, r3, #29
    2128:	01007278 	tsteq	r0, r8, ror r2
    212c:	00002c8f 	andeq	r2, r0, pc, lsl #25
    2130:	1c010400 	cfstrsne	mvf0, [r1], {-0}
    2134:	78742300 	ldmdavc	r4!, {r8, r9, sp}^
    2138:	95010064 	strls	r0, [r1, #-100]	; 0xffffff9c
    213c:	0000002c 	andeq	r0, r0, ip, lsr #32
    2140:	001b0104 	andseq	r0, fp, r4, lsl #2
    2144:	64787223 	ldrbtvs	r7, [r8], #-547	; 0xfffffddd
    2148:	2c980100 	ldfcss	f0, [r8], {0}
    214c:	04000000 	streq	r0, [r0], #-0
    2150:	23001a01 	movwcs	r1, #2561	; 0xa01
    2154:	00657874 	rsbeq	r7, r5, r4, ror r8
    2158:	002c9c01 	eoreq	r9, ip, r1, lsl #24
    215c:	01040000 	mrseq	r0, (UNDEF: 4)
    2160:	72230019 	eorvc	r0, r3, #25
    2164:	01006678 	tsteq	r0, r8, ror r6
    2168:	00002ca1 	andeq	r2, r0, r1, lsr #25
    216c:	18010400 	stmdane	r1, {sl}
    2170:	72652300 	rsbvc	r2, r5, #0, 6
    2174:	a4010072 	strge	r0, [r1], #-114	; 0xffffff8e
    2178:	0000002c 	andeq	r0, r0, ip, lsr #32
    217c:	00170104 	andseq	r0, r7, r4, lsl #2
    2180:	000b9122 	andeq	r9, fp, r2, lsr #2
    2184:	2ca80100 	stfcss	f0, [r8]
    2188:	04000000 	streq	r0, [r0], #-0
    218c:	22001601 	andcs	r1, r0, #1048576	; 0x100000
    2190:	00000a58 	andeq	r0, r0, r8, asr sl
    2194:	002cad01 	eoreq	sl, ip, r1, lsl #26
    2198:	16040000 	strne	r0, [r4], -r0
    219c:	05000000 	streq	r0, [r0, #-0]
    21a0:	000009d7 	ldrdeq	r0, [r0], -r7
    21a4:	09d3ae01 	ldmibeq	r3, {r0, r9, sl, fp, sp, pc}^
    21a8:	80240000 	eorhi	r0, r4, r0
    21ac:	0f00000a 	svceq	0x0000000a
    21b0:	000009e2 	andeq	r0, r0, r2, ror #19
    21b4:	fdb90120 	ldc2	1, cr0, [r9, #128]!	; 0x80
    21b8:	0c00000a 	stceq	0, cr0, [r0], {10}
    21bc:	00000b21 	andeq	r0, r0, r1, lsr #22
    21c0:	09c3ba01 	stmibeq	r3, {r0, r9, fp, ip, sp, pc}^
    21c4:	0c000000 	stceq	0, cr0, [r0], {-0}
    21c8:	00000abd 			; <UNDEFINED> instruction: 0x00000abd
    21cc:	0a80bb01 	beq	fe030dd8 <__bss_end__+0xfe026e48>
    21d0:	0c040000 	stceq	0, cr0, [r4], {-0}
    21d4:	00000b10 	andeq	r0, r0, r0, lsl fp
    21d8:	006dbe01 	rsbeq	fp, sp, r1, lsl #28
    21dc:	0c080000 	stceq	0, cr0, [r8], {-0}
    21e0:	000004a6 	andeq	r0, r0, r6, lsr #9
    21e4:	006dc701 	rsbeq	ip, sp, r1, lsl #14
    21e8:	0c0c0000 	stceq	0, cr0, [ip], {-0}
    21ec:	000009ef 	andeq	r0, r0, pc, ror #19
    21f0:	006dc901 	rsbeq	ip, sp, r1, lsl #18
    21f4:	0c100000 	ldceq	0, cr0, [r0], {-0}
    21f8:	00000aad 	andeq	r0, r0, sp, lsr #21
    21fc:	006dcb01 	rsbeq	ip, sp, r1, lsl #22
    2200:	0c140000 	ldceq	0, cr0, [r4], {-0}
    2204:	00000b15 	andeq	r0, r0, r5, lsl fp
    2208:	006dcd01 	rsbeq	ip, sp, r1, lsl #26
    220c:	0c180000 	ldceq	0, cr0, [r8], {-0}
    2210:	00000a30 	andeq	r0, r0, r0, lsr sl
    2214:	006dcf01 	rsbeq	ip, sp, r1, lsl #30
    2218:	001c0000 	andseq	r0, ip, r0
    221c:	0009e205 	andeq	lr, r9, r5, lsl #4
    2220:	90d00100 	sbcsls	r0, r0, r0, lsl #2
    2224:	2400000a 	strcs	r0, [r0], #-10
    2228:	00000afd 	strdeq	r0, [r0], -sp
    222c:	63326925 	teqvs	r2, #606208	; 0x94000
    2230:	18d40100 	ldmne	r4, {r8}^
    2234:	0e00000b 	cdpeq	0, 0, cr0, cr0, cr11, {0}
    2238:	000b0804 	andeq	r0, fp, r4, lsl #16
    223c:	0a972600 	beq	fe5cba44 <__bss_end__+0xfe5c1ab4>
    2240:	3f010000 	svccc	0x00010000
    2244:	00002501 	andeq	r2, r0, r1, lsl #10
    2248:	8c030500 	cfstr32hi	mvfx0, [r3], {-0}
    224c:	2700009b 			; <UNDEFINED> instruction: 0x2700009b
    2250:	00000af6 	strdeq	r0, [r0], -r6
    2254:	dc016901 			; <UNDEFINED> instruction: 0xdc016901
    2258:	08000085 	stmdaeq	r0, {r0, r2, r7}
    225c:	01000000 	mrseq	r0, (UNDEF: 0)
    2260:	0011019c 	mulseq	r1, ip, r1
    2264:	04742800 	ldrbteq	r2, [r4], #-2048	; 0xfffff800
    2268:	11110000 	tstne	r1, r0
    226c:	03050000 	movweq	r0, #20480	; 0x5000
    2270:	0000981c 	andeq	r9, r0, ip, lsl r8
    2274:	000baa29 	andeq	sl, fp, r9, lsr #20
    2278:	755f2a00 	ldrbvc	r2, [pc, #-2560]	; 1880 <_start-0x6780>
    227c:	74010400 	strvc	r0, [r1], #-1024	; 0xfffffc00
    2280:	000b7b01 	andeq	r7, fp, r1, lsl #22
    2284:	00732b00 	rsbseq	r2, r3, r0, lsl #22
    2288:	c3017401 	movwgt	r7, #5121	; 0x1401
    228c:	2b000009 	blcs	22b8 <_start-0x5d48>
    2290:	74010075 	strvc	r0, [r1], #-117	; 0xffffff8b
    2294:	00002c01 	andeq	r2, r0, r1, lsl #24
    2298:	782c0000 	stmdavc	ip!, {}	; <UNPREDICTABLE>
    229c:	01740100 	cmneq	r4, r0, lsl #2
    22a0:	00000b5a 	andeq	r0, r0, sl, asr fp
    22a4:	7078652c 	rsbsvc	r6, r8, ip, lsr #10
    22a8:	01740100 	cmneq	r4, r0, lsl #2
    22ac:	0000002c 	andeq	r0, r0, ip, lsr #32
    22b0:	000a762d 	andeq	r7, sl, sp, lsr #12
    22b4:	01740100 	cmneq	r4, r0, lsl #2
    22b8:	0000002c 	andeq	r0, r0, ip, lsr #32
    22bc:	000aa52d 	andeq	sl, sl, sp, lsr #10
    22c0:	01740100 	cmneq	r4, r0, lsl #2
    22c4:	0000002c 	andeq	r0, r0, ip, lsr #32
    22c8:	0bff2900 	bleq	fffcc6d0 <__bss_end__+0xfffc2740>
    22cc:	5f2a0000 	svcpl	0x002a0000
    22d0:	01040075 	tsteq	r4, r5, ror r0
    22d4:	0bd00175 	bleq	ff4028b0 <__bss_end__+0xff3f8920>
    22d8:	732b0000 			; <UNDEFINED> instruction: 0x732b0000
    22dc:	01750100 	cmneq	r5, r0, lsl #2
    22e0:	000009c3 	andeq	r0, r0, r3, asr #19
    22e4:	0100752b 	tsteq	r0, fp, lsr #10
    22e8:	002c0175 	eoreq	r0, ip, r5, ror r1
    22ec:	2c000000 	stccs	0, cr0, [r0], {-0}
    22f0:	75010078 	strvc	r0, [r1, #-120]	; 0xffffff88
    22f4:	000baf01 	andeq	sl, fp, r1, lsl #30
    22f8:	78652c00 	stmdavc	r5!, {sl, fp, sp}^
    22fc:	75010070 	strvc	r0, [r1, #-112]	; 0xffffff90
    2300:	00002c01 	andeq	r2, r0, r1, lsl #24
    2304:	0a762d00 	beq	1d8d70c <__bss_end__+0x1d8377c>
    2308:	75010000 	strvc	r0, [r1, #-0]
    230c:	00002c01 	andeq	r2, r0, r1, lsl #24
    2310:	0aa52d00 	beq	fe94d718 <__bss_end__+0xfe943788>
    2314:	75010000 	strvc	r0, [r1, #-0]
    2318:	00002c01 	andeq	r2, r0, r1, lsl #24
    231c:	54290000 	strtpl	r0, [r9], #-0
    2320:	2a00000c 	bcs	2358 <_start-0x5ca8>
    2324:	0400755f 	streq	r7, [r0], #-1375	; 0xfffffaa1
    2328:	25017601 	strcs	r7, [r1, #-1537]	; 0xfffff9ff
    232c:	2b00000c 	blcs	2364 <_start-0x5c9c>
    2330:	76010073 			; <UNDEFINED> instruction: 0x76010073
    2334:	0009c301 	andeq	ip, r9, r1, lsl #6
    2338:	00752b00 	rsbseq	r2, r5, r0, lsl #22
    233c:	2c017601 	stccs	6, cr7, [r1], {1}
    2340:	00000000 	andeq	r0, r0, r0
    2344:	0100782c 	tsteq	r0, ip, lsr #16
    2348:	0c040176 	stfeqs	f0, [r4], {118}	; 0x76
    234c:	652c0000 	strvs	r0, [ip, #-0]!
    2350:	01007078 	tsteq	r0, r8, ror r0
    2354:	002c0176 	eoreq	r0, ip, r6, ror r1
    2358:	762d0000 	strtvc	r0, [sp], -r0
    235c:	0100000a 	tsteq	r0, sl
    2360:	002c0176 	eoreq	r0, ip, r6, ror r1
    2364:	a52d0000 	strge	r0, [sp, #-0]!
    2368:	0100000a 	tsteq	r0, sl
    236c:	002c0176 	eoreq	r0, ip, r6, ror r1
    2370:	29000000 	stmdbcs	r0, {}	; <UNPREDICTABLE>
    2374:	00000ca9 	andeq	r0, r0, r9, lsr #25
    2378:	00755f2a 	rsbseq	r5, r5, sl, lsr #30
    237c:	01770104 	cmneq	r7, r4, lsl #2
    2380:	00000c7a 	andeq	r0, r0, sl, ror ip
    2384:	0100732b 	tsteq	r0, fp, lsr #6
    2388:	09c30177 	stmibeq	r3, {r0, r1, r2, r4, r5, r6, r8}^
    238c:	752b0000 	strvc	r0, [fp, #-0]!
    2390:	01770100 	cmneq	r7, r0, lsl #2
    2394:	0000002c 	andeq	r0, r0, ip, lsr #32
    2398:	00782c00 	rsbseq	r2, r8, r0, lsl #24
    239c:	59017701 	stmdbpl	r1, {r0, r8, r9, sl, ip, sp, lr}
    23a0:	2c00000c 	stccs	0, cr0, [r0], {12}
    23a4:	00707865 	rsbseq	r7, r0, r5, ror #16
    23a8:	2c017701 	stccs	7, cr7, [r1], {1}
    23ac:	2d000000 	stccs	0, cr0, [r0, #-0]
    23b0:	00000a76 	andeq	r0, r0, r6, ror sl
    23b4:	2c017701 	stccs	7, cr7, [r1], {1}
    23b8:	2d000000 	stccs	0, cr0, [r0, #-0]
    23bc:	00000aa5 	andeq	r0, r0, r5, lsr #21
    23c0:	2c017701 	stccs	7, cr7, [r1], {1}
    23c4:	00000000 	andeq	r0, r0, r0
    23c8:	000cfe29 	andeq	pc, ip, r9, lsr #28
    23cc:	755f2a00 	ldrbvc	r2, [pc, #-2560]	; 19d4 <_start-0x662c>
    23d0:	78010400 	stmdavc	r1, {sl}
    23d4:	000ccf01 	andeq	ip, ip, r1, lsl #30
    23d8:	00732b00 	rsbseq	r2, r3, r0, lsl #22
    23dc:	c3017801 	movwgt	r7, #6145	; 0x1801
    23e0:	2b000009 	blcs	240c <_start-0x5bf4>
    23e4:	78010075 	stmdavc	r1, {r0, r2, r4, r5, r6}
    23e8:	00002c01 	andeq	r2, r0, r1, lsl #24
    23ec:	782c0000 	stmdavc	ip!, {}	; <UNPREDICTABLE>
    23f0:	01780100 	cmneq	r8, r0, lsl #2
    23f4:	00000cae 	andeq	r0, r0, lr, lsr #25
    23f8:	7078652c 	rsbsvc	r6, r8, ip, lsr #10
    23fc:	01780100 	cmneq	r8, r0, lsl #2
    2400:	0000002c 	andeq	r0, r0, ip, lsr #32
    2404:	000a762d 	andeq	r7, sl, sp, lsr #12
    2408:	01780100 	cmneq	r8, r0, lsl #2
    240c:	0000002c 	andeq	r0, r0, ip, lsr #32
    2410:	000aa52d 	andeq	sl, sl, sp, lsr #10
    2414:	01780100 	cmneq	r8, r0, lsl #2
    2418:	0000002c 	andeq	r0, r0, ip, lsr #32
    241c:	0d532900 	vldreq.16	s5, [r3, #-0]	; <UNPREDICTABLE>
    2420:	5f2a0000 	svcpl	0x002a0000
    2424:	01040075 	tsteq	r4, r5, ror r0
    2428:	0d240179 	stfeqs	f0, [r4, #-484]!	; 0xfffffe1c
    242c:	732b0000 			; <UNDEFINED> instruction: 0x732b0000
    2430:	01790100 	cmneq	r9, r0, lsl #2
    2434:	000009c3 	andeq	r0, r0, r3, asr #19
    2438:	0100752b 	tsteq	r0, fp, lsr #10
    243c:	002c0179 	eoreq	r0, ip, r9, ror r1
    2440:	2c000000 	stccs	0, cr0, [r0], {-0}
    2444:	79010078 	stmdbvc	r1, {r3, r4, r5, r6}
    2448:	000d0301 	andeq	r0, sp, r1, lsl #6
    244c:	78652c00 	stmdavc	r5!, {sl, fp, sp}^
    2450:	79010070 	stmdbvc	r1, {r4, r5, r6}
    2454:	00002c01 	andeq	r2, r0, r1, lsl #24
    2458:	0a762d00 	beq	1d8d860 <__bss_end__+0x1d838d0>
    245c:	79010000 	stmdbvc	r1, {}	; <UNPREDICTABLE>
    2460:	00002c01 	andeq	r2, r0, r1, lsl #24
    2464:	0aa52d00 	beq	fe94d86c <__bss_end__+0xfe9438dc>
    2468:	79010000 	stmdbvc	r1, {}	; <UNPREDICTABLE>
    246c:	00002c01 	andeq	r2, r0, r1, lsl #24
    2470:	a8290000 	stmdage	r9!, {}	; <UNPREDICTABLE>
    2474:	2a00000d 	bcs	24b0 <_start-0x5b50>
    2478:	0400755f 	streq	r7, [r0], #-1375	; 0xfffffaa1
    247c:	79017a01 	stmdbvc	r1, {r0, r9, fp, ip, sp, lr}
    2480:	2b00000d 	blcs	24bc <_start-0x5b44>
    2484:	7a010073 	bvc	42658 <__bss_end__+0x386c8>
    2488:	0009c301 	andeq	ip, r9, r1, lsl #6
    248c:	00752b00 	rsbseq	r2, r5, r0, lsl #22
    2490:	2c017a01 			; <UNDEFINED> instruction: 0x2c017a01
    2494:	00000000 	andeq	r0, r0, r0
    2498:	0100782c 	tsteq	r0, ip, lsr #16
    249c:	0d58017a 	ldfeqe	f0, [r8, #-488]	; 0xfffffe18
    24a0:	652c0000 	strvs	r0, [ip, #-0]!
    24a4:	01007078 	tsteq	r0, r8, ror r0
    24a8:	002c017a 	eoreq	r0, ip, sl, ror r1
    24ac:	762d0000 	strtvc	r0, [sp], -r0
    24b0:	0100000a 	tsteq	r0, sl
    24b4:	002c017a 	eoreq	r0, ip, sl, ror r1
    24b8:	a52d0000 	strge	r0, [sp, #-0]!
    24bc:	0100000a 	tsteq	r0, sl
    24c0:	002c017a 	eoreq	r0, ip, sl, ror r1
    24c4:	29000000 	stmdbcs	r0, {}	; <UNPREDICTABLE>
    24c8:	00000dfd 	strdeq	r0, [r0], -sp
    24cc:	00755f2a 	rsbseq	r5, r5, sl, lsr #30
    24d0:	017d0104 	cmneq	sp, r4, lsl #2
    24d4:	00000dce 	andeq	r0, r0, lr, asr #27
    24d8:	0100732b 	tsteq	r0, fp, lsr #6
    24dc:	0a80017d 	beq	fe002ad8 <__bss_end__+0xfdff8b48>
    24e0:	752b0000 	strvc	r0, [fp, #-0]!
    24e4:	017d0100 	cmneq	sp, r0, lsl #2
    24e8:	0000002c 	andeq	r0, r0, ip, lsr #32
    24ec:	00782c00 	rsbseq	r2, r8, r0, lsl #24
    24f0:	ad017d01 	stcge	13, cr7, [r1, #-4]
    24f4:	2c00000d 	stccs	0, cr0, [r0], {13}
    24f8:	00707865 	rsbseq	r7, r0, r5, ror #16
    24fc:	2c017d01 	stccs	13, cr7, [r1], {1}
    2500:	2d000000 	stccs	0, cr0, [r0, #-0]
    2504:	00000a76 	andeq	r0, r0, r6, ror sl
    2508:	2c017d01 	stccs	13, cr7, [r1], {1}
    250c:	2d000000 	stccs	0, cr0, [r0, #-0]
    2510:	00000aa5 	andeq	r0, r0, r5, lsr #21
    2514:	2c017d01 	stccs	13, cr7, [r1], {1}
    2518:	00000000 	andeq	r0, r0, r0
    251c:	000e5229 	andeq	r5, lr, r9, lsr #4
    2520:	755f2a00 	ldrbvc	r2, [pc, #-2560]	; 1b28 <_start-0x64d8>
    2524:	7e010400 	cfcpysvc	mvf0, mvf1
    2528:	000e2301 	andeq	r2, lr, r1, lsl #6
    252c:	00732b00 	rsbseq	r2, r3, r0, lsl #22
    2530:	80017e01 	andhi	r7, r1, r1, lsl #28
    2534:	2b00000a 	blcs	2564 <_start-0x5a9c>
    2538:	7e010075 	mcrvc	0, 0, r0, cr1, cr5, {3}
    253c:	00002c01 	andeq	r2, r0, r1, lsl #24
    2540:	782c0000 	stmdavc	ip!, {}	; <UNPREDICTABLE>
    2544:	017e0100 	cmneq	lr, r0, lsl #2
    2548:	00000e02 	andeq	r0, r0, r2, lsl #28
    254c:	7078652c 	rsbsvc	r6, r8, ip, lsr #10
    2550:	017e0100 	cmneq	lr, r0, lsl #2
    2554:	0000002c 	andeq	r0, r0, ip, lsr #32
    2558:	000a762d 	andeq	r7, sl, sp, lsr #12
    255c:	017e0100 	cmneq	lr, r0, lsl #2
    2560:	0000002c 	andeq	r0, r0, ip, lsr #32
    2564:	000aa52d 	andeq	sl, sl, sp, lsr #10
    2568:	017e0100 	cmneq	lr, r0, lsl #2
    256c:	0000002c 	andeq	r0, r0, ip, lsr #32
    2570:	0ea72900 	vfmaeq.f16	s4, s14, s0	; <UNPREDICTABLE>
    2574:	5f2a0000 	svcpl	0x002a0000
    2578:	01040075 	tsteq	r4, r5, ror r0
    257c:	0e78017f 	mrceq	1, 3, r0, cr8, cr15, {3}
    2580:	732b0000 			; <UNDEFINED> instruction: 0x732b0000
    2584:	017f0100 	cmneq	pc, r0, lsl #2
    2588:	00000a80 	andeq	r0, r0, r0, lsl #21
    258c:	0100752b 	tsteq	r0, fp, lsr #10
    2590:	002c017f 	eoreq	r0, ip, pc, ror r1
    2594:	2c000000 	stccs	0, cr0, [r0], {-0}
    2598:	7f010078 	svcvc	0x00010078
    259c:	000e5701 	andeq	r5, lr, r1, lsl #14
    25a0:	78652c00 	stmdavc	r5!, {sl, fp, sp}^
    25a4:	7f010070 	svcvc	0x00010070
    25a8:	00002c01 	andeq	r2, r0, r1, lsl #24
    25ac:	0a762d00 	beq	1d8d9b4 <__bss_end__+0x1d83a24>
    25b0:	7f010000 	svcvc	0x00010000
    25b4:	00002c01 	andeq	r2, r0, r1, lsl #24
    25b8:	0aa52d00 	beq	fe94d9c0 <__bss_end__+0xfe943a30>
    25bc:	7f010000 	svcvc	0x00010000
    25c0:	00002c01 	andeq	r2, r0, r1, lsl #24
    25c4:	fc290000 	stc2	0, cr0, [r9], #-0
    25c8:	2a00000e 	bcs	2608 <_start-0x59f8>
    25cc:	0400755f 	streq	r7, [r0], #-1375	; 0xfffffaa1
    25d0:	cd018001 	stcgt	0, cr8, [r1, #-4]
    25d4:	2b00000e 	blcs	2614 <_start-0x59ec>
    25d8:	80010073 	andhi	r0, r1, r3, ror r0
    25dc:	000a8001 	andeq	r8, sl, r1
    25e0:	00752b00 	rsbseq	r2, r5, r0, lsl #22
    25e4:	2c018001 	stccs	0, cr8, [r1], {1}
    25e8:	00000000 	andeq	r0, r0, r0
    25ec:	0100782c 	tsteq	r0, ip, lsr #16
    25f0:	0eac0180 	fdveq<illegal precision>	f0, f4, f0
    25f4:	652c0000 	strvs	r0, [ip, #-0]!
    25f8:	01007078 	tsteq	r0, r8, ror r0
    25fc:	002c0180 	eoreq	r0, ip, r0, lsl #3
    2600:	762d0000 	strtvc	r0, [sp], -r0
    2604:	0100000a 	tsteq	r0, sl
    2608:	002c0180 	eoreq	r0, ip, r0, lsl #3
    260c:	a52d0000 	strge	r0, [sp, #-0]!
    2610:	0100000a 	tsteq	r0, sl
    2614:	002c0180 	eoreq	r0, ip, r0, lsl #3
    2618:	29000000 	stmdbcs	r0, {}	; <UNPREDICTABLE>
    261c:	00000f51 	andeq	r0, r0, r1, asr pc
    2620:	00755f2a 	rsbseq	r5, r5, sl, lsr #30
    2624:	01810104 	orreq	r0, r1, r4, lsl #2
    2628:	00000f22 	andeq	r0, r0, r2, lsr #30
    262c:	0100732b 	tsteq	r0, fp, lsr #6
    2630:	0a800181 	beq	fe002c3c <__bss_end__+0xfdff8cac>
    2634:	752b0000 	strvc	r0, [fp, #-0]!
    2638:	01810100 	orreq	r0, r1, r0, lsl #2
    263c:	0000002c 	andeq	r0, r0, ip, lsr #32
    2640:	00782c00 	rsbseq	r2, r8, r0, lsl #24
    2644:	01018101 	tsteq	r1, r1, lsl #2
    2648:	2c00000f 	stccs	0, cr0, [r0], {15}
    264c:	00707865 	rsbseq	r7, r0, r5, ror #16
    2650:	2c018101 	stfcsd	f0, [r1], {1}
    2654:	2d000000 	stccs	0, cr0, [r0, #-0]
    2658:	00000a76 	andeq	r0, r0, r6, ror sl
    265c:	2c018101 	stfcsd	f0, [r1], {1}
    2660:	2d000000 	stccs	0, cr0, [r0, #-0]
    2664:	00000aa5 	andeq	r0, r0, r5, lsr #21
    2668:	2c018101 	stfcsd	f0, [r1], {1}
    266c:	00000000 	andeq	r0, r0, r0
    2670:	000fa629 	andeq	sl, pc, r9, lsr #12
    2674:	755f2a00 	ldrbvc	r2, [pc, #-2560]	; 1c7c <_start-0x6384>
    2678:	82010400 	andhi	r0, r1, #0, 8
    267c:	000f7701 	andeq	r7, pc, r1, lsl #14
    2680:	00732b00 	rsbseq	r2, r3, r0, lsl #22
    2684:	80018201 	andhi	r8, r1, r1, lsl #4
    2688:	2b00000a 	blcs	26b8 <_start-0x5948>
    268c:	82010075 	andhi	r0, r1, #117	; 0x75
    2690:	00002c01 	andeq	r2, r0, r1, lsl #24
    2694:	782c0000 	stmdavc	ip!, {}	; <UNPREDICTABLE>
    2698:	01820100 	orreq	r0, r2, r0, lsl #2
    269c:	00000f56 	andeq	r0, r0, r6, asr pc
    26a0:	7078652c 	rsbsvc	r6, r8, ip, lsr #10
    26a4:	01820100 	orreq	r0, r2, r0, lsl #2
    26a8:	0000002c 	andeq	r0, r0, ip, lsr #32
    26ac:	000a762d 	andeq	r7, sl, sp, lsr #12
    26b0:	01820100 	orreq	r0, r2, r0, lsl #2
    26b4:	0000002c 	andeq	r0, r0, ip, lsr #32
    26b8:	000aa52d 	andeq	sl, sl, sp, lsr #10
    26bc:	01820100 	orreq	r0, r2, r0, lsl #2
    26c0:	0000002c 	andeq	r0, r0, ip, lsr #32
    26c4:	0ffb2900 	svceq	0x00fb2900
    26c8:	5f2a0000 	svcpl	0x002a0000
    26cc:	01040075 	tsteq	r4, r5, ror r0
    26d0:	0fcc0183 	svceq	0x00cc0183
    26d4:	732b0000 			; <UNDEFINED> instruction: 0x732b0000
    26d8:	01830100 	orreq	r0, r3, r0, lsl #2
    26dc:	00000a80 	andeq	r0, r0, r0, lsl #21
    26e0:	0100752b 	tsteq	r0, fp, lsr #10
    26e4:	002c0183 	eoreq	r0, ip, r3, lsl #3
    26e8:	2c000000 	stccs	0, cr0, [r0], {-0}
    26ec:	83010078 	movwhi	r0, #4216	; 0x1078
    26f0:	000fab01 	andeq	sl, pc, r1, lsl #22
    26f4:	78652c00 	stmdavc	r5!, {sl, fp, sp}^
    26f8:	83010070 	movwhi	r0, #4208	; 0x1070
    26fc:	00002c01 	andeq	r2, r0, r1, lsl #24
    2700:	0a762d00 	beq	1d8db08 <__bss_end__+0x1d83b78>
    2704:	83010000 	movwhi	r0, #4096	; 0x1000
    2708:	00002c01 	andeq	r2, r0, r1, lsl #24
    270c:	0aa52d00 	beq	fe94db14 <__bss_end__+0xfe943b84>
    2710:	83010000 	movwhi	r0, #4096	; 0x1000
    2714:	00002c01 	andeq	r2, r0, r1, lsl #24
    2718:	50290000 	eorpl	r0, r9, r0
    271c:	2a000010 	bcs	2764 <_start-0x589c>
    2720:	0400755f 	streq	r7, [r0], #-1375	; 0xfffffaa1
    2724:	21018401 	tstcs	r1, r1, lsl #8
    2728:	2b000010 	blcs	2770 <_start-0x5890>
    272c:	84010073 	strhi	r0, [r1], #-115	; 0xffffff8d
    2730:	000a8001 	andeq	r8, sl, r1
    2734:	00752b00 	rsbseq	r2, r5, r0, lsl #22
    2738:	2c018401 	cfstrscs	mvf8, [r1], {1}
    273c:	00000000 	andeq	r0, r0, r0
    2740:	0100782c 	tsteq	r0, ip, lsr #16
    2744:	10000184 	andne	r0, r0, r4, lsl #3
    2748:	652c0000 	strvs	r0, [ip, #-0]!
    274c:	01007078 	tsteq	r0, r8, ror r0
    2750:	002c0184 	eoreq	r0, ip, r4, lsl #3
    2754:	762d0000 	strtvc	r0, [sp], -r0
    2758:	0100000a 	tsteq	r0, sl
    275c:	002c0184 	eoreq	r0, ip, r4, lsl #3
    2760:	a52d0000 	strge	r0, [sp, #-0]!
    2764:	0100000a 	tsteq	r0, sl
    2768:	002c0184 	eoreq	r0, ip, r4, lsl #3
    276c:	29000000 	stmdbcs	r0, {}	; <UNPREDICTABLE>
    2770:	000010a5 	andeq	r1, r0, r5, lsr #1
    2774:	00755f2a 	rsbseq	r5, r5, sl, lsr #30
    2778:	01850104 	orreq	r0, r5, r4, lsl #2
    277c:	00001076 	andeq	r1, r0, r6, ror r0
    2780:	0100732b 	tsteq	r0, fp, lsr #6
    2784:	0a800185 	beq	fe002da0 <__bss_end__+0xfdff8e10>
    2788:	752b0000 	strvc	r0, [fp, #-0]!
    278c:	01850100 	orreq	r0, r5, r0, lsl #2
    2790:	0000002c 	andeq	r0, r0, ip, lsr #32
    2794:	00782c00 	rsbseq	r2, r8, r0, lsl #24
    2798:	55018501 	strpl	r8, [r1, #-1281]	; 0xfffffaff
    279c:	2c000010 	stccs	0, cr0, [r0], {16}
    27a0:	00707865 	rsbseq	r7, r0, r5, ror #16
    27a4:	2c018501 	cfstr32cs	mvfx8, [r1], {1}
    27a8:	2d000000 	stccs	0, cr0, [r0, #-0]
    27ac:	00000a76 	andeq	r0, r0, r6, ror sl
    27b0:	2c018501 	cfstr32cs	mvfx8, [r1], {1}
    27b4:	2d000000 	stccs	0, cr0, [r0, #-0]
    27b8:	00000aa5 	andeq	r0, r0, r5, lsr #21
    27bc:	2c018501 	cfstr32cs	mvfx8, [r1], {1}
    27c0:	00000000 	andeq	r0, r0, r0
    27c4:	0085e02e 	addeq	lr, r5, lr, lsr #32
    27c8:	00000400 	andeq	r0, r0, r0, lsl #8
    27cc:	755f2a00 	ldrbvc	r2, [pc, #-2560]	; 1dd4 <_start-0x622c>
    27d0:	86010400 	strhi	r0, [r1], -r0, lsl #8
    27d4:	0010cf01 	andseq	ip, r0, r1, lsl #30
    27d8:	00732b00 	rsbseq	r2, r3, r0, lsl #22
    27dc:	80018601 	andhi	r8, r1, r1, lsl #12
    27e0:	2b00000a 	blcs	2810 <_start-0x57f0>
    27e4:	86010075 			; <UNDEFINED> instruction: 0x86010075
    27e8:	00002c01 	andeq	r2, r0, r1, lsl #24
    27ec:	782c0000 	stmdavc	ip!, {}	; <UNPREDICTABLE>
    27f0:	01860100 	orreq	r0, r6, r0, lsl #2
    27f4:	000010ae 	andeq	r1, r0, lr, lsr #1
    27f8:	7078652f 	rsbsvc	r6, r8, pc, lsr #10
    27fc:	01860100 	orreq	r0, r6, r0, lsl #2
    2800:	0000002c 	andeq	r0, r0, ip, lsr #32
    2804:	762d0200 	strtvc	r0, [sp], -r0, lsl #4
    2808:	0100000a 	tsteq	r0, sl
    280c:	002c0186 	eoreq	r0, ip, r6, lsl #3
    2810:	a52d0000 	strge	r0, [sp, #-0]!
    2814:	0100000a 	tsteq	r0, sl
    2818:	002c0186 	eoreq	r0, ip, r6, lsl #3
    281c:	00000000 	andeq	r0, r0, r0
    2820:	00012f09 	andeq	r2, r1, r9, lsl #30
    2824:	00111100 	andseq	r1, r1, r0, lsl #2
    2828:	00e20a00 	rsceq	r0, r2, r0, lsl #20
    282c:	000c0000 	andeq	r0, ip, r0
    2830:	00110104 	andseq	r0, r1, r4, lsl #2
    2834:	03783000 	cmneq	r8, #0
    2838:	4b010000 	blmi	42840 <__bss_end__+0x388b0>
    283c:	008a7801 	addeq	r7, sl, r1, lsl #16
    2840:	00009400 	andeq	r9, r0, r0, lsl #8
    2844:	879c0100 	ldrhi	r0, [ip, r0, lsl #2]
    2848:	31000012 	tstcc	r0, r2, lsl r0
    284c:	00414453 	subeq	r4, r1, r3, asr r4
    2850:	33015001 	movwcc	r5, #4097	; 0x1001
    2854:	02000000 	andeq	r0, r0, #0
    2858:	4c435331 	mcrrmi	3, 3, r5, r3, cr1
    285c:	01510100 	cmpeq	r1, r0, lsl #2
    2860:	00000033 	andeq	r0, r0, r3, lsr r0
    2864:	00632c03 	rsbeq	r2, r3, r3, lsl #24
    2868:	c3015901 	movwgt	r5, #6401	; 0x1901
    286c:	28000009 	stmdacs	r0, {r0, r3}
    2870:	00000474 	andeq	r0, r0, r4, ror r4
    2874:	00001297 	muleq	r0, r7, r2
    2878:	985c0305 	ldmdals	ip, {r0, r2, r8, r9}^
    287c:	90290000 	eorls	r0, r9, r0
    2880:	2a000011 	bcs	28cc <_start-0x5734>
    2884:	0400755f 	streq	r7, [r0], #-1375	; 0xfffffaa1
    2888:	85015901 	strhi	r5, [r1, #-2305]	; 0xfffff6ff
    288c:	2b000011 	blcs	28d8 <_start-0x5728>
    2890:	59010076 	stmdbpl	r1, {r1, r2, r4, r5, r6}
    2894:	0009c301 	andeq	ip, r9, r1, lsl #6
    2898:	00752b00 	rsbseq	r2, r5, r0, lsl #22
    289c:	2c015901 			; <UNDEFINED> instruction: 0x2c015901
    28a0:	00000000 	andeq	r0, r0, r0
    28a4:	0100752c 	tsteq	r0, ip, lsr #10
    28a8:	11640159 	cmnne	r4, r9, asr r1
    28ac:	29000000 	stmdbcs	r0, {}	; <UNPREDICTABLE>
    28b0:	000011c3 	andeq	r1, r0, r3, asr #3
    28b4:	00755f2a 	rsbseq	r5, r5, sl, lsr #30
    28b8:	015b0104 	cmpeq	fp, r4, lsl #2
    28bc:	000011b8 			; <UNDEFINED> instruction: 0x000011b8
    28c0:	0076762b 	rsbseq	r7, r6, fp, lsr #12
    28c4:	c3015b01 	movwgt	r5, #6913	; 0x1b01
    28c8:	2b000009 	blcs	28f4 <_start-0x570c>
    28cc:	01007575 	tsteq	r0, r5, ror r5
    28d0:	006d015b 	rsbeq	r0, sp, fp, asr r1
    28d4:	2c000000 	stccs	0, cr0, [r0], {-0}
    28d8:	5b010075 	blpl	42ab4 <__bss_end__+0x38b24>
    28dc:	00119501 	andseq	r9, r1, r1, lsl #10
    28e0:	80320000 	eorshi	r0, r2, r0
    28e4:	3000008a 	andcc	r0, r0, sl, lsl #1
    28e8:	3200000b 	andcc	r0, r0, #11
    28ec:	00008a84 	andeq	r8, r0, r4, lsl #21
    28f0:	00001b14 	andeq	r1, r0, r4, lsl fp
    28f4:	008a9033 	addeq	r9, sl, r3, lsr r0
    28f8:	001b1f00 	andseq	r1, fp, r0, lsl #30
    28fc:	0011ed00 	andseq	lr, r1, r0, lsl #26
    2900:	50013400 	andpl	r3, r1, r0, lsl #8
    2904:	01343201 	teqeq	r4, r1, lsl #4
    2908:	00340151 	eorseq	r0, r4, r1, asr r1
    290c:	008a9c33 	addeq	r9, sl, r3, lsr ip
    2910:	001b1f00 	andseq	r1, fp, r0, lsl #30
    2914:	00120500 	andseq	r0, r2, r0, lsl #10
    2918:	50013400 	andpl	r3, r1, r0, lsl #8
    291c:	01343301 	teqeq	r4, r1, lsl #6
    2920:	00340151 	eorseq	r0, r4, r1, asr r1
    2924:	008aa032 	addeq	sl, sl, r2, lsr r0
    2928:	001b1400 	andseq	r1, fp, r0, lsl #8
    292c:	8ab03300 	bhi	fec0f534 <__bss_end__+0xfec055a4>
    2930:	1b2a0000 	blne	a82938 <__bss_end__+0xa789a8>
    2934:	12290000 	eorne	r0, r9, #0
    2938:	01340000 	teqeq	r4, r0
    293c:	00740250 	rsbseq	r0, r4, r0, asr r2
    2940:	03510134 	cmpeq	r1, #52, 2
    2944:	0080000a 	addeq	r0, r0, sl
    2948:	008ab432 	addeq	fp, sl, r2, lsr r4
    294c:	001b1400 	andseq	r1, fp, r0, lsl #8
    2950:	8ab83200 	bhi	fee0f158 <__bss_end__+0xfee051c8>
    2954:	19580000 	ldmdbne	r8, {}^	; <UNPREDICTABLE>
    2958:	bc320000 	ldclt	0, cr0, [r2], #-0
    295c:	1400008a 	strne	r0, [r0], #-138	; 0xffffff76
    2960:	3200001b 	andcc	r0, r0, #27
    2964:	00008adc 	ldrdeq	r8, [r0], -ip
    2968:	00001b35 	andeq	r1, r0, r5, lsr fp
    296c:	008af033 	addeq	pc, sl, r3, lsr r0	; <UNPREDICTABLE>
    2970:	001b4000 	andseq	r4, fp, r0
    2974:	00127d00 	andseq	r7, r2, r0, lsl #26
    2978:	50013400 	andpl	r3, r1, r0, lsl #8
    297c:	99b40305 	ldmibls	r4!, {r0, r2, r8, r9}
    2980:	01340000 	teqeq	r4, r0
    2984:	68030551 	stmdavs	r3, {r0, r4, r6, r8, sl}
    2988:	34000098 	strcc	r0, [r0], #-152	; 0xffffff68
    298c:	03055201 	movweq	r5, #20993	; 0x5201
    2990:	0000985c 	andeq	r9, r0, ip, asr r8
    2994:	03530134 	cmpeq	r3, #52, 2
    2998:	0001620a 	andeq	r6, r1, sl, lsl #4
    299c:	008af432 	addeq	pc, sl, r2, lsr r4	; <UNPREDICTABLE>
    29a0:	001b4b00 	andseq	r4, fp, r0, lsl #22
    29a4:	2f090000 	svccs	0x00090000
    29a8:	97000001 	strls	r0, [r0, -r1]
    29ac:	0a000012 	beq	29fc <_start-0x5604>
    29b0:	000000e2 	andeq	r0, r0, r2, ror #1
    29b4:	87040008 	strhi	r0, [r4, -r8]
    29b8:	30000012 	andcc	r0, r0, r2, lsl r0
    29bc:	00000ac4 	andeq	r0, r0, r4, asr #21
    29c0:	0c014401 	cfstrseq	mvf4, [r1], {1}
    29c4:	1800008b 	stmdane	r0, {r0, r1, r3, r7}
    29c8:	01000000 	mrseq	r0, (UNDEF: 0)
    29cc:	0012c59c 	mulseq	r2, ip, r5
    29d0:	8b143200 	blhi	50f1d8 <__bss_end__+0x505248>
    29d4:	12c50000 	sbcne	r0, r5, #0
    29d8:	20320000 	eorscs	r0, r2, r0
    29dc:	1600008b 	strne	r0, [r0], -fp, lsl #1
    29e0:	00000011 	andeq	r0, r0, r1, lsl r0
    29e4:	000a0435 	andeq	r0, sl, r5, lsr r4
    29e8:	01410100 	mrseq	r0, (UNDEF: 81)
    29ec:	00000025 	andeq	r0, r0, r5, lsr #32
    29f0:	00008a68 	andeq	r8, r0, r8, ror #20
    29f4:	00000010 	andeq	r0, r0, r0, lsl r0
    29f8:	97369c01 	ldrls	r9, [r6, -r1, lsl #24]!
    29fc:	01000008 	tsteq	r0, r8
    2a00:	0025012e 	eoreq	r0, r5, lr, lsr #2
    2a04:	89a80000 	stmibhi	r8!, {}	; <UNPREDICTABLE>
    2a08:	00c00000 	sbceq	r0, r0, r0
    2a0c:	9c010000 	stcls	0, cr0, [r1], {-0}
    2a10:	000013fe 	strdeq	r1, [r0], -lr
    2a14:	00084437 	andeq	r4, r8, r7, lsr r4
    2a18:	012e0100 			; <UNDEFINED> instruction: 0x012e0100
    2a1c:	0000002c 	andeq	r0, r0, ip, lsr #32
    2a20:	000004f5 	strdeq	r0, [r0], -r5
    2a24:	00064537 	andeq	r4, r6, r7, lsr r5
    2a28:	012e0100 			; <UNDEFINED> instruction: 0x012e0100
    2a2c:	000013fe 	strdeq	r1, [r0], -lr
    2a30:	00000516 	andeq	r0, r0, r6, lsl r5
    2a34:	000b0937 	andeq	r0, fp, r7, lsr r9
    2a38:	012e0100 			; <UNDEFINED> instruction: 0x012e0100
    2a3c:	0000002c 	andeq	r0, r0, ip, lsr #32
    2a40:	00000534 	andeq	r0, r0, r4, lsr r5
    2a44:	00047428 	andeq	r7, r4, r8, lsr #8
    2a48:	00129700 	andseq	r9, r2, r0, lsl #14
    2a4c:	50030500 	andpl	r0, r3, r0, lsl #10
    2a50:	38000098 	stmdacc	r0, {r3, r4, r7}
    2a54:	000089c0 	andeq	r8, r0, r0, asr #19
    2a58:	00000088 	andeq	r0, r0, r8, lsl #1
    2a5c:	000013d4 	ldrdeq	r1, [r0], -r4
    2a60:	01006939 	tsteq	r0, r9, lsr r9
    2a64:	002c0132 	eoreq	r0, ip, r2, lsr r1
    2a68:	05520000 	ldrbeq	r0, [r2, #-0]
    2a6c:	cc320000 	ldcgt	0, cr0, [r2], #-0
    2a70:	35000089 	strcc	r0, [r0, #-137]	; 0xffffff77
    2a74:	3300001b 	movwcc	r0, #27
    2a78:	000089e0 	andeq	r8, r0, r0, ror #19
    2a7c:	00001b40 	andeq	r1, r0, r0, asr #22
    2a80:	00001388 	andeq	r1, r0, r8, lsl #7
    2a84:	05500134 	ldrbeq	r0, [r0, #-308]	; 0xfffffecc
    2a88:	00996003 	addseq	r6, r9, r3
    2a8c:	51013400 	tstpl	r1, r0, lsl #8
    2a90:	98680305 	stmdals	r8!, {r0, r2, r8, r9}^
    2a94:	01340000 	teqeq	r4, r0
    2a98:	50030552 	andpl	r0, r3, r2, asr r5
    2a9c:	34000098 	strcc	r0, [r0], #-152	; 0xffffff68
    2aa0:	0a035301 	beq	d76ac <__bss_end__+0xcd71c>
    2aa4:	32000134 	andcc	r0, r0, #52, 2
    2aa8:	000089e4 	andeq	r8, r0, r4, ror #19
    2aac:	00001b4b 	andeq	r1, r0, fp, asr #22
    2ab0:	008a3032 	addeq	r3, sl, r2, lsr r0
    2ab4:	001b3500 	andseq	r3, fp, r0, lsl #10
    2ab8:	8a443300 	bhi	110f6c0 <__bss_end__+0x1105730>
    2abc:	1b400000 	blne	1002ac4 <__bss_end__+0xff8b34>
    2ac0:	13ca0000 	bicne	r0, sl, #0
    2ac4:	01340000 	teqeq	r4, r0
    2ac8:	84030550 	strhi	r0, [r3], #-1360	; 0xfffffab0
    2acc:	34000099 	strcc	r0, [r0], #-153	; 0xffffff67
    2ad0:	03055101 	movweq	r5, #20737	; 0x5101
    2ad4:	00009868 	andeq	r9, r0, r8, ror #16
    2ad8:	05520134 	ldrbeq	r0, [r2, #-308]	; 0xfffffecc
    2adc:	00985003 	addseq	r5, r8, r3
    2ae0:	53013400 	movwpl	r3, #5120	; 0x1400
    2ae4:	01340a03 	teqeq	r4, r3, lsl #20
    2ae8:	8a483200 	bhi	120f2f0 <__bss_end__+0x1205360>
    2aec:	1b4b0000 	blne	12c2af4 <__bss_end__+0x12b8b64>
    2af0:	33000000 	movwcc	r0, #0
    2af4:	000089c0 	andeq	r8, r0, r0, asr #19
    2af8:	00001673 	andeq	r1, r0, r3, ror r6
    2afc:	000013f4 	strdeq	r1, [r0], -r4
    2b00:	03500134 	cmpeq	r0, #52, 2
    2b04:	345001f3 	ldrbcc	r0, [r0], #-499	; 0xfffffe0d
    2b08:	74025101 	strvc	r5, [r2], #-257	; 0xfffffeff
    2b0c:	52013400 	andpl	r3, r1, #0, 8
    2b10:	32003101 	andcc	r3, r0, #1073741824	; 0x40000000
    2b14:	00008a4c 	andeq	r8, r0, ip, asr #20
    2b18:	0000153c 	andeq	r1, r0, ip, lsr r5
    2b1c:	54040e00 	strpl	r0, [r4], #-3584	; 0xfffff200
    2b20:	36000000 	strcc	r0, [r0], -r0
    2b24:	00000176 	andeq	r0, r0, r6, ror r1
    2b28:	25011e01 	strcs	r1, [r1, #-3585]	; 0xfffff1ff
    2b2c:	e4000000 	str	r0, [r0], #-0
    2b30:	c4000088 	strgt	r0, [r0], #-136	; 0xffffff78
    2b34:	01000000 	mrseq	r0, (UNDEF: 0)
    2b38:	0015279c 	mulseq	r5, ip, r7
    2b3c:	08443700 	stmdaeq	r4, {r8, r9, sl, ip, sp}^
    2b40:	1e010000 	cdpne	0, 0, cr0, cr1, cr0, {0}
    2b44:	00002c01 	andeq	r2, r0, r1, lsl #24
    2b48:	00058700 	andeq	r8, r5, r0, lsl #14
    2b4c:	06453700 	strbeq	r3, [r5], -r0, lsl #14
    2b50:	1e010000 	cdpne	0, 0, cr0, cr1, cr0, {0}
    2b54:	0013fe01 	andseq	pc, r3, r1, lsl #28
    2b58:	0005a800 	andeq	sl, r5, r0, lsl #16
    2b5c:	0b093700 	bleq	250764 <__bss_end__+0x2467d4>
    2b60:	1e010000 	cdpne	0, 0, cr0, cr1, cr0, {0}
    2b64:	00002c01 	andeq	r2, r0, r1, lsl #24
    2b68:	0005c600 	andeq	ip, r5, r0, lsl #12
    2b6c:	04742800 	ldrbteq	r2, [r4], #-2048	; 0xfffff800
    2b70:	15370000 	ldrne	r0, [r7, #-0]!
    2b74:	03050000 	movweq	r0, #20480	; 0x5000
    2b78:	00009844 	andeq	r9, r0, r4, asr #16
    2b7c:	0088fc38 	addeq	pc, r8, r8, lsr ip	; <UNPREDICTABLE>
    2b80:	00008800 	andeq	r8, r0, r0, lsl #16
    2b84:	0014fd00 	andseq	pc, r4, r0, lsl #26
    2b88:	00693900 	rsbeq	r3, r9, r0, lsl #18
    2b8c:	2c012101 	stfcss	f2, [r1], {1}
    2b90:	e4000000 	str	r0, [r0], #-0
    2b94:	32000005 	andcc	r0, r0, #5
    2b98:	00008908 	andeq	r8, r0, r8, lsl #18
    2b9c:	00001b35 	andeq	r1, r0, r5, lsr fp
    2ba0:	00891c33 	addeq	r1, r9, r3, lsr ip
    2ba4:	001b4000 	andseq	r4, fp, r0
    2ba8:	0014b100 	andseq	fp, r4, r0, lsl #2
    2bac:	50013400 	andpl	r3, r1, r0, lsl #8
    2bb0:	99600305 	stmdbls	r0!, {r0, r2, r8, r9}^
    2bb4:	01340000 	teqeq	r4, r0
    2bb8:	68030551 	stmdavs	r3, {r0, r4, r6, r8, sl}
    2bbc:	34000098 	strcc	r0, [r0], #-152	; 0xffffff68
    2bc0:	03055201 	movweq	r5, #20993	; 0x5201
    2bc4:	00009844 	andeq	r9, r0, r4, asr #16
    2bc8:	03530134 	cmpeq	r3, #52, 2
    2bcc:	0001230a 	andeq	r2, r1, sl, lsl #6
    2bd0:	00892032 	addeq	r2, r9, r2, lsr r0
    2bd4:	001b4b00 	andseq	r4, fp, r0, lsl #22
    2bd8:	896c3200 	stmdbhi	ip!, {r9, ip, sp}^
    2bdc:	1b350000 	blne	d42be4 <__bss_end__+0xd38c54>
    2be0:	80330000 	eorshi	r0, r3, r0
    2be4:	40000089 	andmi	r0, r0, r9, lsl #1
    2be8:	f300001b 	vqadd.u8	d0, d0, d11
    2bec:	34000014 	strcc	r0, [r0], #-20	; 0xffffffec
    2bf0:	03055001 	movweq	r5, #20481	; 0x5001
    2bf4:	00009984 	andeq	r9, r0, r4, lsl #19
    2bf8:	05510134 	ldrbeq	r0, [r1, #-308]	; 0xfffffecc
    2bfc:	00986803 	addseq	r6, r8, r3, lsl #16
    2c00:	52013400 	andpl	r3, r1, #0, 8
    2c04:	98440305 	stmdals	r4, {r0, r2, r8, r9}^
    2c08:	01340000 	teqeq	r4, r0
    2c0c:	230a0353 	movwcs	r0, #41811	; 0xa353
    2c10:	84320001 	ldrthi	r0, [r2], #-1
    2c14:	4b000089 	blmi	2e40 <_start-0x51c0>
    2c18:	0000001b 	andeq	r0, r0, fp, lsl r0
    2c1c:	0088fc33 	addeq	pc, r8, r3, lsr ip	; <UNPREDICTABLE>
    2c20:	00167300 	andseq	r7, r6, r0, lsl #6
    2c24:	00151d00 	andseq	r1, r5, r0, lsl #26
    2c28:	50013400 	andpl	r3, r1, r0, lsl #8
    2c2c:	5001f303 	andpl	pc, r1, r3, lsl #6
    2c30:	02510134 	subseq	r0, r1, #52, 2
    2c34:	01340074 	teqeq	r4, r4, ror r0
    2c38:	00300152 	eorseq	r0, r0, r2, asr r1
    2c3c:	00898832 	addeq	r8, r9, r2, lsr r8
    2c40:	00153c00 	andseq	r3, r5, r0, lsl #24
    2c44:	2f090000 	svccs	0x00090000
    2c48:	37000001 	strcc	r0, [r0, -r1]
    2c4c:	0a000015 	beq	2ca8 <_start-0x5358>
    2c50:	000000e2 	andeq	r0, r0, r2, ror #1
    2c54:	27040009 	strcs	r0, [r4, -r9]
    2c58:	27000015 	smladcs	r0, r5, r0, r0
    2c5c:	00000b88 	andeq	r0, r0, r8, lsl #23
    2c60:	e4011101 	str	r1, [r1], #-257	; 0xfffffeff
    2c64:	f0000085 			; <UNDEFINED> instruction: 0xf0000085
    2c68:	01000000 	mrseq	r0, (UNDEF: 0)
    2c6c:	0016739c 	mulseq	r6, ip, r3
    2c70:	04742800 	ldrbteq	r2, [r4], #-2048	; 0xfffff800
    2c74:	12970000 	addsne	r0, r7, #0
    2c78:	03050000 	movweq	r0, #20480	; 0x5000
    2c7c:	0000982c 	andeq	r9, r0, ip, lsr #16
    2c80:	00861c32 	addeq	r1, r6, r2, lsr ip
    2c84:	001b3500 	andseq	r3, fp, r0, lsl #10
    2c88:	86303300 	ldrthi	r3, [r0], -r0, lsl #6
    2c8c:	1b400000 	blne	1002c94 <__bss_end__+0xff8d04>
    2c90:	159a0000 	ldrne	r0, [sl]
    2c94:	01340000 	teqeq	r4, r0
    2c98:	84030550 	strhi	r0, [r3], #-1360	; 0xfffffab0
    2c9c:	34000099 	strcc	r0, [r0], #-153	; 0xffffff67
    2ca0:	03055101 	movweq	r5, #20737	; 0x5101
    2ca4:	00009868 	andeq	r9, r0, r8, ror #16
    2ca8:	05520134 	ldrbeq	r0, [r2, #-308]	; 0xfffffecc
    2cac:	00982c03 	addseq	r2, r8, r3, lsl #24
    2cb0:	53013400 	movwpl	r3, #5120	; 0x1400
    2cb4:	01130a03 	tsteq	r3, r3, lsl #20
    2cb8:	86343200 	ldrthi	r3, [r4], -r0, lsl #4
    2cbc:	1b4b0000 	blne	12c2cc4 <__bss_end__+0x12b8d34>
    2cc0:	38320000 	ldmdacc	r2!, {}	; <UNPREDICTABLE>
    2cc4:	35000086 	strcc	r0, [r0, #-134]	; 0xffffff7a
    2cc8:	3300001b 	movwcc	r0, #27
    2ccc:	0000864c 	andeq	r8, r0, ip, asr #12
    2cd0:	00001b40 	andeq	r1, r0, r0, asr #22
    2cd4:	000015dc 	ldrdeq	r1, [r0], -ip
    2cd8:	05500134 	ldrbeq	r0, [r0, #-308]	; 0xfffffecc
    2cdc:	00996003 	addseq	r6, r9, r3
    2ce0:	51013400 	tstpl	r1, r0, lsl #8
    2ce4:	98680305 	stmdals	r8!, {r0, r2, r8, r9}^
    2ce8:	01340000 	teqeq	r4, r0
    2cec:	2c030552 	cfstr32cs	mvfx0, [r3], {82}	; 0x52
    2cf0:	34000098 	strcc	r0, [r0], #-152	; 0xffffff68
    2cf4:	0a035301 	beq	d7900 <__bss_end__+0xcd970>
    2cf8:	32000113 	andcc	r0, r0, #-1073741820	; 0xc0000004
    2cfc:	00008650 	andeq	r8, r0, r0, asr r6
    2d00:	00001b4b 	andeq	r1, r0, fp, asr #22
    2d04:	00867432 	addeq	r7, r6, r2, lsr r4
    2d08:	001b1400 	andseq	r1, fp, r0, lsl #8
    2d0c:	867c3200 	ldrbthi	r3, [ip], -r0, lsl #4
    2d10:	1b350000 	blne	d42d18 <__bss_end__+0xd38d88>
    2d14:	90330000 	eorsls	r0, r3, r0
    2d18:	40000086 	andmi	r0, r0, r6, lsl #1
    2d1c:	2700001b 	smladcs	r0, fp, r0, r0
    2d20:	34000016 	strcc	r0, [r0], #-22	; 0xffffffea
    2d24:	03055001 	movweq	r5, #20481	; 0x5001
    2d28:	000099b4 			; <UNDEFINED> instruction: 0x000099b4
    2d2c:	05510134 	ldrbeq	r0, [r1, #-308]	; 0xfffffecc
    2d30:	00986803 	addseq	r6, r8, r3, lsl #16
    2d34:	52013400 	andpl	r3, r1, #0, 8
    2d38:	982c0305 	stmdals	ip!, {r0, r2, r8, r9}
    2d3c:	01340000 	teqeq	r4, r0
    2d40:	160a0353 			; <UNDEFINED> instruction: 0x160a0353
    2d44:	94320001 	ldrtls	r0, [r2], #-1
    2d48:	4b000086 	blmi	2f68 <_start-0x5098>
    2d4c:	3200001b 	andcc	r0, r0, #27
    2d50:	00008698 	muleq	r0, r8, r6
    2d54:	00001b35 	andeq	r1, r0, r5, lsr fp
    2d58:	0086ac33 	addeq	sl, r6, r3, lsr ip
    2d5c:	001b4000 	andseq	r4, fp, r0
    2d60:	00166900 	andseq	r6, r6, r0, lsl #18
    2d64:	50013400 	andpl	r3, r1, r0, lsl #8
    2d68:	99d80305 	ldmibls	r8, {r0, r2, r8, r9}^
    2d6c:	01340000 	teqeq	r4, r0
    2d70:	68030551 	stmdavs	r3, {r0, r4, r6, r8, sl}
    2d74:	34000098 	strcc	r0, [r0], #-152	; 0xffffff68
    2d78:	03055201 	movweq	r5, #20993	; 0x5201
    2d7c:	0000982c 	andeq	r9, r0, ip, lsr #16
    2d80:	03530134 	cmpeq	r3, #52, 2
    2d84:	0001180a 	andeq	r1, r1, sl, lsl #16
    2d88:	0086b032 	addeq	fp, r6, r2, lsr r0
    2d8c:	001b4b00 	andseq	r4, fp, r0, lsl #22
    2d90:	663a0000 	ldrtvs	r0, [sl], -r0
    2d94:	0100000b 	tsteq	r0, fp
    2d98:	00871cef 	addeq	r1, r7, pc, ror #25
    2d9c:	0001c800 	andeq	ip, r1, r0, lsl #16
    2da0:	439c0100 	orrsmi	r0, ip, #0, 2
    2da4:	3b000019 	blcc	2e10 <_start-0x51f0>
    2da8:	00000844 	andeq	r0, r0, r4, asr #16
    2dac:	002cef01 	eoreq	lr, ip, r1, lsl #30
    2db0:	06190000 	ldreq	r0, [r9], -r0
    2db4:	093b0000 	ldmdbeq	fp!, {}	; <UNPREDICTABLE>
    2db8:	0100000b 	tsteq	r0, fp
    2dbc:	00002cef 	andeq	r2, r0, pc, ror #25
    2dc0:	00063700 	andeq	r3, r6, r0, lsl #14
    2dc4:	0a903b00 	beq	fe4119cc <__bss_end__+0xfe407a3c>
    2dc8:	ef010000 	svc	0x00010000
    2dcc:	00000025 	andeq	r0, r0, r5, lsr #32
    2dd0:	0000067c 	andeq	r0, r0, ip, ror r6
    2dd4:	00047428 	andeq	r7, r4, r8, lsr #8
    2dd8:	00195300 	andseq	r5, r9, r0, lsl #6
    2ddc:	38030500 	stmdacc	r3, {r8, sl}
    2de0:	39000098 	stmdbcc	r0, {r3, r4, r7}
    2de4:	02010063 	andeq	r0, r1, #99	; 0x63
    2de8:	0009c301 	andeq	ip, r9, r1, lsl #6
    2dec:	00069a00 	andeq	r9, r6, r0, lsl #20
    2df0:	17052900 	strne	r2, [r5, -r0, lsl #18]
    2df4:	5f2a0000 	svcpl	0x002a0000
    2df8:	01040075 	tsteq	r4, r5, ror r0
    2dfc:	16fa0106 	ldrbtne	r0, [sl], r6, lsl #2
    2e00:	762b0000 	strtvc	r0, [fp], -r0
    2e04:	06010076 			; <UNDEFINED> instruction: 0x06010076
    2e08:	0009c301 	andeq	ip, r9, r1, lsl #6
    2e0c:	75752b00 	ldrbvc	r2, [r5, #-2816]!	; 0xfffff500
    2e10:	01060100 	mrseq	r0, (UNDEF: 22)
    2e14:	0000006d 	andeq	r0, r0, sp, rrx
    2e18:	00752c00 	rsbseq	r2, r5, r0, lsl #24
    2e1c:	d7010601 	strle	r0, [r1, -r1, lsl #12]
    2e20:	00000016 	andeq	r0, r0, r6, lsl r0
    2e24:	00873032 	addeq	r3, r7, r2, lsr r0
    2e28:	001b1400 	andseq	r1, fp, r0, lsl #8
    2e2c:	87643200 	strbhi	r3, [r4, -r0, lsl #4]!
    2e30:	1b350000 	blne	d42e38 <__bss_end__+0xd38ea8>
    2e34:	78330000 	ldmdavc	r3!, {}	; <UNPREDICTABLE>
    2e38:	40000087 	andmi	r0, r0, r7, lsl #1
    2e3c:	4600001b 			; <UNDEFINED> instruction: 0x4600001b
    2e40:	34000017 	strcc	r0, [r0], #-23	; 0xffffffe9
    2e44:	03055001 	movweq	r5, #20481	; 0x5001
    2e48:	00009984 	andeq	r9, r0, r4, lsl #19
    2e4c:	05510134 	ldrbeq	r0, [r1, #-308]	; 0xfffffecc
    2e50:	00986803 	addseq	r6, r8, r3, lsl #16
    2e54:	52013400 	andpl	r3, r1, #0, 8
    2e58:	98380305 	ldmdals	r8!, {r0, r2, r8, r9}
    2e5c:	01340000 	teqeq	r4, r0
    2e60:	f3080253 	vqsub.u8	q0, q4, <illegal reg q1.5>
    2e64:	877c3200 	ldrbhi	r3, [ip, -r0, lsl #4]!
    2e68:	1b4b0000 	blne	12c2e70 <__bss_end__+0x12b8ee0>
    2e6c:	80320000 	eorshi	r0, r2, r0
    2e70:	35000087 	strcc	r0, [r0, #-135]	; 0xffffff79
    2e74:	3300001b 	movwcc	r0, #27
    2e78:	00008794 	muleq	r0, r4, r7
    2e7c:	00001b40 	andeq	r1, r0, r0, asr #22
    2e80:	00001787 	andeq	r1, r0, r7, lsl #15
    2e84:	05500134 	ldrbeq	r0, [r0, #-308]	; 0xfffffecc
    2e88:	00996003 	addseq	r6, r9, r3
    2e8c:	51013400 	tstpl	r1, r0, lsl #8
    2e90:	98680305 	stmdals	r8!, {r0, r2, r8, r9}^
    2e94:	01340000 	teqeq	r4, r0
    2e98:	38030552 	stmdacc	r3, {r1, r4, r6, r8, sl}
    2e9c:	34000098 	strcc	r0, [r0], #-152	; 0xffffff68
    2ea0:	08025301 	stmdaeq	r2, {r0, r8, r9, ip, lr}
    2ea4:	983200f3 	ldmdals	r2!, {r0, r1, r4, r5, r6, r7}
    2ea8:	4b000087 	blmi	30cc <_start-0x4f34>
    2eac:	3200001b 	andcc	r0, r0, #27
    2eb0:	000087ac 	andeq	r8, r0, ip, lsr #15
    2eb4:	00001958 	andeq	r1, r0, r8, asr r9
    2eb8:	0087c033 	addeq	ip, r7, r3, lsr r0
    2ebc:	001b2a00 	andseq	r2, fp, r0, lsl #20
    2ec0:	0017b600 	andseq	fp, r7, r0, lsl #12
    2ec4:	50013400 	andpl	r3, r1, r0, lsl #8
    2ec8:	400c0c05 	andmi	r0, ip, r5, lsl #24
    2ecc:	01342080 	teqeq	r4, r0, lsl #1
    2ed0:	00760251 	rsbseq	r0, r6, r1, asr r2
    2ed4:	87d43300 	ldrbhi	r3, [r4, r0, lsl #6]
    2ed8:	1b2a0000 	blne	a82ee0 <__bss_end__+0xa78f50>
    2edc:	17d30000 	ldrbne	r0, [r3, r0]
    2ee0:	01340000 	teqeq	r4, r0
    2ee4:	080c0550 	stmdaeq	ip, {r4, r6, r8, sl}
    2ee8:	34208040 	strtcc	r8, [r0], #-64	; 0xffffffc0
    2eec:	75025101 	strvc	r5, [r2, #-257]	; 0xfffffeff
    2ef0:	e0330000 	eors	r0, r3, r0
    2ef4:	71000087 	smlabbvc	r0, r7, r0, r0
    2ef8:	e700001a 	smlad	r0, sl, r0, r0
    2efc:	34000017 	strcc	r0, [r0], #-23	; 0xffffffe9
    2f00:	75025001 	strvc	r5, [r2, #-1]
    2f04:	f8330000 			; <UNDEFINED> instruction: 0xf8330000
    2f08:	2a000087 	bcs	312c <_start-0x4ed4>
    2f0c:	fb00001b 	blx	2f82 <_start-0x507e>
    2f10:	34000017 	strcc	r0, [r0], #-23	; 0xffffffe9
    2f14:	75025001 	strvc	r5, [r2, #-1]
    2f18:	2c320000 	ldccs	0, cr0, [r2], #-0
    2f1c:	35000088 	strcc	r0, [r0, #-136]	; 0xffffff78
    2f20:	3300001b 	movwcc	r0, #27
    2f24:	00008840 	andeq	r8, r0, r0, asr #16
    2f28:	00001b40 	andeq	r1, r0, r0, asr #22
    2f2c:	00001834 	andeq	r1, r0, r4, lsr r8
    2f30:	05500134 	ldrbeq	r0, [r0, #-308]	; 0xfffffecc
    2f34:	00998403 	addseq	r8, r9, r3, lsl #8
    2f38:	51013400 	tstpl	r1, r0, lsl #8
    2f3c:	98680305 	stmdals	r8!, {r0, r2, r8, r9}^
    2f40:	01340000 	teqeq	r4, r0
    2f44:	38030552 	stmdacc	r3, {r1, r4, r6, r8, sl}
    2f48:	34000098 	strcc	r0, [r0], #-152	; 0xffffff68
    2f4c:	0a035301 	beq	d7b58 <__bss_end__+0xcdbc8>
    2f50:	3200010e 	andcc	r0, r0, #-2147483645	; 0x80000003
    2f54:	00008844 	andeq	r8, r0, r4, asr #16
    2f58:	00001b4b 	andeq	r1, r0, fp, asr #22
    2f5c:	00884832 	addeq	r4, r8, r2, lsr r8
    2f60:	001b3500 	andseq	r3, fp, r0, lsl #10
    2f64:	885c3300 	ldmdahi	ip, {r8, r9, ip, sp}^
    2f68:	1b400000 	blne	1002f70 <__bss_end__+0xff8fe0>
    2f6c:	18750000 	ldmdane	r5!, {}^	; <UNPREDICTABLE>
    2f70:	01340000 	teqeq	r4, r0
    2f74:	fc030550 	stc2	5, cr0, [r3], {80}	; 0x50
    2f78:	34000099 	strcc	r0, [r0], #-153	; 0xffffff67
    2f7c:	03055101 	movweq	r5, #20737	; 0x5101
    2f80:	00009868 	andeq	r9, r0, r8, ror #16
    2f84:	05520134 	ldrbeq	r0, [r2, #-308]	; 0xfffffecc
    2f88:	00983803 	addseq	r3, r8, r3, lsl #16
    2f8c:	53013400 	movwpl	r3, #5120	; 0x1400
    2f90:	00f60802 	rscseq	r0, r6, r2, lsl #16
    2f94:	00886032 	addeq	r6, r8, r2, lsr r0
    2f98:	001b4b00 	andseq	r4, fp, r0, lsl #22
    2f9c:	88643200 	stmdahi	r4!, {r9, ip, sp}^
    2fa0:	1b350000 	blne	d42fa8 <__bss_end__+0xd39018>
    2fa4:	78330000 	ldmdavc	r3!, {}	; <UNPREDICTABLE>
    2fa8:	40000088 	andmi	r0, r0, r8, lsl #1
    2fac:	b600001b 			; <UNDEFINED> instruction: 0xb600001b
    2fb0:	34000018 	strcc	r0, [r0], #-24	; 0xffffffe8
    2fb4:	03055001 	movweq	r5, #20481	; 0x5001
    2fb8:	00009a24 	andeq	r9, r0, r4, lsr #20
    2fbc:	05510134 	ldrbeq	r0, [r1, #-308]	; 0xfffffecc
    2fc0:	00986803 	addseq	r6, r8, r3, lsl #16
    2fc4:	52013400 	andpl	r3, r1, #0, 8
    2fc8:	98380305 	ldmdals	r8!, {r0, r2, r8, r9}
    2fcc:	01340000 	teqeq	r4, r0
    2fd0:	fb080253 	blx	203926 <__bss_end__+0x1f9996>
    2fd4:	887c3200 	ldmdahi	ip!, {r9, ip, sp}^
    2fd8:	1b4b0000 	blne	12c2fe0 <__bss_end__+0x12b9050>
    2fdc:	80320000 	eorshi	r0, r2, r0
    2fe0:	35000088 	strcc	r0, [r0, #-136]	; 0xffffff78
    2fe4:	3300001b 	movwcc	r0, #27
    2fe8:	00008894 	muleq	r0, r4, r8
    2fec:	00001b40 	andeq	r1, r0, r0, asr #22
    2ff0:	000018f7 	strdeq	r1, [r0], -r7
    2ff4:	05500134 	ldrbeq	r0, [r0, #-308]	; 0xfffffecc
    2ff8:	009a4803 	addseq	r4, sl, r3, lsl #16
    2ffc:	51013400 	tstpl	r1, r0, lsl #8
    3000:	98680305 	stmdals	r8!, {r0, r2, r8, r9}^
    3004:	01340000 	teqeq	r4, r0
    3008:	38030552 	stmdacc	r3, {r1, r4, r6, r8, sl}
    300c:	34000098 	strcc	r0, [r0], #-152	; 0xffffff68
    3010:	08025301 	stmdaeq	r2, {r0, r8, r9, ip, lr}
    3014:	983200ff 	ldmdals	r2!, {r0, r1, r2, r3, r4, r5, r6, r7}
    3018:	4b000088 	blmi	3240 <_start-0x4dc0>
    301c:	3200001b 	andcc	r0, r0, #27
    3020:	0000889c 	muleq	r0, ip, r8
    3024:	00001b35 	andeq	r1, r0, r5, lsr fp
    3028:	0088b033 	addeq	fp, r8, r3, lsr r0
    302c:	001b4000 	andseq	r4, fp, r0
    3030:	00193900 	andseq	r3, r9, r0, lsl #18
    3034:	50013400 	andpl	r3, r1, r0, lsl #8
    3038:	99600305 	stmdbls	r0!, {r0, r2, r8, r9}^
    303c:	01340000 	teqeq	r4, r0
    3040:	68030551 	stmdavs	r3, {r0, r4, r6, r8, sl}
    3044:	34000098 	strcc	r0, [r0], #-152	; 0xffffff68
    3048:	03055201 	movweq	r5, #20993	; 0x5201
    304c:	00009838 	andeq	r9, r0, r8, lsr r8
    3050:	03530134 	cmpeq	r3, #52, 2
    3054:	00010e0a 	andeq	r0, r1, sl, lsl #28
    3058:	0088b432 	addeq	fp, r8, r2, lsr r4
    305c:	001b4b00 	andseq	r4, fp, r0, lsl #22
    3060:	2f090000 	svccs	0x00090000
    3064:	53000001 	movwpl	r0, #1
    3068:	0a000019 	beq	30d4 <_start-0x4f2c>
    306c:	000000e2 	andeq	r0, r0, r2, ror #1
    3070:	4304000a 	movwmi	r0, #16394	; 0x400a
    3074:	3a000019 	bcc	30e0 <_start-0x4f20>
    3078:	00000ab7 			; <UNDEFINED> instruction: 0x00000ab7
    307c:	86e4e401 	strbthi	lr, [r4], r1, lsl #8
    3080:	00280000 	eoreq	r0, r8, r0
    3084:	9c010000 	stcls	0, cr0, [r1], {-0}
    3088:	000019ce 	andeq	r1, r0, lr, asr #19
    308c:	0100733c 	tsteq	r0, ip, lsr r3
    3090:	000a80e5 	andeq	r8, sl, r5, ror #1
    3094:	0006ad00 	andeq	sl, r6, r0, lsl #26
    3098:	19a92900 	stmibne	r9!, {r8, fp, sp}
    309c:	5f3d0000 	svcpl	0x003d0000
    30a0:	01040075 	tsteq	r4, r5, ror r0
    30a4:	00199fec 	andseq	r9, r9, ip, ror #31
    30a8:	76763e00 	ldrbtvc	r3, [r6], -r0, lsl #28
    30ac:	80ec0100 	rschi	r0, ip, r0, lsl #2
    30b0:	3e00000a 	cdpcc	0, 0, cr0, cr0, cr10, {0}
    30b4:	01007575 	tsteq	r0, r5, ror r5
    30b8:	00006dec 	andeq	r6, r0, ip, ror #27
    30bc:	75250000 	strvc	r0, [r5, #-0]!
    30c0:	7fec0100 	svcvc	0x00ec0100
    30c4:	00000019 	andeq	r0, r0, r9, lsl r0
    30c8:	0086f433 	addeq	pc, r6, r3, lsr r4	; <UNPREDICTABLE>
    30cc:	0019ce00 	andseq	ip, r9, r0, lsl #28
    30d0:	0019bd00 	andseq	fp, r9, r0, lsl #26
    30d4:	50013400 	andpl	r3, r1, r0, lsl #8
    30d8:	00007402 	andeq	r7, r0, r2, lsl #8
    30dc:	0087043f 	addeq	r0, r7, pc, lsr r4
    30e0:	001b2a00 	andseq	r2, fp, r0, lsl #20
    30e4:	50013400 	andpl	r3, r1, r0, lsl #8
    30e8:	00007402 	andeq	r7, r0, r2, lsl #8
    30ec:	0a894000 	beq	fe2530f4 <__bss_end__+0xfe249164>
    30f0:	b5010000 	strlt	r0, [r1, #-0]
    30f4:	00000a80 	andeq	r0, r0, r0, lsl #21
    30f8:	000086d4 	ldrdeq	r8, [r0], -r4
    30fc:	00000010 	andeq	r0, r0, r0, lsl r0
    3100:	1a449c01 	bne	112a10c <__bss_end__+0x112017c>
    3104:	73410000 	movtvc	r0, #4096	; 0x1000
    3108:	44b50100 	ldrtmi	r0, [r5], #256	; 0x100
    310c:	c000001a 	andgt	r0, r0, sl, lsl r0
    3110:	38000006 	stmdacc	r0, {r1, r2}
    3114:	000086d8 	ldrdeq	r8, [r0], -r8	; <UNPREDICTABLE>
    3118:	00000004 	andeq	r0, r0, r4
    311c:	00001a3a 	andeq	r1, r0, sl, lsr sl
    3120:	00755f3d 	rsbseq	r5, r5, sp, lsr pc
    3124:	1fb60104 	svcne	0x00b60104
    3128:	3e00001a 	mcrcc	0, 0, r0, cr0, cr10, {0}
    312c:	b6010076 			; <UNDEFINED> instruction: 0xb6010076
    3130:	00000a8b 	andeq	r0, r0, fp, lsl #21
    3134:	0100753e 	tsteq	r0, lr, lsr r5
    3138:	00002cb6 			; <UNDEFINED> instruction: 0x00002cb6
    313c:	75250000 	strvc	r0, [r5, #-0]!
    3140:	01b60100 			; <UNDEFINED> instruction: 0x01b60100
    3144:	3f00001a 	svccc	0x0000001a
    3148:	000086dc 	ldrdeq	r8, [r0], -ip
    314c:	00001b56 	andeq	r1, r0, r6, asr fp
    3150:	03500134 	cmpeq	r0, #52, 2
    3154:	005001f3 	ldrsheq	r0, [r0], #-19	; 0xffffffed
    3158:	86e03200 	strbthi	r3, [r0], r0, lsl #4
    315c:	1a4a0000 	bne	1283164 <__bss_end__+0x12791d4>
    3160:	0e000000 	cdpeq	0, 0, cr0, cr0, cr0, {0}
    3164:	000a8b04 	andeq	r8, sl, r4, lsl #22
    3168:	0bdb4000 	bleq	ff6d3170 <__bss_end__+0xff6c91e0>
    316c:	b1010000 	mrslt	r0, (UNDEF: 1)
    3170:	00000a80 	andeq	r0, r0, r0, lsl #21
    3174:	000085d0 	ldrdeq	r8, [r0], -r0
    3178:	0000000c 	andeq	r0, r0, ip
    317c:	1a719c01 	bne	1c6a188 <__bss_end__+0x1c601f8>
    3180:	73410000 	movtvc	r0, #4096	; 0x1000
    3184:	80b10100 	adcshi	r0, r1, r0, lsl #2
    3188:	e100000a 	tst	r0, sl
    318c:	00000006 	andeq	r0, r0, r6
    3190:	000a8240 	andeq	r8, sl, r0, asr #4
    3194:	c37b0100 	cmngt	fp, #0, 2
    3198:	0c000009 	stceq	0, cr0, [r0], {9}
    319c:	10000087 	andne	r0, r0, r7, lsl #1
    31a0:	01000000 	mrseq	r0, (UNDEF: 0)
    31a4:	001ae79c 	mulseq	sl, ip, r7
    31a8:	00634100 	rsbeq	r4, r3, r0, lsl #2
    31ac:	1ae77b01 	bne	ff9e1db8 <__bss_end__+0xff9d7e28>
    31b0:	06f40000 	ldrbteq	r0, [r4], r0
    31b4:	10380000 	eorsne	r0, r8, r0
    31b8:	04000087 	streq	r0, [r0], #-135	; 0xffffff79
    31bc:	dd000000 	stcle	0, cr0, [r0, #-0]
    31c0:	3d00001a 	stccc	0, cr0, [r0, #-104]	; 0xffffff98
    31c4:	0400755f 	streq	r7, [r0], #-1375	; 0xfffffaa1
    31c8:	1ac27c01 	bne	ff0a21d4 <__bss_end__+0xff098244>
    31cc:	763e0000 	ldrtvc	r0, [lr], -r0
    31d0:	ce7c0100 	rpwgte	f0, f4, f0
    31d4:	3e000009 	cdpcc	0, 0, cr0, cr0, cr9, {0}
    31d8:	7c010075 	stcvc	0, cr0, [r1], {117}	; 0x75
    31dc:	0000002c 	andeq	r0, r0, ip, lsr #32
    31e0:	00752500 	rsbseq	r2, r5, r0, lsl #10
    31e4:	1aa47c01 	bne	fe9221f0 <__bss_end__+0xfe918260>
    31e8:	143f0000 	ldrtne	r0, [pc], #-0	; 31f0 <_start-0x4e10>
    31ec:	56000087 	strpl	r0, [r0], -r7, lsl #1
    31f0:	3400001b 	strcc	r0, [r0], #-27	; 0xffffffe5
    31f4:	f3035001 	vhadd.u8	d5, d3, d1
    31f8:	00005001 	andeq	r5, r0, r1
    31fc:	00871832 	addeq	r1, r7, r2, lsr r8
    3200:	001aed00 	andseq	lr, sl, r0, lsl #26
    3204:	040e0000 	streq	r0, [lr], #-0
    3208:	000009ce 	andeq	r0, r0, lr, asr #19
    320c:	000b9740 	andeq	r9, fp, r0, asr #14
    3210:	c3740100 	cmngt	r4, #0, 2
    3214:	bc000009 	stclt	0, cr0, [r0], {9}
    3218:	14000085 	strne	r0, [r0], #-133	; 0xffffff7b
    321c:	01000000 	mrseq	r0, (UNDEF: 0)
    3220:	001b149c 	mulseq	fp, ip, r4
    3224:	00634100 	rsbeq	r4, r3, r0, lsl #2
    3228:	09c37401 	stmibeq	r3, {r0, sl, ip, sp, lr}^
    322c:	07150000 	ldreq	r0, [r5, -r0]
    3230:	42000000 	andmi	r0, r0, #0
    3234:	00000452 	andeq	r0, r0, r2, asr r4
    3238:	00000452 	andeq	r0, r0, r2, asr r4
    323c:	46428907 	strbmi	r8, [r2], -r7, lsl #18
    3240:	4600000a 	strmi	r0, [r0], -sl
    3244:	0800000a 	stmdaeq	r0, {r1, r3}
    3248:	0b294219 	bleq	a53ab4 <__bss_end__+0xa49b24>
    324c:	0b290000 	bleq	a43254 <__bss_end__+0xa392c4>
    3250:	9c070000 	stcls	0, cr0, [r7], {-0}
    3254:	00038842 	andeq	r8, r3, r2, asr #16
    3258:	00038800 	andeq	r8, r3, r0, lsl #16
    325c:	421e0700 	andsmi	r0, lr, #0, 14
    3260:	00000bfb 	strdeq	r0, [r0], -fp
    3264:	00000bfb 	strdeq	r0, [r0], -fp
    3268:	7e422907 	vmlavc.f16	s5, s4, s14	; <UNPREDICTABLE>
    326c:	7e000006 	cdpvc	0, 0, cr0, cr0, cr6, {0}
    3270:	07000006 	streq	r0, [r0, -r6]
    3274:	0b824265 	bleq	fe093c10 <__bss_end__+0xfe089c80>
    3278:	0b820000 	bleq	fe083280 <__bss_end__+0xfe0792f0>
    327c:	a8070000 	stmdage	r7, {}	; <UNPREDICTABLE>
    3280:	00098e00 	andeq	r8, r9, r0, lsl #28
    3284:	f5000400 			; <UNDEFINED> instruction: 0xf5000400
    3288:	04000006 	streq	r0, [r0], #-6
    328c:	000c1101 	andeq	r1, ip, r1, lsl #2
    3290:	0c940c00 	ldceq	12, cr0, [r4], {0}
    3294:	0c780000 	ldcleq	0, cr0, [r8], #-0
    3298:	8b240000 	blhi	9032a0 <__bss_end__+0x8f9310>
    329c:	00580000 	subseq	r0, r8, r0
    32a0:	03fb0000 	mvnseq	r0, #0
    32a4:	02020000 	andeq	r0, r2, #0
    32a8:	0200000c 	andeq	r0, r0, #12
    32ac:	00003028 	andeq	r3, r0, r8, lsr #32
    32b0:	0bee0300 	bleq	ffb83eb8 <__bss_end__+0xffb79f28>
    32b4:	07040000 	streq	r0, [r4, -r0]
    32b8:	00004700 	andeq	r4, r0, r0, lsl #14
    32bc:	0c730400 	cfldrdeq	mvd0, [r3], #-0
    32c0:	00470000 	subeq	r0, r7, r0
    32c4:	00000000 	andeq	r0, r0, r0
    32c8:	f0020405 			; <UNDEFINED> instruction: 0xf0020405
    32cc:	0200000b 	andeq	r0, r0, #11
    32d0:	00002563 	andeq	r2, r0, r3, ror #10
    32d4:	05040600 	streq	r0, [r4, #-1536]	; 0xfffffa00
    32d8:	00746e69 	rsbseq	r6, r4, r9, ror #28
    32dc:	57070407 	strpl	r0, [r7, -r7, lsl #8]
    32e0:	07000001 	streq	r0, [r0, -r1]
    32e4:	06180601 	ldreq	r0, [r8], -r1, lsl #12
    32e8:	02070000 	andeq	r0, r7, #0
    32ec:	00066305 	andeq	r6, r6, r5, lsl #6
    32f0:	05040700 	streq	r0, [r4, #-1792]	; 0xfffff900
    32f4:	000001cb 	andeq	r0, r0, fp, asr #3
    32f8:	c6050807 	strgt	r0, [r5], -r7, lsl #16
    32fc:	07000001 	streq	r0, [r0, -r1]
    3300:	06160801 	ldreq	r0, [r6], -r1, lsl #16
    3304:	02070000 	andeq	r0, r7, #0
    3308:	00041d07 	andeq	r1, r4, r7, lsl #26
    330c:	07040700 	streq	r0, [r4, -r0, lsl #14]
    3310:	00000152 	andeq	r0, r0, r2, asr r1
    3314:	4d070807 	stcmi	8, cr0, [r7, #-28]	; 0xffffffe4
    3318:	02000001 	andeq	r0, r0, #1
    331c:	000005e1 	andeq	r0, r0, r1, ror #11
    3320:	00540703 	subseq	r0, r4, r3, lsl #14
    3324:	9d020000 	stcls	0, cr0, [r2, #-0]
    3328:	04000005 	streq	r0, [r0], #-5
    332c:	0000702c 	andeq	r7, r0, ip, lsr #32
    3330:	07610200 	strbeq	r0, [r1, -r0, lsl #4]!
    3334:	72040000 	andvc	r0, r4, #0
    3338:	00000070 	andeq	r0, r0, r0, ror r0
    333c:	00048108 	andeq	r8, r4, r8, lsl #2
    3340:	01650500 	cmneq	r5, r0, lsl #10
    3344:	0000005b 	andeq	r0, r0, fp, asr r0
    3348:	a6040409 	strge	r0, [r4], -r9, lsl #8
    334c:	000000e6 	andeq	r0, r0, r6, ror #1
    3350:	00046e0a 	andeq	r6, r4, sl, lsl #28
    3354:	bba80400 	bllt	fea0435c <__bss_end__+0xfe9fa3cc>
    3358:	0a000000 	beq	3360 <_start-0x4ca0>
    335c:	00000381 	andeq	r0, r0, r1, lsl #7
    3360:	00e6a904 	rsceq	sl, r6, r4, lsl #18
    3364:	0b000000 	bleq	336c <_start-0x4c94>
    3368:	0000007e 	andeq	r0, r0, lr, ror r0
    336c:	000000f6 	strdeq	r0, [r0], -r6
    3370:	0000f60c 	andeq	pc, r0, ip, lsl #12
    3374:	07000300 	streq	r0, [r0, -r0, lsl #6]
    3378:	050d0704 	streq	r0, [sp, #-1796]	; 0xfffff8fc
    337c:	080d0000 	stmdaeq	sp, {}	; <UNPREDICTABLE>
    3380:	011ea304 	tsteq	lr, r4, lsl #6
    3384:	3d0e0000 	stccc	0, cr0, [lr, #-0]
    3388:	04000007 	streq	r0, [r0], #-7
    338c:	000054a5 	andeq	r5, r0, r5, lsr #9
    3390:	e40e0000 	str	r0, [lr], #-0
    3394:	04000007 	streq	r0, [r0], #-7
    3398:	0000c7aa 	andeq	ip, r0, sl, lsr #15
    339c:	02000400 	andeq	r0, r0, #0, 8
    33a0:	00000698 	muleq	r0, r8, r6
    33a4:	00fdab04 	rscseq	sl, sp, r4, lsl #22
    33a8:	1f020000 	svcne	0x00020000
    33ac:	04000003 	streq	r0, [r0], #-3
    33b0:	00009aaf 	andeq	r9, r0, pc, lsr #21
    33b4:	3a040f00 	bcc	106fbc <__bss_end__+0xfd02c>
    33b8:	07000001 	streq	r0, [r0, -r1]
    33bc:	061f0801 	ldreq	r0, [pc], -r1, lsl #16
    33c0:	3a100000 	bcc	4033c8 <__bss_end__+0x3f9438>
    33c4:	02000001 	andeq	r0, r0, #1
    33c8:	0000081e 	andeq	r0, r0, lr, lsl r8
    33cc:	008c1606 	addeq	r1, ip, r6, lsl #12
    33d0:	30030000 	andcc	r0, r3, r0
    33d4:	18000003 	stmdane	r0, {r0, r1}
    33d8:	01a42d06 			; <UNDEFINED> instruction: 0x01a42d06
    33dc:	c90e0000 	stmdbgt	lr, {}	; <UNPREDICTABLE>
    33e0:	06000006 	streq	r0, [r0], -r6
    33e4:	0001a42f 	andeq	sl, r1, pc, lsr #8
    33e8:	5f110000 	svcpl	0x00110000
    33ec:	3006006b 	andcc	r0, r6, fp, rrx
    33f0:	00000054 	andeq	r0, r0, r4, asr r0
    33f4:	07160e04 	ldreq	r0, [r6, -r4, lsl #28]
    33f8:	30060000 	andcc	r0, r6, r0
    33fc:	00000054 	andeq	r0, r0, r4, asr r0
    3400:	03190e08 	tsteq	r9, #8, 28	; 0x80
    3404:	30060000 	andcc	r0, r6, r0
    3408:	00000054 	andeq	r0, r0, r4, asr r0
    340c:	08b20e0c 	ldmeq	r2!, {r2, r3, r9, sl, fp}
    3410:	30060000 	andcc	r0, r6, r0
    3414:	00000054 	andeq	r0, r0, r4, asr r0
    3418:	785f1110 	ldmdavc	pc, {r4, r8, ip}^	; <UNPREDICTABLE>
    341c:	aa310600 	bge	c44c24 <__bss_end__+0xc3ac94>
    3420:	14000001 	strne	r0, [r0], #-1
    3424:	51040f00 	tstpl	r4, r0, lsl #30
    3428:	0b000001 	bleq	3434 <_start-0x4bcc>
    342c:	00000146 	andeq	r0, r0, r6, asr #2
    3430:	000001ba 			; <UNDEFINED> instruction: 0x000001ba
    3434:	0000f60c 	andeq	pc, r0, ip, lsl #12
    3438:	03000000 	movweq	r0, #0
    343c:	00000373 	andeq	r0, r0, r3, ror r3
    3440:	33350624 	teqcc	r5, #36, 12	; 0x2400000
    3444:	0e000002 	cdpeq	0, 0, cr0, cr0, cr2, {0}
    3448:	000001bd 			; <UNDEFINED> instruction: 0x000001bd
    344c:	00543706 	subseq	r3, r4, r6, lsl #14
    3450:	0e000000 	cdpeq	0, 0, cr0, cr0, cr0, {0}
    3454:	00000789 	andeq	r0, r0, r9, lsl #15
    3458:	00543806 	subseq	r3, r4, r6, lsl #16
    345c:	0e040000 	cdpeq	0, 0, cr0, cr4, cr0, {0}
    3460:	00000207 	andeq	r0, r0, r7, lsl #4
    3464:	00543906 	subseq	r3, r4, r6, lsl #18
    3468:	0e080000 	cdpeq	0, 0, cr0, cr8, cr0, {0}
    346c:	000009bc 			; <UNDEFINED> instruction: 0x000009bc
    3470:	00543a06 	subseq	r3, r4, r6, lsl #20
    3474:	0e0c0000 	cdpeq	0, 0, cr0, cr12, cr0, {0}
    3478:	00000562 	andeq	r0, r0, r2, ror #10
    347c:	00543b06 	subseq	r3, r4, r6, lsl #22
    3480:	0e100000 	cdpeq	0, 1, cr0, cr0, cr0, {0}
    3484:	000004d0 	ldrdeq	r0, [r0], -r0	; <UNPREDICTABLE>
    3488:	00543c06 	subseq	r3, r4, r6, lsl #24
    348c:	0e140000 	cdpeq	0, 1, cr0, cr4, cr0, {0}
    3490:	000008b7 			; <UNDEFINED> instruction: 0x000008b7
    3494:	00543d06 	subseq	r3, r4, r6, lsl #26
    3498:	0e180000 	cdpeq	0, 1, cr0, cr8, cr0, {0}
    349c:	0000066d 	andeq	r0, r0, sp, ror #12
    34a0:	00543e06 	subseq	r3, r4, r6, lsl #28
    34a4:	0e1c0000 	cdpeq	0, 1, cr0, cr12, cr0, {0}
    34a8:	00000936 	andeq	r0, r0, r6, lsr r9
    34ac:	00543f06 	subseq	r3, r4, r6, lsl #30
    34b0:	00200000 	eoreq	r0, r0, r0
    34b4:	00021612 	andeq	r1, r2, r2, lsl r6
    34b8:	06010800 	streq	r0, [r1], -r0, lsl #16
    34bc:	00027348 	andeq	r7, r2, r8, asr #6
    34c0:	02eb0e00 	rsceq	r0, fp, #0, 28
    34c4:	49060000 	stmdbmi	r6, {}	; <UNPREDICTABLE>
    34c8:	00000273 	andeq	r0, r0, r3, ror r2
    34cc:	00000e00 	andeq	r0, r0, r0, lsl #28
    34d0:	4a060000 	bmi	1834d8 <__bss_end__+0x179548>
    34d4:	00000273 	andeq	r0, r0, r3, ror r2
    34d8:	07ab1380 	streq	r1, [fp, r0, lsl #7]!
    34dc:	4c060000 	stcmi	0, cr0, [r6], {-0}
    34e0:	00000146 	andeq	r0, r0, r6, asr #2
    34e4:	60130100 	andsvs	r0, r3, r0, lsl #2
    34e8:	06000002 	streq	r0, [r0], -r2
    34ec:	0001464f 	andeq	r4, r1, pc, asr #12
    34f0:	00010400 	andeq	r0, r1, r0, lsl #8
    34f4:	0000470b 	andeq	r4, r0, fp, lsl #14
    34f8:	00028300 	andeq	r8, r2, r0, lsl #6
    34fc:	00f60c00 	rscseq	r0, r6, r0, lsl #24
    3500:	001f0000 	andseq	r0, pc, r0
    3504:	00057c12 	andeq	r7, r5, r2, lsl ip
    3508:	06019000 	streq	r9, [r1], -r0
    350c:	0002c15b 	andeq	ip, r2, fp, asr r1
    3510:	06c90e00 	strbeq	r0, [r9], r0, lsl #28
    3514:	5c060000 	stcpl	0, cr0, [r6], {-0}
    3518:	000002c1 	andeq	r0, r0, r1, asr #5
    351c:	06f70e00 	ldrbteq	r0, [r7], r0, lsl #28
    3520:	5d060000 	stcpl	0, cr0, [r6, #-0]
    3524:	00000054 	andeq	r0, r0, r4, asr r0
    3528:	03140e04 	tsteq	r4, #4, 28	; 0x40
    352c:	5f060000 	svcpl	0x00060000
    3530:	000002c7 	andeq	r0, r0, r7, asr #5
    3534:	02160e08 	andseq	r0, r6, #8, 28	; 0x80
    3538:	60060000 	andvs	r0, r6, r0
    353c:	00000233 	andeq	r0, r0, r3, lsr r2
    3540:	040f0088 	streq	r0, [pc], #-136	; 3548 <_start-0x4ab8>
    3544:	00000283 	andeq	r0, r0, r3, lsl #5
    3548:	0002d70b 	andeq	sp, r2, fp, lsl #14
    354c:	0002d700 	andeq	sp, r2, r0, lsl #14
    3550:	00f60c00 	rscseq	r0, r6, r0, lsl #24
    3554:	001f0000 	andseq	r0, pc, r0
    3558:	02dd040f 	sbcseq	r0, sp, #251658240	; 0xf000000
    355c:	03140000 	tsteq	r4, #0
    3560:	00000677 	andeq	r0, r0, r7, ror r6
    3564:	03730608 	cmneq	r3, #8, 12	; 0x800000
    3568:	0e000003 	cdpeq	0, 0, cr0, cr0, cr3, {0}
    356c:	00000201 	andeq	r0, r0, r1, lsl #4
    3570:	03037406 	movweq	r7, #13318	; 0x3406
    3574:	0e000000 	cdpeq	0, 0, cr0, cr0, cr0, {0}
    3578:	000000a6 	andeq	r0, r0, r6, lsr #1
    357c:	00547506 	subseq	r7, r4, r6, lsl #10
    3580:	00040000 	andeq	r0, r4, r0
    3584:	007e040f 	rsbseq	r0, lr, pc, lsl #8
    3588:	a3030000 	movwge	r0, #12288	; 0x3000
    358c:	68000006 	stmdavs	r0, {r1, r2}
    3590:	0433b306 	ldrteq	fp, [r3], #-774	; 0xfffffcfa
    3594:	5f110000 	svcpl	0x00110000
    3598:	b4060070 	strlt	r0, [r6], #-112	; 0xffffff90
    359c:	00000303 	andeq	r0, r0, r3, lsl #6
    35a0:	725f1100 	subsvc	r1, pc, #0, 2
    35a4:	54b50600 	ldrtpl	r0, [r5], #1536	; 0x600
    35a8:	04000000 	streq	r0, [r0], #-0
    35ac:	00775f11 	rsbseq	r5, r7, r1, lsl pc
    35b0:	0054b606 	subseq	fp, r4, r6, lsl #12
    35b4:	0e080000 	cdpeq	0, 0, cr0, cr8, cr0, {0}
    35b8:	00000259 	andeq	r0, r0, r9, asr r2
    35bc:	0069b706 	rsbeq	fp, r9, r6, lsl #14
    35c0:	0e0c0000 	cdpeq	0, 0, cr0, cr12, cr0, {0}
    35c4:	000003b2 			; <UNDEFINED> instruction: 0x000003b2
    35c8:	0069b806 	rsbeq	fp, r9, r6, lsl #16
    35cc:	110e0000 	mrsne	r0, (UNDEF: 14)
    35d0:	0066625f 	rsbeq	r6, r6, pc, asr r2
    35d4:	02deb906 	sbcseq	fp, lr, #98304	; 0x18000
    35d8:	0e100000 	cdpeq	0, 1, cr0, cr0, cr0, {0}
    35dc:	0000016d 	andeq	r0, r0, sp, ror #2
    35e0:	0054ba06 	subseq	fp, r4, r6, lsl #20
    35e4:	0e180000 	cdpeq	0, 1, cr0, cr8, cr0, {0}
    35e8:	00000224 	andeq	r0, r0, r4, lsr #4
    35ec:	0047c106 	subeq	ip, r7, r6, lsl #2
    35f0:	0e1c0000 	cdpeq	0, 1, cr0, cr12, cr0, {0}
    35f4:	0000089a 	muleq	r0, sl, r8
    35f8:	058ec306 	streq	ip, [lr, #774]	; 0x306
    35fc:	0e200000 	cdpeq	0, 2, cr0, cr0, cr0, {0}
    3600:	00000179 	andeq	r0, r0, r9, ror r1
    3604:	05b8c506 	ldreq	ip, [r8, #1286]!	; 0x506
    3608:	0e240000 	cdpeq	0, 2, cr0, cr4, cr0, {0}
    360c:	0000074e 	andeq	r0, r0, lr, asr #14
    3610:	05dcc806 	ldrbeq	ip, [ip, #2054]	; 0x806
    3614:	0e280000 	cdpeq	0, 2, cr0, cr8, cr0, {0}
    3618:	00000950 	andeq	r0, r0, r0, asr r9
    361c:	05f6c906 	ldrbeq	ip, [r6, #2310]!	; 0x906
    3620:	112c0000 			; <UNDEFINED> instruction: 0x112c0000
    3624:	0062755f 	rsbeq	r7, r2, pc, asr r5
    3628:	02decc06 	sbcseq	ip, lr, #1536	; 0x600
    362c:	11300000 	teqne	r0, r0
    3630:	0070755f 	rsbseq	r7, r0, pc, asr r5
    3634:	0303cd06 	movweq	ip, #15622	; 0x3d06
    3638:	11380000 	teqne	r8, r0
    363c:	0072755f 	rsbseq	r7, r2, pc, asr r5
    3640:	0054ce06 	subseq	ip, r4, r6, lsl #28
    3644:	0e3c0000 	cdpeq	0, 3, cr0, cr12, cr0, {0}
    3648:	000001f3 	strdeq	r0, [r0], -r3
    364c:	05fcd106 	ldrbeq	sp, [ip, #262]!	; 0x106
    3650:	0e400000 	cdpeq	0, 4, cr0, cr0, cr0, {0}
    3654:	00000911 	andeq	r0, r0, r1, lsl r9
    3658:	060cd206 	streq	sp, [ip], -r6, lsl #4
    365c:	11430000 	mrsne	r0, (UNDEF: 67)
    3660:	00626c5f 	rsbeq	r6, r2, pc, asr ip
    3664:	02ded506 	sbcseq	sp, lr, #25165824	; 0x1800000
    3668:	0e440000 	cdpeq	0, 4, cr0, cr4, cr0, {0}
    366c:	00000276 	andeq	r0, r0, r6, ror r2
    3670:	0054d806 	subseq	sp, r4, r6, lsl #16
    3674:	0e4c0000 	cdpeq	0, 4, cr0, cr12, cr0, {0}
    3678:	000002ac 	andeq	r0, r0, ip, lsr #5
    367c:	00a5d906 	adceq	sp, r5, r6, lsl #18
    3680:	0e500000 	cdpeq	0, 5, cr0, cr0, cr0, {0}
    3684:	00000644 	andeq	r0, r0, r4, asr #12
    3688:	0451dc06 	ldrbeq	sp, [r1], #-3078	; 0xfffff3fa
    368c:	0e540000 	cdpeq	0, 5, cr0, cr4, cr0, {0}
    3690:	0000106a 	andeq	r1, r0, sl, rrx
    3694:	0129e006 			; <UNDEFINED> instruction: 0x0129e006
    3698:	0e580000 	cdpeq	0, 5, cr0, cr8, cr0, {0}
    369c:	000006bb 			; <UNDEFINED> instruction: 0x000006bb
    36a0:	011ee206 	tsteq	lr, r6, lsl #4
    36a4:	0e5c0000 	cdpeq	0, 5, cr0, cr12, cr0, {0}
    36a8:	0000049e 	muleq	r0, lr, r4
    36ac:	0054e306 	subseq	lr, r4, r6, lsl #6
    36b0:	00640000 	rsbeq	r0, r4, r0
    36b4:	00005415 	andeq	r5, r0, r5, lsl r4
    36b8:	00045100 	andeq	r5, r4, r0, lsl #2
    36bc:	04511600 	ldrbeq	r1, [r1], #-1536	; 0xfffffa00
    36c0:	47160000 	ldrmi	r0, [r6, -r0]
    36c4:	16000000 	strne	r0, [r0], -r0
    36c8:	00000134 	andeq	r0, r0, r4, lsr r1
    36cc:	00005416 	andeq	r5, r0, r6, lsl r4
    36d0:	040f0000 	streq	r0, [pc], #-0	; 36d8 <_start-0x4928>
    36d4:	0000045c 	andeq	r0, r0, ip, asr r4
    36d8:	00045110 	andeq	r5, r4, r0, lsl r1
    36dc:	071e1700 	ldreq	r1, [lr, -r0, lsl #14]
    36e0:	04280000 	strteq	r0, [r8], #-0
    36e4:	8e023806 	cdphi	8, 0, cr3, cr2, cr6, {0}
    36e8:	18000005 	stmdane	r0, {r0, r2}
    36ec:	0000065c 	andeq	r0, r0, ip, asr r6
    36f0:	54023a06 	strpl	r3, [r2], #-2566	; 0xfffff5fa
    36f4:	00000000 	andeq	r0, r0, r0
    36f8:	00026818 	andeq	r6, r2, r8, lsl r8
    36fc:	023f0600 	eorseq	r0, pc, #0, 12
    3700:	00000663 	andeq	r0, r0, r3, ror #12
    3704:	03971804 	orrseq	r1, r7, #4, 16	; 0x40000
    3708:	3f060000 	svccc	0x00060000
    370c:	00066302 	andeq	r6, r6, r2, lsl #6
    3710:	28180800 	ldmdacs	r8, {fp}
    3714:	06000003 	streq	r0, [r0], -r3
    3718:	0663023f 			; <UNDEFINED> instruction: 0x0663023f
    371c:	180c0000 	stmdane	ip, {}	; <UNPREDICTABLE>
    3720:	000006f2 	strdeq	r0, [r0], -r2
    3724:	54024106 	strpl	r4, [r2], #-262	; 0xfffffefa
    3728:	10000000 	andne	r0, r0, r0
    372c:	0000ed18 	andeq	lr, r0, r8, lsl sp
    3730:	02420600 	subeq	r0, r2, #0, 12
    3734:	00000845 	andeq	r0, r0, r5, asr #16
    3738:	085c1814 	ldmdaeq	ip, {r2, r4, fp, ip}^
    373c:	44060000 	strmi	r0, [r6], #-0
    3740:	00005402 	andeq	r5, r0, r2, lsl #8
    3744:	fc183000 	ldc2	0, cr3, [r8], {-0}
    3748:	06000006 	streq	r0, [r0], -r6
    374c:	05b20245 	ldreq	r0, [r2, #581]!	; 0x245
    3750:	18340000 	ldmdane	r4!, {}	; <UNPREDICTABLE>
    3754:	00000592 	muleq	r0, r2, r5
    3758:	54024706 	strpl	r4, [r2], #-1798	; 0xfffff8fa
    375c:	38000000 	stmdacc	r0, {}	; <UNPREDICTABLE>
    3760:	00070c18 	andeq	r0, r7, r8, lsl ip
    3764:	02490600 	subeq	r0, r9, #0, 12
    3768:	00000860 	andeq	r0, r0, r0, ror #16
    376c:	0466183c 	strbteq	r1, [r6], #-2108	; 0xfffff7c4
    3770:	4c060000 	stcmi	0, cr0, [r6], {-0}
    3774:	0001a402 	andeq	sl, r1, r2, lsl #8
    3778:	5d184000 	ldcpl	0, cr4, [r8, #-0]
    377c:	06000003 	streq	r0, [r0], -r3
    3780:	0054024d 	subseq	r0, r4, sp, asr #4
    3784:	18440000 	stmdane	r4, {}^	; <UNPREDICTABLE>
    3788:	00000973 	andeq	r0, r0, r3, ror r9
    378c:	a4024e06 	strge	r4, [r2], #-3590	; 0xfffff1fa
    3790:	48000001 	stmdami	r0, {r0}
    3794:	0005c718 	andeq	ip, r5, r8, lsl r7
    3798:	024f0600 	subeq	r0, pc, #0, 12
    379c:	00000866 	andeq	r0, r0, r6, ror #16
    37a0:	039f184c 	orrseq	r1, pc, #76, 16	; 0x4c0000
    37a4:	52060000 	andpl	r0, r6, #0
    37a8:	00005402 	andeq	r5, r0, r2, lsl #8
    37ac:	a4185000 	ldrge	r5, [r8], #-0
    37b0:	06000002 	streq	r0, [r0], -r2
    37b4:	01340253 	teqeq	r4, r3, asr r2
    37b8:	18540000 	ldmdane	r4, {}^	; <UNPREDICTABLE>
    37bc:	0000112c 	andeq	r1, r0, ip, lsr #2
    37c0:	23027606 	movwcs	r7, #9734	; 0x2606
    37c4:	58000008 	stmdapl	r0, {r3}
    37c8:	00057c19 	andeq	r7, r5, r9, lsl ip
    37cc:	027a0600 	rsbseq	r0, sl, #0, 12
    37d0:	000002c1 	andeq	r0, r0, r1, asr #5
    37d4:	30190148 	andscc	r0, r9, r8, asr #2
    37d8:	06000004 	streq	r0, [r0], -r4
    37dc:	0283027b 	addeq	r0, r3, #-1342177273	; 0xb0000007
    37e0:	014c0000 	mrseq	r0, (UNDEF: 76)
    37e4:	0008e219 	andeq	lr, r8, r9, lsl r2
    37e8:	027f0600 	rsbseq	r0, pc, #0, 12
    37ec:	00000877 	andeq	r0, r0, r7, ror r8
    37f0:	2c1902dc 	lfmcs	f0, 4, [r9], {220}	; 0xdc
    37f4:	06000002 	streq	r0, [r0], -r2
    37f8:	06280284 	strteq	r0, [r8], -r4, lsl #5
    37fc:	02e00000 	rsceq	r0, r0, #0
    3800:	00021119 	andeq	r1, r2, r9, lsl r1
    3804:	02850600 	addeq	r0, r5, #0, 12
    3808:	00000883 	andeq	r0, r0, r3, lsl #17
    380c:	0f0002ec 	svceq	0x000002ec
    3810:	00043304 	andeq	r3, r4, r4, lsl #6
    3814:	00541500 	subseq	r1, r4, r0, lsl #10
    3818:	05b20000 	ldreq	r0, [r2, #0]!
    381c:	51160000 	tstpl	r6, r0
    3820:	16000004 	strne	r0, [r0], -r4
    3824:	00000047 	andeq	r0, r0, r7, asr #32
    3828:	0005b216 	andeq	fp, r5, r6, lsl r2
    382c:	00541600 	subseq	r1, r4, r0, lsl #12
    3830:	0f000000 	svceq	0x00000000
    3834:	00014104 	andeq	r4, r1, r4, lsl #2
    3838:	94040f00 	strls	r0, [r4], #-3840	; 0xfffff100
    383c:	15000005 	strne	r0, [r0, #-5]
    3840:	000000b0 	strheq	r0, [r0], -r0	; <UNPREDICTABLE>
    3844:	000005dc 	ldrdeq	r0, [r0], -ip
    3848:	00045116 	andeq	r5, r4, r6, lsl r1
    384c:	00471600 	subeq	r1, r7, r0, lsl #12
    3850:	b0160000 	andslt	r0, r6, r0
    3854:	16000000 	strne	r0, [r0], -r0
    3858:	00000054 	andeq	r0, r0, r4, asr r0
    385c:	be040f00 	cdplt	15, 0, cr0, cr4, cr0, {0}
    3860:	15000005 	strne	r0, [r0, #-5]
    3864:	00000054 	andeq	r0, r0, r4, asr r0
    3868:	000005f6 	strdeq	r0, [r0], -r6
    386c:	00045116 	andeq	r5, r4, r6, lsl r1
    3870:	00471600 	subeq	r1, r7, r0, lsl #12
    3874:	0f000000 	svceq	0x00000000
    3878:	0005e204 	andeq	lr, r5, r4, lsl #4
    387c:	007e0b00 	rsbseq	r0, lr, r0, lsl #22
    3880:	060c0000 	streq	r0, [ip], -r0
    3884:	f60c0000 			; <UNDEFINED> instruction: 0xf60c0000
    3888:	02000000 	andeq	r0, r0, #0
    388c:	007e0b00 	rsbseq	r0, lr, r0, lsl #22
    3890:	061c0000 	ldreq	r0, [ip], -r0
    3894:	f60c0000 			; <UNDEFINED> instruction: 0xf60c0000
    3898:	00000000 	andeq	r0, r0, r0
    389c:	06910800 	ldreq	r0, [r1], r0, lsl #16
    38a0:	1d060000 	stcne	0, cr0, [r6, #-0]
    38a4:	00030901 	andeq	r0, r3, r1, lsl #18
    38a8:	08c11a00 	stmiaeq	r1, {r9, fp, ip}^
    38ac:	060c0000 	streq	r0, [ip], -r0
    38b0:	065d0121 	ldrbeq	r0, [sp], -r1, lsr #2
    38b4:	c9180000 	ldmdbgt	r8, {}	; <UNPREDICTABLE>
    38b8:	06000006 	streq	r0, [r0], -r6
    38bc:	065d0123 	ldrbeq	r0, [sp], -r3, lsr #2
    38c0:	18000000 	stmdane	r0, {}	; <UNPREDICTABLE>
    38c4:	00000400 	andeq	r0, r0, r0, lsl #8
    38c8:	54012406 	strpl	r2, [r1], #-1030	; 0xfffffbfa
    38cc:	04000000 	streq	r0, [r0], #-0
    38d0:	00068b18 	andeq	r8, r6, r8, lsl fp
    38d4:	01250600 			; <UNDEFINED> instruction: 0x01250600
    38d8:	00000663 	andeq	r0, r0, r3, ror #12
    38dc:	040f0008 	streq	r0, [pc], #-8	; 38e4 <_start-0x471c>
    38e0:	00000628 	andeq	r0, r0, r8, lsr #12
    38e4:	061c040f 	ldreq	r0, [ip], -pc, lsl #8
    38e8:	d11a0000 	tstle	sl, r0
    38ec:	0e000000 	cdpeq	0, 0, cr0, cr0, cr0, {0}
    38f0:	9e013d06 	cdpls	13, 0, cr3, cr1, cr6, {0}
    38f4:	18000006 	stmdane	r0, {r1, r2}
    38f8:	0000072e 	andeq	r0, r0, lr, lsr #14
    38fc:	9e013e06 	cdpls	14, 0, cr3, cr1, cr6, {0}
    3900:	00000006 	andeq	r0, r0, r6
    3904:	0007d118 	andeq	sp, r7, r8, lsl r1
    3908:	013f0600 	teqeq	pc, r0, lsl #12
    390c:	0000069e 	muleq	r0, lr, r6
    3910:	08101806 	ldmdaeq	r0, {r1, r2, fp, ip}
    3914:	40060000 	andmi	r0, r6, r0
    3918:	00008501 	andeq	r8, r0, r1, lsl #10
    391c:	0b000c00 	bleq	6924 <_start-0x16dc>
    3920:	00000085 	andeq	r0, r0, r5, lsl #1
    3924:	000006ae 	andeq	r0, r0, lr, lsr #13
    3928:	0000f60c 	andeq	pc, r0, ip, lsl #12
    392c:	1b000200 	blne	4134 <_start-0x3ecc>
    3930:	025706d0 	subseq	r0, r7, #208, 12	; 0xd000000
    3934:	000007af 	andeq	r0, r0, pc, lsr #15
    3938:	00088a18 	andeq	r8, r8, r8, lsl sl
    393c:	02590600 	subseq	r0, r9, #0, 12
    3940:	0000005b 	andeq	r0, r0, fp, asr r0
    3944:	07d71800 	ldrbeq	r1, [r7, r0, lsl #16]
    3948:	5a060000 	bpl	183950 <__bss_end__+0x1799c0>
    394c:	00013402 	andeq	r3, r1, r2, lsl #8
    3950:	45180400 	ldrmi	r0, [r8, #-1024]	; 0xfffffc00
    3954:	06000004 	streq	r0, [r0], -r4
    3958:	07af025b 	sbfxeq	r0, fp, #4, #16
    395c:	18080000 	stmdane	r8, {}	; <UNPREDICTABLE>
    3960:	00000941 	andeq	r0, r0, r1, asr #18
    3964:	ba025c06 	blt	9a984 <__bss_end__+0x909f4>
    3968:	24000001 	strcs	r0, [r0], #-1
    396c:	00033818 	andeq	r3, r3, r8, lsl r8
    3970:	025d0600 	subseq	r0, sp, #0, 12
    3974:	00000054 	andeq	r0, r0, r4, asr r0
    3978:	06c41848 	strbeq	r1, [r4], r8, asr #16
    397c:	5e060000 	cdppl	0, 0, cr0, cr6, cr0, {0}
    3980:	00009302 	andeq	r9, r0, r2, lsl #6
    3984:	57185000 	ldrpl	r5, [r8, -r0]
    3988:	06000009 	streq	r0, [r0], -r9
    398c:	0669025f 			; <UNDEFINED> instruction: 0x0669025f
    3990:	18580000 	ldmdane	r8, {}^	; <UNPREDICTABLE>
    3994:	000006e5 	andeq	r0, r0, r5, ror #13
    3998:	1e026006 	cdpne	0, 0, cr6, cr2, cr6, {0}
    399c:	68000001 	stmdavs	r0, {r0}
    39a0:	00096518 	andeq	r6, r9, r8, lsl r5
    39a4:	02610600 	rsbeq	r0, r1, #0, 12
    39a8:	0000011e 	andeq	r0, r0, lr, lsl r1
    39ac:	01af1870 			; <UNDEFINED> instruction: 0x01af1870
    39b0:	62060000 	andvs	r0, r6, #0
    39b4:	00011e02 	andeq	r1, r1, r2, lsl #28
    39b8:	d8187800 	ldmdale	r8, {fp, ip, sp, lr}
    39bc:	06000008 	streq	r0, [r0], -r8
    39c0:	07bf0263 	ldreq	r0, [pc, r3, ror #4]!
    39c4:	18800000 	stmne	r0, {}	; <UNPREDICTABLE>
    39c8:	00000439 	andeq	r0, r0, r9, lsr r4
    39cc:	cf026406 	svcgt	0x00026406
    39d0:	88000007 	stmdahi	r0, {r0, r1, r2}
    39d4:	00082618 	andeq	r2, r8, r8, lsl r6
    39d8:	02650600 	rsbeq	r0, r5, #0, 12
    39dc:	00000054 	andeq	r0, r0, r4, asr r0
    39e0:	02dd18a0 	sbcseq	r1, sp, #160, 16	; 0xa00000
    39e4:	66060000 	strvs	r0, [r6], -r0
    39e8:	00011e02 	andeq	r1, r1, r2, lsl #28
    39ec:	8b18a400 	blhi	62c9f4 <__bss_end__+0x622a64>
    39f0:	06000001 	streq	r0, [r0], -r1
    39f4:	011e0267 	tsteq	lr, r7, ror #4
    39f8:	18ac0000 	stmiane	ip!, {}	; <UNPREDICTABLE>
    39fc:	000002c3 	andeq	r0, r0, r3, asr #5
    3a00:	1e026806 	cdpne	8, 0, cr6, cr2, cr6, {0}
    3a04:	b4000001 	strlt	r0, [r0], #-1
    3a08:	00012d18 	andeq	r2, r1, r8, lsl sp
    3a0c:	02690600 	rsbeq	r0, r9, #0, 12
    3a10:	0000011e 	andeq	r0, r0, lr, lsl r1
    3a14:	013c18bc 	teqeq	ip, ip	; <illegal shifter operand>
    3a18:	6a060000 	bvs	183a20 <__bss_end__+0x179a90>
    3a1c:	00011e02 	andeq	r1, r1, r2, lsl #28
    3a20:	5a18c400 	bpl	634a28 <__bss_end__+0x62aa98>
    3a24:	06000006 	streq	r0, [r0], -r6
    3a28:	0054026b 	subseq	r0, r4, fp, ror #4
    3a2c:	00cc0000 	sbceq	r0, ip, r0
    3a30:	00013a0b 	andeq	r3, r1, fp, lsl #20
    3a34:	0007bf00 	andeq	fp, r7, r0, lsl #30
    3a38:	00f60c00 	rscseq	r0, r6, r0, lsl #24
    3a3c:	00190000 	andseq	r0, r9, r0
    3a40:	00013a0b 	andeq	r3, r1, fp, lsl #20
    3a44:	0007cf00 	andeq	ip, r7, r0, lsl #30
    3a48:	00f60c00 	rscseq	r0, r6, r0, lsl #24
    3a4c:	00070000 	andeq	r0, r7, r0
    3a50:	00013a0b 	andeq	r3, r1, fp, lsl #20
    3a54:	0007df00 	andeq	sp, r7, r0, lsl #30
    3a58:	00f60c00 	rscseq	r0, r6, r0, lsl #24
    3a5c:	00170000 	andseq	r0, r7, r0
    3a60:	7006f01b 	andvc	pc, r6, fp, lsl r0	; <UNPREDICTABLE>
    3a64:	00080302 	andeq	r0, r8, r2, lsl #6
    3a68:	05511800 	ldrbeq	r1, [r1, #-2048]	; 0xfffff800
    3a6c:	73060000 	movwvc	r0, #24576	; 0x6000
    3a70:	00080302 	andeq	r0, r8, r2, lsl #6
    3a74:	f8180000 			; <UNDEFINED> instruction: 0xf8180000
    3a78:	06000004 	streq	r0, [r0], -r4
    3a7c:	08130274 	ldmdaeq	r3, {r2, r4, r5, r6, r9}
    3a80:	00780000 	rsbseq	r0, r8, r0
    3a84:	0003030b 	andeq	r0, r3, fp, lsl #6
    3a88:	00081300 	andeq	r1, r8, r0, lsl #6
    3a8c:	00f60c00 	rscseq	r0, r6, r0, lsl #24
    3a90:	001d0000 	andseq	r0, sp, r0
    3a94:	00005b0b 	andeq	r5, r0, fp, lsl #22
    3a98:	00082300 	andeq	r2, r8, r0, lsl #6
    3a9c:	00f60c00 	rscseq	r0, r6, r0, lsl #24
    3aa0:	001d0000 	andseq	r0, sp, r0
    3aa4:	5506f01c 	strpl	pc, [r6, #-28]	; 0xffffffe4
    3aa8:	00084502 	andeq	r4, r8, r2, lsl #10
    3aac:	071e1d00 	ldreq	r1, [lr, -r0, lsl #26]
    3ab0:	6c060000 	stcvs	0, cr0, [r6], {-0}
    3ab4:	0006ae02 	andeq	sl, r6, r2, lsl #28
    3ab8:	09171d00 	ldmdbeq	r7, {r8, sl, fp, ip}
    3abc:	75060000 	strvc	r0, [r6, #-0]
    3ac0:	0007df02 	andeq	sp, r7, r2, lsl #30
    3ac4:	3a0b0000 	bcc	2c3acc <__bss_end__+0x2b9b3c>
    3ac8:	55000001 	strpl	r0, [r0, #-1]
    3acc:	0c000008 	stceq	0, cr0, [r0], {8}
    3ad0:	000000f6 	strdeq	r0, [r0], -r6
    3ad4:	601e0018 	andsvs	r0, lr, r8, lsl r0
    3ad8:	16000008 	strne	r0, [r0], -r8
    3adc:	00000451 	andeq	r0, r0, r1, asr r4
    3ae0:	55040f00 	strpl	r0, [r4, #-3840]	; 0xfffff100
    3ae4:	0f000008 	svceq	0x00000008
    3ae8:	0001a404 	andeq	sl, r1, r4, lsl #8
    3aec:	08771e00 	ldmdaeq	r7!, {r9, sl, fp, ip}^
    3af0:	54160000 	ldrpl	r0, [r6], #-0
    3af4:	00000000 	andeq	r0, r0, r0
    3af8:	087d040f 	ldmdaeq	sp!, {r0, r1, r2, r3, sl}^
    3afc:	040f0000 	streq	r0, [pc], #-0	; 3b04 <_start-0x44fc>
    3b00:	0000086c 	andeq	r0, r0, ip, ror #16
    3b04:	00061c0b 	andeq	r1, r6, fp, lsl #24
    3b08:	00089300 	andeq	r9, r8, r0, lsl #6
    3b0c:	00f60c00 	rscseq	r0, r6, r0, lsl #24
    3b10:	00020000 	andeq	r0, r2, r0
    3b14:	0008501f 	andeq	r5, r8, pc, lsl r0
    3b18:	02fd0600 	rscseq	r0, sp, #0, 12
    3b1c:	00000451 	andeq	r0, r0, r1, asr r4
    3b20:	0008491f 	andeq	r4, r8, pc, lsl r9
    3b24:	02fe0600 	rscseq	r0, lr, #0, 12
    3b28:	00000457 	andeq	r0, r0, r7, asr r4
    3b2c:	00005415 	andeq	r5, r0, r5, lsl r4
    3b30:	0008ba00 	andeq	fp, r8, r0, lsl #20
    3b34:	00541600 	subseq	r1, r4, r0, lsl #12
    3b38:	20000000 	andcs	r0, r0, r0
    3b3c:	00000367 	andeq	r0, r0, r7, ror #6
    3b40:	08c51d08 	stmiaeq	r5, {r3, r8, sl, fp, ip}^
    3b44:	040f0000 	streq	r0, [pc], #-0	; 3b4c <_start-0x44b4>
    3b48:	000008ab 	andeq	r0, r0, fp, lsr #17
    3b4c:	00005415 	andeq	r5, r0, r5, lsl r4
    3b50:	0008da00 	andeq	sp, r8, r0, lsl #20
    3b54:	05b21600 	ldreq	r1, [r2, #1536]!	; 0x600
    3b58:	20000000 	andcs	r0, r0, r0
    3b5c:	00000d05 	andeq	r0, r0, r5, lsl #26
    3b60:	08e52208 	stmiaeq	r5!, {r3, r9, sp}^
    3b64:	040f0000 	streq	r0, [pc], #-0	; 3b6c <_start-0x4494>
    3b68:	000008cb 	andeq	r0, r0, fp, asr #17
    3b6c:	000bfb21 	andeq	pc, fp, r1, lsr #22
    3b70:	54060100 	strpl	r0, [r6], #-256	; 0xffffff00
    3b74:	24000000 	strcs	r0, [r0], #-0
    3b78:	5800008b 	stmdapl	r0, {r0, r1, r3, r7}
    3b7c:	01000000 	mrseq	r0, (UNDEF: 0)
    3b80:	0009759c 	muleq	r9, ip, r5
    3b84:	6d662200 	sfmvs	f2, 2, [r6, #-0]
    3b88:	06010074 			; <UNDEFINED> instruction: 0x06010074
    3b8c:	000005b2 			; <UNDEFINED> instruction: 0x000005b2
    3b90:	23709102 	cmncs	r0, #-2147483648	; 0x80000000
    3b94:	66756224 	ldrbtvs	r6, [r5], -r4, lsr #4
    3b98:	75080100 	strvc	r0, [r8, #-256]	; 0xffffff00
    3b9c:	05000009 	streq	r0, [r0, #-9]
    3ba0:	009b9003 	addseq	r9, fp, r3
    3ba4:	021f2500 	andseq	r2, pc, #0, 10
    3ba8:	09010000 	stmdbeq	r1, {}	; <UNPREDICTABLE>
    3bac:	00000049 	andeq	r0, r0, r9, asr #32
    3bb0:	265c9102 	ldrbcs	r9, [ip], -r2, lsl #2
    3bb4:	01007a73 	tsteq	r0, r3, ror sl
    3bb8:	0000540c 	andeq	r5, r0, ip, lsl #8
    3bbc:	00073300 	andeq	r3, r7, r0, lsl #6
    3bc0:	8b4c2700 	blhi	130d7c8 <__bss_end__+0x1303838>
    3bc4:	09860000 	stmibeq	r6, {}	; <UNPREDICTABLE>
    3bc8:	09680000 	stmdbeq	r8!, {}^	; <UNPREDICTABLE>
    3bcc:	01280000 			; <UNDEFINED> instruction: 0x01280000
    3bd0:	00740250 	rsbseq	r0, r4, r0, asr r2
    3bd4:	03510128 	cmpeq	r1, #40, 2
    3bd8:	2804000a 	stmdacs	r4, {r1, r3}
    3bdc:	91035201 	tstls	r3, r1, lsl #4
    3be0:	01280648 			; <UNDEFINED> instruction: 0x01280648
    3be4:	4c910253 	lfmmi	f0, 4, [r1], {83}	; 0x53
    3be8:	8b602900 	blhi	180dff0 <__bss_end__+0x1804060>
    3bec:	01280000 			; <UNDEFINED> instruction: 0x01280000
    3bf0:	00740250 	rsbseq	r0, r4, r0, asr r2
    3bf4:	3a0b0000 	bcc	2c3bfc <__bss_end__+0x2b9c6c>
    3bf8:	86000001 	strhi	r0, [r0], -r1
    3bfc:	2a000009 	bcs	3c28 <_start-0x43d8>
    3c00:	000000f6 	strdeq	r0, [r0], -r6
    3c04:	2b0003ff 	blcs	4c08 <_start-0x33f8>
    3c08:	00000bf8 	strdeq	r0, [r0], -r8
    3c0c:	00000bf8 	strdeq	r0, [r0], -r8
    3c10:	70000209 	andvc	r0, r0, r9, lsl #4
    3c14:	0400000e 	streq	r0, [r0], #-14
    3c18:	00092100 	andeq	r2, r9, r0, lsl #2
    3c1c:	11010400 	tstne	r1, r0, lsl #8
    3c20:	0c00000c 	stceq	0, cr0, [r0], {12}
    3c24:	00000ca2 	andeq	r0, r0, r2, lsr #25
    3c28:	00000c78 	andeq	r0, r0, r8, ror ip
    3c2c:	00008b7c 	andeq	r8, r0, ip, ror fp
    3c30:	00000530 	andeq	r0, r0, r0, lsr r5
    3c34:	000004f6 	strdeq	r0, [r0], -r6
    3c38:	69050402 	stmdbvs	r5, {r1, sl}
    3c3c:	0300746e 	movweq	r7, #1134	; 0x46e
    3c40:	01570704 	cmpeq	r7, r4, lsl #14
    3c44:	01030000 	mrseq	r0, (UNDEF: 3)
    3c48:	00061806 	andeq	r1, r6, r6, lsl #16
    3c4c:	05020300 	streq	r0, [r2, #-768]	; 0xfffffd00
    3c50:	00000663 	andeq	r0, r0, r3, ror #12
    3c54:	cb050403 	blgt	144c68 <__bss_end__+0x13acd8>
    3c58:	03000001 	movweq	r0, #1
    3c5c:	01c60508 	biceq	r0, r6, r8, lsl #10
    3c60:	01030000 	mrseq	r0, (UNDEF: 3)
    3c64:	00061608 	andeq	r1, r6, r8, lsl #12
    3c68:	07020300 	streq	r0, [r2, -r0, lsl #6]
    3c6c:	0000041d 	andeq	r0, r0, sp, lsl r4
    3c70:	52070403 	andpl	r0, r7, #50331648	; 0x3000000
    3c74:	03000001 	movweq	r0, #1
    3c78:	014d0708 	cmpeq	sp, r8, lsl #14
    3c7c:	e1040000 	mrs	r0, (UNDEF: 4)
    3c80:	02000005 	andeq	r0, r0, #5
    3c84:	00002507 	andeq	r2, r0, r7, lsl #10
    3c88:	059d0400 	ldreq	r0, [sp, #1024]	; 0x400
    3c8c:	2c030000 	stccs	0, cr0, [r3], {-0}
    3c90:	00000041 	andeq	r0, r0, r1, asr #32
    3c94:	00076104 	andeq	r6, r7, r4, lsl #2
    3c98:	41720300 	cmnmi	r2, r0, lsl #6
    3c9c:	05000000 	streq	r0, [r0, #-0]
    3ca0:	00000481 	andeq	r0, r0, r1, lsl #9
    3ca4:	2c016504 	cfstr32cs	mvfx6, [r1], {4}
    3ca8:	06000000 	streq	r0, [r0], -r0
    3cac:	b7a60304 	strlt	r0, [r6, r4, lsl #6]!
    3cb0:	07000000 	streq	r0, [r0, -r0]
    3cb4:	0000046e 	andeq	r0, r0, lr, ror #8
    3cb8:	008ca803 	addeq	sl, ip, r3, lsl #16
    3cbc:	81070000 	mrshi	r0, (UNDEF: 7)
    3cc0:	03000003 	movweq	r0, #3
    3cc4:	0000b7a9 	andeq	fp, r0, r9, lsr #15
    3cc8:	4f080000 	svcmi	0x00080000
    3ccc:	c7000000 	strgt	r0, [r0, -r0]
    3cd0:	09000000 	stmdbeq	r0, {}	; <UNPREDICTABLE>
    3cd4:	000000c7 	andeq	r0, r0, r7, asr #1
    3cd8:	04030003 	streq	r0, [r3], #-3
    3cdc:	00050d07 	andeq	r0, r5, r7, lsl #26
    3ce0:	03080a00 	movweq	r0, #35328	; 0x8a00
    3ce4:	0000efa3 	andeq	lr, r0, r3, lsr #31
    3ce8:	073d0b00 	ldreq	r0, [sp, -r0, lsl #22]!
    3cec:	a5030000 	strge	r0, [r3, #-0]
    3cf0:	00000025 	andeq	r0, r0, r5, lsr #32
    3cf4:	07e40b00 	strbeq	r0, [r4, r0, lsl #22]!
    3cf8:	aa030000 	bge	c3d00 <__bss_end__+0xb9d70>
    3cfc:	00000098 	muleq	r0, r8, r0
    3d00:	98040004 	stmdals	r4, {r2}
    3d04:	03000006 	movweq	r0, #6
    3d08:	0000ceab 	andeq	ip, r0, fp, lsr #29
    3d0c:	031f0400 	tsteq	pc, #0, 8
    3d10:	af030000 	svcge	0x00030000
    3d14:	0000006b 	andeq	r0, r0, fp, rrx
    3d18:	040d040c 	streq	r0, [sp], #-1036	; 0xfffffbf4
    3d1c:	0000010d 	andeq	r0, r0, sp, lsl #2
    3d20:	1f080103 	svcne	0x00080103
    3d24:	0e000006 	cdpeq	0, 0, cr0, cr0, cr6, {0}
    3d28:	0000010d 	andeq	r0, r0, sp, lsl #2
    3d2c:	00081e04 	andeq	r1, r8, r4, lsl #28
    3d30:	5d160500 	cfldr32pl	mvfx0, [r6, #-0]
    3d34:	0f000000 	svceq	0x00000000
    3d38:	00000330 	andeq	r0, r0, r0, lsr r3
    3d3c:	772d0518 			; <UNDEFINED> instruction: 0x772d0518
    3d40:	0b000001 	bleq	3d4c <_start-0x42b4>
    3d44:	000006c9 	andeq	r0, r0, r9, asr #13
    3d48:	01772f05 	cmneq	r7, r5, lsl #30
    3d4c:	10000000 	andne	r0, r0, r0
    3d50:	05006b5f 	streq	r6, [r0, #-2911]	; 0xfffff4a1
    3d54:	00002530 	andeq	r2, r0, r0, lsr r5
    3d58:	160b0400 	strne	r0, [fp], -r0, lsl #8
    3d5c:	05000007 	streq	r0, [r0, #-7]
    3d60:	00002530 	andeq	r2, r0, r0, lsr r5
    3d64:	190b0800 	stmdbne	fp, {fp}
    3d68:	05000003 	streq	r0, [r0, #-3]
    3d6c:	00002530 	andeq	r2, r0, r0, lsr r5
    3d70:	b20b0c00 	andlt	r0, fp, #0, 24
    3d74:	05000008 	streq	r0, [r0, #-8]
    3d78:	00002530 	andeq	r2, r0, r0, lsr r5
    3d7c:	5f101000 	svcpl	0x00101000
    3d80:	31050078 	tstcc	r5, r8, ror r0
    3d84:	0000017d 	andeq	r0, r0, sp, ror r1
    3d88:	040d0014 	streq	r0, [sp], #-20	; 0xffffffec
    3d8c:	00000124 	andeq	r0, r0, r4, lsr #2
    3d90:	00011908 	andeq	r1, r1, r8, lsl #18
    3d94:	00018d00 	andeq	r8, r1, r0, lsl #26
    3d98:	00c70900 	sbceq	r0, r7, r0, lsl #18
    3d9c:	00000000 	andeq	r0, r0, r0
    3da0:	0003730f 	andeq	r7, r3, pc, lsl #6
    3da4:	35052400 	strcc	r2, [r5, #-1024]	; 0xfffffc00
    3da8:	00000206 	andeq	r0, r0, r6, lsl #4
    3dac:	0001bd0b 	andeq	fp, r1, fp, lsl #26
    3db0:	25370500 	ldrcs	r0, [r7, #-1280]!	; 0xfffffb00
    3db4:	00000000 	andeq	r0, r0, r0
    3db8:	0007890b 	andeq	r8, r7, fp, lsl #18
    3dbc:	25380500 	ldrcs	r0, [r8, #-1280]!	; 0xfffffb00
    3dc0:	04000000 	streq	r0, [r0], #-0
    3dc4:	0002070b 	andeq	r0, r2, fp, lsl #14
    3dc8:	25390500 	ldrcs	r0, [r9, #-1280]!	; 0xfffffb00
    3dcc:	08000000 	stmdaeq	r0, {}	; <UNPREDICTABLE>
    3dd0:	0009bc0b 	andeq	fp, r9, fp, lsl #24
    3dd4:	253a0500 	ldrcs	r0, [sl, #-1280]!	; 0xfffffb00
    3dd8:	0c000000 	stceq	0, cr0, [r0], {-0}
    3ddc:	0005620b 	andeq	r6, r5, fp, lsl #4
    3de0:	253b0500 	ldrcs	r0, [fp, #-1280]!	; 0xfffffb00
    3de4:	10000000 	andne	r0, r0, r0
    3de8:	0004d00b 	andeq	sp, r4, fp
    3dec:	253c0500 	ldrcs	r0, [ip, #-1280]!	; 0xfffffb00
    3df0:	14000000 	strne	r0, [r0], #-0
    3df4:	0008b70b 	andeq	fp, r8, fp, lsl #14
    3df8:	253d0500 	ldrcs	r0, [sp, #-1280]!	; 0xfffffb00
    3dfc:	18000000 	stmdane	r0, {}	; <UNPREDICTABLE>
    3e00:	00066d0b 	andeq	r6, r6, fp, lsl #26
    3e04:	253e0500 	ldrcs	r0, [lr, #-1280]!	; 0xfffffb00
    3e08:	1c000000 	stcne	0, cr0, [r0], {-0}
    3e0c:	0009360b 	andeq	r3, r9, fp, lsl #12
    3e10:	253f0500 	ldrcs	r0, [pc, #-1280]!	; 3918 <_start-0x46e8>
    3e14:	20000000 	andcs	r0, r0, r0
    3e18:	02161100 	andseq	r1, r6, #0, 2
    3e1c:	01080000 	mrseq	r0, (UNDEF: 8)
    3e20:	02464805 	subeq	r4, r6, #327680	; 0x50000
    3e24:	eb0b0000 	bl	2c3e2c <__bss_end__+0x2b9e9c>
    3e28:	05000002 	streq	r0, [r0, #-2]
    3e2c:	00024649 	andeq	r4, r2, r9, asr #12
    3e30:	000b0000 	andeq	r0, fp, r0
    3e34:	05000000 	streq	r0, [r0, #-0]
    3e38:	0002464a 	andeq	r4, r2, sl, asr #12
    3e3c:	ab128000 	blge	4a3e44 <__bss_end__+0x499eb4>
    3e40:	05000007 	streq	r0, [r0, #-7]
    3e44:	0001194c 	andeq	r1, r1, ip, asr #18
    3e48:	12010000 	andne	r0, r1, #0
    3e4c:	00000260 	andeq	r0, r0, r0, ror #4
    3e50:	01194f05 	tsteq	r9, r5, lsl #30
    3e54:	01040000 	mrseq	r0, (UNDEF: 4)
    3e58:	01050800 	tsteq	r5, r0, lsl #16
    3e5c:	02560000 	subseq	r0, r6, #0
    3e60:	c7090000 	strgt	r0, [r9, -r0]
    3e64:	1f000000 	svcne	0x00000000
    3e68:	057c1100 	ldrbeq	r1, [ip, #-256]!	; 0xffffff00
    3e6c:	01900000 	orrseq	r0, r0, r0
    3e70:	02945b05 	addseq	r5, r4, #5120	; 0x1400
    3e74:	c90b0000 	stmdbgt	fp, {}	; <UNPREDICTABLE>
    3e78:	05000006 	streq	r0, [r0, #-6]
    3e7c:	0002945c 	andeq	r9, r2, ip, asr r4
    3e80:	f70b0000 			; <UNDEFINED> instruction: 0xf70b0000
    3e84:	05000006 	streq	r0, [r0, #-6]
    3e88:	0000255d 	andeq	r2, r0, sp, asr r5
    3e8c:	140b0400 	strne	r0, [fp], #-1024	; 0xfffffc00
    3e90:	05000003 	streq	r0, [r0, #-3]
    3e94:	00029a5f 	andeq	r9, r2, pc, asr sl
    3e98:	160b0800 	strne	r0, [fp], -r0, lsl #16
    3e9c:	05000002 	streq	r0, [r0, #-2]
    3ea0:	00020660 	andeq	r0, r2, r0, ror #12
    3ea4:	0d008800 	stceq	8, cr8, [r0, #-0]
    3ea8:	00025604 	andeq	r5, r2, r4, lsl #12
    3eac:	02aa0800 	adceq	r0, sl, #0, 16
    3eb0:	02aa0000 	adceq	r0, sl, #0
    3eb4:	c7090000 	strgt	r0, [r9, -r0]
    3eb8:	1f000000 	svcne	0x00000000
    3ebc:	b0040d00 	andlt	r0, r4, r0, lsl #26
    3ec0:	13000002 	movwne	r0, #2
    3ec4:	0006770f 	andeq	r7, r6, pc, lsl #14
    3ec8:	73050800 	movwvc	r0, #22528	; 0x5800
    3ecc:	000002d6 	ldrdeq	r0, [r0], -r6
    3ed0:	0002010b 	andeq	r0, r2, fp, lsl #2
    3ed4:	d6740500 	ldrbtle	r0, [r4], -r0, lsl #10
    3ed8:	00000002 	andeq	r0, r0, r2
    3edc:	0000a60b 	andeq	sl, r0, fp, lsl #12
    3ee0:	25750500 	ldrbcs	r0, [r5, #-1280]!	; 0xfffffb00
    3ee4:	04000000 	streq	r0, [r0], #-0
    3ee8:	4f040d00 	svcmi	0x00040d00
    3eec:	0f000000 	svceq	0x00000000
    3ef0:	000006a3 	andeq	r0, r0, r3, lsr #13
    3ef4:	06b30568 	ldrteq	r0, [r3], r8, ror #10
    3ef8:	10000004 	andne	r0, r0, r4
    3efc:	0500705f 	streq	r7, [r0, #-95]	; 0xffffffa1
    3f00:	0002d6b4 			; <UNDEFINED> instruction: 0x0002d6b4
    3f04:	5f100000 	svcpl	0x00100000
    3f08:	b5050072 	strlt	r0, [r5, #-114]	; 0xffffff8e
    3f0c:	00000025 	andeq	r0, r0, r5, lsr #32
    3f10:	775f1004 	ldrbvc	r1, [pc, -r4]
    3f14:	25b60500 	ldrcs	r0, [r6, #1280]!	; 0x500
    3f18:	08000000 	stmdaeq	r0, {}	; <UNPREDICTABLE>
    3f1c:	0002590b 	andeq	r5, r2, fp, lsl #18
    3f20:	3ab70500 	bcc	fedc5328 <__bss_end__+0xfedbb398>
    3f24:	0c000000 	stceq	0, cr0, [r0], {-0}
    3f28:	0003b20b 	andeq	fp, r3, fp, lsl #4
    3f2c:	3ab80500 	bcc	fee05334 <__bss_end__+0xfedfb3a4>
    3f30:	0e000000 	cdpeq	0, 0, cr0, cr0, cr0, {0}
    3f34:	66625f10 	uqadd16vs	r5, r2, r0
    3f38:	b1b90500 			; <UNDEFINED> instruction: 0xb1b90500
    3f3c:	10000002 	andne	r0, r0, r2
    3f40:	00016d0b 	andeq	r6, r1, fp, lsl #26
    3f44:	25ba0500 	ldrcs	r0, [sl, #1280]!	; 0x500
    3f48:	18000000 	stmdane	r0, {}	; <UNPREDICTABLE>
    3f4c:	0002240b 	andeq	r2, r2, fp, lsl #8
    3f50:	05c10500 	strbeq	r0, [r1, #1280]	; 0x500
    3f54:	1c000001 	stcne	0, cr0, [r0], {1}
    3f58:	00089a0b 	andeq	r9, r8, fp, lsl #20
    3f5c:	61c30500 	bicvs	r0, r3, r0, lsl #10
    3f60:	20000005 	andcs	r0, r0, r5
    3f64:	0001790b 	andeq	r7, r1, fp, lsl #18
    3f68:	8bc50500 	blhi	ff145370 <__bss_end__+0xff13b3e0>
    3f6c:	24000005 	strcs	r0, [r0], #-5
    3f70:	00074e0b 	andeq	r4, r7, fp, lsl #28
    3f74:	afc80500 	svcge	0x00c80500
    3f78:	28000005 	stmdacs	r0, {r0, r2}
    3f7c:	0009500b 	andeq	r5, r9, fp
    3f80:	c9c90500 	stmibgt	r9, {r8, sl}^
    3f84:	2c000005 	stccs	0, cr0, [r0], {5}
    3f88:	62755f10 	rsbsvs	r5, r5, #16, 30	; 0x40
    3f8c:	b1cc0500 	biclt	r0, ip, r0, lsl #10
    3f90:	30000002 	andcc	r0, r0, r2
    3f94:	70755f10 	rsbsvc	r5, r5, r0, lsl pc
    3f98:	d6cd0500 	strble	r0, [sp], r0, lsl #10
    3f9c:	38000002 	stmdacc	r0, {r1}
    3fa0:	72755f10 	rsbsvc	r5, r5, #16, 30	; 0x40
    3fa4:	25ce0500 	strbcs	r0, [lr, #1280]	; 0x500
    3fa8:	3c000000 	stccc	0, cr0, [r0], {-0}
    3fac:	0001f30b 	andeq	pc, r1, fp, lsl #6
    3fb0:	cfd10500 	svcgt	0x00d10500
    3fb4:	40000005 	andmi	r0, r0, r5
    3fb8:	0009110b 	andeq	r1, r9, fp, lsl #2
    3fbc:	dfd20500 	svcle	0x00d20500
    3fc0:	43000005 	movwmi	r0, #5
    3fc4:	626c5f10 	rsbvs	r5, ip, #16, 30	; 0x40
    3fc8:	b1d50500 	bicslt	r0, r5, r0, lsl #10
    3fcc:	44000002 	strmi	r0, [r0], #-2
    3fd0:	0002760b 	andeq	r7, r2, fp, lsl #12
    3fd4:	25d80500 	ldrbcs	r0, [r8, #1280]	; 0x500
    3fd8:	4c000000 	stcmi	0, cr0, [r0], {-0}
    3fdc:	0002ac0b 	andeq	sl, r2, fp, lsl #24
    3fe0:	76d90500 	ldrbvc	r0, [r9], r0, lsl #10
    3fe4:	50000000 	andpl	r0, r0, r0
    3fe8:	0006440b 	andeq	r4, r6, fp, lsl #8
    3fec:	24dc0500 	ldrbcs	r0, [ip], #1280	; 0x500
    3ff0:	54000004 	strpl	r0, [r0], #-4
    3ff4:	00106a0b 	andseq	r6, r0, fp, lsl #20
    3ff8:	fae00500 	blx	ff805400 <__bss_end__+0xff7fb470>
    3ffc:	58000000 	stmdapl	r0, {}	; <UNPREDICTABLE>
    4000:	0006bb0b 	andeq	fp, r6, fp, lsl #22
    4004:	efe20500 	svc	0x00e20500
    4008:	5c000000 	stcpl	0, cr0, [r0], {-0}
    400c:	00049e0b 	andeq	r9, r4, fp, lsl #28
    4010:	25e30500 	strbcs	r0, [r3, #1280]!	; 0x500
    4014:	64000000 	strvs	r0, [r0], #-0
    4018:	00251400 	eoreq	r1, r5, r0, lsl #8
    401c:	04240000 	strteq	r0, [r4], #-0
    4020:	24150000 	ldrcs	r0, [r5], #-0
    4024:	15000004 	strne	r0, [r0, #-4]
    4028:	00000105 	andeq	r0, r0, r5, lsl #2
    402c:	00010715 	andeq	r0, r1, r5, lsl r7
    4030:	00251500 	eoreq	r1, r5, r0, lsl #10
    4034:	0d000000 	stceq	0, cr0, [r0, #-0]
    4038:	00042f04 	andeq	r2, r4, r4, lsl #30
    403c:	04240e00 	strteq	r0, [r4], #-3584	; 0xfffff200
    4040:	1e160000 	cdpne	0, 1, cr0, cr6, cr0, {0}
    4044:	28000007 	stmdacs	r0, {r0, r1, r2}
    4048:	02380504 	eorseq	r0, r8, #4, 10	; 0x1000000
    404c:	00000561 	andeq	r0, r0, r1, ror #10
    4050:	00065c17 	andeq	r5, r6, r7, lsl ip
    4054:	023a0500 	eorseq	r0, sl, #0, 10
    4058:	00000025 	andeq	r0, r0, r5, lsr #32
    405c:	02681700 	rsbeq	r1, r8, #0, 14
    4060:	3f050000 	svccc	0x00050000
    4064:	00063602 	andeq	r3, r6, r2, lsl #12
    4068:	97170400 	ldrls	r0, [r7, -r0, lsl #8]
    406c:	05000003 	streq	r0, [r0, #-3]
    4070:	0636023f 			; <UNDEFINED> instruction: 0x0636023f
    4074:	17080000 	strne	r0, [r8, -r0]
    4078:	00000328 	andeq	r0, r0, r8, lsr #6
    407c:	36023f05 	strcc	r3, [r2], -r5, lsl #30
    4080:	0c000006 	stceq	0, cr0, [r0], {6}
    4084:	0006f217 	andeq	pc, r6, r7, lsl r2	; <UNPREDICTABLE>
    4088:	02410500 	subeq	r0, r1, #0, 10
    408c:	00000025 	andeq	r0, r0, r5, lsr #32
    4090:	00ed1710 	rsceq	r1, sp, r0, lsl r7
    4094:	42050000 	andmi	r0, r5, #0
    4098:	00081802 	andeq	r1, r8, r2, lsl #16
    409c:	5c171400 	cfldrspl	mvf1, [r7], {-0}
    40a0:	05000008 	streq	r0, [r0, #-8]
    40a4:	00250244 	eoreq	r0, r5, r4, asr #4
    40a8:	17300000 	ldrne	r0, [r0, -r0]!
    40ac:	000006fc 	strdeq	r0, [r0], -ip
    40b0:	85024505 	strhi	r4, [r2, #-1285]	; 0xfffffafb
    40b4:	34000005 	strcc	r0, [r0], #-5
    40b8:	00059217 	andeq	r9, r5, r7, lsl r2
    40bc:	02470500 	subeq	r0, r7, #0, 10
    40c0:	00000025 	andeq	r0, r0, r5, lsr #32
    40c4:	070c1738 	smladxeq	ip, r8, r7, r1
    40c8:	49050000 	stmdbmi	r5, {}	; <UNPREDICTABLE>
    40cc:	00083302 	andeq	r3, r8, r2, lsl #6
    40d0:	66173c00 	ldrvs	r3, [r7], -r0, lsl #24
    40d4:	05000004 	streq	r0, [r0, #-4]
    40d8:	0177024c 	cmneq	r7, ip, asr #4
    40dc:	17400000 	strbne	r0, [r0, -r0]
    40e0:	0000035d 	andeq	r0, r0, sp, asr r3
    40e4:	25024d05 	strcs	r4, [r2, #-3333]	; 0xfffff2fb
    40e8:	44000000 	strmi	r0, [r0], #-0
    40ec:	00097317 	andeq	r7, r9, r7, lsl r3
    40f0:	024e0500 	subeq	r0, lr, #0, 10
    40f4:	00000177 	andeq	r0, r0, r7, ror r1
    40f8:	05c71748 	strbeq	r1, [r7, #1864]	; 0x748
    40fc:	4f050000 	svcmi	0x00050000
    4100:	00083902 	andeq	r3, r8, r2, lsl #18
    4104:	9f174c00 	svcls	0x00174c00
    4108:	05000003 	streq	r0, [r0, #-3]
    410c:	00250252 	eoreq	r0, r5, r2, asr r2
    4110:	17500000 	ldrbne	r0, [r0, -r0]
    4114:	000002a4 	andeq	r0, r0, r4, lsr #5
    4118:	07025305 	streq	r5, [r2, -r5, lsl #6]
    411c:	54000001 	strpl	r0, [r0], #-1
    4120:	00112c17 	andseq	r2, r1, r7, lsl ip
    4124:	02760500 	rsbseq	r0, r6, #0, 10
    4128:	000007f6 	strdeq	r0, [r0], -r6
    412c:	057c1858 	ldrbeq	r1, [ip, #-2136]!	; 0xfffff7a8
    4130:	7a050000 	bvc	144138 <__bss_end__+0x13a1a8>
    4134:	00029402 	andeq	r9, r2, r2, lsl #8
    4138:	18014800 	stmdane	r1, {fp, lr}
    413c:	00000430 	andeq	r0, r0, r0, lsr r4
    4140:	56027b05 	strpl	r7, [r2], -r5, lsl #22
    4144:	4c000002 	stcmi	0, cr0, [r0], {2}
    4148:	08e21801 	stmiaeq	r2!, {r0, fp, ip}^
    414c:	7f050000 	svcvc	0x00050000
    4150:	00084a02 	andeq	r4, r8, r2, lsl #20
    4154:	1802dc00 	stmdane	r2, {sl, fp, ip, lr, pc}
    4158:	0000022c 	andeq	r0, r0, ip, lsr #4
    415c:	fb028405 	blx	a517a <__bss_end__+0x9b1ea>
    4160:	e0000005 	and	r0, r0, r5
    4164:	02111802 	andseq	r1, r1, #131072	; 0x20000
    4168:	85050000 	strhi	r0, [r5, #-0]
    416c:	00085602 	andeq	r5, r8, r2, lsl #12
    4170:	0002ec00 	andeq	lr, r2, r0, lsl #24
    4174:	0406040d 	streq	r0, [r6], #-1037	; 0xfffffbf3
    4178:	25140000 	ldrcs	r0, [r4, #-0]
    417c:	85000000 	strhi	r0, [r0, #-0]
    4180:	15000005 	strne	r0, [r0, #-5]
    4184:	00000424 	andeq	r0, r0, r4, lsr #8
    4188:	00010515 	andeq	r0, r1, r5, lsl r5
    418c:	05851500 	streq	r1, [r5, #1280]	; 0x500
    4190:	25150000 	ldrcs	r0, [r5, #-0]
    4194:	00000000 	andeq	r0, r0, r0
    4198:	0114040d 	tsteq	r4, sp, lsl #8
    419c:	040d0000 	streq	r0, [sp], #-0
    41a0:	00000567 	andeq	r0, r0, r7, ror #10
    41a4:	00008114 	andeq	r8, r0, r4, lsl r1
    41a8:	0005af00 	andeq	sl, r5, r0, lsl #30
    41ac:	04241500 	strteq	r1, [r4], #-1280	; 0xfffffb00
    41b0:	05150000 	ldreq	r0, [r5, #-0]
    41b4:	15000001 	strne	r0, [r0, #-1]
    41b8:	00000081 	andeq	r0, r0, r1, lsl #1
    41bc:	00002515 	andeq	r2, r0, r5, lsl r5
    41c0:	040d0000 	streq	r0, [sp], #-0
    41c4:	00000591 	muleq	r0, r1, r5
    41c8:	00002514 	andeq	r2, r0, r4, lsl r5
    41cc:	0005c900 	andeq	ip, r5, r0, lsl #18
    41d0:	04241500 	strteq	r1, [r4], #-1280	; 0xfffffb00
    41d4:	05150000 	ldreq	r0, [r5, #-0]
    41d8:	00000001 	andeq	r0, r0, r1
    41dc:	05b5040d 	ldreq	r0, [r5, #1037]!	; 0x40d
    41e0:	4f080000 	svcmi	0x00080000
    41e4:	df000000 	svcle	0x00000000
    41e8:	09000005 	stmdbeq	r0, {r0, r2}
    41ec:	000000c7 	andeq	r0, r0, r7, asr #1
    41f0:	4f080002 	svcmi	0x00080002
    41f4:	ef000000 	svc	0x00000000
    41f8:	09000005 	stmdbeq	r0, {r0, r2}
    41fc:	000000c7 	andeq	r0, r0, r7, asr #1
    4200:	91050000 	mrsls	r0, (UNDEF: 5)
    4204:	05000006 	streq	r0, [r0, #-6]
    4208:	02dc011d 	sbcseq	r0, ip, #1073741831	; 0x40000007
    420c:	c1190000 	tstgt	r9, r0
    4210:	0c000008 	stceq	0, cr0, [r0], {8}
    4214:	30012105 	andcc	r2, r1, r5, lsl #2
    4218:	17000006 	strne	r0, [r0, -r6]
    421c:	000006c9 	andeq	r0, r0, r9, asr #13
    4220:	30012305 	andcc	r2, r1, r5, lsl #6
    4224:	00000006 	andeq	r0, r0, r6
    4228:	00040017 	andeq	r0, r4, r7, lsl r0
    422c:	01240500 			; <UNDEFINED> instruction: 0x01240500
    4230:	00000025 	andeq	r0, r0, r5, lsr #32
    4234:	068b1704 	streq	r1, [fp], r4, lsl #14
    4238:	25050000 	strcs	r0, [r5, #-0]
    423c:	00063601 	andeq	r3, r6, r1, lsl #12
    4240:	0d000800 	stceq	8, cr0, [r0, #-0]
    4244:	0005fb04 	andeq	pc, r5, r4, lsl #22
    4248:	ef040d00 	svc	0x00040d00
    424c:	19000005 	stmdbne	r0, {r0, r2}
    4250:	000000d1 	ldrdeq	r0, [r0], -r1
    4254:	013d050e 	teqeq	sp, lr, lsl #10
    4258:	00000671 	andeq	r0, r0, r1, ror r6
    425c:	00072e17 	andeq	r2, r7, r7, lsl lr
    4260:	013e0500 	teqeq	lr, r0, lsl #10
    4264:	00000671 	andeq	r0, r0, r1, ror r6
    4268:	07d11700 	ldrbeq	r1, [r1, r0, lsl #14]
    426c:	3f050000 	svccc	0x00050000
    4270:	00067101 	andeq	r7, r6, r1, lsl #2
    4274:	10170600 	andsne	r0, r7, r0, lsl #12
    4278:	05000008 	streq	r0, [r0, #-8]
    427c:	00560140 	subseq	r0, r6, r0, asr #2
    4280:	000c0000 	andeq	r0, ip, r0
    4284:	00005608 	andeq	r5, r0, r8, lsl #12
    4288:	00068100 	andeq	r8, r6, r0, lsl #2
    428c:	00c70900 	sbceq	r0, r7, r0, lsl #18
    4290:	00020000 	andeq	r0, r2, r0
    4294:	5705d01a 	smladpl	r5, sl, r0, sp
    4298:	00078202 	andeq	r8, r7, r2, lsl #4
    429c:	088a1700 	stmeq	sl, {r8, r9, sl, ip}
    42a0:	59050000 	stmdbpl	r5, {}	; <UNPREDICTABLE>
    42a4:	00002c02 	andeq	r2, r0, r2, lsl #24
    42a8:	d7170000 	ldrle	r0, [r7, -r0]
    42ac:	05000007 	streq	r0, [r0, #-7]
    42b0:	0107025a 	tsteq	r7, sl, asr r2
    42b4:	17040000 	strne	r0, [r4, -r0]
    42b8:	00000445 	andeq	r0, r0, r5, asr #8
    42bc:	82025b05 	andhi	r5, r2, #5120	; 0x1400
    42c0:	08000007 	stmdaeq	r0, {r0, r1, r2}
    42c4:	00094117 	andeq	r4, r9, r7, lsl r1
    42c8:	025c0500 	subseq	r0, ip, #0, 10
    42cc:	0000018d 	andeq	r0, r0, sp, lsl #3
    42d0:	03381724 	teqeq	r8, #36, 14	; 0x900000
    42d4:	5d050000 	stcpl	0, cr0, [r5, #-0]
    42d8:	00002502 	andeq	r2, r0, r2, lsl #10
    42dc:	c4174800 	ldrgt	r4, [r7], #-2048	; 0xfffff800
    42e0:	05000006 	streq	r0, [r0, #-6]
    42e4:	0064025e 	rsbeq	r0, r4, lr, asr r2
    42e8:	17500000 	ldrbne	r0, [r0, -r0]
    42ec:	00000957 	andeq	r0, r0, r7, asr r9
    42f0:	3c025f05 	stccc	15, cr5, [r2], {5}
    42f4:	58000006 	stmdapl	r0, {r1, r2}
    42f8:	0006e517 	andeq	lr, r6, r7, lsl r5
    42fc:	02600500 	rsbeq	r0, r0, #0, 10
    4300:	000000ef 	andeq	r0, r0, pc, ror #1
    4304:	09651768 	stmdbeq	r5!, {r3, r5, r6, r8, r9, sl, ip}^
    4308:	61050000 	mrsvs	r0, (UNDEF: 5)
    430c:	0000ef02 	andeq	lr, r0, r2, lsl #30
    4310:	af177000 	svcge	0x00177000
    4314:	05000001 	streq	r0, [r0, #-1]
    4318:	00ef0262 	rsceq	r0, pc, r2, ror #4
    431c:	17780000 	ldrbne	r0, [r8, -r0]!
    4320:	000008d8 	ldrdeq	r0, [r0], -r8
    4324:	92026305 	andls	r6, r2, #335544320	; 0x14000000
    4328:	80000007 	andhi	r0, r0, r7
    432c:	00043917 	andeq	r3, r4, r7, lsl r9
    4330:	02640500 	rsbeq	r0, r4, #0, 10
    4334:	000007a2 	andeq	r0, r0, r2, lsr #15
    4338:	08261788 	stmdaeq	r6!, {r3, r7, r8, r9, sl, ip}
    433c:	65050000 	strvs	r0, [r5, #-0]
    4340:	00002502 	andeq	r2, r0, r2, lsl #10
    4344:	dd17a000 	ldcle	0, cr10, [r7, #-0]
    4348:	05000002 	streq	r0, [r0, #-2]
    434c:	00ef0266 	rsceq	r0, pc, r6, ror #4
    4350:	17a40000 	strne	r0, [r4, r0]!
    4354:	0000018b 	andeq	r0, r0, fp, lsl #3
    4358:	ef026705 	svc	0x00026705
    435c:	ac000000 	stcge	0, cr0, [r0], {-0}
    4360:	0002c317 	andeq	ip, r2, r7, lsl r3
    4364:	02680500 	rsbeq	r0, r8, #0, 10
    4368:	000000ef 	andeq	r0, r0, pc, ror #1
    436c:	012d17b4 			; <UNDEFINED> instruction: 0x012d17b4
    4370:	69050000 	stmdbvs	r5, {}	; <UNPREDICTABLE>
    4374:	0000ef02 	andeq	lr, r0, r2, lsl #30
    4378:	3c17bc00 	ldccc	12, cr11, [r7], {-0}
    437c:	05000001 	streq	r0, [r0, #-1]
    4380:	00ef026a 	rsceq	r0, pc, sl, ror #4
    4384:	17c40000 	strbne	r0, [r4, r0]
    4388:	0000065a 	andeq	r0, r0, sl, asr r6
    438c:	25026b05 	strcs	r6, [r2, #-2821]	; 0xfffff4fb
    4390:	cc000000 	stcgt	0, cr0, [r0], {-0}
    4394:	010d0800 	tsteq	sp, r0, lsl #16
    4398:	07920000 	ldreq	r0, [r2, r0]
    439c:	c7090000 	strgt	r0, [r9, -r0]
    43a0:	19000000 	stmdbne	r0, {}	; <UNPREDICTABLE>
    43a4:	010d0800 	tsteq	sp, r0, lsl #16
    43a8:	07a20000 	streq	r0, [r2, r0]!
    43ac:	c7090000 	strgt	r0, [r9, -r0]
    43b0:	07000000 	streq	r0, [r0, -r0]
    43b4:	010d0800 	tsteq	sp, r0, lsl #16
    43b8:	07b20000 	ldreq	r0, [r2, r0]!
    43bc:	c7090000 	strgt	r0, [r9, -r0]
    43c0:	17000000 	strne	r0, [r0, -r0]
    43c4:	05f01a00 	ldrbeq	r1, [r0, #2560]!	; 0xa00
    43c8:	07d60270 			; <UNDEFINED> instruction: 0x07d60270
    43cc:	51170000 	tstpl	r7, r0
    43d0:	05000005 	streq	r0, [r0, #-5]
    43d4:	07d60273 			; <UNDEFINED> instruction: 0x07d60273
    43d8:	17000000 	strne	r0, [r0, -r0]
    43dc:	000004f8 	strdeq	r0, [r0], -r8
    43e0:	e6027405 	str	r7, [r2], -r5, lsl #8
    43e4:	78000007 	stmdavc	r0, {r0, r1, r2}
    43e8:	02d60800 	sbcseq	r0, r6, #0, 16
    43ec:	07e60000 	strbeq	r0, [r6, r0]!
    43f0:	c7090000 	strgt	r0, [r9, -r0]
    43f4:	1d000000 	stcne	0, cr0, [r0, #-0]
    43f8:	002c0800 	eoreq	r0, ip, r0, lsl #16
    43fc:	07f60000 	ldrbeq	r0, [r6, r0]!
    4400:	c7090000 	strgt	r0, [r9, -r0]
    4404:	1d000000 	stcne	0, cr0, [r0, #-0]
    4408:	05f01b00 	ldrbeq	r1, [r0, #2816]!	; 0xb00
    440c:	08180255 	ldmdaeq	r8, {r0, r2, r4, r6, r9}
    4410:	1e1c0000 	cdpne	0, 1, cr0, cr12, cr0, {0}
    4414:	05000007 	streq	r0, [r0, #-7]
    4418:	0681026c 	streq	r0, [r1], ip, ror #4
    441c:	171c0000 	ldrne	r0, [ip, -r0]
    4420:	05000009 	streq	r0, [r0, #-9]
    4424:	07b20275 			; <UNDEFINED> instruction: 0x07b20275
    4428:	08000000 	stmdaeq	r0, {}	; <UNPREDICTABLE>
    442c:	0000010d 	andeq	r0, r0, sp, lsl #2
    4430:	00000828 	andeq	r0, r0, r8, lsr #16
    4434:	0000c709 	andeq	ip, r0, r9, lsl #14
    4438:	1d001800 	stcne	8, cr1, [r0, #-0]
    443c:	00000833 	andeq	r0, r0, r3, lsr r8
    4440:	00042415 	andeq	r2, r4, r5, lsl r4
    4444:	040d0000 	streq	r0, [sp], #-0
    4448:	00000828 	andeq	r0, r0, r8, lsr #16
    444c:	0177040d 	cmneq	r7, sp, lsl #8
    4450:	4a1d0000 	bmi	744458 <__bss_end__+0x73a4c8>
    4454:	15000008 	strne	r0, [r0, #-8]
    4458:	00000025 	andeq	r0, r0, r5, lsr #32
    445c:	50040d00 	andpl	r0, r4, r0, lsl #26
    4460:	0d000008 	stceq	0, cr0, [r0, #-32]	; 0xffffffe0
    4464:	00083f04 	andeq	r3, r8, r4, lsl #30
    4468:	05ef0800 	strbeq	r0, [pc, #2048]!	; 4c70 <_start-0x3390>
    446c:	08660000 	stmdaeq	r6!, {}^	; <UNPREDICTABLE>
    4470:	c7090000 	strgt	r0, [r9, -r0]
    4474:	02000000 	andeq	r0, r0, #0
    4478:	08501e00 	ldmdaeq	r0, {r9, sl, fp, ip}^
    447c:	fd050000 	stc2	0, cr0, [r5, #-0]
    4480:	00042402 	andeq	r2, r4, r2, lsl #8
    4484:	08491e00 	stmdaeq	r9, {r9, sl, fp, ip}^
    4488:	fe050000 	cdp2	0, 0, cr0, cr5, cr0, {0}
    448c:	00042a02 	andeq	r2, r4, r2, lsl #20
    4490:	00251400 	eoreq	r1, r5, r0, lsl #8
    4494:	088d0000 	stmeq	sp, {}	; <UNPREDICTABLE>
    4498:	25150000 	ldrcs	r0, [r5, #-0]
    449c:	00000000 	andeq	r0, r0, r0
    44a0:	0003671f 	andeq	r6, r3, pc, lsl r7
    44a4:	981d0600 	ldmdals	sp, {r9, sl}
    44a8:	0d000008 	stceq	0, cr0, [r0, #-32]	; 0xffffffe0
    44ac:	00087e04 	andeq	r7, r8, r4, lsl #28
    44b0:	00251400 	eoreq	r1, r5, r0, lsl #8
    44b4:	08ad0000 	stmiaeq	sp!, {}	; <UNPREDICTABLE>
    44b8:	85150000 	ldrhi	r0, [r5, #-0]
    44bc:	00000005 	andeq	r0, r0, r5
    44c0:	000d051f 	andeq	r0, sp, pc, lsl r5
    44c4:	b8220600 	stmdalt	r2!, {r9, sl}
    44c8:	0d000008 	stceq	0, cr0, [r0, #-32]	; 0xffffffe0
    44cc:	00089e04 	andeq	r9, r8, r4, lsl #28
    44d0:	0c020400 	cfstrseq	mvf0, [r2], {-0}
    44d4:	28070000 	stmdacs	r7, {}	; <UNPREDICTABLE>
    44d8:	000008c9 	andeq	r0, r0, r9, asr #17
    44dc:	000bee0f 	andeq	lr, fp, pc, lsl #28
    44e0:	00080400 	andeq	r0, r8, r0, lsl #8
    44e4:	000008e0 	andeq	r0, r0, r0, ror #17
    44e8:	000c7320 	andeq	r7, ip, r0, lsr #6
    44ec:	00010500 	andeq	r0, r1, r0, lsl #10
    44f0:	04000000 	streq	r0, [r0], #-0
    44f4:	00000bf0 	strdeq	r0, [r0], -r0	; <UNPREDICTABLE>
    44f8:	08be6307 	ldmeq	lr!, {r0, r1, r2, r8, r9, sp, lr}
    44fc:	f8210000 			; <UNDEFINED> instruction: 0xf8210000
    4500:	0100000b 	tsteq	r0, fp
    4504:	0000257d 	andeq	r2, r0, sp, ror r5
    4508:	008dec00 	addeq	lr, sp, r0, lsl #24
    450c:	0002c000 	andeq	ip, r2, r0
    4510:	519c0100 	orrspl	r0, ip, r0, lsl #2
    4514:	2200000b 	andcs	r0, r0, #11
    4518:	00667562 	rsbeq	r7, r6, r2, ror #10
    451c:	01077d01 	tsteq	r7, r1, lsl #26
    4520:	075c0000 	ldrbeq	r0, [ip, -r0]
    4524:	6e220000 	cdpvs	0, 2, cr0, cr2, cr0, {0}
    4528:	257d0100 	ldrbcs	r0, [sp, #-256]!	; 0xffffff00
    452c:	88000000 	stmdahi	r0, {}	; <UNPREDICTABLE>
    4530:	22000007 	andcs	r0, r0, #7
    4534:	00746d66 	rsbseq	r6, r4, r6, ror #26
    4538:	05857d01 	streq	r7, [r5, #3329]	; 0xd01
    453c:	07b60000 	ldreq	r0, [r6, r0]!
    4540:	1f230000 	svcne	0x00230000
    4544:	01000002 	tsteq	r0, r2
    4548:	0008e07d 	andeq	lr, r8, sp, ror r0
    454c:	dc910300 	ldcle	3, cr0, [r1], {0}
    4550:	0070247e 	rsbseq	r2, r0, lr, ror r4
    4554:	01077e01 	tsteq	r7, r1, lsl #28
    4558:	08160000 	ldmdaeq	r6, {}	; <UNPREDICTABLE>
    455c:	65240000 	strvs	r0, [r4, #-0]!
    4560:	077e0100 	ldrbeq	r0, [lr, -r0, lsl #2]!
    4564:	94000001 	strls	r0, [r0], #-1
    4568:	25000008 	strcs	r0, [r0, #-8]
    456c:	00000474 	andeq	r0, r0, r4, ror r4
    4570:	00000b61 	andeq	r0, r0, r1, ror #22
    4574:	9a880305 	bls	fe205190 <__bss_end__+0xfe1fb200>
    4578:	20260000 	eorcs	r0, r6, r0
    457c:	24000000 	strcs	r0, [r0], #-0
    4580:	8b010073 	blhi	44754 <__bss_end__+0x3a7c4>
    4584:	00000107 	andeq	r0, r0, r7, lsl #2
    4588:	000008bb 			; <UNDEFINED> instruction: 0x000008bb
    458c:	6d756e27 	ldclvs	14, cr6, [r5, #-156]!	; 0xffffff64
    4590:	668b0100 	strvs	r0, [fp], r0, lsl #2
    4594:	0300000b 	movweq	r0, #11
    4598:	287ee091 	ldmdacs	lr!, {r0, r4, r7, sp, lr, pc}^
    459c:	00000cd3 	ldrdeq	r0, [r0], -r3
    45a0:	002c8c01 	eoreq	r8, ip, r1, lsl #24
    45a4:	09050000 	stmdbeq	r5, {}	; <UNPREDICTABLE>
    45a8:	7c290000 	stcvc	0, cr0, [r9], #-0
    45ac:	9200008e 	andls	r0, r0, #142	; 0x8e
    45b0:	ab00000d 	blge	45ec <_start-0x3a14>
    45b4:	2a000009 	bcs	45e0 <_start-0x3a20>
    45b8:	77025001 	strvc	r5, [r2, -r1]
    45bc:	fc2b0000 	stc2	0, cr0, [fp], #-0
    45c0:	5200008e 	andpl	r0, r0, #142	; 0x8e
    45c4:	2900000e 	stmdbcs	r0, {r1, r2, r3}
    45c8:	00008f10 	andeq	r8, r0, r0, lsl pc
    45cc:	00000e5d 	andeq	r0, r0, sp, asr lr
    45d0:	000009e3 	andeq	r0, r0, r3, ror #19
    45d4:	0550012a 	ldrbeq	r0, [r0, #-298]	; 0xfffffed6
    45d8:	009af803 	addseq	pc, sl, r3, lsl #16
    45dc:	51012a00 	tstpl	r1, r0, lsl #20
    45e0:	9a940305 	bls	fe5051fc <__bss_end__+0xfe4fb26c>
    45e4:	012a0000 			; <UNDEFINED> instruction: 0x012a0000
    45e8:	88030552 	stmdahi	r3, {r1, r4, r6, r8, sl}
    45ec:	2a00009a 	bcs	485c <_start-0x37a4>
    45f0:	08025301 	stmdaeq	r2, {r0, r8, r9, ip, lr}
    45f4:	142b0092 	strtne	r0, [fp], #-146	; 0xffffff6e
    45f8:	6800008f 	stmdavs	r0, {r0, r1, r2, r3, r7}
    45fc:	2b00000e 	blcs	463c <_start-0x39c4>
    4600:	00008f18 	andeq	r8, r0, r8, lsl pc
    4604:	00000e52 	andeq	r0, r0, r2, asr lr
    4608:	008f2c29 	addeq	r2, pc, r9, lsr #24
    460c:	000e5d00 	andeq	r5, lr, r0, lsl #26
    4610:	000a2400 	andeq	r2, sl, r0, lsl #8
    4614:	50012a00 	andpl	r2, r1, r0, lsl #20
    4618:	9b140305 	blls	505234 <__bss_end__+0x4fb2a4>
    461c:	012a0000 			; <UNDEFINED> instruction: 0x012a0000
    4620:	94030551 	strls	r0, [r3], #-1361	; 0xfffffaaf
    4624:	2a00009a 	bcs	4894 <_start-0x376c>
    4628:	03055201 	movweq	r5, #20993	; 0x5201
    462c:	00009a88 	andeq	r9, r0, r8, lsl #21
    4630:	0253012a 	subseq	r0, r3, #-2147483638	; 0x8000000a
    4634:	2b009808 	blcs	2a65c <__bss_end__+0x206cc>
    4638:	00008f30 	andeq	r8, r0, r0, lsr pc
    463c:	00000e68 	andeq	r0, r0, r8, ror #28
    4640:	008f5c29 	addeq	r5, pc, r9, lsr #24
    4644:	000b7600 	andeq	r7, fp, r0, lsl #12
    4648:	000a5a00 	andeq	r5, sl, r0, lsl #20
    464c:	50012a00 	andpl	r2, r1, r0, lsl #20
    4650:	012a3a01 			; <UNDEFINED> instruction: 0x012a3a01
    4654:	d8910351 	ldmle	r1, {r0, r4, r6, r8, r9}
    4658:	52012a7e 	andpl	r2, r1, #516096	; 0x7e000
    465c:	2a800802 	bcs	fe00666c <__bss_end__+0xfdffc6dc>
    4660:	02007d02 	andeq	r7, r0, #2, 26	; 0x80
    4664:	022a0074 	eoreq	r0, sl, #116	; 0x74
    4668:	3101047d 	tstcc	r1, sp, ror r4
    466c:	8f902900 	svchi	0x00902900
    4670:	0b760000 	bleq	1d84678 <__bss_end__+0x1d7a6e8>
    4674:	0a870000 	beq	fe1c467c <__bss_end__+0xfe1ba6ec>
    4678:	012a0000 			; <UNDEFINED> instruction: 0x012a0000
    467c:	2a3a0150 	bcs	e84bc4 <__bss_end__+0xe7ac34>
    4680:	91035101 	tstls	r3, r1, lsl #2
    4684:	012a7ed8 	ldrdeq	r7, [sl, -r8]!
    4688:	80080252 	andhi	r0, r8, r2, asr r2
    468c:	007d022a 	rsbseq	r0, sp, sl, lsr #4
    4690:	2a007402 	bcs	216a0 <__bss_end__+0x17710>
    4694:	01047d02 	tsteq	r4, r2, lsl #26
    4698:	c0290030 	eorgt	r0, r9, r0, lsr r0
    469c:	7600008f 	strvc	r0, [r0], -pc, lsl #1
    46a0:	b400000b 	strlt	r0, [r0], #-11
    46a4:	2a00000a 	bcs	46d4 <_start-0x392c>
    46a8:	40015001 	andmi	r5, r1, r1
    46ac:	0351012a 	cmpeq	r1, #-2147483638	; 0x8000000a
    46b0:	2a7ed891 	bcs	1fba8fc <__bss_end__+0x1fb096c>
    46b4:	08025201 	stmdaeq	r2, {r0, r9, ip, lr}
    46b8:	7d022a80 	vstrvc	s4, [r2, #-512]	; 0xfffffe00
    46bc:	00740200 	rsbseq	r0, r4, r0, lsl #4
    46c0:	047d022a 	ldrbteq	r0, [sp], #-554	; 0xfffffdd6
    46c4:	29003001 	stmdbcs	r0, {r0, ip, sp}
    46c8:	00008ff0 	strdeq	r8, [r0], -r0
    46cc:	00000b76 	andeq	r0, r0, r6, ror fp
    46d0:	00000ae1 	andeq	r0, r0, r1, ror #21
    46d4:	0150012a 	cmpeq	r0, sl, lsr #2
    46d8:	51012a32 	tstpl	r1, r2, lsr sl
    46dc:	7ed89103 	atnvce	f1, f3
    46e0:	0252012a 	subseq	r0, r2, #-2147483638	; 0x8000000a
    46e4:	022a8008 	eoreq	r8, sl, #8
    46e8:	7402007d 	strvc	r0, [r2], #-125	; 0xffffff83
    46ec:	7d022a00 	vstrvc	s4, [r2, #-0]
    46f0:	00300104 	eorseq	r0, r0, r4, lsl #2
    46f4:	00903429 	addseq	r3, r0, r9, lsr #8
    46f8:	000b7600 	andeq	r7, fp, r0, lsl #12
    46fc:	000b0e00 	andeq	r0, fp, r0, lsl #28
    4700:	50012a00 	andpl	r2, r1, r0, lsl #20
    4704:	012a3801 			; <UNDEFINED> instruction: 0x012a3801
    4708:	d8910351 	ldmle	r1, {r0, r4, r6, r8, r9}
    470c:	52012a7e 	andpl	r2, r1, #516096	; 0x7e000
    4710:	2a800802 	bcs	fe006720 <__bss_end__+0xfdffc790>
    4714:	02007d02 	andeq	r7, r0, #2, 26	; 0x80
    4718:	022a0074 	eoreq	r0, sl, #116	; 0x74
    471c:	3001047d 	andcc	r0, r1, sp, ror r4
    4720:	903c2b00 	eorsls	r2, ip, r0, lsl #22
    4724:	0e520000 	cdpeq	0, 5, cr0, cr2, cr0, {0}
    4728:	58290000 	stmdapl	r9!, {}	; <UNPREDICTABLE>
    472c:	5d000090 	stcpl	0, cr0, [r0, #-576]	; 0xfffffdc0
    4730:	4600000e 	strmi	r0, [r0], -lr
    4734:	2a00000b 	bcs	4768 <_start-0x3898>
    4738:	03055001 	movweq	r5, #20481	; 0x5001
    473c:	00009b3c 	andeq	r9, r0, ip, lsr fp
    4740:	0551012a 	ldrbeq	r0, [r1, #-298]	; 0xfffffed6
    4744:	009a9403 	addseq	r9, sl, r3, lsl #8
    4748:	52012a00 	andpl	r2, r1, #0, 20
    474c:	9a880305 	bls	fe205368 <__bss_end__+0xfe1fb3d8>
    4750:	012a0000 			; <UNDEFINED> instruction: 0x012a0000
    4754:	b9080253 	stmdblt	r8, {r0, r1, r4, r6, r9}
    4758:	905c2b00 	subsls	r2, ip, r0, lsl #22
    475c:	0e680000 	cdpeq	0, 6, cr0, cr8, cr0, {0}
    4760:	00000000 	andeq	r0, r0, r0
    4764:	00011408 	andeq	r1, r1, r8, lsl #8
    4768:	000b6100 	andeq	r6, fp, r0, lsl #2
    476c:	00c70900 	sbceq	r0, r7, r0, lsl #18
    4770:	00090000 	andeq	r0, r9, r0
    4774:	000b510e 	andeq	r5, fp, lr, lsl #2
    4778:	010d0800 	tsteq	sp, r0, lsl #16
    477c:	0b760000 	bleq	1d84784 <__bss_end__+0x1d7a7f4>
    4780:	c7090000 	strgt	r0, [r9, -r0]
    4784:	7f000000 	svcvc	0x00000000
    4788:	0cf72c00 	ldcleq	12, cr2, [r7]
    478c:	47010000 	strmi	r0, [r1, -r0]
    4790:	00000107 	andeq	r0, r0, r7, lsl #2
    4794:	00008bfc 	strdeq	r8, [r0], -ip
    4798:	0000019c 	muleq	r0, ip, r1
    479c:	0cb19c01 	ldceq	12, cr9, [r1], #4
    47a0:	022d0000 	eoreq	r0, sp, #0
    47a4:	01000002 	tsteq	r0, r2
    47a8:	00002c47 	andeq	r2, r0, r7, asr #24
    47ac:	00092f00 	andeq	r2, r9, r0, lsl #30
    47b0:	73642200 	cmnvc	r4, #0, 4
    47b4:	47010074 	smlsdxmi	r1, r4, r0, r0
    47b8:	00000107 	andeq	r0, r0, r7, lsl #2
    47bc:	0000095d 	andeq	r0, r0, sp, asr r9
    47c0:	01006e22 	tsteq	r0, r2, lsr #28
    47c4:	00002547 	andeq	r2, r0, r7, asr #10
    47c8:	00097b00 	andeq	r7, r9, r0, lsl #22
    47cc:	61762200 	cmnvs	r6, r0, lsl #4
    47d0:	4701006c 	strmi	r0, [r1, -ip, rrx]
    47d4:	00000025 	andeq	r0, r0, r5, lsr #32
    47d8:	00000999 	muleq	r0, r9, r9
    47dc:	000cd32d 	andeq	sp, ip, sp, lsr #6
    47e0:	25470100 	strbcs	r0, [r7, #-256]	; 0xffffff00
    47e4:	0d000000 	stceq	0, cr0, [r0, #-0]
    47e8:	2300000a 	movwcs	r0, #10
    47ec:	00000cc2 	andeq	r0, r0, r2, asr #25
    47f0:	00254701 	eoreq	r4, r5, r1, lsl #14
    47f4:	91020000 	mrsls	r0, (UNDEF: 2)
    47f8:	75622704 	strbvc	r2, [r2, #-1796]!	; 0xfffff8fc
    47fc:	4c010066 	stcmi	0, cr0, [r1], {102}	; 0x66
    4800:	00000cb1 			; <UNDEFINED> instruction: 0x00000cb1
    4804:	7fa89103 	svcvc	0x00a89103
    4808:	01007024 	tsteq	r0, r4, lsr #32
    480c:	0001074c 	andeq	r0, r1, ip, asr #14
    4810:	000a3700 	andeq	r3, sl, r0, lsl #14
    4814:	00752400 	rsbseq	r2, r5, r0, lsl #8
    4818:	002c4d01 	eoreq	r4, ip, r1, lsl #26
    481c:	0ae90000 	beq	ffa44824 <__bss_end__+0xffa3a894>
    4820:	74250000 	strtvc	r0, [r5], #-0
    4824:	d1000004 	tstle	r0, r4
    4828:	0500000c 	streq	r0, [r0, #-12]
    482c:	009a7003 	addseq	r7, sl, r3
    4830:	8c682e00 	stclhi	14, cr2, [r8], #-0
    4834:	007c0000 	rsbseq	r0, ip, r0
    4838:	0c3b0000 	ldceq	0, cr0, [fp], #-0
    483c:	e1280000 			; <UNDEFINED> instruction: 0xe1280000
    4840:	0100000c 	tsteq	r0, ip
    4844:	00002c52 	andeq	r2, r0, r2, asr ip
    4848:	000b5400 	andeq	r5, fp, r0, lsl #8
    484c:	10290000 	eorne	r0, r9, r0
    4850:	4200008d 	andmi	r0, r0, #141	; 0x8d
    4854:	4f00000d 	svcmi	0x0000000d
    4858:	2a00000c 	bcs	4890 <_start-0x3770>
    485c:	7d025101 	stfvcs	f5, [r2, #-4]
    4860:	24290000 	strtcs	r0, [r9], #-0
    4864:	d600008d 	strle	r0, [r0], -sp, lsl #1
    4868:	6f00000c 	svcvs	0x0000000c
    486c:	2a00000c 	bcs	48a4 <_start-0x375c>
    4870:	75025001 	strvc	r5, [r2, #-1]
    4874:	51012a00 	tstpl	r1, r0, lsl #20
    4878:	2a007402 	bcs	21888 <__bss_end__+0x178f8>
    487c:	7d025301 	stcvc	3, cr5, [r2, #-4]
    4880:	642b0000 	strtvs	r0, [fp], #-0
    4884:	5200008d 	andpl	r0, r0, #141	; 0x8d
    4888:	2900000e 	stmdbcs	r0, {r1, r2, r3}
    488c:	00008d78 	andeq	r8, r0, r8, ror sp
    4890:	00000e5d 	andeq	r0, r0, sp, asr lr
    4894:	00000ca7 	andeq	r0, r0, r7, lsr #25
    4898:	0550012a 	ldrbeq	r0, [r0, #-298]	; 0xfffffed6
    489c:	009aa803 	addseq	sl, sl, r3, lsl #16
    48a0:	51012a00 	tstpl	r1, r0, lsl #20
    48a4:	9a940305 	bls	fe5054c0 <__bss_end__+0xfe4fb530>
    48a8:	012a0000 			; <UNDEFINED> instruction: 0x012a0000
    48ac:	70030552 	andvc	r0, r3, r2, asr r5
    48b0:	2a00009a 	bcs	4b20 <_start-0x34e0>
    48b4:	08025301 	stmdaeq	r2, {r0, r8, r9, ip, lr}
    48b8:	7c2b0075 	stcvc	0, cr0, [fp], #-468	; 0xfffffe2c
    48bc:	6800008d 	stmdavs	r0, {r0, r2, r3, r7}
    48c0:	0000000e 	andeq	r0, r0, lr
    48c4:	00010d08 	andeq	r0, r1, r8, lsl #26
    48c8:	000cc100 	andeq	ip, ip, r0, lsl #2
    48cc:	00c70900 	sbceq	r0, r7, r0, lsl #18
    48d0:	003f0000 	eorseq	r0, pc, r0
    48d4:	00011408 	andeq	r1, r1, r8, lsl #8
    48d8:	000cd100 	andeq	sp, ip, r0, lsl #2
    48dc:	00c70900 	sbceq	r0, r7, r0, lsl #18
    48e0:	00040000 	andeq	r0, r4, r0
    48e4:	000cc10e 	andeq	ip, ip, lr, lsl #2
    48e8:	0ccb2c00 	stcleq	12, cr2, [fp], {0}
    48ec:	37010000 	strcc	r0, [r1, -r0]
    48f0:	00000107 	andeq	r0, r0, r7, lsl #2
    48f4:	00008bbc 			; <UNDEFINED> instruction: 0x00008bbc
    48f8:	00000040 	andeq	r0, r0, r0, asr #32
    48fc:	0d429c01 	stcleq	12, cr9, [r2, #-4]
    4900:	64220000 	strtvs	r0, [r2], #-0
    4904:	01007473 	tsteq	r0, r3, ror r4
    4908:	00010737 	andeq	r0, r1, r7, lsr r7
    490c:	000b8b00 	andeq	r8, fp, r0, lsl #22
    4910:	006e2200 	rsbeq	r2, lr, r0, lsl #4
    4914:	00253701 	eoreq	r3, r5, r1, lsl #14
    4918:	0bc30000 	bleq	ff0c4920 <__bss_end__+0xff0ba990>
    491c:	70220000 	eorvc	r0, r2, r0
    4920:	07370100 	ldreq	r0, [r7, -r0, lsl #2]!
    4924:	e4000001 	str	r0, [r0], #-1
    4928:	2d00000b 	stccs	0, cr0, [r0, #-44]	; 0xffffffd4
    492c:	00000b6b 	andeq	r0, r0, fp, ror #22
    4930:	01073701 	tsteq	r7, r1, lsl #14
    4934:	0c1a0000 	ldceq	0, cr0, [sl], {-0}
    4938:	6c240000 	stcvs	0, cr0, [r4], #-0
    493c:	01006e65 	tsteq	r0, r5, ror #28
    4940:	00002539 	andeq	r2, r0, r9, lsr r5
    4944:	000c3800 	andeq	r3, ip, r0, lsl #16
    4948:	00732700 	rsbseq	r2, r3, r0, lsl #14
    494c:	01073d01 	tsteq	r7, r1, lsl #26
    4950:	50010000 	andpl	r0, r1, r0
    4954:	61702f00 	cmnvs	r0, r0, lsl #30
    4958:	2e010064 	cdpcs	0, 0, cr0, cr1, cr4, {3}
    495c:	00000107 	andeq	r0, r0, r7, lsl #2
    4960:	00008b90 	muleq	r0, r0, fp
    4964:	0000002c 	andeq	r0, r0, ip, lsr #32
    4968:	0d929c01 	ldceq	12, cr9, [r2, #4]
    496c:	70220000 	eorvc	r0, r2, r0
    4970:	072e0100 	streq	r0, [lr, -r0, lsl #2]!
    4974:	97000001 	strls	r0, [r0, -r1]
    4978:	2d00000c 	stccs	0, cr0, [r0, #-48]	; 0xffffffd0
    497c:	00000202 	andeq	r0, r0, r2, lsl #4
    4980:	01072e01 	tsteq	r7, r1, lsl #28
    4984:	0cc20000 	stcleq	0, cr0, [r2], {0}
    4988:	d3230000 			; <UNDEFINED> instruction: 0xd3230000
    498c:	0100000c 	tsteq	r0, ip
    4990:	0000252e 	andeq	r2, r0, lr, lsr #10
    4994:	27520100 	ldrbcs	r0, [r2, -r0, lsl #2]
    4998:	006e656c 	rsbeq	r6, lr, ip, ror #10
    499c:	00252f01 	eoreq	r2, r5, r1, lsl #30
    49a0:	51010000 	mrspl	r0, (UNDEF: 1)
    49a4:	0cef2c00 	stcleq	12, cr2, [pc]	; 49ac <_start-0x3654>
    49a8:	27010000 	strcs	r0, [r1, -r0]
    49ac:	00000025 	andeq	r0, r0, r5, lsr #32
    49b0:	00008b7c 	andeq	r8, r0, ip, ror fp
    49b4:	00000014 	andeq	r0, r0, r4, lsl r0
    49b8:	0db99c01 	ldceq	12, cr9, [r9, #4]!
    49bc:	63220000 			; <UNDEFINED> instruction: 0x63220000
    49c0:	25270100 	strcs	r0, [r7, #-256]!	; 0xffffff00
    49c4:	e3000000 	movw	r0, #0
    49c8:	0000000c 	andeq	r0, r0, ip
    49cc:	000cb330 	andeq	fp, ip, r0, lsr r3
    49d0:	981f0100 	ldmdals	pc, {r8}	; <UNPREDICTABLE>
    49d4:	5400008d 	strpl	r0, [r0], #-141	; 0xffffff73
    49d8:	01000000 	mrseq	r0, (UNDEF: 0)
    49dc:	000e3d9c 	muleq	lr, ip, sp
    49e0:	0ce72d00 	stcleq	13, cr2, [r7]
    49e4:	1f010000 	svcne	0x00010000
    49e8:	00000898 	muleq	r0, r8, r8
    49ec:	00000d11 	andeq	r0, r0, r1, lsl sp
    49f0:	000cd92d 	andeq	sp, ip, sp, lsr #18
    49f4:	b81f0100 	ldmdalt	pc, {r8}	; <UNPREDICTABLE>
    49f8:	32000008 	andcc	r0, r0, #8
    49fc:	2500000d 	strcs	r0, [r0, #-13]
    4a00:	00000474 	andeq	r0, r0, r4, ror r4
    4a04:	00000e4d 	andeq	r0, r0, sp, asr #28
    4a08:	9a780305 	bls	1e05624 <__bss_end__+0x1dfb694>
    4a0c:	c02b0000 	eorgt	r0, fp, r0
    4a10:	5200008d 	andpl	r0, r0, #141	; 0x8d
    4a14:	2900000e 	stmdbcs	r0, {r1, r2, r3}
    4a18:	00008dd4 	ldrdeq	r8, [r0], -r4
    4a1c:	00000e5d 	andeq	r0, r0, sp, asr lr
    4a20:	00000e33 	andeq	r0, r0, r3, lsr lr
    4a24:	0550012a 	ldrbeq	r0, [r0, #-298]	; 0xfffffed6
    4a28:	009ae003 	addseq	lr, sl, r3
    4a2c:	51012a00 	tstpl	r1, r0, lsl #20
    4a30:	9a940305 	bls	fe50564c <__bss_end__+0xfe4fb6bc>
    4a34:	012a0000 			; <UNDEFINED> instruction: 0x012a0000
    4a38:	78030552 	stmdavc	r3, {r1, r4, r6, r8, sl}
    4a3c:	2a00009a 	bcs	4cac <_start-0x3354>
    4a40:	08025301 	stmdaeq	r2, {r0, r8, r9, ip, lr}
    4a44:	d82b0020 	stmdale	fp!, {r5}
    4a48:	6800008d 	stmdavs	r0, {r0, r2, r3, r7}
    4a4c:	0000000e 	andeq	r0, r0, lr
    4a50:	00011408 	andeq	r1, r1, r8, lsl #8
    4a54:	000e4d00 	andeq	r4, lr, r0, lsl #26
    4a58:	00c70900 	sbceq	r0, r7, r0, lsl #18
    4a5c:	000e0000 	andeq	r0, lr, r0
    4a60:	000e3d0e 	andeq	r3, lr, lr, lsl #26
    4a64:	03883100 	orreq	r3, r8, #0, 2
    4a68:	03880000 	orreq	r0, r8, #0
    4a6c:	1e060000 	cdpne	0, 0, cr0, cr6, cr0, {0}
    4a70:	000bfb31 	andeq	pc, fp, r1, lsr fp	; <UNPREDICTABLE>
    4a74:	000bfb00 	andeq	pc, fp, r0, lsl #22
    4a78:	31290600 			; <UNDEFINED> instruction: 0x31290600
    4a7c:	0000067e 	andeq	r0, r0, lr, ror r6
    4a80:	0000067e 	andeq	r0, r0, lr, ror r6
    4a84:	eb006506 	bl	1dea4 <__bss_end__+0x13f14>
    4a88:	04000008 	streq	r0, [r0], #-8
    4a8c:	000bcc00 	andeq	ip, fp, r0, lsl #24
    4a90:	11010400 	tstne	r1, r0, lsl #8
    4a94:	0c00000c 	stceq	0, cr0, [r0], {12}
    4a98:	00000d0a 	andeq	r0, r0, sl, lsl #26
    4a9c:	00000c78 	andeq	r0, r0, r8, ror ip
    4aa0:	000090ac 	andeq	r9, r0, ip, lsr #1
    4aa4:	00000034 	andeq	r0, r0, r4, lsr r0
    4aa8:	000006bd 			; <UNDEFINED> instruction: 0x000006bd
    4aac:	69050402 	stmdbvs	r5, {r1, sl}
    4ab0:	0300746e 	movweq	r7, #1134	; 0x46e
    4ab4:	01570704 	cmpeq	r7, r4, lsl #14
    4ab8:	01030000 	mrseq	r0, (UNDEF: 3)
    4abc:	00061806 	andeq	r1, r6, r6, lsl #16
    4ac0:	05020300 	streq	r0, [r2, #-768]	; 0xfffffd00
    4ac4:	00000663 	andeq	r0, r0, r3, ror #12
    4ac8:	cb050403 	blgt	145adc <__bss_end__+0x13bb4c>
    4acc:	03000001 	movweq	r0, #1
    4ad0:	01c60508 	biceq	r0, r6, r8, lsl #10
    4ad4:	01030000 	mrseq	r0, (UNDEF: 3)
    4ad8:	00061608 	andeq	r1, r6, r8, lsl #12
    4adc:	07020300 	streq	r0, [r2, -r0, lsl #6]
    4ae0:	0000041d 	andeq	r0, r0, sp, lsl r4
    4ae4:	52070403 	andpl	r0, r7, #50331648	; 0x3000000
    4ae8:	03000001 	movweq	r0, #1
    4aec:	014d0708 	cmpeq	sp, r8, lsl #14
    4af0:	e1040000 	mrs	r0, (UNDEF: 4)
    4af4:	02000005 	andeq	r0, r0, #5
    4af8:	00002507 	andeq	r2, r0, r7, lsl #10
    4afc:	059d0400 	ldreq	r0, [sp, #1024]	; 0x400
    4b00:	2c030000 	stccs	0, cr0, [r3], {-0}
    4b04:	00000041 	andeq	r0, r0, r1, asr #32
    4b08:	00076104 	andeq	r6, r7, r4, lsl #2
    4b0c:	41720300 	cmnmi	r2, r0, lsl #6
    4b10:	05000000 	streq	r0, [r0, #-0]
    4b14:	00000481 	andeq	r0, r0, r1, lsl #9
    4b18:	2c016504 	cfstr32cs	mvfx6, [r1], {4}
    4b1c:	06000000 	streq	r0, [r0], -r0
    4b20:	b7a60304 	strlt	r0, [r6, r4, lsl #6]!
    4b24:	07000000 	streq	r0, [r0, -r0]
    4b28:	0000046e 	andeq	r0, r0, lr, ror #8
    4b2c:	008ca803 	addeq	sl, ip, r3, lsl #16
    4b30:	81070000 	mrshi	r0, (UNDEF: 7)
    4b34:	03000003 	movweq	r0, #3
    4b38:	0000b7a9 	andeq	fp, r0, r9, lsr #15
    4b3c:	4f080000 	svcmi	0x00080000
    4b40:	c7000000 	strgt	r0, [r0, -r0]
    4b44:	09000000 	stmdbeq	r0, {}	; <UNPREDICTABLE>
    4b48:	000000c7 	andeq	r0, r0, r7, asr #1
    4b4c:	04030003 	streq	r0, [r3], #-3
    4b50:	00050d07 	andeq	r0, r5, r7, lsl #26
    4b54:	03080a00 	movweq	r0, #35328	; 0x8a00
    4b58:	0000efa3 	andeq	lr, r0, r3, lsr #31
    4b5c:	073d0b00 	ldreq	r0, [sp, -r0, lsl #22]!
    4b60:	a5030000 	strge	r0, [r3, #-0]
    4b64:	00000025 	andeq	r0, r0, r5, lsr #32
    4b68:	07e40b00 	strbeq	r0, [r4, r0, lsl #22]!
    4b6c:	aa030000 	bge	c4b74 <__bss_end__+0xbabe4>
    4b70:	00000098 	muleq	r0, r8, r0
    4b74:	98040004 	stmdals	r4, {r2}
    4b78:	03000006 	movweq	r0, #6
    4b7c:	0000ceab 	andeq	ip, r0, fp, lsr #29
    4b80:	031f0400 	tsteq	pc, #0, 8
    4b84:	af030000 	svcge	0x00030000
    4b88:	0000006b 	andeq	r0, r0, fp, rrx
    4b8c:	040d040c 	streq	r0, [sp], #-1036	; 0xfffffbf4
    4b90:	0000010d 	andeq	r0, r0, sp, lsl #2
    4b94:	1f080103 	svcne	0x00080103
    4b98:	0e000006 	cdpeq	0, 0, cr0, cr0, cr6, {0}
    4b9c:	0000010d 	andeq	r0, r0, sp, lsl #2
    4ba0:	00081e04 	andeq	r1, r8, r4, lsl #28
    4ba4:	5d160500 	cfldr32pl	mvfx0, [r6, #-0]
    4ba8:	0f000000 	svceq	0x00000000
    4bac:	00000330 	andeq	r0, r0, r0, lsr r3
    4bb0:	772d0518 			; <UNDEFINED> instruction: 0x772d0518
    4bb4:	0b000001 	bleq	4bc0 <_start-0x3440>
    4bb8:	000006c9 	andeq	r0, r0, r9, asr #13
    4bbc:	01772f05 	cmneq	r7, r5, lsl #30
    4bc0:	10000000 	andne	r0, r0, r0
    4bc4:	05006b5f 	streq	r6, [r0, #-2911]	; 0xfffff4a1
    4bc8:	00002530 	andeq	r2, r0, r0, lsr r5
    4bcc:	160b0400 	strne	r0, [fp], -r0, lsl #8
    4bd0:	05000007 	streq	r0, [r0, #-7]
    4bd4:	00002530 	andeq	r2, r0, r0, lsr r5
    4bd8:	190b0800 	stmdbne	fp, {fp}
    4bdc:	05000003 	streq	r0, [r0, #-3]
    4be0:	00002530 	andeq	r2, r0, r0, lsr r5
    4be4:	b20b0c00 	andlt	r0, fp, #0, 24
    4be8:	05000008 	streq	r0, [r0, #-8]
    4bec:	00002530 	andeq	r2, r0, r0, lsr r5
    4bf0:	5f101000 	svcpl	0x00101000
    4bf4:	31050078 	tstcc	r5, r8, ror r0
    4bf8:	0000017d 	andeq	r0, r0, sp, ror r1
    4bfc:	040d0014 	streq	r0, [sp], #-20	; 0xffffffec
    4c00:	00000124 	andeq	r0, r0, r4, lsr #2
    4c04:	00011908 	andeq	r1, r1, r8, lsl #18
    4c08:	00018d00 	andeq	r8, r1, r0, lsl #26
    4c0c:	00c70900 	sbceq	r0, r7, r0, lsl #18
    4c10:	00000000 	andeq	r0, r0, r0
    4c14:	0003730f 	andeq	r7, r3, pc, lsl #6
    4c18:	35052400 	strcc	r2, [r5, #-1024]	; 0xfffffc00
    4c1c:	00000206 	andeq	r0, r0, r6, lsl #4
    4c20:	0001bd0b 	andeq	fp, r1, fp, lsl #26
    4c24:	25370500 	ldrcs	r0, [r7, #-1280]!	; 0xfffffb00
    4c28:	00000000 	andeq	r0, r0, r0
    4c2c:	0007890b 	andeq	r8, r7, fp, lsl #18
    4c30:	25380500 	ldrcs	r0, [r8, #-1280]!	; 0xfffffb00
    4c34:	04000000 	streq	r0, [r0], #-0
    4c38:	0002070b 	andeq	r0, r2, fp, lsl #14
    4c3c:	25390500 	ldrcs	r0, [r9, #-1280]!	; 0xfffffb00
    4c40:	08000000 	stmdaeq	r0, {}	; <UNPREDICTABLE>
    4c44:	0009bc0b 	andeq	fp, r9, fp, lsl #24
    4c48:	253a0500 	ldrcs	r0, [sl, #-1280]!	; 0xfffffb00
    4c4c:	0c000000 	stceq	0, cr0, [r0], {-0}
    4c50:	0005620b 	andeq	r6, r5, fp, lsl #4
    4c54:	253b0500 	ldrcs	r0, [fp, #-1280]!	; 0xfffffb00
    4c58:	10000000 	andne	r0, r0, r0
    4c5c:	0004d00b 	andeq	sp, r4, fp
    4c60:	253c0500 	ldrcs	r0, [ip, #-1280]!	; 0xfffffb00
    4c64:	14000000 	strne	r0, [r0], #-0
    4c68:	0008b70b 	andeq	fp, r8, fp, lsl #14
    4c6c:	253d0500 	ldrcs	r0, [sp, #-1280]!	; 0xfffffb00
    4c70:	18000000 	stmdane	r0, {}	; <UNPREDICTABLE>
    4c74:	00066d0b 	andeq	r6, r6, fp, lsl #26
    4c78:	253e0500 	ldrcs	r0, [lr, #-1280]!	; 0xfffffb00
    4c7c:	1c000000 	stcne	0, cr0, [r0], {-0}
    4c80:	0009360b 	andeq	r3, r9, fp, lsl #12
    4c84:	253f0500 	ldrcs	r0, [pc, #-1280]!	; 478c <_start-0x3874>
    4c88:	20000000 	andcs	r0, r0, r0
    4c8c:	02161100 	andseq	r1, r6, #0, 2
    4c90:	01080000 	mrseq	r0, (UNDEF: 8)
    4c94:	02464805 	subeq	r4, r6, #327680	; 0x50000
    4c98:	eb0b0000 	bl	2c4ca0 <__bss_end__+0x2bad10>
    4c9c:	05000002 	streq	r0, [r0, #-2]
    4ca0:	00024649 	andeq	r4, r2, r9, asr #12
    4ca4:	000b0000 	andeq	r0, fp, r0
    4ca8:	05000000 	streq	r0, [r0, #-0]
    4cac:	0002464a 	andeq	r4, r2, sl, asr #12
    4cb0:	ab128000 	blge	4a4cb8 <__bss_end__+0x49ad28>
    4cb4:	05000007 	streq	r0, [r0, #-7]
    4cb8:	0001194c 	andeq	r1, r1, ip, asr #18
    4cbc:	12010000 	andne	r0, r1, #0
    4cc0:	00000260 	andeq	r0, r0, r0, ror #4
    4cc4:	01194f05 	tsteq	r9, r5, lsl #30
    4cc8:	01040000 	mrseq	r0, (UNDEF: 4)
    4ccc:	01050800 	tsteq	r5, r0, lsl #16
    4cd0:	02560000 	subseq	r0, r6, #0
    4cd4:	c7090000 	strgt	r0, [r9, -r0]
    4cd8:	1f000000 	svcne	0x00000000
    4cdc:	057c1100 	ldrbeq	r1, [ip, #-256]!	; 0xffffff00
    4ce0:	01900000 	orrseq	r0, r0, r0
    4ce4:	02945b05 	addseq	r5, r4, #5120	; 0x1400
    4ce8:	c90b0000 	stmdbgt	fp, {}	; <UNPREDICTABLE>
    4cec:	05000006 	streq	r0, [r0, #-6]
    4cf0:	0002945c 	andeq	r9, r2, ip, asr r4
    4cf4:	f70b0000 			; <UNDEFINED> instruction: 0xf70b0000
    4cf8:	05000006 	streq	r0, [r0, #-6]
    4cfc:	0000255d 	andeq	r2, r0, sp, asr r5
    4d00:	140b0400 	strne	r0, [fp], #-1024	; 0xfffffc00
    4d04:	05000003 	streq	r0, [r0, #-3]
    4d08:	00029a5f 	andeq	r9, r2, pc, asr sl
    4d0c:	160b0800 	strne	r0, [fp], -r0, lsl #16
    4d10:	05000002 	streq	r0, [r0, #-2]
    4d14:	00020660 	andeq	r0, r2, r0, ror #12
    4d18:	0d008800 	stceq	8, cr8, [r0, #-0]
    4d1c:	00025604 	andeq	r5, r2, r4, lsl #12
    4d20:	02aa0800 	adceq	r0, sl, #0, 16
    4d24:	02aa0000 	adceq	r0, sl, #0
    4d28:	c7090000 	strgt	r0, [r9, -r0]
    4d2c:	1f000000 	svcne	0x00000000
    4d30:	b0040d00 	andlt	r0, r4, r0, lsl #26
    4d34:	13000002 	movwne	r0, #2
    4d38:	0006770f 	andeq	r7, r6, pc, lsl #14
    4d3c:	73050800 	movwvc	r0, #22528	; 0x5800
    4d40:	000002d6 	ldrdeq	r0, [r0], -r6
    4d44:	0002010b 	andeq	r0, r2, fp, lsl #2
    4d48:	d6740500 	ldrbtle	r0, [r4], -r0, lsl #10
    4d4c:	00000002 	andeq	r0, r0, r2
    4d50:	0000a60b 	andeq	sl, r0, fp, lsl #12
    4d54:	25750500 	ldrbcs	r0, [r5, #-1280]!	; 0xfffffb00
    4d58:	04000000 	streq	r0, [r0], #-0
    4d5c:	4f040d00 	svcmi	0x00040d00
    4d60:	0f000000 	svceq	0x00000000
    4d64:	000006a3 	andeq	r0, r0, r3, lsr #13
    4d68:	06b30568 	ldrteq	r0, [r3], r8, ror #10
    4d6c:	10000004 	andne	r0, r0, r4
    4d70:	0500705f 	streq	r7, [r0, #-95]	; 0xffffffa1
    4d74:	0002d6b4 			; <UNDEFINED> instruction: 0x0002d6b4
    4d78:	5f100000 	svcpl	0x00100000
    4d7c:	b5050072 	strlt	r0, [r5, #-114]	; 0xffffff8e
    4d80:	00000025 	andeq	r0, r0, r5, lsr #32
    4d84:	775f1004 	ldrbvc	r1, [pc, -r4]
    4d88:	25b60500 	ldrcs	r0, [r6, #1280]!	; 0x500
    4d8c:	08000000 	stmdaeq	r0, {}	; <UNPREDICTABLE>
    4d90:	0002590b 	andeq	r5, r2, fp, lsl #18
    4d94:	3ab70500 	bcc	fedc619c <__bss_end__+0xfedbc20c>
    4d98:	0c000000 	stceq	0, cr0, [r0], {-0}
    4d9c:	0003b20b 	andeq	fp, r3, fp, lsl #4
    4da0:	3ab80500 	bcc	fee061a8 <__bss_end__+0xfedfc218>
    4da4:	0e000000 	cdpeq	0, 0, cr0, cr0, cr0, {0}
    4da8:	66625f10 	uqadd16vs	r5, r2, r0
    4dac:	b1b90500 			; <UNDEFINED> instruction: 0xb1b90500
    4db0:	10000002 	andne	r0, r0, r2
    4db4:	00016d0b 	andeq	r6, r1, fp, lsl #26
    4db8:	25ba0500 	ldrcs	r0, [sl, #1280]!	; 0x500
    4dbc:	18000000 	stmdane	r0, {}	; <UNPREDICTABLE>
    4dc0:	0002240b 	andeq	r2, r2, fp, lsl #8
    4dc4:	05c10500 	strbeq	r0, [r1, #1280]	; 0x500
    4dc8:	1c000001 	stcne	0, cr0, [r0], {1}
    4dcc:	00089a0b 	andeq	r9, r8, fp, lsl #20
    4dd0:	61c30500 	bicvs	r0, r3, r0, lsl #10
    4dd4:	20000005 	andcs	r0, r0, r5
    4dd8:	0001790b 	andeq	r7, r1, fp, lsl #18
    4ddc:	8bc50500 	blhi	ff1461e4 <__bss_end__+0xff13c254>
    4de0:	24000005 	strcs	r0, [r0], #-5
    4de4:	00074e0b 	andeq	r4, r7, fp, lsl #28
    4de8:	afc80500 	svcge	0x00c80500
    4dec:	28000005 	stmdacs	r0, {r0, r2}
    4df0:	0009500b 	andeq	r5, r9, fp
    4df4:	c9c90500 	stmibgt	r9, {r8, sl}^
    4df8:	2c000005 	stccs	0, cr0, [r0], {5}
    4dfc:	62755f10 	rsbsvs	r5, r5, #16, 30	; 0x40
    4e00:	b1cc0500 	biclt	r0, ip, r0, lsl #10
    4e04:	30000002 	andcc	r0, r0, r2
    4e08:	70755f10 	rsbsvc	r5, r5, r0, lsl pc
    4e0c:	d6cd0500 	strble	r0, [sp], r0, lsl #10
    4e10:	38000002 	stmdacc	r0, {r1}
    4e14:	72755f10 	rsbsvc	r5, r5, #16, 30	; 0x40
    4e18:	25ce0500 	strbcs	r0, [lr, #1280]	; 0x500
    4e1c:	3c000000 	stccc	0, cr0, [r0], {-0}
    4e20:	0001f30b 	andeq	pc, r1, fp, lsl #6
    4e24:	cfd10500 	svcgt	0x00d10500
    4e28:	40000005 	andmi	r0, r0, r5
    4e2c:	0009110b 	andeq	r1, r9, fp, lsl #2
    4e30:	dfd20500 	svcle	0x00d20500
    4e34:	43000005 	movwmi	r0, #5
    4e38:	626c5f10 	rsbvs	r5, ip, #16, 30	; 0x40
    4e3c:	b1d50500 	bicslt	r0, r5, r0, lsl #10
    4e40:	44000002 	strmi	r0, [r0], #-2
    4e44:	0002760b 	andeq	r7, r2, fp, lsl #12
    4e48:	25d80500 	ldrbcs	r0, [r8, #1280]	; 0x500
    4e4c:	4c000000 	stcmi	0, cr0, [r0], {-0}
    4e50:	0002ac0b 	andeq	sl, r2, fp, lsl #24
    4e54:	76d90500 	ldrbvc	r0, [r9], r0, lsl #10
    4e58:	50000000 	andpl	r0, r0, r0
    4e5c:	0006440b 	andeq	r4, r6, fp, lsl #8
    4e60:	24dc0500 	ldrbcs	r0, [ip], #1280	; 0x500
    4e64:	54000004 	strpl	r0, [r0], #-4
    4e68:	00106a0b 	andseq	r6, r0, fp, lsl #20
    4e6c:	fae00500 	blx	ff806274 <__bss_end__+0xff7fc2e4>
    4e70:	58000000 	stmdapl	r0, {}	; <UNPREDICTABLE>
    4e74:	0006bb0b 	andeq	fp, r6, fp, lsl #22
    4e78:	efe20500 	svc	0x00e20500
    4e7c:	5c000000 	stcpl	0, cr0, [r0], {-0}
    4e80:	00049e0b 	andeq	r9, r4, fp, lsl #28
    4e84:	25e30500 	strbcs	r0, [r3, #1280]!	; 0x500
    4e88:	64000000 	strvs	r0, [r0], #-0
    4e8c:	00251400 	eoreq	r1, r5, r0, lsl #8
    4e90:	04240000 	strteq	r0, [r4], #-0
    4e94:	24150000 	ldrcs	r0, [r5], #-0
    4e98:	15000004 	strne	r0, [r0, #-4]
    4e9c:	00000105 	andeq	r0, r0, r5, lsl #2
    4ea0:	00010715 	andeq	r0, r1, r5, lsl r7
    4ea4:	00251500 	eoreq	r1, r5, r0, lsl #10
    4ea8:	0d000000 	stceq	0, cr0, [r0, #-0]
    4eac:	00042f04 	andeq	r2, r4, r4, lsl #30
    4eb0:	04240e00 	strteq	r0, [r4], #-3584	; 0xfffff200
    4eb4:	1e160000 	cdpne	0, 1, cr0, cr6, cr0, {0}
    4eb8:	28000007 	stmdacs	r0, {r0, r1, r2}
    4ebc:	02380504 	eorseq	r0, r8, #4, 10	; 0x1000000
    4ec0:	00000561 	andeq	r0, r0, r1, ror #10
    4ec4:	00065c17 	andeq	r5, r6, r7, lsl ip
    4ec8:	023a0500 	eorseq	r0, sl, #0, 10
    4ecc:	00000025 	andeq	r0, r0, r5, lsr #32
    4ed0:	02681700 	rsbeq	r1, r8, #0, 14
    4ed4:	3f050000 	svccc	0x00050000
    4ed8:	00063602 	andeq	r3, r6, r2, lsl #12
    4edc:	97170400 	ldrls	r0, [r7, -r0, lsl #8]
    4ee0:	05000003 	streq	r0, [r0, #-3]
    4ee4:	0636023f 			; <UNDEFINED> instruction: 0x0636023f
    4ee8:	17080000 	strne	r0, [r8, -r0]
    4eec:	00000328 	andeq	r0, r0, r8, lsr #6
    4ef0:	36023f05 	strcc	r3, [r2], -r5, lsl #30
    4ef4:	0c000006 	stceq	0, cr0, [r0], {6}
    4ef8:	0006f217 	andeq	pc, r6, r7, lsl r2	; <UNPREDICTABLE>
    4efc:	02410500 	subeq	r0, r1, #0, 10
    4f00:	00000025 	andeq	r0, r0, r5, lsr #32
    4f04:	00ed1710 	rsceq	r1, sp, r0, lsl r7
    4f08:	42050000 	andmi	r0, r5, #0
    4f0c:	00081802 	andeq	r1, r8, r2, lsl #16
    4f10:	5c171400 	cfldrspl	mvf1, [r7], {-0}
    4f14:	05000008 	streq	r0, [r0, #-8]
    4f18:	00250244 	eoreq	r0, r5, r4, asr #4
    4f1c:	17300000 	ldrne	r0, [r0, -r0]!
    4f20:	000006fc 	strdeq	r0, [r0], -ip
    4f24:	85024505 	strhi	r4, [r2, #-1285]	; 0xfffffafb
    4f28:	34000005 	strcc	r0, [r0], #-5
    4f2c:	00059217 	andeq	r9, r5, r7, lsl r2
    4f30:	02470500 	subeq	r0, r7, #0, 10
    4f34:	00000025 	andeq	r0, r0, r5, lsr #32
    4f38:	070c1738 	smladxeq	ip, r8, r7, r1
    4f3c:	49050000 	stmdbmi	r5, {}	; <UNPREDICTABLE>
    4f40:	00083302 	andeq	r3, r8, r2, lsl #6
    4f44:	66173c00 	ldrvs	r3, [r7], -r0, lsl #24
    4f48:	05000004 	streq	r0, [r0, #-4]
    4f4c:	0177024c 	cmneq	r7, ip, asr #4
    4f50:	17400000 	strbne	r0, [r0, -r0]
    4f54:	0000035d 	andeq	r0, r0, sp, asr r3
    4f58:	25024d05 	strcs	r4, [r2, #-3333]	; 0xfffff2fb
    4f5c:	44000000 	strmi	r0, [r0], #-0
    4f60:	00097317 	andeq	r7, r9, r7, lsl r3
    4f64:	024e0500 	subeq	r0, lr, #0, 10
    4f68:	00000177 	andeq	r0, r0, r7, ror r1
    4f6c:	05c71748 	strbeq	r1, [r7, #1864]	; 0x748
    4f70:	4f050000 	svcmi	0x00050000
    4f74:	00083902 	andeq	r3, r8, r2, lsl #18
    4f78:	9f174c00 	svcls	0x00174c00
    4f7c:	05000003 	streq	r0, [r0, #-3]
    4f80:	00250252 	eoreq	r0, r5, r2, asr r2
    4f84:	17500000 	ldrbne	r0, [r0, -r0]
    4f88:	000002a4 	andeq	r0, r0, r4, lsr #5
    4f8c:	07025305 	streq	r5, [r2, -r5, lsl #6]
    4f90:	54000001 	strpl	r0, [r0], #-1
    4f94:	00112c17 	andseq	r2, r1, r7, lsl ip
    4f98:	02760500 	rsbseq	r0, r6, #0, 10
    4f9c:	000007f6 	strdeq	r0, [r0], -r6
    4fa0:	057c1858 	ldrbeq	r1, [ip, #-2136]!	; 0xfffff7a8
    4fa4:	7a050000 	bvc	144fac <__bss_end__+0x13b01c>
    4fa8:	00029402 	andeq	r9, r2, r2, lsl #8
    4fac:	18014800 	stmdane	r1, {fp, lr}
    4fb0:	00000430 	andeq	r0, r0, r0, lsr r4
    4fb4:	56027b05 	strpl	r7, [r2], -r5, lsl #22
    4fb8:	4c000002 	stcmi	0, cr0, [r0], {2}
    4fbc:	08e21801 	stmiaeq	r2!, {r0, fp, ip}^
    4fc0:	7f050000 	svcvc	0x00050000
    4fc4:	00084a02 	andeq	r4, r8, r2, lsl #20
    4fc8:	1802dc00 	stmdane	r2, {sl, fp, ip, lr, pc}
    4fcc:	0000022c 	andeq	r0, r0, ip, lsr #4
    4fd0:	fb028405 	blx	a5fee <__bss_end__+0x9c05e>
    4fd4:	e0000005 	and	r0, r0, r5
    4fd8:	02111802 	andseq	r1, r1, #131072	; 0x20000
    4fdc:	85050000 	strhi	r0, [r5, #-0]
    4fe0:	00085602 	andeq	r5, r8, r2, lsl #12
    4fe4:	0002ec00 	andeq	lr, r2, r0, lsl #24
    4fe8:	0406040d 	streq	r0, [r6], #-1037	; 0xfffffbf3
    4fec:	25140000 	ldrcs	r0, [r4, #-0]
    4ff0:	85000000 	strhi	r0, [r0, #-0]
    4ff4:	15000005 	strne	r0, [r0, #-5]
    4ff8:	00000424 	andeq	r0, r0, r4, lsr #8
    4ffc:	00010515 	andeq	r0, r1, r5, lsl r5
    5000:	05851500 	streq	r1, [r5, #1280]	; 0x500
    5004:	25150000 	ldrcs	r0, [r5, #-0]
    5008:	00000000 	andeq	r0, r0, r0
    500c:	0114040d 	tsteq	r4, sp, lsl #8
    5010:	040d0000 	streq	r0, [sp], #-0
    5014:	00000567 	andeq	r0, r0, r7, ror #10
    5018:	00008114 	andeq	r8, r0, r4, lsl r1
    501c:	0005af00 	andeq	sl, r5, r0, lsl #30
    5020:	04241500 	strteq	r1, [r4], #-1280	; 0xfffffb00
    5024:	05150000 	ldreq	r0, [r5, #-0]
    5028:	15000001 	strne	r0, [r0, #-1]
    502c:	00000081 	andeq	r0, r0, r1, lsl #1
    5030:	00002515 	andeq	r2, r0, r5, lsl r5
    5034:	040d0000 	streq	r0, [sp], #-0
    5038:	00000591 	muleq	r0, r1, r5
    503c:	00002514 	andeq	r2, r0, r4, lsl r5
    5040:	0005c900 	andeq	ip, r5, r0, lsl #18
    5044:	04241500 	strteq	r1, [r4], #-1280	; 0xfffffb00
    5048:	05150000 	ldreq	r0, [r5, #-0]
    504c:	00000001 	andeq	r0, r0, r1
    5050:	05b5040d 	ldreq	r0, [r5, #1037]!	; 0x40d
    5054:	4f080000 	svcmi	0x00080000
    5058:	df000000 	svcle	0x00000000
    505c:	09000005 	stmdbeq	r0, {r0, r2}
    5060:	000000c7 	andeq	r0, r0, r7, asr #1
    5064:	4f080002 	svcmi	0x00080002
    5068:	ef000000 	svc	0x00000000
    506c:	09000005 	stmdbeq	r0, {r0, r2}
    5070:	000000c7 	andeq	r0, r0, r7, asr #1
    5074:	91050000 	mrsls	r0, (UNDEF: 5)
    5078:	05000006 	streq	r0, [r0, #-6]
    507c:	02dc011d 	sbcseq	r0, ip, #1073741831	; 0x40000007
    5080:	c1190000 	tstgt	r9, r0
    5084:	0c000008 	stceq	0, cr0, [r0], {8}
    5088:	30012105 	andcc	r2, r1, r5, lsl #2
    508c:	17000006 	strne	r0, [r0, -r6]
    5090:	000006c9 	andeq	r0, r0, r9, asr #13
    5094:	30012305 	andcc	r2, r1, r5, lsl #6
    5098:	00000006 	andeq	r0, r0, r6
    509c:	00040017 	andeq	r0, r4, r7, lsl r0
    50a0:	01240500 			; <UNDEFINED> instruction: 0x01240500
    50a4:	00000025 	andeq	r0, r0, r5, lsr #32
    50a8:	068b1704 	streq	r1, [fp], r4, lsl #14
    50ac:	25050000 	strcs	r0, [r5, #-0]
    50b0:	00063601 	andeq	r3, r6, r1, lsl #12
    50b4:	0d000800 	stceq	8, cr0, [r0, #-0]
    50b8:	0005fb04 	andeq	pc, r5, r4, lsl #22
    50bc:	ef040d00 	svc	0x00040d00
    50c0:	19000005 	stmdbne	r0, {r0, r2}
    50c4:	000000d1 	ldrdeq	r0, [r0], -r1
    50c8:	013d050e 	teqeq	sp, lr, lsl #10
    50cc:	00000671 	andeq	r0, r0, r1, ror r6
    50d0:	00072e17 	andeq	r2, r7, r7, lsl lr
    50d4:	013e0500 	teqeq	lr, r0, lsl #10
    50d8:	00000671 	andeq	r0, r0, r1, ror r6
    50dc:	07d11700 	ldrbeq	r1, [r1, r0, lsl #14]
    50e0:	3f050000 	svccc	0x00050000
    50e4:	00067101 	andeq	r7, r6, r1, lsl #2
    50e8:	10170600 	andsne	r0, r7, r0, lsl #12
    50ec:	05000008 	streq	r0, [r0, #-8]
    50f0:	00560140 	subseq	r0, r6, r0, asr #2
    50f4:	000c0000 	andeq	r0, ip, r0
    50f8:	00005608 	andeq	r5, r0, r8, lsl #12
    50fc:	00068100 	andeq	r8, r6, r0, lsl #2
    5100:	00c70900 	sbceq	r0, r7, r0, lsl #18
    5104:	00020000 	andeq	r0, r2, r0
    5108:	5705d01a 	smladpl	r5, sl, r0, sp
    510c:	00078202 	andeq	r8, r7, r2, lsl #4
    5110:	088a1700 	stmeq	sl, {r8, r9, sl, ip}
    5114:	59050000 	stmdbpl	r5, {}	; <UNPREDICTABLE>
    5118:	00002c02 	andeq	r2, r0, r2, lsl #24
    511c:	d7170000 	ldrle	r0, [r7, -r0]
    5120:	05000007 	streq	r0, [r0, #-7]
    5124:	0107025a 	tsteq	r7, sl, asr r2
    5128:	17040000 	strne	r0, [r4, -r0]
    512c:	00000445 	andeq	r0, r0, r5, asr #8
    5130:	82025b05 	andhi	r5, r2, #5120	; 0x1400
    5134:	08000007 	stmdaeq	r0, {r0, r1, r2}
    5138:	00094117 	andeq	r4, r9, r7, lsl r1
    513c:	025c0500 	subseq	r0, ip, #0, 10
    5140:	0000018d 	andeq	r0, r0, sp, lsl #3
    5144:	03381724 	teqeq	r8, #36, 14	; 0x900000
    5148:	5d050000 	stcpl	0, cr0, [r5, #-0]
    514c:	00002502 	andeq	r2, r0, r2, lsl #10
    5150:	c4174800 	ldrgt	r4, [r7], #-2048	; 0xfffff800
    5154:	05000006 	streq	r0, [r0, #-6]
    5158:	0064025e 	rsbeq	r0, r4, lr, asr r2
    515c:	17500000 	ldrbne	r0, [r0, -r0]
    5160:	00000957 	andeq	r0, r0, r7, asr r9
    5164:	3c025f05 	stccc	15, cr5, [r2], {5}
    5168:	58000006 	stmdapl	r0, {r1, r2}
    516c:	0006e517 	andeq	lr, r6, r7, lsl r5
    5170:	02600500 	rsbeq	r0, r0, #0, 10
    5174:	000000ef 	andeq	r0, r0, pc, ror #1
    5178:	09651768 	stmdbeq	r5!, {r3, r5, r6, r8, r9, sl, ip}^
    517c:	61050000 	mrsvs	r0, (UNDEF: 5)
    5180:	0000ef02 	andeq	lr, r0, r2, lsl #30
    5184:	af177000 	svcge	0x00177000
    5188:	05000001 	streq	r0, [r0, #-1]
    518c:	00ef0262 	rsceq	r0, pc, r2, ror #4
    5190:	17780000 	ldrbne	r0, [r8, -r0]!
    5194:	000008d8 	ldrdeq	r0, [r0], -r8
    5198:	92026305 	andls	r6, r2, #335544320	; 0x14000000
    519c:	80000007 	andhi	r0, r0, r7
    51a0:	00043917 	andeq	r3, r4, r7, lsl r9
    51a4:	02640500 	rsbeq	r0, r4, #0, 10
    51a8:	000007a2 	andeq	r0, r0, r2, lsr #15
    51ac:	08261788 	stmdaeq	r6!, {r3, r7, r8, r9, sl, ip}
    51b0:	65050000 	strvs	r0, [r5, #-0]
    51b4:	00002502 	andeq	r2, r0, r2, lsl #10
    51b8:	dd17a000 	ldcle	0, cr10, [r7, #-0]
    51bc:	05000002 	streq	r0, [r0, #-2]
    51c0:	00ef0266 	rsceq	r0, pc, r6, ror #4
    51c4:	17a40000 	strne	r0, [r4, r0]!
    51c8:	0000018b 	andeq	r0, r0, fp, lsl #3
    51cc:	ef026705 	svc	0x00026705
    51d0:	ac000000 	stcge	0, cr0, [r0], {-0}
    51d4:	0002c317 	andeq	ip, r2, r7, lsl r3
    51d8:	02680500 	rsbeq	r0, r8, #0, 10
    51dc:	000000ef 	andeq	r0, r0, pc, ror #1
    51e0:	012d17b4 			; <UNDEFINED> instruction: 0x012d17b4
    51e4:	69050000 	stmdbvs	r5, {}	; <UNPREDICTABLE>
    51e8:	0000ef02 	andeq	lr, r0, r2, lsl #30
    51ec:	3c17bc00 	ldccc	12, cr11, [r7], {-0}
    51f0:	05000001 	streq	r0, [r0, #-1]
    51f4:	00ef026a 	rsceq	r0, pc, sl, ror #4
    51f8:	17c40000 	strbne	r0, [r4, r0]
    51fc:	0000065a 	andeq	r0, r0, sl, asr r6
    5200:	25026b05 	strcs	r6, [r2, #-2821]	; 0xfffff4fb
    5204:	cc000000 	stcgt	0, cr0, [r0], {-0}
    5208:	010d0800 	tsteq	sp, r0, lsl #16
    520c:	07920000 	ldreq	r0, [r2, r0]
    5210:	c7090000 	strgt	r0, [r9, -r0]
    5214:	19000000 	stmdbne	r0, {}	; <UNPREDICTABLE>
    5218:	010d0800 	tsteq	sp, r0, lsl #16
    521c:	07a20000 	streq	r0, [r2, r0]!
    5220:	c7090000 	strgt	r0, [r9, -r0]
    5224:	07000000 	streq	r0, [r0, -r0]
    5228:	010d0800 	tsteq	sp, r0, lsl #16
    522c:	07b20000 	ldreq	r0, [r2, r0]!
    5230:	c7090000 	strgt	r0, [r9, -r0]
    5234:	17000000 	strne	r0, [r0, -r0]
    5238:	05f01a00 	ldrbeq	r1, [r0, #2560]!	; 0xa00
    523c:	07d60270 			; <UNDEFINED> instruction: 0x07d60270
    5240:	51170000 	tstpl	r7, r0
    5244:	05000005 	streq	r0, [r0, #-5]
    5248:	07d60273 			; <UNDEFINED> instruction: 0x07d60273
    524c:	17000000 	strne	r0, [r0, -r0]
    5250:	000004f8 	strdeq	r0, [r0], -r8
    5254:	e6027405 	str	r7, [r2], -r5, lsl #8
    5258:	78000007 	stmdavc	r0, {r0, r1, r2}
    525c:	02d60800 	sbcseq	r0, r6, #0, 16
    5260:	07e60000 	strbeq	r0, [r6, r0]!
    5264:	c7090000 	strgt	r0, [r9, -r0]
    5268:	1d000000 	stcne	0, cr0, [r0, #-0]
    526c:	002c0800 	eoreq	r0, ip, r0, lsl #16
    5270:	07f60000 	ldrbeq	r0, [r6, r0]!
    5274:	c7090000 	strgt	r0, [r9, -r0]
    5278:	1d000000 	stcne	0, cr0, [r0, #-0]
    527c:	05f01b00 	ldrbeq	r1, [r0, #2816]!	; 0xb00
    5280:	08180255 	ldmdaeq	r8, {r0, r2, r4, r6, r9}
    5284:	1e1c0000 	cdpne	0, 1, cr0, cr12, cr0, {0}
    5288:	05000007 	streq	r0, [r0, #-7]
    528c:	0681026c 	streq	r0, [r1], ip, ror #4
    5290:	171c0000 	ldrne	r0, [ip, -r0]
    5294:	05000009 	streq	r0, [r0, #-9]
    5298:	07b20275 			; <UNDEFINED> instruction: 0x07b20275
    529c:	08000000 	stmdaeq	r0, {}	; <UNPREDICTABLE>
    52a0:	0000010d 	andeq	r0, r0, sp, lsl #2
    52a4:	00000828 	andeq	r0, r0, r8, lsr #16
    52a8:	0000c709 	andeq	ip, r0, r9, lsl #14
    52ac:	1d001800 	stcne	8, cr1, [r0, #-0]
    52b0:	00000833 	andeq	r0, r0, r3, lsr r8
    52b4:	00042415 	andeq	r2, r4, r5, lsl r4
    52b8:	040d0000 	streq	r0, [sp], #-0
    52bc:	00000828 	andeq	r0, r0, r8, lsr #16
    52c0:	0177040d 	cmneq	r7, sp, lsl #8
    52c4:	4a1d0000 	bmi	7452cc <__bss_end__+0x73b33c>
    52c8:	15000008 	strne	r0, [r0, #-8]
    52cc:	00000025 	andeq	r0, r0, r5, lsr #32
    52d0:	50040d00 	andpl	r0, r4, r0, lsl #26
    52d4:	0d000008 	stceq	0, cr0, [r0, #-32]	; 0xffffffe0
    52d8:	00083f04 	andeq	r3, r8, r4, lsl #30
    52dc:	05ef0800 	strbeq	r0, [pc, #2048]!	; 5ae4 <_start-0x251c>
    52e0:	08660000 	stmdaeq	r6!, {}^	; <UNPREDICTABLE>
    52e4:	c7090000 	strgt	r0, [r9, -r0]
    52e8:	02000000 	andeq	r0, r0, #0
    52ec:	08501e00 	ldmdaeq	r0, {r9, sl, fp, ip}^
    52f0:	fd050000 	stc2	0, cr0, [r5, #-0]
    52f4:	00042402 	andeq	r2, r4, r2, lsl #8
    52f8:	08491e00 	stmdaeq	r9, {r9, sl, fp, ip}^
    52fc:	fe050000 	cdp2	0, 0, cr0, cr5, cr0, {0}
    5300:	00042a02 	andeq	r2, r4, r2, lsl #20
    5304:	00251400 	eoreq	r1, r5, r0, lsl #8
    5308:	088d0000 	stmeq	sp, {}	; <UNPREDICTABLE>
    530c:	25150000 	ldrcs	r0, [r5, #-0]
    5310:	00000000 	andeq	r0, r0, r0
    5314:	0003671f 	andeq	r6, r3, pc, lsl r7
    5318:	981d0600 	ldmdals	sp, {r9, sl}
    531c:	0d000008 	stceq	0, cr0, [r0, #-32]	; 0xffffffe0
    5320:	00087e04 	andeq	r7, r8, r4, lsl #28
    5324:	00251400 	eoreq	r1, r5, r0, lsl #8
    5328:	08ad0000 	stmiaeq	sp!, {}	; <UNPREDICTABLE>
    532c:	85150000 	ldrhi	r0, [r5, #-0]
    5330:	00000005 	andeq	r0, r0, r5
    5334:	000d051f 	andeq	r0, sp, pc, lsl r5
    5338:	b8220600 	stmdalt	r2!, {r9, sl}
    533c:	0d000008 	stceq	0, cr0, [r0, #-32]	; 0xffffffe0
    5340:	00089e04 	andeq	r9, r8, r4, lsl #28
    5344:	08ad2000 	stmiaeq	sp!, {sp}
    5348:	0c010000 	stceq	0, cr0, [r1], {-0}
    534c:	960c0305 	strls	r0, [ip], -r5, lsl #6
    5350:	fc210000 	stc2	0, cr0, [r1], #-0
    5354:	0100000c 	tsteq	r0, ip
    5358:	00002504 	andeq	r2, r0, r4, lsl #10
    535c:	0090ac00 	addseq	sl, r0, r0, lsl #24
    5360:	00003400 	andeq	r3, r0, r0, lsl #8
    5364:	229c0100 	addscs	r0, ip, #0, 2
    5368:	04010070 	streq	r0, [r1], #-112	; 0xffffff90
    536c:	00000585 	andeq	r0, r0, r5, lsl #11
    5370:	00000d53 	andeq	r0, r0, r3, asr sp
    5374:	093d0000 	ldmdbeq	sp!, {}	; <UNPREDICTABLE>
    5378:	00040000 	andeq	r0, r4, r0
    537c:	00000d88 	andeq	r0, r0, r8, lsl #27
    5380:	0c110104 	ldfeqs	f0, [r1], {4}
    5384:	3e0c0000 	cdpcc	0, 0, cr0, cr12, cr0, {0}
    5388:	7800000d 	stmdavc	r0, {r0, r2, r3}
    538c:	e000000c 	and	r0, r0, ip
    5390:	3c000090 	stccc	0, cr0, [r0], {144}	; 0x90
    5394:	9c000000 	stcls	0, cr0, [r0], {-0}
    5398:	02000007 	andeq	r0, r0, #7
    539c:	6e690504 	cdpvs	5, 6, cr0, cr9, cr4, {0}
    53a0:	04030074 	streq	r0, [r3], #-116	; 0xffffff8c
    53a4:	00015707 	andeq	r5, r1, r7, lsl #14
    53a8:	06010300 	streq	r0, [r1], -r0, lsl #6
    53ac:	00000618 	andeq	r0, r0, r8, lsl r6
    53b0:	63050203 	movwvs	r0, #20995	; 0x5203
    53b4:	03000006 	movweq	r0, #6
    53b8:	01cb0504 	biceq	r0, fp, r4, lsl #10
    53bc:	08030000 	stmdaeq	r3, {}	; <UNPREDICTABLE>
    53c0:	0001c605 	andeq	ip, r1, r5, lsl #12
    53c4:	08010300 	stmdaeq	r1, {r8, r9}
    53c8:	00000616 	andeq	r0, r0, r6, lsl r6
    53cc:	1d070203 	sfmne	f0, 4, [r7, #-12]
    53d0:	03000004 	movweq	r0, #4
    53d4:	01520704 	cmpeq	r2, r4, lsl #14
    53d8:	08030000 	stmdaeq	r3, {}	; <UNPREDICTABLE>
    53dc:	00014d07 	andeq	r4, r1, r7, lsl #26
    53e0:	05e10400 	strbeq	r0, [r1, #1024]!	; 0x400
    53e4:	07020000 	streq	r0, [r2, -r0]
    53e8:	00000025 	andeq	r0, r0, r5, lsr #32
    53ec:	00059d04 	andeq	r9, r5, r4, lsl #26
    53f0:	412c0300 			; <UNDEFINED> instruction: 0x412c0300
    53f4:	04000000 	streq	r0, [r0], #-0
    53f8:	00000761 	andeq	r0, r0, r1, ror #14
    53fc:	00417203 	subeq	r7, r1, r3, lsl #4
    5400:	81050000 	mrshi	r0, (UNDEF: 5)
    5404:	04000004 	streq	r0, [r0], #-4
    5408:	002c0165 	eoreq	r0, ip, r5, ror #2
    540c:	04060000 	streq	r0, [r6], #-0
    5410:	00b7a603 	adcseq	sl, r7, r3, lsl #12
    5414:	6e070000 	cdpvs	0, 0, cr0, cr7, cr0, {0}
    5418:	03000004 	movweq	r0, #4
    541c:	00008ca8 	andeq	r8, r0, r8, lsr #25
    5420:	03810700 	orreq	r0, r1, #0, 14
    5424:	a9030000 	stmdbge	r3, {}	; <UNPREDICTABLE>
    5428:	000000b7 	strheq	r0, [r0], -r7
    542c:	004f0800 	subeq	r0, pc, r0, lsl #16
    5430:	00c70000 	sbceq	r0, r7, r0
    5434:	c7090000 	strgt	r0, [r9, -r0]
    5438:	03000000 	movweq	r0, #0
    543c:	07040300 	streq	r0, [r4, -r0, lsl #6]
    5440:	0000050d 	andeq	r0, r0, sp, lsl #10
    5444:	a303080a 	movwge	r0, #14346	; 0x380a
    5448:	000000ef 	andeq	r0, r0, pc, ror #1
    544c:	00073d0b 	andeq	r3, r7, fp, lsl #26
    5450:	25a50300 	strcs	r0, [r5, #768]!	; 0x300
    5454:	00000000 	andeq	r0, r0, r0
    5458:	0007e40b 	andeq	lr, r7, fp, lsl #8
    545c:	98aa0300 	stmials	sl!, {r8, r9}
    5460:	04000000 	streq	r0, [r0], #-0
    5464:	06980400 	ldreq	r0, [r8], r0, lsl #8
    5468:	ab030000 	blge	c5470 <__bss_end__+0xbb4e0>
    546c:	000000ce 	andeq	r0, r0, lr, asr #1
    5470:	00031f04 	andeq	r1, r3, r4, lsl #30
    5474:	6baf0300 	blvs	febc607c <__bss_end__+0xfebbc0ec>
    5478:	0c000000 	stceq	0, cr0, [r0], {-0}
    547c:	0d040d04 	stceq	13, cr0, [r4, #-16]
    5480:	03000001 	movweq	r0, #1
    5484:	061f0801 	ldreq	r0, [pc], -r1, lsl #16
    5488:	0d0e0000 	stceq	0, cr0, [lr, #-0]
    548c:	04000001 	streq	r0, [r0], #-1
    5490:	0000081e 	andeq	r0, r0, lr, lsl r8
    5494:	005d1605 	subseq	r1, sp, r5, lsl #12
    5498:	300f0000 	andcc	r0, pc, r0
    549c:	18000003 	stmdane	r0, {r0, r1}
    54a0:	01772d05 	cmneq	r7, r5, lsl #26
    54a4:	c90b0000 	stmdbgt	fp, {}	; <UNPREDICTABLE>
    54a8:	05000006 	streq	r0, [r0, #-6]
    54ac:	0001772f 	andeq	r7, r1, pc, lsr #14
    54b0:	5f100000 	svcpl	0x00100000
    54b4:	3005006b 	andcc	r0, r5, fp, rrx
    54b8:	00000025 	andeq	r0, r0, r5, lsr #32
    54bc:	07160b04 	ldreq	r0, [r6, -r4, lsl #22]
    54c0:	30050000 	andcc	r0, r5, r0
    54c4:	00000025 	andeq	r0, r0, r5, lsr #32
    54c8:	03190b08 	tsteq	r9, #8, 22	; 0x2000
    54cc:	30050000 	andcc	r0, r5, r0
    54d0:	00000025 	andeq	r0, r0, r5, lsr #32
    54d4:	08b20b0c 	ldmeq	r2!, {r2, r3, r8, r9, fp}
    54d8:	30050000 	andcc	r0, r5, r0
    54dc:	00000025 	andeq	r0, r0, r5, lsr #32
    54e0:	785f1010 	ldmdavc	pc, {r4, ip}^	; <UNPREDICTABLE>
    54e4:	7d310500 	cfldr32vc	mvfx0, [r1, #-0]
    54e8:	14000001 	strne	r0, [r0], #-1
    54ec:	24040d00 	strcs	r0, [r4], #-3328	; 0xfffff300
    54f0:	08000001 	stmdaeq	r0, {r0}
    54f4:	00000119 	andeq	r0, r0, r9, lsl r1
    54f8:	0000018d 	andeq	r0, r0, sp, lsl #3
    54fc:	0000c709 	andeq	ip, r0, r9, lsl #14
    5500:	0f000000 	svceq	0x00000000
    5504:	00000373 	andeq	r0, r0, r3, ror r3
    5508:	06350524 	ldrteq	r0, [r5], -r4, lsr #10
    550c:	0b000002 	bleq	551c <_start-0x2ae4>
    5510:	000001bd 			; <UNDEFINED> instruction: 0x000001bd
    5514:	00253705 	eoreq	r3, r5, r5, lsl #14
    5518:	0b000000 	bleq	5520 <_start-0x2ae0>
    551c:	00000789 	andeq	r0, r0, r9, lsl #15
    5520:	00253805 	eoreq	r3, r5, r5, lsl #16
    5524:	0b040000 	bleq	10552c <__bss_end__+0xfb59c>
    5528:	00000207 	andeq	r0, r0, r7, lsl #4
    552c:	00253905 	eoreq	r3, r5, r5, lsl #18
    5530:	0b080000 	bleq	205538 <__bss_end__+0x1fb5a8>
    5534:	000009bc 			; <UNDEFINED> instruction: 0x000009bc
    5538:	00253a05 	eoreq	r3, r5, r5, lsl #20
    553c:	0b0c0000 	bleq	305544 <__bss_end__+0x2fb5b4>
    5540:	00000562 	andeq	r0, r0, r2, ror #10
    5544:	00253b05 	eoreq	r3, r5, r5, lsl #22
    5548:	0b100000 	bleq	405550 <__bss_end__+0x3fb5c0>
    554c:	000004d0 	ldrdeq	r0, [r0], -r0	; <UNPREDICTABLE>
    5550:	00253c05 	eoreq	r3, r5, r5, lsl #24
    5554:	0b140000 	bleq	50555c <__bss_end__+0x4fb5cc>
    5558:	000008b7 			; <UNDEFINED> instruction: 0x000008b7
    555c:	00253d05 	eoreq	r3, r5, r5, lsl #26
    5560:	0b180000 	bleq	605568 <__bss_end__+0x5fb5d8>
    5564:	0000066d 	andeq	r0, r0, sp, ror #12
    5568:	00253e05 	eoreq	r3, r5, r5, lsl #28
    556c:	0b1c0000 	bleq	705574 <__bss_end__+0x6fb5e4>
    5570:	00000936 	andeq	r0, r0, r6, lsr r9
    5574:	00253f05 	eoreq	r3, r5, r5, lsl #30
    5578:	00200000 	eoreq	r0, r0, r0
    557c:	00021611 	andeq	r1, r2, r1, lsl r6
    5580:	05010800 	streq	r0, [r1, #-2048]	; 0xfffff800
    5584:	00024648 	andeq	r4, r2, r8, asr #12
    5588:	02eb0b00 	rsceq	r0, fp, #0, 22
    558c:	49050000 	stmdbmi	r5, {}	; <UNPREDICTABLE>
    5590:	00000246 	andeq	r0, r0, r6, asr #4
    5594:	00000b00 	andeq	r0, r0, r0, lsl #22
    5598:	4a050000 	bmi	1455a0 <__bss_end__+0x13b610>
    559c:	00000246 	andeq	r0, r0, r6, asr #4
    55a0:	07ab1280 	streq	r1, [fp, r0, lsl #5]!
    55a4:	4c050000 	stcmi	0, cr0, [r5], {-0}
    55a8:	00000119 	andeq	r0, r0, r9, lsl r1
    55ac:	60120100 	andsvs	r0, r2, r0, lsl #2
    55b0:	05000002 	streq	r0, [r0, #-2]
    55b4:	0001194f 	andeq	r1, r1, pc, asr #18
    55b8:	00010400 	andeq	r0, r1, r0, lsl #8
    55bc:	00010508 	andeq	r0, r1, r8, lsl #10
    55c0:	00025600 	andeq	r5, r2, r0, lsl #12
    55c4:	00c70900 	sbceq	r0, r7, r0, lsl #18
    55c8:	001f0000 	andseq	r0, pc, r0
    55cc:	00057c11 	andeq	r7, r5, r1, lsl ip
    55d0:	05019000 	streq	r9, [r1, #-0]
    55d4:	0002945b 	andeq	r9, r2, fp, asr r4
    55d8:	06c90b00 	strbeq	r0, [r9], r0, lsl #22
    55dc:	5c050000 	stcpl	0, cr0, [r5], {-0}
    55e0:	00000294 	muleq	r0, r4, r2
    55e4:	06f70b00 	ldrbteq	r0, [r7], r0, lsl #22
    55e8:	5d050000 	stcpl	0, cr0, [r5, #-0]
    55ec:	00000025 	andeq	r0, r0, r5, lsr #32
    55f0:	03140b04 	tsteq	r4, #4, 22	; 0x1000
    55f4:	5f050000 	svcpl	0x00050000
    55f8:	0000029a 	muleq	r0, sl, r2
    55fc:	02160b08 	andseq	r0, r6, #8, 22	; 0x2000
    5600:	60050000 	andvs	r0, r5, r0
    5604:	00000206 	andeq	r0, r0, r6, lsl #4
    5608:	040d0088 	streq	r0, [sp], #-136	; 0xffffff78
    560c:	00000256 	andeq	r0, r0, r6, asr r2
    5610:	0002aa08 	andeq	sl, r2, r8, lsl #20
    5614:	0002aa00 	andeq	sl, r2, r0, lsl #20
    5618:	00c70900 	sbceq	r0, r7, r0, lsl #18
    561c:	001f0000 	andseq	r0, pc, r0
    5620:	02b0040d 	adcseq	r0, r0, #218103808	; 0xd000000
    5624:	0f130000 	svceq	0x00130000
    5628:	00000677 	andeq	r0, r0, r7, ror r6
    562c:	d6730508 	ldrbtle	r0, [r3], -r8, lsl #10
    5630:	0b000002 	bleq	5640 <_start-0x29c0>
    5634:	00000201 	andeq	r0, r0, r1, lsl #4
    5638:	02d67405 	sbcseq	r7, r6, #83886080	; 0x5000000
    563c:	0b000000 	bleq	5644 <_start-0x29bc>
    5640:	000000a6 	andeq	r0, r0, r6, lsr #1
    5644:	00257505 	eoreq	r7, r5, r5, lsl #10
    5648:	00040000 	andeq	r0, r4, r0
    564c:	004f040d 	subeq	r0, pc, sp, lsl #8
    5650:	a30f0000 	movwge	r0, #61440	; 0xf000
    5654:	68000006 	stmdavs	r0, {r1, r2}
    5658:	0406b305 	streq	fp, [r6], #-773	; 0xfffffcfb
    565c:	5f100000 	svcpl	0x00100000
    5660:	b4050070 	strlt	r0, [r5], #-112	; 0xffffff90
    5664:	000002d6 	ldrdeq	r0, [r0], -r6
    5668:	725f1000 	subsvc	r1, pc, #0
    566c:	25b50500 	ldrcs	r0, [r5, #1280]!	; 0x500
    5670:	04000000 	streq	r0, [r0], #-0
    5674:	00775f10 	rsbseq	r5, r7, r0, lsl pc
    5678:	0025b605 	eoreq	fp, r5, r5, lsl #12
    567c:	0b080000 	bleq	205684 <__bss_end__+0x1fb6f4>
    5680:	00000259 	andeq	r0, r0, r9, asr r2
    5684:	003ab705 	eorseq	fp, sl, r5, lsl #14
    5688:	0b0c0000 	bleq	305690 <__bss_end__+0x2fb700>
    568c:	000003b2 			; <UNDEFINED> instruction: 0x000003b2
    5690:	003ab805 	eorseq	fp, sl, r5, lsl #16
    5694:	100e0000 	andne	r0, lr, r0
    5698:	0066625f 	rsbeq	r6, r6, pc, asr r2
    569c:	02b1b905 	adcseq	fp, r1, #81920	; 0x14000
    56a0:	0b100000 	bleq	4056a8 <__bss_end__+0x3fb718>
    56a4:	0000016d 	andeq	r0, r0, sp, ror #2
    56a8:	0025ba05 	eoreq	fp, r5, r5, lsl #20
    56ac:	0b180000 	bleq	6056b4 <__bss_end__+0x5fb724>
    56b0:	00000224 	andeq	r0, r0, r4, lsr #4
    56b4:	0105c105 	tsteq	r5, r5, lsl #2
    56b8:	0b1c0000 	bleq	7056c0 <__bss_end__+0x6fb730>
    56bc:	0000089a 	muleq	r0, sl, r8
    56c0:	0561c305 	strbeq	ip, [r1, #-773]!	; 0xfffffcfb
    56c4:	0b200000 	bleq	8056cc <__bss_end__+0x7fb73c>
    56c8:	00000179 	andeq	r0, r0, r9, ror r1
    56cc:	058bc505 	streq	ip, [fp, #1285]	; 0x505
    56d0:	0b240000 	bleq	9056d8 <__bss_end__+0x8fb748>
    56d4:	0000074e 	andeq	r0, r0, lr, asr #14
    56d8:	05afc805 	streq	ip, [pc, #2053]!	; 5ee5 <_start-0x211b>
    56dc:	0b280000 	bleq	a056e4 <__bss_end__+0x9fb754>
    56e0:	00000950 	andeq	r0, r0, r0, asr r9
    56e4:	05c9c905 	strbeq	ip, [r9, #2309]	; 0x905
    56e8:	102c0000 	eorne	r0, ip, r0
    56ec:	0062755f 	rsbeq	r7, r2, pc, asr r5
    56f0:	02b1cc05 	adcseq	ip, r1, #1280	; 0x500
    56f4:	10300000 	eorsne	r0, r0, r0
    56f8:	0070755f 	rsbseq	r7, r0, pc, asr r5
    56fc:	02d6cd05 	sbcseq	ip, r6, #320	; 0x140
    5700:	10380000 	eorsne	r0, r8, r0
    5704:	0072755f 	rsbseq	r7, r2, pc, asr r5
    5708:	0025ce05 	eoreq	ip, r5, r5, lsl #28
    570c:	0b3c0000 	bleq	f05714 <__bss_end__+0xefb784>
    5710:	000001f3 	strdeq	r0, [r0], -r3
    5714:	05cfd105 	strbeq	sp, [pc, #261]	; 5821 <_start-0x27df>
    5718:	0b400000 	bleq	1005720 <__bss_end__+0xffb790>
    571c:	00000911 	andeq	r0, r0, r1, lsl r9
    5720:	05dfd205 	ldrbeq	sp, [pc, #517]	; 592d <_start-0x26d3>
    5724:	10430000 	subne	r0, r3, r0
    5728:	00626c5f 	rsbeq	r6, r2, pc, asr ip
    572c:	02b1d505 	adcseq	sp, r1, #20971520	; 0x1400000
    5730:	0b440000 	bleq	1105738 <__bss_end__+0x10fb7a8>
    5734:	00000276 	andeq	r0, r0, r6, ror r2
    5738:	0025d805 	eoreq	sp, r5, r5, lsl #16
    573c:	0b4c0000 	bleq	1305744 <__bss_end__+0x12fb7b4>
    5740:	000002ac 	andeq	r0, r0, ip, lsr #5
    5744:	0076d905 	rsbseq	sp, r6, r5, lsl #18
    5748:	0b500000 	bleq	1405750 <__bss_end__+0x13fb7c0>
    574c:	00000644 	andeq	r0, r0, r4, asr #12
    5750:	0424dc05 	strteq	sp, [r4], #-3077	; 0xfffff3fb
    5754:	0b540000 	bleq	150575c <__bss_end__+0x14fb7cc>
    5758:	0000106a 	andeq	r1, r0, sl, rrx
    575c:	00fae005 	rscseq	lr, sl, r5
    5760:	0b580000 	bleq	1605768 <__bss_end__+0x15fb7d8>
    5764:	000006bb 			; <UNDEFINED> instruction: 0x000006bb
    5768:	00efe205 	rsceq	lr, pc, r5, lsl #4
    576c:	0b5c0000 	bleq	1705774 <__bss_end__+0x16fb7e4>
    5770:	0000049e 	muleq	r0, lr, r4
    5774:	0025e305 	eoreq	lr, r5, r5, lsl #6
    5778:	00640000 	rsbeq	r0, r4, r0
    577c:	00002514 	andeq	r2, r0, r4, lsl r5
    5780:	00042400 	andeq	r2, r4, r0, lsl #8
    5784:	04241500 	strteq	r1, [r4], #-1280	; 0xfffffb00
    5788:	05150000 	ldreq	r0, [r5, #-0]
    578c:	15000001 	strne	r0, [r0, #-1]
    5790:	00000107 	andeq	r0, r0, r7, lsl #2
    5794:	00002515 	andeq	r2, r0, r5, lsl r5
    5798:	040d0000 	streq	r0, [sp], #-0
    579c:	0000042f 	andeq	r0, r0, pc, lsr #8
    57a0:	0004240e 	andeq	r2, r4, lr, lsl #8
    57a4:	071e1600 	ldreq	r1, [lr, -r0, lsl #12]
    57a8:	04280000 	strteq	r0, [r8], #-0
    57ac:	61023805 	tstvs	r2, r5, lsl #16
    57b0:	17000005 	strne	r0, [r0, -r5]
    57b4:	0000065c 	andeq	r0, r0, ip, asr r6
    57b8:	25023a05 	strcs	r3, [r2, #-2565]	; 0xfffff5fb
    57bc:	00000000 	andeq	r0, r0, r0
    57c0:	00026817 	andeq	r6, r2, r7, lsl r8
    57c4:	023f0500 	eorseq	r0, pc, #0, 10
    57c8:	00000636 	andeq	r0, r0, r6, lsr r6
    57cc:	03971704 	orrseq	r1, r7, #4, 14	; 0x100000
    57d0:	3f050000 	svccc	0x00050000
    57d4:	00063602 	andeq	r3, r6, r2, lsl #12
    57d8:	28170800 	ldmdacs	r7, {fp}
    57dc:	05000003 	streq	r0, [r0, #-3]
    57e0:	0636023f 			; <UNDEFINED> instruction: 0x0636023f
    57e4:	170c0000 	strne	r0, [ip, -r0]
    57e8:	000006f2 	strdeq	r0, [r0], -r2
    57ec:	25024105 	strcs	r4, [r2, #-261]	; 0xfffffefb
    57f0:	10000000 	andne	r0, r0, r0
    57f4:	0000ed17 	andeq	lr, r0, r7, lsl sp
    57f8:	02420500 	subeq	r0, r2, #0, 10
    57fc:	00000818 	andeq	r0, r0, r8, lsl r8
    5800:	085c1714 	ldmdaeq	ip, {r2, r4, r8, r9, sl, ip}^
    5804:	44050000 	strmi	r0, [r5], #-0
    5808:	00002502 	andeq	r2, r0, r2, lsl #10
    580c:	fc173000 	ldc2	0, cr3, [r7], {-0}
    5810:	05000006 	streq	r0, [r0, #-6]
    5814:	05850245 	streq	r0, [r5, #581]	; 0x245
    5818:	17340000 	ldrne	r0, [r4, -r0]!
    581c:	00000592 	muleq	r0, r2, r5
    5820:	25024705 	strcs	r4, [r2, #-1797]	; 0xfffff8fb
    5824:	38000000 	stmdacc	r0, {}	; <UNPREDICTABLE>
    5828:	00070c17 	andeq	r0, r7, r7, lsl ip
    582c:	02490500 	subeq	r0, r9, #0, 10
    5830:	00000833 	andeq	r0, r0, r3, lsr r8
    5834:	0466173c 	strbteq	r1, [r6], #-1852	; 0xfffff8c4
    5838:	4c050000 	stcmi	0, cr0, [r5], {-0}
    583c:	00017702 	andeq	r7, r1, r2, lsl #14
    5840:	5d174000 	ldcpl	0, cr4, [r7, #-0]
    5844:	05000003 	streq	r0, [r0, #-3]
    5848:	0025024d 	eoreq	r0, r5, sp, asr #4
    584c:	17440000 	strbne	r0, [r4, -r0]
    5850:	00000973 	andeq	r0, r0, r3, ror r9
    5854:	77024e05 	strvc	r4, [r2, -r5, lsl #28]
    5858:	48000001 	stmdami	r0, {r0}
    585c:	0005c717 	andeq	ip, r5, r7, lsl r7
    5860:	024f0500 	subeq	r0, pc, #0, 10
    5864:	00000839 	andeq	r0, r0, r9, lsr r8
    5868:	039f174c 	orrseq	r1, pc, #76, 14	; 0x1300000
    586c:	52050000 	andpl	r0, r5, #0
    5870:	00002502 	andeq	r2, r0, r2, lsl #10
    5874:	a4175000 	ldrge	r5, [r7], #-0
    5878:	05000002 	streq	r0, [r0, #-2]
    587c:	01070253 	tsteq	r7, r3, asr r2
    5880:	17540000 	ldrbne	r0, [r4, -r0]
    5884:	0000112c 	andeq	r1, r0, ip, lsr #2
    5888:	f6027605 			; <UNDEFINED> instruction: 0xf6027605
    588c:	58000007 	stmdapl	r0, {r0, r1, r2}
    5890:	00057c18 	andeq	r7, r5, r8, lsl ip
    5894:	027a0500 	rsbseq	r0, sl, #0, 10
    5898:	00000294 	muleq	r0, r4, r2
    589c:	30180148 	andscc	r0, r8, r8, asr #2
    58a0:	05000004 	streq	r0, [r0, #-4]
    58a4:	0256027b 	subseq	r0, r6, #-1342177273	; 0xb0000007
    58a8:	014c0000 	mrseq	r0, (UNDEF: 76)
    58ac:	0008e218 	andeq	lr, r8, r8, lsl r2
    58b0:	027f0500 	rsbseq	r0, pc, #0, 10
    58b4:	0000084a 	andeq	r0, r0, sl, asr #16
    58b8:	2c1802dc 	lfmcs	f0, 4, [r8], {220}	; 0xdc
    58bc:	05000002 	streq	r0, [r0, #-2]
    58c0:	05fb0284 	ldrbeq	r0, [fp, #644]!	; 0x284
    58c4:	02e00000 	rsceq	r0, r0, #0
    58c8:	00021118 	andeq	r1, r2, r8, lsl r1
    58cc:	02850500 	addeq	r0, r5, #0, 10
    58d0:	00000856 	andeq	r0, r0, r6, asr r8
    58d4:	0d0002ec 	sfmeq	f0, 4, [r0, #-944]	; 0xfffffc50
    58d8:	00040604 	andeq	r0, r4, r4, lsl #12
    58dc:	00251400 	eoreq	r1, r5, r0, lsl #8
    58e0:	05850000 	streq	r0, [r5]
    58e4:	24150000 	ldrcs	r0, [r5], #-0
    58e8:	15000004 	strne	r0, [r0, #-4]
    58ec:	00000105 	andeq	r0, r0, r5, lsl #2
    58f0:	00058515 	andeq	r8, r5, r5, lsl r5
    58f4:	00251500 	eoreq	r1, r5, r0, lsl #10
    58f8:	0d000000 	stceq	0, cr0, [r0, #-0]
    58fc:	00011404 	andeq	r1, r1, r4, lsl #8
    5900:	67040d00 	strvs	r0, [r4, -r0, lsl #26]
    5904:	14000005 	strne	r0, [r0], #-5
    5908:	00000081 	andeq	r0, r0, r1, lsl #1
    590c:	000005af 	andeq	r0, r0, pc, lsr #11
    5910:	00042415 	andeq	r2, r4, r5, lsl r4
    5914:	01051500 	tsteq	r5, r0, lsl #10
    5918:	81150000 	tsthi	r5, r0
    591c:	15000000 	strne	r0, [r0, #-0]
    5920:	00000025 	andeq	r0, r0, r5, lsr #32
    5924:	91040d00 	tstls	r4, r0, lsl #26
    5928:	14000005 	strne	r0, [r0], #-5
    592c:	00000025 	andeq	r0, r0, r5, lsr #32
    5930:	000005c9 	andeq	r0, r0, r9, asr #11
    5934:	00042415 	andeq	r2, r4, r5, lsl r4
    5938:	01051500 	tsteq	r5, r0, lsl #10
    593c:	0d000000 	stceq	0, cr0, [r0, #-0]
    5940:	0005b504 	andeq	fp, r5, r4, lsl #10
    5944:	004f0800 	subeq	r0, pc, r0, lsl #16
    5948:	05df0000 	ldrbeq	r0, [pc]	; 5950 <_start-0x26b0>
    594c:	c7090000 	strgt	r0, [r9, -r0]
    5950:	02000000 	andeq	r0, r0, #0
    5954:	004f0800 	subeq	r0, pc, r0, lsl #16
    5958:	05ef0000 	strbeq	r0, [pc, #0]!	; 5960 <_start-0x26a0>
    595c:	c7090000 	strgt	r0, [r9, -r0]
    5960:	00000000 	andeq	r0, r0, r0
    5964:	06910500 	ldreq	r0, [r1], r0, lsl #10
    5968:	1d050000 	stcne	0, cr0, [r5, #-0]
    596c:	0002dc01 	andeq	sp, r2, r1, lsl #24
    5970:	08c11900 	stmiaeq	r1, {r8, fp, ip}^
    5974:	050c0000 	streq	r0, [ip, #-0]
    5978:	06300121 	ldrteq	r0, [r0], -r1, lsr #2
    597c:	c9170000 	ldmdbgt	r7, {}	; <UNPREDICTABLE>
    5980:	05000006 	streq	r0, [r0, #-6]
    5984:	06300123 	ldrteq	r0, [r0], -r3, lsr #2
    5988:	17000000 	strne	r0, [r0, -r0]
    598c:	00000400 	andeq	r0, r0, r0, lsl #8
    5990:	25012405 	strcs	r2, [r1, #-1029]	; 0xfffffbfb
    5994:	04000000 	streq	r0, [r0], #-0
    5998:	00068b17 	andeq	r8, r6, r7, lsl fp
    599c:	01250500 			; <UNDEFINED> instruction: 0x01250500
    59a0:	00000636 	andeq	r0, r0, r6, lsr r6
    59a4:	040d0008 	streq	r0, [sp], #-8
    59a8:	000005fb 	strdeq	r0, [r0], -fp
    59ac:	05ef040d 	strbeq	r0, [pc, #1037]!	; 5dc1 <_start-0x223f>
    59b0:	d1190000 	tstle	r9, r0
    59b4:	0e000000 	cdpeq	0, 0, cr0, cr0, cr0, {0}
    59b8:	71013d05 	tstvc	r1, r5, lsl #26
    59bc:	17000006 	strne	r0, [r0, -r6]
    59c0:	0000072e 	andeq	r0, r0, lr, lsr #14
    59c4:	71013e05 	tstvc	r1, r5, lsl #28
    59c8:	00000006 	andeq	r0, r0, r6
    59cc:	0007d117 	andeq	sp, r7, r7, lsl r1
    59d0:	013f0500 	teqeq	pc, r0, lsl #10
    59d4:	00000671 	andeq	r0, r0, r1, ror r6
    59d8:	08101706 	ldmdaeq	r0, {r1, r2, r8, r9, sl, ip}
    59dc:	40050000 	andmi	r0, r5, r0
    59e0:	00005601 	andeq	r5, r0, r1, lsl #12
    59e4:	08000c00 	stmdaeq	r0, {sl, fp}
    59e8:	00000056 	andeq	r0, r0, r6, asr r0
    59ec:	00000681 	andeq	r0, r0, r1, lsl #13
    59f0:	0000c709 	andeq	ip, r0, r9, lsl #14
    59f4:	1a000200 	bne	61fc <_start-0x1e04>
    59f8:	025705d0 	subseq	r0, r7, #208, 10	; 0x34000000
    59fc:	00000782 	andeq	r0, r0, r2, lsl #15
    5a00:	00088a17 	andeq	r8, r8, r7, lsl sl
    5a04:	02590500 	subseq	r0, r9, #0, 10
    5a08:	0000002c 	andeq	r0, r0, ip, lsr #32
    5a0c:	07d71700 	ldrbeq	r1, [r7, r0, lsl #14]
    5a10:	5a050000 	bpl	145a18 <__bss_end__+0x13ba88>
    5a14:	00010702 	andeq	r0, r1, r2, lsl #14
    5a18:	45170400 	ldrmi	r0, [r7, #-1024]	; 0xfffffc00
    5a1c:	05000004 	streq	r0, [r0, #-4]
    5a20:	0782025b 			; <UNDEFINED> instruction: 0x0782025b
    5a24:	17080000 	strne	r0, [r8, -r0]
    5a28:	00000941 	andeq	r0, r0, r1, asr #18
    5a2c:	8d025c05 	stchi	12, cr5, [r2, #-20]	; 0xffffffec
    5a30:	24000001 	strcs	r0, [r0], #-1
    5a34:	00033817 	andeq	r3, r3, r7, lsl r8
    5a38:	025d0500 	subseq	r0, sp, #0, 10
    5a3c:	00000025 	andeq	r0, r0, r5, lsr #32
    5a40:	06c41748 	strbeq	r1, [r4], r8, asr #14
    5a44:	5e050000 	cdppl	0, 0, cr0, cr5, cr0, {0}
    5a48:	00006402 	andeq	r6, r0, r2, lsl #8
    5a4c:	57175000 	ldrpl	r5, [r7, -r0]
    5a50:	05000009 	streq	r0, [r0, #-9]
    5a54:	063c025f 			; <UNDEFINED> instruction: 0x063c025f
    5a58:	17580000 	ldrbne	r0, [r8, -r0]
    5a5c:	000006e5 	andeq	r0, r0, r5, ror #13
    5a60:	ef026005 	svc	0x00026005
    5a64:	68000000 	stmdavs	r0, {}	; <UNPREDICTABLE>
    5a68:	00096517 	andeq	r6, r9, r7, lsl r5
    5a6c:	02610500 	rsbeq	r0, r1, #0, 10
    5a70:	000000ef 	andeq	r0, r0, pc, ror #1
    5a74:	01af1770 			; <UNDEFINED> instruction: 0x01af1770
    5a78:	62050000 	andvs	r0, r5, #0
    5a7c:	0000ef02 	andeq	lr, r0, r2, lsl #30
    5a80:	d8177800 	ldmdale	r7, {fp, ip, sp, lr}
    5a84:	05000008 	streq	r0, [r0, #-8]
    5a88:	07920263 	ldreq	r0, [r2, r3, ror #4]
    5a8c:	17800000 	strne	r0, [r0, r0]
    5a90:	00000439 	andeq	r0, r0, r9, lsr r4
    5a94:	a2026405 	andge	r6, r2, #83886080	; 0x5000000
    5a98:	88000007 	stmdahi	r0, {r0, r1, r2}
    5a9c:	00082617 	andeq	r2, r8, r7, lsl r6
    5aa0:	02650500 	rsbeq	r0, r5, #0, 10
    5aa4:	00000025 	andeq	r0, r0, r5, lsr #32
    5aa8:	02dd17a0 	sbcseq	r1, sp, #160, 14	; 0x2800000
    5aac:	66050000 	strvs	r0, [r5], -r0
    5ab0:	0000ef02 	andeq	lr, r0, r2, lsl #30
    5ab4:	8b17a400 	blhi	5eeabc <__bss_end__+0x5e4b2c>
    5ab8:	05000001 	streq	r0, [r0, #-1]
    5abc:	00ef0267 	rsceq	r0, pc, r7, ror #4
    5ac0:	17ac0000 	strne	r0, [ip, r0]!
    5ac4:	000002c3 	andeq	r0, r0, r3, asr #5
    5ac8:	ef026805 	svc	0x00026805
    5acc:	b4000000 	strlt	r0, [r0], #-0
    5ad0:	00012d17 	andeq	r2, r1, r7, lsl sp
    5ad4:	02690500 	rsbeq	r0, r9, #0, 10
    5ad8:	000000ef 	andeq	r0, r0, pc, ror #1
    5adc:	013c17bc 	teqeq	ip, ip	; <illegal shifter operand>
    5ae0:	6a050000 	bvs	145ae8 <__bss_end__+0x13bb58>
    5ae4:	0000ef02 	andeq	lr, r0, r2, lsl #30
    5ae8:	5a17c400 	bpl	5f6af0 <__bss_end__+0x5ecb60>
    5aec:	05000006 	streq	r0, [r0, #-6]
    5af0:	0025026b 	eoreq	r0, r5, fp, ror #4
    5af4:	00cc0000 	sbceq	r0, ip, r0
    5af8:	00010d08 	andeq	r0, r1, r8, lsl #26
    5afc:	00079200 	andeq	r9, r7, r0, lsl #4
    5b00:	00c70900 	sbceq	r0, r7, r0, lsl #18
    5b04:	00190000 	andseq	r0, r9, r0
    5b08:	00010d08 	andeq	r0, r1, r8, lsl #26
    5b0c:	0007a200 	andeq	sl, r7, r0, lsl #4
    5b10:	00c70900 	sbceq	r0, r7, r0, lsl #18
    5b14:	00070000 	andeq	r0, r7, r0
    5b18:	00010d08 	andeq	r0, r1, r8, lsl #26
    5b1c:	0007b200 	andeq	fp, r7, r0, lsl #4
    5b20:	00c70900 	sbceq	r0, r7, r0, lsl #18
    5b24:	00170000 	andseq	r0, r7, r0
    5b28:	7005f01a 	andvc	pc, r5, sl, lsl r0	; <UNPREDICTABLE>
    5b2c:	0007d602 	andeq	sp, r7, r2, lsl #12
    5b30:	05511700 	ldrbeq	r1, [r1, #-1792]	; 0xfffff900
    5b34:	73050000 	movwvc	r0, #20480	; 0x5000
    5b38:	0007d602 	andeq	sp, r7, r2, lsl #12
    5b3c:	f8170000 			; <UNDEFINED> instruction: 0xf8170000
    5b40:	05000004 	streq	r0, [r0, #-4]
    5b44:	07e60274 			; <UNDEFINED> instruction: 0x07e60274
    5b48:	00780000 	rsbseq	r0, r8, r0
    5b4c:	0002d608 	andeq	sp, r2, r8, lsl #12
    5b50:	0007e600 	andeq	lr, r7, r0, lsl #12
    5b54:	00c70900 	sbceq	r0, r7, r0, lsl #18
    5b58:	001d0000 	andseq	r0, sp, r0
    5b5c:	00002c08 	andeq	r2, r0, r8, lsl #24
    5b60:	0007f600 	andeq	pc, r7, r0, lsl #12
    5b64:	00c70900 	sbceq	r0, r7, r0, lsl #18
    5b68:	001d0000 	andseq	r0, sp, r0
    5b6c:	5505f01b 	strpl	pc, [r5, #-27]	; 0xffffffe5
    5b70:	00081802 	andeq	r1, r8, r2, lsl #16
    5b74:	071e1c00 	ldreq	r1, [lr, -r0, lsl #24]
    5b78:	6c050000 	stcvs	0, cr0, [r5], {-0}
    5b7c:	00068102 	andeq	r8, r6, r2, lsl #2
    5b80:	09171c00 	ldmdbeq	r7, {sl, fp, ip}
    5b84:	75050000 	strvc	r0, [r5, #-0]
    5b88:	0007b202 	andeq	fp, r7, r2, lsl #4
    5b8c:	0d080000 	stceq	0, cr0, [r8, #-0]
    5b90:	28000001 	stmdacs	r0, {r0}
    5b94:	09000008 	stmdbeq	r0, {r3}
    5b98:	000000c7 	andeq	r0, r0, r7, asr #1
    5b9c:	331d0018 	tstcc	sp, #24
    5ba0:	15000008 	strne	r0, [r0, #-8]
    5ba4:	00000424 	andeq	r0, r0, r4, lsr #8
    5ba8:	28040d00 	stmdacs	r4, {r8, sl, fp}
    5bac:	0d000008 	stceq	0, cr0, [r0, #-32]	; 0xffffffe0
    5bb0:	00017704 	andeq	r7, r1, r4, lsl #14
    5bb4:	084a1d00 	stmdaeq	sl, {r8, sl, fp, ip}^
    5bb8:	25150000 	ldrcs	r0, [r5, #-0]
    5bbc:	00000000 	andeq	r0, r0, r0
    5bc0:	0850040d 	ldmdaeq	r0, {r0, r2, r3, sl}^
    5bc4:	040d0000 	streq	r0, [sp], #-0
    5bc8:	0000083f 	andeq	r0, r0, pc, lsr r8
    5bcc:	0005ef08 	andeq	lr, r5, r8, lsl #30
    5bd0:	00086600 	andeq	r6, r8, r0, lsl #12
    5bd4:	00c70900 	sbceq	r0, r7, r0, lsl #18
    5bd8:	00020000 	andeq	r0, r2, r0
    5bdc:	0008501e 	andeq	r5, r8, lr, lsl r0
    5be0:	02fd0500 	rscseq	r0, sp, #0, 10
    5be4:	00000424 	andeq	r0, r0, r4, lsr #8
    5be8:	0008491e 	andeq	r4, r8, lr, lsl r9
    5bec:	02fe0500 	rscseq	r0, lr, #0, 10
    5bf0:	0000042a 	andeq	r0, r0, sl, lsr #8
    5bf4:	00002514 	andeq	r2, r0, r4, lsl r5
    5bf8:	00088d00 	andeq	r8, r8, r0, lsl #26
    5bfc:	00251500 	eoreq	r1, r5, r0, lsl #10
    5c00:	1f000000 	svcne	0x00000000
    5c04:	00000367 	andeq	r0, r0, r7, ror #6
    5c08:	08981d06 	ldmeq	r8, {r1, r2, r8, sl, fp, ip}
    5c0c:	040d0000 	streq	r0, [sp], #-0
    5c10:	0000087e 	andeq	r0, r0, lr, ror r8
    5c14:	00002514 	andeq	r2, r0, r4, lsl r5
    5c18:	0008ad00 	andeq	sl, r8, r0, lsl #26
    5c1c:	05851500 	streq	r1, [r5, #1280]	; 0x500
    5c20:	1f000000 	svcne	0x00000000
    5c24:	00000d05 	andeq	r0, r0, r5, lsl #26
    5c28:	08b82206 	ldmeq	r8!, {r1, r2, r9, sp}
    5c2c:	040d0000 	streq	r0, [sp], #-0
    5c30:	0000089e 	muleq	r0, lr, r8
    5c34:	00088d20 	andeq	r8, r8, r0, lsr #26
    5c38:	05060100 	streq	r0, [r6, #-256]	; 0xffffff00
    5c3c:	00961003 	addseq	r1, r6, r3
    5c40:	0d162100 	ldfeqs	f2, [r6, #-0]
    5c44:	0b010000 	bleq	45c4c <__bss_end__+0x3bcbc>
    5c48:	0000910c 	andeq	r9, r0, ip, lsl #2
    5c4c:	00000010 	andeq	r0, r0, r0, lsl r0
    5c50:	08ed9c01 	stmiaeq	sp!, {r0, sl, fp, ip, pc}^
    5c54:	66220000 	strtvs	r0, [r2], -r0
    5c58:	0b010070 	bleq	45e20 <__bss_end__+0x3be90>
    5c5c:	00000898 	muleq	r0, r8, r8
    5c60:	23005001 	movwcs	r5, #1
    5c64:	00000388 	andeq	r0, r0, r8, lsl #7
    5c68:	90f40801 	rscsls	r0, r4, r1, lsl #16
    5c6c:	00180000 	andseq	r0, r8, r0
    5c70:	9c010000 	stcls	0, cr0, [r1], {-0}
    5c74:	000d2d24 	andeq	r2, sp, r4, lsr #26
    5c78:	25030100 	strcs	r0, [r3, #-256]	; 0xffffff00
    5c7c:	e0000000 	and	r0, r0, r0
    5c80:	14000090 	strne	r0, [r0], #-144	; 0xffffff70
    5c84:	01000000 	mrseq	r0, (UNDEF: 0)
    5c88:	0009359c 	muleq	r9, ip, r5
    5c8c:	00632500 	rsbeq	r2, r3, r0, lsl #10
    5c90:	00250301 	eoreq	r0, r5, r1, lsl #6
    5c94:	0d710000 	ldcleq	0, cr0, [r1, #-0]
    5c98:	ec260000 	stc	0, cr0, [r6], #-0
    5c9c:	35000090 	strcc	r0, [r0, #-144]	; 0xffffff70
    5ca0:	27000009 	strcs	r0, [r0, -r9]
    5ca4:	74025001 	strvc	r5, [r2], #-1
    5ca8:	28000000 	stmdacs	r0, {}	; <UNPREDICTABLE>
    5cac:	00000d23 	andeq	r0, r0, r3, lsr #26
    5cb0:	00000d23 	andeq	r0, r0, r3, lsr #26
    5cb4:	7c003c06 	stcvc	12, cr3, [r0], {6}
    5cb8:	0400000a 	streq	r0, [r0], #-10
    5cbc:	000fad00 	andeq	sl, pc, r0, lsl #26
    5cc0:	11010400 	tstne	r1, r0, lsl #8
    5cc4:	0c00000c 	stceq	0, cr0, [r0], {12}
    5cc8:	00000e13 	andeq	r0, r0, r3, lsl lr
    5ccc:	00000c78 	andeq	r0, r0, r8, ror ip
    5cd0:	0000911c 	andeq	r9, r0, ip, lsl r1
    5cd4:	00000074 	andeq	r0, r0, r4, ror r0
    5cd8:	00000870 	andeq	r0, r0, r0, ror r8
    5cdc:	69050402 	stmdbvs	r5, {r1, sl}
    5ce0:	0300746e 	movweq	r7, #1134	; 0x46e
    5ce4:	01570704 	cmpeq	r7, r4, lsl #14
    5ce8:	01030000 	mrseq	r0, (UNDEF: 3)
    5cec:	00061806 	andeq	r1, r6, r6, lsl #16
    5cf0:	05020300 	streq	r0, [r2, #-768]	; 0xfffffd00
    5cf4:	00000663 	andeq	r0, r0, r3, ror #12
    5cf8:	cb050403 	blgt	146d0c <__bss_end__+0x13cd7c>
    5cfc:	03000001 	movweq	r0, #1
    5d00:	01c60508 	biceq	r0, r6, r8, lsl #10
    5d04:	d0040000 	andle	r0, r4, r0
    5d08:	02000008 	andeq	r0, r0, #8
    5d0c:	00005a2e 	andeq	r5, r0, lr, lsr #20
    5d10:	08010300 	stmdaeq	r1, {r8, r9}
    5d14:	00000616 	andeq	r0, r0, r6, lsl r6
    5d18:	1d070203 	sfmne	f0, 4, [r7, #-12]
    5d1c:	04000004 	streq	r0, [r0], #-4
    5d20:	00000745 	andeq	r0, r0, r5, asr #14
    5d24:	00733402 	rsbseq	r3, r3, r2, lsl #8
    5d28:	04030000 	streq	r0, [r3], #-0
    5d2c:	00015207 	andeq	r5, r1, r7, lsl #4
    5d30:	07080300 	streq	r0, [r8, -r0, lsl #6]
    5d34:	0000014d 	andeq	r0, r0, sp, asr #2
    5d38:	0005e104 	andeq	lr, r5, r4, lsl #2
    5d3c:	25070300 	strcs	r0, [r7, #-768]	; 0xfffffd00
    5d40:	04000000 	streq	r0, [r0], #-0
    5d44:	0000059d 	muleq	r0, sp, r5
    5d48:	00412c04 	subeq	r2, r1, r4, lsl #24
    5d4c:	61040000 	mrsvs	r0, (UNDEF: 4)
    5d50:	04000007 	streq	r0, [r0], #-7
    5d54:	00004172 	andeq	r4, r0, r2, ror r1
    5d58:	04810500 	streq	r0, [r1], #1280	; 0x500
    5d5c:	65050000 	strvs	r0, [r5, #-0]
    5d60:	00002c01 	andeq	r2, r0, r1, lsl #24
    5d64:	04040600 	streq	r0, [r4], #-1536	; 0xfffffa00
    5d68:	0000cda6 	andeq	ip, r0, r6, lsr #27
    5d6c:	046e0700 	strbteq	r0, [lr], #-1792	; 0xfffff900
    5d70:	a8040000 	stmdage	r4, {}	; <UNPREDICTABLE>
    5d74:	000000a2 	andeq	r0, r0, r2, lsr #1
    5d78:	00038107 	andeq	r8, r3, r7, lsl #2
    5d7c:	cda90400 	cfstrsgt	mvf0, [r9]
    5d80:	00000000 	andeq	r0, r0, r0
    5d84:	00005a08 	andeq	r5, r0, r8, lsl #20
    5d88:	0000dd00 	andeq	sp, r0, r0, lsl #26
    5d8c:	00dd0900 	sbcseq	r0, sp, r0, lsl #18
    5d90:	00030000 	andeq	r0, r3, r0
    5d94:	0d070403 	cfstrseq	mvf0, [r7, #-12]
    5d98:	0a000005 	beq	5db4 <_start-0x224c>
    5d9c:	05a30408 	streq	r0, [r3, #1032]!	; 0x408
    5da0:	0b000001 	bleq	5dac <_start-0x2254>
    5da4:	0000073d 	andeq	r0, r0, sp, lsr r7
    5da8:	0025a504 	eoreq	sl, r5, r4, lsl #10
    5dac:	0b000000 	bleq	5db4 <_start-0x224c>
    5db0:	000007e4 	andeq	r0, r0, r4, ror #15
    5db4:	00aeaa04 	adceq	sl, lr, r4, lsl #20
    5db8:	00040000 	andeq	r0, r4, r0
    5dbc:	00069804 	andeq	r9, r6, r4, lsl #16
    5dc0:	e4ab0400 	strt	r0, [fp], #1024	; 0x400
    5dc4:	04000000 	streq	r0, [r0], #-0
    5dc8:	0000031f 	andeq	r0, r0, pc, lsl r3
    5dcc:	0081af04 	addeq	sl, r1, r4, lsl #30
    5dd0:	040c0000 	streq	r0, [ip], #-0
    5dd4:	0123040d 			; <UNDEFINED> instruction: 0x0123040d
    5dd8:	01030000 	mrseq	r0, (UNDEF: 3)
    5ddc:	00061f08 	andeq	r1, r6, r8, lsl #30
    5de0:	01230e00 			; <UNDEFINED> instruction: 0x01230e00
    5de4:	1e040000 	cdpne	0, 0, cr0, cr4, cr0, {0}
    5de8:	06000008 	streq	r0, [r0], -r8
    5dec:	00007316 	andeq	r7, r0, r6, lsl r3
    5df0:	03300f00 	teqeq	r0, #0, 30
    5df4:	06180000 	ldreq	r0, [r8], -r0
    5df8:	00018d2d 	andeq	r8, r1, sp, lsr #26
    5dfc:	06c90b00 	strbeq	r0, [r9], r0, lsl #22
    5e00:	2f060000 	svccs	0x00060000
    5e04:	0000018d 	andeq	r0, r0, sp, lsl #3
    5e08:	6b5f1000 	blvs	17c9e10 <__bss_end__+0x17bfe80>
    5e0c:	25300600 	ldrcs	r0, [r0, #-1536]!	; 0xfffffa00
    5e10:	04000000 	streq	r0, [r0], #-0
    5e14:	0007160b 	andeq	r1, r7, fp, lsl #12
    5e18:	25300600 	ldrcs	r0, [r0, #-1536]!	; 0xfffffa00
    5e1c:	08000000 	stmdaeq	r0, {}	; <UNPREDICTABLE>
    5e20:	0003190b 	andeq	r1, r3, fp, lsl #18
    5e24:	25300600 	ldrcs	r0, [r0, #-1536]!	; 0xfffffa00
    5e28:	0c000000 	stceq	0, cr0, [r0], {-0}
    5e2c:	0008b20b 	andeq	fp, r8, fp, lsl #4
    5e30:	25300600 	ldrcs	r0, [r0, #-1536]!	; 0xfffffa00
    5e34:	10000000 	andne	r0, r0, r0
    5e38:	00785f10 	rsbseq	r5, r8, r0, lsl pc
    5e3c:	01933106 	orrseq	r3, r3, r6, lsl #2
    5e40:	00140000 	andseq	r0, r4, r0
    5e44:	013a040d 	teqeq	sl, sp, lsl #8
    5e48:	2f080000 	svccs	0x00080000
    5e4c:	a3000001 	movwge	r0, #1
    5e50:	09000001 	stmdbeq	r0, {r0}
    5e54:	000000dd 	ldrdeq	r0, [r0], -sp
    5e58:	730f0000 	movwvc	r0, #61440	; 0xf000
    5e5c:	24000003 	strcs	r0, [r0], #-3
    5e60:	021c3506 	andseq	r3, ip, #25165824	; 0x1800000
    5e64:	bd0b0000 	stclt	0, cr0, [fp, #-0]
    5e68:	06000001 	streq	r0, [r0], -r1
    5e6c:	00002537 	andeq	r2, r0, r7, lsr r5
    5e70:	890b0000 	stmdbhi	fp, {}	; <UNPREDICTABLE>
    5e74:	06000007 	streq	r0, [r0], -r7
    5e78:	00002538 	andeq	r2, r0, r8, lsr r5
    5e7c:	070b0400 	streq	r0, [fp, -r0, lsl #8]
    5e80:	06000002 	streq	r0, [r0], -r2
    5e84:	00002539 	andeq	r2, r0, r9, lsr r5
    5e88:	bc0b0800 	stclt	8, cr0, [fp], {-0}
    5e8c:	06000009 	streq	r0, [r0], -r9
    5e90:	0000253a 	andeq	r2, r0, sl, lsr r5
    5e94:	620b0c00 	andvs	r0, fp, #0, 24
    5e98:	06000005 	streq	r0, [r0], -r5
    5e9c:	0000253b 	andeq	r2, r0, fp, lsr r5
    5ea0:	d00b1000 	andle	r1, fp, r0
    5ea4:	06000004 	streq	r0, [r0], -r4
    5ea8:	0000253c 	andeq	r2, r0, ip, lsr r5
    5eac:	b70b1400 	strlt	r1, [fp, -r0, lsl #8]
    5eb0:	06000008 	streq	r0, [r0], -r8
    5eb4:	0000253d 	andeq	r2, r0, sp, lsr r5
    5eb8:	6d0b1800 	stcvs	8, cr1, [fp, #-0]
    5ebc:	06000006 	streq	r0, [r0], -r6
    5ec0:	0000253e 	andeq	r2, r0, lr, lsr r5
    5ec4:	360b1c00 	strcc	r1, [fp], -r0, lsl #24
    5ec8:	06000009 	streq	r0, [r0], -r9
    5ecc:	0000253f 	andeq	r2, r0, pc, lsr r5
    5ed0:	11002000 	mrsne	r2, (UNDEF: 0)
    5ed4:	00000216 	andeq	r0, r0, r6, lsl r2
    5ed8:	48060108 	stmdami	r6, {r3, r8}
    5edc:	0000025c 	andeq	r0, r0, ip, asr r2
    5ee0:	0002eb0b 	andeq	lr, r2, fp, lsl #22
    5ee4:	5c490600 	mcrrpl	6, 0, r0, r9, cr0
    5ee8:	00000002 	andeq	r0, r0, r2
    5eec:	0000000b 	andeq	r0, r0, fp
    5ef0:	5c4a0600 	mcrrpl	6, 0, r0, sl, cr0
    5ef4:	80000002 	andhi	r0, r0, r2
    5ef8:	0007ab12 	andeq	sl, r7, r2, lsl fp
    5efc:	2f4c0600 	svccs	0x004c0600
    5f00:	00000001 	andeq	r0, r0, r1
    5f04:	02601201 	rsbeq	r1, r0, #268435456	; 0x10000000
    5f08:	4f060000 	svcmi	0x00060000
    5f0c:	0000012f 	andeq	r0, r0, pc, lsr #2
    5f10:	08000104 	stmdaeq	r0, {r2, r8}
    5f14:	0000011b 	andeq	r0, r0, fp, lsl r1
    5f18:	0000026c 	andeq	r0, r0, ip, ror #4
    5f1c:	0000dd09 	andeq	sp, r0, r9, lsl #26
    5f20:	11001f00 	tstne	r0, r0, lsl #30
    5f24:	0000057c 	andeq	r0, r0, ip, ror r5
    5f28:	5b060190 	blpl	186570 <__bss_end__+0x17c5e0>
    5f2c:	000002aa 	andeq	r0, r0, sl, lsr #5
    5f30:	0006c90b 	andeq	ip, r6, fp, lsl #18
    5f34:	aa5c0600 	bge	170773c <__bss_end__+0x16fd7ac>
    5f38:	00000002 	andeq	r0, r0, r2
    5f3c:	0006f70b 	andeq	pc, r6, fp, lsl #14
    5f40:	255d0600 	ldrbcs	r0, [sp, #-1536]	; 0xfffffa00
    5f44:	04000000 	streq	r0, [r0], #-0
    5f48:	0003140b 	andeq	r1, r3, fp, lsl #8
    5f4c:	b05f0600 	subslt	r0, pc, r0, lsl #12
    5f50:	08000002 	stmdaeq	r0, {r1}
    5f54:	0002160b 	andeq	r1, r2, fp, lsl #12
    5f58:	1c600600 	stclne	6, cr0, [r0], #-0
    5f5c:	88000002 	stmdahi	r0, {r1}
    5f60:	6c040d00 	stcvs	13, cr0, [r4], {-0}
    5f64:	08000002 	stmdaeq	r0, {r1}
    5f68:	000002c0 	andeq	r0, r0, r0, asr #5
    5f6c:	000002c0 	andeq	r0, r0, r0, asr #5
    5f70:	0000dd09 	andeq	sp, r0, r9, lsl #26
    5f74:	0d001f00 	stceq	15, cr1, [r0, #-0]
    5f78:	0002c604 	andeq	ip, r2, r4, lsl #12
    5f7c:	770f1300 	strvc	r1, [pc, -r0, lsl #6]
    5f80:	08000006 	stmdaeq	r0, {r1, r2}
    5f84:	02ec7306 	rsceq	r7, ip, #402653184	; 0x18000000
    5f88:	010b0000 	mrseq	r0, (UNDEF: 11)
    5f8c:	06000002 	streq	r0, [r0], -r2
    5f90:	0002ec74 	andeq	lr, r2, r4, ror ip
    5f94:	a60b0000 	strge	r0, [fp], -r0
    5f98:	06000000 	streq	r0, [r0], -r0
    5f9c:	00002575 	andeq	r2, r0, r5, ror r5
    5fa0:	0d000400 	cfstrseq	mvf0, [r0, #-0]
    5fa4:	00005a04 	andeq	r5, r0, r4, lsl #20
    5fa8:	06a30f00 	strteq	r0, [r3], r0, lsl #30
    5fac:	06680000 	strbteq	r0, [r8], -r0
    5fb0:	00041cb3 			; <UNDEFINED> instruction: 0x00041cb3
    5fb4:	705f1000 	subsvc	r1, pc, r0
    5fb8:	ecb40600 	ldc	6, cr0, [r4]
    5fbc:	00000002 	andeq	r0, r0, r2
    5fc0:	00725f10 	rsbseq	r5, r2, r0, lsl pc
    5fc4:	0025b506 	eoreq	fp, r5, r6, lsl #10
    5fc8:	10040000 	andne	r0, r4, r0
    5fcc:	0600775f 			; <UNDEFINED> instruction: 0x0600775f
    5fd0:	000025b6 			; <UNDEFINED> instruction: 0x000025b6
    5fd4:	590b0800 	stmdbpl	fp, {fp}
    5fd8:	06000002 	streq	r0, [r0], -r2
    5fdc:	00003ab7 			; <UNDEFINED> instruction: 0x00003ab7
    5fe0:	b20b0c00 	andlt	r0, fp, #0, 24
    5fe4:	06000003 	streq	r0, [r0], -r3
    5fe8:	00003ab8 			; <UNDEFINED> instruction: 0x00003ab8
    5fec:	5f100e00 	svcpl	0x00100e00
    5ff0:	06006662 	streq	r6, [r0], -r2, ror #12
    5ff4:	0002c7b9 			; <UNDEFINED> instruction: 0x0002c7b9
    5ff8:	6d0b1000 	stcvs	0, cr1, [fp, #-0]
    5ffc:	06000001 	streq	r0, [r0], -r1
    6000:	000025ba 			; <UNDEFINED> instruction: 0x000025ba
    6004:	240b1800 	strcs	r1, [fp], #-2048	; 0xfffff800
    6008:	06000002 	streq	r0, [r0], -r2
    600c:	00011bc1 	andeq	r1, r1, r1, asr #23
    6010:	9a0b1c00 	bls	2cd018 <__bss_end__+0x2c3088>
    6014:	06000008 	streq	r0, [r0], -r8
    6018:	000577c3 	andeq	r7, r5, r3, asr #15
    601c:	790b2000 	stmdbvc	fp, {sp}
    6020:	06000001 	streq	r0, [r0], -r1
    6024:	0005a1c5 	andeq	sl, r5, r5, asr #3
    6028:	4e0b2400 	cfcpysmi	mvf2, mvf11
    602c:	06000007 	streq	r0, [r0], -r7
    6030:	0005c5c8 	andeq	ip, r5, r8, asr #11
    6034:	500b2800 	andpl	r2, fp, r0, lsl #16
    6038:	06000009 	streq	r0, [r0], -r9
    603c:	0005dfc9 	andeq	sp, r5, r9, asr #31
    6040:	5f102c00 	svcpl	0x00102c00
    6044:	06006275 			; <UNDEFINED> instruction: 0x06006275
    6048:	0002c7cc 	andeq	ip, r2, ip, asr #15
    604c:	5f103000 	svcpl	0x00103000
    6050:	06007075 			; <UNDEFINED> instruction: 0x06007075
    6054:	0002eccd 	andeq	lr, r2, sp, asr #25
    6058:	5f103800 	svcpl	0x00103800
    605c:	06007275 			; <UNDEFINED> instruction: 0x06007275
    6060:	000025ce 	andeq	r2, r0, lr, asr #11
    6064:	f30b3c00 			; <UNDEFINED> instruction: 0xf30b3c00
    6068:	06000001 	streq	r0, [r0], -r1
    606c:	0005e5d1 	ldrdeq	lr, [r5], -r1
    6070:	110b4000 	mrsne	r4, (UNDEF: 11)
    6074:	06000009 	streq	r0, [r0], -r9
    6078:	0005f5d2 	ldrdeq	pc, [r5], -r2
    607c:	5f104300 	svcpl	0x00104300
    6080:	0600626c 	streq	r6, [r0], -ip, ror #4
    6084:	0002c7d5 	ldrdeq	ip, [r2], -r5
    6088:	760b4400 	strvc	r4, [fp], -r0, lsl #8
    608c:	06000002 	streq	r0, [r0], -r2
    6090:	000025d8 	ldrdeq	r2, [r0], -r8
    6094:	ac0b4c00 	stcge	12, cr4, [fp], {-0}
    6098:	06000002 	streq	r0, [r0], -r2
    609c:	00008cd9 	ldrdeq	r8, [r0], -r9
    60a0:	440b5000 	strmi	r5, [fp], #-0
    60a4:	06000006 	streq	r0, [r0], -r6
    60a8:	00043adc 	ldrdeq	r3, [r4], -ip
    60ac:	6a0b5400 	bvs	2db0b4 <__bss_end__+0x2d1124>
    60b0:	06000010 			; <UNDEFINED> instruction: 0x06000010
    60b4:	000110e0 	andeq	r1, r1, r0, ror #1
    60b8:	bb0b5800 	bllt	2dc0c0 <__bss_end__+0x2d2130>
    60bc:	06000006 	streq	r0, [r0], -r6
    60c0:	000105e2 	andeq	r0, r1, r2, ror #11
    60c4:	9e0b5c00 	cdpls	12, 0, cr5, cr11, cr0, {0}
    60c8:	06000004 	streq	r0, [r0], -r4
    60cc:	000025e3 	andeq	r2, r0, r3, ror #11
    60d0:	14006400 	strne	r6, [r0], #-1024	; 0xfffffc00
    60d4:	00000025 	andeq	r0, r0, r5, lsr #32
    60d8:	0000043a 	andeq	r0, r0, sl, lsr r4
    60dc:	00043a15 	andeq	r3, r4, r5, lsl sl
    60e0:	011b1500 	tsteq	fp, r0, lsl #10
    60e4:	1d150000 	ldcne	0, cr0, [r5, #-0]
    60e8:	15000001 	strne	r0, [r0, #-1]
    60ec:	00000025 	andeq	r0, r0, r5, lsr #32
    60f0:	45040d00 	strmi	r0, [r4, #-3328]	; 0xfffff300
    60f4:	0e000004 	cdpeq	0, 0, cr0, cr0, cr4, {0}
    60f8:	0000043a 	andeq	r0, r0, sl, lsr r4
    60fc:	00071e16 	andeq	r1, r7, r6, lsl lr
    6100:	06042800 	streq	r2, [r4], -r0, lsl #16
    6104:	05770238 	ldrbeq	r0, [r7, #-568]!	; 0xfffffdc8
    6108:	5c170000 	ldcpl	0, cr0, [r7], {-0}
    610c:	06000006 	streq	r0, [r0], -r6
    6110:	0025023a 	eoreq	r0, r5, sl, lsr r2
    6114:	17000000 	strne	r0, [r0, -r0]
    6118:	00000268 	andeq	r0, r0, r8, ror #4
    611c:	4c023f06 	stcmi	15, cr3, [r2], {6}
    6120:	04000006 	streq	r0, [r0], #-6
    6124:	00039717 	andeq	r9, r3, r7, lsl r7
    6128:	023f0600 	eorseq	r0, pc, #0, 12
    612c:	0000064c 	andeq	r0, r0, ip, asr #12
    6130:	03281708 			; <UNDEFINED> instruction: 0x03281708
    6134:	3f060000 	svccc	0x00060000
    6138:	00064c02 	andeq	r4, r6, r2, lsl #24
    613c:	f2170c00 			; <UNDEFINED> instruction: 0xf2170c00
    6140:	06000006 	streq	r0, [r0], -r6
    6144:	00250241 	eoreq	r0, r5, r1, asr #4
    6148:	17100000 	ldrne	r0, [r0, -r0]
    614c:	000000ed 	andeq	r0, r0, sp, ror #1
    6150:	2e024206 	cdpcs	2, 0, cr4, cr2, cr6, {0}
    6154:	14000008 	strne	r0, [r0], #-8
    6158:	00085c17 	andeq	r5, r8, r7, lsl ip
    615c:	02440600 	subeq	r0, r4, #0, 12
    6160:	00000025 	andeq	r0, r0, r5, lsr #32
    6164:	06fc1730 			; <UNDEFINED> instruction: 0x06fc1730
    6168:	45060000 	strmi	r0, [r6, #-0]
    616c:	00059b02 	andeq	r9, r5, r2, lsl #22
    6170:	92173400 	andsls	r3, r7, #0, 8
    6174:	06000005 	streq	r0, [r0], -r5
    6178:	00250247 	eoreq	r0, r5, r7, asr #4
    617c:	17380000 	ldrne	r0, [r8, -r0]!
    6180:	0000070c 	andeq	r0, r0, ip, lsl #14
    6184:	49024906 	stmdbmi	r2, {r1, r2, r8, fp, lr}
    6188:	3c000008 	stccc	0, cr0, [r0], {8}
    618c:	00046617 	andeq	r6, r4, r7, lsl r6
    6190:	024c0600 	subeq	r0, ip, #0, 12
    6194:	0000018d 	andeq	r0, r0, sp, lsl #3
    6198:	035d1740 	cmpeq	sp, #64, 14	; 0x1000000
    619c:	4d060000 	stcmi	0, cr0, [r6, #-0]
    61a0:	00002502 	andeq	r2, r0, r2, lsl #10
    61a4:	73174400 	tstvc	r7, #0, 8
    61a8:	06000009 	streq	r0, [r0], -r9
    61ac:	018d024e 	orreq	r0, sp, lr, asr #4
    61b0:	17480000 	strbne	r0, [r8, -r0]
    61b4:	000005c7 	andeq	r0, r0, r7, asr #11
    61b8:	4f024f06 	svcmi	0x00024f06
    61bc:	4c000008 	stcmi	0, cr0, [r0], {8}
    61c0:	00039f17 	andeq	r9, r3, r7, lsl pc
    61c4:	02520600 	subseq	r0, r2, #0, 12
    61c8:	00000025 	andeq	r0, r0, r5, lsr #32
    61cc:	02a41750 	adceq	r1, r4, #80, 14	; 0x1400000
    61d0:	53060000 	movwpl	r0, #24576	; 0x6000
    61d4:	00011d02 	andeq	r1, r1, r2, lsl #26
    61d8:	2c175400 	cfldrscs	mvf5, [r7], {-0}
    61dc:	06000011 			; <UNDEFINED> instruction: 0x06000011
    61e0:	080c0276 	stmdaeq	ip, {r1, r2, r4, r5, r6, r9}
    61e4:	18580000 	ldmdane	r8, {}^	; <UNPREDICTABLE>
    61e8:	0000057c 	andeq	r0, r0, ip, ror r5
    61ec:	aa027a06 	bge	a4a0c <__bss_end__+0x9aa7c>
    61f0:	48000002 	stmdami	r0, {r1}
    61f4:	04301801 	ldrteq	r1, [r0], #-2049	; 0xfffff7ff
    61f8:	7b060000 	blvc	186200 <__bss_end__+0x17c270>
    61fc:	00026c02 	andeq	r6, r2, r2, lsl #24
    6200:	18014c00 	stmdane	r1, {sl, fp, lr}
    6204:	000008e2 	andeq	r0, r0, r2, ror #17
    6208:	60027f06 	andvs	r7, r2, r6, lsl #30
    620c:	dc000008 	stcle	0, cr0, [r0], {8}
    6210:	022c1802 	eoreq	r1, ip, #131072	; 0x20000
    6214:	84060000 	strhi	r0, [r6], #-0
    6218:	00061102 	andeq	r1, r6, r2, lsl #2
    621c:	1802e000 	stmdane	r2, {sp, lr, pc}
    6220:	00000211 	andeq	r0, r0, r1, lsl r2
    6224:	6c028506 	cfstr32vs	mvfx8, [r2], {6}
    6228:	ec000008 	stc	0, cr0, [r0], {8}
    622c:	040d0002 	streq	r0, [sp], #-2
    6230:	0000041c 	andeq	r0, r0, ip, lsl r4
    6234:	00002514 	andeq	r2, r0, r4, lsl r5
    6238:	00059b00 	andeq	r9, r5, r0, lsl #22
    623c:	043a1500 	ldrteq	r1, [sl], #-1280	; 0xfffffb00
    6240:	1b150000 	blne	546248 <__bss_end__+0x53c2b8>
    6244:	15000001 	strne	r0, [r0, #-1]
    6248:	0000059b 	muleq	r0, fp, r5
    624c:	00002515 	andeq	r2, r0, r5, lsl r5
    6250:	040d0000 	streq	r0, [sp], #-0
    6254:	0000012a 	andeq	r0, r0, sl, lsr #2
    6258:	057d040d 	ldrbeq	r0, [sp, #-1037]!	; 0xfffffbf3
    625c:	97140000 	ldrls	r0, [r4, -r0]
    6260:	c5000000 	strgt	r0, [r0, #-0]
    6264:	15000005 	strne	r0, [r0, #-5]
    6268:	0000043a 	andeq	r0, r0, sl, lsr r4
    626c:	00011b15 	andeq	r1, r1, r5, lsl fp
    6270:	00971500 	addseq	r1, r7, r0, lsl #10
    6274:	25150000 	ldrcs	r0, [r5, #-0]
    6278:	00000000 	andeq	r0, r0, r0
    627c:	05a7040d 	streq	r0, [r7, #1037]!	; 0x40d
    6280:	25140000 	ldrcs	r0, [r4, #-0]
    6284:	df000000 	svcle	0x00000000
    6288:	15000005 	strne	r0, [r0, #-5]
    628c:	0000043a 	andeq	r0, r0, sl, lsr r4
    6290:	00011b15 	andeq	r1, r1, r5, lsl fp
    6294:	040d0000 	streq	r0, [sp], #-0
    6298:	000005cb 	andeq	r0, r0, fp, asr #11
    629c:	00005a08 	andeq	r5, r0, r8, lsl #20
    62a0:	0005f500 	andeq	pc, r5, r0, lsl #10
    62a4:	00dd0900 	sbcseq	r0, sp, r0, lsl #18
    62a8:	00020000 	andeq	r0, r2, r0
    62ac:	00005a08 	andeq	r5, r0, r8, lsl #20
    62b0:	00060500 	andeq	r0, r6, r0, lsl #10
    62b4:	00dd0900 	sbcseq	r0, sp, r0, lsl #18
    62b8:	00000000 	andeq	r0, r0, r0
    62bc:	00069105 	andeq	r9, r6, r5, lsl #2
    62c0:	011d0600 	tsteq	sp, r0, lsl #12
    62c4:	000002f2 	strdeq	r0, [r0], -r2
    62c8:	0008c119 	andeq	ip, r8, r9, lsl r1
    62cc:	21060c00 	tstcs	r6, r0, lsl #24
    62d0:	00064601 	andeq	r4, r6, r1, lsl #12
    62d4:	06c91700 	strbeq	r1, [r9], r0, lsl #14
    62d8:	23060000 	movwcs	r0, #24576	; 0x6000
    62dc:	00064601 	andeq	r4, r6, r1, lsl #12
    62e0:	00170000 	andseq	r0, r7, r0
    62e4:	06000004 	streq	r0, [r0], -r4
    62e8:	00250124 	eoreq	r0, r5, r4, lsr #2
    62ec:	17040000 	strne	r0, [r4, -r0]
    62f0:	0000068b 	andeq	r0, r0, fp, lsl #13
    62f4:	4c012506 	cfstr32mi	mvfx2, [r1], {6}
    62f8:	08000006 	stmdaeq	r0, {r1, r2}
    62fc:	11040d00 	tstne	r4, r0, lsl #26
    6300:	0d000006 	stceq	0, cr0, [r0, #-24]	; 0xffffffe8
    6304:	00060504 	andeq	r0, r6, r4, lsl #10
    6308:	00d11900 	sbcseq	r1, r1, r0, lsl #18
    630c:	060e0000 	streq	r0, [lr], -r0
    6310:	0687013d 			; <UNDEFINED> instruction: 0x0687013d
    6314:	2e170000 	cdpcs	0, 1, cr0, cr7, cr0, {0}
    6318:	06000007 	streq	r0, [r0], -r7
    631c:	0687013e 			; <UNDEFINED> instruction: 0x0687013e
    6320:	17000000 	strne	r0, [r0, -r0]
    6324:	000007d1 	ldrdeq	r0, [r0], -r1
    6328:	87013f06 	strhi	r3, [r1, -r6, lsl #30]
    632c:	06000006 	streq	r0, [r0], -r6
    6330:	00081017 	andeq	r1, r8, r7, lsl r0
    6334:	01400600 	cmpeq	r0, r0, lsl #12
    6338:	00000061 	andeq	r0, r0, r1, rrx
    633c:	6108000c 	tstvs	r8, ip
    6340:	97000000 	strls	r0, [r0, -r0]
    6344:	09000006 	stmdbeq	r0, {r1, r2}
    6348:	000000dd 	ldrdeq	r0, [r0], -sp
    634c:	d01a0002 	andsle	r0, sl, r2
    6350:	98025706 	stmdals	r2, {r1, r2, r8, r9, sl, ip, lr}
    6354:	17000007 	strne	r0, [r0, -r7]
    6358:	0000088a 	andeq	r0, r0, sl, lsl #17
    635c:	2c025906 			; <UNDEFINED> instruction: 0x2c025906
    6360:	00000000 	andeq	r0, r0, r0
    6364:	0007d717 	andeq	sp, r7, r7, lsl r7
    6368:	025a0600 	subseq	r0, sl, #0, 12
    636c:	0000011d 	andeq	r0, r0, sp, lsl r1
    6370:	04451704 	strbeq	r1, [r5], #-1796	; 0xfffff8fc
    6374:	5b060000 	blpl	18637c <__bss_end__+0x17c3ec>
    6378:	00079802 	andeq	r9, r7, r2, lsl #16
    637c:	41170800 	tstmi	r7, r0, lsl #16
    6380:	06000009 	streq	r0, [r0], -r9
    6384:	01a3025c 			; <UNDEFINED> instruction: 0x01a3025c
    6388:	17240000 	strne	r0, [r4, -r0]!
    638c:	00000338 	andeq	r0, r0, r8, lsr r3
    6390:	25025d06 	strcs	r5, [r2, #-3334]	; 0xfffff2fa
    6394:	48000000 	stmdami	r0, {}	; <UNPREDICTABLE>
    6398:	0006c417 	andeq	ip, r6, r7, lsl r4
    639c:	025e0600 	subseq	r0, lr, #0, 12
    63a0:	0000007a 	andeq	r0, r0, sl, ror r0
    63a4:	09571750 	ldmdbeq	r7, {r4, r6, r8, r9, sl, ip}^
    63a8:	5f060000 	svcpl	0x00060000
    63ac:	00065202 	andeq	r5, r6, r2, lsl #4
    63b0:	e5175800 	ldr	r5, [r7, #-2048]	; 0xfffff800
    63b4:	06000006 	streq	r0, [r0], -r6
    63b8:	01050260 	tsteq	r5, r0, ror #4
    63bc:	17680000 	strbne	r0, [r8, -r0]!
    63c0:	00000965 	andeq	r0, r0, r5, ror #18
    63c4:	05026106 	streq	r6, [r2, #-262]	; 0xfffffefa
    63c8:	70000001 	andvc	r0, r0, r1
    63cc:	0001af17 	andeq	sl, r1, r7, lsl pc
    63d0:	02620600 	rsbeq	r0, r2, #0, 12
    63d4:	00000105 	andeq	r0, r0, r5, lsl #2
    63d8:	08d81778 	ldmeq	r8, {r3, r4, r5, r6, r8, r9, sl, ip}^
    63dc:	63060000 	movwvs	r0, #24576	; 0x6000
    63e0:	0007a802 	andeq	sl, r7, r2, lsl #16
    63e4:	39178000 	ldmdbcc	r7, {pc}
    63e8:	06000004 	streq	r0, [r0], -r4
    63ec:	07b80264 	ldreq	r0, [r8, r4, ror #4]!
    63f0:	17880000 	strne	r0, [r8, r0]
    63f4:	00000826 	andeq	r0, r0, r6, lsr #16
    63f8:	25026506 	strcs	r6, [r2, #-1286]	; 0xfffffafa
    63fc:	a0000000 	andge	r0, r0, r0
    6400:	0002dd17 	andeq	sp, r2, r7, lsl sp
    6404:	02660600 	rsbeq	r0, r6, #0, 12
    6408:	00000105 	andeq	r0, r0, r5, lsl #2
    640c:	018b17a4 	orreq	r1, fp, r4, lsr #15
    6410:	67060000 	strvs	r0, [r6, -r0]
    6414:	00010502 	andeq	r0, r1, r2, lsl #10
    6418:	c317ac00 	tstgt	r7, #0, 24
    641c:	06000002 	streq	r0, [r0], -r2
    6420:	01050268 	tsteq	r5, r8, ror #4
    6424:	17b40000 	ldrne	r0, [r4, r0]!
    6428:	0000012d 	andeq	r0, r0, sp, lsr #2
    642c:	05026906 	streq	r6, [r2, #-2310]	; 0xfffff6fa
    6430:	bc000001 	stclt	0, cr0, [r0], {1}
    6434:	00013c17 	andeq	r3, r1, r7, lsl ip
    6438:	026a0600 	rsbeq	r0, sl, #0, 12
    643c:	00000105 	andeq	r0, r0, r5, lsl #2
    6440:	065a17c4 	ldrbeq	r1, [sl], -r4, asr #15
    6444:	6b060000 	blvs	18644c <__bss_end__+0x17c4bc>
    6448:	00002502 	andeq	r2, r0, r2, lsl #10
    644c:	0800cc00 	stmdaeq	r0, {sl, fp, lr, pc}
    6450:	00000123 	andeq	r0, r0, r3, lsr #2
    6454:	000007a8 	andeq	r0, r0, r8, lsr #15
    6458:	0000dd09 	andeq	sp, r0, r9, lsl #26
    645c:	08001900 	stmdaeq	r0, {r8, fp, ip}
    6460:	00000123 	andeq	r0, r0, r3, lsr #2
    6464:	000007b8 			; <UNDEFINED> instruction: 0x000007b8
    6468:	0000dd09 	andeq	sp, r0, r9, lsl #26
    646c:	08000700 	stmdaeq	r0, {r8, r9, sl}
    6470:	00000123 	andeq	r0, r0, r3, lsr #2
    6474:	000007c8 	andeq	r0, r0, r8, asr #15
    6478:	0000dd09 	andeq	sp, r0, r9, lsl #26
    647c:	1a001700 	bne	c084 <__bss_end__+0x20f4>
    6480:	027006f0 	rsbseq	r0, r0, #240, 12	; 0xf000000
    6484:	000007ec 	andeq	r0, r0, ip, ror #15
    6488:	00055117 	andeq	r5, r5, r7, lsl r1
    648c:	02730600 	rsbseq	r0, r3, #0, 12
    6490:	000007ec 	andeq	r0, r0, ip, ror #15
    6494:	04f81700 	ldrbteq	r1, [r8], #1792	; 0x700
    6498:	74060000 	strvc	r0, [r6], #-0
    649c:	0007fc02 	andeq	pc, r7, r2, lsl #24
    64a0:	08007800 	stmdaeq	r0, {fp, ip, sp, lr}
    64a4:	000002ec 	andeq	r0, r0, ip, ror #5
    64a8:	000007fc 	strdeq	r0, [r0], -ip
    64ac:	0000dd09 	andeq	sp, r0, r9, lsl #26
    64b0:	08001d00 	stmdaeq	r0, {r8, sl, fp, ip}
    64b4:	0000002c 	andeq	r0, r0, ip, lsr #32
    64b8:	0000080c 	andeq	r0, r0, ip, lsl #16
    64bc:	0000dd09 	andeq	sp, r0, r9, lsl #26
    64c0:	1b001d00 	blne	d8c8 <__bss_end__+0x3938>
    64c4:	025506f0 	subseq	r0, r5, #240, 12	; 0xf000000
    64c8:	0000082e 	andeq	r0, r0, lr, lsr #16
    64cc:	00071e1c 	andeq	r1, r7, ip, lsl lr
    64d0:	026c0600 	rsbeq	r0, ip, #0, 12
    64d4:	00000697 	muleq	r0, r7, r6
    64d8:	0009171c 	andeq	r1, r9, ip, lsl r7
    64dc:	02750600 	rsbseq	r0, r5, #0, 12
    64e0:	000007c8 	andeq	r0, r0, r8, asr #15
    64e4:	01230800 			; <UNDEFINED> instruction: 0x01230800
    64e8:	083e0000 	ldmdaeq	lr!, {}	; <UNPREDICTABLE>
    64ec:	dd090000 	stcle	0, cr0, [r9, #-0]
    64f0:	18000000 	stmdane	r0, {}	; <UNPREDICTABLE>
    64f4:	08491d00 	stmdaeq	r9, {r8, sl, fp, ip}^
    64f8:	3a150000 	bcc	546500 <__bss_end__+0x53c570>
    64fc:	00000004 	andeq	r0, r0, r4
    6500:	083e040d 	ldmdaeq	lr!, {r0, r2, r3, sl}
    6504:	040d0000 	streq	r0, [sp], #-0
    6508:	0000018d 	andeq	r0, r0, sp, lsl #3
    650c:	0008601d 	andeq	r6, r8, sp, lsl r0
    6510:	00251500 	eoreq	r1, r5, r0, lsl #10
    6514:	0d000000 	stceq	0, cr0, [r0, #-0]
    6518:	00086604 	andeq	r6, r8, r4, lsl #12
    651c:	55040d00 	strpl	r0, [r4, #-3328]	; 0xfffff300
    6520:	08000008 	stmdaeq	r0, {r3}
    6524:	00000605 	andeq	r0, r0, r5, lsl #12
    6528:	0000087c 	andeq	r0, r0, ip, ror r8
    652c:	0000dd09 	andeq	sp, r0, r9, lsl #26
    6530:	1e000200 	cdpne	2, 0, cr0, cr0, cr0, {0}
    6534:	00000850 	andeq	r0, r0, r0, asr r8
    6538:	3a02fd06 	bcc	c5958 <__bss_end__+0xbb9c8>
    653c:	1e000004 	cdpne	0, 0, cr0, cr0, cr4, {0}
    6540:	00000849 	andeq	r0, r0, r9, asr #16
    6544:	4002fe06 	andmi	pc, r2, r6, lsl #28
    6548:	14000004 	strne	r0, [r0], #-4
    654c:	00000025 	andeq	r0, r0, r5, lsr #32
    6550:	000008a3 	andeq	r0, r0, r3, lsr #17
    6554:	00002515 	andeq	r2, r0, r5, lsl r5
    6558:	671f0000 	ldrvs	r0, [pc, -r0]
    655c:	07000003 	streq	r0, [r0, -r3]
    6560:	0008ae1d 	andeq	sl, r8, sp, lsl lr
    6564:	94040d00 	strls	r0, [r4], #-3328	; 0xfffff300
    6568:	14000008 	strne	r0, [r0], #-8
    656c:	00000025 	andeq	r0, r0, r5, lsr #32
    6570:	000008c3 	andeq	r0, r0, r3, asr #17
    6574:	00059b15 	andeq	r9, r5, r5, lsl fp
    6578:	051f0000 	ldreq	r0, [pc, #-0]	; 6580 <_start-0x1a80>
    657c:	0700000d 	streq	r0, [r0, -sp]
    6580:	0008ce22 	andeq	ip, r8, r2, lsr #28
    6584:	b4040d00 	strlt	r0, [r4], #-3328	; 0xfffff300
    6588:	0a000008 	beq	65b0 <_start-0x1a50>
    658c:	0b0e080c 	bleq	3885c4 <__bss_end__+0x37e634>
    6590:	10000009 	andne	r0, r0, r9
    6594:	08007874 	stmdaeq	r0, {r2, r4, r5, r6, fp, ip, sp, lr}
    6598:	00004f0f 	andeq	r4, r0, pc, lsl #30
    659c:	72100000 	andsvc	r0, r0, #0
    65a0:	0f080078 	svceq	0x00080078
    65a4:	0000004f 	andeq	r0, r0, pc, asr #32
    65a8:	0e010b01 	vmlaeq.f64	d0, d1, d1
    65ac:	10080000 	andne	r0, r8, r0
    65b0:	00000068 	andeq	r0, r0, r8, rrx
    65b4:	0e390b04 	vaddeq.f64	d0, d9, d4
    65b8:	11080000 	mrsne	r0, (UNDEF: 8)
    65bc:	00000068 	andeq	r0, r0, r8, rrx
    65c0:	c4040008 	strgt	r0, [r4], #-8
    65c4:	0800000d 	stmdaeq	r0, {r0, r2, r3}
    65c8:	0008d412 	andeq	sp, r8, r2, lsl r4
    65cc:	0e342000 	cdpeq	0, 3, cr2, cr4, cr0, {0}
    65d0:	13090000 	movwne	r0, #36864	; 0x9000
    65d4:	0000002c 	andeq	r0, r0, ip, lsr #32
    65d8:	000ddc20 	andeq	sp, sp, r0, lsr #24
    65dc:	2c140900 			; <UNDEFINED> instruction: 0x2c140900
    65e0:	21000000 	mrscs	r0, (UNDEF: 0)
    65e4:	00005a01 	andeq	r5, r0, r1, lsl #20
    65e8:	4b100a00 	blmi	408df0 <__bss_end__+0x3fee60>
    65ec:	22000009 	andcs	r0, r0, #9
    65f0:	00000d84 	andeq	r0, r0, r4, lsl #27
    65f4:	0e272201 	cdpeq	2, 2, cr2, cr7, cr1, {0}
    65f8:	22020000 	andcs	r0, r2, #0
    65fc:	00000d4d 	andeq	r0, r0, sp, asr #26
    6600:	5b040003 	blpl	106614 <__bss_end__+0xfc684>
    6604:	0a00000d 	beq	6640 <_start-0x19c0>
    6608:	00092c10 	andeq	r2, r9, r0, lsl ip
    660c:	0a140a00 	beq	508e14 <__bss_end__+0x4fee84>
    6610:	00098314 	andeq	r8, r9, r4, lsl r3
    6614:	0dce0b00 	vstreq	d16, [lr]
    6618:	150a0000 	strne	r0, [sl, #-0]
    661c:	0000002c 	andeq	r0, r0, ip, lsr #32
    6620:	0d910b00 	vldreq	d0, [r1]
    6624:	180a0000 	stmdane	sl, {}	; <UNPREDICTABLE>
    6628:	0000094b 	andeq	r0, r0, fp, asr #18
    662c:	0d6e0b04 	vstmdbeq	lr!, {d16-d17}
    6630:	1b0a0000 	blne	286638 <__bss_end__+0x27c6a8>
    6634:	0000090b 	andeq	r0, r0, fp, lsl #18
    6638:	76040008 	strvc	r0, [r4], -r8
    663c:	0a00000d 	beq	6678 <_start-0x1988>
    6640:	00095620 	andeq	r5, r9, r0, lsr #12
    6644:	0d9d2300 	ldceq	3, cr2, [sp]
    6648:	05010000 	streq	r0, [r1, #-0]
    664c:	0000090b 	andeq	r0, r0, fp, lsl #18
    6650:	000d6624 	andeq	r6, sp, r4, lsr #12
    6654:	200b0100 	andcs	r0, fp, r0, lsl #2
    6658:	70000091 	mulvc	r0, r1, r0
    665c:	01000000 	mrseq	r0, (UNDEF: 0)
    6660:	000a229c 	muleq	sl, ip, r2
    6664:	0daa1f00 	stceq	15, cr1, [sl]
    6668:	0c010000 	stceq	0, cr0, [r1], {-0}
    666c:	00000025 	andeq	r0, r0, r5, lsr #32
    6670:	000db81f 	andeq	fp, sp, pc, lsl r8
    6674:	250c0100 	strcs	r0, [ip, #-256]	; 0xffffff00
    6678:	25000000 	strcs	r0, [r0, #-0]
    667c:	0000010f 	andeq	r0, r0, pc, lsl #2
    6680:	62260d01 	eorvs	r0, r6, #1, 26	; 0x40
    6684:	01007373 	tsteq	r0, r3, ror r3
    6688:	000a220f 	andeq	r2, sl, pc, lsl #4
    668c:	000d8f00 	andeq	r8, sp, r0, lsl #30
    6690:	0dd42300 	ldcleq	3, cr2, [r4]
    6694:	10010000 	andne	r0, r1, r0
    6698:	00000a22 	andeq	r0, r0, r2, lsr #20
    669c:	00626326 	rsbeq	r6, r2, r6, lsr #6
    66a0:	0a281701 	beq	a0c2ac <__bss_end__+0xa0231c>
    66a4:	0daf0000 	stceq	0, cr0, [pc]	; 66ac <_start-0x1954>
    66a8:	48270000 	stmdami	r7!, {}	; <UNPREDICTABLE>
    66ac:	53000091 	movwpl	r0, #145	; 0x91
    66b0:	2700000a 	strcs	r0, [r0, -sl]
    66b4:	00009160 	andeq	r9, r0, r0, ror #2
    66b8:	00000a5e 	andeq	r0, r0, lr, asr sl
    66bc:	00916427 	addseq	r6, r1, r7, lsr #8
    66c0:	000a6900 	andeq	r6, sl, r0, lsl #18
    66c4:	91782800 	cmnls	r8, r0, lsl #16
    66c8:	0a740000 	beq	1d066d0 <__bss_end__+0x1cfc740>
    66cc:	01290000 			; <UNDEFINED> instruction: 0x01290000
    66d0:	74030550 	strvc	r0, [r3], #-1360	; 0xfffffab0
    66d4:	0000009b 	muleq	r0, fp, r0
    66d8:	25040d00 	strcs	r0, [r4, #-3328]	; 0xfffff300
    66dc:	0d000000 	stceq	0, cr0, [r0, #-0]
    66e0:	00098304 	andeq	r8, r9, r4, lsl #6
    66e4:	0de22a00 			; <UNDEFINED> instruction: 0x0de22a00
    66e8:	06010000 	streq	r0, [r1], -r0
    66ec:	00000025 	andeq	r0, r0, r5, lsr #32
    66f0:	0000911c 	andeq	r9, r0, ip, lsl r1
    66f4:	00000004 	andeq	r0, r0, r4
    66f8:	0a539c01 	beq	14ed704 <__bss_end__+0x14e3774>
    66fc:	632b0000 			; <UNDEFINED> instruction: 0x632b0000
    6700:	25060100 	strcs	r0, [r6, #-256]	; 0xffffff00
    6704:	01000000 	mrseq	r0, (UNDEF: 0)
    6708:	062c0050 			; <UNDEFINED> instruction: 0x062c0050
    670c:	0600000e 	streq	r0, [r0], -lr
    6710:	0a00000e 	beq	6750 <_start-0x18b0>
    6714:	010f2c2a 	tsteq	pc, sl, lsr #24
    6718:	010f0000 	mrseq	r0, CPSR
    671c:	d0070000 	andle	r0, r7, r0
    6720:	000df62c 	andeq	pc, sp, ip, lsr #12
    6724:	000df600 	andeq	pc, sp, r0, lsl #12
    6728:	2c620700 	stclcs	7, cr0, [r2], #-0
    672c:	00000bfb 	strdeq	r0, [r0], -fp
    6730:	00000bfb 	strdeq	r0, [r0], -fp
    6734:	e6002907 	str	r2, [r0], -r7, lsl #18
    6738:	04000009 	streq	r0, [r0], #-9
    673c:	0011fb00 	andseq	pc, r1, r0, lsl #22
    6740:	11010400 	tstne	r1, r0, lsl #8
    6744:	0c00000c 	stceq	0, cr0, [r0], {12}
    6748:	00000e87 	andeq	r0, r0, r7, lsl #29
    674c:	00000c78 	andeq	r0, r0, r8, ror ip
    6750:	00000038 	andeq	r0, r0, r8, lsr r0
    6754:	00000000 	andeq	r0, r0, r0
    6758:	000009ba 			; <UNDEFINED> instruction: 0x000009ba
    675c:	69050402 	stmdbvs	r5, {r1, sl}
    6760:	0300746e 	movweq	r7, #1134	; 0x46e
    6764:	00000025 	andeq	r0, r0, r5, lsr #32
    6768:	57070404 	strpl	r0, [r7, -r4, lsl #8]
    676c:	04000001 	streq	r0, [r0], #-1
    6770:	06180601 	ldreq	r0, [r8], -r1, lsl #12
    6774:	02040000 	andeq	r0, r4, #0
    6778:	00066305 	andeq	r6, r6, r5, lsl #6
    677c:	05040400 	streq	r0, [r4, #-1024]	; 0xfffffc00
    6780:	000001cb 	andeq	r0, r0, fp, asr #3
    6784:	c6050804 	strgt	r0, [r5], -r4, lsl #16
    6788:	04000001 	streq	r0, [r0], #-1
    678c:	06160801 	ldreq	r0, [r6], -r1, lsl #16
    6790:	02040000 	andeq	r0, r4, #0
    6794:	00041d07 	andeq	r1, r4, r7, lsl #26
    6798:	07040400 	streq	r0, [r4, -r0, lsl #8]
    679c:	00000152 	andeq	r0, r0, r2, asr r1
    67a0:	4d070804 	stcmi	8, cr0, [r7, #-16]
    67a4:	05000001 	streq	r0, [r0, #-1]
    67a8:	000005e1 	andeq	r0, r0, r1, ror #11
    67ac:	00250702 	eoreq	r0, r5, r2, lsl #14
    67b0:	9d050000 	stcls	0, cr0, [r5, #-0]
    67b4:	03000005 	movweq	r0, #5
    67b8:	0000462c 	andeq	r4, r0, ip, lsr #12
    67bc:	07610500 	strbeq	r0, [r1, -r0, lsl #10]!
    67c0:	72030000 	andvc	r0, r3, #0
    67c4:	00000046 	andeq	r0, r0, r6, asr #32
    67c8:	00048106 	andeq	r8, r4, r6, lsl #2
    67cc:	01650400 	cmneq	r5, r0, lsl #8
    67d0:	00000031 	andeq	r0, r0, r1, lsr r0
    67d4:	a6030407 	strge	r0, [r3], -r7, lsl #8
    67d8:	000000bc 	strheq	r0, [r0], -ip
    67dc:	00046e08 	andeq	r6, r4, r8, lsl #28
    67e0:	91a80300 			; <UNDEFINED> instruction: 0x91a80300
    67e4:	08000000 	stmdaeq	r0, {}	; <UNPREDICTABLE>
    67e8:	00000381 	andeq	r0, r0, r1, lsl #7
    67ec:	00bca903 	adcseq	sl, ip, r3, lsl #18
    67f0:	09000000 	stmdbeq	r0, {}	; <UNPREDICTABLE>
    67f4:	00000054 	andeq	r0, r0, r4, asr r0
    67f8:	000000cc 	andeq	r0, r0, ip, asr #1
    67fc:	0000cc0a 	andeq	ip, r0, sl, lsl #24
    6800:	04000300 	streq	r0, [r0], #-768	; 0xfffffd00
    6804:	050d0704 	streq	r0, [sp, #-1796]	; 0xfffff8fc
    6808:	080b0000 	stmdaeq	fp, {}	; <UNPREDICTABLE>
    680c:	00f4a303 	rscseq	sl, r4, r3, lsl #6
    6810:	3d0c0000 	stccc	0, cr0, [ip, #-0]
    6814:	03000007 	movweq	r0, #7
    6818:	000025a5 	andeq	r2, r0, r5, lsr #11
    681c:	e40c0000 	str	r0, [ip], #-0
    6820:	03000007 	movweq	r0, #7
    6824:	00009daa 	andeq	r9, r0, sl, lsr #27
    6828:	05000400 	streq	r0, [r0, #-1024]	; 0xfffffc00
    682c:	00000698 	muleq	r0, r8, r6
    6830:	00d3ab03 	sbcseq	sl, r3, r3, lsl #22
    6834:	1f050000 	svcne	0x00050000
    6838:	03000003 	movweq	r0, #3
    683c:	000070af 	andeq	r7, r0, pc, lsr #1
    6840:	0e040d00 	cdpeq	13, 0, cr0, cr4, cr0, {0}
    6844:	00011204 	andeq	r1, r1, r4, lsl #4
    6848:	08010400 	stmdaeq	r1, {sl}
    684c:	0000061f 	andeq	r0, r0, pc, lsl r6
    6850:	00011203 	andeq	r1, r1, r3, lsl #4
    6854:	081e0500 	ldmdaeq	lr, {r8, sl}
    6858:	16050000 	strne	r0, [r5], -r0
    685c:	00000062 	andeq	r0, r0, r2, rrx
    6860:	0003300f 	andeq	r3, r3, pc
    6864:	2d051800 	stccs	8, cr1, [r5, #-0]
    6868:	0000017c 	andeq	r0, r0, ip, ror r1
    686c:	0006c90c 	andeq	ip, r6, ip, lsl #18
    6870:	7c2f0500 	cfstr32vc	mvfx0, [pc], #-0	; 6878 <_start-0x1788>
    6874:	00000001 	andeq	r0, r0, r1
    6878:	006b5f10 	rsbeq	r5, fp, r0, lsl pc
    687c:	00253005 	eoreq	r3, r5, r5
    6880:	0c040000 	stceq	0, cr0, [r4], {-0}
    6884:	00000716 	andeq	r0, r0, r6, lsl r7
    6888:	00253005 	eoreq	r3, r5, r5
    688c:	0c080000 	stceq	0, cr0, [r8], {-0}
    6890:	00000319 	andeq	r0, r0, r9, lsl r3
    6894:	00253005 	eoreq	r3, r5, r5
    6898:	0c0c0000 	stceq	0, cr0, [ip], {-0}
    689c:	000008b2 			; <UNDEFINED> instruction: 0x000008b2
    68a0:	00253005 	eoreq	r3, r5, r5
    68a4:	10100000 	andsne	r0, r0, r0
    68a8:	0500785f 	streq	r7, [r0, #-2143]	; 0xfffff7a1
    68ac:	00018231 	andeq	r8, r1, r1, lsr r2
    68b0:	0e001400 	cfcpyseq	mvf1, mvf0
    68b4:	00012904 	andeq	r2, r1, r4, lsl #18
    68b8:	011e0900 	tsteq	lr, r0, lsl #18
    68bc:	01920000 	orrseq	r0, r2, r0
    68c0:	cc0a0000 	stcgt	0, cr0, [sl], {-0}
    68c4:	00000000 	andeq	r0, r0, r0
    68c8:	03730f00 	cmneq	r3, #0, 30
    68cc:	05240000 	streq	r0, [r4, #-0]!
    68d0:	00020b35 	andeq	r0, r2, r5, lsr fp
    68d4:	01bd0c00 			; <UNDEFINED> instruction: 0x01bd0c00
    68d8:	37050000 	strcc	r0, [r5, -r0]
    68dc:	00000025 	andeq	r0, r0, r5, lsr #32
    68e0:	07890c00 	streq	r0, [r9, r0, lsl #24]
    68e4:	38050000 	stmdacc	r5, {}	; <UNPREDICTABLE>
    68e8:	00000025 	andeq	r0, r0, r5, lsr #32
    68ec:	02070c04 	andeq	r0, r7, #4, 24	; 0x400
    68f0:	39050000 	stmdbcc	r5, {}	; <UNPREDICTABLE>
    68f4:	00000025 	andeq	r0, r0, r5, lsr #32
    68f8:	09bc0c08 	ldmibeq	ip!, {r3, sl, fp}
    68fc:	3a050000 	bcc	146904 <__bss_end__+0x13c974>
    6900:	00000025 	andeq	r0, r0, r5, lsr #32
    6904:	05620c0c 	strbeq	r0, [r2, #-3084]!	; 0xfffff3f4
    6908:	3b050000 	blcc	146910 <__bss_end__+0x13c980>
    690c:	00000025 	andeq	r0, r0, r5, lsr #32
    6910:	04d00c10 	ldrbeq	r0, [r0], #3088	; 0xc10
    6914:	3c050000 	stccc	0, cr0, [r5], {-0}
    6918:	00000025 	andeq	r0, r0, r5, lsr #32
    691c:	08b70c14 	ldmeq	r7!, {r2, r4, sl, fp}
    6920:	3d050000 	stccc	0, cr0, [r5, #-0]
    6924:	00000025 	andeq	r0, r0, r5, lsr #32
    6928:	066d0c18 			; <UNDEFINED> instruction: 0x066d0c18
    692c:	3e050000 	cdpcc	0, 0, cr0, cr5, cr0, {0}
    6930:	00000025 	andeq	r0, r0, r5, lsr #32
    6934:	09360c1c 	ldmdbeq	r6!, {r2, r3, r4, sl, fp}
    6938:	3f050000 	svccc	0x00050000
    693c:	00000025 	andeq	r0, r0, r5, lsr #32
    6940:	16110020 	ldrne	r0, [r1], -r0, lsr #32
    6944:	08000002 	stmdaeq	r0, {r1}
    6948:	4b480501 	blmi	1207d54 <__bss_end__+0x11fddc4>
    694c:	0c000002 	stceq	0, cr0, [r0], {2}
    6950:	000002eb 	andeq	r0, r0, fp, ror #5
    6954:	024b4905 	subeq	r4, fp, #81920	; 0x14000
    6958:	0c000000 	stceq	0, cr0, [r0], {-0}
    695c:	00000000 	andeq	r0, r0, r0
    6960:	024b4a05 	subeq	r4, fp, #20480	; 0x5000
    6964:	12800000 	addne	r0, r0, #0
    6968:	000007ab 	andeq	r0, r0, fp, lsr #15
    696c:	011e4c05 	tsteq	lr, r5, lsl #24
    6970:	01000000 	mrseq	r0, (UNDEF: 0)
    6974:	00026012 	andeq	r6, r2, r2, lsl r0
    6978:	1e4f0500 	cdpne	5, 4, cr0, cr15, cr0, {0}
    697c:	04000001 	streq	r0, [r0], #-1
    6980:	0a090001 	beq	24698c <__bss_end__+0x23c9fc>
    6984:	5b000001 	blpl	6990 <_start-0x1670>
    6988:	0a000002 	beq	6998 <_start-0x1668>
    698c:	000000cc 	andeq	r0, r0, ip, asr #1
    6990:	7c11001f 	ldcvc	0, cr0, [r1], {31}
    6994:	90000005 	andls	r0, r0, r5
    6998:	995b0501 	ldmdbls	fp, {r0, r8, sl}^
    699c:	0c000002 	stceq	0, cr0, [r0], {2}
    69a0:	000006c9 	andeq	r0, r0, r9, asr #13
    69a4:	02995c05 	addseq	r5, r9, #1280	; 0x500
    69a8:	0c000000 	stceq	0, cr0, [r0], {-0}
    69ac:	000006f7 	strdeq	r0, [r0], -r7
    69b0:	00255d05 	eoreq	r5, r5, r5, lsl #26
    69b4:	0c040000 	stceq	0, cr0, [r4], {-0}
    69b8:	00000314 	andeq	r0, r0, r4, lsl r3
    69bc:	029f5f05 	addseq	r5, pc, #5, 30
    69c0:	0c080000 	stceq	0, cr0, [r8], {-0}
    69c4:	00000216 	andeq	r0, r0, r6, lsl r2
    69c8:	020b6005 	andeq	r6, fp, #5
    69cc:	00880000 	addeq	r0, r8, r0
    69d0:	025b040e 	subseq	r0, fp, #234881024	; 0xe000000
    69d4:	af090000 	svcge	0x00090000
    69d8:	af000002 	svcge	0x00000002
    69dc:	0a000002 	beq	69ec <_start-0x1614>
    69e0:	000000cc 	andeq	r0, r0, ip, asr #1
    69e4:	040e001f 	streq	r0, [lr], #-31	; 0xffffffe1
    69e8:	000002b5 			; <UNDEFINED> instruction: 0x000002b5
    69ec:	06770f13 	uhadd16eq	r0, r7, r3
    69f0:	05080000 	streq	r0, [r8, #-0]
    69f4:	0002db73 	andeq	sp, r2, r3, ror fp
    69f8:	02010c00 	andeq	r0, r1, #0, 24
    69fc:	74050000 	strvc	r0, [r5], #-0
    6a00:	000002db 	ldrdeq	r0, [r0], -fp
    6a04:	00a60c00 	adceq	r0, r6, r0, lsl #24
    6a08:	75050000 	strvc	r0, [r5, #-0]
    6a0c:	00000025 	andeq	r0, r0, r5, lsr #32
    6a10:	040e0004 	streq	r0, [lr], #-4
    6a14:	00000054 	andeq	r0, r0, r4, asr r0
    6a18:	0006a30f 	andeq	sl, r6, pc, lsl #6
    6a1c:	b3056800 	movwlt	r6, #22528	; 0x5800
    6a20:	0000040b 	andeq	r0, r0, fp, lsl #8
    6a24:	00705f10 	rsbseq	r5, r0, r0, lsl pc
    6a28:	02dbb405 	sbcseq	fp, fp, #83886080	; 0x5000000
    6a2c:	10000000 	andne	r0, r0, r0
    6a30:	0500725f 	streq	r7, [r0, #-607]	; 0xfffffda1
    6a34:	000025b5 			; <UNDEFINED> instruction: 0x000025b5
    6a38:	5f100400 	svcpl	0x00100400
    6a3c:	b6050077 			; <UNDEFINED> instruction: 0xb6050077
    6a40:	00000025 	andeq	r0, r0, r5, lsr #32
    6a44:	02590c08 	subseq	r0, r9, #8, 24	; 0x800
    6a48:	b7050000 	strlt	r0, [r5, -r0]
    6a4c:	0000003f 	andeq	r0, r0, pc, lsr r0
    6a50:	03b20c0c 			; <UNDEFINED> instruction: 0x03b20c0c
    6a54:	b8050000 	stmdalt	r5, {}	; <UNPREDICTABLE>
    6a58:	0000003f 	andeq	r0, r0, pc, lsr r0
    6a5c:	625f100e 	subsvs	r1, pc, #14
    6a60:	b9050066 	stmdblt	r5, {r1, r2, r5, r6}
    6a64:	000002b6 			; <UNDEFINED> instruction: 0x000002b6
    6a68:	016d0c10 	cmneq	sp, r0, lsl ip
    6a6c:	ba050000 	blt	146a74 <__bss_end__+0x13cae4>
    6a70:	00000025 	andeq	r0, r0, r5, lsr #32
    6a74:	02240c18 	eoreq	r0, r4, #24, 24	; 0x1800
    6a78:	c1050000 	mrsgt	r0, (UNDEF: 5)
    6a7c:	0000010a 	andeq	r0, r0, sl, lsl #2
    6a80:	089a0c1c 	ldmeq	sl, {r2, r3, r4, sl, fp}
    6a84:	c3050000 	movwgt	r0, #20480	; 0x5000
    6a88:	00000566 	andeq	r0, r0, r6, ror #10
    6a8c:	01790c20 	cmneq	r9, r0, lsr #24
    6a90:	c5050000 	strgt	r0, [r5, #-0]
    6a94:	00000590 	muleq	r0, r0, r5
    6a98:	074e0c24 	strbeq	r0, [lr, -r4, lsr #24]
    6a9c:	c8050000 	stmdagt	r5, {}	; <UNPREDICTABLE>
    6aa0:	000005b4 			; <UNDEFINED> instruction: 0x000005b4
    6aa4:	09500c28 	ldmdbeq	r0, {r3, r5, sl, fp}^
    6aa8:	c9050000 	stmdbgt	r5, {}	; <UNPREDICTABLE>
    6aac:	000005ce 	andeq	r0, r0, lr, asr #11
    6ab0:	755f102c 	ldrbvc	r1, [pc, #-44]	; 6a8c <_start-0x1574>
    6ab4:	cc050062 	stcgt	0, cr0, [r5], {98}	; 0x62
    6ab8:	000002b6 			; <UNDEFINED> instruction: 0x000002b6
    6abc:	755f1030 	ldrbvc	r1, [pc, #-48]	; 6a94 <_start-0x156c>
    6ac0:	cd050070 	stcgt	0, cr0, [r5, #-448]	; 0xfffffe40
    6ac4:	000002db 	ldrdeq	r0, [r0], -fp
    6ac8:	755f1038 	ldrbvc	r1, [pc, #-56]	; 6a98 <_start-0x1568>
    6acc:	ce050072 	mcrgt	0, 0, r0, cr5, cr2, {3}
    6ad0:	00000025 	andeq	r0, r0, r5, lsr #32
    6ad4:	01f30c3c 	mvnseq	r0, ip, lsr ip
    6ad8:	d1050000 	mrsle	r0, (UNDEF: 5)
    6adc:	000005d4 	ldrdeq	r0, [r0], -r4
    6ae0:	09110c40 	ldmdbeq	r1, {r6, sl, fp}
    6ae4:	d2050000 	andle	r0, r5, #0
    6ae8:	000005e4 	andeq	r0, r0, r4, ror #11
    6aec:	6c5f1043 	mrrcvs	0, 4, r1, pc, cr3	; <UNPREDICTABLE>
    6af0:	d5050062 	strle	r0, [r5, #-98]	; 0xffffff9e
    6af4:	000002b6 			; <UNDEFINED> instruction: 0x000002b6
    6af8:	02760c44 	rsbseq	r0, r6, #68, 24	; 0x4400
    6afc:	d8050000 	stmdale	r5, {}	; <UNPREDICTABLE>
    6b00:	00000025 	andeq	r0, r0, r5, lsr #32
    6b04:	02ac0c4c 	adceq	r0, ip, #76, 24	; 0x4c00
    6b08:	d9050000 	stmdble	r5, {}	; <UNPREDICTABLE>
    6b0c:	0000007b 	andeq	r0, r0, fp, ror r0
    6b10:	06440c50 			; <UNDEFINED> instruction: 0x06440c50
    6b14:	dc050000 	stcle	0, cr0, [r5], {-0}
    6b18:	00000429 	andeq	r0, r0, r9, lsr #8
    6b1c:	106a0c54 	rsbne	r0, sl, r4, asr ip
    6b20:	e0050000 	and	r0, r5, r0
    6b24:	000000ff 	strdeq	r0, [r0], -pc	; <UNPREDICTABLE>
    6b28:	06bb0c58 	ssateq	r0, #28, r8, asr #24
    6b2c:	e2050000 	and	r0, r5, #0
    6b30:	000000f4 	strdeq	r0, [r0], -r4
    6b34:	049e0c5c 	ldreq	r0, [lr], #3164	; 0xc5c
    6b38:	e3050000 	movw	r0, #20480	; 0x5000
    6b3c:	00000025 	andeq	r0, r0, r5, lsr #32
    6b40:	25140064 	ldrcs	r0, [r4, #-100]	; 0xffffff9c
    6b44:	29000000 	stmdbcs	r0, {}	; <UNPREDICTABLE>
    6b48:	15000004 	strne	r0, [r0, #-4]
    6b4c:	00000429 	andeq	r0, r0, r9, lsr #8
    6b50:	00010a15 	andeq	r0, r1, r5, lsl sl
    6b54:	010c1500 	tsteq	ip, r0, lsl #10
    6b58:	25150000 	ldrcs	r0, [r5, #-0]
    6b5c:	00000000 	andeq	r0, r0, r0
    6b60:	0434040e 	ldrteq	r0, [r4], #-1038	; 0xfffffbf2
    6b64:	29030000 	stmdbcs	r3, {}	; <UNPREDICTABLE>
    6b68:	16000004 	strne	r0, [r0], -r4
    6b6c:	0000071e 	andeq	r0, r0, lr, lsl r7
    6b70:	38050428 	stmdacc	r5, {r3, r5, sl}
    6b74:	00056602 	andeq	r6, r5, r2, lsl #12
    6b78:	065c1700 	ldrbeq	r1, [ip], -r0, lsl #14
    6b7c:	3a050000 	bcc	146b84 <__bss_end__+0x13cbf4>
    6b80:	00002502 	andeq	r2, r0, r2, lsl #10
    6b84:	68170000 	ldmdavs	r7, {}	; <UNPREDICTABLE>
    6b88:	05000002 	streq	r0, [r0, #-2]
    6b8c:	063b023f 			; <UNDEFINED> instruction: 0x063b023f
    6b90:	17040000 	strne	r0, [r4, -r0]
    6b94:	00000397 	muleq	r0, r7, r3
    6b98:	3b023f05 	blcc	967b4 <__bss_end__+0x8c824>
    6b9c:	08000006 	stmdaeq	r0, {r1, r2}
    6ba0:	00032817 	andeq	r2, r3, r7, lsl r8
    6ba4:	023f0500 	eorseq	r0, pc, #0, 10
    6ba8:	0000063b 	andeq	r0, r0, fp, lsr r6
    6bac:	06f2170c 	ldrbteq	r1, [r2], ip, lsl #14
    6bb0:	41050000 	mrsmi	r0, (UNDEF: 5)
    6bb4:	00002502 	andeq	r2, r0, r2, lsl #10
    6bb8:	ed171000 	ldc	0, cr1, [r7, #-0]
    6bbc:	05000000 	streq	r0, [r0, #-0]
    6bc0:	081d0242 	ldmdaeq	sp, {r1, r6, r9}
    6bc4:	17140000 	ldrne	r0, [r4, -r0]
    6bc8:	0000085c 	andeq	r0, r0, ip, asr r8
    6bcc:	25024405 	strcs	r4, [r2, #-1029]	; 0xfffffbfb
    6bd0:	30000000 	andcc	r0, r0, r0
    6bd4:	0006fc17 	andeq	pc, r6, r7, lsl ip	; <UNPREDICTABLE>
    6bd8:	02450500 	subeq	r0, r5, #0, 10
    6bdc:	0000058a 	andeq	r0, r0, sl, lsl #11
    6be0:	05921734 	ldreq	r1, [r2, #1844]	; 0x734
    6be4:	47050000 	strmi	r0, [r5, -r0]
    6be8:	00002502 	andeq	r2, r0, r2, lsl #10
    6bec:	0c173800 	ldceq	8, cr3, [r7], {-0}
    6bf0:	05000007 	streq	r0, [r0, #-7]
    6bf4:	08380249 	ldmdaeq	r8!, {r0, r3, r6, r9}
    6bf8:	173c0000 	ldrne	r0, [ip, -r0]!
    6bfc:	00000466 	andeq	r0, r0, r6, ror #8
    6c00:	7c024c05 	stcvc	12, cr4, [r2], {5}
    6c04:	40000001 	andmi	r0, r0, r1
    6c08:	00035d17 	andeq	r5, r3, r7, lsl sp
    6c0c:	024d0500 	subeq	r0, sp, #0, 10
    6c10:	00000025 	andeq	r0, r0, r5, lsr #32
    6c14:	09731744 	ldmdbeq	r3!, {r2, r6, r8, r9, sl, ip}^
    6c18:	4e050000 	cdpmi	0, 0, cr0, cr5, cr0, {0}
    6c1c:	00017c02 	andeq	r7, r1, r2, lsl #24
    6c20:	c7174800 	ldrgt	r4, [r7, -r0, lsl #16]
    6c24:	05000005 	streq	r0, [r0, #-5]
    6c28:	083e024f 	ldmdaeq	lr!, {r0, r1, r2, r3, r6, r9}
    6c2c:	174c0000 	strbne	r0, [ip, -r0]
    6c30:	0000039f 	muleq	r0, pc, r3	; <UNPREDICTABLE>
    6c34:	25025205 	strcs	r5, [r2, #-517]	; 0xfffffdfb
    6c38:	50000000 	andpl	r0, r0, r0
    6c3c:	0002a417 	andeq	sl, r2, r7, lsl r4
    6c40:	02530500 	subseq	r0, r3, #0, 10
    6c44:	0000010c 	andeq	r0, r0, ip, lsl #2
    6c48:	112c1754 			; <UNDEFINED> instruction: 0x112c1754
    6c4c:	76050000 	strvc	r0, [r5], -r0
    6c50:	0007fb02 	andeq	pc, r7, r2, lsl #22
    6c54:	7c185800 	ldcvc	8, cr5, [r8], {-0}
    6c58:	05000005 	streq	r0, [r0, #-5]
    6c5c:	0299027a 	addseq	r0, r9, #-1610612729	; 0xa0000007
    6c60:	01480000 	mrseq	r0, (UNDEF: 72)
    6c64:	00043018 	andeq	r3, r4, r8, lsl r0
    6c68:	027b0500 	rsbseq	r0, fp, #0, 10
    6c6c:	0000025b 	andeq	r0, r0, fp, asr r2
    6c70:	e218014c 	ands	r0, r8, #76, 2
    6c74:	05000008 	streq	r0, [r0, #-8]
    6c78:	084f027f 	stmdaeq	pc, {r0, r1, r2, r3, r4, r5, r6, r9}^	; <UNPREDICTABLE>
    6c7c:	02dc0000 	sbcseq	r0, ip, #0
    6c80:	00022c18 	andeq	r2, r2, r8, lsl ip
    6c84:	02840500 	addeq	r0, r4, #0, 10
    6c88:	00000600 	andeq	r0, r0, r0, lsl #12
    6c8c:	111802e0 	tstne	r8, r0, ror #5
    6c90:	05000002 	streq	r0, [r0, #-2]
    6c94:	085b0285 	ldmdaeq	fp, {r0, r2, r7, r9}^
    6c98:	02ec0000 	rsceq	r0, ip, #0
    6c9c:	0b040e00 	bleq	10a4a4 <__bss_end__+0x100514>
    6ca0:	14000004 	strne	r0, [r0], #-4
    6ca4:	00000025 	andeq	r0, r0, r5, lsr #32
    6ca8:	0000058a 	andeq	r0, r0, sl, lsl #11
    6cac:	00042915 	andeq	r2, r4, r5, lsl r9
    6cb0:	010a1500 	tsteq	sl, r0, lsl #10
    6cb4:	8a150000 	bhi	546cbc <__bss_end__+0x53cd2c>
    6cb8:	15000005 	strne	r0, [r0, #-5]
    6cbc:	00000025 	andeq	r0, r0, r5, lsr #32
    6cc0:	19040e00 	stmdbne	r4, {r9, sl, fp}
    6cc4:	0e000001 	cdpeq	0, 0, cr0, cr0, cr1, {0}
    6cc8:	00056c04 	andeq	r6, r5, r4, lsl #24
    6ccc:	00861400 	addeq	r1, r6, r0, lsl #8
    6cd0:	05b40000 	ldreq	r0, [r4, #0]!
    6cd4:	29150000 	ldmdbcs	r5, {}	; <UNPREDICTABLE>
    6cd8:	15000004 	strne	r0, [r0, #-4]
    6cdc:	0000010a 	andeq	r0, r0, sl, lsl #2
    6ce0:	00008615 	andeq	r8, r0, r5, lsl r6
    6ce4:	00251500 	eoreq	r1, r5, r0, lsl #10
    6ce8:	0e000000 	cdpeq	0, 0, cr0, cr0, cr0, {0}
    6cec:	00059604 	andeq	r9, r5, r4, lsl #12
    6cf0:	00251400 	eoreq	r1, r5, r0, lsl #8
    6cf4:	05ce0000 	strbeq	r0, [lr]
    6cf8:	29150000 	ldmdbcs	r5, {}	; <UNPREDICTABLE>
    6cfc:	15000004 	strne	r0, [r0, #-4]
    6d00:	0000010a 	andeq	r0, r0, sl, lsl #2
    6d04:	ba040e00 	blt	10a50c <__bss_end__+0x10057c>
    6d08:	09000005 	stmdbeq	r0, {r0, r2}
    6d0c:	00000054 	andeq	r0, r0, r4, asr r0
    6d10:	000005e4 	andeq	r0, r0, r4, ror #11
    6d14:	0000cc0a 	andeq	ip, r0, sl, lsl #24
    6d18:	09000200 	stmdbeq	r0, {r9}
    6d1c:	00000054 	andeq	r0, r0, r4, asr r0
    6d20:	000005f4 	strdeq	r0, [r0], -r4
    6d24:	0000cc0a 	andeq	ip, r0, sl, lsl #24
    6d28:	06000000 	streq	r0, [r0], -r0
    6d2c:	00000691 	muleq	r0, r1, r6
    6d30:	e1011d05 	tst	r1, r5, lsl #26
    6d34:	19000002 	stmdbne	r0, {r1}
    6d38:	000008c1 	andeq	r0, r0, r1, asr #17
    6d3c:	0121050c 			; <UNDEFINED> instruction: 0x0121050c
    6d40:	00000635 	andeq	r0, r0, r5, lsr r6
    6d44:	0006c917 	andeq	ip, r6, r7, lsl r9
    6d48:	01230500 			; <UNDEFINED> instruction: 0x01230500
    6d4c:	00000635 	andeq	r0, r0, r5, lsr r6
    6d50:	04001700 	streq	r1, [r0], #-1792	; 0xfffff900
    6d54:	24050000 	strcs	r0, [r5], #-0
    6d58:	00002501 	andeq	r2, r0, r1, lsl #10
    6d5c:	8b170400 	blhi	5c7d64 <__bss_end__+0x5bddd4>
    6d60:	05000006 	streq	r0, [r0, #-6]
    6d64:	063b0125 	ldrteq	r0, [fp], -r5, lsr #2
    6d68:	00080000 	andeq	r0, r8, r0
    6d6c:	0600040e 	streq	r0, [r0], -lr, lsl #8
    6d70:	040e0000 	streq	r0, [lr], #-0
    6d74:	000005f4 	strdeq	r0, [r0], -r4
    6d78:	0000d119 	andeq	sp, r0, r9, lsl r1
    6d7c:	3d050e00 	stccc	14, cr0, [r5, #-0]
    6d80:	00067601 	andeq	r7, r6, r1, lsl #12
    6d84:	072e1700 	streq	r1, [lr, -r0, lsl #14]!
    6d88:	3e050000 	cdpcc	0, 0, cr0, cr5, cr0, {0}
    6d8c:	00067601 	andeq	r7, r6, r1, lsl #12
    6d90:	d1170000 	tstle	r7, r0
    6d94:	05000007 	streq	r0, [r0, #-7]
    6d98:	0676013f 			; <UNDEFINED> instruction: 0x0676013f
    6d9c:	17060000 	strne	r0, [r6, -r0]
    6da0:	00000810 	andeq	r0, r0, r0, lsl r8
    6da4:	5b014005 	blpl	56dc0 <__bss_end__+0x4ce30>
    6da8:	0c000000 	stceq	0, cr0, [r0], {-0}
    6dac:	005b0900 	subseq	r0, fp, r0, lsl #18
    6db0:	06860000 	streq	r0, [r6], r0
    6db4:	cc0a0000 	stcgt	0, cr0, [sl], {-0}
    6db8:	02000000 	andeq	r0, r0, #0
    6dbc:	05d01a00 	ldrbeq	r1, [r0, #2560]	; 0xa00
    6dc0:	07870257 			; <UNDEFINED> instruction: 0x07870257
    6dc4:	8a170000 	bhi	5c6dcc <__bss_end__+0x5bce3c>
    6dc8:	05000008 	streq	r0, [r0, #-8]
    6dcc:	00310259 	eorseq	r0, r1, r9, asr r2
    6dd0:	17000000 	strne	r0, [r0, -r0]
    6dd4:	000007d7 	ldrdeq	r0, [r0], -r7
    6dd8:	0c025a05 			; <UNDEFINED> instruction: 0x0c025a05
    6ddc:	04000001 	streq	r0, [r0], #-1
    6de0:	00044517 	andeq	r4, r4, r7, lsl r5
    6de4:	025b0500 	subseq	r0, fp, #0, 10
    6de8:	00000787 	andeq	r0, r0, r7, lsl #15
    6dec:	09411708 	stmdbeq	r1, {r3, r8, r9, sl, ip}^
    6df0:	5c050000 	stcpl	0, cr0, [r5], {-0}
    6df4:	00019202 	andeq	r9, r1, r2, lsl #4
    6df8:	38172400 	ldmdacc	r7, {sl, sp}
    6dfc:	05000003 	streq	r0, [r0, #-3]
    6e00:	0025025d 	eoreq	r0, r5, sp, asr r2
    6e04:	17480000 	strbne	r0, [r8, -r0]
    6e08:	000006c4 	andeq	r0, r0, r4, asr #13
    6e0c:	69025e05 	stmdbvs	r2, {r0, r2, r9, sl, fp, ip, lr}
    6e10:	50000000 	andpl	r0, r0, r0
    6e14:	00095717 	andeq	r5, r9, r7, lsl r7
    6e18:	025f0500 	subseq	r0, pc, #0, 10
    6e1c:	00000641 	andeq	r0, r0, r1, asr #12
    6e20:	06e51758 	usateq	r1, #5, r8, asr #14
    6e24:	60050000 	andvs	r0, r5, r0
    6e28:	0000f402 	andeq	pc, r0, r2, lsl #8
    6e2c:	65176800 	ldrvs	r6, [r7, #-2048]	; 0xfffff800
    6e30:	05000009 	streq	r0, [r0, #-9]
    6e34:	00f40261 	rscseq	r0, r4, r1, ror #4
    6e38:	17700000 	ldrbne	r0, [r0, -r0]!
    6e3c:	000001af 	andeq	r0, r0, pc, lsr #3
    6e40:	f4026205 	vst1.8	{d6-d9}, [r2], r5
    6e44:	78000000 	stmdavc	r0, {}	; <UNPREDICTABLE>
    6e48:	0008d817 	andeq	sp, r8, r7, lsl r8
    6e4c:	02630500 	rsbeq	r0, r3, #0, 10
    6e50:	00000797 	muleq	r0, r7, r7
    6e54:	04391780 	ldrteq	r1, [r9], #-1920	; 0xfffff880
    6e58:	64050000 	strvs	r0, [r5], #-0
    6e5c:	0007a702 	andeq	sl, r7, r2, lsl #14
    6e60:	26178800 	ldrcs	r8, [r7], -r0, lsl #16
    6e64:	05000008 	streq	r0, [r0, #-8]
    6e68:	00250265 	eoreq	r0, r5, r5, ror #4
    6e6c:	17a00000 	strne	r0, [r0, r0]!
    6e70:	000002dd 	ldrdeq	r0, [r0], -sp
    6e74:	f4026605 	vst1.8	{d6-d8}, [r2], r5
    6e78:	a4000000 	strge	r0, [r0], #-0
    6e7c:	00018b17 	andeq	r8, r1, r7, lsl fp
    6e80:	02670500 	rsbeq	r0, r7, #0, 10
    6e84:	000000f4 	strdeq	r0, [r0], -r4
    6e88:	02c317ac 	sbceq	r1, r3, #172, 14	; 0x2b00000
    6e8c:	68050000 	stmdavs	r5, {}	; <UNPREDICTABLE>
    6e90:	0000f402 	andeq	pc, r0, r2, lsl #8
    6e94:	2d17b400 	cfldrscs	mvf11, [r7, #-0]
    6e98:	05000001 	streq	r0, [r0, #-1]
    6e9c:	00f40269 	rscseq	r0, r4, r9, ror #4
    6ea0:	17bc0000 	ldrne	r0, [ip, r0]!
    6ea4:	0000013c 	andeq	r0, r0, ip, lsr r1
    6ea8:	f4026a05 	vst1.8	{d6-d7}, [r2], r5
    6eac:	c4000000 	strgt	r0, [r0], #-0
    6eb0:	00065a17 	andeq	r5, r6, r7, lsl sl
    6eb4:	026b0500 	rsbeq	r0, fp, #0, 10
    6eb8:	00000025 	andeq	r0, r0, r5, lsr #32
    6ebc:	120900cc 	andne	r0, r9, #204	; 0xcc
    6ec0:	97000001 	strls	r0, [r0, -r1]
    6ec4:	0a000007 	beq	6ee8 <_start-0x1118>
    6ec8:	000000cc 	andeq	r0, r0, ip, asr #1
    6ecc:	12090019 	andne	r0, r9, #25
    6ed0:	a7000001 	strge	r0, [r0, -r1]
    6ed4:	0a000007 	beq	6ef8 <_start-0x1108>
    6ed8:	000000cc 	andeq	r0, r0, ip, asr #1
    6edc:	12090007 	andne	r0, r9, #7
    6ee0:	b7000001 	strlt	r0, [r0, -r1]
    6ee4:	0a000007 	beq	6f08 <_start-0x10f8>
    6ee8:	000000cc 	andeq	r0, r0, ip, asr #1
    6eec:	f01a0017 			; <UNDEFINED> instruction: 0xf01a0017
    6ef0:	db027005 	blle	a2f0c <__bss_end__+0x98f7c>
    6ef4:	17000007 	strne	r0, [r0, -r7]
    6ef8:	00000551 	andeq	r0, r0, r1, asr r5
    6efc:	db027305 	blle	a3b18 <__bss_end__+0x99b88>
    6f00:	00000007 	andeq	r0, r0, r7
    6f04:	0004f817 	andeq	pc, r4, r7, lsl r8	; <UNPREDICTABLE>
    6f08:	02740500 	rsbseq	r0, r4, #0, 10
    6f0c:	000007eb 	andeq	r0, r0, fp, ror #15
    6f10:	db090078 	blle	2470f8 <__bss_end__+0x23d168>
    6f14:	eb000002 	bl	6f24 <_start-0x10dc>
    6f18:	0a000007 	beq	6f3c <_start-0x10c4>
    6f1c:	000000cc 	andeq	r0, r0, ip, asr #1
    6f20:	3109001d 	tstcc	r9, sp, lsl r0
    6f24:	fb000000 	blx	6f2e <_start-0x10d2>
    6f28:	0a000007 	beq	6f4c <_start-0x10b4>
    6f2c:	000000cc 	andeq	r0, r0, ip, asr #1
    6f30:	f01b001d 			; <UNDEFINED> instruction: 0xf01b001d
    6f34:	1d025505 	cfstr32ne	mvfx5, [r2, #-20]	; 0xffffffec
    6f38:	1c000008 	stcne	0, cr0, [r0], {8}
    6f3c:	0000071e 	andeq	r0, r0, lr, lsl r7
    6f40:	86026c05 	strhi	r6, [r2], -r5, lsl #24
    6f44:	1c000006 	stcne	0, cr0, [r0], {6}
    6f48:	00000917 	andeq	r0, r0, r7, lsl r9
    6f4c:	b7027505 	strlt	r7, [r2, -r5, lsl #10]
    6f50:	00000007 	andeq	r0, r0, r7
    6f54:	00011209 	andeq	r1, r1, r9, lsl #4
    6f58:	00082d00 	andeq	r2, r8, r0, lsl #26
    6f5c:	00cc0a00 	sbceq	r0, ip, r0, lsl #20
    6f60:	00180000 	andseq	r0, r8, r0
    6f64:	0008381d 	andeq	r3, r8, sp, lsl r8
    6f68:	04291500 	strteq	r1, [r9], #-1280	; 0xfffffb00
    6f6c:	0e000000 	cdpeq	0, 0, cr0, cr0, cr0, {0}
    6f70:	00082d04 	andeq	r2, r8, r4, lsl #26
    6f74:	7c040e00 	stcvc	14, cr0, [r4], {-0}
    6f78:	1d000001 	stcne	0, cr0, [r0, #-4]
    6f7c:	0000084f 	andeq	r0, r0, pc, asr #16
    6f80:	00002515 	andeq	r2, r0, r5, lsl r5
    6f84:	040e0000 	streq	r0, [lr], #-0
    6f88:	00000855 	andeq	r0, r0, r5, asr r8
    6f8c:	0844040e 	stmdaeq	r4, {r1, r2, r3, sl}^
    6f90:	f4090000 	vst4.8	{d0-d3}, [r9], r0
    6f94:	6b000005 	blvs	6fb0 <_start-0x1050>
    6f98:	0a000008 	beq	6fc0 <_start-0x1040>
    6f9c:	000000cc 	andeq	r0, r0, ip, asr #1
    6fa0:	501e0002 	andspl	r0, lr, r2
    6fa4:	05000008 	streq	r0, [r0, #-8]
    6fa8:	042902fd 	strteq	r0, [r9], #-765	; 0xfffffd03
    6fac:	491e0000 	ldmdbmi	lr, {}	; <UNPREDICTABLE>
    6fb0:	05000008 	streq	r0, [r0, #-8]
    6fb4:	042f02fe 	strteq	r0, [pc], #-766	; 6fbc <_start-0x1044>
    6fb8:	25140000 	ldrcs	r0, [r4, #-0]
    6fbc:	92000000 	andls	r0, r0, #0
    6fc0:	15000008 	strne	r0, [r0, #-8]
    6fc4:	00000025 	andeq	r0, r0, r5, lsr #32
    6fc8:	03671f00 	cmneq	r7, #0, 30
    6fcc:	1d060000 	stcne	0, cr0, [r6, #-0]
    6fd0:	0000089d 	muleq	r0, sp, r8
    6fd4:	0883040e 	stmeq	r3, {r1, r2, r3, sl}
    6fd8:	25140000 	ldrcs	r0, [r4, #-0]
    6fdc:	b2000000 	andlt	r0, r0, #0
    6fe0:	15000008 	strne	r0, [r0, #-8]
    6fe4:	0000058a 	andeq	r0, r0, sl, lsl #11
    6fe8:	0d051f00 	stceq	15, cr1, [r5, #-0]
    6fec:	22060000 	andcs	r0, r6, #0
    6ff0:	000008bd 			; <UNDEFINED> instruction: 0x000008bd
    6ff4:	08a3040e 	stmiaeq	r3!, {r1, r2, r3, sl}
    6ff8:	ad200000 	stcge	0, cr0, [r0, #-0]
    6ffc:	0100000e 	tsteq	r0, lr
    7000:	0000310d 	andeq	r3, r0, sp, lsl #2
    7004:	0df62100 	ldfeqe	f2, [r6]
    7008:	1f010000 	svcne	0x00010000
    700c:	000091bc 			; <UNDEFINED> instruction: 0x000091bc
    7010:	0000004c 	andeq	r0, r0, ip, asr #32
    7014:	09859c01 	stmibeq	r5, {r0, sl, fp, ip, pc}
    7018:	47220000 	strmi	r0, [r2, -r0]!
    701c:	0100000e 	tsteq	r0, lr
    7020:	00002c2a 	andeq	r2, r0, sl, lsr #24
    7024:	000dcd00 	andeq	ip, sp, r0, lsl #26
    7028:	0e6e2200 	cdpeq	2, 6, cr2, cr14, cr0, {0}
    702c:	2b010000 	blcs	47034 <__bss_end__+0x3d0a4>
    7030:	0000002c 	andeq	r0, r0, ip, lsr #32
    7034:	00000de5 	andeq	r0, r0, r5, ror #27
    7038:	000e7b22 	andeq	r7, lr, r2, lsr #22
    703c:	2c2c0100 	stfcss	f0, [ip], #-0
    7040:	fd000000 	stc2	0, cr0, [r0, #-0]
    7044:	2200000d 	andcs	r0, r0, #13
    7048:	00000e55 	andeq	r0, r0, r5, asr lr
    704c:	002c2d01 	eoreq	r2, ip, r1, lsl #26
    7050:	0e140000 	cdpeq	0, 1, cr0, cr4, cr0, {0}
    7054:	c4230000 	strtgt	r0, [r3], #-0
    7058:	aa000091 	bge	72a4 <_start-0xd5c>
    705c:	24000009 	strcs	r0, [r0], #-9
    7060:	000091d4 	ldrdeq	r9, [r0], -r4
    7064:	000009d3 	ldrdeq	r0, [r0], -r3
    7068:	0000093b 	andeq	r0, r0, fp, lsr r9
    706c:	01500125 	cmpeq	r0, r5, lsr #2
    7070:	e024004e 	eor	r0, r4, lr, asr #32
    7074:	de000091 	mcrle	0, 0, r0, cr0, cr1, {4}
    7078:	5b000009 	blpl	70a4 <_start-0xf5c>
    707c:	25000009 	strcs	r0, [r0, #-9]
    7080:	0c055001 	stceq	0, cr5, [r5], {1}
    7084:	20100024 	andscs	r0, r0, r4, lsr #32
    7088:	05510125 	ldrbeq	r0, [r1, #-293]	; 0xfffffedb
    708c:	0000010c 	andeq	r0, r0, ip, lsl #2
    7090:	ec24005a 	stc	0, cr0, [r4], #-360	; 0xfffffe98
    7094:	de000091 	mcrle	0, 0, r0, cr0, cr1, {4}
    7098:	7b000009 	blvc	70c4 <_start-0xf3c>
    709c:	25000009 	strcs	r0, [r0, #-9]
    70a0:	0c055001 	stceq	0, cr5, [r5], {1}
    70a4:	2010001c 	andscs	r0, r0, ip, lsl r0
    70a8:	05510125 	ldrbeq	r0, [r1, #-293]	; 0xfffffedb
    70ac:	0000200c 	andeq	r2, r0, ip
    70b0:	f423005a 	vld4.16	{d0-d3}, [r3 :64], sl
    70b4:	85000091 	strhi	r0, [r0, #-145]	; 0xffffff6f
    70b8:	00000009 	andeq	r0, r0, r9
    70bc:	000e9b26 	andeq	r9, lr, r6, lsr #22
    70c0:	a8170100 	ldmdage	r7, {r8}
    70c4:	14000091 	strne	r0, [r0], #-145	; 0xffffff6f
    70c8:	01000000 	mrseq	r0, (UNDEF: 0)
    70cc:	0009aa9c 	muleq	r9, ip, sl
    70d0:	0e762200 	cdpeq	2, 7, cr2, cr6, cr0, {0}
    70d4:	18010000 	stmdane	r1, {}	; <UNPREDICTABLE>
    70d8:	00000031 	andeq	r0, r0, r1, lsr r0
    70dc:	00000e29 	andeq	r0, r0, r9, lsr #28
    70e0:	0eaa2700 	cdpeq	7, 10, cr2, cr10, cr0, {0}
    70e4:	0e010000 	cdpeq	0, 0, cr0, cr1, cr0, {0}
    70e8:	00000025 	andeq	r0, r0, r5, lsr #32
    70ec:	00009190 	muleq	r0, r0, r1
    70f0:	00000018 	andeq	r0, r0, r8, lsl r0
    70f4:	09d39c01 	ldmibeq	r3, {r0, sl, fp, ip, pc}^
    70f8:	76220000 	strtvc	r0, [r2], -r0
    70fc:	0100000e 	tsteq	r0, lr
    7100:	0000310f 	andeq	r3, r0, pc, lsl #2
    7104:	000e5300 	andeq	r5, lr, r0, lsl #6
    7108:	34280000 	strtcc	r0, [r8], #-0
    710c:	34000007 	strcc	r0, [r0], #-7
    7110:	06000007 	streq	r0, [r0], -r7
    7114:	0e4f284f 	cdpeq	8, 4, cr2, cr15, cr15, {2}
    7118:	0e4f0000 	cdpeq	0, 4, cr0, cr15, cr0, {0}
    711c:	9b060000 	blls	187124 <__bss_end__+0x17d194>
    7120:	00091700 	andeq	r1, r9, r0, lsl #14
    7124:	25000400 	strcs	r0, [r0, #-1024]	; 0xfffffc00
    7128:	04000014 	streq	r0, [r0], #-20	; 0xffffffec
    712c:	000c1101 	andeq	r1, ip, r1, lsl #2
    7130:	0eb80c00 	cdpeq	12, 11, cr0, cr8, cr0, {0}
    7134:	0c780000 	ldcleq	0, cr0, [r8], #-0
    7138:	92080000 	andls	r0, r8, #0
    713c:	00280000 	eoreq	r0, r8, r0
    7140:	0a9f0000 	beq	fe7c7148 <__bss_end__+0xfe7bd1b8>
    7144:	04020000 	streq	r0, [r2], #-0
    7148:	746e6905 	strbtvc	r6, [lr], #-2309	; 0xfffff6fb
    714c:	07040300 	streq	r0, [r4, -r0, lsl #6]
    7150:	00000157 	andeq	r0, r0, r7, asr r1
    7154:	18060103 	stmdane	r6, {r0, r1, r8}
    7158:	03000006 	movweq	r0, #6
    715c:	06630502 	strbteq	r0, [r3], -r2, lsl #10
    7160:	04030000 	streq	r0, [r3], #-0
    7164:	0001cb05 	andeq	ip, r1, r5, lsl #22
    7168:	05080300 	streq	r0, [r8, #-768]	; 0xfffffd00
    716c:	000001c6 	andeq	r0, r0, r6, asr #3
    7170:	16080103 	strne	r0, [r8], -r3, lsl #2
    7174:	03000006 	movweq	r0, #6
    7178:	041d0702 	ldreq	r0, [sp], #-1794	; 0xfffff8fe
    717c:	04030000 	streq	r0, [r3], #-0
    7180:	00015207 	andeq	r5, r1, r7, lsl #4
    7184:	07080300 	streq	r0, [r8, -r0, lsl #6]
    7188:	0000014d 	andeq	r0, r0, sp, asr #2
    718c:	0005e104 	andeq	lr, r5, r4, lsl #2
    7190:	25070200 	strcs	r0, [r7, #-512]	; 0xfffffe00
    7194:	04000000 	streq	r0, [r0], #-0
    7198:	0000059d 	muleq	r0, sp, r5
    719c:	00412c03 	subeq	r2, r1, r3, lsl #24
    71a0:	61040000 	mrsvs	r0, (UNDEF: 4)
    71a4:	03000007 	movweq	r0, #7
    71a8:	00004172 	andeq	r4, r0, r2, ror r1
    71ac:	04810500 	streq	r0, [r1], #1280	; 0x500
    71b0:	65040000 	strvs	r0, [r4, #-0]
    71b4:	00002c01 	andeq	r2, r0, r1, lsl #24
    71b8:	03040600 	movweq	r0, #17920	; 0x4600
    71bc:	0000b7a6 	andeq	fp, r0, r6, lsr #15
    71c0:	046e0700 	strbteq	r0, [lr], #-1792	; 0xfffff900
    71c4:	a8030000 	stmdage	r3, {}	; <UNPREDICTABLE>
    71c8:	0000008c 	andeq	r0, r0, ip, lsl #1
    71cc:	00038107 	andeq	r8, r3, r7, lsl #2
    71d0:	b7a90300 	strlt	r0, [r9, r0, lsl #6]!
    71d4:	00000000 	andeq	r0, r0, r0
    71d8:	00004f08 	andeq	r4, r0, r8, lsl #30
    71dc:	0000c700 	andeq	ip, r0, r0, lsl #14
    71e0:	00c70900 	sbceq	r0, r7, r0, lsl #18
    71e4:	00030000 	andeq	r0, r3, r0
    71e8:	0d070403 	cfstrseq	mvf0, [r7, #-12]
    71ec:	0a000005 	beq	7208 <_start-0xdf8>
    71f0:	efa30308 	svc	0x00a30308
    71f4:	0b000000 	bleq	71fc <_start-0xe04>
    71f8:	0000073d 	andeq	r0, r0, sp, lsr r7
    71fc:	0025a503 	eoreq	sl, r5, r3, lsl #10
    7200:	0b000000 	bleq	7208 <_start-0xdf8>
    7204:	000007e4 	andeq	r0, r0, r4, ror #15
    7208:	0098aa03 	addseq	sl, r8, r3, lsl #20
    720c:	00040000 	andeq	r0, r4, r0
    7210:	00069804 	andeq	r9, r6, r4, lsl #16
    7214:	ceab0300 	cdpgt	3, 10, cr0, cr11, cr0, {0}
    7218:	04000000 	streq	r0, [r0], #-0
    721c:	0000031f 	andeq	r0, r0, pc, lsl r3
    7220:	006baf03 	rsbeq	sl, fp, r3, lsl #30
    7224:	040c0000 	streq	r0, [ip], #-0
    7228:	010d040d 	tsteq	sp, sp, lsl #8
    722c:	01030000 	mrseq	r0, (UNDEF: 3)
    7230:	00061f08 	andeq	r1, r6, r8, lsl #30
    7234:	010d0e00 	tsteq	sp, r0, lsl #28
    7238:	1e040000 	cdpne	0, 0, cr0, cr4, cr0, {0}
    723c:	05000008 	streq	r0, [r0, #-8]
    7240:	00005d16 	andeq	r5, r0, r6, lsl sp
    7244:	03300f00 	teqeq	r0, #0, 30
    7248:	05180000 	ldreq	r0, [r8, #-0]
    724c:	0001772d 	andeq	r7, r1, sp, lsr #14
    7250:	06c90b00 	strbeq	r0, [r9], r0, lsl #22
    7254:	2f050000 	svccs	0x00050000
    7258:	00000177 	andeq	r0, r0, r7, ror r1
    725c:	6b5f1000 	blvs	17cb264 <__bss_end__+0x17c12d4>
    7260:	25300500 	ldrcs	r0, [r0, #-1280]!	; 0xfffffb00
    7264:	04000000 	streq	r0, [r0], #-0
    7268:	0007160b 	andeq	r1, r7, fp, lsl #12
    726c:	25300500 	ldrcs	r0, [r0, #-1280]!	; 0xfffffb00
    7270:	08000000 	stmdaeq	r0, {}	; <UNPREDICTABLE>
    7274:	0003190b 	andeq	r1, r3, fp, lsl #18
    7278:	25300500 	ldrcs	r0, [r0, #-1280]!	; 0xfffffb00
    727c:	0c000000 	stceq	0, cr0, [r0], {-0}
    7280:	0008b20b 	andeq	fp, r8, fp, lsl #4
    7284:	25300500 	ldrcs	r0, [r0, #-1280]!	; 0xfffffb00
    7288:	10000000 	andne	r0, r0, r0
    728c:	00785f10 	rsbseq	r5, r8, r0, lsl pc
    7290:	017d3105 	cmneq	sp, r5, lsl #2
    7294:	00140000 	andseq	r0, r4, r0
    7298:	0124040d 			; <UNDEFINED> instruction: 0x0124040d
    729c:	19080000 	stmdbne	r8, {}	; <UNPREDICTABLE>
    72a0:	8d000001 	stchi	0, cr0, [r0, #-4]
    72a4:	09000001 	stmdbeq	r0, {r0}
    72a8:	000000c7 	andeq	r0, r0, r7, asr #1
    72ac:	730f0000 	movwvc	r0, #61440	; 0xf000
    72b0:	24000003 	strcs	r0, [r0], #-3
    72b4:	02063505 	andeq	r3, r6, #20971520	; 0x1400000
    72b8:	bd0b0000 	stclt	0, cr0, [fp, #-0]
    72bc:	05000001 	streq	r0, [r0, #-1]
    72c0:	00002537 	andeq	r2, r0, r7, lsr r5
    72c4:	890b0000 	stmdbhi	fp, {}	; <UNPREDICTABLE>
    72c8:	05000007 	streq	r0, [r0, #-7]
    72cc:	00002538 	andeq	r2, r0, r8, lsr r5
    72d0:	070b0400 	streq	r0, [fp, -r0, lsl #8]
    72d4:	05000002 	streq	r0, [r0, #-2]
    72d8:	00002539 	andeq	r2, r0, r9, lsr r5
    72dc:	bc0b0800 	stclt	8, cr0, [fp], {-0}
    72e0:	05000009 	streq	r0, [r0, #-9]
    72e4:	0000253a 	andeq	r2, r0, sl, lsr r5
    72e8:	620b0c00 	andvs	r0, fp, #0, 24
    72ec:	05000005 	streq	r0, [r0, #-5]
    72f0:	0000253b 	andeq	r2, r0, fp, lsr r5
    72f4:	d00b1000 	andle	r1, fp, r0
    72f8:	05000004 	streq	r0, [r0, #-4]
    72fc:	0000253c 	andeq	r2, r0, ip, lsr r5
    7300:	b70b1400 	strlt	r1, [fp, -r0, lsl #8]
    7304:	05000008 	streq	r0, [r0, #-8]
    7308:	0000253d 	andeq	r2, r0, sp, lsr r5
    730c:	6d0b1800 	stcvs	8, cr1, [fp, #-0]
    7310:	05000006 	streq	r0, [r0, #-6]
    7314:	0000253e 	andeq	r2, r0, lr, lsr r5
    7318:	360b1c00 	strcc	r1, [fp], -r0, lsl #24
    731c:	05000009 	streq	r0, [r0, #-9]
    7320:	0000253f 	andeq	r2, r0, pc, lsr r5
    7324:	11002000 	mrsne	r2, (UNDEF: 0)
    7328:	00000216 	andeq	r0, r0, r6, lsl r2
    732c:	48050108 	stmdami	r5, {r3, r8}
    7330:	00000246 	andeq	r0, r0, r6, asr #4
    7334:	0002eb0b 	andeq	lr, r2, fp, lsl #22
    7338:	46490500 	strbmi	r0, [r9], -r0, lsl #10
    733c:	00000002 	andeq	r0, r0, r2
    7340:	0000000b 	andeq	r0, r0, fp
    7344:	464a0500 	strbmi	r0, [sl], -r0, lsl #10
    7348:	80000002 	andhi	r0, r0, r2
    734c:	0007ab12 	andeq	sl, r7, r2, lsl fp
    7350:	194c0500 	stmdbne	ip, {r8, sl}^
    7354:	00000001 	andeq	r0, r0, r1
    7358:	02601201 	rsbeq	r1, r0, #268435456	; 0x10000000
    735c:	4f050000 	svcmi	0x00050000
    7360:	00000119 	andeq	r0, r0, r9, lsl r1
    7364:	08000104 	stmdaeq	r0, {r2, r8}
    7368:	00000105 	andeq	r0, r0, r5, lsl #2
    736c:	00000256 	andeq	r0, r0, r6, asr r2
    7370:	0000c709 	andeq	ip, r0, r9, lsl #14
    7374:	11001f00 	tstne	r0, r0, lsl #30
    7378:	0000057c 	andeq	r0, r0, ip, ror r5
    737c:	5b050190 	blpl	1479c4 <__bss_end__+0x13da34>
    7380:	00000294 	muleq	r0, r4, r2
    7384:	0006c90b 	andeq	ip, r6, fp, lsl #18
    7388:	945c0500 	ldrbls	r0, [ip], #-1280	; 0xfffffb00
    738c:	00000002 	andeq	r0, r0, r2
    7390:	0006f70b 	andeq	pc, r6, fp, lsl #14
    7394:	255d0500 	ldrbcs	r0, [sp, #-1280]	; 0xfffffb00
    7398:	04000000 	streq	r0, [r0], #-0
    739c:	0003140b 	andeq	r1, r3, fp, lsl #8
    73a0:	9a5f0500 	bls	17c87a8 <__bss_end__+0x17be818>
    73a4:	08000002 	stmdaeq	r0, {r1}
    73a8:	0002160b 	andeq	r1, r2, fp, lsl #12
    73ac:	06600500 	strbteq	r0, [r0], -r0, lsl #10
    73b0:	88000002 	stmdahi	r0, {r1}
    73b4:	56040d00 	strpl	r0, [r4], -r0, lsl #26
    73b8:	08000002 	stmdaeq	r0, {r1}
    73bc:	000002aa 	andeq	r0, r0, sl, lsr #5
    73c0:	000002aa 	andeq	r0, r0, sl, lsr #5
    73c4:	0000c709 	andeq	ip, r0, r9, lsl #14
    73c8:	0d001f00 	stceq	15, cr1, [r0, #-0]
    73cc:	0002b004 	andeq	fp, r2, r4
    73d0:	770f1300 	strvc	r1, [pc, -r0, lsl #6]
    73d4:	08000006 	stmdaeq	r0, {r1, r2}
    73d8:	02d67305 	sbcseq	r7, r6, #335544320	; 0x14000000
    73dc:	010b0000 	mrseq	r0, (UNDEF: 11)
    73e0:	05000002 	streq	r0, [r0, #-2]
    73e4:	0002d674 	andeq	sp, r2, r4, ror r6
    73e8:	a60b0000 	strge	r0, [fp], -r0
    73ec:	05000000 	streq	r0, [r0, #-0]
    73f0:	00002575 	andeq	r2, r0, r5, ror r5
    73f4:	0d000400 	cfstrseq	mvf0, [r0, #-0]
    73f8:	00004f04 	andeq	r4, r0, r4, lsl #30
    73fc:	06a30f00 	strteq	r0, [r3], r0, lsl #30
    7400:	05680000 	strbeq	r0, [r8, #-0]!
    7404:	000406b3 			; <UNDEFINED> instruction: 0x000406b3
    7408:	705f1000 	subsvc	r1, pc, r0
    740c:	d6b40500 	ldrtle	r0, [r4], r0, lsl #10
    7410:	00000002 	andeq	r0, r0, r2
    7414:	00725f10 	rsbseq	r5, r2, r0, lsl pc
    7418:	0025b505 	eoreq	fp, r5, r5, lsl #10
    741c:	10040000 	andne	r0, r4, r0
    7420:	0500775f 	streq	r7, [r0, #-1887]	; 0xfffff8a1
    7424:	000025b6 			; <UNDEFINED> instruction: 0x000025b6
    7428:	590b0800 	stmdbpl	fp, {fp}
    742c:	05000002 	streq	r0, [r0, #-2]
    7430:	00003ab7 			; <UNDEFINED> instruction: 0x00003ab7
    7434:	b20b0c00 	andlt	r0, fp, #0, 24
    7438:	05000003 	streq	r0, [r0, #-3]
    743c:	00003ab8 			; <UNDEFINED> instruction: 0x00003ab8
    7440:	5f100e00 	svcpl	0x00100e00
    7444:	05006662 	streq	r6, [r0, #-1634]	; 0xfffff99e
    7448:	0002b1b9 			; <UNDEFINED> instruction: 0x0002b1b9
    744c:	6d0b1000 	stcvs	0, cr1, [fp, #-0]
    7450:	05000001 	streq	r0, [r0, #-1]
    7454:	000025ba 			; <UNDEFINED> instruction: 0x000025ba
    7458:	240b1800 	strcs	r1, [fp], #-2048	; 0xfffff800
    745c:	05000002 	streq	r0, [r0, #-2]
    7460:	000105c1 	andeq	r0, r1, r1, asr #11
    7464:	9a0b1c00 	bls	2ce46c <__bss_end__+0x2c44dc>
    7468:	05000008 	streq	r0, [r0, #-8]
    746c:	000561c3 	andeq	r6, r5, r3, asr #3
    7470:	790b2000 	stmdbvc	fp, {sp}
    7474:	05000001 	streq	r0, [r0, #-1]
    7478:	00058bc5 	andeq	r8, r5, r5, asr #23
    747c:	4e0b2400 	cfcpysmi	mvf2, mvf11
    7480:	05000007 	streq	r0, [r0, #-7]
    7484:	0005afc8 	andeq	sl, r5, r8, asr #31
    7488:	500b2800 	andpl	r2, fp, r0, lsl #16
    748c:	05000009 	streq	r0, [r0, #-9]
    7490:	0005c9c9 	andeq	ip, r5, r9, asr #19
    7494:	5f102c00 	svcpl	0x00102c00
    7498:	05006275 	streq	r6, [r0, #-629]	; 0xfffffd8b
    749c:	0002b1cc 	andeq	fp, r2, ip, asr #3
    74a0:	5f103000 	svcpl	0x00103000
    74a4:	05007075 	streq	r7, [r0, #-117]	; 0xffffff8b
    74a8:	0002d6cd 	andeq	sp, r2, sp, asr #13
    74ac:	5f103800 	svcpl	0x00103800
    74b0:	05007275 	streq	r7, [r0, #-629]	; 0xfffffd8b
    74b4:	000025ce 	andeq	r2, r0, lr, asr #11
    74b8:	f30b3c00 			; <UNDEFINED> instruction: 0xf30b3c00
    74bc:	05000001 	streq	r0, [r0, #-1]
    74c0:	0005cfd1 	ldrdeq	ip, [r5], -r1
    74c4:	110b4000 	mrsne	r4, (UNDEF: 11)
    74c8:	05000009 	streq	r0, [r0, #-9]
    74cc:	0005dfd2 	ldrdeq	sp, [r5], -r2
    74d0:	5f104300 	svcpl	0x00104300
    74d4:	0500626c 	streq	r6, [r0, #-620]	; 0xfffffd94
    74d8:	0002b1d5 	ldrdeq	fp, [r2], -r5
    74dc:	760b4400 	strvc	r4, [fp], -r0, lsl #8
    74e0:	05000002 	streq	r0, [r0, #-2]
    74e4:	000025d8 	ldrdeq	r2, [r0], -r8
    74e8:	ac0b4c00 	stcge	12, cr4, [fp], {-0}
    74ec:	05000002 	streq	r0, [r0, #-2]
    74f0:	000076d9 	ldrdeq	r7, [r0], -r9
    74f4:	440b5000 	strmi	r5, [fp], #-0
    74f8:	05000006 	streq	r0, [r0, #-6]
    74fc:	000424dc 	ldrdeq	r2, [r4], -ip
    7500:	6a0b5400 	bvs	2dc508 <__bss_end__+0x2d2578>
    7504:	05000010 	streq	r0, [r0, #-16]
    7508:	0000fae0 	andeq	pc, r0, r0, ror #21
    750c:	bb0b5800 	bllt	2dd514 <__bss_end__+0x2d3584>
    7510:	05000006 	streq	r0, [r0, #-6]
    7514:	0000efe2 	andeq	lr, r0, r2, ror #31
    7518:	9e0b5c00 	cdpls	12, 0, cr5, cr11, cr0, {0}
    751c:	05000004 	streq	r0, [r0, #-4]
    7520:	000025e3 	andeq	r2, r0, r3, ror #11
    7524:	14006400 	strne	r6, [r0], #-1024	; 0xfffffc00
    7528:	00000025 	andeq	r0, r0, r5, lsr #32
    752c:	00000424 	andeq	r0, r0, r4, lsr #8
    7530:	00042415 	andeq	r2, r4, r5, lsl r4
    7534:	01051500 	tsteq	r5, r0, lsl #10
    7538:	07150000 	ldreq	r0, [r5, -r0]
    753c:	15000001 	strne	r0, [r0, #-1]
    7540:	00000025 	andeq	r0, r0, r5, lsr #32
    7544:	2f040d00 	svccs	0x00040d00
    7548:	0e000004 	cdpeq	0, 0, cr0, cr0, cr4, {0}
    754c:	00000424 	andeq	r0, r0, r4, lsr #8
    7550:	00071e16 	andeq	r1, r7, r6, lsl lr
    7554:	05042800 	streq	r2, [r4, #-2048]	; 0xfffff800
    7558:	05610238 	strbeq	r0, [r1, #-568]!	; 0xfffffdc8
    755c:	5c170000 	ldcpl	0, cr0, [r7], {-0}
    7560:	05000006 	streq	r0, [r0, #-6]
    7564:	0025023a 	eoreq	r0, r5, sl, lsr r2
    7568:	17000000 	strne	r0, [r0, -r0]
    756c:	00000268 	andeq	r0, r0, r8, ror #4
    7570:	36023f05 	strcc	r3, [r2], -r5, lsl #30
    7574:	04000006 	streq	r0, [r0], #-6
    7578:	00039717 	andeq	r9, r3, r7, lsl r7
    757c:	023f0500 	eorseq	r0, pc, #0, 10
    7580:	00000636 	andeq	r0, r0, r6, lsr r6
    7584:	03281708 			; <UNDEFINED> instruction: 0x03281708
    7588:	3f050000 	svccc	0x00050000
    758c:	00063602 	andeq	r3, r6, r2, lsl #12
    7590:	f2170c00 			; <UNDEFINED> instruction: 0xf2170c00
    7594:	05000006 	streq	r0, [r0, #-6]
    7598:	00250241 	eoreq	r0, r5, r1, asr #4
    759c:	17100000 	ldrne	r0, [r0, -r0]
    75a0:	000000ed 	andeq	r0, r0, sp, ror #1
    75a4:	18024205 	stmdane	r2, {r0, r2, r9, lr}
    75a8:	14000008 	strne	r0, [r0], #-8
    75ac:	00085c17 	andeq	r5, r8, r7, lsl ip
    75b0:	02440500 	subeq	r0, r4, #0, 10
    75b4:	00000025 	andeq	r0, r0, r5, lsr #32
    75b8:	06fc1730 			; <UNDEFINED> instruction: 0x06fc1730
    75bc:	45050000 	strmi	r0, [r5, #-0]
    75c0:	00058502 	andeq	r8, r5, r2, lsl #10
    75c4:	92173400 	andsls	r3, r7, #0, 8
    75c8:	05000005 	streq	r0, [r0, #-5]
    75cc:	00250247 	eoreq	r0, r5, r7, asr #4
    75d0:	17380000 	ldrne	r0, [r8, -r0]!
    75d4:	0000070c 	andeq	r0, r0, ip, lsl #14
    75d8:	33024905 	movwcc	r4, #10501	; 0x2905
    75dc:	3c000008 	stccc	0, cr0, [r0], {8}
    75e0:	00046617 	andeq	r6, r4, r7, lsl r6
    75e4:	024c0500 	subeq	r0, ip, #0, 10
    75e8:	00000177 	andeq	r0, r0, r7, ror r1
    75ec:	035d1740 	cmpeq	sp, #64, 14	; 0x1000000
    75f0:	4d050000 	stcmi	0, cr0, [r5, #-0]
    75f4:	00002502 	andeq	r2, r0, r2, lsl #10
    75f8:	73174400 	tstvc	r7, #0, 8
    75fc:	05000009 	streq	r0, [r0, #-9]
    7600:	0177024e 	cmneq	r7, lr, asr #4
    7604:	17480000 	strbne	r0, [r8, -r0]
    7608:	000005c7 	andeq	r0, r0, r7, asr #11
    760c:	39024f05 	stmdbcc	r2, {r0, r2, r8, r9, sl, fp, lr}
    7610:	4c000008 	stcmi	0, cr0, [r0], {8}
    7614:	00039f17 	andeq	r9, r3, r7, lsl pc
    7618:	02520500 	subseq	r0, r2, #0, 10
    761c:	00000025 	andeq	r0, r0, r5, lsr #32
    7620:	02a41750 	adceq	r1, r4, #80, 14	; 0x1400000
    7624:	53050000 	movwpl	r0, #20480	; 0x5000
    7628:	00010702 	andeq	r0, r1, r2, lsl #14
    762c:	2c175400 	cfldrscs	mvf5, [r7], {-0}
    7630:	05000011 	streq	r0, [r0, #-17]	; 0xffffffef
    7634:	07f60276 			; <UNDEFINED> instruction: 0x07f60276
    7638:	18580000 	ldmdane	r8, {}^	; <UNPREDICTABLE>
    763c:	0000057c 	andeq	r0, r0, ip, ror r5
    7640:	94027a05 	strls	r7, [r2], #-2565	; 0xfffff5fb
    7644:	48000002 	stmdami	r0, {r1}
    7648:	04301801 	ldrteq	r1, [r0], #-2049	; 0xfffff7ff
    764c:	7b050000 	blvc	147654 <__bss_end__+0x13d6c4>
    7650:	00025602 	andeq	r5, r2, r2, lsl #12
    7654:	18014c00 	stmdane	r1, {sl, fp, lr}
    7658:	000008e2 	andeq	r0, r0, r2, ror #17
    765c:	4a027f05 	bmi	a7278 <__bss_end__+0x9d2e8>
    7660:	dc000008 	stcle	0, cr0, [r0], {8}
    7664:	022c1802 	eoreq	r1, ip, #131072	; 0x20000
    7668:	84050000 	strhi	r0, [r5], #-0
    766c:	0005fb02 	andeq	pc, r5, r2, lsl #22
    7670:	1802e000 	stmdane	r2, {sp, lr, pc}
    7674:	00000211 	andeq	r0, r0, r1, lsl r2
    7678:	56028505 	strpl	r8, [r2], -r5, lsl #10
    767c:	ec000008 	stc	0, cr0, [r0], {8}
    7680:	040d0002 	streq	r0, [sp], #-2
    7684:	00000406 	andeq	r0, r0, r6, lsl #8
    7688:	00002514 	andeq	r2, r0, r4, lsl r5
    768c:	00058500 	andeq	r8, r5, r0, lsl #10
    7690:	04241500 	strteq	r1, [r4], #-1280	; 0xfffffb00
    7694:	05150000 	ldreq	r0, [r5, #-0]
    7698:	15000001 	strne	r0, [r0, #-1]
    769c:	00000585 	andeq	r0, r0, r5, lsl #11
    76a0:	00002515 	andeq	r2, r0, r5, lsl r5
    76a4:	040d0000 	streq	r0, [sp], #-0
    76a8:	00000114 	andeq	r0, r0, r4, lsl r1
    76ac:	0567040d 	strbeq	r0, [r7, #-1037]!	; 0xfffffbf3
    76b0:	81140000 	tsthi	r4, r0
    76b4:	af000000 	svcge	0x00000000
    76b8:	15000005 	strne	r0, [r0, #-5]
    76bc:	00000424 	andeq	r0, r0, r4, lsr #8
    76c0:	00010515 	andeq	r0, r1, r5, lsl r5
    76c4:	00811500 	addeq	r1, r1, r0, lsl #10
    76c8:	25150000 	ldrcs	r0, [r5, #-0]
    76cc:	00000000 	andeq	r0, r0, r0
    76d0:	0591040d 	ldreq	r0, [r1, #1037]	; 0x40d
    76d4:	25140000 	ldrcs	r0, [r4, #-0]
    76d8:	c9000000 	stmdbgt	r0, {}	; <UNPREDICTABLE>
    76dc:	15000005 	strne	r0, [r0, #-5]
    76e0:	00000424 	andeq	r0, r0, r4, lsr #8
    76e4:	00010515 	andeq	r0, r1, r5, lsl r5
    76e8:	040d0000 	streq	r0, [sp], #-0
    76ec:	000005b5 			; <UNDEFINED> instruction: 0x000005b5
    76f0:	00004f08 	andeq	r4, r0, r8, lsl #30
    76f4:	0005df00 	andeq	sp, r5, r0, lsl #30
    76f8:	00c70900 	sbceq	r0, r7, r0, lsl #18
    76fc:	00020000 	andeq	r0, r2, r0
    7700:	00004f08 	andeq	r4, r0, r8, lsl #30
    7704:	0005ef00 	andeq	lr, r5, r0, lsl #30
    7708:	00c70900 	sbceq	r0, r7, r0, lsl #18
    770c:	00000000 	andeq	r0, r0, r0
    7710:	00069105 	andeq	r9, r6, r5, lsl #2
    7714:	011d0500 	tsteq	sp, r0, lsl #10
    7718:	000002dc 	ldrdeq	r0, [r0], -ip
    771c:	0008c119 	andeq	ip, r8, r9, lsl r1
    7720:	21050c00 	tstcs	r5, r0, lsl #24
    7724:	00063001 	andeq	r3, r6, r1
    7728:	06c91700 	strbeq	r1, [r9], r0, lsl #14
    772c:	23050000 	movwcs	r0, #20480	; 0x5000
    7730:	00063001 	andeq	r3, r6, r1
    7734:	00170000 	andseq	r0, r7, r0
    7738:	05000004 	streq	r0, [r0, #-4]
    773c:	00250124 	eoreq	r0, r5, r4, lsr #2
    7740:	17040000 	strne	r0, [r4, -r0]
    7744:	0000068b 	andeq	r0, r0, fp, lsl #13
    7748:	36012505 	strcc	r2, [r1], -r5, lsl #10
    774c:	08000006 	stmdaeq	r0, {r1, r2}
    7750:	fb040d00 	blx	10ab5a <__bss_end__+0x100bca>
    7754:	0d000005 	stceq	0, cr0, [r0, #-20]	; 0xffffffec
    7758:	0005ef04 	andeq	lr, r5, r4, lsl #30
    775c:	00d11900 	sbcseq	r1, r1, r0, lsl #18
    7760:	050e0000 	streq	r0, [lr, #-0]
    7764:	0671013d 			; <UNDEFINED> instruction: 0x0671013d
    7768:	2e170000 	cdpcs	0, 1, cr0, cr7, cr0, {0}
    776c:	05000007 	streq	r0, [r0, #-7]
    7770:	0671013e 			; <UNDEFINED> instruction: 0x0671013e
    7774:	17000000 	strne	r0, [r0, -r0]
    7778:	000007d1 	ldrdeq	r0, [r0], -r1
    777c:	71013f05 	tstvc	r1, r5, lsl #30
    7780:	06000006 	streq	r0, [r0], -r6
    7784:	00081017 	andeq	r1, r8, r7, lsl r0
    7788:	01400500 	cmpeq	r0, r0, lsl #10
    778c:	00000056 	andeq	r0, r0, r6, asr r0
    7790:	5608000c 	strpl	r0, [r8], -ip
    7794:	81000000 	mrshi	r0, (UNDEF: 0)
    7798:	09000006 	stmdbeq	r0, {r1, r2}
    779c:	000000c7 	andeq	r0, r0, r7, asr #1
    77a0:	d01a0002 	andsle	r0, sl, r2
    77a4:	82025705 	andhi	r5, r2, #1310720	; 0x140000
    77a8:	17000007 	strne	r0, [r0, -r7]
    77ac:	0000088a 	andeq	r0, r0, sl, lsl #17
    77b0:	2c025905 			; <UNDEFINED> instruction: 0x2c025905
    77b4:	00000000 	andeq	r0, r0, r0
    77b8:	0007d717 	andeq	sp, r7, r7, lsl r7
    77bc:	025a0500 	subseq	r0, sl, #0, 10
    77c0:	00000107 	andeq	r0, r0, r7, lsl #2
    77c4:	04451704 	strbeq	r1, [r5], #-1796	; 0xfffff8fc
    77c8:	5b050000 	blpl	1477d0 <__bss_end__+0x13d840>
    77cc:	00078202 	andeq	r8, r7, r2, lsl #4
    77d0:	41170800 	tstmi	r7, r0, lsl #16
    77d4:	05000009 	streq	r0, [r0, #-9]
    77d8:	018d025c 	orreq	r0, sp, ip, asr r2
    77dc:	17240000 	strne	r0, [r4, -r0]!
    77e0:	00000338 	andeq	r0, r0, r8, lsr r3
    77e4:	25025d05 	strcs	r5, [r2, #-3333]	; 0xfffff2fb
    77e8:	48000000 	stmdami	r0, {}	; <UNPREDICTABLE>
    77ec:	0006c417 	andeq	ip, r6, r7, lsl r4
    77f0:	025e0500 	subseq	r0, lr, #0, 10
    77f4:	00000064 	andeq	r0, r0, r4, rrx
    77f8:	09571750 	ldmdbeq	r7, {r4, r6, r8, r9, sl, ip}^
    77fc:	5f050000 	svcpl	0x00050000
    7800:	00063c02 	andeq	r3, r6, r2, lsl #24
    7804:	e5175800 	ldr	r5, [r7, #-2048]	; 0xfffff800
    7808:	05000006 	streq	r0, [r0, #-6]
    780c:	00ef0260 	rsceq	r0, pc, r0, ror #4
    7810:	17680000 	strbne	r0, [r8, -r0]!
    7814:	00000965 	andeq	r0, r0, r5, ror #18
    7818:	ef026105 	svc	0x00026105
    781c:	70000000 	andvc	r0, r0, r0
    7820:	0001af17 	andeq	sl, r1, r7, lsl pc
    7824:	02620500 	rsbeq	r0, r2, #0, 10
    7828:	000000ef 	andeq	r0, r0, pc, ror #1
    782c:	08d81778 	ldmeq	r8, {r3, r4, r5, r6, r8, r9, sl, ip}^
    7830:	63050000 	movwvs	r0, #20480	; 0x5000
    7834:	00079202 	andeq	r9, r7, r2, lsl #4
    7838:	39178000 	ldmdbcc	r7, {pc}
    783c:	05000004 	streq	r0, [r0, #-4]
    7840:	07a20264 	streq	r0, [r2, r4, ror #4]!
    7844:	17880000 	strne	r0, [r8, r0]
    7848:	00000826 	andeq	r0, r0, r6, lsr #16
    784c:	25026505 	strcs	r6, [r2, #-1285]	; 0xfffffafb
    7850:	a0000000 	andge	r0, r0, r0
    7854:	0002dd17 	andeq	sp, r2, r7, lsl sp
    7858:	02660500 	rsbeq	r0, r6, #0, 10
    785c:	000000ef 	andeq	r0, r0, pc, ror #1
    7860:	018b17a4 	orreq	r1, fp, r4, lsr #15
    7864:	67050000 	strvs	r0, [r5, -r0]
    7868:	0000ef02 	andeq	lr, r0, r2, lsl #30
    786c:	c317ac00 	tstgt	r7, #0, 24
    7870:	05000002 	streq	r0, [r0, #-2]
    7874:	00ef0268 	rsceq	r0, pc, r8, ror #4
    7878:	17b40000 	ldrne	r0, [r4, r0]!
    787c:	0000012d 	andeq	r0, r0, sp, lsr #2
    7880:	ef026905 	svc	0x00026905
    7884:	bc000000 	stclt	0, cr0, [r0], {-0}
    7888:	00013c17 	andeq	r3, r1, r7, lsl ip
    788c:	026a0500 	rsbeq	r0, sl, #0, 10
    7890:	000000ef 	andeq	r0, r0, pc, ror #1
    7894:	065a17c4 	ldrbeq	r1, [sl], -r4, asr #15
    7898:	6b050000 	blvs	1478a0 <__bss_end__+0x13d910>
    789c:	00002502 	andeq	r2, r0, r2, lsl #10
    78a0:	0800cc00 	stmdaeq	r0, {sl, fp, lr, pc}
    78a4:	0000010d 	andeq	r0, r0, sp, lsl #2
    78a8:	00000792 	muleq	r0, r2, r7
    78ac:	0000c709 	andeq	ip, r0, r9, lsl #14
    78b0:	08001900 	stmdaeq	r0, {r8, fp, ip}
    78b4:	0000010d 	andeq	r0, r0, sp, lsl #2
    78b8:	000007a2 	andeq	r0, r0, r2, lsr #15
    78bc:	0000c709 	andeq	ip, r0, r9, lsl #14
    78c0:	08000700 	stmdaeq	r0, {r8, r9, sl}
    78c4:	0000010d 	andeq	r0, r0, sp, lsl #2
    78c8:	000007b2 			; <UNDEFINED> instruction: 0x000007b2
    78cc:	0000c709 	andeq	ip, r0, r9, lsl #14
    78d0:	1a001700 	bne	d4d8 <__bss_end__+0x3548>
    78d4:	027005f0 	rsbseq	r0, r0, #240, 10	; 0x3c000000
    78d8:	000007d6 	ldrdeq	r0, [r0], -r6
    78dc:	00055117 	andeq	r5, r5, r7, lsl r1
    78e0:	02730500 	rsbseq	r0, r3, #0, 10
    78e4:	000007d6 	ldrdeq	r0, [r0], -r6
    78e8:	04f81700 	ldrbteq	r1, [r8], #1792	; 0x700
    78ec:	74050000 	strvc	r0, [r5], #-0
    78f0:	0007e602 	andeq	lr, r7, r2, lsl #12
    78f4:	08007800 	stmdaeq	r0, {fp, ip, sp, lr}
    78f8:	000002d6 	ldrdeq	r0, [r0], -r6
    78fc:	000007e6 	andeq	r0, r0, r6, ror #15
    7900:	0000c709 	andeq	ip, r0, r9, lsl #14
    7904:	08001d00 	stmdaeq	r0, {r8, sl, fp, ip}
    7908:	0000002c 	andeq	r0, r0, ip, lsr #32
    790c:	000007f6 	strdeq	r0, [r0], -r6
    7910:	0000c709 	andeq	ip, r0, r9, lsl #14
    7914:	1b001d00 	blne	ed1c <__bss_end__+0x4d8c>
    7918:	025505f0 	subseq	r0, r5, #240, 10	; 0x3c000000
    791c:	00000818 	andeq	r0, r0, r8, lsl r8
    7920:	00071e1c 	andeq	r1, r7, ip, lsl lr
    7924:	026c0500 	rsbeq	r0, ip, #0, 10
    7928:	00000681 	andeq	r0, r0, r1, lsl #13
    792c:	0009171c 	andeq	r1, r9, ip, lsl r7
    7930:	02750500 	rsbseq	r0, r5, #0, 10
    7934:	000007b2 			; <UNDEFINED> instruction: 0x000007b2
    7938:	010d0800 	tsteq	sp, r0, lsl #16
    793c:	08280000 	stmdaeq	r8!, {}	; <UNPREDICTABLE>
    7940:	c7090000 	strgt	r0, [r9, -r0]
    7944:	18000000 	stmdane	r0, {}	; <UNPREDICTABLE>
    7948:	08331d00 	ldmdaeq	r3!, {r8, sl, fp, ip}
    794c:	24150000 	ldrcs	r0, [r5], #-0
    7950:	00000004 	andeq	r0, r0, r4
    7954:	0828040d 	stmdaeq	r8!, {r0, r2, r3, sl}
    7958:	040d0000 	streq	r0, [sp], #-0
    795c:	00000177 	andeq	r0, r0, r7, ror r1
    7960:	00084a1d 	andeq	r4, r8, sp, lsl sl
    7964:	00251500 	eoreq	r1, r5, r0, lsl #10
    7968:	0d000000 	stceq	0, cr0, [r0, #-0]
    796c:	00085004 	andeq	r5, r8, r4
    7970:	3f040d00 	svccc	0x00040d00
    7974:	08000008 	stmdaeq	r0, {r3}
    7978:	000005ef 	andeq	r0, r0, pc, ror #11
    797c:	00000866 	andeq	r0, r0, r6, ror #16
    7980:	0000c709 	andeq	ip, r0, r9, lsl #14
    7984:	1e000200 	cdpne	2, 0, cr0, cr0, cr0, {0}
    7988:	00000850 	andeq	r0, r0, r0, asr r8
    798c:	2402fd05 	strcs	pc, [r2], #-3333	; 0xfffff2fb
    7990:	1e000004 	cdpne	0, 0, cr0, cr0, cr4, {0}
    7994:	00000849 	andeq	r0, r0, r9, asr #16
    7998:	2a02fe05 	bcs	c71b4 <__bss_end__+0xbd224>
    799c:	14000004 	strne	r0, [r0], #-4
    79a0:	00000025 	andeq	r0, r0, r5, lsr #32
    79a4:	0000088d 	andeq	r0, r0, sp, lsl #17
    79a8:	00002515 	andeq	r2, r0, r5, lsl r5
    79ac:	671f0000 	ldrvs	r0, [pc, -r0]
    79b0:	06000003 	streq	r0, [r0], -r3
    79b4:	0008981d 	andeq	r9, r8, sp, lsl r8
    79b8:	7e040d00 	cdpvc	13, 0, cr0, cr4, cr0, {0}
    79bc:	14000008 	strne	r0, [r0], #-8
    79c0:	00000025 	andeq	r0, r0, r5, lsr #32
    79c4:	000008ad 	andeq	r0, r0, sp, lsr #17
    79c8:	00058515 	andeq	r8, r5, r5, lsl r5
    79cc:	051f0000 	ldreq	r0, [pc, #-0]	; 79d4 <_start-0x62c>
    79d0:	0600000d 	streq	r0, [r0], -sp
    79d4:	0008b822 	andeq	fp, r8, r2, lsr #16
    79d8:	9e040d00 	cdpls	13, 0, cr0, cr4, cr0, {0}
    79dc:	20000008 	andcs	r0, r0, r8
    79e0:	0000067e 	andeq	r0, r0, lr, ror r6
    79e4:	92080401 	andls	r0, r8, #16777216	; 0x1000000
    79e8:	00280000 	eoreq	r0, r8, r0
    79ec:	9c010000 	stcls	0, cr0, [r1], {-0}
    79f0:	00000904 	andeq	r0, r0, r4, lsl #18
    79f4:	00921c21 	addseq	r1, r2, r1, lsr #24
    79f8:	0008e600 	andeq	lr, r8, r0, lsl #12
    79fc:	50012200 	andpl	r2, r1, r0, lsl #4
    7a00:	9b800305 	blls	fe00861c <__bss_end__+0xfdffe68c>
    7a04:	23000000 	movwcs	r0, #0
    7a08:	00009224 	andeq	r9, r0, r4, lsr #4
    7a0c:	00000904 	andeq	r0, r0, r4, lsl #18
    7a10:	000008fa 	strdeq	r0, [r0], -sl
    7a14:	02500122 	subseq	r0, r0, #-2147483640	; 0x80000008
    7a18:	24006408 	strcs	r6, [r0], #-1032	; 0xfffffbf8
    7a1c:	00009228 	andeq	r9, r0, r8, lsr #4
    7a20:	0000090f 	andeq	r0, r0, pc, lsl #18
    7a24:	07342500 	ldreq	r2, [r4, -r0, lsl #10]!
    7a28:	07340000 	ldreq	r0, [r4, -r0]!
    7a2c:	4f060000 	svcmi	0x00060000
    7a30:	000df625 	andeq	pc, sp, r5, lsr #12
    7a34:	000df600 	andeq	pc, sp, r0, lsl #12
    7a38:	00620600 	rsbeq	r0, r2, r0, lsl #12
    7a3c:	00000a17 	andeq	r0, r0, r7, lsl sl
    7a40:	16080004 	strne	r0, [r8], -r4
    7a44:	01040000 	mrseq	r0, (UNDEF: 4)
    7a48:	00000c11 	andeq	r0, r0, r1, lsl ip
    7a4c:	000ef80c 	andeq	pc, lr, ip, lsl #16
    7a50:	000c7800 	andeq	r7, ip, r0, lsl #16
    7a54:	00923000 	addseq	r3, r2, r0
    7a58:	00008800 	andeq	r8, r0, r0, lsl #16
    7a5c:	000b7c00 	andeq	r7, fp, r0, lsl #24
    7a60:	05040200 	streq	r0, [r4, #-512]	; 0xfffffe00
    7a64:	00746e69 	rsbseq	r6, r4, r9, ror #28
    7a68:	57070403 	strpl	r0, [r7, -r3, lsl #8]
    7a6c:	03000001 	movweq	r0, #1
    7a70:	06180601 	ldreq	r0, [r8], -r1, lsl #12
    7a74:	02030000 	andeq	r0, r3, #0
    7a78:	00066305 	andeq	r6, r6, r5, lsl #6
    7a7c:	05040300 	streq	r0, [r4, #-768]	; 0xfffffd00
    7a80:	000001cb 	andeq	r0, r0, fp, asr #3
    7a84:	c6050803 	strgt	r0, [r5], -r3, lsl #16
    7a88:	03000001 	movweq	r0, #1
    7a8c:	06160801 	ldreq	r0, [r6], -r1, lsl #16
    7a90:	02030000 	andeq	r0, r3, #0
    7a94:	00041d07 	andeq	r1, r4, r7, lsl #26
    7a98:	07040300 	streq	r0, [r4, -r0, lsl #6]
    7a9c:	00000152 	andeq	r0, r0, r2, asr r1
    7aa0:	4d070803 	stcmi	8, cr0, [r7, #-12]
    7aa4:	04000001 	streq	r0, [r0], #-1
    7aa8:	000005e1 	andeq	r0, r0, r1, ror #11
    7aac:	00250702 	eoreq	r0, r5, r2, lsl #14
    7ab0:	9d040000 	stcls	0, cr0, [r4, #-0]
    7ab4:	03000005 	movweq	r0, #5
    7ab8:	0000412c 	andeq	r4, r0, ip, lsr #2
    7abc:	07610400 	strbeq	r0, [r1, -r0, lsl #8]!
    7ac0:	72030000 	andvc	r0, r3, #0
    7ac4:	00000041 	andeq	r0, r0, r1, asr #32
    7ac8:	00048105 	andeq	r8, r4, r5, lsl #2
    7acc:	01650400 	cmneq	r5, r0, lsl #8
    7ad0:	0000002c 	andeq	r0, r0, ip, lsr #32
    7ad4:	a6030406 	strge	r0, [r3], -r6, lsl #8
    7ad8:	000000b7 	strheq	r0, [r0], -r7
    7adc:	00046e07 	andeq	r6, r4, r7, lsl #28
    7ae0:	8ca80300 	stchi	3, cr0, [r8]
    7ae4:	07000000 	streq	r0, [r0, -r0]
    7ae8:	00000381 	andeq	r0, r0, r1, lsl #7
    7aec:	00b7a903 	adcseq	sl, r7, r3, lsl #18
    7af0:	08000000 	stmdaeq	r0, {}	; <UNPREDICTABLE>
    7af4:	0000004f 	andeq	r0, r0, pc, asr #32
    7af8:	000000c7 	andeq	r0, r0, r7, asr #1
    7afc:	0000c709 	andeq	ip, r0, r9, lsl #14
    7b00:	03000300 	movweq	r0, #768	; 0x300
    7b04:	050d0704 	streq	r0, [sp, #-1796]	; 0xfffff8fc
    7b08:	080a0000 	stmdaeq	sl, {}	; <UNPREDICTABLE>
    7b0c:	00efa303 	rsceq	sl, pc, r3, lsl #6
    7b10:	3d0b0000 	stccc	0, cr0, [fp, #-0]
    7b14:	03000007 	movweq	r0, #7
    7b18:	000025a5 	andeq	r2, r0, r5, lsr #11
    7b1c:	e40b0000 	str	r0, [fp], #-0
    7b20:	03000007 	movweq	r0, #7
    7b24:	000098aa 	andeq	r9, r0, sl, lsr #17
    7b28:	04000400 	streq	r0, [r0], #-1024	; 0xfffffc00
    7b2c:	00000698 	muleq	r0, r8, r6
    7b30:	00ceab03 	sbceq	sl, lr, r3, lsl #22
    7b34:	1f040000 	svcne	0x00040000
    7b38:	03000003 	movweq	r0, #3
    7b3c:	00006baf 	andeq	r6, r0, pc, lsr #23
    7b40:	0d040c00 	stceq	12, cr0, [r4, #-0]
    7b44:	00010d04 	andeq	r0, r1, r4, lsl #26
    7b48:	08010300 	stmdaeq	r1, {r8, r9}
    7b4c:	0000061f 	andeq	r0, r0, pc, lsl r6
    7b50:	00010d0e 	andeq	r0, r1, lr, lsl #26
    7b54:	081e0400 	ldmdaeq	lr, {sl}
    7b58:	16050000 	strne	r0, [r5], -r0
    7b5c:	0000005d 	andeq	r0, r0, sp, asr r0
    7b60:	0003300f 	andeq	r3, r3, pc
    7b64:	2d051800 	stccs	8, cr1, [r5, #-0]
    7b68:	00000177 	andeq	r0, r0, r7, ror r1
    7b6c:	0006c90b 	andeq	ip, r6, fp, lsl #18
    7b70:	772f0500 	strvc	r0, [pc, -r0, lsl #10]!
    7b74:	00000001 	andeq	r0, r0, r1
    7b78:	006b5f10 	rsbeq	r5, fp, r0, lsl pc
    7b7c:	00253005 	eoreq	r3, r5, r5
    7b80:	0b040000 	bleq	107b88 <__bss_end__+0xfdbf8>
    7b84:	00000716 	andeq	r0, r0, r6, lsl r7
    7b88:	00253005 	eoreq	r3, r5, r5
    7b8c:	0b080000 	bleq	207b94 <__bss_end__+0x1fdc04>
    7b90:	00000319 	andeq	r0, r0, r9, lsl r3
    7b94:	00253005 	eoreq	r3, r5, r5
    7b98:	0b0c0000 	bleq	307ba0 <__bss_end__+0x2fdc10>
    7b9c:	000008b2 			; <UNDEFINED> instruction: 0x000008b2
    7ba0:	00253005 	eoreq	r3, r5, r5
    7ba4:	10100000 	andsne	r0, r0, r0
    7ba8:	0500785f 	streq	r7, [r0, #-2143]	; 0xfffff7a1
    7bac:	00017d31 	andeq	r7, r1, r1, lsr sp
    7bb0:	0d001400 	cfstrseq	mvf1, [r0, #-0]
    7bb4:	00012404 	andeq	r2, r1, r4, lsl #8
    7bb8:	01190800 	tsteq	r9, r0, lsl #16
    7bbc:	018d0000 	orreq	r0, sp, r0
    7bc0:	c7090000 	strgt	r0, [r9, -r0]
    7bc4:	00000000 	andeq	r0, r0, r0
    7bc8:	03730f00 	cmneq	r3, #0, 30
    7bcc:	05240000 	streq	r0, [r4, #-0]!
    7bd0:	00020635 	andeq	r0, r2, r5, lsr r6
    7bd4:	01bd0b00 			; <UNDEFINED> instruction: 0x01bd0b00
    7bd8:	37050000 	strcc	r0, [r5, -r0]
    7bdc:	00000025 	andeq	r0, r0, r5, lsr #32
    7be0:	07890b00 	streq	r0, [r9, r0, lsl #22]
    7be4:	38050000 	stmdacc	r5, {}	; <UNPREDICTABLE>
    7be8:	00000025 	andeq	r0, r0, r5, lsr #32
    7bec:	02070b04 	andeq	r0, r7, #4, 22	; 0x1000
    7bf0:	39050000 	stmdbcc	r5, {}	; <UNPREDICTABLE>
    7bf4:	00000025 	andeq	r0, r0, r5, lsr #32
    7bf8:	09bc0b08 	ldmibeq	ip!, {r3, r8, r9, fp}
    7bfc:	3a050000 	bcc	147c04 <__bss_end__+0x13dc74>
    7c00:	00000025 	andeq	r0, r0, r5, lsr #32
    7c04:	05620b0c 	strbeq	r0, [r2, #-2828]!	; 0xfffff4f4
    7c08:	3b050000 	blcc	147c10 <__bss_end__+0x13dc80>
    7c0c:	00000025 	andeq	r0, r0, r5, lsr #32
    7c10:	04d00b10 	ldrbeq	r0, [r0], #2832	; 0xb10
    7c14:	3c050000 	stccc	0, cr0, [r5], {-0}
    7c18:	00000025 	andeq	r0, r0, r5, lsr #32
    7c1c:	08b70b14 	ldmeq	r7!, {r2, r4, r8, r9, fp}
    7c20:	3d050000 	stccc	0, cr0, [r5, #-0]
    7c24:	00000025 	andeq	r0, r0, r5, lsr #32
    7c28:	066d0b18 			; <UNDEFINED> instruction: 0x066d0b18
    7c2c:	3e050000 	cdpcc	0, 0, cr0, cr5, cr0, {0}
    7c30:	00000025 	andeq	r0, r0, r5, lsr #32
    7c34:	09360b1c 	ldmdbeq	r6!, {r2, r3, r4, r8, r9, fp}
    7c38:	3f050000 	svccc	0x00050000
    7c3c:	00000025 	andeq	r0, r0, r5, lsr #32
    7c40:	16110020 	ldrne	r0, [r1], -r0, lsr #32
    7c44:	08000002 	stmdaeq	r0, {r1}
    7c48:	46480501 	strbmi	r0, [r8], -r1, lsl #10
    7c4c:	0b000002 	bleq	7c5c <_start-0x3a4>
    7c50:	000002eb 	andeq	r0, r0, fp, ror #5
    7c54:	02464905 	subeq	r4, r6, #81920	; 0x14000
    7c58:	0b000000 	bleq	7c60 <_start-0x3a0>
    7c5c:	00000000 	andeq	r0, r0, r0
    7c60:	02464a05 	subeq	r4, r6, #20480	; 0x5000
    7c64:	12800000 	addne	r0, r0, #0
    7c68:	000007ab 	andeq	r0, r0, fp, lsr #15
    7c6c:	01194c05 	tsteq	r9, r5, lsl #24
    7c70:	01000000 	mrseq	r0, (UNDEF: 0)
    7c74:	00026012 	andeq	r6, r2, r2, lsl r0
    7c78:	194f0500 	stmdbne	pc, {r8, sl}^	; <UNPREDICTABLE>
    7c7c:	04000001 	streq	r0, [r0], #-1
    7c80:	05080001 	streq	r0, [r8, #-1]
    7c84:	56000001 	strpl	r0, [r0], -r1
    7c88:	09000002 	stmdbeq	r0, {r1}
    7c8c:	000000c7 	andeq	r0, r0, r7, asr #1
    7c90:	7c11001f 	ldcvc	0, cr0, [r1], {31}
    7c94:	90000005 	andls	r0, r0, r5
    7c98:	945b0501 	ldrbls	r0, [fp], #-1281	; 0xfffffaff
    7c9c:	0b000002 	bleq	7cac <_start-0x354>
    7ca0:	000006c9 	andeq	r0, r0, r9, asr #13
    7ca4:	02945c05 	addseq	r5, r4, #1280	; 0x500
    7ca8:	0b000000 	bleq	7cb0 <_start-0x350>
    7cac:	000006f7 	strdeq	r0, [r0], -r7
    7cb0:	00255d05 	eoreq	r5, r5, r5, lsl #26
    7cb4:	0b040000 	bleq	107cbc <__bss_end__+0xfdd2c>
    7cb8:	00000314 	andeq	r0, r0, r4, lsl r3
    7cbc:	029a5f05 	addseq	r5, sl, #5, 30
    7cc0:	0b080000 	bleq	207cc8 <__bss_end__+0x1fdd38>
    7cc4:	00000216 	andeq	r0, r0, r6, lsl r2
    7cc8:	02066005 	andeq	r6, r6, #5
    7ccc:	00880000 	addeq	r0, r8, r0
    7cd0:	0256040d 	subseq	r0, r6, #218103808	; 0xd000000
    7cd4:	aa080000 	bge	207cdc <__bss_end__+0x1fdd4c>
    7cd8:	aa000002 	bge	7ce8 <_start-0x318>
    7cdc:	09000002 	stmdbeq	r0, {r1}
    7ce0:	000000c7 	andeq	r0, r0, r7, asr #1
    7ce4:	040d001f 	streq	r0, [sp], #-31	; 0xffffffe1
    7ce8:	000002b0 			; <UNDEFINED> instruction: 0x000002b0
    7cec:	06770f13 	uhadd16eq	r0, r7, r3
    7cf0:	05080000 	streq	r0, [r8, #-0]
    7cf4:	0002d673 	andeq	sp, r2, r3, ror r6
    7cf8:	02010b00 	andeq	r0, r1, #0, 22
    7cfc:	74050000 	strvc	r0, [r5], #-0
    7d00:	000002d6 	ldrdeq	r0, [r0], -r6
    7d04:	00a60b00 	adceq	r0, r6, r0, lsl #22
    7d08:	75050000 	strvc	r0, [r5, #-0]
    7d0c:	00000025 	andeq	r0, r0, r5, lsr #32
    7d10:	040d0004 	streq	r0, [sp], #-4
    7d14:	0000004f 	andeq	r0, r0, pc, asr #32
    7d18:	0006a30f 	andeq	sl, r6, pc, lsl #6
    7d1c:	b3056800 	movwlt	r6, #22528	; 0x5800
    7d20:	00000406 	andeq	r0, r0, r6, lsl #8
    7d24:	00705f10 	rsbseq	r5, r0, r0, lsl pc
    7d28:	02d6b405 	sbcseq	fp, r6, #83886080	; 0x5000000
    7d2c:	10000000 	andne	r0, r0, r0
    7d30:	0500725f 	streq	r7, [r0, #-607]	; 0xfffffda1
    7d34:	000025b5 			; <UNDEFINED> instruction: 0x000025b5
    7d38:	5f100400 	svcpl	0x00100400
    7d3c:	b6050077 			; <UNDEFINED> instruction: 0xb6050077
    7d40:	00000025 	andeq	r0, r0, r5, lsr #32
    7d44:	02590b08 	subseq	r0, r9, #8, 22	; 0x2000
    7d48:	b7050000 	strlt	r0, [r5, -r0]
    7d4c:	0000003a 	andeq	r0, r0, sl, lsr r0
    7d50:	03b20b0c 			; <UNDEFINED> instruction: 0x03b20b0c
    7d54:	b8050000 	stmdalt	r5, {}	; <UNPREDICTABLE>
    7d58:	0000003a 	andeq	r0, r0, sl, lsr r0
    7d5c:	625f100e 	subsvs	r1, pc, #14
    7d60:	b9050066 	stmdblt	r5, {r1, r2, r5, r6}
    7d64:	000002b1 			; <UNDEFINED> instruction: 0x000002b1
    7d68:	016d0b10 	cmneq	sp, r0, lsl fp
    7d6c:	ba050000 	blt	147d74 <__bss_end__+0x13dde4>
    7d70:	00000025 	andeq	r0, r0, r5, lsr #32
    7d74:	02240b18 	eoreq	r0, r4, #24, 22	; 0x6000
    7d78:	c1050000 	mrsgt	r0, (UNDEF: 5)
    7d7c:	00000105 	andeq	r0, r0, r5, lsl #2
    7d80:	089a0b1c 	ldmeq	sl, {r2, r3, r4, r8, r9, fp}
    7d84:	c3050000 	movwgt	r0, #20480	; 0x5000
    7d88:	00000561 	andeq	r0, r0, r1, ror #10
    7d8c:	01790b20 	cmneq	r9, r0, lsr #22
    7d90:	c5050000 	strgt	r0, [r5, #-0]
    7d94:	0000058b 	andeq	r0, r0, fp, lsl #11
    7d98:	074e0b24 	strbeq	r0, [lr, -r4, lsr #22]
    7d9c:	c8050000 	stmdagt	r5, {}	; <UNPREDICTABLE>
    7da0:	000005af 	andeq	r0, r0, pc, lsr #11
    7da4:	09500b28 	ldmdbeq	r0, {r3, r5, r8, r9, fp}^
    7da8:	c9050000 	stmdbgt	r5, {}	; <UNPREDICTABLE>
    7dac:	000005c9 	andeq	r0, r0, r9, asr #11
    7db0:	755f102c 	ldrbvc	r1, [pc, #-44]	; 7d8c <_start-0x274>
    7db4:	cc050062 	stcgt	0, cr0, [r5], {98}	; 0x62
    7db8:	000002b1 			; <UNDEFINED> instruction: 0x000002b1
    7dbc:	755f1030 	ldrbvc	r1, [pc, #-48]	; 7d94 <_start-0x26c>
    7dc0:	cd050070 	stcgt	0, cr0, [r5, #-448]	; 0xfffffe40
    7dc4:	000002d6 	ldrdeq	r0, [r0], -r6
    7dc8:	755f1038 	ldrbvc	r1, [pc, #-56]	; 7d98 <_start-0x268>
    7dcc:	ce050072 	mcrgt	0, 0, r0, cr5, cr2, {3}
    7dd0:	00000025 	andeq	r0, r0, r5, lsr #32
    7dd4:	01f30b3c 	mvnseq	r0, ip, lsr fp
    7dd8:	d1050000 	mrsle	r0, (UNDEF: 5)
    7ddc:	000005cf 	andeq	r0, r0, pc, asr #11
    7de0:	09110b40 	ldmdbeq	r1, {r6, r8, r9, fp}
    7de4:	d2050000 	andle	r0, r5, #0
    7de8:	000005df 	ldrdeq	r0, [r0], -pc	; <UNPREDICTABLE>
    7dec:	6c5f1043 	mrrcvs	0, 4, r1, pc, cr3	; <UNPREDICTABLE>
    7df0:	d5050062 	strle	r0, [r5, #-98]	; 0xffffff9e
    7df4:	000002b1 			; <UNDEFINED> instruction: 0x000002b1
    7df8:	02760b44 	rsbseq	r0, r6, #68, 22	; 0x11000
    7dfc:	d8050000 	stmdale	r5, {}	; <UNPREDICTABLE>
    7e00:	00000025 	andeq	r0, r0, r5, lsr #32
    7e04:	02ac0b4c 	adceq	r0, ip, #76, 22	; 0x13000
    7e08:	d9050000 	stmdble	r5, {}	; <UNPREDICTABLE>
    7e0c:	00000076 	andeq	r0, r0, r6, ror r0
    7e10:	06440b50 			; <UNDEFINED> instruction: 0x06440b50
    7e14:	dc050000 	stcle	0, cr0, [r5], {-0}
    7e18:	00000424 	andeq	r0, r0, r4, lsr #8
    7e1c:	106a0b54 	rsbne	r0, sl, r4, asr fp
    7e20:	e0050000 	and	r0, r5, r0
    7e24:	000000fa 	strdeq	r0, [r0], -sl
    7e28:	06bb0b58 	ssateq	r0, #28, r8, asr #22
    7e2c:	e2050000 	and	r0, r5, #0
    7e30:	000000ef 	andeq	r0, r0, pc, ror #1
    7e34:	049e0b5c 	ldreq	r0, [lr], #2908	; 0xb5c
    7e38:	e3050000 	movw	r0, #20480	; 0x5000
    7e3c:	00000025 	andeq	r0, r0, r5, lsr #32
    7e40:	25140064 	ldrcs	r0, [r4, #-100]	; 0xffffff9c
    7e44:	24000000 	strcs	r0, [r0], #-0
    7e48:	15000004 	strne	r0, [r0, #-4]
    7e4c:	00000424 	andeq	r0, r0, r4, lsr #8
    7e50:	00010515 	andeq	r0, r1, r5, lsl r5
    7e54:	01071500 	tsteq	r7, r0, lsl #10
    7e58:	25150000 	ldrcs	r0, [r5, #-0]
    7e5c:	00000000 	andeq	r0, r0, r0
    7e60:	042f040d 	strteq	r0, [pc], #-1037	; 7e68 <_start-0x198>
    7e64:	240e0000 	strcs	r0, [lr], #-0
    7e68:	16000004 	strne	r0, [r0], -r4
    7e6c:	0000071e 	andeq	r0, r0, lr, lsl r7
    7e70:	38050428 	stmdacc	r5, {r3, r5, sl}
    7e74:	00056102 	andeq	r6, r5, r2, lsl #2
    7e78:	065c1700 	ldrbeq	r1, [ip], -r0, lsl #14
    7e7c:	3a050000 	bcc	147e84 <__bss_end__+0x13def4>
    7e80:	00002502 	andeq	r2, r0, r2, lsl #10
    7e84:	68170000 	ldmdavs	r7, {}	; <UNPREDICTABLE>
    7e88:	05000002 	streq	r0, [r0, #-2]
    7e8c:	0636023f 			; <UNDEFINED> instruction: 0x0636023f
    7e90:	17040000 	strne	r0, [r4, -r0]
    7e94:	00000397 	muleq	r0, r7, r3
    7e98:	36023f05 	strcc	r3, [r2], -r5, lsl #30
    7e9c:	08000006 	stmdaeq	r0, {r1, r2}
    7ea0:	00032817 	andeq	r2, r3, r7, lsl r8
    7ea4:	023f0500 	eorseq	r0, pc, #0, 10
    7ea8:	00000636 	andeq	r0, r0, r6, lsr r6
    7eac:	06f2170c 	ldrbteq	r1, [r2], ip, lsl #14
    7eb0:	41050000 	mrsmi	r0, (UNDEF: 5)
    7eb4:	00002502 	andeq	r2, r0, r2, lsl #10
    7eb8:	ed171000 	ldc	0, cr1, [r7, #-0]
    7ebc:	05000000 	streq	r0, [r0, #-0]
    7ec0:	08180242 	ldmdaeq	r8, {r1, r6, r9}
    7ec4:	17140000 	ldrne	r0, [r4, -r0]
    7ec8:	0000085c 	andeq	r0, r0, ip, asr r8
    7ecc:	25024405 	strcs	r4, [r2, #-1029]	; 0xfffffbfb
    7ed0:	30000000 	andcc	r0, r0, r0
    7ed4:	0006fc17 	andeq	pc, r6, r7, lsl ip	; <UNPREDICTABLE>
    7ed8:	02450500 	subeq	r0, r5, #0, 10
    7edc:	00000585 	andeq	r0, r0, r5, lsl #11
    7ee0:	05921734 	ldreq	r1, [r2, #1844]	; 0x734
    7ee4:	47050000 	strmi	r0, [r5, -r0]
    7ee8:	00002502 	andeq	r2, r0, r2, lsl #10
    7eec:	0c173800 	ldceq	8, cr3, [r7], {-0}
    7ef0:	05000007 	streq	r0, [r0, #-7]
    7ef4:	08330249 	ldmdaeq	r3!, {r0, r3, r6, r9}
    7ef8:	173c0000 	ldrne	r0, [ip, -r0]!
    7efc:	00000466 	andeq	r0, r0, r6, ror #8
    7f00:	77024c05 	strvc	r4, [r2, -r5, lsl #24]
    7f04:	40000001 	andmi	r0, r0, r1
    7f08:	00035d17 	andeq	r5, r3, r7, lsl sp
    7f0c:	024d0500 	subeq	r0, sp, #0, 10
    7f10:	00000025 	andeq	r0, r0, r5, lsr #32
    7f14:	09731744 	ldmdbeq	r3!, {r2, r6, r8, r9, sl, ip}^
    7f18:	4e050000 	cdpmi	0, 0, cr0, cr5, cr0, {0}
    7f1c:	00017702 	andeq	r7, r1, r2, lsl #14
    7f20:	c7174800 	ldrgt	r4, [r7, -r0, lsl #16]
    7f24:	05000005 	streq	r0, [r0, #-5]
    7f28:	0839024f 	ldmdaeq	r9!, {r0, r1, r2, r3, r6, r9}
    7f2c:	174c0000 	strbne	r0, [ip, -r0]
    7f30:	0000039f 	muleq	r0, pc, r3	; <UNPREDICTABLE>
    7f34:	25025205 	strcs	r5, [r2, #-517]	; 0xfffffdfb
    7f38:	50000000 	andpl	r0, r0, r0
    7f3c:	0002a417 	andeq	sl, r2, r7, lsl r4
    7f40:	02530500 	subseq	r0, r3, #0, 10
    7f44:	00000107 	andeq	r0, r0, r7, lsl #2
    7f48:	112c1754 			; <UNDEFINED> instruction: 0x112c1754
    7f4c:	76050000 	strvc	r0, [r5], -r0
    7f50:	0007f602 	andeq	pc, r7, r2, lsl #12
    7f54:	7c185800 	ldcvc	8, cr5, [r8], {-0}
    7f58:	05000005 	streq	r0, [r0, #-5]
    7f5c:	0294027a 	addseq	r0, r4, #-1610612729	; 0xa0000007
    7f60:	01480000 	mrseq	r0, (UNDEF: 72)
    7f64:	00043018 	andeq	r3, r4, r8, lsl r0
    7f68:	027b0500 	rsbseq	r0, fp, #0, 10
    7f6c:	00000256 	andeq	r0, r0, r6, asr r2
    7f70:	e218014c 	ands	r0, r8, #76, 2
    7f74:	05000008 	streq	r0, [r0, #-8]
    7f78:	084a027f 	stmdaeq	sl, {r0, r1, r2, r3, r4, r5, r6, r9}^
    7f7c:	02dc0000 	sbcseq	r0, ip, #0
    7f80:	00022c18 	andeq	r2, r2, r8, lsl ip
    7f84:	02840500 	addeq	r0, r4, #0, 10
    7f88:	000005fb 	strdeq	r0, [r0], -fp
    7f8c:	111802e0 	tstne	r8, r0, ror #5
    7f90:	05000002 	streq	r0, [r0, #-2]
    7f94:	08560285 	ldmdaeq	r6, {r0, r2, r7, r9}^
    7f98:	02ec0000 	rsceq	r0, ip, #0
    7f9c:	06040d00 	streq	r0, [r4], -r0, lsl #26
    7fa0:	14000004 	strne	r0, [r0], #-4
    7fa4:	00000025 	andeq	r0, r0, r5, lsr #32
    7fa8:	00000585 	andeq	r0, r0, r5, lsl #11
    7fac:	00042415 	andeq	r2, r4, r5, lsl r4
    7fb0:	01051500 	tsteq	r5, r0, lsl #10
    7fb4:	85150000 	ldrhi	r0, [r5, #-0]
    7fb8:	15000005 	strne	r0, [r0, #-5]
    7fbc:	00000025 	andeq	r0, r0, r5, lsr #32
    7fc0:	14040d00 	strne	r0, [r4], #-3328	; 0xfffff300
    7fc4:	0d000001 	stceq	0, cr0, [r0, #-4]
    7fc8:	00056704 	andeq	r6, r5, r4, lsl #14
    7fcc:	00811400 	addeq	r1, r1, r0, lsl #8
    7fd0:	05af0000 	streq	r0, [pc, #0]!	; 7fd8 <_start-0x28>
    7fd4:	24150000 	ldrcs	r0, [r5], #-0
    7fd8:	15000004 	strne	r0, [r0, #-4]
    7fdc:	00000105 	andeq	r0, r0, r5, lsl #2
    7fe0:	00008115 	andeq	r8, r0, r5, lsl r1
    7fe4:	00251500 	eoreq	r1, r5, r0, lsl #10
    7fe8:	0d000000 	stceq	0, cr0, [r0, #-0]
    7fec:	00059104 	andeq	r9, r5, r4, lsl #2
    7ff0:	00251400 	eoreq	r1, r5, r0, lsl #8
    7ff4:	05c90000 	strbeq	r0, [r9]
    7ff8:	24150000 	ldrcs	r0, [r5], #-0
    7ffc:	15000004 	strne	r0, [r0, #-4]
    8000:	00000105 	andeq	r0, r0, r5, lsl #2
    8004:	b5040d00 	strlt	r0, [r4, #-3328]	; 0xfffff300
    8008:	08000005 	stmdaeq	r0, {r0, r2}
    800c:	0000004f 	andeq	r0, r0, pc, asr #32
    8010:	000005df 	ldrdeq	r0, [r0], -pc	; <UNPREDICTABLE>
    8014:	0000c709 	andeq	ip, r0, r9, lsl #14
    8018:	08000200 	stmdaeq	r0, {r9}
    801c:	0000004f 	andeq	r0, r0, pc, asr #32
    8020:	000005ef 	andeq	r0, r0, pc, ror #11
    8024:	0000c709 	andeq	ip, r0, r9, lsl #14
    8028:	05000000 	streq	r0, [r0, #-0]
    802c:	00000691 	muleq	r0, r1, r6
    8030:	dc011d05 	stcle	13, cr1, [r1], {5}
    8034:	19000002 	stmdbne	r0, {r1}
    8038:	000008c1 	andeq	r0, r0, r1, asr #17
    803c:	0121050c 			; <UNDEFINED> instruction: 0x0121050c
    8040:	00000630 	andeq	r0, r0, r0, lsr r6
    8044:	0006c917 	andeq	ip, r6, r7, lsl r9
    8048:	01230500 			; <UNDEFINED> instruction: 0x01230500
    804c:	00000630 	andeq	r0, r0, r0, lsr r6
    8050:	04001700 	streq	r1, [r0], #-1792	; 0xfffff900
    8054:	24050000 	strcs	r0, [r5], #-0
    8058:	00002501 	andeq	r2, r0, r1, lsl #10
    805c:	8b170400 	blhi	5c9064 <__bss_end__+0x5bf0d4>
    8060:	05000006 	streq	r0, [r0, #-6]
    8064:	06360125 	ldrteq	r0, [r6], -r5, lsr #2
    8068:	00080000 	andeq	r0, r8, r0
    806c:	05fb040d 	ldrbeq	r0, [fp, #1037]!	; 0x40d
    8070:	040d0000 	streq	r0, [sp], #-0
    8074:	000005ef 	andeq	r0, r0, pc, ror #11
    8078:	0000d119 	andeq	sp, r0, r9, lsl r1
    807c:	3d050e00 	stccc	14, cr0, [r5, #-0]
    8080:	00067101 	andeq	r7, r6, r1, lsl #2
    8084:	072e1700 	streq	r1, [lr, -r0, lsl #14]!
    8088:	3e050000 	cdpcc	0, 0, cr0, cr5, cr0, {0}
    808c:	00067101 	andeq	r7, r6, r1, lsl #2
    8090:	d1170000 	tstle	r7, r0
    8094:	05000007 	streq	r0, [r0, #-7]
    8098:	0671013f 			; <UNDEFINED> instruction: 0x0671013f
    809c:	17060000 	strne	r0, [r6, -r0]
    80a0:	00000810 	andeq	r0, r0, r0, lsl r8
    80a4:	56014005 	strpl	r4, [r1], -r5
    80a8:	0c000000 	stceq	0, cr0, [r0], {-0}
    80ac:	00560800 	subseq	r0, r6, r0, lsl #16
    80b0:	06810000 	streq	r0, [r1], r0
    80b4:	c7090000 	strgt	r0, [r9, -r0]
    80b8:	02000000 	andeq	r0, r0, #0
    80bc:	05d01a00 	ldrbeq	r1, [r0, #2560]	; 0xa00
    80c0:	07820257 			; <UNDEFINED> instruction: 0x07820257
    80c4:	8a170000 	bhi	5c80cc <__bss_end__+0x5be13c>
    80c8:	05000008 	streq	r0, [r0, #-8]
    80cc:	002c0259 	eoreq	r0, ip, r9, asr r2
    80d0:	17000000 	strne	r0, [r0, -r0]
    80d4:	000007d7 	ldrdeq	r0, [r0], -r7
    80d8:	07025a05 	streq	r5, [r2, -r5, lsl #20]
    80dc:	04000001 	streq	r0, [r0], #-1
    80e0:	00044517 	andeq	r4, r4, r7, lsl r5
    80e4:	025b0500 	subseq	r0, fp, #0, 10
    80e8:	00000782 	andeq	r0, r0, r2, lsl #15
    80ec:	09411708 	stmdbeq	r1, {r3, r8, r9, sl, ip}^
    80f0:	5c050000 	stcpl	0, cr0, [r5], {-0}
    80f4:	00018d02 	andeq	r8, r1, r2, lsl #26
    80f8:	38172400 	ldmdacc	r7, {sl, sp}
    80fc:	05000003 	streq	r0, [r0, #-3]
    8100:	0025025d 	eoreq	r0, r5, sp, asr r2
    8104:	17480000 	strbne	r0, [r8, -r0]
    8108:	000006c4 	andeq	r0, r0, r4, asr #13
    810c:	64025e05 	strvs	r5, [r2], #-3589	; 0xfffff1fb
    8110:	50000000 	andpl	r0, r0, r0
    8114:	00095717 	andeq	r5, r9, r7, lsl r7
    8118:	025f0500 	subseq	r0, pc, #0, 10
    811c:	0000063c 	andeq	r0, r0, ip, lsr r6
    8120:	06e51758 	usateq	r1, #5, r8, asr #14
    8124:	60050000 	andvs	r0, r5, r0
    8128:	0000ef02 	andeq	lr, r0, r2, lsl #30
    812c:	65176800 	ldrvs	r6, [r7, #-2048]	; 0xfffff800
    8130:	05000009 	streq	r0, [r0, #-9]
    8134:	00ef0261 	rsceq	r0, pc, r1, ror #4
    8138:	17700000 	ldrbne	r0, [r0, -r0]!
    813c:	000001af 	andeq	r0, r0, pc, lsr #3
    8140:	ef026205 	svc	0x00026205
    8144:	78000000 	stmdavc	r0, {}	; <UNPREDICTABLE>
    8148:	0008d817 	andeq	sp, r8, r7, lsl r8
    814c:	02630500 	rsbeq	r0, r3, #0, 10
    8150:	00000792 	muleq	r0, r2, r7
    8154:	04391780 	ldrteq	r1, [r9], #-1920	; 0xfffff880
    8158:	64050000 	strvs	r0, [r5], #-0
    815c:	0007a202 	andeq	sl, r7, r2, lsl #4
    8160:	26178800 	ldrcs	r8, [r7], -r0, lsl #16
    8164:	05000008 	streq	r0, [r0, #-8]
    8168:	00250265 	eoreq	r0, r5, r5, ror #4
    816c:	17a00000 	strne	r0, [r0, r0]!
    8170:	000002dd 	ldrdeq	r0, [r0], -sp
    8174:	ef026605 	svc	0x00026605
    8178:	a4000000 	strge	r0, [r0], #-0
    817c:	00018b17 	andeq	r8, r1, r7, lsl fp
    8180:	02670500 	rsbeq	r0, r7, #0, 10
    8184:	000000ef 	andeq	r0, r0, pc, ror #1
    8188:	02c317ac 	sbceq	r1, r3, #172, 14	; 0x2b00000
    818c:	68050000 	stmdavs	r5, {}	; <UNPREDICTABLE>
    8190:	0000ef02 	andeq	lr, r0, r2, lsl #30
    8194:	2d17b400 	cfldrscs	mvf11, [r7, #-0]
    8198:	05000001 	streq	r0, [r0, #-1]
    819c:	00ef0269 	rsceq	r0, pc, r9, ror #4
    81a0:	17bc0000 	ldrne	r0, [ip, r0]!
    81a4:	0000013c 	andeq	r0, r0, ip, lsr r1
    81a8:	ef026a05 	svc	0x00026a05
    81ac:	c4000000 	strgt	r0, [r0], #-0
    81b0:	00065a17 	andeq	r5, r6, r7, lsl sl
    81b4:	026b0500 	rsbeq	r0, fp, #0, 10
    81b8:	00000025 	andeq	r0, r0, r5, lsr #32
    81bc:	0d0800cc 	stceq	0, cr0, [r8, #-816]	; 0xfffffcd0
    81c0:	92000001 	andls	r0, r0, #1
    81c4:	09000007 	stmdbeq	r0, {r0, r1, r2}
    81c8:	000000c7 	andeq	r0, r0, r7, asr #1
    81cc:	0d080019 	stceq	0, cr0, [r8, #-100]	; 0xffffff9c
    81d0:	a2000001 	andge	r0, r0, #1
    81d4:	09000007 	stmdbeq	r0, {r0, r1, r2}
    81d8:	000000c7 	andeq	r0, r0, r7, asr #1
    81dc:	0d080007 	stceq	0, cr0, [r8, #-28]	; 0xffffffe4
    81e0:	b2000001 	andlt	r0, r0, #1
    81e4:	09000007 	stmdbeq	r0, {r0, r1, r2}
    81e8:	000000c7 	andeq	r0, r0, r7, asr #1
    81ec:	f01a0017 			; <UNDEFINED> instruction: 0xf01a0017
    81f0:	d6027005 	strle	r7, [r2], -r5
    81f4:	17000007 	strne	r0, [r0, -r7]
    81f8:	00000551 	andeq	r0, r0, r1, asr r5
    81fc:	d6027305 	strle	r7, [r2], -r5, lsl #6
    8200:	00000007 	andeq	r0, r0, r7
    8204:	0004f817 	andeq	pc, r4, r7, lsl r8	; <UNPREDICTABLE>
    8208:	02740500 	rsbseq	r0, r4, #0, 10
    820c:	000007e6 	andeq	r0, r0, r6, ror #15
    8210:	d6080078 			; <UNDEFINED> instruction: 0xd6080078
    8214:	e6000002 	str	r0, [r0], -r2
    8218:	09000007 	stmdbeq	r0, {r0, r1, r2}
    821c:	000000c7 	andeq	r0, r0, r7, asr #1
    8220:	2c08001d 	stccs	0, cr0, [r8], {29}
    8224:	f6000000 			; <UNDEFINED> instruction: 0xf6000000
    8228:	09000007 	stmdbeq	r0, {r0, r1, r2}
    822c:	000000c7 	andeq	r0, r0, r7, asr #1
    8230:	f01b001d 			; <UNDEFINED> instruction: 0xf01b001d
    8234:	18025505 	stmdane	r2, {r0, r2, r8, sl, ip, lr}
    8238:	1c000008 	stcne	0, cr0, [r0], {8}
    823c:	0000071e 	andeq	r0, r0, lr, lsl r7
    8240:	81026c05 	tsthi	r2, r5, lsl #24
    8244:	1c000006 	stcne	0, cr0, [r0], {6}
    8248:	00000917 	andeq	r0, r0, r7, lsl r9
    824c:	b2027505 	andlt	r7, r2, #20971520	; 0x1400000
    8250:	00000007 	andeq	r0, r0, r7
    8254:	00010d08 	andeq	r0, r1, r8, lsl #26
    8258:	00082800 	andeq	r2, r8, r0, lsl #16
    825c:	00c70900 	sbceq	r0, r7, r0, lsl #18
    8260:	00180000 	andseq	r0, r8, r0
    8264:	0008331d 	andeq	r3, r8, sp, lsl r3
    8268:	04241500 	strteq	r1, [r4], #-1280	; 0xfffffb00
    826c:	0d000000 	stceq	0, cr0, [r0, #-0]
    8270:	00082804 	andeq	r2, r8, r4, lsl #16
    8274:	77040d00 	strvc	r0, [r4, -r0, lsl #26]
    8278:	1d000001 	stcne	0, cr0, [r0, #-4]
    827c:	0000084a 	andeq	r0, r0, sl, asr #16
    8280:	00002515 	andeq	r2, r0, r5, lsl r5
    8284:	040d0000 	streq	r0, [sp], #-0
    8288:	00000850 	andeq	r0, r0, r0, asr r8
    828c:	083f040d 	ldmdaeq	pc!, {r0, r2, r3, sl}	; <UNPREDICTABLE>
    8290:	ef080000 	svc	0x00080000
    8294:	66000005 	strvs	r0, [r0], -r5
    8298:	09000008 	stmdbeq	r0, {r3}
    829c:	000000c7 	andeq	r0, r0, r7, asr #1
    82a0:	501e0002 	andspl	r0, lr, r2
    82a4:	05000008 	streq	r0, [r0, #-8]
    82a8:	042402fd 	strteq	r0, [r4], #-765	; 0xfffffd03
    82ac:	491e0000 	ldmdbmi	lr, {}	; <UNPREDICTABLE>
    82b0:	05000008 	streq	r0, [r0, #-8]
    82b4:	042a02fe 	strteq	r0, [sl], #-766	; 0xfffffd02
    82b8:	25140000 	ldrcs	r0, [r4, #-0]
    82bc:	8d000000 	stchi	0, cr0, [r0, #-0]
    82c0:	15000008 	strne	r0, [r0, #-8]
    82c4:	00000025 	andeq	r0, r0, r5, lsr #32
    82c8:	03671f00 	cmneq	r7, #0, 30
    82cc:	1d060000 	stcne	0, cr0, [r6, #-0]
    82d0:	00000898 	muleq	r0, r8, r8
    82d4:	087e040d 	ldmdaeq	lr!, {r0, r2, r3, sl}^
    82d8:	25140000 	ldrcs	r0, [r4, #-0]
    82dc:	ad000000 	stcge	0, cr0, [r0, #-0]
    82e0:	15000008 	strne	r0, [r0, #-8]
    82e4:	00000585 	andeq	r0, r0, r5, lsl #11
    82e8:	0d051f00 	stceq	15, cr1, [r5, #-0]
    82ec:	22060000 	andcs	r0, r6, #0
    82f0:	000008b8 			; <UNDEFINED> instruction: 0x000008b8
    82f4:	089e040d 	ldmeq	lr, {r0, r2, r3, sl}
    82f8:	e1200000 			; <UNDEFINED> instruction: 0xe1200000
    82fc:	0100000e 	tsteq	r0, lr
    8300:	0092a425 	addseq	sl, r2, r5, lsr #8
    8304:	00001400 	andeq	r1, r0, r0, lsl #8
    8308:	f89c0100 			; <UNDEFINED> instruction: 0xf89c0100
    830c:	21000008 	tstcs	r0, r8
    8310:	00636573 	rsbeq	r6, r3, r3, ror r5
    8314:	002c2501 	eoreq	r2, ip, r1, lsl #10
    8318:	0e720000 	cdpeq	0, 7, cr0, cr2, cr0, {0}
    831c:	b4220000 	strtlt	r0, [r2], #-0
    8320:	f8000092 			; <UNDEFINED> instruction: 0xf8000092
    8324:	23000008 	movwcs	r0, #8
    8328:	f3075001 	vhadd.u8	d5, d7, d1
    832c:	e80a5001 	stmda	sl, {r0, ip, lr}
    8330:	00001e03 	andeq	r1, r0, r3, lsl #28
    8334:	00073420 	andeq	r3, r7, r0, lsr #8
    8338:	90220100 	eorls	r0, r2, r0, lsl #2
    833c:	14000092 	strne	r0, [r0], #-146	; 0xffffff6e
    8340:	01000000 	mrseq	r0, (UNDEF: 0)
    8344:	0009319c 	muleq	r9, ip, r1
    8348:	736d2100 	cmnvc	sp, #0, 2
    834c:	2c220100 	stfcss	f0, [r2], #-0
    8350:	93000000 	movwls	r0, #0
    8354:	2200000e 	andcs	r0, r0, #14
    8358:	000092a0 	andeq	r9, r0, r0, lsr #5
    835c:	00000931 	andeq	r0, r0, r1, lsr r9
    8360:	07500123 	ldrbeq	r0, [r0, -r3, lsr #2]
    8364:	0a5001f3 	beq	1408b38 <__bss_end__+0x13feba8>
    8368:	001e03e8 	andseq	r0, lr, r8, ror #7
    836c:	0f2a2000 	svceq	0x002a2000
    8370:	19010000 	stmdbne	r1, {}	; <UNPREDICTABLE>
    8374:	0000926c 	andeq	r9, r0, ip, ror #4
    8378:	00000024 	andeq	r0, r0, r4, lsr #32
    837c:	098f9c01 	stmibeq	pc, {r0, sl, fp, ip, pc}	; <UNPREDICTABLE>
    8380:	75210000 	strvc	r0, [r1, #-0]!
    8384:	19010073 	stmdbne	r1, {r0, r1, r4, r5, r6}
    8388:	0000002c 	andeq	r0, r0, ip, lsr #32
    838c:	00000eb4 			; <UNDEFINED> instruction: 0x00000eb4
    8390:	00627224 	rsbeq	r7, r2, r4, lsr #4
    8394:	002c1a01 	eoreq	r1, ip, r1, lsl #20
    8398:	54010000 	strpl	r0, [r1], #-0
    839c:	00927c25 	addseq	r7, r2, r5, lsr #24
    83a0:	00001000 	andeq	r1, r0, r0
    83a4:	00098500 	andeq	r8, r9, r0, lsl #10
    83a8:	61722600 	cmnvs	r2, r0, lsl #12
    83ac:	2c1c0100 	ldfcss	f0, [ip], {-0}
    83b0:	d2000000 	andle	r0, r0, #0
    83b4:	2700000e 	strcs	r0, [r0, -lr]
    83b8:	00009280 	andeq	r9, r0, r0, lsl #5
    83bc:	0000098f 	andeq	r0, r0, pc, lsl #19
    83c0:	92782700 	rsbsls	r2, r8, #0, 14
    83c4:	098f0000 	stmibeq	pc, {}	; <UNPREDICTABLE>
    83c8:	28000000 	stmdacs	r0, {}	; <UNPREDICTABLE>
    83cc:	00000ed2 	ldrdeq	r0, [r0], -r2
    83d0:	002c1001 	eoreq	r1, ip, r1
    83d4:	92600000 	rsbls	r0, r0, #0
    83d8:	000c0000 	andeq	r0, ip, r0
    83dc:	9c010000 	stcls	0, cr0, [r1], {-0}
    83e0:	000009bd 			; <UNDEFINED> instruction: 0x000009bd
    83e4:	01007524 	tsteq	r0, r4, lsr #10
    83e8:	00002c14 	andeq	r2, r0, r4, lsl ip
    83ec:	27500100 	ldrbcs	r0, [r0, -r0, lsl #2]
    83f0:	00009268 	andeq	r9, r0, r8, ror #4
    83f4:	000009bd 			; <UNDEFINED> instruction: 0x000009bd
    83f8:	0f172800 	svceq	0x00172800
    83fc:	0b010000 	bleq	48404 <__bss_end__+0x3e474>
    8400:	0000002c 	andeq	r0, r0, ip, lsr #32
    8404:	0000924c 	andeq	r9, r0, ip, asr #4
    8408:	00000014 	andeq	r0, r0, r4, lsl r0
    840c:	09ea9c01 	stmibeq	sl!, {r0, sl, fp, ip, pc}^
    8410:	58220000 	stmdapl	r2!, {}	; <UNPREDICTABLE>
    8414:	0f000092 	svceq	0x00000092
    8418:	2300000a 	movwcs	r0, #10
    841c:	0c055001 	stceq	0, cr5, [r5], {1}
    8420:	20003004 	andcs	r3, r0, r4
    8424:	eb200000 	bl	80842c <__bss_end__+0x7fe49c>
    8428:	0100000e 	tsteq	r0, lr
    842c:	00923005 	addseq	r3, r2, r5
    8430:	00001c00 	andeq	r1, r0, r0, lsl #24
    8434:	0f9c0100 	svceq	0x009c0100
    8438:	2900000a 	stmdbcs	r0, {r1, r3}
    843c:	00000f0b 	andeq	r0, r0, fp, lsl #30
    8440:	002c0501 	eoreq	r0, ip, r1, lsl #10
    8444:	0ee50000 	cdpeq	0, 14, cr0, cr5, cr0, {0}
    8448:	2a000000 	bcs	8450 <do_accel_test+0x28>
    844c:	00000f11 	andeq	r0, r0, r1, lsl pc
    8450:	00000f11 	andeq	r0, r0, r1, lsl pc
    8454:	9500a706 	strls	sl, [r0, #-1798]	; 0xfffff8fa
    8458:	0400000c 	streq	r0, [r0], #-12
    845c:	00183e00 	andseq	r3, r8, r0, lsl #28
    8460:	87010400 	strhi	r0, [r1, -r0, lsl #8]
    8464:	0c00000f 	stceq	0, cr0, [r0], {15}
    8468:	00000f48 	andeq	r0, r0, r8, asr #30
    846c:	0000101b 	andeq	r1, r0, fp, lsl r0
    8470:	0000931c 	andeq	r9, r0, ip, lsl r3
    8474:	00000160 	andeq	r0, r0, r0, ror #2
    8478:	00000c62 	andeq	r0, r0, r2, ror #24
    847c:	69050402 	stmdbvs	r5, {r1, sl}
    8480:	0300746e 	movweq	r7, #1134	; 0x46e
    8484:	01570704 	cmpeq	r7, r4, lsl #14
    8488:	2c040000 	stccs	0, cr0, [r4], {-0}
    848c:	03000000 	movweq	r0, #0
    8490:	06180601 	ldreq	r0, [r8], -r1, lsl #12
    8494:	02030000 	andeq	r0, r3, #0
    8498:	00066305 	andeq	r6, r6, r5, lsl #6
    849c:	05040300 	streq	r0, [r4, #-768]	; 0xfffffd00
    84a0:	000001cb 	andeq	r0, r0, fp, asr #3
    84a4:	c6050803 	strgt	r0, [r5], -r3, lsl #16
    84a8:	03000001 	movweq	r0, #1
    84ac:	06160801 	ldreq	r0, [r6], -r1, lsl #16
    84b0:	02030000 	andeq	r0, r3, #0
    84b4:	00041d07 	andeq	r1, r4, r7, lsl #26
    84b8:	07040300 	streq	r0, [r4, -r0, lsl #6]
    84bc:	00000152 	andeq	r0, r0, r2, asr r1
    84c0:	4d070803 	stcmi	8, cr0, [r7, #-12]
    84c4:	05000001 	streq	r0, [r0, #-1]
    84c8:	00000f7f 	andeq	r0, r0, pc, ror pc
    84cc:	007b2202 	rsbseq	r2, fp, r2, lsl #4
    84d0:	04060000 	streq	r0, [r6], #-0
    84d4:	00000081 	andeq	r0, r0, r1, lsl #1
    84d8:	00106907 	andseq	r6, r0, r7, lsl #18
    84dc:	059d0500 	ldreq	r0, [sp, #1280]	; 0x500
    84e0:	2c030000 	stccs	0, cr0, [r3], {-0}
    84e4:	00000046 	andeq	r0, r0, r6, asr #32
    84e8:	00076105 	andeq	r6, r7, r5, lsl #2
    84ec:	46720300 	ldrbtmi	r0, [r2], -r0, lsl #6
    84f0:	08000000 	stmdaeq	r0, {}	; <UNPREDICTABLE>
    84f4:	00000481 	andeq	r0, r0, r1, lsl #9
    84f8:	2c016504 	cfstr32cs	mvfx6, [r1], {4}
    84fc:	09000000 	stmdbeq	r0, {}	; <UNPREDICTABLE>
    8500:	c7a60304 	strgt	r0, [r6, r4, lsl #6]!
    8504:	0a000000 	beq	850c <do_accel_test+0xe4>
    8508:	0000046e 	andeq	r0, r0, lr, ror #8
    850c:	009ca803 	addseq	sl, ip, r3, lsl #16
    8510:	810a0000 	mrshi	r0, (UNDEF: 10)
    8514:	03000003 	movweq	r0, #3
    8518:	0000c7a9 	andeq	ip, r0, r9, lsr #15
    851c:	540b0000 	strpl	r0, [fp], #-0
    8520:	d7000000 	strle	r0, [r0, -r0]
    8524:	0c000000 	stceq	0, cr0, [r0], {-0}
    8528:	0000002c 	andeq	r0, r0, ip, lsr #32
    852c:	080d0003 	stmdaeq	sp, {r0, r1}
    8530:	00f8a303 	rscseq	sl, r8, r3, lsl #6
    8534:	3d0e0000 	stccc	0, cr0, [lr, #-0]
    8538:	03000007 	movweq	r0, #7
    853c:	000025a5 	andeq	r2, r0, r5, lsr #11
    8540:	e40e0000 	str	r0, [lr], #-0
    8544:	03000007 	movweq	r0, #7
    8548:	0000a8aa 	andeq	sl, r0, sl, lsr #17
    854c:	05000400 	streq	r0, [r0, #-1024]	; 0xfffffc00
    8550:	00000698 	muleq	r0, r8, r6
    8554:	00d7ab03 	sbcseq	sl, r7, r3, lsl #22
    8558:	1f050000 	svcne	0x00050000
    855c:	03000003 	movweq	r0, #3
    8560:	000070af 	andeq	r7, r0, pc, lsr #1
    8564:	06040f00 	streq	r0, [r4], -r0, lsl #30
    8568:	00011604 	andeq	r1, r1, r4, lsl #12
    856c:	08010300 	stmdaeq	r1, {r8, r9}
    8570:	0000061f 	andeq	r0, r0, pc, lsl r6
    8574:	00011610 	andeq	r1, r1, r0, lsl r6
    8578:	081e0500 	ldmdaeq	lr, {r8, sl}
    857c:	16050000 	strne	r0, [r5], -r0
    8580:	00000062 	andeq	r0, r0, r2, rrx
    8584:	00033011 	andeq	r3, r3, r1, lsl r0
    8588:	2f051800 	svccs	0x00051800
    858c:	00000180 	andeq	r0, r0, r0, lsl #3
    8590:	0006c90e 	andeq	ip, r6, lr, lsl #18
    8594:	80310500 	eorshi	r0, r1, r0, lsl #10
    8598:	00000001 	andeq	r0, r0, r1
    859c:	006b5f12 	rsbeq	r5, fp, r2, lsl pc
    85a0:	00253205 	eoreq	r3, r5, r5, lsl #4
    85a4:	0e040000 	cdpeq	0, 0, cr0, cr4, cr0, {0}
    85a8:	00000716 	andeq	r0, r0, r6, lsl r7
    85ac:	00253205 	eoreq	r3, r5, r5, lsl #4
    85b0:	0e080000 	cdpeq	0, 0, cr0, cr8, cr0, {0}
    85b4:	00000319 	andeq	r0, r0, r9, lsl r3
    85b8:	00253205 	eoreq	r3, r5, r5, lsl #4
    85bc:	0e0c0000 	cdpeq	0, 0, cr0, cr12, cr0, {0}
    85c0:	000008b2 			; <UNDEFINED> instruction: 0x000008b2
    85c4:	00253205 	eoreq	r3, r5, r5, lsl #4
    85c8:	12100000 	andsne	r0, r0, #0
    85cc:	0500785f 	streq	r7, [r0, #-2143]	; 0xfffff7a1
    85d0:	00018633 	andeq	r8, r1, r3, lsr r6
    85d4:	06001400 	streq	r1, [r0], -r0, lsl #8
    85d8:	00012d04 	andeq	r2, r1, r4, lsl #26
    85dc:	01220b00 			; <UNDEFINED> instruction: 0x01220b00
    85e0:	01960000 	orrseq	r0, r6, r0
    85e4:	2c0c0000 	stccs	0, cr0, [ip], {-0}
    85e8:	00000000 	andeq	r0, r0, r0
    85ec:	03731100 	cmneq	r3, #0, 2
    85f0:	05240000 	streq	r0, [r4, #-0]!
    85f4:	00020f37 	andeq	r0, r2, r7, lsr pc
    85f8:	01bd0e00 			; <UNDEFINED> instruction: 0x01bd0e00
    85fc:	39050000 	stmdbcc	r5, {}	; <UNPREDICTABLE>
    8600:	00000025 	andeq	r0, r0, r5, lsr #32
    8604:	07890e00 	streq	r0, [r9, r0, lsl #28]
    8608:	3a050000 	bcc	148610 <__bss_end__+0x13e680>
    860c:	00000025 	andeq	r0, r0, r5, lsr #32
    8610:	02070e04 	andeq	r0, r7, #4, 28	; 0x40
    8614:	3b050000 	blcc	14861c <__bss_end__+0x13e68c>
    8618:	00000025 	andeq	r0, r0, r5, lsr #32
    861c:	09bc0e08 	ldmibeq	ip!, {r3, r9, sl, fp}
    8620:	3c050000 	stccc	0, cr0, [r5], {-0}
    8624:	00000025 	andeq	r0, r0, r5, lsr #32
    8628:	05620e0c 	strbeq	r0, [r2, #-3596]!	; 0xfffff1f4
    862c:	3d050000 	stccc	0, cr0, [r5, #-0]
    8630:	00000025 	andeq	r0, r0, r5, lsr #32
    8634:	04d00e10 	ldrbeq	r0, [r0], #3600	; 0xe10
    8638:	3e050000 	cdpcc	0, 0, cr0, cr5, cr0, {0}
    863c:	00000025 	andeq	r0, r0, r5, lsr #32
    8640:	08b70e14 	ldmeq	r7!, {r2, r4, r9, sl, fp}
    8644:	3f050000 	svccc	0x00050000
    8648:	00000025 	andeq	r0, r0, r5, lsr #32
    864c:	066d0e18 			; <UNDEFINED> instruction: 0x066d0e18
    8650:	40050000 	andmi	r0, r5, r0
    8654:	00000025 	andeq	r0, r0, r5, lsr #32
    8658:	09360e1c 	ldmdbeq	r6!, {r2, r3, r4, r9, sl, fp}
    865c:	41050000 	mrsmi	r0, (UNDEF: 5)
    8660:	00000025 	andeq	r0, r0, r5, lsr #32
    8664:	16130020 	ldrne	r0, [r3], -r0, lsr #32
    8668:	08000002 	stmdaeq	r0, {r1}
    866c:	4f4a0501 	svcmi	0x004a0501
    8670:	0e000002 	cdpeq	0, 0, cr0, cr0, cr2, {0}
    8674:	000002eb 	andeq	r0, r0, fp, ror #5
    8678:	024f4b05 	subeq	r4, pc, #5120	; 0x1400
    867c:	0e000000 	cdpeq	0, 0, cr0, cr0, cr0, {0}
    8680:	00000000 	andeq	r0, r0, r0
    8684:	024f4c05 	subeq	r4, pc, #1280	; 0x500
    8688:	14800000 	strne	r0, [r0], #0
    868c:	000007ab 	andeq	r0, r0, fp, lsr #15
    8690:	01224e05 			; <UNDEFINED> instruction: 0x01224e05
    8694:	01000000 	mrseq	r0, (UNDEF: 0)
    8698:	00026014 	andeq	r6, r2, r4, lsl r0
    869c:	22510500 	subscs	r0, r1, #0, 10
    86a0:	04000001 	streq	r0, [r0], #-1
    86a4:	0e0b0001 	cdpeq	0, 0, cr0, cr11, cr1, {0}
    86a8:	5f000001 	svcpl	0x00000001
    86ac:	0c000002 	stceq	0, cr0, [r0], {2}
    86b0:	0000002c 	andeq	r0, r0, ip, lsr #32
    86b4:	7c13001f 	ldcvc	0, cr0, [r3], {31}
    86b8:	90000005 	andls	r0, r0, r5
    86bc:	9d5d0501 	cfldr64ls	mvdx0, [sp, #-4]
    86c0:	0e000002 	cdpeq	0, 0, cr0, cr0, cr2, {0}
    86c4:	000006c9 	andeq	r0, r0, r9, asr #13
    86c8:	029d5e05 	addseq	r5, sp, #5, 28	; 0x50
    86cc:	0e000000 	cdpeq	0, 0, cr0, cr0, cr0, {0}
    86d0:	000006f7 	strdeq	r0, [r0], -r7
    86d4:	00255f05 	eoreq	r5, r5, r5, lsl #30
    86d8:	0e040000 	cdpeq	0, 0, cr0, cr4, cr0, {0}
    86dc:	00000314 	andeq	r0, r0, r4, lsl r3
    86e0:	02a36105 	adceq	r6, r3, #1073741825	; 0x40000001
    86e4:	0e080000 	cdpeq	0, 0, cr0, cr8, cr0, {0}
    86e8:	00000216 	andeq	r0, r0, r6, lsl r2
    86ec:	020f6205 	andeq	r6, pc, #1342177280	; 0x50000000
    86f0:	00880000 	addeq	r0, r8, r0
    86f4:	025f0406 	subseq	r0, pc, #100663296	; 0x6000000
    86f8:	b30b0000 	movwlt	r0, #45056	; 0xb000
    86fc:	b3000002 	movwlt	r0, #2
    8700:	0c000002 	stceq	0, cr0, [r0], {2}
    8704:	0000002c 	andeq	r0, r0, ip, lsr #32
    8708:	0406001f 	streq	r0, [r6], #-31	; 0xffffffe1
    870c:	000002b9 			; <UNDEFINED> instruction: 0x000002b9
    8710:	06771115 			; <UNDEFINED> instruction: 0x06771115
    8714:	05080000 	streq	r0, [r8, #-0]
    8718:	0002df75 	andeq	sp, r2, r5, ror pc
    871c:	02010e00 	andeq	r0, r1, #0, 28
    8720:	76050000 	strvc	r0, [r5], -r0
    8724:	000002df 	ldrdeq	r0, [r0], -pc	; <UNPREDICTABLE>
    8728:	00a60e00 	adceq	r0, r6, r0, lsl #28
    872c:	77050000 	strvc	r0, [r5, -r0]
    8730:	00000025 	andeq	r0, r0, r5, lsr #32
    8734:	04060004 	streq	r0, [r6], #-4
    8738:	00000054 	andeq	r0, r0, r4, asr r0
    873c:	0006a311 	andeq	sl, r6, r1, lsl r3
    8740:	b5056800 	strlt	r6, [r5, #-2048]	; 0xfffff800
    8744:	0000040f 	andeq	r0, r0, pc, lsl #8
    8748:	00705f12 	rsbseq	r5, r0, r2, lsl pc
    874c:	02dfb605 	sbcseq	fp, pc, #5242880	; 0x500000
    8750:	12000000 	andne	r0, r0, #0
    8754:	0500725f 	streq	r7, [r0, #-607]	; 0xfffffda1
    8758:	000025b7 			; <UNDEFINED> instruction: 0x000025b7
    875c:	5f120400 	svcpl	0x00120400
    8760:	b8050077 	stmdalt	r5, {r0, r1, r2, r4, r5, r6}
    8764:	00000025 	andeq	r0, r0, r5, lsr #32
    8768:	02590e08 	subseq	r0, r9, #8, 28	; 0x80
    876c:	b9050000 	stmdblt	r5, {}	; <UNPREDICTABLE>
    8770:	0000003f 	andeq	r0, r0, pc, lsr r0
    8774:	03b20e0c 			; <UNDEFINED> instruction: 0x03b20e0c
    8778:	ba050000 	blt	148780 <__bss_end__+0x13e7f0>
    877c:	0000003f 	andeq	r0, r0, pc, lsr r0
    8780:	625f120e 	subsvs	r1, pc, #-536870912	; 0xe0000000
    8784:	bb050066 	bllt	148924 <__bss_end__+0x13e994>
    8788:	000002ba 			; <UNDEFINED> instruction: 0x000002ba
    878c:	016d0e10 	cmneq	sp, r0, lsl lr
    8790:	bc050000 	stclt	0, cr0, [r5], {-0}
    8794:	00000025 	andeq	r0, r0, r5, lsr #32
    8798:	02240e18 	eoreq	r0, r4, #24, 28	; 0x180
    879c:	c3050000 	movwgt	r0, #20480	; 0x5000
    87a0:	0000010e 	andeq	r0, r0, lr, lsl #2
    87a4:	089a0e1c 	ldmeq	sl, {r2, r3, r4, r9, sl, fp}
    87a8:	c5050000 	strgt	r0, [r5, #-0]
    87ac:	0000056a 	andeq	r0, r0, sl, ror #10
    87b0:	01790e20 	cmneq	r9, r0, lsr #28
    87b4:	c7050000 	strgt	r0, [r5, -r0]
    87b8:	00000594 	muleq	r0, r4, r5
    87bc:	074e0e24 	strbeq	r0, [lr, -r4, lsr #28]
    87c0:	ca050000 	bgt	1487c8 <__bss_end__+0x13e838>
    87c4:	000005b8 			; <UNDEFINED> instruction: 0x000005b8
    87c8:	09500e28 	ldmdbeq	r0, {r3, r5, r9, sl, fp}^
    87cc:	cb050000 	blgt	1487d4 <__bss_end__+0x13e844>
    87d0:	000005d2 	ldrdeq	r0, [r0], -r2
    87d4:	755f122c 	ldrbvc	r1, [pc, #-556]	; 85b0 <notmain+0x74>
    87d8:	ce050062 	cdpgt	0, 0, cr0, cr5, cr2, {3}
    87dc:	000002ba 			; <UNDEFINED> instruction: 0x000002ba
    87e0:	755f1230 	ldrbvc	r1, [pc, #-560]	; 85b8 <notmain+0x7c>
    87e4:	cf050070 	svcgt	0x00050070
    87e8:	000002df 	ldrdeq	r0, [r0], -pc	; <UNPREDICTABLE>
    87ec:	755f1238 	ldrbvc	r1, [pc, #-568]	; 85bc <clear_c>
    87f0:	d0050072 	andle	r0, r5, r2, ror r0
    87f4:	00000025 	andeq	r0, r0, r5, lsr #32
    87f8:	01f30e3c 	mvnseq	r0, ip, lsr lr
    87fc:	d3050000 	movwle	r0, #20480	; 0x5000
    8800:	000005d8 	ldrdeq	r0, [r0], -r8
    8804:	09110e40 	ldmdbeq	r1, {r6, r9, sl, fp}
    8808:	d4050000 	strle	r0, [r5], #-0
    880c:	000005e8 	andeq	r0, r0, r8, ror #11
    8810:	6c5f1243 	lfmvs	f1, 2, [pc], {67}	; 0x43
    8814:	d7050062 	strle	r0, [r5, -r2, rrx]
    8818:	000002ba 			; <UNDEFINED> instruction: 0x000002ba
    881c:	02760e44 	rsbseq	r0, r6, #68, 28	; 0x440
    8820:	da050000 	ble	148828 <__bss_end__+0x13e898>
    8824:	00000025 	andeq	r0, r0, r5, lsr #32
    8828:	02ac0e4c 	adceq	r0, ip, #76, 28	; 0x4c0
    882c:	db050000 	blle	148834 <__bss_end__+0x13e8a4>
    8830:	00000086 	andeq	r0, r0, r6, lsl #1
    8834:	06440e50 			; <UNDEFINED> instruction: 0x06440e50
    8838:	de050000 	cdple	0, 0, cr0, cr5, cr0, {0}
    883c:	0000042d 	andeq	r0, r0, sp, lsr #8
    8840:	106a0e54 	rsbne	r0, sl, r4, asr lr
    8844:	e2050000 	and	r0, r5, #0
    8848:	00000103 	andeq	r0, r0, r3, lsl #2
    884c:	06bb0e58 	ssateq	r0, #28, r8, asr #28
    8850:	e4050000 	str	r0, [r5], #-0
    8854:	000000f8 	strdeq	r0, [r0], -r8
    8858:	049e0e5c 	ldreq	r0, [lr], #3676	; 0xe5c
    885c:	e5050000 	str	r0, [r5, #-0]
    8860:	00000025 	andeq	r0, r0, r5, lsr #32
    8864:	25160064 	ldrcs	r0, [r6, #-100]	; 0xffffff9c
    8868:	2d000000 	stccs	0, cr0, [r0, #-0]
    886c:	17000004 	strne	r0, [r0, -r4]
    8870:	0000042d 	andeq	r0, r0, sp, lsr #8
    8874:	00010e17 	andeq	r0, r1, r7, lsl lr
    8878:	01101700 	tsteq	r0, r0, lsl #14
    887c:	25170000 	ldrcs	r0, [r7, #-0]
    8880:	00000000 	andeq	r0, r0, r0
    8884:	04380406 	ldrteq	r0, [r8], #-1030	; 0xfffffbfa
    8888:	2d100000 	ldccs	0, cr0, [r0, #-0]
    888c:	18000004 	stmdane	r0, {r2}
    8890:	0000071e 	andeq	r0, r0, lr, lsl r7
    8894:	60050428 	andvs	r0, r5, r8, lsr #8
    8898:	00056a02 	andeq	r6, r5, r2, lsl #20
    889c:	065c1900 	ldrbeq	r1, [ip], -r0, lsl #18
    88a0:	62050000 	andvs	r0, r5, #0
    88a4:	00002502 	andeq	r2, r0, r2, lsl #10
    88a8:	68190000 	ldmdavs	r9, {}	; <UNPREDICTABLE>
    88ac:	05000002 	streq	r0, [r0, #-2]
    88b0:	063f0267 	ldrteq	r0, [pc], -r7, ror #4
    88b4:	19040000 	stmdbne	r4, {}	; <UNPREDICTABLE>
    88b8:	00000397 	muleq	r0, r7, r3
    88bc:	3f026705 	svccc	0x00026705
    88c0:	08000006 	stmdaeq	r0, {r1, r2}
    88c4:	00032819 	andeq	r2, r3, r9, lsl r8
    88c8:	02670500 	rsbeq	r0, r7, #0, 10
    88cc:	0000063f 	andeq	r0, r0, pc, lsr r6
    88d0:	06f2190c 	ldrbteq	r1, [r2], ip, lsl #18
    88d4:	69050000 	stmdbvs	r5, {}	; <UNPREDICTABLE>
    88d8:	00002502 	andeq	r2, r0, r2, lsl #10
    88dc:	ed191000 	ldc	0, cr1, [r9, #-0]
    88e0:	05000000 	streq	r0, [r0, #-0]
    88e4:	0821026a 	stmdaeq	r1!, {r1, r3, r5, r6, r9}
    88e8:	19140000 	ldmdbne	r4, {}	; <UNPREDICTABLE>
    88ec:	00001050 	andeq	r1, r0, r0, asr r0
    88f0:	25026d05 	strcs	r6, [r2, #-3333]	; 0xfffff2fb
    88f4:	30000000 	andcc	r0, r0, r0
    88f8:	00070419 	andeq	r0, r7, r9, lsl r4
    88fc:	026e0500 	rsbeq	r0, lr, #0, 10
    8900:	00000836 	andeq	r0, r0, r6, lsr r8
    8904:	05921934 	ldreq	r1, [r2, #2356]	; 0x934
    8908:	70050000 	andvc	r0, r5, r0
    890c:	00002502 	andeq	r2, r0, r2, lsl #10
    8910:	0c193800 	ldceq	8, cr3, [r9], {-0}
    8914:	05000007 	streq	r0, [r0, #-7]
    8918:	08470272 	stmdaeq	r7, {r1, r4, r5, r6, r9}^
    891c:	193c0000 	ldmdbne	ip!, {}	; <UNPREDICTABLE>
    8920:	00000466 	andeq	r0, r0, r6, ror #8
    8924:	80027505 	andhi	r7, r2, r5, lsl #10
    8928:	40000001 	andmi	r0, r0, r1
    892c:	00035d19 	andeq	r5, r3, r9, lsl sp
    8930:	02760500 	rsbseq	r0, r6, #0, 10
    8934:	00000025 	andeq	r0, r0, r5, lsr #32
    8938:	09731944 	ldmdbeq	r3!, {r2, r6, r8, fp, ip}^
    893c:	77050000 	strvc	r0, [r5, -r0]
    8940:	00018002 	andeq	r8, r1, r2
    8944:	c7194800 	ldrgt	r4, [r9, -r0, lsl #16]
    8948:	05000005 	streq	r0, [r0, #-5]
    894c:	084d0278 	stmdaeq	sp, {r3, r4, r5, r6, r9}^
    8950:	194c0000 	stmdbne	ip, {}^	; <UNPREDICTABLE>
    8954:	0000039f 	muleq	r0, pc, r3	; <UNPREDICTABLE>
    8958:	25027b05 	strcs	r7, [r2, #-2821]	; 0xfffff4fb
    895c:	50000000 	andpl	r0, r0, r0
    8960:	0002a419 	andeq	sl, r2, r9, lsl r4
    8964:	027c0500 	rsbseq	r0, ip, #0, 10
    8968:	00000110 	andeq	r0, r0, r0, lsl r1
    896c:	112c1954 			; <UNDEFINED> instruction: 0x112c1954
    8970:	9f050000 	svcls	0x00050000
    8974:	0007ff02 	andeq	pc, r7, r2, lsl #30
    8978:	7c1a5800 	ldcvc	8, cr5, [sl], {-0}
    897c:	05000005 	streq	r0, [r0, #-5]
    8980:	029d02a3 	addseq	r0, sp, #805306378	; 0x3000000a
    8984:	01480000 	mrseq	r0, (UNDEF: 72)
    8988:	0004301a 	andeq	r3, r4, sl, lsl r0
    898c:	02a40500 	adceq	r0, r4, #0, 10
    8990:	0000025f 	andeq	r0, r0, pc, asr r2
    8994:	e21a014c 	ands	r0, sl, #76, 2
    8998:	05000008 	streq	r0, [r0, #-8]
    899c:	085e02a8 	ldmdaeq	lr, {r3, r5, r7, r9}^
    89a0:	02dc0000 	sbcseq	r0, ip, #0
    89a4:	00022c1a 	andeq	r2, r2, sl, lsl ip
    89a8:	02ad0500 	adceq	r0, sp, #0, 10
    89ac:	00000604 	andeq	r0, r0, r4, lsl #12
    89b0:	111a02e0 	tstne	sl, r0, ror #5
    89b4:	05000002 	streq	r0, [r0, #-2]
    89b8:	086a02af 	stmdaeq	sl!, {r0, r1, r2, r3, r5, r7, r9}^
    89bc:	02ec0000 	rsceq	r0, ip, #0
    89c0:	0f040600 	svceq	0x00040600
    89c4:	16000004 	strne	r0, [r0], -r4
    89c8:	00000025 	andeq	r0, r0, r5, lsr #32
    89cc:	0000058e 	andeq	r0, r0, lr, lsl #11
    89d0:	00042d17 	andeq	r2, r4, r7, lsl sp
    89d4:	010e1700 	tsteq	lr, r0, lsl #14
    89d8:	8e170000 	cdphi	0, 1, cr0, cr7, cr0, {0}
    89dc:	17000005 	strne	r0, [r0, -r5]
    89e0:	00000025 	andeq	r0, r0, r5, lsr #32
    89e4:	1d040600 	stcne	6, cr0, [r4, #-0]
    89e8:	06000001 	streq	r0, [r0], -r1
    89ec:	00057004 	andeq	r7, r5, r4
    89f0:	00911600 	addseq	r1, r1, r0, lsl #12
    89f4:	05b80000 	ldreq	r0, [r8, #0]!
    89f8:	2d170000 	ldccs	0, cr0, [r7, #-0]
    89fc:	17000004 	strne	r0, [r0, -r4]
    8a00:	0000010e 	andeq	r0, r0, lr, lsl #2
    8a04:	00009117 	andeq	r9, r0, r7, lsl r1
    8a08:	00251700 	eoreq	r1, r5, r0, lsl #14
    8a0c:	06000000 	streq	r0, [r0], -r0
    8a10:	00059a04 	andeq	r9, r5, r4, lsl #20
    8a14:	00251600 	eoreq	r1, r5, r0, lsl #12
    8a18:	05d20000 	ldrbeq	r0, [r2]
    8a1c:	2d170000 	ldccs	0, cr0, [r7, #-0]
    8a20:	17000004 	strne	r0, [r0, -r4]
    8a24:	0000010e 	andeq	r0, r0, lr, lsl #2
    8a28:	be040600 	cfmadd32lt	mvax0, mvfx0, mvfx4, mvfx0
    8a2c:	0b000005 	bleq	8a48 <i2c_read+0xa0>
    8a30:	00000054 	andeq	r0, r0, r4, asr r0
    8a34:	000005e8 	andeq	r0, r0, r8, ror #11
    8a38:	00002c0c 	andeq	r2, r0, ip, lsl #24
    8a3c:	0b000200 	bleq	9244 <delay_cycles+0x14>
    8a40:	00000054 	andeq	r0, r0, r4, asr r0
    8a44:	000005f8 	strdeq	r0, [r0], -r8
    8a48:	00002c0c 	andeq	r2, r0, ip, lsl #24
    8a4c:	08000000 	stmdaeq	r0, {}	; <UNPREDICTABLE>
    8a50:	00000691 	muleq	r0, r1, r6
    8a54:	e5011f05 	str	r1, [r1, #-3845]	; 0xfffff0fb
    8a58:	1b000002 	blne	8a68 <i2c_is_initialized>
    8a5c:	000008c1 	andeq	r0, r0, r1, asr #17
    8a60:	0123050c 			; <UNDEFINED> instruction: 0x0123050c
    8a64:	00000639 	andeq	r0, r0, r9, lsr r6
    8a68:	0006c919 	andeq	ip, r6, r9, lsl r9
    8a6c:	01250500 			; <UNDEFINED> instruction: 0x01250500
    8a70:	00000639 	andeq	r0, r0, r9, lsr r6
    8a74:	04001900 	streq	r1, [r0], #-2304	; 0xfffff700
    8a78:	26050000 	strcs	r0, [r5], -r0
    8a7c:	00002501 	andeq	r2, r0, r1, lsl #10
    8a80:	8b190400 	blhi	649a88 <__bss_end__+0x63faf8>
    8a84:	05000006 	streq	r0, [r0, #-6]
    8a88:	063f0127 	ldrteq	r0, [pc], -r7, lsr #2
    8a8c:	00080000 	andeq	r0, r8, r0
    8a90:	06040406 	streq	r0, [r4], -r6, lsl #8
    8a94:	04060000 	streq	r0, [r6], #-0
    8a98:	000005f8 	strdeq	r0, [r0], -r8
    8a9c:	0000d11b 	andeq	sp, r0, fp, lsl r1
    8aa0:	3f050e00 	svccc	0x00050e00
    8aa4:	00067a01 	andeq	r7, r6, r1, lsl #20
    8aa8:	072e1900 	streq	r1, [lr, -r0, lsl #18]!
    8aac:	40050000 	andmi	r0, r5, r0
    8ab0:	00067a01 	andeq	r7, r6, r1, lsl #20
    8ab4:	d1190000 	tstle	r9, r0
    8ab8:	05000007 	streq	r0, [r0, #-7]
    8abc:	067a0141 	ldrbteq	r0, [sl], -r1, asr #2
    8ac0:	19060000 	stmdbne	r6, {}	; <UNPREDICTABLE>
    8ac4:	00000810 	andeq	r0, r0, r0, lsl r8
    8ac8:	5b014205 	blpl	592e4 <__bss_end__+0x4f354>
    8acc:	0c000000 	stceq	0, cr0, [r0], {-0}
    8ad0:	005b0b00 	subseq	r0, fp, r0, lsl #22
    8ad4:	068a0000 	streq	r0, [sl], r0
    8ad8:	2c0c0000 	stccs	0, cr0, [ip], {-0}
    8adc:	02000000 	andeq	r0, r0, #0
    8ae0:	05d01c00 	ldrbeq	r1, [r0, #3072]	; 0xc00
    8ae4:	078b0280 	streq	r0, [fp, r0, lsl #5]
    8ae8:	8a190000 	bhi	648af0 <__bss_end__+0x63eb60>
    8aec:	05000008 	streq	r0, [r0, #-8]
    8af0:	002c0282 	eoreq	r0, ip, r2, lsl #5
    8af4:	19000000 	stmdbne	r0, {}	; <UNPREDICTABLE>
    8af8:	000007d7 	ldrdeq	r0, [r0], -r7
    8afc:	10028305 	andne	r8, r2, r5, lsl #6
    8b00:	04000001 	streq	r0, [r0], #-1
    8b04:	00044519 	andeq	r4, r4, r9, lsl r5
    8b08:	02840500 	addeq	r0, r4, #0, 10
    8b0c:	0000078b 	andeq	r0, r0, fp, lsl #15
    8b10:	09411908 	stmdbeq	r1, {r3, r8, fp, ip}^
    8b14:	85050000 	strhi	r0, [r5, #-0]
    8b18:	00019602 	andeq	r9, r1, r2, lsl #12
    8b1c:	38192400 	ldmdacc	r9, {sl, sp}
    8b20:	05000003 	streq	r0, [r0, #-3]
    8b24:	00250286 	eoreq	r0, r5, r6, lsl #5
    8b28:	19480000 	stmdbne	r8, {}^	; <UNPREDICTABLE>
    8b2c:	000006c4 	andeq	r0, r0, r4, asr #13
    8b30:	69028705 	stmdbvs	r2, {r0, r2, r8, r9, sl, pc}
    8b34:	50000000 	andpl	r0, r0, r0
    8b38:	00095719 	andeq	r5, r9, r9, lsl r7
    8b3c:	02880500 	addeq	r0, r8, #0, 10
    8b40:	00000645 	andeq	r0, r0, r5, asr #12
    8b44:	06e51958 	usateq	r1, #5, r8, asr #18
    8b48:	89050000 	stmdbhi	r5, {}	; <UNPREDICTABLE>
    8b4c:	0000f802 	andeq	pc, r0, r2, lsl #16
    8b50:	65196800 	ldrvs	r6, [r9, #-2048]	; 0xfffff800
    8b54:	05000009 	streq	r0, [r0, #-9]
    8b58:	00f8028a 	rscseq	r0, r8, sl, lsl #5
    8b5c:	19700000 	ldmdbne	r0!, {}^	; <UNPREDICTABLE>
    8b60:	000001af 	andeq	r0, r0, pc, lsr #3
    8b64:	f8028b05 			; <UNDEFINED> instruction: 0xf8028b05
    8b68:	78000000 	stmdavc	r0, {}	; <UNPREDICTABLE>
    8b6c:	0008d819 	andeq	sp, r8, r9, lsl r8
    8b70:	028c0500 	addeq	r0, ip, #0, 10
    8b74:	0000079b 	muleq	r0, fp, r7
    8b78:	04391980 	ldrteq	r1, [r9], #-2432	; 0xfffff680
    8b7c:	8d050000 	stchi	0, cr0, [r5, #-0]
    8b80:	0007ab02 	andeq	sl, r7, r2, lsl #22
    8b84:	26198800 	ldrcs	r8, [r9], -r0, lsl #16
    8b88:	05000008 	streq	r0, [r0, #-8]
    8b8c:	0025028e 	eoreq	r0, r5, lr, lsl #5
    8b90:	19a00000 	stmibne	r0!, {}	; <UNPREDICTABLE>
    8b94:	000002dd 	ldrdeq	r0, [r0], -sp
    8b98:	f8028f05 			; <UNDEFINED> instruction: 0xf8028f05
    8b9c:	a4000000 	strge	r0, [r0], #-0
    8ba0:	00018b19 	andeq	r8, r1, r9, lsl fp
    8ba4:	02900500 	addseq	r0, r0, #0, 10
    8ba8:	000000f8 	strdeq	r0, [r0], -r8
    8bac:	02c319ac 	sbceq	r1, r3, #172, 18	; 0x2b0000
    8bb0:	91050000 	mrsls	r0, (UNDEF: 5)
    8bb4:	0000f802 	andeq	pc, r0, r2, lsl #16
    8bb8:	2d19b400 	cfldrscs	mvf11, [r9, #-0]
    8bbc:	05000001 	streq	r0, [r0, #-1]
    8bc0:	00f80292 	smlalseq	r0, r8, r2, r2
    8bc4:	19bc0000 	ldmibne	ip!, {}	; <UNPREDICTABLE>
    8bc8:	0000013c 	andeq	r0, r0, ip, lsr r1
    8bcc:	f8029305 			; <UNDEFINED> instruction: 0xf8029305
    8bd0:	c4000000 	strgt	r0, [r0], #-0
    8bd4:	00065a19 	andeq	r5, r6, r9, lsl sl
    8bd8:	02940500 	addseq	r0, r4, #0, 10
    8bdc:	00000025 	andeq	r0, r0, r5, lsr #32
    8be0:	160b00cc 	strne	r0, [fp], -ip, asr #1
    8be4:	9b000001 	blls	8bf0 <reverse+0x34>
    8be8:	0c000007 	stceq	0, cr0, [r0], {7}
    8bec:	0000002c 	andeq	r0, r0, ip, lsr #32
    8bf0:	160b0019 			; <UNDEFINED> instruction: 0x160b0019
    8bf4:	ab000001 	blge	8c00 <emit+0x4>
    8bf8:	0c000007 	stceq	0, cr0, [r0], {7}
    8bfc:	0000002c 	andeq	r0, r0, ip, lsr #32
    8c00:	160b0007 	strne	r0, [fp], -r7
    8c04:	bb000001 	bllt	8c10 <emit+0x14>
    8c08:	0c000007 	stceq	0, cr0, [r0], {7}
    8c0c:	0000002c 	andeq	r0, r0, ip, lsr #32
    8c10:	f01c0017 			; <UNDEFINED> instruction: 0xf01c0017
    8c14:	df029905 	svcle	0x00029905
    8c18:	19000007 	stmdbne	r0, {r0, r1, r2}
    8c1c:	00000551 	andeq	r0, r0, r1, asr r5
    8c20:	df029c05 	svcle	0x00029c05
    8c24:	00000007 	andeq	r0, r0, r7
    8c28:	0004f819 	andeq	pc, r4, r9, lsl r8	; <UNPREDICTABLE>
    8c2c:	029d0500 	addseq	r0, sp, #0, 10
    8c30:	000007ef 	andeq	r0, r0, pc, ror #15
    8c34:	df0b0078 	svcle	0x000b0078
    8c38:	ef000002 	svc	0x00000002
    8c3c:	0c000007 	stceq	0, cr0, [r0], {7}
    8c40:	0000002c 	andeq	r0, r0, ip, lsr #32
    8c44:	2c0b001d 	stccs	0, cr0, [fp], {29}
    8c48:	ff000000 			; <UNDEFINED> instruction: 0xff000000
    8c4c:	0c000007 	stceq	0, cr0, [r0], {7}
    8c50:	0000002c 	andeq	r0, r0, ip, lsr #32
    8c54:	f01d001d 			; <UNDEFINED> instruction: 0xf01d001d
    8c58:	21027e05 	tstcs	r2, r5, lsl #28
    8c5c:	1e000008 	cdpne	0, 0, cr0, cr0, cr8, {0}
    8c60:	0000071e 	andeq	r0, r0, lr, lsl r7
    8c64:	8a029505 	bhi	ae080 <__bss_end__+0xa40f0>
    8c68:	1e000006 	cdpne	0, 0, cr0, cr0, cr6, {0}
    8c6c:	00000917 	andeq	r0, r0, r7, lsl r9
    8c70:	bb029e05 	bllt	b048c <__bss_end__+0xa64fc>
    8c74:	00000007 	andeq	r0, r0, r7
    8c78:	0001160b 	andeq	r1, r1, fp, lsl #12
    8c7c:	00083100 	andeq	r3, r8, r0, lsl #2
    8c80:	002c0c00 	eoreq	r0, ip, r0, lsl #24
    8c84:	00180000 	andseq	r0, r8, r0
    8c88:	000f3307 	andeq	r3, pc, r7, lsl #6
    8c8c:	31040600 	tstcc	r4, r0, lsl #12
    8c90:	1f000008 	svcne	0x00000008
    8c94:	00000847 	andeq	r0, r0, r7, asr #16
    8c98:	00042d17 	andeq	r2, r4, r7, lsl sp
    8c9c:	04060000 	streq	r0, [r6], #-0
    8ca0:	0000083c 	andeq	r0, r0, ip, lsr r8
    8ca4:	01800406 	orreq	r0, r0, r6, lsl #8
    8ca8:	5e1f0000 	cdppl	0, 1, cr0, cr15, cr0, {0}
    8cac:	17000008 	strne	r0, [r0, -r8]
    8cb0:	00000025 	andeq	r0, r0, r5, lsr #32
    8cb4:	64040600 	strvs	r0, [r4], #-1536	; 0xfffffa00
    8cb8:	06000008 	streq	r0, [r0], -r8
    8cbc:	00085304 	andeq	r5, r8, r4, lsl #6
    8cc0:	05f80b00 	ldrbeq	r0, [r8, #2816]!	; 0xb00
    8cc4:	087a0000 	ldmdaeq	sl!, {}^	; <UNPREDICTABLE>
    8cc8:	2c0c0000 	stccs	0, cr0, [ip], {-0}
    8ccc:	02000000 	andeq	r0, r0, #0
    8cd0:	08502000 	ldmdaeq	r0, {sp}^
    8cd4:	2e050000 	cdpcs	0, 0, cr0, cr5, cr0, {0}
    8cd8:	00042d03 	andeq	r2, r4, r3, lsl #26
    8cdc:	08492000 	stmdaeq	r9, {sp}^
    8ce0:	2f050000 	svccs	0x00050000
    8ce4:	00043303 	andeq	r3, r4, r3, lsl #6
    8ce8:	00251600 	eoreq	r1, r5, r0, lsl #12
    8cec:	08a10000 	stmiaeq	r1!, {}	; <UNPREDICTABLE>
    8cf0:	25170000 	ldrcs	r0, [r7, #-0]
    8cf4:	00000000 	andeq	r0, r0, r0
    8cf8:	00036721 	andeq	r6, r3, r1, lsr #14
    8cfc:	ac1d0600 	ldcge	6, cr0, [sp], {-0}
    8d00:	06000008 	streq	r0, [r0], -r8
    8d04:	00089204 	andeq	r9, r8, r4, lsl #4
    8d08:	00251600 	eoreq	r1, r5, r0, lsl #12
    8d0c:	08c10000 	stmiaeq	r1, {}^	; <UNPREDICTABLE>
    8d10:	8e170000 	cdphi	0, 1, cr0, cr7, cr0, {0}
    8d14:	00000005 	andeq	r0, r0, r5
    8d18:	000d0521 	andeq	r0, sp, r1, lsr #10
    8d1c:	cc220600 	stcgt	6, cr0, [r2], #-0
    8d20:	06000008 	streq	r0, [r0], -r8
    8d24:	0008b204 	andeq	fp, r8, r4, lsl #4
    8d28:	01072200 	mrseq	r2, (UNDEF: 39)
    8d2c:	00000054 	andeq	r0, r0, r4, asr r0
    8d30:	09100c08 	ldmdbeq	r0, {r3, sl, fp}
    8d34:	f4230000 	vld4.8	{d0-d3}, [r3], r0
    8d38:	00000009 	andeq	r0, r0, r9
    8d3c:	000b7123 	andeq	r7, fp, r3, lsr #2
    8d40:	9f230100 	svcls	0x00230100
    8d44:	0400000b 	streq	r0, [r0], #-11
    8d48:	000a1723 	andeq	r1, sl, r3, lsr #14
    8d4c:	d2230500 	eorle	r0, r3, #0, 10
    8d50:	0600000a 	streq	r0, [r0], -sl
    8d54:	000bae23 	andeq	sl, fp, r3, lsr #28
    8d58:	bd230700 	stclt	7, cr0, [r3, #-0]
    8d5c:	0300000b 	movweq	r0, #11
    8d60:	000bcc23 	andeq	ip, fp, r3, lsr #24
    8d64:	11000200 	mrsne	r0, R8_usr
    8d68:	00000f4f 	andeq	r0, r0, pc, asr #30
    8d6c:	a006072c 	andge	r0, r6, ip, lsr #14
    8d70:	12000009 	andne	r0, r0, #9
    8d74:	07006f69 	streq	r6, [r0, -r9, ror #30]
    8d78:	00003309 	andeq	r3, r0, r9, lsl #6
    8d7c:	69120000 	ldmdbvs	r2, {}	; <UNPREDICTABLE>
    8d80:	07007265 	streq	r7, [r0, -r5, ror #4]
    8d84:	0000330a 	andeq	r3, r0, sl, lsl #6
    8d88:	69120400 	ldmdbvs	r2, {sl}
    8d8c:	07007269 	streq	r7, [r0, -r9, ror #4]
    8d90:	00003311 	andeq	r3, r0, r1, lsl r3
    8d94:	6c120800 	ldcvs	8, cr0, [r2], {-0}
    8d98:	07007263 	streq	r7, [r0, -r3, ror #4]
    8d9c:	00003313 	andeq	r3, r0, r3, lsl r3
    8da0:	6d120c00 	ldcvs	12, cr0, [r2, #-0]
    8da4:	07007263 	streq	r7, [r0, -r3, ror #4]
    8da8:	00003314 	andeq	r3, r0, r4, lsl r3
    8dac:	6c121000 	ldcvs	0, cr1, [r2], {-0}
    8db0:	07007273 	smlsdxeq	r0, r3, r2, r7
    8db4:	00003315 	andeq	r3, r0, r5, lsl r3
    8db8:	6d121400 	cfldrsvs	mvf1, [r2, #-0]
    8dbc:	07007273 	smlsdxeq	r0, r3, r2, r7
    8dc0:	00003316 	andeq	r3, r0, r6, lsl r3
    8dc4:	700e1800 	andvc	r1, lr, r0, lsl #16
    8dc8:	07000010 	smladeq	r0, r0, r0, r0
    8dcc:	00003317 	andeq	r3, r0, r7, lsl r3
    8dd0:	430e1c00 	movwmi	r1, #60416	; 0xec00
    8dd4:	0700000f 	streq	r0, [r0, -pc]
    8dd8:	0000331b 	andeq	r3, r0, fp, lsl r3
    8ddc:	3e0e2000 	cdpcc	0, 0, cr2, cr14, cr0, {0}
    8de0:	0700000f 	streq	r0, [r0, -pc]
    8de4:	0000331d 	andeq	r3, r0, sp, lsl r3
    8de8:	010e2400 	tsteq	lr, r0, lsl #8
    8dec:	0700000e 	streq	r0, [r0, -lr]
    8df0:	0000331e 	andeq	r3, r0, lr, lsl r3
    8df4:	24002800 	strcs	r2, [r0], #-2048	; 0xfffff800
    8df8:	00000f5b 	andeq	r0, r0, fp, asr pc
    8dfc:	09b50801 	ldmibeq	r5!, {r0, fp}
    8e00:	50040000 	andpl	r0, r4, r0
    8e04:	04062021 	streq	r2, [r6], #-33	; 0xffffffdf
    8e08:	00000033 	andeq	r0, r0, r3, lsr r0
    8e0c:	0009af10 	andeq	sl, r9, r0, lsl pc
    8e10:	0da52400 	cfstrseq	mvf2, [r5]
    8e14:	29010000 	stmdbcs	r1, {}	; <UNPREDICTABLE>
    8e18:	000009cf 	andeq	r0, r0, pc, asr #19
    8e1c:	20215040 	eorcs	r5, r1, r0, asr #32
    8e20:	09100406 	ldmdbeq	r0, {r1, r2, sl}
    8e24:	c9100000 	ldmdbgt	r0, {}	; <UNPREDICTABLE>
    8e28:	25000009 	strcs	r0, [r0, #-9]
    8e2c:	0000108e 	andeq	r1, r0, lr, lsl #1
    8e30:	0025a301 	eoreq	sl, r5, r1, lsl #6
    8e34:	94700000 	ldrbtls	r0, [r0], #-0
    8e38:	000c0000 	andeq	r0, ip, r0
    8e3c:	9c010000 	stcls	0, cr0, [r1], {-0}
    8e40:	000009f7 	strdeq	r0, [r0], -r7
    8e44:	00947826 	addseq	r7, r4, r6, lsr #16
    8e48:	000aa200 	andeq	sl, sl, r0, lsl #4
    8e4c:	23270000 			; <UNDEFINED> instruction: 0x23270000
    8e50:	0100000d 	tsteq	r0, sp
    8e54:	0094489d 	umullseq	r4, r4, sp, r8	; <UNPREDICTABLE>
    8e58:	00002800 	andeq	r2, r0, r0, lsl #16
    8e5c:	3f9c0100 	svccc	0x009c0100
    8e60:	2800000a 	stmdacs	r0, {r1, r3}
    8e64:	9d010063 	stcls	0, cr0, [r1, #-396]	; 0xfffffe74
    8e68:	0000002c 	andeq	r0, r0, ip, lsr #32
    8e6c:	00000f19 	andeq	r0, r0, r9, lsl pc
    8e70:	00945426 	addseq	r5, r4, r6, lsr #8
    8e74:	000a7500 	andeq	r7, sl, r0, lsl #10
    8e78:	94682900 	strbtls	r2, [r8], #-2304	; 0xfffff700
    8e7c:	0c6c0000 	stcleq	0, cr0, [ip], #-0
    8e80:	012a0000 			; <UNDEFINED> instruction: 0x012a0000
    8e84:	400c0550 	andmi	r0, ip, r0, asr r5
    8e88:	2a202150 	bcs	8113d0 <__bss_end__+0x807440>
    8e8c:	74055101 	strvc	r5, [r5], #-257	; 0xfffffeff
    8e90:	1aff0800 	bne	fffcae98 <__bss_end__+0xfffc0f08>
    8e94:	75250000 	strvc	r0, [r5, #-0]!
    8e98:	0100000f 	tsteq	r0, pc
    8e9c:	00002598 	muleq	r0, r8, r5
    8ea0:	00942400 	addseq	r2, r4, r0, lsl #8
    8ea4:	00002400 	andeq	r2, r0, r0, lsl #8
    8ea8:	759c0100 	ldrvc	r0, [ip, #256]	; 0x100
    8eac:	2600000a 	strcs	r0, [r0], -sl
    8eb0:	0000942c 	andeq	r9, r0, ip, lsr #8
    8eb4:	00000aa2 	andeq	r0, r0, r2, lsr #21
    8eb8:	00943c29 	addseq	r3, r4, r9, lsr #24
    8ebc:	000c7700 	andeq	r7, ip, r0, lsl #14
    8ec0:	50012a00 	andpl	r2, r1, r0, lsl #20
    8ec4:	50400c05 	subpl	r0, r0, r5, lsl #24
    8ec8:	00002021 	andeq	r2, r0, r1, lsr #32
    8ecc:	000f6725 	andeq	r6, pc, r5, lsr #14
    8ed0:	25890100 	strcs	r0, [r9, #256]	; 0x100
    8ed4:	04000000 	streq	r0, [r0], #-0
    8ed8:	20000094 	mulcs	r0, r4, r0
    8edc:	01000000 	mrseq	r0, (UNDEF: 0)
    8ee0:	000aa29c 	muleq	sl, ip, r2
    8ee4:	94102900 	ldrls	r2, [r0], #-2304	; 0xfffff700
    8ee8:	0c770000 	ldcleq	0, cr0, [r7], #-0
    8eec:	012a0000 			; <UNDEFINED> instruction: 0x012a0000
    8ef0:	640c0550 	strvs	r0, [ip], #-1360	; 0xfffffab0
    8ef4:	00202150 	eoreq	r2, r0, r0, asr r1
    8ef8:	10782500 	rsbsne	r2, r8, r0, lsl #10
    8efc:	80010000 	andhi	r0, r1, r0
    8f00:	00000025 	andeq	r0, r0, r5, lsr #32
    8f04:	000093ec 	andeq	r9, r0, ip, ror #7
    8f08:	00000018 	andeq	r0, r0, r8, lsl r0
    8f0c:	0acf9c01 	beq	ff3eff18 <__bss_end__+0xff3e5f88>
    8f10:	f8290000 			; <UNDEFINED> instruction: 0xf8290000
    8f14:	77000093 			; <UNDEFINED> instruction: 0x77000093
    8f18:	2a00000c 	bcs	8f50 <va_printk+0x164>
    8f1c:	0c055001 	stceq	0, cr5, [r5], {1}
    8f20:	20215064 	eorcs	r5, r1, r4, rrx
    8f24:	17270000 	strne	r0, [r7, -r0]!
    8f28:	01000001 	tsteq	r0, r1
    8f2c:	00933c3b 	addseq	r3, r3, fp, lsr ip
    8f30:	0000b000 	andeq	fp, r0, r0
    8f34:	0d9c0100 	ldfeqs	f0, [ip]
    8f38:	2b00000c 	blcs	8f70 <va_printk+0x184>
    8f3c:	0000934c 	andeq	r9, r0, ip, asr #6
    8f40:	00000c82 	andeq	r0, r0, r2, lsl #25
    8f44:	00000afc 	strdeq	r0, [r0], -ip
    8f48:	0150012a 	cmpeq	r0, sl, lsr #2
    8f4c:	51012a3e 	tstpl	r1, lr, lsr sl
    8f50:	2b003201 	blcs	1575c <__bss_end__+0xb7cc>
    8f54:	00009358 	andeq	r9, r0, r8, asr r3
    8f58:	00000c82 	andeq	r0, r0, r2, lsl #25
    8f5c:	00000b14 	andeq	r0, r0, r4, lsl fp
    8f60:	0150012a 	cmpeq	r0, sl, lsr #2
    8f64:	51012a3f 	tstpl	r1, pc, lsr sl
    8f68:	26003201 	strcs	r3, [r0], -r1, lsl #4
    8f6c:	0000935c 	andeq	r9, r0, ip, asr r3
    8f70:	00000c8d 	andeq	r0, r0, sp, lsl #25
    8f74:	0093682b 	addseq	r6, r3, fp, lsr #16
    8f78:	000c0d00 	andeq	r0, ip, r0, lsl #26
    8f7c:	000b3900 	andeq	r3, fp, r0, lsl #18
    8f80:	50012a00 	andpl	r2, r1, r0, lsl #20
    8f84:	50040c05 	andpl	r0, r4, r5, lsl #24
    8f88:	012a2021 			; <UNDEFINED> instruction: 0x012a2021
    8f8c:	00310151 	eorseq	r0, r1, r1, asr r1
    8f90:	00936c26 	addseq	r6, r3, r6, lsr #24
    8f94:	000c8d00 	andeq	r8, ip, r0, lsl #26
    8f98:	937c2b00 	cmnls	ip, #0, 22
    8f9c:	0c6c0000 	stcleq	0, cr0, [ip], #-0
    8fa0:	0b5b0000 	bleq	16c8fa8 <__bss_end__+0x16bf018>
    8fa4:	012a0000 			; <UNDEFINED> instruction: 0x012a0000
    8fa8:	00740250 	rsbseq	r0, r4, r0, asr r2
    8fac:	0151012a 	cmpeq	r1, sl, lsr #2
    8fb0:	882b0030 	stmdahi	fp!, {r4, r5}
    8fb4:	6c000093 	stcvs	0, cr0, [r0], {147}	; 0x93
    8fb8:	7700000c 	strvc	r0, [r0, -ip]
    8fbc:	2a00000b 	bcs	8ff0 <va_printk+0x204>
    8fc0:	0c055001 	stceq	0, cr5, [r5], {1}
    8fc4:	20215044 	eorcs	r5, r1, r4, asr #32
    8fc8:	0151012a 	cmpeq	r1, sl, lsr #2
    8fcc:	942b0030 	strtls	r0, [fp], #-48	; 0xffffffd0
    8fd0:	6c000093 	stcvs	0, cr0, [r0], {147}	; 0x93
    8fd4:	9300000c 	movwls	r0, #12
    8fd8:	2a00000b 	bcs	900c <va_printk+0x220>
    8fdc:	0c055001 	stceq	0, cr5, [r5], {1}
    8fe0:	2021504c 	eorcs	r5, r1, ip, asr #32
    8fe4:	0151012a 	cmpeq	r1, sl, lsr #2
    8fe8:	a02b0033 	eorge	r0, fp, r3, lsr r0
    8fec:	6c000093 	stcvs	0, cr0, [r0], {147}	; 0x93
    8ff0:	af00000c 	svcge	0x0000000c
    8ff4:	2a00000b 	bcs	9028 <va_printk+0x23c>
    8ff8:	0c055001 	stceq	0, cr5, [r5], {1}
    8ffc:	20215050 	eorcs	r5, r1, r0, asr r0
    9000:	0151012a 	cmpeq	r1, sl, lsr #2
    9004:	ac2b0030 	stcge	0, cr0, [fp], #-192	; 0xffffff40
    9008:	6c000093 	stcvs	0, cr0, [r0], {147}	; 0x93
    900c:	cc00000c 	stcgt	0, cr0, [r0], {12}
    9010:	2a00000b 	bcs	9044 <va_printk+0x258>
    9014:	0c055001 	stceq	0, cr5, [r5], {1}
    9018:	20215048 	eorcs	r5, r1, r8, asr #32
    901c:	0251012a 	subseq	r0, r1, #-2147483638	; 0x8000000a
    9020:	2b00c708 	blcs	3ac48 <__bss_end__+0x30cb8>
    9024:	000093b8 			; <UNDEFINED> instruction: 0x000093b8
    9028:	00000c6c 	andeq	r0, r0, ip, ror #24
    902c:	00000bea 	andeq	r0, r0, sl, ror #23
    9030:	0550012a 	ldrbeq	r0, [r0, #-298]	; 0xfffffed6
    9034:	2150680c 	cmpcs	r0, ip, lsl #16
    9038:	51012a20 	tstpl	r1, r0, lsr #20
    903c:	010e0a03 	tsteq	lr, r3, lsl #20
    9040:	93c42b00 	bicls	r2, r4, #0, 22
    9044:	0c6c0000 	stcleq	0, cr0, [ip], #-0
    9048:	0c030000 	stceq	0, cr0, [r3], {-0}
    904c:	012a0000 			; <UNDEFINED> instruction: 0x012a0000
    9050:	00740250 	rsbseq	r0, r4, r0, asr r2
    9054:	0151012a 	cmpeq	r1, sl, lsr #2
    9058:	c8260033 	stmdagt	r6!, {r0, r1, r4, r5}
    905c:	8d000093 	stchi	0, cr0, [r0, #-588]	; 0xfffffdb4
    9060:	0000000c 	andeq	r0, r0, ip
    9064:	0010862c 	andseq	r8, r0, ip, lsr #12
    9068:	1c2e0100 	stfnes	f0, [lr], #-0
    906c:	20000093 	mulcs	r0, r3, r0
    9070:	01000000 	mrseq	r0, (UNDEF: 0)
    9074:	000c659c 	muleq	ip, ip, r5
    9078:	08442d00 	stmdaeq	r4, {r8, sl, fp, sp}^
    907c:	2e010000 	cdpcs	0, 0, cr0, cr1, cr0, {0}
    9080:	00000c65 	andeq	r0, r0, r5, ror #24
    9084:	00000f37 	andeq	r0, r0, r7, lsr pc
    9088:	6c617628 	stclvs	6, cr7, [r1], #-160	; 0xffffff60
    908c:	2c2e0100 	stfcss	f0, [lr], #-0
    9090:	55000000 	strpl	r0, [r0, #-0]
    9094:	2b00000f 	blcs	90d8 <internal_putk+0x2c>
    9098:	0000932c 	andeq	r9, r0, ip, lsr #6
    909c:	00000c77 	andeq	r0, r0, r7, ror ip
    90a0:	00000c54 	andeq	r0, r0, r4, asr ip
    90a4:	0250012a 	subseq	r0, r0, #-2147483638	; 0x8000000a
    90a8:	29000074 	stmdbcs	r0, {r2, r4, r5, r6}
    90ac:	00009338 	andeq	r9, r0, r8, lsr r3
    90b0:	00000c6c 	andeq	r0, r0, ip, ror #24
    90b4:	0250012a 	subseq	r0, r0, #-2147483638	; 0x8000000a
    90b8:	00000074 	andeq	r0, r0, r4, ror r0
    90bc:	0c6b0406 	cfstrdeq	mvd0, [fp], #-24	; 0xffffffe8
    90c0:	2f2e0000 	svccs	0x002e0000
    90c4:	00000b29 	andeq	r0, r0, r9, lsr #22
    90c8:	00000b29 	andeq	r0, r0, r9, lsr #22
    90cc:	822f9c06 	eorhi	r9, pc, #1536	; 0x600
    90d0:	8200000b 	andhi	r0, r0, #11
    90d4:	0600000b 	streq	r0, [r0], -fp
    90d8:	0a462fa8 	beq	1194f80 <__bss_end__+0x118aff0>
    90dc:	0a460000 	beq	11890e4 <__bss_end__+0x117f154>
    90e0:	19080000 	stmdbne	r8, {}	; <UNPREDICTABLE>
    90e4:	0004522f 	andeq	r5, r4, pc, lsr #4
    90e8:	00045200 	andeq	r5, r4, r0, lsl #4
    90ec:	00890600 	addeq	r0, r9, r0, lsl #12
    90f0:	00000b9a 	muleq	r0, sl, fp
    90f4:	1aae0004 	bne	feb8910c <__bss_end__+0xfeb7f17c>
    90f8:	01040000 	mrseq	r0, (UNDEF: 4)
    90fc:	00000f87 	andeq	r0, r0, r7, lsl #31
    9100:	0010ae0c 	andseq	sl, r0, ip, lsl #28
    9104:	00101b00 	andseq	r1, r0, r0, lsl #22
    9108:	00947c00 	addseq	r7, r4, r0, lsl #24
    910c:	00012000 	andeq	r2, r1, r0
    9110:	000db100 	andeq	fp, sp, r0, lsl #2
    9114:	05040200 	streq	r0, [r4, #-512]	; 0xfffffe00
    9118:	00746e69 	rsbseq	r6, r4, r9, ror #28
    911c:	57070403 	strpl	r0, [r7, -r3, lsl #8]
    9120:	04000001 	streq	r0, [r0], #-1
    9124:	0000002c 	andeq	r0, r0, ip, lsr #32
    9128:	00002c05 	andeq	r2, r0, r5, lsl #24
    912c:	06010300 	streq	r0, [r1], -r0, lsl #6
    9130:	00000618 	andeq	r0, r0, r8, lsl r6
    9134:	63050203 	movwvs	r0, #20995	; 0x5203
    9138:	03000006 	movweq	r0, #6
    913c:	01cb0504 	biceq	r0, fp, r4, lsl #10
    9140:	08030000 	stmdaeq	r3, {}	; <UNPREDICTABLE>
    9144:	0001c605 	andeq	ip, r1, r5, lsl #12
    9148:	08010300 	stmdaeq	r1, {r8, r9}
    914c:	00000616 	andeq	r0, r0, r6, lsl r6
    9150:	1d070203 	sfmne	f0, 4, [r7, #-12]
    9154:	03000004 	movweq	r0, #4
    9158:	01520704 	cmpeq	r2, r4, lsl #14
    915c:	08030000 	stmdaeq	r3, {}	; <UNPREDICTABLE>
    9160:	00014d07 	andeq	r4, r1, r7, lsl #26
    9164:	0f7f0600 	svceq	0x007f0600
    9168:	22020000 	andcs	r0, r2, #0
    916c:	00000080 	andeq	r0, r0, r0, lsl #1
    9170:	00860407 	addeq	r0, r6, r7, lsl #8
    9174:	69080000 	stmdbvs	r8, {}	; <UNPREDICTABLE>
    9178:	06000010 			; <UNDEFINED> instruction: 0x06000010
    917c:	0000059d 	muleq	r0, sp, r5
    9180:	004b2c03 	subeq	r2, fp, r3, lsl #24
    9184:	61060000 	mrsvs	r0, (UNDEF: 6)
    9188:	03000007 	movweq	r0, #7
    918c:	00004b72 	andeq	r4, r0, r2, ror fp
    9190:	04810900 	streq	r0, [r1], #2304	; 0x900
    9194:	65040000 	strvs	r0, [r4, #-0]
    9198:	00002c01 	andeq	r2, r0, r1, lsl #24
    919c:	03040a00 	movweq	r0, #18944	; 0x4a00
    91a0:	0000cca6 	andeq	ip, r0, r6, lsr #25
    91a4:	046e0b00 	strbteq	r0, [lr], #-2816	; 0xfffff500
    91a8:	a8030000 	stmdage	r3, {}	; <UNPREDICTABLE>
    91ac:	000000a1 	andeq	r0, r0, r1, lsr #1
    91b0:	0003810b 	andeq	r8, r3, fp, lsl #2
    91b4:	cca90300 	stcgt	3, cr0, [r9]
    91b8:	00000000 	andeq	r0, r0, r0
    91bc:	0000590c 	andeq	r5, r0, ip, lsl #18
    91c0:	0000dc00 	andeq	sp, r0, r0, lsl #24
    91c4:	002c0d00 	eoreq	r0, ip, r0, lsl #26
    91c8:	00030000 	andeq	r0, r3, r0
    91cc:	a303080e 	movwge	r0, #14350	; 0x380e
    91d0:	000000fd 	strdeq	r0, [r0], -sp
    91d4:	00073d0f 	andeq	r3, r7, pc, lsl #26
    91d8:	25a50300 	strcs	r0, [r5, #768]!	; 0x300
    91dc:	00000000 	andeq	r0, r0, r0
    91e0:	0007e40f 	andeq	lr, r7, pc, lsl #8
    91e4:	adaa0300 	stcge	3, cr0, [sl]
    91e8:	04000000 	streq	r0, [r0], #-0
    91ec:	06980600 	ldreq	r0, [r8], r0, lsl #12
    91f0:	ab030000 	blge	c91f8 <__bss_end__+0xbf268>
    91f4:	000000dc 	ldrdeq	r0, [r0], -ip
    91f8:	00031f06 	andeq	r1, r3, r6, lsl #30
    91fc:	75af0300 	strvc	r0, [pc, #768]!	; 9504 <gpio_set_on+0x10>
    9200:	10000000 	andne	r0, r0, r0
    9204:	1b040704 	blne	10ae1c <__bss_end__+0x100e8c>
    9208:	03000001 	movweq	r0, #1
    920c:	061f0801 	ldreq	r0, [pc], -r1, lsl #16
    9210:	1b050000 	blne	149218 <__bss_end__+0x13f288>
    9214:	06000001 	streq	r0, [r0], -r1
    9218:	0000081e 	andeq	r0, r0, lr, lsl r8
    921c:	00671605 	rsbeq	r1, r7, r5, lsl #12
    9220:	30110000 	andscc	r0, r1, r0
    9224:	18000003 	stmdane	r0, {r0, r1}
    9228:	01852f05 	orreq	r2, r5, r5, lsl #30
    922c:	c90f0000 	stmdbgt	pc, {}	; <UNPREDICTABLE>
    9230:	05000006 	streq	r0, [r0, #-6]
    9234:	00018531 	andeq	r8, r1, r1, lsr r5
    9238:	5f120000 	svcpl	0x00120000
    923c:	3205006b 	andcc	r0, r5, #107	; 0x6b
    9240:	00000025 	andeq	r0, r0, r5, lsr #32
    9244:	07160f04 	ldreq	r0, [r6, -r4, lsl #30]
    9248:	32050000 	andcc	r0, r5, #0
    924c:	00000025 	andeq	r0, r0, r5, lsr #32
    9250:	03190f08 	tsteq	r9, #8, 30
    9254:	32050000 	andcc	r0, r5, #0
    9258:	00000025 	andeq	r0, r0, r5, lsr #32
    925c:	08b20f0c 	ldmeq	r2!, {r2, r3, r8, r9, sl, fp}
    9260:	32050000 	andcc	r0, r5, #0
    9264:	00000025 	andeq	r0, r0, r5, lsr #32
    9268:	785f1210 	ldmdavc	pc, {r4, r9, ip}^	; <UNPREDICTABLE>
    926c:	8b330500 	blhi	cca674 <__bss_end__+0xcc06e4>
    9270:	14000001 	strne	r0, [r0], #-1
    9274:	32040700 	andcc	r0, r4, #0, 14
    9278:	0c000001 	stceq	0, cr0, [r0], {1}
    927c:	00000127 	andeq	r0, r0, r7, lsr #2
    9280:	0000019b 	muleq	r0, fp, r1
    9284:	00002c0d 	andeq	r2, r0, sp, lsl #24
    9288:	11000000 	mrsne	r0, (UNDEF: 0)
    928c:	00000373 	andeq	r0, r0, r3, ror r3
    9290:	14370524 	ldrtne	r0, [r7], #-1316	; 0xfffffadc
    9294:	0f000002 	svceq	0x00000002
    9298:	000001bd 			; <UNDEFINED> instruction: 0x000001bd
    929c:	00253905 	eoreq	r3, r5, r5, lsl #18
    92a0:	0f000000 	svceq	0x00000000
    92a4:	00000789 	andeq	r0, r0, r9, lsl #15
    92a8:	00253a05 	eoreq	r3, r5, r5, lsl #20
    92ac:	0f040000 	svceq	0x00040000
    92b0:	00000207 	andeq	r0, r0, r7, lsl #4
    92b4:	00253b05 	eoreq	r3, r5, r5, lsl #22
    92b8:	0f080000 	svceq	0x00080000
    92bc:	000009bc 			; <UNDEFINED> instruction: 0x000009bc
    92c0:	00253c05 	eoreq	r3, r5, r5, lsl #24
    92c4:	0f0c0000 	svceq	0x000c0000
    92c8:	00000562 	andeq	r0, r0, r2, ror #10
    92cc:	00253d05 	eoreq	r3, r5, r5, lsl #26
    92d0:	0f100000 	svceq	0x00100000
    92d4:	000004d0 	ldrdeq	r0, [r0], -r0	; <UNPREDICTABLE>
    92d8:	00253e05 	eoreq	r3, r5, r5, lsl #28
    92dc:	0f140000 	svceq	0x00140000
    92e0:	000008b7 			; <UNDEFINED> instruction: 0x000008b7
    92e4:	00253f05 	eoreq	r3, r5, r5, lsl #30
    92e8:	0f180000 	svceq	0x00180000
    92ec:	0000066d 	andeq	r0, r0, sp, ror #12
    92f0:	00254005 	eoreq	r4, r5, r5
    92f4:	0f1c0000 	svceq	0x001c0000
    92f8:	00000936 	andeq	r0, r0, r6, lsr r9
    92fc:	00254105 	eoreq	r4, r5, r5, lsl #2
    9300:	00200000 	eoreq	r0, r0, r0
    9304:	00021613 	andeq	r1, r2, r3, lsl r6
    9308:	05010800 	streq	r0, [r1, #-2048]	; 0xfffff800
    930c:	0002544a 	andeq	r5, r2, sl, asr #8
    9310:	02eb0f00 	rsceq	r0, fp, #0, 30
    9314:	4b050000 	blmi	14931c <__bss_end__+0x13f38c>
    9318:	00000254 	andeq	r0, r0, r4, asr r2
    931c:	00000f00 	andeq	r0, r0, r0, lsl #30
    9320:	4c050000 	stcmi	0, cr0, [r5], {-0}
    9324:	00000254 	andeq	r0, r0, r4, asr r2
    9328:	07ab1480 	streq	r1, [fp, r0, lsl #9]!
    932c:	4e050000 	cdpmi	0, 0, cr0, cr5, cr0, {0}
    9330:	00000127 	andeq	r0, r0, r7, lsr #2
    9334:	60140100 	andsvs	r0, r4, r0, lsl #2
    9338:	05000002 	streq	r0, [r0, #-2]
    933c:	00012751 	andeq	r2, r1, r1, asr r7
    9340:	00010400 	andeq	r0, r1, r0, lsl #8
    9344:	0001130c 	andeq	r1, r1, ip, lsl #6
    9348:	00026400 	andeq	r6, r2, r0, lsl #8
    934c:	002c0d00 	eoreq	r0, ip, r0, lsl #26
    9350:	001f0000 	andseq	r0, pc, r0
    9354:	00057c13 	andeq	r7, r5, r3, lsl ip
    9358:	05019000 	streq	r9, [r1, #-0]
    935c:	0002a25d 	andeq	sl, r2, sp, asr r2
    9360:	06c90f00 	strbeq	r0, [r9], r0, lsl #30
    9364:	5e050000 	cdppl	0, 0, cr0, cr5, cr0, {0}
    9368:	000002a2 	andeq	r0, r0, r2, lsr #5
    936c:	06f70f00 	ldrbteq	r0, [r7], r0, lsl #30
    9370:	5f050000 	svcpl	0x00050000
    9374:	00000025 	andeq	r0, r0, r5, lsr #32
    9378:	03140f04 	tsteq	r4, #4, 30
    937c:	61050000 	mrsvs	r0, (UNDEF: 5)
    9380:	000002a8 	andeq	r0, r0, r8, lsr #5
    9384:	02160f08 	andseq	r0, r6, #8, 30
    9388:	62050000 	andvs	r0, r5, #0
    938c:	00000214 	andeq	r0, r0, r4, lsl r2
    9390:	04070088 	streq	r0, [r7], #-136	; 0xffffff78
    9394:	00000264 	andeq	r0, r0, r4, ror #4
    9398:	0002b80c 	andeq	fp, r2, ip, lsl #16
    939c:	0002b800 	andeq	fp, r2, r0, lsl #16
    93a0:	002c0d00 	eoreq	r0, ip, r0, lsl #26
    93a4:	001f0000 	andseq	r0, pc, r0
    93a8:	02be0407 	adcseq	r0, lr, #117440512	; 0x7000000
    93ac:	11150000 	tstne	r5, r0
    93b0:	00000677 	andeq	r0, r0, r7, ror r6
    93b4:	e4750508 	ldrbt	r0, [r5], #-1288	; 0xfffffaf8
    93b8:	0f000002 	svceq	0x00000002
    93bc:	00000201 	andeq	r0, r0, r1, lsl #4
    93c0:	02e47605 	rsceq	r7, r4, #5242880	; 0x500000
    93c4:	0f000000 	svceq	0x00000000
    93c8:	000000a6 	andeq	r0, r0, r6, lsr #1
    93cc:	00257705 	eoreq	r7, r5, r5, lsl #14
    93d0:	00040000 	andeq	r0, r4, r0
    93d4:	00590407 	subseq	r0, r9, r7, lsl #8
    93d8:	a3110000 	tstge	r1, #0
    93dc:	68000006 	stmdavs	r0, {r1, r2}
    93e0:	0414b505 	ldreq	fp, [r4], #-1285	; 0xfffffafb
    93e4:	5f120000 	svcpl	0x00120000
    93e8:	b6050070 			; <UNDEFINED> instruction: 0xb6050070
    93ec:	000002e4 	andeq	r0, r0, r4, ror #5
    93f0:	725f1200 	subsvc	r1, pc, #0, 4
    93f4:	25b70500 	ldrcs	r0, [r7, #1280]!	; 0x500
    93f8:	04000000 	streq	r0, [r0], #-0
    93fc:	00775f12 	rsbseq	r5, r7, r2, lsl pc
    9400:	0025b805 	eoreq	fp, r5, r5, lsl #16
    9404:	0f080000 	svceq	0x00080000
    9408:	00000259 	andeq	r0, r0, r9, asr r2
    940c:	0044b905 	subeq	fp, r4, r5, lsl #18
    9410:	0f0c0000 	svceq	0x000c0000
    9414:	000003b2 			; <UNDEFINED> instruction: 0x000003b2
    9418:	0044ba05 	subeq	fp, r4, r5, lsl #20
    941c:	120e0000 	andne	r0, lr, #0
    9420:	0066625f 	rsbeq	r6, r6, pc, asr r2
    9424:	02bfbb05 	adcseq	fp, pc, #5120	; 0x1400
    9428:	0f100000 	svceq	0x00100000
    942c:	0000016d 	andeq	r0, r0, sp, ror #2
    9430:	0025bc05 	eoreq	fp, r5, r5, lsl #24
    9434:	0f180000 	svceq	0x00180000
    9438:	00000224 	andeq	r0, r0, r4, lsr #4
    943c:	0113c305 	tsteq	r3, r5, lsl #6
    9440:	0f1c0000 	svceq	0x001c0000
    9444:	0000089a 	muleq	r0, sl, r8
    9448:	056fc505 	strbeq	ip, [pc, #-1285]!	; 8f4b <va_printk+0x15f>
    944c:	0f200000 	svceq	0x00200000
    9450:	00000179 	andeq	r0, r0, r9, ror r1
    9454:	0599c705 	ldreq	ip, [r9, #1797]	; 0x705
    9458:	0f240000 	svceq	0x00240000
    945c:	0000074e 	andeq	r0, r0, lr, asr #14
    9460:	05bdca05 	ldreq	ip, [sp, #2565]!	; 0xa05
    9464:	0f280000 	svceq	0x00280000
    9468:	00000950 	andeq	r0, r0, r0, asr r9
    946c:	05d7cb05 	ldrbeq	ip, [r7, #2821]	; 0xb05
    9470:	122c0000 	eorne	r0, ip, #0
    9474:	0062755f 	rsbeq	r7, r2, pc, asr r5
    9478:	02bfce05 	adcseq	ip, pc, #5, 28	; 0x50
    947c:	12300000 	eorsne	r0, r0, #0
    9480:	0070755f 	rsbseq	r7, r0, pc, asr r5
    9484:	02e4cf05 	rsceq	ip, r4, #5, 30
    9488:	12380000 	eorsne	r0, r8, #0
    948c:	0072755f 	rsbseq	r7, r2, pc, asr r5
    9490:	0025d005 	eoreq	sp, r5, r5
    9494:	0f3c0000 	svceq	0x003c0000
    9498:	000001f3 	strdeq	r0, [r0], -r3
    949c:	05ddd305 	ldrbeq	sp, [sp, #773]	; 0x305
    94a0:	0f400000 	svceq	0x00400000
    94a4:	00000911 	andeq	r0, r0, r1, lsl r9
    94a8:	05edd405 	strbeq	sp, [sp, #1029]!	; 0x405
    94ac:	12430000 	subne	r0, r3, #0
    94b0:	00626c5f 	rsbeq	r6, r2, pc, asr ip
    94b4:	02bfd705 	adcseq	sp, pc, #1310720	; 0x140000
    94b8:	0f440000 	svceq	0x00440000
    94bc:	00000276 	andeq	r0, r0, r6, ror r2
    94c0:	0025da05 	eoreq	sp, r5, r5, lsl #20
    94c4:	0f4c0000 	svceq	0x004c0000
    94c8:	000002ac 	andeq	r0, r0, ip, lsr #5
    94cc:	008bdb05 	addeq	sp, fp, r5, lsl #22
    94d0:	0f500000 	svceq	0x00500000
    94d4:	00000644 	andeq	r0, r0, r4, asr #12
    94d8:	0432de05 	ldrteq	sp, [r2], #-3589	; 0xfffff1fb
    94dc:	0f540000 	svceq	0x00540000
    94e0:	0000106a 	andeq	r1, r0, sl, rrx
    94e4:	0108e205 	tsteq	r8, r5, lsl #4
    94e8:	0f580000 	svceq	0x00580000
    94ec:	000006bb 			; <UNDEFINED> instruction: 0x000006bb
    94f0:	00fde405 	rscseq	lr, sp, r5, lsl #8
    94f4:	0f5c0000 	svceq	0x005c0000
    94f8:	0000049e 	muleq	r0, lr, r4
    94fc:	0025e505 	eoreq	lr, r5, r5, lsl #10
    9500:	00640000 	rsbeq	r0, r4, r0
    9504:	00002516 	andeq	r2, r0, r6, lsl r5
    9508:	00043200 	andeq	r3, r4, r0, lsl #4
    950c:	04321700 	ldrteq	r1, [r2], #-1792	; 0xfffff900
    9510:	13170000 	tstne	r7, #0
    9514:	17000001 	strne	r0, [r0, -r1]
    9518:	00000115 	andeq	r0, r0, r5, lsl r1
    951c:	00002517 	andeq	r2, r0, r7, lsl r5
    9520:	04070000 	streq	r0, [r7], #-0
    9524:	0000043d 	andeq	r0, r0, sp, lsr r4
    9528:	00043205 	andeq	r3, r4, r5, lsl #4
    952c:	071e1800 	ldreq	r1, [lr, -r0, lsl #16]
    9530:	04280000 	strteq	r0, [r8], #-0
    9534:	6f026005 	svcvs	0x00026005
    9538:	19000005 	stmdbne	r0, {r0, r2}
    953c:	0000065c 	andeq	r0, r0, ip, asr r6
    9540:	25026205 	strcs	r6, [r2, #-517]	; 0xfffffdfb
    9544:	00000000 	andeq	r0, r0, r0
    9548:	00026819 	andeq	r6, r2, r9, lsl r8
    954c:	02670500 	rsbeq	r0, r7, #0, 10
    9550:	00000644 	andeq	r0, r0, r4, asr #12
    9554:	03971904 	orrseq	r1, r7, #4, 18	; 0x10000
    9558:	67050000 	strvs	r0, [r5, -r0]
    955c:	00064402 	andeq	r4, r6, r2, lsl #8
    9560:	28190800 	ldmdacs	r9, {fp}
    9564:	05000003 	streq	r0, [r0, #-3]
    9568:	06440267 	strbeq	r0, [r4], -r7, ror #4
    956c:	190c0000 	stmdbne	ip, {}	; <UNPREDICTABLE>
    9570:	000006f2 	strdeq	r0, [r0], -r2
    9574:	25026905 	strcs	r6, [r2, #-2309]	; 0xfffff6fb
    9578:	10000000 	andne	r0, r0, r0
    957c:	0000ed19 	andeq	lr, r0, r9, lsl sp
    9580:	026a0500 	rsbeq	r0, sl, #0, 10
    9584:	00000826 	andeq	r0, r0, r6, lsr #16
    9588:	10501914 	subsne	r1, r0, r4, lsl r9
    958c:	6d050000 	stcvs	0, cr0, [r5, #-0]
    9590:	00002502 	andeq	r2, r0, r2, lsl #10
    9594:	04193000 	ldreq	r3, [r9], #-0
    9598:	05000007 	streq	r0, [r0, #-7]
    959c:	083b026e 	ldmdaeq	fp!, {r1, r2, r3, r5, r6, r9}
    95a0:	19340000 	ldmdbne	r4!, {}	; <UNPREDICTABLE>
    95a4:	00000592 	muleq	r0, r2, r5
    95a8:	25027005 	strcs	r7, [r2, #-5]
    95ac:	38000000 	stmdacc	r0, {}	; <UNPREDICTABLE>
    95b0:	00070c19 	andeq	r0, r7, r9, lsl ip
    95b4:	02720500 	rsbseq	r0, r2, #0, 10
    95b8:	0000084c 	andeq	r0, r0, ip, asr #16
    95bc:	0466193c 	strbteq	r1, [r6], #-2364	; 0xfffff6c4
    95c0:	75050000 	strvc	r0, [r5, #-0]
    95c4:	00018502 	andeq	r8, r1, r2, lsl #10
    95c8:	5d194000 	ldcpl	0, cr4, [r9, #-0]
    95cc:	05000003 	streq	r0, [r0, #-3]
    95d0:	00250276 	eoreq	r0, r5, r6, ror r2
    95d4:	19440000 	stmdbne	r4, {}^	; <UNPREDICTABLE>
    95d8:	00000973 	andeq	r0, r0, r3, ror r9
    95dc:	85027705 	strhi	r7, [r2, #-1797]	; 0xfffff8fb
    95e0:	48000001 	stmdami	r0, {r0}
    95e4:	0005c719 	andeq	ip, r5, r9, lsl r7
    95e8:	02780500 	rsbseq	r0, r8, #0, 10
    95ec:	00000852 	andeq	r0, r0, r2, asr r8
    95f0:	039f194c 	orrseq	r1, pc, #76, 18	; 0x130000
    95f4:	7b050000 	blvc	1495fc <__bss_end__+0x13f66c>
    95f8:	00002502 	andeq	r2, r0, r2, lsl #10
    95fc:	a4195000 	ldrge	r5, [r9], #-0
    9600:	05000002 	streq	r0, [r0, #-2]
    9604:	0115027c 	tsteq	r5, ip, ror r2
    9608:	19540000 	ldmdbne	r4, {}^	; <UNPREDICTABLE>
    960c:	0000112c 	andeq	r1, r0, ip, lsr #2
    9610:	04029f05 	streq	r9, [r2], #-3845	; 0xfffff0fb
    9614:	58000008 	stmdapl	r0, {r3}
    9618:	00057c1a 	andeq	r7, r5, sl, lsl ip
    961c:	02a30500 	adceq	r0, r3, #0, 10
    9620:	000002a2 	andeq	r0, r0, r2, lsr #5
    9624:	301a0148 	andscc	r0, sl, r8, asr #2
    9628:	05000004 	streq	r0, [r0, #-4]
    962c:	026402a4 	rsbeq	r0, r4, #164, 4	; 0x4000000a
    9630:	014c0000 	mrseq	r0, (UNDEF: 76)
    9634:	0008e21a 	andeq	lr, r8, sl, lsl r2
    9638:	02a80500 	adceq	r0, r8, #0, 10
    963c:	00000863 	andeq	r0, r0, r3, ror #16
    9640:	2c1a02dc 	lfmcs	f0, 4, [sl], {220}	; 0xdc
    9644:	05000002 	streq	r0, [r0, #-2]
    9648:	060902ad 	streq	r0, [r9], -sp, lsr #5
    964c:	02e00000 	rsceq	r0, r0, #0
    9650:	0002111a 	andeq	r1, r2, sl, lsl r1
    9654:	02af0500 	adceq	r0, pc, #0, 10
    9658:	0000086f 	andeq	r0, r0, pc, ror #16
    965c:	070002ec 	streq	r0, [r0, -ip, ror #5]
    9660:	00041404 	andeq	r1, r4, r4, lsl #8
    9664:	00251600 	eoreq	r1, r5, r0, lsl #12
    9668:	05930000 	ldreq	r0, [r3]
    966c:	32170000 	andscc	r0, r7, #0
    9670:	17000004 	strne	r0, [r0, -r4]
    9674:	00000113 	andeq	r0, r0, r3, lsl r1
    9678:	00059317 	andeq	r9, r5, r7, lsl r3
    967c:	00251700 	eoreq	r1, r5, r0, lsl #14
    9680:	07000000 	streq	r0, [r0, -r0]
    9684:	00012204 	andeq	r2, r1, r4, lsl #4
    9688:	75040700 	strvc	r0, [r4, #-1792]	; 0xfffff900
    968c:	16000005 	strne	r0, [r0], -r5
    9690:	00000096 	muleq	r0, r6, r0
    9694:	000005bd 			; <UNDEFINED> instruction: 0x000005bd
    9698:	00043217 	andeq	r3, r4, r7, lsl r2
    969c:	01131700 	tsteq	r3, r0, lsl #14
    96a0:	96170000 	ldrls	r0, [r7], -r0
    96a4:	17000000 	strne	r0, [r0, -r0]
    96a8:	00000025 	andeq	r0, r0, r5, lsr #32
    96ac:	9f040700 	svcls	0x00040700
    96b0:	16000005 	strne	r0, [r0], -r5
    96b4:	00000025 	andeq	r0, r0, r5, lsr #32
    96b8:	000005d7 	ldrdeq	r0, [r0], -r7
    96bc:	00043217 	andeq	r3, r4, r7, lsl r2
    96c0:	01131700 	tsteq	r3, r0, lsl #14
    96c4:	07000000 	streq	r0, [r0, -r0]
    96c8:	0005c304 	andeq	ip, r5, r4, lsl #6
    96cc:	00590c00 	subseq	r0, r9, r0, lsl #24
    96d0:	05ed0000 	strbeq	r0, [sp, #0]!
    96d4:	2c0d0000 	stccs	0, cr0, [sp], {-0}
    96d8:	02000000 	andeq	r0, r0, #0
    96dc:	00590c00 	subseq	r0, r9, r0, lsl #24
    96e0:	05fd0000 	ldrbeq	r0, [sp, #0]!
    96e4:	2c0d0000 	stccs	0, cr0, [sp], {-0}
    96e8:	00000000 	andeq	r0, r0, r0
    96ec:	06910900 	ldreq	r0, [r1], r0, lsl #18
    96f0:	1f050000 	svcne	0x00050000
    96f4:	0002ea01 	andeq	lr, r2, r1, lsl #20
    96f8:	08c11b00 	stmiaeq	r1, {r8, r9, fp, ip}^
    96fc:	050c0000 	streq	r0, [ip, #-0]
    9700:	063e0123 	ldrteq	r0, [lr], -r3, lsr #2
    9704:	c9190000 	ldmdbgt	r9, {}	; <UNPREDICTABLE>
    9708:	05000006 	streq	r0, [r0, #-6]
    970c:	063e0125 	ldrteq	r0, [lr], -r5, lsr #2
    9710:	19000000 	stmdbne	r0, {}	; <UNPREDICTABLE>
    9714:	00000400 	andeq	r0, r0, r0, lsl #8
    9718:	25012605 	strcs	r2, [r1, #-1541]	; 0xfffff9fb
    971c:	04000000 	streq	r0, [r0], #-0
    9720:	00068b19 	andeq	r8, r6, r9, lsl fp
    9724:	01270500 			; <UNDEFINED> instruction: 0x01270500
    9728:	00000644 	andeq	r0, r0, r4, asr #12
    972c:	04070008 	streq	r0, [r7], #-8
    9730:	00000609 	andeq	r0, r0, r9, lsl #12
    9734:	05fd0407 	ldrbeq	r0, [sp, #1031]!	; 0x407
    9738:	d11b0000 	tstle	fp, r0
    973c:	0e000000 	cdpeq	0, 0, cr0, cr0, cr0, {0}
    9740:	7f013f05 	svcvc	0x00013f05
    9744:	19000006 	stmdbne	r0, {r1, r2}
    9748:	0000072e 	andeq	r0, r0, lr, lsr #14
    974c:	7f014005 	svcvc	0x00014005
    9750:	00000006 	andeq	r0, r0, r6
    9754:	0007d119 	andeq	sp, r7, r9, lsl r1
    9758:	01410500 	cmpeq	r1, r0, lsl #10
    975c:	0000067f 	andeq	r0, r0, pc, ror r6
    9760:	08101906 	ldmdaeq	r0, {r1, r2, r8, fp, ip}
    9764:	42050000 	andmi	r0, r5, #0
    9768:	00006001 	andeq	r6, r0, r1
    976c:	0c000c00 	stceq	12, cr0, [r0], {-0}
    9770:	00000060 	andeq	r0, r0, r0, rrx
    9774:	0000068f 	andeq	r0, r0, pc, lsl #13
    9778:	00002c0d 	andeq	r2, r0, sp, lsl #24
    977c:	1c000200 	sfmne	f0, 4, [r0], {-0}
    9780:	028005d0 	addeq	r0, r0, #208, 10	; 0x34000000
    9784:	00000790 	muleq	r0, r0, r7
    9788:	00088a19 	andeq	r8, r8, r9, lsl sl
    978c:	02820500 	addeq	r0, r2, #0, 10
    9790:	0000002c 	andeq	r0, r0, ip, lsr #32
    9794:	07d71900 	ldrbeq	r1, [r7, r0, lsl #18]
    9798:	83050000 	movwhi	r0, #20480	; 0x5000
    979c:	00011502 	andeq	r1, r1, r2, lsl #10
    97a0:	45190400 	ldrmi	r0, [r9, #-1024]	; 0xfffffc00
    97a4:	05000004 	streq	r0, [r0, #-4]
    97a8:	07900284 	ldreq	r0, [r0, r4, lsl #5]
    97ac:	19080000 	stmdbne	r8, {}	; <UNPREDICTABLE>
    97b0:	00000941 	andeq	r0, r0, r1, asr #18
    97b4:	9b028505 	blls	aabd0 <__bss_end__+0xa0c40>
    97b8:	24000001 	strcs	r0, [r0], #-1
    97bc:	00033819 	andeq	r3, r3, r9, lsl r8
    97c0:	02860500 	addeq	r0, r6, #0, 10
    97c4:	00000025 	andeq	r0, r0, r5, lsr #32
    97c8:	06c41948 	strbeq	r1, [r4], r8, asr #18
    97cc:	87050000 	strhi	r0, [r5, -r0]
    97d0:	00006e02 	andeq	r6, r0, r2, lsl #28
    97d4:	57195000 	ldrpl	r5, [r9, -r0]
    97d8:	05000009 	streq	r0, [r0, #-9]
    97dc:	064a0288 	strbeq	r0, [sl], -r8, lsl #5
    97e0:	19580000 	ldmdbne	r8, {}^	; <UNPREDICTABLE>
    97e4:	000006e5 	andeq	r0, r0, r5, ror #13
    97e8:	fd028905 	stc2	9, cr8, [r2, #-10]	; <UNPREDICTABLE>
    97ec:	68000000 	stmdavs	r0, {}	; <UNPREDICTABLE>
    97f0:	00096519 	andeq	r6, r9, r9, lsl r5
    97f4:	028a0500 	addeq	r0, sl, #0, 10
    97f8:	000000fd 	strdeq	r0, [r0], -sp
    97fc:	01af1970 			; <UNDEFINED> instruction: 0x01af1970
    9800:	8b050000 	blhi	149808 <__bss_end__+0x13f878>
    9804:	0000fd02 	andeq	pc, r0, r2, lsl #26
    9808:	d8197800 	ldmdale	r9, {fp, ip, sp, lr}
    980c:	05000008 	streq	r0, [r0, #-8]
    9810:	07a0028c 	streq	r0, [r0, ip, lsl #5]!
    9814:	19800000 	stmibne	r0, {}	; <UNPREDICTABLE>
    9818:	00000439 	andeq	r0, r0, r9, lsr r4
    981c:	b0028d05 	andlt	r8, r2, r5, lsl #26
    9820:	88000007 	stmdahi	r0, {r0, r1, r2}
    9824:	00082619 	andeq	r2, r8, r9, lsl r6
    9828:	028e0500 	addeq	r0, lr, #0, 10
    982c:	00000025 	andeq	r0, r0, r5, lsr #32
    9830:	02dd19a0 	sbcseq	r1, sp, #160, 18	; 0x280000
    9834:	8f050000 	svchi	0x00050000
    9838:	0000fd02 	andeq	pc, r0, r2, lsl #26
    983c:	8b19a400 	blhi	672844 <__bss_end__+0x6688b4>
    9840:	05000001 	streq	r0, [r0, #-1]
    9844:	00fd0290 	smlalseq	r0, sp, r0, r2
    9848:	19ac0000 	stmibne	ip!, {}	; <UNPREDICTABLE>
    984c:	000002c3 	andeq	r0, r0, r3, asr #5
    9850:	fd029105 	stc2	1, cr9, [r2, #-20]	; 0xffffffec
    9854:	b4000000 	strlt	r0, [r0], #-0
    9858:	00012d19 	andeq	r2, r1, r9, lsl sp
    985c:	02920500 	addseq	r0, r2, #0, 10
    9860:	000000fd 	strdeq	r0, [r0], -sp
    9864:	013c19bc 	teqeq	ip, ip	; <illegal shifter operand>
    9868:	93050000 	movwls	r0, #20480	; 0x5000
    986c:	0000fd02 	andeq	pc, r0, r2, lsl #26
    9870:	5a19c400 	bpl	67a878 <__bss_end__+0x6708e8>
    9874:	05000006 	streq	r0, [r0, #-6]
    9878:	00250294 	mlaeq	r5, r4, r2, r0
    987c:	00cc0000 	sbceq	r0, ip, r0
    9880:	00011b0c 	andeq	r1, r1, ip, lsl #22
    9884:	0007a000 	andeq	sl, r7, r0
    9888:	002c0d00 	eoreq	r0, ip, r0, lsl #26
    988c:	00190000 	andseq	r0, r9, r0
    9890:	00011b0c 	andeq	r1, r1, ip, lsl #22
    9894:	0007b000 	andeq	fp, r7, r0
    9898:	002c0d00 	eoreq	r0, ip, r0, lsl #26
    989c:	00070000 	andeq	r0, r7, r0
    98a0:	00011b0c 	andeq	r1, r1, ip, lsl #22
    98a4:	0007c000 	andeq	ip, r7, r0
    98a8:	002c0d00 	eoreq	r0, ip, r0, lsl #26
    98ac:	00170000 	andseq	r0, r7, r0
    98b0:	9905f01c 	stmdbls	r5, {r2, r3, r4, ip, sp, lr, pc}
    98b4:	0007e402 	andeq	lr, r7, r2, lsl #8
    98b8:	05511900 	ldrbeq	r1, [r1, #-2304]	; 0xfffff700
    98bc:	9c050000 	stcls	0, cr0, [r5], {-0}
    98c0:	0007e402 	andeq	lr, r7, r2, lsl #8
    98c4:	f8190000 			; <UNDEFINED> instruction: 0xf8190000
    98c8:	05000004 	streq	r0, [r0, #-4]
    98cc:	07f4029d 			; <UNDEFINED> instruction: 0x07f4029d
    98d0:	00780000 	rsbseq	r0, r8, r0
    98d4:	0002e40c 	andeq	lr, r2, ip, lsl #8
    98d8:	0007f400 	andeq	pc, r7, r0, lsl #8
    98dc:	002c0d00 	eoreq	r0, ip, r0, lsl #26
    98e0:	001d0000 	andseq	r0, sp, r0
    98e4:	00002c0c 	andeq	r2, r0, ip, lsl #24
    98e8:	00080400 	andeq	r0, r8, r0, lsl #8
    98ec:	002c0d00 	eoreq	r0, ip, r0, lsl #26
    98f0:	001d0000 	andseq	r0, sp, r0
    98f4:	7e05f01d 	mcrvc	0, 0, pc, cr5, cr13, {0}	; <UNPREDICTABLE>
    98f8:	00082602 	andeq	r2, r8, r2, lsl #12
    98fc:	071e1e00 	ldreq	r1, [lr, -r0, lsl #28]
    9900:	95050000 	strls	r0, [r5, #-0]
    9904:	00068f02 	andeq	r8, r6, r2, lsl #30
    9908:	09171e00 	ldmdbeq	r7, {r9, sl, fp, ip}
    990c:	9e050000 	cdpls	0, 0, cr0, cr5, cr0, {0}
    9910:	0007c002 	andeq	ip, r7, r2
    9914:	1b0c0000 	blne	30991c <__bss_end__+0x2ff98c>
    9918:	36000001 	strcc	r0, [r0], -r1
    991c:	0d000008 	stceq	0, cr0, [r0, #-32]	; 0xffffffe0
    9920:	0000002c 	andeq	r0, r0, ip, lsr #32
    9924:	33080018 	movwcc	r0, #32792	; 0x8018
    9928:	0700000f 	streq	r0, [r0, -pc]
    992c:	00083604 	andeq	r3, r8, r4, lsl #12
    9930:	084c1f00 	stmdaeq	ip, {r8, r9, sl, fp, ip}^
    9934:	32170000 	andscc	r0, r7, #0
    9938:	00000004 	andeq	r0, r0, r4
    993c:	08410407 	stmdaeq	r1, {r0, r1, r2, sl}^
    9940:	04070000 	streq	r0, [r7], #-0
    9944:	00000185 	andeq	r0, r0, r5, lsl #3
    9948:	0008631f 	andeq	r6, r8, pc, lsl r3
    994c:	00251700 	eoreq	r1, r5, r0, lsl #14
    9950:	07000000 	streq	r0, [r0, -r0]
    9954:	00086904 	andeq	r6, r8, r4, lsl #18
    9958:	58040700 	stmdapl	r4, {r8, r9, sl}
    995c:	0c000008 	stceq	0, cr0, [r0], {8}
    9960:	000005fd 	strdeq	r0, [r0], -sp
    9964:	0000087f 	andeq	r0, r0, pc, ror r8
    9968:	00002c0d 	andeq	r2, r0, sp, lsl #24
    996c:	20000200 	andcs	r0, r0, r0, lsl #4
    9970:	00000850 	andeq	r0, r0, r0, asr r8
    9974:	32032e05 	andcc	r2, r3, #5, 28	; 0x50
    9978:	20000004 	andcs	r0, r0, r4
    997c:	00000849 	andeq	r0, r0, r9, asr #16
    9980:	38032f05 	stmdacc	r3, {r0, r2, r8, r9, sl, fp, sp}
    9984:	16000004 	strne	r0, [r0], -r4
    9988:	00000025 	andeq	r0, r0, r5, lsr #32
    998c:	000008a6 	andeq	r0, r0, r6, lsr #17
    9990:	00002517 	andeq	r2, r0, r7, lsl r5
    9994:	67210000 	strvs	r0, [r1, -r0]!
    9998:	06000003 	streq	r0, [r0], -r3
    999c:	0008b11d 	andeq	fp, r8, sp, lsl r1
    99a0:	97040700 	strls	r0, [r4, -r0, lsl #14]
    99a4:	16000008 	strne	r0, [r0], -r8
    99a8:	00000025 	andeq	r0, r0, r5, lsr #32
    99ac:	000008c6 	andeq	r0, r0, r6, asr #17
    99b0:	00059317 	andeq	r9, r5, r7, lsl r3
    99b4:	05210000 	streq	r0, [r1, #-0]!
    99b8:	0600000d 	streq	r0, [r0], -sp
    99bc:	0008d122 	andeq	sp, r8, r2, lsr #2
    99c0:	b7040700 	strlt	r0, [r4, -r0, lsl #14]
    99c4:	22000008 	andcs	r0, r0, #8
    99c8:	00590107 	subseq	r0, r9, r7, lsl #2
    99cc:	0c070000 	stceq	0, cr0, [r7], {-0}
    99d0:	00000915 	andeq	r0, r0, r5, lsl r9
    99d4:	0009f423 	andeq	pc, r9, r3, lsr #8
    99d8:	71230000 			; <UNDEFINED> instruction: 0x71230000
    99dc:	0100000b 	tsteq	r0, fp
    99e0:	000b9f23 	andeq	r9, fp, r3, lsr #30
    99e4:	17230400 	strne	r0, [r3, -r0, lsl #8]!
    99e8:	0500000a 	streq	r0, [r0, #-10]
    99ec:	000ad223 	andeq	sp, sl, r3, lsr #4
    99f0:	ae230600 	cfmadda32ge	mvax0, mvax0, mvfx3, mvfx0
    99f4:	0700000b 	streq	r0, [r0, -fp]
    99f8:	000bbd23 	andeq	fp, fp, r3, lsr #26
    99fc:	cc230300 	stcgt	3, cr0, [r3], #-0
    9a00:	0200000b 	andeq	r0, r0, #11
    9a04:	11140600 	tstne	r4, r0, lsl #12
    9a08:	15070000 	strne	r0, [r7, #-0]
    9a0c:	000008d7 	ldrdeq	r0, [r0], -r7
    9a10:	0010b524 	andseq	fp, r0, r4, lsr #10
    9a14:	2f1b0100 	svccs	0x001b0100
    9a18:	00000009 	andeq	r0, r0, r9
    9a1c:	07202000 	streq	r2, [r0, -r0]!
    9a20:	00003304 	andeq	r3, r0, r4, lsl #6
    9a24:	10e52400 	rscne	r2, r5, r0, lsl #8
    9a28:	1d010000 	stcne	0, cr0, [r1, #-0]
    9a2c:	00000038 	andeq	r0, r0, r8, lsr r0
    9a30:	2020001c 	eorcs	r0, r0, ip, lsl r0
    9a34:	00112024 	andseq	r2, r1, r4, lsr #32
    9a38:	381e0100 	ldmdacc	lr, {r8}
    9a3c:	28000000 	stmdacs	r0, {}	; <UNPREDICTABLE>
    9a40:	24202000 	strtcs	r2, [r0], #-0
    9a44:	000010ef 	andeq	r1, r0, pc, ror #1
    9a48:	00381f01 	eorseq	r1, r8, r1, lsl #30
    9a4c:	00340000 	eorseq	r0, r4, r0
    9a50:	c0252020 	eorgt	r2, r5, r0, lsr #32
    9a54:	01000010 	tsteq	r0, r0, lsl r0
    9a58:	00002556 	andeq	r2, r0, r6, asr r5
    9a5c:	00956800 	addseq	r6, r5, r0, lsl #16
    9a60:	00003400 	andeq	r3, r0, r0, lsl #8
    9a64:	c29c0100 	addsgt	r0, ip, #0, 2
    9a68:	26000009 	strcs	r0, [r0], -r9
    9a6c:	006e6970 	rsbeq	r6, lr, r0, ror r9
    9a70:	002c5601 	eoreq	r5, ip, r1, lsl #12
    9a74:	0f730000 	svceq	0x00730000
    9a78:	a9270000 	stmdbge	r7!, {}	; <UNPREDICTABLE>
    9a7c:	01000010 	tsteq	r0, r0, lsl r0
    9a80:	00002c59 	andeq	r2, r0, r9, asr ip
    9a84:	000fad00 	andeq	sl, pc, r0, lsl #26
    9a88:	666f2800 	strbtvs	r2, [pc], -r0, lsl #16
    9a8c:	5a010066 	bpl	49c2c <__bss_end__+0x3fc9c>
    9a90:	0000002c 	andeq	r0, r0, ip, lsr #32
    9a94:	00000feb 	andeq	r0, r0, fp, ror #31
    9a98:	00958429 	addseq	r8, r5, r9, lsr #8
    9a9c:	000b8700 	andeq	r8, fp, r0, lsl #14
    9aa0:	50012a00 	andpl	r2, r1, r0, lsl #20
    9aa4:	5001f30b 	andpl	pc, r1, fp, lsl #6
    9aa8:	b4232535 	strtlt	r2, [r3], #-1333	; 0xfffffacb
    9aac:	02818080 	addeq	r8, r1, #128	; 0x80
    9ab0:	da2b0000 	ble	ac9ab8 <__bss_end__+0xabfb28>
    9ab4:	01000010 	tsteq	r0, r0, lsl r0
    9ab8:	00954c4f 	addseq	r4, r5, pc, asr #24
    9abc:	00001c00 	andeq	r1, r0, r0, lsl #24
    9ac0:	129c0100 	addsne	r0, ip, #0, 2
    9ac4:	2600000a 	strcs	r0, [r0], -sl
    9ac8:	006e6970 	rsbeq	r6, lr, r0, ror r9
    9acc:	002c4f01 	eoreq	r4, ip, r1, lsl #30
    9ad0:	0ffe0000 	svceq	0x00fe0000
    9ad4:	76260000 	strtvc	r0, [r6], -r0
    9ad8:	2c4f0100 	stfcse	f0, [pc], {-0}
    9adc:	38000000 	stmdacc	r0, {}	; <UNPREDICTABLE>
    9ae0:	2c000010 	stccs	0, cr0, [r0], {16}
    9ae4:	0000955c 	andeq	r9, r0, ip, asr r5
    9ae8:	00000a4d 	andeq	r0, r0, sp, asr #20
    9aec:	00000a08 	andeq	r0, r0, r8, lsl #20
    9af0:	0350012a 	cmpeq	r0, #-2147483638	; 0x8000000a
    9af4:	005001f3 	ldrsheq	r0, [r0], #-19	; 0xffffffed
    9af8:	0095642d 	addseq	r6, r5, sp, lsr #8
    9afc:	000a8e00 	andeq	r8, sl, r0, lsl #28
    9b00:	f92b0000 			; <UNDEFINED> instruction: 0xf92b0000
    9b04:	01000010 	tsteq	r0, r0, lsl r0
    9b08:	00953c4a 	addseq	r3, r5, sl, asr #24
    9b0c:	00001000 	andeq	r1, r0, r0
    9b10:	4d9c0100 	ldfmis	f0, [ip]
    9b14:	2600000a 	strcs	r0, [r0], -sl
    9b18:	006e6970 	rsbeq	r6, lr, r0, ror r9
    9b1c:	002c4a01 	eoreq	r4, ip, r1, lsl #20
    9b20:	10720000 	rsbsne	r0, r2, r0
    9b24:	48290000 	stmdami	r9!, {}	; <UNPREDICTABLE>
    9b28:	0a000095 	beq	9d84 <buf.4221+0x1f4>
    9b2c:	2a00000b 	bcs	9b60 <__FUNCTION__.4295+0xd8>
    9b30:	f3035001 	vhadd.u8	d5, d3, d1
    9b34:	012a5001 			; <UNDEFINED> instruction: 0x012a5001
    9b38:	00300151 	eorseq	r0, r0, r1, asr r1
    9b3c:	109c2b00 	addsne	r2, ip, r0, lsl #22
    9b40:	43010000 	movwmi	r0, #4096	; 0x1000
    9b44:	00009518 	andeq	r9, r0, r8, lsl r5
    9b48:	00000024 	andeq	r0, r0, r4, lsr #32
    9b4c:	0a8e9c01 	beq	fe3b0b58 <__bss_end__+0xfe3a6bc8>
    9b50:	70260000 	eorvc	r0, r6, r0
    9b54:	01006e69 	tsteq	r0, r9, ror #28
    9b58:	00002c43 	andeq	r2, r0, r3, asr #24
    9b5c:	00109300 	andseq	r9, r0, r0, lsl #6
    9b60:	95342900 	ldrls	r2, [r4, #-2304]!	; 0xfffff700
    9b64:	0b920000 	bleq	fe489b6c <__bss_end__+0xfe47fbdc>
    9b68:	012a0000 			; <UNDEFINED> instruction: 0x012a0000
    9b6c:	280c0550 	stmdacs	ip, {r4, r6, r8, sl}
    9b70:	2a202000 	bcs	811b78 <__bss_end__+0x807be8>
    9b74:	31055101 	tstcc	r5, r1, lsl #2
    9b78:	245001f3 	ldrbcs	r0, [r0], #-499	; 0xfffffe0d
    9b7c:	082b0000 	stmdaeq	fp!, {}	; <UNPREDICTABLE>
    9b80:	01000011 	tsteq	r0, r1, lsl r0
    9b84:	0094f43c 	addseq	pc, r4, ip, lsr r4	; <UNPREDICTABLE>
    9b88:	00002400 	andeq	r2, r0, r0, lsl #8
    9b8c:	cf9c0100 	svcgt	0x009c0100
    9b90:	2600000a 	strcs	r0, [r0], -sl
    9b94:	006e6970 	rsbeq	r6, lr, r0, ror r9
    9b98:	002c3c01 	eoreq	r3, ip, r1, lsl #24
    9b9c:	10b40000 	adcsne	r0, r4, r0
    9ba0:	10290000 	eorne	r0, r9, r0
    9ba4:	92000095 	andls	r0, r0, #149	; 0x95
    9ba8:	2a00000b 	bcs	9bdc <buf.4221+0x4c>
    9bac:	0c055001 	stceq	0, cr5, [r5], {1}
    9bb0:	2020001c 	eorcs	r0, r0, ip, lsl r0
    9bb4:	0551012a 	ldrbeq	r0, [r1, #-298]	; 0xfffffed6
    9bb8:	5001f331 	andpl	pc, r1, r1, lsr r3	; <UNPREDICTABLE>
    9bbc:	2b000024 	blcs	9c54 <buf.4221+0xc4>
    9bc0:	000010ca 	andeq	r1, r0, sl, asr #1
    9bc4:	94e43701 	strbtls	r3, [r4], #1793	; 0x701
    9bc8:	00100000 	andseq	r0, r0, r0
    9bcc:	9c010000 	stcls	0, cr0, [r1], {-0}
    9bd0:	00000b0a 	andeq	r0, r0, sl, lsl #22
    9bd4:	6e697026 	cdpvs	0, 6, cr7, cr9, cr6, {1}
    9bd8:	2c370100 	ldfcss	f0, [r7], #-0
    9bdc:	d5000000 	strle	r0, [r0, #-0]
    9be0:	29000010 	stmdbcs	r0, {r4}
    9be4:	000094f0 	strdeq	r9, [r0], -r0
    9be8:	00000b0a 	andeq	r0, r0, sl, lsl #22
    9bec:	0350012a 	cmpeq	r0, #-2147483638	; 0x8000000a
    9bf0:	2a5001f3 	bcs	140a3c4 <__bss_end__+0x1400434>
    9bf4:	31015101 	tstcc	r1, r1, lsl #2
    9bf8:	462b0000 	strtmi	r0, [fp], -r0
    9bfc:	0100000a 	tsteq	r0, sl
    9c00:	00947c28 	addseq	r7, r4, r8, lsr #24
    9c04:	00006800 	andeq	r6, r0, r0, lsl #16
    9c08:	879c0100 	ldrhi	r0, [ip, r0, lsl #2]
    9c0c:	2600000b 	strcs	r0, [r0], -fp
    9c10:	006e6970 	rsbeq	r6, lr, r0, ror r9
    9c14:	002c2801 	eoreq	r2, ip, r1, lsl #16
    9c18:	10f60000 	rscsne	r0, r6, r0
    9c1c:	e72e0000 	str	r0, [lr, -r0]!
    9c20:	01000008 	tsteq	r0, r8
    9c24:	00091528 	andeq	r1, r9, r8, lsr #10
    9c28:	00111700 	andseq	r1, r1, r0, lsl #14
    9c2c:	666f2f00 	strbtvs	r2, [pc], -r0, lsl #30
    9c30:	2d010066 	stccs	0, cr0, [r1, #-408]	; 0xfffffe68
    9c34:	0000002c 	andeq	r0, r0, ip, lsr #32
    9c38:	672f5501 	strvs	r5, [pc, -r1, lsl #10]!
    9c3c:	2c2f0100 	stfcss	f0, [pc], #-0	; 9c44 <buf.4221+0xb4>
    9c40:	01000000 	mrseq	r0, (UNDEF: 0)
    9c44:	00762856 	rsbseq	r2, r6, r6, asr r8
    9c48:	002c3101 	eoreq	r3, ip, r1, lsl #2
    9c4c:	11380000 	teqne	r8, r0
    9c50:	c82c0000 	stmdagt	ip!, {}	; <UNPREDICTABLE>
    9c54:	87000094 			; <UNDEFINED> instruction: 0x87000094
    9c58:	7600000b 	strvc	r0, [r0], -fp
    9c5c:	2a00000b 	bcs	9c90 <buf.4221+0x100>
    9c60:	76025001 	strvc	r5, [r2], -r1
    9c64:	dc290000 	stcle	0, cr0, [r9], #-0
    9c68:	92000094 	andls	r0, r0, #148	; 0x94
    9c6c:	2a00000b 	bcs	9ca0 <buf.4221+0x110>
    9c70:	76025001 	strvc	r5, [r2], -r1
    9c74:	30000000 	andcc	r0, r0, r0
    9c78:	00000f11 	andeq	r0, r0, r1, lsl pc
    9c7c:	00000f11 	andeq	r0, r0, r1, lsl pc
    9c80:	4f30a706 	svcmi	0x0030a706
    9c84:	4f00000e 	svcmi	0x0000000e
    9c88:	0600000e 	streq	r0, [r0], -lr
    9c8c:	0a05009b 	beq	149f00 <__bss_end__+0x13ff70>
    9c90:	00040000 	andeq	r0, r4, r0
    9c94:	00001d2e 	andeq	r1, r0, lr, lsr #26
    9c98:	0c110104 	ldfeqs	f0, [r1], {4}
    9c9c:	310c0000 	mrscc	r0, (UNDEF: 12)
    9ca0:	78000011 	stmdavc	r0, {r0, r4}
    9ca4:	9c00000c 	stcls	0, cr0, [r0], {12}
    9ca8:	50000095 	mulpl	r0, r5, r0
    9cac:	ec000000 	stc	0, cr0, [r0], {-0}
    9cb0:	0200000e 	andeq	r0, r0, #14
    9cb4:	6e690504 	cdpvs	5, 6, cr0, cr9, cr4, {0}
    9cb8:	04030074 	streq	r0, [r3], #-116	; 0xffffff8c
    9cbc:	00015707 	andeq	r5, r1, r7, lsl #14
    9cc0:	06010300 	streq	r0, [r1], -r0, lsl #6
    9cc4:	00000618 	andeq	r0, r0, r8, lsl r6
    9cc8:	63050203 	movwvs	r0, #20995	; 0x5203
    9ccc:	03000006 	movweq	r0, #6
    9cd0:	01cb0504 	biceq	r0, fp, r4, lsl #10
    9cd4:	08030000 	stmdaeq	r3, {}	; <UNPREDICTABLE>
    9cd8:	0001c605 	andeq	ip, r1, r5, lsl #12
    9cdc:	08d00400 	ldmeq	r0, {sl}^
    9ce0:	2e020000 	cdpcs	0, 0, cr0, cr2, cr0, {0}
    9ce4:	0000005a 	andeq	r0, r0, sl, asr r0
    9ce8:	16080103 	strne	r0, [r8], -r3, lsl #2
    9cec:	03000006 	movweq	r0, #6
    9cf0:	041d0702 	ldreq	r0, [sp], #-1794	; 0xfffff8fe
    9cf4:	45040000 	strmi	r0, [r4, #-0]
    9cf8:	02000007 	andeq	r0, r0, #7
    9cfc:	00007334 	andeq	r7, r0, r4, lsr r3
    9d00:	07040300 	streq	r0, [r4, -r0, lsl #6]
    9d04:	00000152 	andeq	r0, r0, r2, asr r1
    9d08:	4d070803 	stcmi	8, cr0, [r7, #-12]
    9d0c:	04000001 	streq	r0, [r0], #-1
    9d10:	000005e1 	andeq	r0, r0, r1, ror #11
    9d14:	00250703 	eoreq	r0, r5, r3, lsl #14
    9d18:	9d040000 	stcls	0, cr0, [r4, #-0]
    9d1c:	04000005 	streq	r0, [r0], #-5
    9d20:	0000412c 	andeq	r4, r0, ip, lsr #2
    9d24:	07610400 	strbeq	r0, [r1, -r0, lsl #8]!
    9d28:	72040000 	andvc	r0, r4, #0
    9d2c:	00000041 	andeq	r0, r0, r1, asr #32
    9d30:	00048105 	andeq	r8, r4, r5, lsl #2
    9d34:	01650500 	cmneq	r5, r0, lsl #10
    9d38:	0000002c 	andeq	r0, r0, ip, lsr #32
    9d3c:	a6040406 	strge	r0, [r4], -r6, lsl #8
    9d40:	000000cd 	andeq	r0, r0, sp, asr #1
    9d44:	00046e07 	andeq	r6, r4, r7, lsl #28
    9d48:	a2a80400 	adcge	r0, r8, #0, 8
    9d4c:	07000000 	streq	r0, [r0, -r0]
    9d50:	00000381 	andeq	r0, r0, r1, lsl #7
    9d54:	00cda904 	sbceq	sl, sp, r4, lsl #18
    9d58:	08000000 	stmdaeq	r0, {}	; <UNPREDICTABLE>
    9d5c:	0000005a 	andeq	r0, r0, sl, asr r0
    9d60:	000000dd 	ldrdeq	r0, [r0], -sp
    9d64:	0000dd09 	andeq	sp, r0, r9, lsl #26
    9d68:	03000300 	movweq	r0, #768	; 0x300
    9d6c:	050d0704 	streq	r0, [sp, #-1796]	; 0xfffff8fc
    9d70:	080a0000 	stmdaeq	sl, {}	; <UNPREDICTABLE>
    9d74:	0105a304 	tsteq	r5, r4, lsl #6
    9d78:	3d0b0000 	stccc	0, cr0, [fp, #-0]
    9d7c:	04000007 	streq	r0, [r0], #-7
    9d80:	000025a5 	andeq	r2, r0, r5, lsr #11
    9d84:	e40b0000 	str	r0, [fp], #-0
    9d88:	04000007 	streq	r0, [r0], #-7
    9d8c:	0000aeaa 	andeq	sl, r0, sl, lsr #29
    9d90:	04000400 	streq	r0, [r0], #-1024	; 0xfffffc00
    9d94:	00000698 	muleq	r0, r8, r6
    9d98:	00e4ab04 	rsceq	sl, r4, r4, lsl #22
    9d9c:	1f040000 	svcne	0x00040000
    9da0:	04000003 	streq	r0, [r0], #-3
    9da4:	000081af 	andeq	r8, r0, pc, lsr #3
    9da8:	0d040c00 	stceq	12, cr0, [r4, #-0]
    9dac:	00012304 	andeq	r2, r1, r4, lsl #6
    9db0:	08010300 	stmdaeq	r1, {r8, r9}
    9db4:	0000061f 	andeq	r0, r0, pc, lsl r6
    9db8:	0001230e 	andeq	r2, r1, lr, lsl #6
    9dbc:	081e0400 	ldmdaeq	lr, {sl}
    9dc0:	16060000 	strne	r0, [r6], -r0
    9dc4:	00000073 	andeq	r0, r0, r3, ror r0
    9dc8:	0003300f 	andeq	r3, r3, pc
    9dcc:	2d061800 	stccs	8, cr1, [r6, #-0]
    9dd0:	0000018d 	andeq	r0, r0, sp, lsl #3
    9dd4:	0006c90b 	andeq	ip, r6, fp, lsl #18
    9dd8:	8d2f0600 	stchi	6, cr0, [pc, #-0]	; 9de0 <buf.4221+0x250>
    9ddc:	00000001 	andeq	r0, r0, r1
    9de0:	006b5f10 	rsbeq	r5, fp, r0, lsl pc
    9de4:	00253006 	eoreq	r3, r5, r6
    9de8:	0b040000 	bleq	109df0 <__bss_end__+0xffe60>
    9dec:	00000716 	andeq	r0, r0, r6, lsl r7
    9df0:	00253006 	eoreq	r3, r5, r6
    9df4:	0b080000 	bleq	209dfc <__bss_end__+0x1ffe6c>
    9df8:	00000319 	andeq	r0, r0, r9, lsl r3
    9dfc:	00253006 	eoreq	r3, r5, r6
    9e00:	0b0c0000 	bleq	309e08 <__bss_end__+0x2ffe78>
    9e04:	000008b2 			; <UNDEFINED> instruction: 0x000008b2
    9e08:	00253006 	eoreq	r3, r5, r6
    9e0c:	10100000 	andsne	r0, r0, r0
    9e10:	0600785f 			; <UNDEFINED> instruction: 0x0600785f
    9e14:	00019331 	andeq	r9, r1, r1, lsr r3
    9e18:	0d001400 	cfstrseq	mvf1, [r0, #-0]
    9e1c:	00013a04 	andeq	r3, r1, r4, lsl #20
    9e20:	012f0800 			; <UNDEFINED> instruction: 0x012f0800
    9e24:	01a30000 			; <UNDEFINED> instruction: 0x01a30000
    9e28:	dd090000 	stcle	0, cr0, [r9, #-0]
    9e2c:	00000000 	andeq	r0, r0, r0
    9e30:	03730f00 	cmneq	r3, #0, 30
    9e34:	06240000 	strteq	r0, [r4], -r0
    9e38:	00021c35 	andeq	r1, r2, r5, lsr ip
    9e3c:	01bd0b00 			; <UNDEFINED> instruction: 0x01bd0b00
    9e40:	37060000 	strcc	r0, [r6, -r0]
    9e44:	00000025 	andeq	r0, r0, r5, lsr #32
    9e48:	07890b00 	streq	r0, [r9, r0, lsl #22]
    9e4c:	38060000 	stmdacc	r6, {}	; <UNPREDICTABLE>
    9e50:	00000025 	andeq	r0, r0, r5, lsr #32
    9e54:	02070b04 	andeq	r0, r7, #4, 22	; 0x1000
    9e58:	39060000 	stmdbcc	r6, {}	; <UNPREDICTABLE>
    9e5c:	00000025 	andeq	r0, r0, r5, lsr #32
    9e60:	09bc0b08 	ldmibeq	ip!, {r3, r8, r9, fp}
    9e64:	3a060000 	bcc	189e6c <__bss_end__+0x17fedc>
    9e68:	00000025 	andeq	r0, r0, r5, lsr #32
    9e6c:	05620b0c 	strbeq	r0, [r2, #-2828]!	; 0xfffff4f4
    9e70:	3b060000 	blcc	189e78 <__bss_end__+0x17fee8>
    9e74:	00000025 	andeq	r0, r0, r5, lsr #32
    9e78:	04d00b10 	ldrbeq	r0, [r0], #2832	; 0xb10
    9e7c:	3c060000 	stccc	0, cr0, [r6], {-0}
    9e80:	00000025 	andeq	r0, r0, r5, lsr #32
    9e84:	08b70b14 	ldmeq	r7!, {r2, r4, r8, r9, fp}
    9e88:	3d060000 	stccc	0, cr0, [r6, #-0]
    9e8c:	00000025 	andeq	r0, r0, r5, lsr #32
    9e90:	066d0b18 			; <UNDEFINED> instruction: 0x066d0b18
    9e94:	3e060000 	cdpcc	0, 0, cr0, cr6, cr0, {0}
    9e98:	00000025 	andeq	r0, r0, r5, lsr #32
    9e9c:	09360b1c 	ldmdbeq	r6!, {r2, r3, r4, r8, r9, fp}
    9ea0:	3f060000 	svccc	0x00060000
    9ea4:	00000025 	andeq	r0, r0, r5, lsr #32
    9ea8:	16110020 	ldrne	r0, [r1], -r0, lsr #32
    9eac:	08000002 	stmdaeq	r0, {r1}
    9eb0:	5c480601 	mcrrpl	6, 0, r0, r8, cr1
    9eb4:	0b000002 	bleq	9ec4 <buf.4221+0x334>
    9eb8:	000002eb 	andeq	r0, r0, fp, ror #5
    9ebc:	025c4906 	subseq	r4, ip, #98304	; 0x18000
    9ec0:	0b000000 	bleq	9ec8 <buf.4221+0x338>
    9ec4:	00000000 	andeq	r0, r0, r0
    9ec8:	025c4a06 	subseq	r4, ip, #24576	; 0x6000
    9ecc:	12800000 	addne	r0, r0, #0
    9ed0:	000007ab 	andeq	r0, r0, fp, lsr #15
    9ed4:	012f4c06 			; <UNDEFINED> instruction: 0x012f4c06
    9ed8:	01000000 	mrseq	r0, (UNDEF: 0)
    9edc:	00026012 	andeq	r6, r2, r2, lsl r0
    9ee0:	2f4f0600 	svccs	0x004f0600
    9ee4:	04000001 	streq	r0, [r0], #-1
    9ee8:	1b080001 	blne	209ef4 <__bss_end__+0x1fff64>
    9eec:	6c000001 	stcvs	0, cr0, [r0], {1}
    9ef0:	09000002 	stmdbeq	r0, {r1}
    9ef4:	000000dd 	ldrdeq	r0, [r0], -sp
    9ef8:	7c11001f 	ldcvc	0, cr0, [r1], {31}
    9efc:	90000005 	andls	r0, r0, r5
    9f00:	aa5b0601 	bge	16cb70c <__bss_end__+0x16c177c>
    9f04:	0b000002 	bleq	9f14 <buf.4221+0x384>
    9f08:	000006c9 	andeq	r0, r0, r9, asr #13
    9f0c:	02aa5c06 	adceq	r5, sl, #1536	; 0x600
    9f10:	0b000000 	bleq	9f18 <buf.4221+0x388>
    9f14:	000006f7 	strdeq	r0, [r0], -r7
    9f18:	00255d06 	eoreq	r5, r5, r6, lsl #26
    9f1c:	0b040000 	bleq	109f24 <__bss_end__+0xfff94>
    9f20:	00000314 	andeq	r0, r0, r4, lsl r3
    9f24:	02b05f06 	adcseq	r5, r0, #6, 30
    9f28:	0b080000 	bleq	209f30 <__bss_end__+0x1fffa0>
    9f2c:	00000216 	andeq	r0, r0, r6, lsl r2
    9f30:	021c6006 	andseq	r6, ip, #6
    9f34:	00880000 	addeq	r0, r8, r0
    9f38:	026c040d 	rsbeq	r0, ip, #218103808	; 0xd000000
    9f3c:	c0080000 	andgt	r0, r8, r0
    9f40:	c0000002 	andgt	r0, r0, r2
    9f44:	09000002 	stmdbeq	r0, {r1}
    9f48:	000000dd 	ldrdeq	r0, [r0], -sp
    9f4c:	040d001f 	streq	r0, [sp], #-31	; 0xffffffe1
    9f50:	000002c6 	andeq	r0, r0, r6, asr #5
    9f54:	06770f13 	uhadd16eq	r0, r7, r3
    9f58:	06080000 	streq	r0, [r8], -r0
    9f5c:	0002ec73 	andeq	lr, r2, r3, ror ip
    9f60:	02010b00 	andeq	r0, r1, #0, 22
    9f64:	74060000 	strvc	r0, [r6], #-0
    9f68:	000002ec 	andeq	r0, r0, ip, ror #5
    9f6c:	00a60b00 	adceq	r0, r6, r0, lsl #22
    9f70:	75060000 	strvc	r0, [r6, #-0]
    9f74:	00000025 	andeq	r0, r0, r5, lsr #32
    9f78:	040d0004 	streq	r0, [sp], #-4
    9f7c:	0000005a 	andeq	r0, r0, sl, asr r0
    9f80:	0006a30f 	andeq	sl, r6, pc, lsl #6
    9f84:	b3066800 	movwlt	r6, #26624	; 0x6800
    9f88:	0000041c 	andeq	r0, r0, ip, lsl r4
    9f8c:	00705f10 	rsbseq	r5, r0, r0, lsl pc
    9f90:	02ecb406 	rsceq	fp, ip, #100663296	; 0x6000000
    9f94:	10000000 	andne	r0, r0, r0
    9f98:	0600725f 			; <UNDEFINED> instruction: 0x0600725f
    9f9c:	000025b5 			; <UNDEFINED> instruction: 0x000025b5
    9fa0:	5f100400 	svcpl	0x00100400
    9fa4:	b6060077 			; <UNDEFINED> instruction: 0xb6060077
    9fa8:	00000025 	andeq	r0, r0, r5, lsr #32
    9fac:	02590b08 	subseq	r0, r9, #8, 22	; 0x2000
    9fb0:	b7060000 	strlt	r0, [r6, -r0]
    9fb4:	0000003a 	andeq	r0, r0, sl, lsr r0
    9fb8:	03b20b0c 			; <UNDEFINED> instruction: 0x03b20b0c
    9fbc:	b8060000 	stmdalt	r6, {}	; <UNPREDICTABLE>
    9fc0:	0000003a 	andeq	r0, r0, sl, lsr r0
    9fc4:	625f100e 	subsvs	r1, pc, #14
    9fc8:	b9060066 	stmdblt	r6, {r1, r2, r5, r6}
    9fcc:	000002c7 	andeq	r0, r0, r7, asr #5
    9fd0:	016d0b10 	cmneq	sp, r0, lsl fp
    9fd4:	ba060000 	blt	189fdc <__bss_end__+0x18004c>
    9fd8:	00000025 	andeq	r0, r0, r5, lsr #32
    9fdc:	02240b18 	eoreq	r0, r4, #24, 22	; 0x6000
    9fe0:	c1060000 	mrsgt	r0, (UNDEF: 6)
    9fe4:	0000011b 	andeq	r0, r0, fp, lsl r1
    9fe8:	089a0b1c 	ldmeq	sl, {r2, r3, r4, r8, r9, fp}
    9fec:	c3060000 	movwgt	r0, #24576	; 0x6000
    9ff0:	00000577 	andeq	r0, r0, r7, ror r5
    9ff4:	01790b20 	cmneq	r9, r0, lsr #22
    9ff8:	c5060000 	strgt	r0, [r6, #-0]
    9ffc:	000005a1 	andeq	r0, r0, r1, lsr #11
    a000:	074e0b24 	strbeq	r0, [lr, -r4, lsr #22]
    a004:	c8060000 	stmdagt	r6, {}	; <UNPREDICTABLE>
    a008:	000005c5 	andeq	r0, r0, r5, asr #11
    a00c:	09500b28 	ldmdbeq	r0, {r3, r5, r8, r9, fp}^
    a010:	c9060000 	stmdbgt	r6, {}	; <UNPREDICTABLE>
    a014:	000005df 	ldrdeq	r0, [r0], -pc	; <UNPREDICTABLE>
    a018:	755f102c 	ldrbvc	r1, [pc, #-44]	; 9ff4 <__bss_end__+0x64>
    a01c:	cc060062 	stcgt	0, cr0, [r6], {98}	; 0x62
    a020:	000002c7 	andeq	r0, r0, r7, asr #5
    a024:	755f1030 	ldrbvc	r1, [pc, #-48]	; 9ffc <__bss_end__+0x6c>
    a028:	cd060070 	stcgt	0, cr0, [r6, #-448]	; 0xfffffe40
    a02c:	000002ec 	andeq	r0, r0, ip, ror #5
    a030:	755f1038 	ldrbvc	r1, [pc, #-56]	; a000 <__bss_end__+0x70>
    a034:	ce060072 	mcrgt	0, 0, r0, cr6, cr2, {3}
    a038:	00000025 	andeq	r0, r0, r5, lsr #32
    a03c:	01f30b3c 	mvnseq	r0, ip, lsr fp
    a040:	d1060000 	mrsle	r0, (UNDEF: 6)
    a044:	000005e5 	andeq	r0, r0, r5, ror #11
    a048:	09110b40 	ldmdbeq	r1, {r6, r8, r9, fp}
    a04c:	d2060000 	andle	r0, r6, #0
    a050:	000005f5 	strdeq	r0, [r0], -r5
    a054:	6c5f1043 	mrrcvs	0, 4, r1, pc, cr3	; <UNPREDICTABLE>
    a058:	d5060062 	strle	r0, [r6, #-98]	; 0xffffff9e
    a05c:	000002c7 	andeq	r0, r0, r7, asr #5
    a060:	02760b44 	rsbseq	r0, r6, #68, 22	; 0x11000
    a064:	d8060000 	stmdale	r6, {}	; <UNPREDICTABLE>
    a068:	00000025 	andeq	r0, r0, r5, lsr #32
    a06c:	02ac0b4c 	adceq	r0, ip, #76, 22	; 0x13000
    a070:	d9060000 	stmdble	r6, {}	; <UNPREDICTABLE>
    a074:	0000008c 	andeq	r0, r0, ip, lsl #1
    a078:	06440b50 			; <UNDEFINED> instruction: 0x06440b50
    a07c:	dc060000 	stcle	0, cr0, [r6], {-0}
    a080:	0000043a 	andeq	r0, r0, sl, lsr r4
    a084:	106a0b54 	rsbne	r0, sl, r4, asr fp
    a088:	e0060000 	and	r0, r6, r0
    a08c:	00000110 	andeq	r0, r0, r0, lsl r1
    a090:	06bb0b58 	ssateq	r0, #28, r8, asr #22
    a094:	e2060000 	and	r0, r6, #0
    a098:	00000105 	andeq	r0, r0, r5, lsl #2
    a09c:	049e0b5c 	ldreq	r0, [lr], #2908	; 0xb5c
    a0a0:	e3060000 	movw	r0, #24576	; 0x6000
    a0a4:	00000025 	andeq	r0, r0, r5, lsr #32
    a0a8:	25140064 	ldrcs	r0, [r4, #-100]	; 0xffffff9c
    a0ac:	3a000000 	bcc	a0b4 <__bss_end__+0x124>
    a0b0:	15000004 	strne	r0, [r0, #-4]
    a0b4:	0000043a 	andeq	r0, r0, sl, lsr r4
    a0b8:	00011b15 	andeq	r1, r1, r5, lsl fp
    a0bc:	011d1500 	tsteq	sp, r0, lsl #10
    a0c0:	25150000 	ldrcs	r0, [r5, #-0]
    a0c4:	00000000 	andeq	r0, r0, r0
    a0c8:	0445040d 	strbeq	r0, [r5], #-1037	; 0xfffffbf3
    a0cc:	3a0e0000 	bcc	38a0d4 <__bss_end__+0x380144>
    a0d0:	16000004 	strne	r0, [r0], -r4
    a0d4:	0000071e 	andeq	r0, r0, lr, lsl r7
    a0d8:	38060428 	stmdacc	r6, {r3, r5, sl}
    a0dc:	00057702 	andeq	r7, r5, r2, lsl #14
    a0e0:	065c1700 	ldrbeq	r1, [ip], -r0, lsl #14
    a0e4:	3a060000 	bcc	18a0ec <__bss_end__+0x18015c>
    a0e8:	00002502 	andeq	r2, r0, r2, lsl #10
    a0ec:	68170000 	ldmdavs	r7, {}	; <UNPREDICTABLE>
    a0f0:	06000002 	streq	r0, [r0], -r2
    a0f4:	064c023f 			; <UNDEFINED> instruction: 0x064c023f
    a0f8:	17040000 	strne	r0, [r4, -r0]
    a0fc:	00000397 	muleq	r0, r7, r3
    a100:	4c023f06 	stcmi	15, cr3, [r2], {6}
    a104:	08000006 	stmdaeq	r0, {r1, r2}
    a108:	00032817 	andeq	r2, r3, r7, lsl r8
    a10c:	023f0600 	eorseq	r0, pc, #0, 12
    a110:	0000064c 	andeq	r0, r0, ip, asr #12
    a114:	06f2170c 	ldrbteq	r1, [r2], ip, lsl #14
    a118:	41060000 	mrsmi	r0, (UNDEF: 6)
    a11c:	00002502 	andeq	r2, r0, r2, lsl #10
    a120:	ed171000 	ldc	0, cr1, [r7, #-0]
    a124:	06000000 	streq	r0, [r0], -r0
    a128:	082e0242 	stmdaeq	lr!, {r1, r6, r9}
    a12c:	17140000 	ldrne	r0, [r4, -r0]
    a130:	0000085c 	andeq	r0, r0, ip, asr r8
    a134:	25024406 	strcs	r4, [r2, #-1030]	; 0xfffffbfa
    a138:	30000000 	andcc	r0, r0, r0
    a13c:	0006fc17 	andeq	pc, r6, r7, lsl ip	; <UNPREDICTABLE>
    a140:	02450600 	subeq	r0, r5, #0, 12
    a144:	0000059b 	muleq	r0, fp, r5
    a148:	05921734 	ldreq	r1, [r2, #1844]	; 0x734
    a14c:	47060000 	strmi	r0, [r6, -r0]
    a150:	00002502 	andeq	r2, r0, r2, lsl #10
    a154:	0c173800 	ldceq	8, cr3, [r7], {-0}
    a158:	06000007 	streq	r0, [r0], -r7
    a15c:	08490249 	stmdaeq	r9, {r0, r3, r6, r9}^
    a160:	173c0000 	ldrne	r0, [ip, -r0]!
    a164:	00000466 	andeq	r0, r0, r6, ror #8
    a168:	8d024c06 	stchi	12, cr4, [r2, #-24]	; 0xffffffe8
    a16c:	40000001 	andmi	r0, r0, r1
    a170:	00035d17 	andeq	r5, r3, r7, lsl sp
    a174:	024d0600 	subeq	r0, sp, #0, 12
    a178:	00000025 	andeq	r0, r0, r5, lsr #32
    a17c:	09731744 	ldmdbeq	r3!, {r2, r6, r8, r9, sl, ip}^
    a180:	4e060000 	cdpmi	0, 0, cr0, cr6, cr0, {0}
    a184:	00018d02 	andeq	r8, r1, r2, lsl #26
    a188:	c7174800 	ldrgt	r4, [r7, -r0, lsl #16]
    a18c:	06000005 	streq	r0, [r0], -r5
    a190:	084f024f 	stmdaeq	pc, {r0, r1, r2, r3, r6, r9}^	; <UNPREDICTABLE>
    a194:	174c0000 	strbne	r0, [ip, -r0]
    a198:	0000039f 	muleq	r0, pc, r3	; <UNPREDICTABLE>
    a19c:	25025206 	strcs	r5, [r2, #-518]	; 0xfffffdfa
    a1a0:	50000000 	andpl	r0, r0, r0
    a1a4:	0002a417 	andeq	sl, r2, r7, lsl r4
    a1a8:	02530600 	subseq	r0, r3, #0, 12
    a1ac:	0000011d 	andeq	r0, r0, sp, lsl r1
    a1b0:	112c1754 			; <UNDEFINED> instruction: 0x112c1754
    a1b4:	76060000 	strvc	r0, [r6], -r0
    a1b8:	00080c02 	andeq	r0, r8, r2, lsl #24
    a1bc:	7c185800 	ldcvc	8, cr5, [r8], {-0}
    a1c0:	06000005 	streq	r0, [r0], -r5
    a1c4:	02aa027a 	adceq	r0, sl, #-1610612729	; 0xa0000007
    a1c8:	01480000 	mrseq	r0, (UNDEF: 72)
    a1cc:	00043018 	andeq	r3, r4, r8, lsl r0
    a1d0:	027b0600 	rsbseq	r0, fp, #0, 12
    a1d4:	0000026c 	andeq	r0, r0, ip, ror #4
    a1d8:	e218014c 	ands	r0, r8, #76, 2
    a1dc:	06000008 	streq	r0, [r0], -r8
    a1e0:	0860027f 	stmdaeq	r0!, {r0, r1, r2, r3, r4, r5, r6, r9}^
    a1e4:	02dc0000 	sbcseq	r0, ip, #0
    a1e8:	00022c18 	andeq	r2, r2, r8, lsl ip
    a1ec:	02840600 	addeq	r0, r4, #0, 12
    a1f0:	00000611 	andeq	r0, r0, r1, lsl r6
    a1f4:	111802e0 	tstne	r8, r0, ror #5
    a1f8:	06000002 	streq	r0, [r0], -r2
    a1fc:	086c0285 	stmdaeq	ip!, {r0, r2, r7, r9}^
    a200:	02ec0000 	rsceq	r0, ip, #0
    a204:	1c040d00 	stcne	13, cr0, [r4], {-0}
    a208:	14000004 	strne	r0, [r0], #-4
    a20c:	00000025 	andeq	r0, r0, r5, lsr #32
    a210:	0000059b 	muleq	r0, fp, r5
    a214:	00043a15 	andeq	r3, r4, r5, lsl sl
    a218:	011b1500 	tsteq	fp, r0, lsl #10
    a21c:	9b150000 	blls	54a224 <__bss_end__+0x540294>
    a220:	15000005 	strne	r0, [r0, #-5]
    a224:	00000025 	andeq	r0, r0, r5, lsr #32
    a228:	2a040d00 	bcs	10d630 <__bss_end__+0x1036a0>
    a22c:	0d000001 	stceq	0, cr0, [r0, #-4]
    a230:	00057d04 	andeq	r7, r5, r4, lsl #26
    a234:	00971400 	addseq	r1, r7, r0, lsl #8
    a238:	05c50000 	strbeq	r0, [r5]
    a23c:	3a150000 	bcc	54a244 <__bss_end__+0x5402b4>
    a240:	15000004 	strne	r0, [r0, #-4]
    a244:	0000011b 	andeq	r0, r0, fp, lsl r1
    a248:	00009715 	andeq	r9, r0, r5, lsl r7
    a24c:	00251500 	eoreq	r1, r5, r0, lsl #10
    a250:	0d000000 	stceq	0, cr0, [r0, #-0]
    a254:	0005a704 	andeq	sl, r5, r4, lsl #14
    a258:	00251400 	eoreq	r1, r5, r0, lsl #8
    a25c:	05df0000 	ldrbeq	r0, [pc]	; a264 <__bss_end__+0x2d4>
    a260:	3a150000 	bcc	54a268 <__bss_end__+0x5402d8>
    a264:	15000004 	strne	r0, [r0, #-4]
    a268:	0000011b 	andeq	r0, r0, fp, lsl r1
    a26c:	cb040d00 	blgt	10d674 <__bss_end__+0x1036e4>
    a270:	08000005 	stmdaeq	r0, {r0, r2}
    a274:	0000005a 	andeq	r0, r0, sl, asr r0
    a278:	000005f5 	strdeq	r0, [r0], -r5
    a27c:	0000dd09 	andeq	sp, r0, r9, lsl #26
    a280:	08000200 	stmdaeq	r0, {r9}
    a284:	0000005a 	andeq	r0, r0, sl, asr r0
    a288:	00000605 	andeq	r0, r0, r5, lsl #12
    a28c:	0000dd09 	andeq	sp, r0, r9, lsl #26
    a290:	05000000 	streq	r0, [r0, #-0]
    a294:	00000691 	muleq	r0, r1, r6
    a298:	f2011d06 	vadd.f32	d1, d1, d6
    a29c:	19000002 	stmdbne	r0, {r1}
    a2a0:	000008c1 	andeq	r0, r0, r1, asr #17
    a2a4:	0121060c 			; <UNDEFINED> instruction: 0x0121060c
    a2a8:	00000646 	andeq	r0, r0, r6, asr #12
    a2ac:	0006c917 	andeq	ip, r6, r7, lsl r9
    a2b0:	01230600 			; <UNDEFINED> instruction: 0x01230600
    a2b4:	00000646 	andeq	r0, r0, r6, asr #12
    a2b8:	04001700 	streq	r1, [r0], #-1792	; 0xfffff900
    a2bc:	24060000 	strcs	r0, [r6], #-0
    a2c0:	00002501 	andeq	r2, r0, r1, lsl #10
    a2c4:	8b170400 	blhi	5cb2cc <__bss_end__+0x5c133c>
    a2c8:	06000006 	streq	r0, [r0], -r6
    a2cc:	064c0125 	strbeq	r0, [ip], -r5, lsr #2
    a2d0:	00080000 	andeq	r0, r8, r0
    a2d4:	0611040d 	ldreq	r0, [r1], -sp, lsl #8
    a2d8:	040d0000 	streq	r0, [sp], #-0
    a2dc:	00000605 	andeq	r0, r0, r5, lsl #12
    a2e0:	0000d119 	andeq	sp, r0, r9, lsl r1
    a2e4:	3d060e00 	stccc	14, cr0, [r6, #-0]
    a2e8:	00068701 	andeq	r8, r6, r1, lsl #14
    a2ec:	072e1700 	streq	r1, [lr, -r0, lsl #14]!
    a2f0:	3e060000 	cdpcc	0, 0, cr0, cr6, cr0, {0}
    a2f4:	00068701 	andeq	r8, r6, r1, lsl #14
    a2f8:	d1170000 	tstle	r7, r0
    a2fc:	06000007 	streq	r0, [r0], -r7
    a300:	0687013f 			; <UNDEFINED> instruction: 0x0687013f
    a304:	17060000 	strne	r0, [r6, -r0]
    a308:	00000810 	andeq	r0, r0, r0, lsl r8
    a30c:	61014006 	tstvs	r1, r6
    a310:	0c000000 	stceq	0, cr0, [r0], {-0}
    a314:	00610800 	rsbeq	r0, r1, r0, lsl #16
    a318:	06970000 	ldreq	r0, [r7], r0
    a31c:	dd090000 	stcle	0, cr0, [r9, #-0]
    a320:	02000000 	andeq	r0, r0, #0
    a324:	06d01a00 	ldrbeq	r1, [r0], r0, lsl #20
    a328:	07980257 			; <UNDEFINED> instruction: 0x07980257
    a32c:	8a170000 	bhi	5ca334 <__bss_end__+0x5c03a4>
    a330:	06000008 	streq	r0, [r0], -r8
    a334:	002c0259 	eoreq	r0, ip, r9, asr r2
    a338:	17000000 	strne	r0, [r0, -r0]
    a33c:	000007d7 	ldrdeq	r0, [r0], -r7
    a340:	1d025a06 	vstrne	s10, [r2, #-24]	; 0xffffffe8
    a344:	04000001 	streq	r0, [r0], #-1
    a348:	00044517 	andeq	r4, r4, r7, lsl r5
    a34c:	025b0600 	subseq	r0, fp, #0, 12
    a350:	00000798 	muleq	r0, r8, r7
    a354:	09411708 	stmdbeq	r1, {r3, r8, r9, sl, ip}^
    a358:	5c060000 	stcpl	0, cr0, [r6], {-0}
    a35c:	0001a302 	andeq	sl, r1, r2, lsl #6
    a360:	38172400 	ldmdacc	r7, {sl, sp}
    a364:	06000003 	streq	r0, [r0], -r3
    a368:	0025025d 	eoreq	r0, r5, sp, asr r2
    a36c:	17480000 	strbne	r0, [r8, -r0]
    a370:	000006c4 	andeq	r0, r0, r4, asr #13
    a374:	7a025e06 	bvc	a1b94 <__bss_end__+0x97c04>
    a378:	50000000 	andpl	r0, r0, r0
    a37c:	00095717 	andeq	r5, r9, r7, lsl r7
    a380:	025f0600 	subseq	r0, pc, #0, 12
    a384:	00000652 	andeq	r0, r0, r2, asr r6
    a388:	06e51758 	usateq	r1, #5, r8, asr #14
    a38c:	60060000 	andvs	r0, r6, r0
    a390:	00010502 	andeq	r0, r1, r2, lsl #10
    a394:	65176800 	ldrvs	r6, [r7, #-2048]	; 0xfffff800
    a398:	06000009 	streq	r0, [r0], -r9
    a39c:	01050261 	tsteq	r5, r1, ror #4
    a3a0:	17700000 	ldrbne	r0, [r0, -r0]!
    a3a4:	000001af 	andeq	r0, r0, pc, lsr #3
    a3a8:	05026206 	streq	r6, [r2, #-518]	; 0xfffffdfa
    a3ac:	78000001 	stmdavc	r0, {r0}
    a3b0:	0008d817 	andeq	sp, r8, r7, lsl r8
    a3b4:	02630600 	rsbeq	r0, r3, #0, 12
    a3b8:	000007a8 	andeq	r0, r0, r8, lsr #15
    a3bc:	04391780 	ldrteq	r1, [r9], #-1920	; 0xfffff880
    a3c0:	64060000 	strvs	r0, [r6], #-0
    a3c4:	0007b802 	andeq	fp, r7, r2, lsl #16
    a3c8:	26178800 	ldrcs	r8, [r7], -r0, lsl #16
    a3cc:	06000008 	streq	r0, [r0], -r8
    a3d0:	00250265 	eoreq	r0, r5, r5, ror #4
    a3d4:	17a00000 	strne	r0, [r0, r0]!
    a3d8:	000002dd 	ldrdeq	r0, [r0], -sp
    a3dc:	05026606 	streq	r6, [r2, #-1542]	; 0xfffff9fa
    a3e0:	a4000001 	strge	r0, [r0], #-1
    a3e4:	00018b17 	andeq	r8, r1, r7, lsl fp
    a3e8:	02670600 	rsbeq	r0, r7, #0, 12
    a3ec:	00000105 	andeq	r0, r0, r5, lsl #2
    a3f0:	02c317ac 	sbceq	r1, r3, #172, 14	; 0x2b00000
    a3f4:	68060000 	stmdavs	r6, {}	; <UNPREDICTABLE>
    a3f8:	00010502 	andeq	r0, r1, r2, lsl #10
    a3fc:	2d17b400 	cfldrscs	mvf11, [r7, #-0]
    a400:	06000001 	streq	r0, [r0], -r1
    a404:	01050269 	tsteq	r5, r9, ror #4
    a408:	17bc0000 	ldrne	r0, [ip, r0]!
    a40c:	0000013c 	andeq	r0, r0, ip, lsr r1
    a410:	05026a06 	streq	r6, [r2, #-2566]	; 0xfffff5fa
    a414:	c4000001 	strgt	r0, [r0], #-1
    a418:	00065a17 	andeq	r5, r6, r7, lsl sl
    a41c:	026b0600 	rsbeq	r0, fp, #0, 12
    a420:	00000025 	andeq	r0, r0, r5, lsr #32
    a424:	230800cc 	movwcs	r0, #32972	; 0x80cc
    a428:	a8000001 	stmdage	r0, {r0}
    a42c:	09000007 	stmdbeq	r0, {r0, r1, r2}
    a430:	000000dd 	ldrdeq	r0, [r0], -sp
    a434:	23080019 	movwcs	r0, #32793	; 0x8019
    a438:	b8000001 	stmdalt	r0, {r0}
    a43c:	09000007 	stmdbeq	r0, {r0, r1, r2}
    a440:	000000dd 	ldrdeq	r0, [r0], -sp
    a444:	23080007 	movwcs	r0, #32775	; 0x8007
    a448:	c8000001 	stmdagt	r0, {r0}
    a44c:	09000007 	stmdbeq	r0, {r0, r1, r2}
    a450:	000000dd 	ldrdeq	r0, [r0], -sp
    a454:	f01a0017 			; <UNDEFINED> instruction: 0xf01a0017
    a458:	ec027006 	stc	0, cr7, [r2], {6}
    a45c:	17000007 	strne	r0, [r0, -r7]
    a460:	00000551 	andeq	r0, r0, r1, asr r5
    a464:	ec027306 	stc	3, cr7, [r2], {6}
    a468:	00000007 	andeq	r0, r0, r7
    a46c:	0004f817 	andeq	pc, r4, r7, lsl r8	; <UNPREDICTABLE>
    a470:	02740600 	rsbseq	r0, r4, #0, 12
    a474:	000007fc 	strdeq	r0, [r0], -ip
    a478:	ec080078 	stc	0, cr0, [r8], {120}	; 0x78
    a47c:	fc000002 	stc2	0, cr0, [r0], {2}
    a480:	09000007 	stmdbeq	r0, {r0, r1, r2}
    a484:	000000dd 	ldrdeq	r0, [r0], -sp
    a488:	2c08001d 	stccs	0, cr0, [r8], {29}
    a48c:	0c000000 	stceq	0, cr0, [r0], {-0}
    a490:	09000008 	stmdbeq	r0, {r3}
    a494:	000000dd 	ldrdeq	r0, [r0], -sp
    a498:	f01b001d 			; <UNDEFINED> instruction: 0xf01b001d
    a49c:	2e025506 	cfsh32cs	mvfx5, mvfx2, #6
    a4a0:	1c000008 	stcne	0, cr0, [r0], {8}
    a4a4:	0000071e 	andeq	r0, r0, lr, lsl r7
    a4a8:	97026c06 	strls	r6, [r2, -r6, lsl #24]
    a4ac:	1c000006 	stcne	0, cr0, [r0], {6}
    a4b0:	00000917 	andeq	r0, r0, r7, lsl r9
    a4b4:	c8027506 	stmdagt	r2, {r1, r2, r8, sl, ip, sp, lr}
    a4b8:	00000007 	andeq	r0, r0, r7
    a4bc:	00012308 	andeq	r2, r1, r8, lsl #6
    a4c0:	00083e00 	andeq	r3, r8, r0, lsl #28
    a4c4:	00dd0900 	sbcseq	r0, sp, r0, lsl #18
    a4c8:	00180000 	andseq	r0, r8, r0
    a4cc:	0008491d 	andeq	r4, r8, sp, lsl r9
    a4d0:	043a1500 	ldrteq	r1, [sl], #-1280	; 0xfffffb00
    a4d4:	0d000000 	stceq	0, cr0, [r0, #-0]
    a4d8:	00083e04 	andeq	r3, r8, r4, lsl #28
    a4dc:	8d040d00 	stchi	13, cr0, [r4, #-0]
    a4e0:	1d000001 	stcne	0, cr0, [r0, #-4]
    a4e4:	00000860 	andeq	r0, r0, r0, ror #16
    a4e8:	00002515 	andeq	r2, r0, r5, lsl r5
    a4ec:	040d0000 	streq	r0, [sp], #-0
    a4f0:	00000866 	andeq	r0, r0, r6, ror #16
    a4f4:	0855040d 	ldmdaeq	r5, {r0, r2, r3, sl}^
    a4f8:	05080000 	streq	r0, [r8, #-0]
    a4fc:	7c000006 	stcvc	0, cr0, [r0], {6}
    a500:	09000008 	stmdbeq	r0, {r3}
    a504:	000000dd 	ldrdeq	r0, [r0], -sp
    a508:	501e0002 	andspl	r0, lr, r2
    a50c:	06000008 	streq	r0, [r0], -r8
    a510:	043a02fd 	ldrteq	r0, [sl], #-765	; 0xfffffd03
    a514:	491e0000 	ldmdbmi	lr, {}	; <UNPREDICTABLE>
    a518:	06000008 	streq	r0, [r0], -r8
    a51c:	044002fe 	strbeq	r0, [r0], #-766	; 0xfffffd02
    a520:	25140000 	ldrcs	r0, [r4, #-0]
    a524:	a3000000 	movwge	r0, #0
    a528:	15000008 	strne	r0, [r0, #-8]
    a52c:	00000025 	andeq	r0, r0, r5, lsr #32
    a530:	03671f00 	cmneq	r7, #0, 30
    a534:	1d070000 	stcne	0, cr0, [r7, #-0]
    a538:	000008ae 	andeq	r0, r0, lr, lsr #17
    a53c:	0894040d 	ldmeq	r4, {r0, r2, r3, sl}
    a540:	25140000 	ldrcs	r0, [r4, #-0]
    a544:	c3000000 	movwgt	r0, #0
    a548:	15000008 	strne	r0, [r0, #-8]
    a54c:	0000059b 	muleq	r0, fp, r5
    a550:	0d051f00 	stceq	15, cr1, [r5, #-0]
    a554:	22070000 	andcs	r0, r7, #0
    a558:	000008ce 	andeq	r0, r0, lr, asr #17
    a55c:	08b4040d 	ldmeq	r4!, {r0, r2, r3, sl}
    a560:	0c0a0000 	stceq	0, cr0, [sl], {-0}
    a564:	090b0e08 	stmdbeq	fp, {r3, r9, sl, fp}
    a568:	74100000 	ldrvc	r0, [r0], #-0
    a56c:	0f080078 	svceq	0x00080078
    a570:	0000004f 	andeq	r0, r0, pc, asr #32
    a574:	78721000 	ldmdavc	r2!, {ip}^
    a578:	4f0f0800 	svcmi	0x000f0800
    a57c:	01000000 	mrseq	r0, (UNDEF: 0)
    a580:	000e010b 	andeq	r0, lr, fp, lsl #2
    a584:	68100800 	ldmdavs	r0, {fp}
    a588:	04000000 	streq	r0, [r0], #-0
    a58c:	000e390b 	andeq	r3, lr, fp, lsl #18
    a590:	68110800 	ldmdavs	r1, {fp}
    a594:	08000000 	stmdaeq	r0, {}	; <UNPREDICTABLE>
    a598:	0dc40400 	cfstrdeq	mvd0, [r4]
    a59c:	12080000 	andne	r0, r8, #0
    a5a0:	000008d4 	ldrdeq	r0, [r0], -r4
    a5a4:	000e3420 	andeq	r3, lr, r0, lsr #8
    a5a8:	2c130900 			; <UNDEFINED> instruction: 0x2c130900
    a5ac:	20000000 	andcs	r0, r0, r0
    a5b0:	00000ddc 	ldrdeq	r0, [r0], -ip
    a5b4:	002c1409 	eoreq	r1, ip, r9, lsl #8
    a5b8:	01210000 			; <UNDEFINED> instruction: 0x01210000
    a5bc:	0000005a 	andeq	r0, r0, sl, asr r0
    a5c0:	094b100a 	stmdbeq	fp, {r1, r3, ip}^
    a5c4:	84220000 	strthi	r0, [r2], #-0
    a5c8:	0100000d 	tsteq	r0, sp
    a5cc:	000e2722 	andeq	r2, lr, r2, lsr #14
    a5d0:	4d220200 	sfmmi	f0, 4, [r2, #-0]
    a5d4:	0300000d 	movweq	r0, #13
    a5d8:	0d5b0400 	cfldrdeq	mvd0, [fp, #-0]
    a5dc:	100a0000 	andne	r0, sl, r0
    a5e0:	0000092c 	andeq	r0, r0, ip, lsr #18
    a5e4:	140a140a 	strne	r1, [sl], #-1034	; 0xfffffbf6
    a5e8:	00000983 	andeq	r0, r0, r3, lsl #19
    a5ec:	000dce0b 	andeq	ip, sp, fp, lsl #28
    a5f0:	2c150a00 			; <UNDEFINED> instruction: 0x2c150a00
    a5f4:	00000000 	andeq	r0, r0, r0
    a5f8:	000d910b 	andeq	r9, sp, fp, lsl #2
    a5fc:	4b180a00 	blmi	60ce04 <__bss_end__+0x602e74>
    a600:	04000009 	streq	r0, [r0], #-9
    a604:	000d6e0b 	andeq	r6, sp, fp, lsl #28
    a608:	0b1b0a00 	bleq	6cce10 <__bss_end__+0x6c2e80>
    a60c:	08000009 	stmdaeq	r0, {r0, r3}
    a610:	0d760400 	cfldrdeq	mvd0, [r6, #-0]
    a614:	200a0000 	andcs	r0, sl, r0
    a618:	00000956 	andeq	r0, r0, r6, asr r9
    a61c:	000e0623 	andeq	r0, lr, r3, lsr #12
    a620:	b50c0100 	strlt	r0, [ip, #-256]	; 0xffffff00
    a624:	c4000009 	strgt	r0, [r0], #-9
    a628:	28000095 	stmdacs	r0, {r0, r2, r4, r7}
    a62c:	01000000 	mrseq	r0, (UNDEF: 0)
    a630:	0009b59c 	muleq	r9, ip, r5
    a634:	00632400 	rsbeq	r2, r3, r0, lsl #8
    a638:	09b50d01 	ldmibeq	r5!, {r0, r8, sl, fp}
    a63c:	00000000 	andeq	r0, r0, r0
    a640:	0d000900 	vstreq.16	s0, [r0, #-0]	; <UNPREDICTABLE>
    a644:	00098304 	andeq	r8, r9, r4, lsl #6
    a648:	112a2300 			; <UNDEFINED> instruction: 0x112a2300
    a64c:	05010000 	streq	r0, [r1, #-0]
    a650:	000009b5 			; <UNDEFINED> instruction: 0x000009b5
    a654:	0000959c 	muleq	r0, ip, r5
    a658:	00000028 	andeq	r0, r0, r8, lsr #32
    a65c:	09fd9c01 	ldmibeq	sp!, {r0, sl, fp, ip, pc}^
    a660:	63240000 			; <UNDEFINED> instruction: 0x63240000
    a664:	b5060100 	strlt	r0, [r6, #-256]	; 0xffffff00
    a668:	00000009 	andeq	r0, r0, r9
    a66c:	25090000 	strcs	r0, [r9, #-0]
    a670:	000095b0 			; <UNDEFINED> instruction: 0x000095b0
    a674:	000009fd 	strdeq	r0, [r0], -sp
    a678:	03500126 	cmpeq	r0, #-2147483639	; 0x80000009
    a67c:	26244742 	strtcs	r4, [r4], -r2, asr #14
    a680:	30015101 	andcc	r5, r1, r1, lsl #2
    a684:	01520126 	cmpeq	r2, r6, lsr #2
    a688:	27000034 	smladxcs	r0, r4, r0, r0
    a68c:	0000114c 	andeq	r1, r0, ip, asr #2
    a690:	0000114c 	andeq	r1, r0, ip, asr #2
    a694:	d800190b 	stmdale	r0, {r0, r1, r3, r8, fp, ip}
    a698:	04000008 	streq	r0, [r0], #-8
    a69c:	001f2e00 	andseq	r2, pc, r0, lsl #28
    a6a0:	11010400 	tstne	r1, r0, lsl #8
    a6a4:	0c00000c 	stceq	0, cr0, [r0], {12}
    a6a8:	0000115a 	andeq	r1, r0, sl, asr r1
    a6ac:	00000c78 	andeq	r0, r0, r8, ror ip
    a6b0:	000095ec 	andeq	r9, r0, ip, ror #11
    a6b4:	00000020 	andeq	r0, r0, r0, lsr #32
    a6b8:	00001056 	andeq	r1, r0, r6, asr r0
    a6bc:	69050402 	stmdbvs	r5, {r1, sl}
    a6c0:	0300746e 	movweq	r7, #1134	; 0x46e
    a6c4:	00001153 	andeq	r1, r0, r3, asr r1
    a6c8:	0037d802 	eorseq	sp, r7, r2, lsl #16
    a6cc:	04040000 	streq	r0, [r4], #-0
    a6d0:	00015707 	andeq	r5, r1, r7, lsl #14
    a6d4:	06010400 	streq	r0, [r1], -r0, lsl #8
    a6d8:	00000618 	andeq	r0, r0, r8, lsl r6
    a6dc:	16080104 	strne	r0, [r8], -r4, lsl #2
    a6e0:	04000006 	streq	r0, [r0], #-6
    a6e4:	06630502 	strbteq	r0, [r3], -r2, lsl #10
    a6e8:	02040000 	andeq	r0, r4, #0
    a6ec:	00041d07 	andeq	r1, r4, r7, lsl #26
    a6f0:	05040400 	streq	r0, [r4, #-1024]	; 0xfffffc00
    a6f4:	000001cb 	andeq	r0, r0, fp, asr #3
    a6f8:	52070404 	andpl	r0, r7, #4, 8	; 0x4000000
    a6fc:	04000001 	streq	r0, [r0], #-1
    a700:	01c60508 	biceq	r0, r6, r8, lsl #10
    a704:	08040000 	stmdaeq	r4, {}	; <UNPREDICTABLE>
    a708:	00014d07 	andeq	r4, r1, r7, lsl #26
    a70c:	05e10300 	strbeq	r0, [r1, #768]!	; 0x300
    a710:	07030000 	streq	r0, [r3, -r0]
    a714:	00000025 	andeq	r0, r0, r5, lsr #32
    a718:	00059d03 	andeq	r9, r5, r3, lsl #26
    a71c:	5a2c0400 	bpl	b0b724 <__bss_end__+0xb01794>
    a720:	03000000 	movweq	r0, #0
    a724:	00000761 	andeq	r0, r0, r1, ror #14
    a728:	005a7204 	subseq	r7, sl, r4, lsl #4
    a72c:	81050000 	mrshi	r0, (UNDEF: 5)
    a730:	02000004 	andeq	r0, r0, #4
    a734:	00370165 	eorseq	r0, r7, r5, ror #2
    a738:	04060000 	streq	r0, [r6], #-0
    a73c:	00c2a604 	sbceq	sl, r2, r4, lsl #12
    a740:	6e070000 	cdpvs	0, 0, cr0, cr7, cr0, {0}
    a744:	04000004 	streq	r0, [r0], #-4
    a748:	000097a8 	andeq	r9, r0, r8, lsr #15
    a74c:	03810700 	orreq	r0, r1, #0, 14
    a750:	a9040000 	stmdbge	r4, {}	; <UNPREDICTABLE>
    a754:	000000c2 	andeq	r0, r0, r2, asr #1
    a758:	00450800 	subeq	r0, r5, r0, lsl #16
    a75c:	00d20000 	sbcseq	r0, r2, r0
    a760:	d2090000 	andle	r0, r9, #0
    a764:	03000000 	movweq	r0, #0
    a768:	07040400 	streq	r0, [r4, -r0, lsl #8]
    a76c:	0000050d 	andeq	r0, r0, sp, lsl #10
    a770:	a304080a 	movwge	r0, #18442	; 0x480a
    a774:	000000fa 	strdeq	r0, [r0], -sl
    a778:	00073d0b 	andeq	r3, r7, fp, lsl #26
    a77c:	25a50400 	strcs	r0, [r5, #1024]!	; 0x400
    a780:	00000000 	andeq	r0, r0, r0
    a784:	0007e40b 	andeq	lr, r7, fp, lsl #8
    a788:	a3aa0400 			; <UNDEFINED> instruction: 0xa3aa0400
    a78c:	04000000 	streq	r0, [r0], #-0
    a790:	06980300 	ldreq	r0, [r8], r0, lsl #6
    a794:	ab040000 	blge	10a79c <__bss_end__+0x10080c>
    a798:	000000d9 	ldrdeq	r0, [r0], -r9
    a79c:	00031f03 	andeq	r1, r3, r3, lsl #30
    a7a0:	76af0400 	strtvc	r0, [pc], r0, lsl #8
    a7a4:	0c000000 	stceq	0, cr0, [r0], {-0}
    a7a8:	18040d04 	stmdane	r4, {r2, r8, sl, fp}
    a7ac:	04000001 	streq	r0, [r0], #-1
    a7b0:	061f0801 	ldreq	r0, [pc], -r1, lsl #16
    a7b4:	180e0000 	stmdane	lr, {}	; <UNPREDICTABLE>
    a7b8:	03000001 	movweq	r0, #1
    a7bc:	0000081e 	andeq	r0, r0, lr, lsl r8
    a7c0:	00611605 	rsbeq	r1, r1, r5, lsl #12
    a7c4:	300f0000 	andcc	r0, pc, r0
    a7c8:	18000003 	stmdane	r0, {r0, r1}
    a7cc:	01822d05 	orreq	r2, r2, r5, lsl #26
    a7d0:	c90b0000 	stmdbgt	fp, {}	; <UNPREDICTABLE>
    a7d4:	05000006 	streq	r0, [r0, #-6]
    a7d8:	0001822f 	andeq	r8, r1, pc, lsr #4
    a7dc:	5f100000 	svcpl	0x00100000
    a7e0:	3005006b 	andcc	r0, r5, fp, rrx
    a7e4:	00000025 	andeq	r0, r0, r5, lsr #32
    a7e8:	07160b04 	ldreq	r0, [r6, -r4, lsl #22]
    a7ec:	30050000 	andcc	r0, r5, r0
    a7f0:	00000025 	andeq	r0, r0, r5, lsr #32
    a7f4:	03190b08 	tsteq	r9, #8, 22	; 0x2000
    a7f8:	30050000 	andcc	r0, r5, r0
    a7fc:	00000025 	andeq	r0, r0, r5, lsr #32
    a800:	08b20b0c 	ldmeq	r2!, {r2, r3, r8, r9, fp}
    a804:	30050000 	andcc	r0, r5, r0
    a808:	00000025 	andeq	r0, r0, r5, lsr #32
    a80c:	785f1010 	ldmdavc	pc, {r4, ip}^	; <UNPREDICTABLE>
    a810:	88310500 	ldmdahi	r1!, {r8, sl}
    a814:	14000001 	strne	r0, [r0], #-1
    a818:	2f040d00 	svccs	0x00040d00
    a81c:	08000001 	stmdaeq	r0, {r0}
    a820:	00000124 	andeq	r0, r0, r4, lsr #2
    a824:	00000198 	muleq	r0, r8, r1
    a828:	0000d209 	andeq	sp, r0, r9, lsl #4
    a82c:	0f000000 	svceq	0x00000000
    a830:	00000373 	andeq	r0, r0, r3, ror r3
    a834:	11350524 	teqne	r5, r4, lsr #10
    a838:	0b000002 	bleq	a848 <__bss_end__+0x8b8>
    a83c:	000001bd 			; <UNDEFINED> instruction: 0x000001bd
    a840:	00253705 	eoreq	r3, r5, r5, lsl #14
    a844:	0b000000 	bleq	a84c <__bss_end__+0x8bc>
    a848:	00000789 	andeq	r0, r0, r9, lsl #15
    a84c:	00253805 	eoreq	r3, r5, r5, lsl #16
    a850:	0b040000 	bleq	10a858 <__bss_end__+0x1008c8>
    a854:	00000207 	andeq	r0, r0, r7, lsl #4
    a858:	00253905 	eoreq	r3, r5, r5, lsl #18
    a85c:	0b080000 	bleq	20a864 <__bss_end__+0x2008d4>
    a860:	000009bc 			; <UNDEFINED> instruction: 0x000009bc
    a864:	00253a05 	eoreq	r3, r5, r5, lsl #20
    a868:	0b0c0000 	bleq	30a870 <__bss_end__+0x3008e0>
    a86c:	00000562 	andeq	r0, r0, r2, ror #10
    a870:	00253b05 	eoreq	r3, r5, r5, lsl #22
    a874:	0b100000 	bleq	40a87c <__bss_end__+0x4008ec>
    a878:	000004d0 	ldrdeq	r0, [r0], -r0	; <UNPREDICTABLE>
    a87c:	00253c05 	eoreq	r3, r5, r5, lsl #24
    a880:	0b140000 	bleq	50a888 <__bss_end__+0x5008f8>
    a884:	000008b7 			; <UNDEFINED> instruction: 0x000008b7
    a888:	00253d05 	eoreq	r3, r5, r5, lsl #26
    a88c:	0b180000 	bleq	60a894 <__bss_end__+0x600904>
    a890:	0000066d 	andeq	r0, r0, sp, ror #12
    a894:	00253e05 	eoreq	r3, r5, r5, lsl #28
    a898:	0b1c0000 	bleq	70a8a0 <__bss_end__+0x700910>
    a89c:	00000936 	andeq	r0, r0, r6, lsr r9
    a8a0:	00253f05 	eoreq	r3, r5, r5, lsl #30
    a8a4:	00200000 	eoreq	r0, r0, r0
    a8a8:	00021611 	andeq	r1, r2, r1, lsl r6
    a8ac:	05010800 	streq	r0, [r1, #-2048]	; 0xfffff800
    a8b0:	00025148 	andeq	r5, r2, r8, asr #2
    a8b4:	02eb0b00 	rsceq	r0, fp, #0, 22
    a8b8:	49050000 	stmdbmi	r5, {}	; <UNPREDICTABLE>
    a8bc:	00000251 	andeq	r0, r0, r1, asr r2
    a8c0:	00000b00 	andeq	r0, r0, r0, lsl #22
    a8c4:	4a050000 	bmi	14a8cc <__bss_end__+0x14093c>
    a8c8:	00000251 	andeq	r0, r0, r1, asr r2
    a8cc:	07ab1280 	streq	r1, [fp, r0, lsl #5]!
    a8d0:	4c050000 	stcmi	0, cr0, [r5], {-0}
    a8d4:	00000124 	andeq	r0, r0, r4, lsr #2
    a8d8:	60120100 	andsvs	r0, r2, r0, lsl #2
    a8dc:	05000002 	streq	r0, [r0, #-2]
    a8e0:	0001244f 	andeq	r2, r1, pc, asr #8
    a8e4:	00010400 	andeq	r0, r1, r0, lsl #8
    a8e8:	00011008 	andeq	r1, r1, r8
    a8ec:	00026100 	andeq	r6, r2, r0, lsl #2
    a8f0:	00d20900 	sbcseq	r0, r2, r0, lsl #18
    a8f4:	001f0000 	andseq	r0, pc, r0
    a8f8:	00057c11 	andeq	r7, r5, r1, lsl ip
    a8fc:	05019000 	streq	r9, [r1, #-0]
    a900:	00029f5b 	andeq	r9, r2, fp, asr pc
    a904:	06c90b00 	strbeq	r0, [r9], r0, lsl #22
    a908:	5c050000 	stcpl	0, cr0, [r5], {-0}
    a90c:	0000029f 	muleq	r0, pc, r2	; <UNPREDICTABLE>
    a910:	06f70b00 	ldrbteq	r0, [r7], r0, lsl #22
    a914:	5d050000 	stcpl	0, cr0, [r5, #-0]
    a918:	00000025 	andeq	r0, r0, r5, lsr #32
    a91c:	03140b04 	tsteq	r4, #4, 22	; 0x1000
    a920:	5f050000 	svcpl	0x00050000
    a924:	000002a5 	andeq	r0, r0, r5, lsr #5
    a928:	02160b08 	andseq	r0, r6, #8, 22	; 0x2000
    a92c:	60050000 	andvs	r0, r5, r0
    a930:	00000211 	andeq	r0, r0, r1, lsl r2
    a934:	040d0088 	streq	r0, [sp], #-136	; 0xffffff78
    a938:	00000261 	andeq	r0, r0, r1, ror #4
    a93c:	0002b508 	andeq	fp, r2, r8, lsl #10
    a940:	0002b500 	andeq	fp, r2, r0, lsl #10
    a944:	00d20900 	sbcseq	r0, r2, r0, lsl #18
    a948:	001f0000 	andseq	r0, pc, r0
    a94c:	02bb040d 	adcseq	r0, fp, #218103808	; 0xd000000
    a950:	0f130000 	svceq	0x00130000
    a954:	00000677 	andeq	r0, r0, r7, ror r6
    a958:	e1730508 	cmn	r3, r8, lsl #10
    a95c:	0b000002 	bleq	a96c <__bss_end__+0x9dc>
    a960:	00000201 	andeq	r0, r0, r1, lsl #4
    a964:	02e17405 	rsceq	r7, r1, #83886080	; 0x5000000
    a968:	0b000000 	bleq	a970 <__bss_end__+0x9e0>
    a96c:	000000a6 	andeq	r0, r0, r6, lsr #1
    a970:	00257505 	eoreq	r7, r5, r5, lsl #10
    a974:	00040000 	andeq	r0, r4, r0
    a978:	0045040d 	subeq	r0, r5, sp, lsl #8
    a97c:	a30f0000 	movwge	r0, #61440	; 0xf000
    a980:	68000006 	stmdavs	r0, {r1, r2}
    a984:	0411b305 	ldreq	fp, [r1], #-773	; 0xfffffcfb
    a988:	5f100000 	svcpl	0x00100000
    a98c:	b4050070 	strlt	r0, [r5], #-112	; 0xffffff90
    a990:	000002e1 	andeq	r0, r0, r1, ror #5
    a994:	725f1000 	subsvc	r1, pc, #0
    a998:	25b50500 	ldrcs	r0, [r5, #1280]!	; 0x500
    a99c:	04000000 	streq	r0, [r0], #-0
    a9a0:	00775f10 	rsbseq	r5, r7, r0, lsl pc
    a9a4:	0025b605 	eoreq	fp, r5, r5, lsl #12
    a9a8:	0b080000 	bleq	20a9b0 <__bss_end__+0x200a20>
    a9ac:	00000259 	andeq	r0, r0, r9, asr r2
    a9b0:	004cb705 	subeq	fp, ip, r5, lsl #14
    a9b4:	0b0c0000 	bleq	30a9bc <__bss_end__+0x300a2c>
    a9b8:	000003b2 			; <UNDEFINED> instruction: 0x000003b2
    a9bc:	004cb805 	subeq	fp, ip, r5, lsl #16
    a9c0:	100e0000 	andne	r0, lr, r0
    a9c4:	0066625f 	rsbeq	r6, r6, pc, asr r2
    a9c8:	02bcb905 	adcseq	fp, ip, #81920	; 0x14000
    a9cc:	0b100000 	bleq	40a9d4 <__bss_end__+0x400a44>
    a9d0:	0000016d 	andeq	r0, r0, sp, ror #2
    a9d4:	0025ba05 	eoreq	fp, r5, r5, lsl #20
    a9d8:	0b180000 	bleq	60a9e0 <__bss_end__+0x600a50>
    a9dc:	00000224 	andeq	r0, r0, r4, lsr #4
    a9e0:	0110c105 	tsteq	r0, r5, lsl #2
    a9e4:	0b1c0000 	bleq	70a9ec <__bss_end__+0x700a5c>
    a9e8:	0000089a 	muleq	r0, sl, r8
    a9ec:	056cc305 	strbeq	ip, [ip, #-773]!	; 0xfffffcfb
    a9f0:	0b200000 	bleq	80a9f8 <__bss_end__+0x800a68>
    a9f4:	00000179 	andeq	r0, r0, r9, ror r1
    a9f8:	0596c505 	ldreq	ip, [r6, #1285]	; 0x505
    a9fc:	0b240000 	bleq	90aa04 <__bss_end__+0x900a74>
    aa00:	0000074e 	andeq	r0, r0, lr, asr #14
    aa04:	05bac805 	ldreq	ip, [sl, #2053]!	; 0x805
    aa08:	0b280000 	bleq	a0aa10 <__bss_end__+0xa00a80>
    aa0c:	00000950 	andeq	r0, r0, r0, asr r9
    aa10:	05d4c905 	ldrbeq	ip, [r4, #2309]	; 0x905
    aa14:	102c0000 	eorne	r0, ip, r0
    aa18:	0062755f 	rsbeq	r7, r2, pc, asr r5
    aa1c:	02bccc05 	adcseq	ip, ip, #1280	; 0x500
    aa20:	10300000 	eorsne	r0, r0, r0
    aa24:	0070755f 	rsbseq	r7, r0, pc, asr r5
    aa28:	02e1cd05 	rsceq	ip, r1, #320	; 0x140
    aa2c:	10380000 	eorsne	r0, r8, r0
    aa30:	0072755f 	rsbseq	r7, r2, pc, asr r5
    aa34:	0025ce05 	eoreq	ip, r5, r5, lsl #28
    aa38:	0b3c0000 	bleq	f0aa40 <__bss_end__+0xf00ab0>
    aa3c:	000001f3 	strdeq	r0, [r0], -r3
    aa40:	05dad105 	ldrbeq	sp, [sl, #261]	; 0x105
    aa44:	0b400000 	bleq	100aa4c <__bss_end__+0x1000abc>
    aa48:	00000911 	andeq	r0, r0, r1, lsl r9
    aa4c:	05ead205 	strbeq	sp, [sl, #517]!	; 0x205
    aa50:	10430000 	subne	r0, r3, r0
    aa54:	00626c5f 	rsbeq	r6, r2, pc, asr ip
    aa58:	02bcd505 	adcseq	sp, ip, #20971520	; 0x1400000
    aa5c:	0b440000 	bleq	110aa64 <__bss_end__+0x1100ad4>
    aa60:	00000276 	andeq	r0, r0, r6, ror r2
    aa64:	0025d805 	eoreq	sp, r5, r5, lsl #16
    aa68:	0b4c0000 	bleq	130aa70 <__bss_end__+0x1300ae0>
    aa6c:	000002ac 	andeq	r0, r0, ip, lsr #5
    aa70:	0081d905 	addeq	sp, r1, r5, lsl #18
    aa74:	0b500000 	bleq	140aa7c <__bss_end__+0x1400aec>
    aa78:	00000644 	andeq	r0, r0, r4, asr #12
    aa7c:	042fdc05 	strteq	sp, [pc], #-3077	; aa84 <__bss_end__+0xaf4>
    aa80:	0b540000 	bleq	150aa88 <__bss_end__+0x1500af8>
    aa84:	0000106a 	andeq	r1, r0, sl, rrx
    aa88:	0105e005 	tsteq	r5, r5
    aa8c:	0b580000 	bleq	160aa94 <__bss_end__+0x1600b04>
    aa90:	000006bb 			; <UNDEFINED> instruction: 0x000006bb
    aa94:	00fae205 	rscseq	lr, sl, r5, lsl #4
    aa98:	0b5c0000 	bleq	170aaa0 <__bss_end__+0x1700b10>
    aa9c:	0000049e 	muleq	r0, lr, r4
    aaa0:	0025e305 	eoreq	lr, r5, r5, lsl #6
    aaa4:	00640000 	rsbeq	r0, r4, r0
    aaa8:	00002514 	andeq	r2, r0, r4, lsl r5
    aaac:	00042f00 	andeq	r2, r4, r0, lsl #30
    aab0:	042f1500 	strteq	r1, [pc], #-1280	; aab8 <__bss_end__+0xb28>
    aab4:	10150000 	andsne	r0, r5, r0
    aab8:	15000001 	strne	r0, [r0, #-1]
    aabc:	00000112 	andeq	r0, r0, r2, lsl r1
    aac0:	00002515 	andeq	r2, r0, r5, lsl r5
    aac4:	040d0000 	streq	r0, [sp], #-0
    aac8:	0000043a 	andeq	r0, r0, sl, lsr r4
    aacc:	00042f0e 	andeq	r2, r4, lr, lsl #30
    aad0:	071e1600 	ldreq	r1, [lr, -r0, lsl #12]
    aad4:	04280000 	strteq	r0, [r8], #-0
    aad8:	6c023805 	stcvs	8, cr3, [r2], {5}
    aadc:	17000005 	strne	r0, [r0, -r5]
    aae0:	0000065c 	andeq	r0, r0, ip, asr r6
    aae4:	25023a05 	strcs	r3, [r2, #-2565]	; 0xfffff5fb
    aae8:	00000000 	andeq	r0, r0, r0
    aaec:	00026817 	andeq	r6, r2, r7, lsl r8
    aaf0:	023f0500 	eorseq	r0, pc, #0, 10
    aaf4:	00000641 	andeq	r0, r0, r1, asr #12
    aaf8:	03971704 	orrseq	r1, r7, #4, 14	; 0x100000
    aafc:	3f050000 	svccc	0x00050000
    ab00:	00064102 	andeq	r4, r6, r2, lsl #2
    ab04:	28170800 	ldmdacs	r7, {fp}
    ab08:	05000003 	streq	r0, [r0, #-3]
    ab0c:	0641023f 			; <UNDEFINED> instruction: 0x0641023f
    ab10:	170c0000 	strne	r0, [ip, -r0]
    ab14:	000006f2 	strdeq	r0, [r0], -r2
    ab18:	25024105 	strcs	r4, [r2, #-261]	; 0xfffffefb
    ab1c:	10000000 	andne	r0, r0, r0
    ab20:	0000ed17 	andeq	lr, r0, r7, lsl sp
    ab24:	02420500 	subeq	r0, r2, #0, 10
    ab28:	00000823 	andeq	r0, r0, r3, lsr #16
    ab2c:	085c1714 	ldmdaeq	ip, {r2, r4, r8, r9, sl, ip}^
    ab30:	44050000 	strmi	r0, [r5], #-0
    ab34:	00002502 	andeq	r2, r0, r2, lsl #10
    ab38:	fc173000 	ldc2	0, cr3, [r7], {-0}
    ab3c:	05000006 	streq	r0, [r0, #-6]
    ab40:	05900245 	ldreq	r0, [r0, #581]	; 0x245
    ab44:	17340000 	ldrne	r0, [r4, -r0]!
    ab48:	00000592 	muleq	r0, r2, r5
    ab4c:	25024705 	strcs	r4, [r2, #-1797]	; 0xfffff8fb
    ab50:	38000000 	stmdacc	r0, {}	; <UNPREDICTABLE>
    ab54:	00070c17 	andeq	r0, r7, r7, lsl ip
    ab58:	02490500 	subeq	r0, r9, #0, 10
    ab5c:	0000083e 	andeq	r0, r0, lr, lsr r8
    ab60:	0466173c 	strbteq	r1, [r6], #-1852	; 0xfffff8c4
    ab64:	4c050000 	stcmi	0, cr0, [r5], {-0}
    ab68:	00018202 	andeq	r8, r1, r2, lsl #4
    ab6c:	5d174000 	ldcpl	0, cr4, [r7, #-0]
    ab70:	05000003 	streq	r0, [r0, #-3]
    ab74:	0025024d 	eoreq	r0, r5, sp, asr #4
    ab78:	17440000 	strbne	r0, [r4, -r0]
    ab7c:	00000973 	andeq	r0, r0, r3, ror r9
    ab80:	82024e05 	andhi	r4, r2, #5, 28	; 0x50
    ab84:	48000001 	stmdami	r0, {r0}
    ab88:	0005c717 	andeq	ip, r5, r7, lsl r7
    ab8c:	024f0500 	subeq	r0, pc, #0, 10
    ab90:	00000844 	andeq	r0, r0, r4, asr #16
    ab94:	039f174c 	orrseq	r1, pc, #76, 14	; 0x1300000
    ab98:	52050000 	andpl	r0, r5, #0
    ab9c:	00002502 	andeq	r2, r0, r2, lsl #10
    aba0:	a4175000 	ldrge	r5, [r7], #-0
    aba4:	05000002 	streq	r0, [r0, #-2]
    aba8:	01120253 	tsteq	r2, r3, asr r2
    abac:	17540000 	ldrbne	r0, [r4, -r0]
    abb0:	0000112c 	andeq	r1, r0, ip, lsr #2
    abb4:	01027605 	tsteq	r2, r5, lsl #12
    abb8:	58000008 	stmdapl	r0, {r3}
    abbc:	00057c18 	andeq	r7, r5, r8, lsl ip
    abc0:	027a0500 	rsbseq	r0, sl, #0, 10
    abc4:	0000029f 	muleq	r0, pc, r2	; <UNPREDICTABLE>
    abc8:	30180148 	andscc	r0, r8, r8, asr #2
    abcc:	05000004 	streq	r0, [r0, #-4]
    abd0:	0261027b 	rsbeq	r0, r1, #-1342177273	; 0xb0000007
    abd4:	014c0000 	mrseq	r0, (UNDEF: 76)
    abd8:	0008e218 	andeq	lr, r8, r8, lsl r2
    abdc:	027f0500 	rsbseq	r0, pc, #0, 10
    abe0:	00000855 	andeq	r0, r0, r5, asr r8
    abe4:	2c1802dc 	lfmcs	f0, 4, [r8], {220}	; 0xdc
    abe8:	05000002 	streq	r0, [r0, #-2]
    abec:	06060284 	streq	r0, [r6], -r4, lsl #5
    abf0:	02e00000 	rsceq	r0, r0, #0
    abf4:	00021118 	andeq	r1, r2, r8, lsl r1
    abf8:	02850500 	addeq	r0, r5, #0, 10
    abfc:	00000861 	andeq	r0, r0, r1, ror #16
    ac00:	0d0002ec 	sfmeq	f0, 4, [r0, #-944]	; 0xfffffc50
    ac04:	00041104 	andeq	r1, r4, r4, lsl #2
    ac08:	00251400 	eoreq	r1, r5, r0, lsl #8
    ac0c:	05900000 	ldreq	r0, [r0]
    ac10:	2f150000 	svccs	0x00150000
    ac14:	15000004 	strne	r0, [r0, #-4]
    ac18:	00000110 	andeq	r0, r0, r0, lsl r1
    ac1c:	00059015 	andeq	r9, r5, r5, lsl r0
    ac20:	00251500 	eoreq	r1, r5, r0, lsl #10
    ac24:	0d000000 	stceq	0, cr0, [r0, #-0]
    ac28:	00011f04 	andeq	r1, r1, r4, lsl #30
    ac2c:	72040d00 	andvc	r0, r4, #0, 26
    ac30:	14000005 	strne	r0, [r0], #-5
    ac34:	0000008c 	andeq	r0, r0, ip, lsl #1
    ac38:	000005ba 			; <UNDEFINED> instruction: 0x000005ba
    ac3c:	00042f15 	andeq	r2, r4, r5, lsl pc
    ac40:	01101500 	tsteq	r0, r0, lsl #10
    ac44:	8c150000 	ldchi	0, cr0, [r5], {-0}
    ac48:	15000000 	strne	r0, [r0, #-0]
    ac4c:	00000025 	andeq	r0, r0, r5, lsr #32
    ac50:	9c040d00 	stcls	13, cr0, [r4], {-0}
    ac54:	14000005 	strne	r0, [r0], #-5
    ac58:	00000025 	andeq	r0, r0, r5, lsr #32
    ac5c:	000005d4 	ldrdeq	r0, [r0], -r4
    ac60:	00042f15 	andeq	r2, r4, r5, lsl pc
    ac64:	01101500 	tsteq	r0, r0, lsl #10
    ac68:	0d000000 	stceq	0, cr0, [r0, #-0]
    ac6c:	0005c004 	andeq	ip, r5, r4
    ac70:	00450800 	subeq	r0, r5, r0, lsl #16
    ac74:	05ea0000 	strbeq	r0, [sl, #0]!
    ac78:	d2090000 	andle	r0, r9, #0
    ac7c:	02000000 	andeq	r0, r0, #0
    ac80:	00450800 	subeq	r0, r5, r0, lsl #16
    ac84:	05fa0000 	ldrbeq	r0, [sl, #0]!
    ac88:	d2090000 	andle	r0, r9, #0
    ac8c:	00000000 	andeq	r0, r0, r0
    ac90:	06910500 	ldreq	r0, [r1], r0, lsl #10
    ac94:	1d050000 	stcne	0, cr0, [r5, #-0]
    ac98:	0002e701 	andeq	lr, r2, r1, lsl #14
    ac9c:	08c11900 	stmiaeq	r1, {r8, fp, ip}^
    aca0:	050c0000 	streq	r0, [ip, #-0]
    aca4:	063b0121 	ldrteq	r0, [fp], -r1, lsr #2
    aca8:	c9170000 	ldmdbgt	r7, {}	; <UNPREDICTABLE>
    acac:	05000006 	streq	r0, [r0, #-6]
    acb0:	063b0123 	ldrteq	r0, [fp], -r3, lsr #2
    acb4:	17000000 	strne	r0, [r0, -r0]
    acb8:	00000400 	andeq	r0, r0, r0, lsl #8
    acbc:	25012405 	strcs	r2, [r1, #-1029]	; 0xfffffbfb
    acc0:	04000000 	streq	r0, [r0], #-0
    acc4:	00068b17 	andeq	r8, r6, r7, lsl fp
    acc8:	01250500 			; <UNDEFINED> instruction: 0x01250500
    accc:	00000641 	andeq	r0, r0, r1, asr #12
    acd0:	040d0008 	streq	r0, [sp], #-8
    acd4:	00000606 	andeq	r0, r0, r6, lsl #12
    acd8:	05fa040d 	ldrbeq	r0, [sl, #1037]!	; 0x40d
    acdc:	d1190000 	tstle	r9, r0
    ace0:	0e000000 	cdpeq	0, 0, cr0, cr0, cr0, {0}
    ace4:	7c013d05 	stcvc	13, cr3, [r1], {5}
    ace8:	17000006 	strne	r0, [r0, -r6]
    acec:	0000072e 	andeq	r0, r0, lr, lsr #14
    acf0:	7c013e05 	stcvc	14, cr3, [r1], {5}
    acf4:	00000006 	andeq	r0, r0, r6
    acf8:	0007d117 	andeq	sp, r7, r7, lsl r1
    acfc:	013f0500 	teqeq	pc, r0, lsl #10
    ad00:	0000067c 	andeq	r0, r0, ip, ror r6
    ad04:	08101706 	ldmdaeq	r0, {r1, r2, r8, r9, sl, ip}
    ad08:	40050000 	andmi	r0, r5, r0
    ad0c:	00005301 	andeq	r5, r0, r1, lsl #6
    ad10:	08000c00 	stmdaeq	r0, {sl, fp}
    ad14:	00000053 	andeq	r0, r0, r3, asr r0
    ad18:	0000068c 	andeq	r0, r0, ip, lsl #13
    ad1c:	0000d209 	andeq	sp, r0, r9, lsl #4
    ad20:	1a000200 	bne	b528 <__bss_end__+0x1598>
    ad24:	025705d0 	subseq	r0, r7, #208, 10	; 0x34000000
    ad28:	0000078d 	andeq	r0, r0, sp, lsl #15
    ad2c:	00088a17 	andeq	r8, r8, r7, lsl sl
    ad30:	02590500 	subseq	r0, r9, #0, 10
    ad34:	00000037 	andeq	r0, r0, r7, lsr r0
    ad38:	07d71700 	ldrbeq	r1, [r7, r0, lsl #14]
    ad3c:	5a050000 	bpl	14ad44 <__bss_end__+0x140db4>
    ad40:	00011202 	andeq	r1, r1, r2, lsl #4
    ad44:	45170400 	ldrmi	r0, [r7, #-1024]	; 0xfffffc00
    ad48:	05000004 	streq	r0, [r0, #-4]
    ad4c:	078d025b 			; <UNDEFINED> instruction: 0x078d025b
    ad50:	17080000 	strne	r0, [r8, -r0]
    ad54:	00000941 	andeq	r0, r0, r1, asr #18
    ad58:	98025c05 	stmdals	r2, {r0, r2, sl, fp, ip, lr}
    ad5c:	24000001 	strcs	r0, [r0], #-1
    ad60:	00033817 	andeq	r3, r3, r7, lsl r8
    ad64:	025d0500 	subseq	r0, sp, #0, 10
    ad68:	00000025 	andeq	r0, r0, r5, lsr #32
    ad6c:	06c41748 	strbeq	r1, [r4], r8, asr #14
    ad70:	5e050000 	cdppl	0, 0, cr0, cr5, cr0, {0}
    ad74:	00006f02 	andeq	r6, r0, r2, lsl #30
    ad78:	57175000 	ldrpl	r5, [r7, -r0]
    ad7c:	05000009 	streq	r0, [r0, #-9]
    ad80:	0647025f 			; <UNDEFINED> instruction: 0x0647025f
    ad84:	17580000 	ldrbne	r0, [r8, -r0]
    ad88:	000006e5 	andeq	r0, r0, r5, ror #13
    ad8c:	fa026005 	blx	a2da8 <__bss_end__+0x98e18>
    ad90:	68000000 	stmdavs	r0, {}	; <UNPREDICTABLE>
    ad94:	00096517 	andeq	r6, r9, r7, lsl r5
    ad98:	02610500 	rsbeq	r0, r1, #0, 10
    ad9c:	000000fa 	strdeq	r0, [r0], -sl
    ada0:	01af1770 			; <UNDEFINED> instruction: 0x01af1770
    ada4:	62050000 	andvs	r0, r5, #0
    ada8:	0000fa02 	andeq	pc, r0, r2, lsl #20
    adac:	d8177800 	ldmdale	r7, {fp, ip, sp, lr}
    adb0:	05000008 	streq	r0, [r0, #-8]
    adb4:	079d0263 	ldreq	r0, [sp, r3, ror #4]
    adb8:	17800000 	strne	r0, [r0, r0]
    adbc:	00000439 	andeq	r0, r0, r9, lsr r4
    adc0:	ad026405 	cfstrsge	mvf6, [r2, #-20]	; 0xffffffec
    adc4:	88000007 	stmdahi	r0, {r0, r1, r2}
    adc8:	00082617 	andeq	r2, r8, r7, lsl r6
    adcc:	02650500 	rsbeq	r0, r5, #0, 10
    add0:	00000025 	andeq	r0, r0, r5, lsr #32
    add4:	02dd17a0 	sbcseq	r1, sp, #160, 14	; 0x2800000
    add8:	66050000 	strvs	r0, [r5], -r0
    addc:	0000fa02 	andeq	pc, r0, r2, lsl #20
    ade0:	8b17a400 	blhi	5f3de8 <__bss_end__+0x5e9e58>
    ade4:	05000001 	streq	r0, [r0, #-1]
    ade8:	00fa0267 	rscseq	r0, sl, r7, ror #4
    adec:	17ac0000 	strne	r0, [ip, r0]!
    adf0:	000002c3 	andeq	r0, r0, r3, asr #5
    adf4:	fa026805 	blx	a4e10 <__bss_end__+0x9ae80>
    adf8:	b4000000 	strlt	r0, [r0], #-0
    adfc:	00012d17 	andeq	r2, r1, r7, lsl sp
    ae00:	02690500 	rsbeq	r0, r9, #0, 10
    ae04:	000000fa 	strdeq	r0, [r0], -sl
    ae08:	013c17bc 	teqeq	ip, ip	; <illegal shifter operand>
    ae0c:	6a050000 	bvs	14ae14 <__bss_end__+0x140e84>
    ae10:	0000fa02 	andeq	pc, r0, r2, lsl #20
    ae14:	5a17c400 	bpl	5fbe1c <__bss_end__+0x5f1e8c>
    ae18:	05000006 	streq	r0, [r0, #-6]
    ae1c:	0025026b 	eoreq	r0, r5, fp, ror #4
    ae20:	00cc0000 	sbceq	r0, ip, r0
    ae24:	00011808 	andeq	r1, r1, r8, lsl #16
    ae28:	00079d00 	andeq	r9, r7, r0, lsl #26
    ae2c:	00d20900 	sbcseq	r0, r2, r0, lsl #18
    ae30:	00190000 	andseq	r0, r9, r0
    ae34:	00011808 	andeq	r1, r1, r8, lsl #16
    ae38:	0007ad00 	andeq	sl, r7, r0, lsl #26
    ae3c:	00d20900 	sbcseq	r0, r2, r0, lsl #18
    ae40:	00070000 	andeq	r0, r7, r0
    ae44:	00011808 	andeq	r1, r1, r8, lsl #16
    ae48:	0007bd00 	andeq	fp, r7, r0, lsl #26
    ae4c:	00d20900 	sbcseq	r0, r2, r0, lsl #18
    ae50:	00170000 	andseq	r0, r7, r0
    ae54:	7005f01a 	andvc	pc, r5, sl, lsl r0	; <UNPREDICTABLE>
    ae58:	0007e102 	andeq	lr, r7, r2, lsl #2
    ae5c:	05511700 	ldrbeq	r1, [r1, #-1792]	; 0xfffff900
    ae60:	73050000 	movwvc	r0, #20480	; 0x5000
    ae64:	0007e102 	andeq	lr, r7, r2, lsl #2
    ae68:	f8170000 			; <UNDEFINED> instruction: 0xf8170000
    ae6c:	05000004 	streq	r0, [r0, #-4]
    ae70:	07f10274 			; <UNDEFINED> instruction: 0x07f10274
    ae74:	00780000 	rsbseq	r0, r8, r0
    ae78:	0002e108 	andeq	lr, r2, r8, lsl #2
    ae7c:	0007f100 	andeq	pc, r7, r0, lsl #2
    ae80:	00d20900 	sbcseq	r0, r2, r0, lsl #18
    ae84:	001d0000 	andseq	r0, sp, r0
    ae88:	00003708 	andeq	r3, r0, r8, lsl #14
    ae8c:	00080100 	andeq	r0, r8, r0, lsl #2
    ae90:	00d20900 	sbcseq	r0, r2, r0, lsl #18
    ae94:	001d0000 	andseq	r0, sp, r0
    ae98:	5505f01b 	strpl	pc, [r5, #-27]	; 0xffffffe5
    ae9c:	00082302 	andeq	r2, r8, r2, lsl #6
    aea0:	071e1c00 	ldreq	r1, [lr, -r0, lsl #24]
    aea4:	6c050000 	stcvs	0, cr0, [r5], {-0}
    aea8:	00068c02 	andeq	r8, r6, r2, lsl #24
    aeac:	09171c00 	ldmdbeq	r7, {sl, fp, ip}
    aeb0:	75050000 	strvc	r0, [r5, #-0]
    aeb4:	0007bd02 	andeq	fp, r7, r2, lsl #26
    aeb8:	18080000 	stmdane	r8, {}	; <UNPREDICTABLE>
    aebc:	33000001 	movwcc	r0, #1
    aec0:	09000008 	stmdbeq	r0, {r3}
    aec4:	000000d2 	ldrdeq	r0, [r0], -r2
    aec8:	3e1d0018 	mrccc	0, 0, r0, cr13, cr8, {0}
    aecc:	15000008 	strne	r0, [r0, #-8]
    aed0:	0000042f 	andeq	r0, r0, pc, lsr #8
    aed4:	33040d00 	movwcc	r0, #19712	; 0x4d00
    aed8:	0d000008 	stceq	0, cr0, [r0, #-32]	; 0xffffffe0
    aedc:	00018204 	andeq	r8, r1, r4, lsl #4
    aee0:	08551d00 	ldmdaeq	r5, {r8, sl, fp, ip}^
    aee4:	25150000 	ldrcs	r0, [r5, #-0]
    aee8:	00000000 	andeq	r0, r0, r0
    aeec:	085b040d 	ldmdaeq	fp, {r0, r2, r3, sl}^
    aef0:	040d0000 	streq	r0, [sp], #-0
    aef4:	0000084a 	andeq	r0, r0, sl, asr #16
    aef8:	0005fa08 	andeq	pc, r5, r8, lsl #20
    aefc:	00087100 	andeq	r7, r8, r0, lsl #2
    af00:	00d20900 	sbcseq	r0, r2, r0, lsl #18
    af04:	00020000 	andeq	r0, r2, r0
    af08:	0008501e 	andeq	r5, r8, lr, lsl r0
    af0c:	02fd0500 	rscseq	r0, sp, #0, 10
    af10:	0000042f 	andeq	r0, r0, pc, lsr #8
    af14:	0008491e 	andeq	r4, r8, lr, lsl r9
    af18:	02fe0500 	rscseq	r0, lr, #0, 10
    af1c:	00000435 	andeq	r0, r0, r5, lsr r4
    af20:	00114c1f 	andseq	r4, r1, pc, lsl ip
    af24:	10190600 	andsne	r0, r9, r0, lsl #12
    af28:	ec000001 	stc	0, cr0, [r0], {1}
    af2c:	20000095 	mulcs	r0, r5, r0
    af30:	01000000 	mrseq	r0, (UNDEF: 0)
    af34:	705f209c 			; <UNDEFINED> instruction: 0x705f209c
    af38:	10030100 	andne	r0, r3, r0, lsl #2
    af3c:	01000001 	tsteq	r0, r1
    af40:	00632050 	rsbeq	r2, r3, r0, asr r0
    af44:	00250301 	eoreq	r0, r5, r1, lsl #6
    af48:	51010000 	mrspl	r0, (UNDEF: 1)
    af4c:	01006e21 	tsteq	r0, r1, lsr #28
    af50:	00002c03 	andeq	r2, r0, r3, lsl #24
    af54:	00116900 	andseq	r6, r1, r0, lsl #18
    af58:	00702200 	rsbseq	r2, r0, r0, lsl #4
    af5c:	01120401 	tsteq	r2, r1, lsl #8
    af60:	118a0000 	orrne	r0, sl, r0
    af64:	65230000 	strvs	r0, [r3, #-0]!
    af68:	12040100 	andne	r0, r4, #0, 2
    af6c:	01000001 	tsteq	r0, r1
    af70:	Address 0x000000000000af70 is out of bounds.


Disassembly of section .debug_abbrev:

00000000 <.debug_abbrev>:
       0:	25011101 	strcs	r1, [r1, #-257]	; 0xfffffeff
       4:	030b130e 	movweq	r1, #45838	; 0xb30e
       8:	110e1b0e 	tstne	lr, lr, lsl #22
       c:	10061201 	andne	r1, r6, r1, lsl #4
      10:	02000017 	andeq	r0, r0, #23
      14:	0b0b0024 	bleq	2c00ac <__bss_end__+0x2b611c>
      18:	08030b3e 	stmdaeq	r3, {r1, r2, r3, r4, r5, r8, r9, fp}
      1c:	24030000 	strcs	r0, [r3], #-0
      20:	3e0b0b00 	vmlacc.f64	d0, d11, d0
      24:	000e030b 	andeq	r0, lr, fp, lsl #6
      28:	00160400 	andseq	r0, r6, r0, lsl #8
      2c:	0b3a0e03 	bleq	e83840 <__bss_end__+0xe798b0>
      30:	13490b3b 	movtne	r0, #39739	; 0x9b3b
      34:	16050000 	strne	r0, [r5], -r0
      38:	3a0e0300 	bcc	380c40 <__bss_end__+0x376cb0>
      3c:	49053b0b 	stmdbmi	r5, {r0, r1, r3, r8, r9, fp, ip, sp}
      40:	06000013 			; <UNDEFINED> instruction: 0x06000013
      44:	0b0b0117 	bleq	2c04a8 <__bss_end__+0x2b6518>
      48:	0b3b0b3a 	bleq	ec2d38 <__bss_end__+0xeb8da8>
      4c:	00001301 	andeq	r1, r0, r1, lsl #6
      50:	03000d07 	movweq	r0, #3335	; 0xd07
      54:	3b0b3a0e 	blcc	2ce894 <__bss_end__+0x2c4904>
      58:	0013490b 	andseq	r4, r3, fp, lsl #18
      5c:	01010800 	tsteq	r1, r0, lsl #16
      60:	13011349 	movwne	r1, #4937	; 0x1349
      64:	21090000 	mrscs	r0, (UNDEF: 9)
      68:	2f134900 	svccs	0x00134900
      6c:	0a00000b 	beq	a0 <_start-0x7f60>
      70:	0b0b0113 	bleq	2c04c4 <__bss_end__+0x2b6534>
      74:	0b3b0b3a 	bleq	ec2d64 <__bss_end__+0xeb8dd4>
      78:	00001301 	andeq	r1, r0, r1, lsl #6
      7c:	03000d0b 	movweq	r0, #3339	; 0xd0b
      80:	3b0b3a0e 	blcc	2ce8c0 <__bss_end__+0x2c4930>
      84:	3813490b 	ldmdacc	r3, {r0, r1, r3, r8, fp, lr}
      88:	0c00000b 	stceq	0, cr0, [r0], {11}
      8c:	0b0b000f 	bleq	2c00d0 <__bss_end__+0x2b6140>
      90:	0f0d0000 	svceq	0x000d0000
      94:	490b0b00 	stmdbmi	fp, {r8, r9, fp}
      98:	0e000013 	mcreq	0, 0, r0, cr0, cr3, {0}
      9c:	13490026 	movtne	r0, #36902	; 0x9026
      a0:	130f0000 	movwne	r0, #61440	; 0xf000
      a4:	0b0e0301 	bleq	380cb0 <__bss_end__+0x376d20>
      a8:	3b0b3a0b 	blcc	2ce8dc <__bss_end__+0x2c494c>
      ac:	0013010b 	andseq	r0, r3, fp, lsl #2
      b0:	000d1000 	andeq	r1, sp, r0
      b4:	0b3a0803 	bleq	e820c8 <__bss_end__+0xe78138>
      b8:	13490b3b 	movtne	r0, #39739	; 0x9b3b
      bc:	00000b38 	andeq	r0, r0, r8, lsr fp
      c0:	03011311 	movweq	r1, #4881	; 0x1311
      c4:	3a050b0e 	bcc	142d04 <__bss_end__+0x138d74>
      c8:	010b3b0b 	tsteq	fp, fp, lsl #22
      cc:	12000013 	andne	r0, r0, #19
      d0:	0e03000d 	cdpeq	0, 0, cr0, cr3, cr13, {0}
      d4:	0b3b0b3a 	bleq	ec2dc4 <__bss_end__+0xeb8e34>
      d8:	05381349 	ldreq	r1, [r8, #-841]!	; 0xfffffcb7
      dc:	15130000 	ldrne	r0, [r3, #-0]
      e0:	00192700 	andseq	r2, r9, r0, lsl #14
      e4:	01151400 	tsteq	r5, r0, lsl #8
      e8:	13491927 	movtne	r1, #39207	; 0x9927
      ec:	00001301 	andeq	r1, r0, r1, lsl #6
      f0:	49000515 	stmdbmi	r0, {r0, r2, r4, r8, sl}
      f4:	16000013 			; <UNDEFINED> instruction: 0x16000013
      f8:	0e030113 	mcreq	1, 0, r0, cr3, cr3, {0}
      fc:	0b3a050b 	bleq	e81530 <__bss_end__+0xe775a0>
     100:	1301053b 	movwne	r0, #5435	; 0x153b
     104:	0d170000 	ldceq	0, cr0, [r7, #-0]
     108:	3a0e0300 	bcc	380d10 <__bss_end__+0x376d80>
     10c:	49053b0b 	stmdbmi	r5, {r0, r1, r3, r8, r9, fp, ip, sp}
     110:	000b3813 	andeq	r3, fp, r3, lsl r8
     114:	000d1800 	andeq	r1, sp, r0, lsl #16
     118:	0b3a0e03 	bleq	e8392c <__bss_end__+0xe7999c>
     11c:	1349053b 	movtne	r0, #38203	; 0x953b
     120:	00000538 	andeq	r0, r0, r8, lsr r5
     124:	03011319 	movweq	r1, #4889	; 0x1319
     128:	3a0b0b0e 	bcc	2c2d68 <__bss_end__+0x2b8dd8>
     12c:	01053b0b 	tsteq	r5, fp, lsl #22
     130:	1a000013 	bne	184 <_start-0x7e7c>
     134:	0b0b0113 	bleq	2c0588 <__bss_end__+0x2b65f8>
     138:	053b0b3a 	ldreq	r0, [fp, #-2874]!	; 0xfffff4c6
     13c:	00001301 	andeq	r1, r0, r1, lsl #6
     140:	0b01171b 	bleq	45db4 <__bss_end__+0x3be24>
     144:	3b0b3a0b 	blcc	2ce978 <__bss_end__+0x2c49e8>
     148:	00130105 	andseq	r0, r3, r5, lsl #2
     14c:	000d1c00 	andeq	r1, sp, r0, lsl #24
     150:	0b3a0e03 	bleq	e83964 <__bss_end__+0xe799d4>
     154:	1349053b 	movtne	r0, #38203	; 0x953b
     158:	151d0000 	ldrne	r0, [sp, #-0]
     15c:	01192701 	tsteq	r9, r1, lsl #14
     160:	1e000013 	mcrne	0, 0, r0, cr0, cr3, {0}
     164:	0e030034 	mcreq	0, 0, r0, cr3, cr4, {1}
     168:	053b0b3a 	ldreq	r0, [fp, #-2874]!	; 0xfffff4c6
     16c:	193f1349 	ldmdbne	pc!, {r0, r3, r6, r8, r9, ip}	; <UNPREDICTABLE>
     170:	0000193c 	andeq	r1, r0, ip, lsr r9
     174:	0300341f 	movweq	r3, #1055	; 0x41f
     178:	3b0b3a0e 	blcc	2ce9b8 <__bss_end__+0x2c4a28>
     17c:	3f13490b 	svccc	0x0013490b
     180:	00193c19 	andseq	r3, r9, r9, lsl ip
     184:	01042000 	mrseq	r2, (UNDEF: 4)
     188:	13490b0b 	movtne	r0, #39691	; 0x9b0b
     18c:	0b3b0b3a 	bleq	ec2e7c <__bss_end__+0xeb8eec>
     190:	00001301 	andeq	r1, r0, r1, lsl #6
     194:	03002821 	movweq	r2, #2081	; 0x821
     198:	000b1c0e 	andeq	r1, fp, lr, lsl #24
     19c:	00282200 	eoreq	r2, r8, r0, lsl #4
     1a0:	061c0e03 	ldreq	r0, [ip], -r3, lsl #28
     1a4:	04230000 	strteq	r0, [r3], #-0
     1a8:	0b0e0301 	bleq	380db4 <__bss_end__+0x376e24>
     1ac:	3a13490b 	bcc	4d25e0 <__bss_end__+0x4c8650>
     1b0:	010b3b0b 	tsteq	fp, fp, lsl #22
     1b4:	24000013 	strcs	r0, [r0], #-19	; 0xffffffed
     1b8:	193f012e 	ldmdbne	pc!, {r1, r2, r3, r5, r8}	; <UNPREDICTABLE>
     1bc:	0b3a0e03 	bleq	e839d0 <__bss_end__+0xe79a40>
     1c0:	19270b3b 	stmdbne	r7!, {r0, r1, r3, r4, r5, r8, r9, fp}
     1c4:	06120111 			; <UNDEFINED> instruction: 0x06120111
     1c8:	42971840 	addsmi	r1, r7, #64, 16	; 0x400000
     1cc:	00130119 	andseq	r0, r3, r9, lsl r1
     1d0:	00342500 	eorseq	r2, r4, r0, lsl #10
     1d4:	0b3a0e03 	bleq	e839e8 <__bss_end__+0xe79a58>
     1d8:	13490b3b 	movtne	r0, #39739	; 0x9b3b
     1dc:	00000b1c 	andeq	r0, r0, ip, lsl fp
     1e0:	03003426 	movweq	r3, #1062	; 0x426
     1e4:	3b0b3a08 	blcc	2cea0c <__bss_end__+0x2c4a7c>
     1e8:	0213490b 	andseq	r4, r3, #180224	; 0x2c000
     1ec:	27000017 	smladcs	r0, r7, r0, r0
     1f0:	0e030034 	mcreq	0, 0, r0, cr3, cr4, {1}
     1f4:	19341349 	ldmdbne	r4!, {r0, r3, r6, r8, r9, ip}
     1f8:	00001802 	andeq	r1, r0, r2, lsl #16
     1fc:	01828928 	orreq	r8, r2, r8, lsr #18
     200:	31011100 	mrscc	r1, (UNDEF: 17)
     204:	29000013 	stmdbcs	r0, {r0, r1, r4}
     208:	01018289 	smlabbeq	r1, r9, r2, r8
     20c:	13310111 	teqne	r1, #1073741828	; 0x40000004
     210:	00001301 	andeq	r1, r0, r1, lsl #6
     214:	01828a2a 	orreq	r8, r2, sl, lsr #20
     218:	91180200 	tstls	r8, r0, lsl #4
     21c:	00001842 	andeq	r1, r0, r2, asr #16
     220:	0300342b 	movweq	r3, #1067	; 0x42b
     224:	3b0b3a08 	blcc	2cea4c <__bss_end__+0x2c4abc>
     228:	0213490b 	andseq	r4, r3, #180224	; 0x2c000
     22c:	2c000018 	stccs	0, cr0, [r0], {24}
     230:	08030034 	stmdaeq	r3, {r2, r4, r5}
     234:	0b3b0b3a 	bleq	ec2f24 <__bss_end__+0xeb8f94>
     238:	00001349 	andeq	r1, r0, r9, asr #6
     23c:	11010b2d 	tstne	r1, sp, lsr #22
     240:	01061201 	tsteq	r6, r1, lsl #4
     244:	2e000013 	mcrcs	0, 0, r0, cr0, cr3, {0}
     248:	0111010b 	tsteq	r1, fp, lsl #2
     24c:	00000612 	andeq	r0, r0, r2, lsl r6
     250:	0182892f 	orreq	r8, r2, pc, lsr #18
     254:	31011101 	tstcc	r1, r1, lsl #2
     258:	30000013 	andcc	r0, r0, r3, lsl r0
     25c:	193f012e 	ldmdbne	pc!, {r1, r2, r3, r5, r8}	; <UNPREDICTABLE>
     260:	0b3a0e03 	bleq	e83a74 <__bss_end__+0xe79ae4>
     264:	19270b3b 	stmdbne	r7!, {r0, r1, r3, r4, r5, r8, r9, fp}
     268:	01111349 	tsteq	r1, r9, asr #6
     26c:	18400612 	stmdane	r0, {r1, r4, r9, sl}^
     270:	01194297 			; <UNDEFINED> instruction: 0x01194297
     274:	31000013 	tstcc	r0, r3, lsl r0
     278:	0e030005 	cdpeq	0, 0, cr0, cr3, cr5, {0}
     27c:	0b3b0b3a 	bleq	ec2f6c <__bss_end__+0xeb8fdc>
     280:	17021349 	strne	r1, [r2, -r9, asr #6]
     284:	05320000 	ldreq	r0, [r2, #-0]!
     288:	3a080300 	bcc	200e90 <__bss_end__+0x1f6f00>
     28c:	490b3b0b 	stmdbmi	fp, {r0, r1, r3, r8, r9, fp, ip, sp}
     290:	00170213 	andseq	r0, r7, r3, lsl r2
     294:	00343300 	eorseq	r3, r4, r0, lsl #6
     298:	0b3a0e03 	bleq	e83aac <__bss_end__+0xe79b1c>
     29c:	13490b3b 	movtne	r0, #39739	; 0x9b3b
     2a0:	00001702 	andeq	r1, r0, r2, lsl #14
     2a4:	31011d34 	tstcc	r1, r4, lsr sp
     2a8:	55015213 	strpl	r5, [r1, #-531]	; 0xfffffded
     2ac:	590b5817 	stmdbpl	fp, {r0, r1, r2, r4, fp, ip, lr}
     2b0:	0013010b 	andseq	r0, r3, fp, lsl #2
     2b4:	00053500 	andeq	r3, r5, r0, lsl #10
     2b8:	17021331 	smladxne	r2, r1, r3, r1
     2bc:	34360000 	ldrtcc	r0, [r6], #-0
     2c0:	3a0e0300 	bcc	380ec8 <__bss_end__+0x376f38>
     2c4:	490b3b0b 	stmdbmi	fp, {r0, r1, r3, r8, r9, fp, ip, sp}
     2c8:	37000013 	smladcc	r0, r3, r0, r0
     2cc:	08030005 	stmdaeq	r3, {r0, r2}
     2d0:	0b3b0b3a 	bleq	ec2fc0 <__bss_end__+0xeb9030>
     2d4:	18021349 	stmdane	r2, {r0, r3, r6, r8, r9, ip}
     2d8:	2e380000 	cdpcs	0, 3, cr0, cr8, cr0, {0}
     2dc:	3a0e0301 	bcc	380ee8 <__bss_end__+0x376f58>
     2e0:	270b3b0b 	strcs	r3, [fp, -fp, lsl #22]
     2e4:	11134919 	tstne	r3, r9, lsl r9
     2e8:	40061201 	andmi	r1, r6, r1, lsl #4
     2ec:	19429718 	stmdbne	r2, {r3, r4, r8, r9, sl, ip, pc}^
     2f0:	00001301 	andeq	r1, r0, r1, lsl #6
     2f4:	03012e39 	movweq	r2, #7737	; 0x1e39
     2f8:	3b0b3a0e 	blcc	2ceb38 <__bss_end__+0x2c4ba8>
     2fc:	1119270b 	tstne	r9, fp, lsl #14
     300:	40061201 	andmi	r1, r6, r1, lsl #4
     304:	19429718 	stmdbne	r2, {r3, r4, r8, r9, sl, ip, pc}^
     308:	00001301 	andeq	r1, r0, r1, lsl #6
     30c:	0300343a 	movweq	r3, #1082	; 0x43a
     310:	3b0b3a0e 	blcc	2ceb50 <__bss_end__+0x2c4bc0>
     314:	0213490b 	andseq	r4, r3, #180224	; 0x2c000
     318:	3b000018 	blcc	380 <_start-0x7c80>
     31c:	0e03012e 	adfeqsp	f0, f3, #0.5
     320:	0b3b0b3a 	bleq	ec3010 <__bss_end__+0xeb9080>
     324:	13491927 	movtne	r1, #39207	; 0x9927
     328:	13010b20 	movwne	r0, #6944	; 0x1b20
     32c:	053c0000 	ldreq	r0, [ip, #-0]!
     330:	3a080300 	bcc	200f38 <__bss_end__+0x1f6fa8>
     334:	490b3b0b 	stmdbmi	fp, {r0, r1, r3, r8, r9, fp, ip, sp}
     338:	3d000013 	stccc	0, cr0, [r0, #-76]	; 0xffffffb4
     33c:	193f002e 	ldmdbne	pc!, {r1, r2, r3, r5}	; <UNPREDICTABLE>
     340:	0e6e193c 			; <UNDEFINED> instruction: 0x0e6e193c
     344:	0b3a0e03 	bleq	e83b58 <__bss_end__+0xe79bc8>
     348:	00000b3b 	andeq	r0, r0, fp, lsr fp
     34c:	01110100 	tsteq	r1, r0, lsl #2
     350:	0b130e25 	bleq	4c3bec <__bss_end__+0x4b9c5c>
     354:	0e1b0e03 	cdpeq	14, 1, cr0, cr11, cr3, {0}
     358:	06120111 			; <UNDEFINED> instruction: 0x06120111
     35c:	00001710 	andeq	r1, r0, r0, lsl r7
     360:	0b002402 	bleq	9370 <uart_init+0x34>
     364:	030b3e0b 	movweq	r3, #48651	; 0xbe0b
     368:	03000008 	movweq	r0, #8
     36c:	0b0b0024 	bleq	2c0404 <__bss_end__+0x2b6474>
     370:	0e030b3e 	vmoveq.16	d3[0], r0
     374:	26040000 	strcs	r0, [r4], -r0
     378:	00134900 	andseq	r4, r3, r0, lsl #18
     37c:	00160500 	andseq	r0, r6, r0, lsl #10
     380:	0b3a0e03 	bleq	e83b94 <__bss_end__+0xe79c04>
     384:	13490b3b 	movtne	r0, #39739	; 0x9b3b
     388:	16060000 	strne	r0, [r6], -r0
     38c:	3a0e0300 	bcc	380f94 <__bss_end__+0x377004>
     390:	49053b0b 	stmdbmi	r5, {r0, r1, r3, r8, r9, fp, ip, sp}
     394:	07000013 	smladeq	r0, r3, r0, r0
     398:	0b0b0117 	bleq	2c07fc <__bss_end__+0x2b686c>
     39c:	0b3b0b3a 	bleq	ec308c <__bss_end__+0xeb90fc>
     3a0:	00001301 	andeq	r1, r0, r1, lsl #6
     3a4:	03000d08 	movweq	r0, #3336	; 0xd08
     3a8:	3b0b3a0e 	blcc	2cebe8 <__bss_end__+0x2c4c58>
     3ac:	0013490b 	andseq	r4, r3, fp, lsl #18
     3b0:	01010900 	tsteq	r1, r0, lsl #18
     3b4:	13011349 	movwne	r1, #4937	; 0x1349
     3b8:	210a0000 	mrscs	r0, (UNDEF: 10)
     3bc:	2f134900 	svccs	0x00134900
     3c0:	0b00000b 	bleq	3f4 <_start-0x7c0c>
     3c4:	0b0b0113 	bleq	2c0818 <__bss_end__+0x2b6888>
     3c8:	0b3b0b3a 	bleq	ec30b8 <__bss_end__+0xeb9128>
     3cc:	00001301 	andeq	r1, r0, r1, lsl #6
     3d0:	03000d0c 	movweq	r0, #3340	; 0xd0c
     3d4:	3b0b3a0e 	blcc	2cec14 <__bss_end__+0x2c4c84>
     3d8:	3813490b 	ldmdacc	r3, {r0, r1, r3, r8, fp, lr}
     3dc:	0d00000b 	stceq	0, cr0, [r0, #-44]	; 0xffffffd4
     3e0:	0b0b000f 	bleq	2c0424 <__bss_end__+0x2b6494>
     3e4:	0f0e0000 	svceq	0x000e0000
     3e8:	490b0b00 	stmdbmi	fp, {r8, r9, fp}
     3ec:	0f000013 	svceq	0x00000013
     3f0:	0e030113 	mcreq	1, 0, r0, cr3, cr3, {0}
     3f4:	0b3a0b0b 	bleq	e83028 <__bss_end__+0xe79098>
     3f8:	13010b3b 	movwne	r0, #6971	; 0x1b3b
     3fc:	0d100000 	ldceq	0, cr0, [r0, #-0]
     400:	3a080300 	bcc	201008 <__bss_end__+0x1f7078>
     404:	490b3b0b 	stmdbmi	fp, {r0, r1, r3, r8, r9, fp, ip, sp}
     408:	000b3813 	andeq	r3, fp, r3, lsl r8
     40c:	01131100 	tsteq	r3, r0, lsl #2
     410:	050b0e03 	streq	r0, [fp, #-3587]	; 0xfffff1fd
     414:	0b3b0b3a 	bleq	ec3104 <__bss_end__+0xeb9174>
     418:	00001301 	andeq	r1, r0, r1, lsl #6
     41c:	03000d12 	movweq	r0, #3346	; 0xd12
     420:	3b0b3a0e 	blcc	2cec60 <__bss_end__+0x2c4cd0>
     424:	3813490b 	ldmdacc	r3, {r0, r1, r3, r8, fp, lr}
     428:	13000005 	movwne	r0, #5
     42c:	19270015 	stmdbne	r7!, {r0, r2, r4}
     430:	15140000 	ldrne	r0, [r4, #-0]
     434:	49192701 	ldmdbmi	r9, {r0, r8, r9, sl, sp}
     438:	00130113 	andseq	r0, r3, r3, lsl r1
     43c:	00051500 	andeq	r1, r5, r0, lsl #10
     440:	00001349 	andeq	r1, r0, r9, asr #6
     444:	03011316 	movweq	r1, #4886	; 0x1316
     448:	3a050b0e 	bcc	143088 <__bss_end__+0x1390f8>
     44c:	01053b0b 	tsteq	r5, fp, lsl #22
     450:	17000013 	smladne	r0, r3, r0, r0
     454:	0e03000d 	cdpeq	0, 0, cr0, cr3, cr13, {0}
     458:	053b0b3a 	ldreq	r0, [fp, #-2874]!	; 0xfffff4c6
     45c:	0b381349 	bleq	e05188 <__bss_end__+0xdfb1f8>
     460:	0d180000 	ldceq	0, cr0, [r8, #-0]
     464:	3a0e0300 	bcc	38106c <__bss_end__+0x3770dc>
     468:	49053b0b 	stmdbmi	r5, {r0, r1, r3, r8, r9, fp, ip, sp}
     46c:	00053813 	andeq	r3, r5, r3, lsl r8
     470:	01131900 	tsteq	r3, r0, lsl #18
     474:	0b0b0e03 	bleq	2c3c88 <__bss_end__+0x2b9cf8>
     478:	053b0b3a 	ldreq	r0, [fp, #-2874]!	; 0xfffff4c6
     47c:	00001301 	andeq	r1, r0, r1, lsl #6
     480:	0b01131a 	bleq	450f0 <__bss_end__+0x3b160>
     484:	3b0b3a0b 	blcc	2cecb8 <__bss_end__+0x2c4d28>
     488:	00130105 	andseq	r0, r3, r5, lsl #2
     48c:	01171b00 	tsteq	r7, r0, lsl #22
     490:	0b3a0b0b 	bleq	e830c4 <__bss_end__+0xe79134>
     494:	1301053b 	movwne	r0, #5435	; 0x153b
     498:	0d1c0000 	ldceq	0, cr0, [ip, #-0]
     49c:	3a0e0300 	bcc	3810a4 <__bss_end__+0x377114>
     4a0:	49053b0b 	stmdbmi	r5, {r0, r1, r3, r8, r9, fp, ip, sp}
     4a4:	1d000013 	stcne	0, cr0, [r0, #-76]	; 0xffffffb4
     4a8:	19270115 	stmdbne	r7!, {r0, r2, r4, r8}
     4ac:	00001301 	andeq	r1, r0, r1, lsl #6
     4b0:	0300341e 	movweq	r3, #1054	; 0x41e
     4b4:	3b0b3a0e 	blcc	2cecf4 <__bss_end__+0x2c4d64>
     4b8:	3f134905 	svccc	0x00134905
     4bc:	00193c19 	andseq	r3, r9, r9, lsl ip
     4c0:	00341f00 	eorseq	r1, r4, r0, lsl #30
     4c4:	0b3a0e03 	bleq	e83cd8 <__bss_end__+0xe79d48>
     4c8:	13490b3b 	movtne	r0, #39739	; 0x9b3b
     4cc:	193c193f 	ldmdbne	ip!, {r0, r1, r2, r3, r4, r5, r8, fp, ip}
     4d0:	04200000 	strteq	r0, [r0], #-0
     4d4:	490b0b01 	stmdbmi	fp, {r0, r8, r9, fp}
     4d8:	3b0b3a13 	blcc	2ced2c <__bss_end__+0x2c4d9c>
     4dc:	0013010b 	andseq	r0, r3, fp, lsl #2
     4e0:	00282100 	eoreq	r2, r8, r0, lsl #2
     4e4:	0b1c0e03 	bleq	703cf8 <__bss_end__+0x6f9d68>
     4e8:	0d220000 	stceq	0, cr0, [r2, #-0]
     4ec:	3a0e0300 	bcc	3810f4 <__bss_end__+0x377164>
     4f0:	490b3b0b 	stmdbmi	fp, {r0, r1, r3, r8, r9, fp, ip, sp}
     4f4:	0d0b0b13 	vstreq	d0, [fp, #-76]	; 0xffffffb4
     4f8:	380b0c0b 	stmdacc	fp, {r0, r1, r3, sl, fp}
     4fc:	2300000b 	movwcs	r0, #11
     500:	0803000d 	stmdaeq	r3, {r0, r2, r3}
     504:	0b3b0b3a 	bleq	ec31f4 <__bss_end__+0xeb9264>
     508:	0b0b1349 	bleq	2c5234 <__bss_end__+0x2bb2a4>
     50c:	0b0c0b0d 	bleq	303148 <__bss_end__+0x2f91b8>
     510:	00000b38 	andeq	r0, r0, r8, lsr fp
     514:	49003524 	stmdbmi	r0, {r2, r5, r8, sl, ip, sp}
     518:	25000013 	strcs	r0, [r0, #-19]	; 0xffffffed
     51c:	08030034 	stmdaeq	r3, {r2, r4, r5}
     520:	0b3b0b3a 	bleq	ec3210 <__bss_end__+0xeb9280>
     524:	00001349 	andeq	r1, r0, r9, asr #6
     528:	03003426 	movweq	r3, #1062	; 0x426
     52c:	3b0b3a0e 	blcc	2ced6c <__bss_end__+0x2c4ddc>
     530:	02134905 	andseq	r4, r3, #81920	; 0x14000
     534:	27000018 	smladcs	r0, r8, r0, r0
     538:	0e03012e 	adfeqsp	f0, f3, #0.5
     53c:	053b0b3a 	ldreq	r0, [fp, #-2874]!	; 0xfffff4c6
     540:	01111927 	tsteq	r1, r7, lsr #18
     544:	18400612 	stmdane	r0, {r1, r4, r9, sl}^
     548:	01194297 			; <UNDEFINED> instruction: 0x01194297
     54c:	28000013 	stmdacs	r0, {r0, r1, r4}
     550:	0e030034 	mcreq	0, 0, r0, cr3, cr4, {1}
     554:	19341349 	ldmdbne	r4!, {r0, r3, r6, r8, r9, ip}
     558:	00001802 	andeq	r1, r0, r2, lsl #16
     55c:	01010b29 	tsteq	r1, r9, lsr #22
     560:	2a000013 	bcs	5b4 <_start-0x7a4c>
     564:	08030117 	stmdaeq	r3, {r0, r1, r2, r4, r8}
     568:	0b3a0b0b 	bleq	e8319c <__bss_end__+0xe7920c>
     56c:	1301053b 	movwne	r0, #5435	; 0x153b
     570:	0d2b0000 	stceq	0, cr0, [fp, #-0]
     574:	3a080300 	bcc	20117c <__bss_end__+0x1f71ec>
     578:	49053b0b 	stmdbmi	r5, {r0, r1, r3, r8, r9, fp, ip, sp}
     57c:	2c000013 	stccs	0, cr0, [r0], {19}
     580:	08030034 	stmdaeq	r3, {r2, r4, r5}
     584:	053b0b3a 	ldreq	r0, [fp, #-2874]!	; 0xfffff4c6
     588:	00001349 	andeq	r1, r0, r9, asr #6
     58c:	0300342d 	movweq	r3, #1069	; 0x42d
     590:	3b0b3a0e 	blcc	2cedd0 <__bss_end__+0x2c4e40>
     594:	00134905 	andseq	r4, r3, r5, lsl #18
     598:	010b2e00 	tsteq	fp, r0, lsl #28
     59c:	06120111 			; <UNDEFINED> instruction: 0x06120111
     5a0:	342f0000 	strtcc	r0, [pc], #-0	; 5a8 <_start-0x7a58>
     5a4:	3a080300 	bcc	2011ac <__bss_end__+0x1f721c>
     5a8:	49053b0b 	stmdbmi	r5, {r0, r1, r3, r8, r9, fp, ip, sp}
     5ac:	00051c13 	andeq	r1, r5, r3, lsl ip
     5b0:	012e3000 			; <UNDEFINED> instruction: 0x012e3000
     5b4:	0e03193f 			; <UNDEFINED> instruction: 0x0e03193f
     5b8:	053b0b3a 	ldreq	r0, [fp, #-2874]!	; 0xfffff4c6
     5bc:	01111927 	tsteq	r1, r7, lsr #18
     5c0:	18400612 	stmdane	r0, {r1, r4, r9, sl}^
     5c4:	01194297 			; <UNDEFINED> instruction: 0x01194297
     5c8:	31000013 	tstcc	r0, r3, lsl r0
     5cc:	08030034 	stmdaeq	r3, {r2, r4, r5}
     5d0:	053b0b3a 	ldreq	r0, [fp, #-2874]!	; 0xfffff4c6
     5d4:	0b1c1349 	bleq	705300 <__bss_end__+0x6fb370>
     5d8:	89320000 	ldmdbhi	r2!, {}	; <UNPREDICTABLE>
     5dc:	11000182 	smlabbne	r0, r2, r1, r0
     5e0:	00133101 	andseq	r3, r3, r1, lsl #2
     5e4:	82893300 	addhi	r3, r9, #0, 6
     5e8:	01110101 	tsteq	r1, r1, lsl #2
     5ec:	13011331 	movwne	r1, #4913	; 0x1331
     5f0:	8a340000 	bhi	d005f8 <__bss_end__+0xcf6668>
     5f4:	02000182 	andeq	r0, r0, #-2147483616	; 0x80000020
     5f8:	18429118 	stmdane	r2, {r3, r4, r8, ip, pc}^
     5fc:	2e350000 	cdpcs	0, 3, cr0, cr5, cr0, {0}
     600:	03193f00 	tsteq	r9, #0, 30
     604:	3b0b3a0e 	blcc	2cee44 <__bss_end__+0x2c4eb4>
     608:	49192705 	ldmdbmi	r9, {r0, r2, r8, r9, sl, sp}
     60c:	12011113 	andne	r1, r1, #-1073741820	; 0xc0000004
     610:	97184006 	ldrls	r4, [r8, -r6]
     614:	00001942 	andeq	r1, r0, r2, asr #18
     618:	3f012e36 	svccc	0x00012e36
     61c:	3a0e0319 	bcc	381288 <__bss_end__+0x3772f8>
     620:	27053b0b 	strcs	r3, [r5, -fp, lsl #22]
     624:	11134919 	tstne	r3, r9, lsl r9
     628:	40061201 	andmi	r1, r6, r1, lsl #4
     62c:	19429718 	stmdbne	r2, {r3, r4, r8, r9, sl, ip, pc}^
     630:	00001301 	andeq	r1, r0, r1, lsl #6
     634:	03000537 	movweq	r0, #1335	; 0x537
     638:	3b0b3a0e 	blcc	2cee78 <__bss_end__+0x2c4ee8>
     63c:	02134905 	andseq	r4, r3, #81920	; 0x14000
     640:	38000017 	stmdacc	r0, {r0, r1, r2, r4}
     644:	0111010b 	tsteq	r1, fp, lsl #2
     648:	13010612 	movwne	r0, #5650	; 0x1612
     64c:	34390000 	ldrtcc	r0, [r9], #-0
     650:	3a080300 	bcc	201258 <__bss_end__+0x1f72c8>
     654:	49053b0b 	stmdbmi	r5, {r0, r1, r3, r8, r9, fp, ip, sp}
     658:	00170213 	andseq	r0, r7, r3, lsl r2
     65c:	012e3a00 			; <UNDEFINED> instruction: 0x012e3a00
     660:	0b3a0e03 	bleq	e83e74 <__bss_end__+0xe79ee4>
     664:	19270b3b 	stmdbne	r7!, {r0, r1, r3, r4, r5, r8, r9, fp}
     668:	06120111 			; <UNDEFINED> instruction: 0x06120111
     66c:	42971840 	addsmi	r1, r7, #64, 16	; 0x400000
     670:	00130119 	andseq	r0, r3, r9, lsl r1
     674:	00053b00 	andeq	r3, r5, r0, lsl #22
     678:	0b3a0e03 	bleq	e83e8c <__bss_end__+0xe79efc>
     67c:	13490b3b 	movtne	r0, #39739	; 0x9b3b
     680:	00001702 	andeq	r1, r0, r2, lsl #14
     684:	0300343c 	movweq	r3, #1084	; 0x43c
     688:	3b0b3a08 	blcc	2ceeb0 <__bss_end__+0x2c4f20>
     68c:	0213490b 	andseq	r4, r3, #180224	; 0x2c000
     690:	3d000017 	stccc	0, cr0, [r0, #-92]	; 0xffffffa4
     694:	08030117 	stmdaeq	r3, {r0, r1, r2, r4, r8}
     698:	0b3a0b0b 	bleq	e832cc <__bss_end__+0xe7933c>
     69c:	13010b3b 	movwne	r0, #6971	; 0x1b3b
     6a0:	0d3e0000 	ldceq	0, cr0, [lr, #-0]
     6a4:	3a080300 	bcc	2012ac <__bss_end__+0x1f731c>
     6a8:	490b3b0b 	stmdbmi	fp, {r0, r1, r3, r8, r9, fp, ip, sp}
     6ac:	3f000013 	svccc	0x00000013
     6b0:	01018289 	smlabbeq	r1, r9, r2, r8
     6b4:	13310111 	teqne	r1, #1073741828	; 0x40000004
     6b8:	2e400000 	cdpcs	0, 4, cr0, cr0, cr0, {0}
     6bc:	3a0e0301 	bcc	3812c8 <__bss_end__+0x377338>
     6c0:	270b3b0b 	strcs	r3, [fp, -fp, lsl #22]
     6c4:	11134919 	tstne	r3, r9, lsl r9
     6c8:	40061201 	andmi	r1, r6, r1, lsl #4
     6cc:	19429718 	stmdbne	r2, {r3, r4, r8, r9, sl, ip, pc}^
     6d0:	00001301 	andeq	r1, r0, r1, lsl #6
     6d4:	03000541 	movweq	r0, #1345	; 0x541
     6d8:	3b0b3a08 	blcc	2cef00 <__bss_end__+0x2c4f70>
     6dc:	0213490b 	andseq	r4, r3, #180224	; 0x2c000
     6e0:	42000017 	andmi	r0, r0, #23
     6e4:	193f002e 	ldmdbne	pc!, {r1, r2, r3, r5}	; <UNPREDICTABLE>
     6e8:	0e6e193c 			; <UNDEFINED> instruction: 0x0e6e193c
     6ec:	0b3a0e03 	bleq	e83f00 <__bss_end__+0xe79f70>
     6f0:	00000b3b 	andeq	r0, r0, fp, lsr fp
     6f4:	01110100 	tsteq	r1, r0, lsl #2
     6f8:	0b130e25 	bleq	4c3f94 <__bss_end__+0x4ba004>
     6fc:	0e1b0e03 	cdpeq	14, 1, cr0, cr11, cr3, {0}
     700:	06120111 			; <UNDEFINED> instruction: 0x06120111
     704:	00001710 	andeq	r1, r0, r0, lsl r7
     708:	03001602 	movweq	r1, #1538	; 0x602
     70c:	3b0b3a0e 	blcc	2cef4c <__bss_end__+0x2c4fbc>
     710:	0013490b 	andseq	r4, r3, fp, lsl #18
     714:	01130300 	tsteq	r3, r0, lsl #6
     718:	0b0b0e03 	bleq	2c3f2c <__bss_end__+0x2b9f9c>
     71c:	0b3b0b3a 	bleq	ec340c <__bss_end__+0xeb947c>
     720:	00001301 	andeq	r1, r0, r1, lsl #6
     724:	03000d04 	movweq	r0, #3332	; 0xd04
     728:	3813490e 	ldmdacc	r3, {r1, r2, r3, r8, fp, lr}
     72c:	0019340b 	andseq	r3, r9, fp, lsl #8
     730:	000f0500 	andeq	r0, pc, r0, lsl #10
     734:	00000b0b 	andeq	r0, r0, fp, lsl #22
     738:	0b002406 	bleq	9758 <__FUNCTION__.4440+0x124>
     73c:	030b3e0b 	movweq	r3, #48651	; 0xbe0b
     740:	07000008 	streq	r0, [r0, -r8]
     744:	0b0b0024 	bleq	2c07dc <__bss_end__+0x2b684c>
     748:	0e030b3e 	vmoveq.16	d3[0], r0
     74c:	16080000 	strne	r0, [r8], -r0
     750:	3a0e0300 	bcc	381358 <__bss_end__+0x3773c8>
     754:	49053b0b 	stmdbmi	r5, {r0, r1, r3, r8, r9, fp, ip, sp}
     758:	09000013 	stmdbeq	r0, {r0, r1, r4}
     75c:	0b0b0117 	bleq	2c0bc0 <__bss_end__+0x2b6c30>
     760:	0b3b0b3a 	bleq	ec3450 <__bss_end__+0xeb94c0>
     764:	00001301 	andeq	r1, r0, r1, lsl #6
     768:	03000d0a 	movweq	r0, #3338	; 0xd0a
     76c:	3b0b3a0e 	blcc	2cefac <__bss_end__+0x2c501c>
     770:	0013490b 	andseq	r4, r3, fp, lsl #18
     774:	01010b00 	tsteq	r1, r0, lsl #22
     778:	13011349 	movwne	r1, #4937	; 0x1349
     77c:	210c0000 	mrscs	r0, (UNDEF: 12)
     780:	2f134900 	svccs	0x00134900
     784:	0d00000b 	stceq	0, cr0, [r0, #-44]	; 0xffffffd4
     788:	0b0b0113 	bleq	2c0bdc <__bss_end__+0x2b6c4c>
     78c:	0b3b0b3a 	bleq	ec347c <__bss_end__+0xeb94ec>
     790:	00001301 	andeq	r1, r0, r1, lsl #6
     794:	03000d0e 	movweq	r0, #3342	; 0xd0e
     798:	3b0b3a0e 	blcc	2cefd8 <__bss_end__+0x2c5048>
     79c:	3813490b 	ldmdacc	r3, {r0, r1, r3, r8, fp, lr}
     7a0:	0f00000b 	svceq	0x0000000b
     7a4:	0b0b000f 	bleq	2c07e8 <__bss_end__+0x2b6858>
     7a8:	00001349 	andeq	r1, r0, r9, asr #6
     7ac:	49002610 	stmdbmi	r0, {r4, r9, sl, sp}
     7b0:	11000013 	tstne	r0, r3, lsl r0
     7b4:	0803000d 	stmdaeq	r3, {r0, r2, r3}
     7b8:	0b3b0b3a 	bleq	ec34a8 <__bss_end__+0xeb9518>
     7bc:	0b381349 	bleq	e054e8 <__bss_end__+0xdfb558>
     7c0:	13120000 	tstne	r2, #0
     7c4:	0b0e0301 	bleq	3813d0 <__bss_end__+0x377440>
     7c8:	3b0b3a05 	blcc	2cefe4 <__bss_end__+0x2c5054>
     7cc:	0013010b 	andseq	r0, r3, fp, lsl #2
     7d0:	000d1300 	andeq	r1, sp, r0, lsl #6
     7d4:	0b3a0e03 	bleq	e83fe8 <__bss_end__+0xe7a058>
     7d8:	13490b3b 	movtne	r0, #39739	; 0x9b3b
     7dc:	00000538 	andeq	r0, r0, r8, lsr r5
     7e0:	27001514 	smladcs	r0, r4, r5, r1
     7e4:	15000019 	strne	r0, [r0, #-25]	; 0xffffffe7
     7e8:	19270115 	stmdbne	r7!, {r0, r2, r4, r8}
     7ec:	13011349 	movwne	r1, #4937	; 0x1349
     7f0:	05160000 	ldreq	r0, [r6, #-0]
     7f4:	00134900 	andseq	r4, r3, r0, lsl #18
     7f8:	01131700 	tsteq	r3, r0, lsl #14
     7fc:	050b0e03 	streq	r0, [fp, #-3587]	; 0xfffff1fd
     800:	053b0b3a 	ldreq	r0, [fp, #-2874]!	; 0xfffff4c6
     804:	00001301 	andeq	r1, r0, r1, lsl #6
     808:	03000d18 	movweq	r0, #3352	; 0xd18
     80c:	3b0b3a0e 	blcc	2cf04c <__bss_end__+0x2c50bc>
     810:	38134905 	ldmdacc	r3, {r0, r2, r8, fp, lr}
     814:	1900000b 	stmdbne	r0, {r0, r1, r3}
     818:	0e03000d 	cdpeq	0, 0, cr0, cr3, cr13, {0}
     81c:	053b0b3a 	ldreq	r0, [fp, #-2874]!	; 0xfffff4c6
     820:	05381349 	ldreq	r1, [r8, #-841]!	; 0xfffffcb7
     824:	131a0000 	tstne	sl, #0
     828:	0b0e0301 	bleq	381434 <__bss_end__+0x3774a4>
     82c:	3b0b3a0b 	blcc	2cf060 <__bss_end__+0x2c50d0>
     830:	00130105 	andseq	r0, r3, r5, lsl #2
     834:	01131b00 	tsteq	r3, r0, lsl #22
     838:	0b3a0b0b 	bleq	e8346c <__bss_end__+0xe794dc>
     83c:	1301053b 	movwne	r0, #5435	; 0x153b
     840:	171c0000 	ldrne	r0, [ip, -r0]
     844:	3a0b0b01 	bcc	2c3450 <__bss_end__+0x2b94c0>
     848:	01053b0b 	tsteq	r5, fp, lsl #22
     84c:	1d000013 	stcne	0, cr0, [r0, #-76]	; 0xffffffb4
     850:	0e03000d 	cdpeq	0, 0, cr0, cr3, cr13, {0}
     854:	053b0b3a 	ldreq	r0, [fp, #-2874]!	; 0xfffff4c6
     858:	00001349 	andeq	r1, r0, r9, asr #6
     85c:	2701151e 	smladcs	r1, lr, r5, r1
     860:	00130119 	andseq	r0, r3, r9, lsl r1
     864:	00341f00 	eorseq	r1, r4, r0, lsl #30
     868:	0b3a0e03 	bleq	e8407c <__bss_end__+0xe7a0ec>
     86c:	1349053b 	movtne	r0, #38203	; 0x953b
     870:	193c193f 	ldmdbne	ip!, {r0, r1, r2, r3, r4, r5, r8, fp, ip}
     874:	34200000 	strtcc	r0, [r0], #-0
     878:	3a0e0300 	bcc	381480 <__bss_end__+0x3774f0>
     87c:	490b3b0b 	stmdbmi	fp, {r0, r1, r3, r8, r9, fp, ip, sp}
     880:	3c193f13 	ldccc	15, cr3, [r9], {19}
     884:	21000019 	tstcs	r0, r9, lsl r0
     888:	193f012e 	ldmdbne	pc!, {r1, r2, r3, r5, r8}	; <UNPREDICTABLE>
     88c:	0b3a0e03 	bleq	e840a0 <__bss_end__+0xe7a110>
     890:	19270b3b 	stmdbne	r7!, {r0, r1, r3, r4, r5, r8, r9, fp}
     894:	01111349 	tsteq	r1, r9, asr #6
     898:	18400612 	stmdane	r0, {r1, r4, r9, sl}^
     89c:	01194297 			; <UNDEFINED> instruction: 0x01194297
     8a0:	22000013 	andcs	r0, r0, #19
     8a4:	08030005 	stmdaeq	r3, {r0, r2}
     8a8:	0b3b0b3a 	bleq	ec3598 <__bss_end__+0xeb9608>
     8ac:	18021349 	stmdane	r2, {r0, r3, r6, r8, r9, ip}
     8b0:	18230000 	stmdane	r3!, {}	; <UNPREDICTABLE>
     8b4:	24000000 	strcs	r0, [r0], #-0
     8b8:	08030034 	stmdaeq	r3, {r2, r4, r5}
     8bc:	0b3b0b3a 	bleq	ec35ac <__bss_end__+0xeb961c>
     8c0:	18021349 	stmdane	r2, {r0, r3, r6, r8, r9, ip}
     8c4:	34250000 	strtcc	r0, [r5], #-0
     8c8:	3a0e0300 	bcc	3814d0 <__bss_end__+0x377540>
     8cc:	490b3b0b 	stmdbmi	fp, {r0, r1, r3, r8, r9, fp, ip, sp}
     8d0:	00180213 	andseq	r0, r8, r3, lsl r2
     8d4:	00342600 	eorseq	r2, r4, r0, lsl #12
     8d8:	0b3a0803 	bleq	e828ec <__bss_end__+0xe7895c>
     8dc:	13490b3b 	movtne	r0, #39739	; 0x9b3b
     8e0:	00001702 	andeq	r1, r0, r2, lsl #14
     8e4:	01828927 	orreq	r8, r2, r7, lsr #18
     8e8:	31011101 	tstcc	r1, r1, lsl #2
     8ec:	00130113 	andseq	r0, r3, r3, lsl r1
     8f0:	828a2800 	addhi	r2, sl, #0, 16
     8f4:	18020001 	stmdane	r2, {r0}
     8f8:	00184291 	mulseq	r8, r1, r2
     8fc:	82892900 	addhi	r2, r9, #0, 18
     900:	01110101 	tsteq	r1, r1, lsl #2
     904:	212a0000 			; <UNDEFINED> instruction: 0x212a0000
     908:	2f134900 	svccs	0x00134900
     90c:	2b000005 	blcs	928 <_start-0x76d8>
     910:	193f002e 	ldmdbne	pc!, {r1, r2, r3, r5}	; <UNPREDICTABLE>
     914:	0e6e193c 			; <UNDEFINED> instruction: 0x0e6e193c
     918:	0b3a0e03 	bleq	e8412c <__bss_end__+0xe7a19c>
     91c:	00000b3b 	andeq	r0, r0, fp, lsr fp
     920:	01110100 	tsteq	r1, r0, lsl #2
     924:	0b130e25 	bleq	4c41c0 <__bss_end__+0x4ba230>
     928:	0e1b0e03 	cdpeq	14, 1, cr0, cr11, cr3, {0}
     92c:	06120111 			; <UNDEFINED> instruction: 0x06120111
     930:	00001710 	andeq	r1, r0, r0, lsl r7
     934:	0b002402 	bleq	9944 <__FUNCTION__.4407+0xe8>
     938:	030b3e0b 	movweq	r3, #48651	; 0xbe0b
     93c:	03000008 	movweq	r0, #8
     940:	0b0b0024 	bleq	2c09d8 <__bss_end__+0x2b6a48>
     944:	0e030b3e 	vmoveq.16	d3[0], r0
     948:	16040000 	strne	r0, [r4], -r0
     94c:	3a0e0300 	bcc	381554 <__bss_end__+0x3775c4>
     950:	490b3b0b 	stmdbmi	fp, {r0, r1, r3, r8, r9, fp, ip, sp}
     954:	05000013 	streq	r0, [r0, #-19]	; 0xffffffed
     958:	0e030016 	mcreq	0, 0, r0, cr3, cr6, {0}
     95c:	053b0b3a 	ldreq	r0, [fp, #-2874]!	; 0xfffff4c6
     960:	00001349 	andeq	r1, r0, r9, asr #6
     964:	0b011706 	bleq	46584 <__bss_end__+0x3c5f4>
     968:	3b0b3a0b 	blcc	2cf19c <__bss_end__+0x2c520c>
     96c:	0013010b 	andseq	r0, r3, fp, lsl #2
     970:	000d0700 	andeq	r0, sp, r0, lsl #14
     974:	0b3a0e03 	bleq	e84188 <__bss_end__+0xe7a1f8>
     978:	13490b3b 	movtne	r0, #39739	; 0x9b3b
     97c:	01080000 	mrseq	r0, (UNDEF: 8)
     980:	01134901 	tsteq	r3, r1, lsl #18
     984:	09000013 	stmdbeq	r0, {r0, r1, r4}
     988:	13490021 	movtne	r0, #36897	; 0x9021
     98c:	00000b2f 	andeq	r0, r0, pc, lsr #22
     990:	0b01130a 	bleq	455c0 <__bss_end__+0x3b630>
     994:	3b0b3a0b 	blcc	2cf1c8 <__bss_end__+0x2c5238>
     998:	0013010b 	andseq	r0, r3, fp, lsl #2
     99c:	000d0b00 	andeq	r0, sp, r0, lsl #22
     9a0:	0b3a0e03 	bleq	e841b4 <__bss_end__+0xe7a224>
     9a4:	13490b3b 	movtne	r0, #39739	; 0x9b3b
     9a8:	00000b38 	andeq	r0, r0, r8, lsr fp
     9ac:	0b000f0c 	bleq	45e4 <_start-0x3a1c>
     9b0:	0d00000b 	stceq	0, cr0, [r0, #-44]	; 0xffffffd4
     9b4:	0b0b000f 	bleq	2c09f8 <__bss_end__+0x2b6a68>
     9b8:	00001349 	andeq	r1, r0, r9, asr #6
     9bc:	4900260e 	stmdbmi	r0, {r1, r2, r3, r9, sl, sp}
     9c0:	0f000013 	svceq	0x00000013
     9c4:	0e030113 	mcreq	1, 0, r0, cr3, cr3, {0}
     9c8:	0b3a0b0b 	bleq	e835fc <__bss_end__+0xe7966c>
     9cc:	13010b3b 	movwne	r0, #6971	; 0x1b3b
     9d0:	0d100000 	ldceq	0, cr0, [r0, #-0]
     9d4:	3a080300 	bcc	2015dc <__bss_end__+0x1f764c>
     9d8:	490b3b0b 	stmdbmi	fp, {r0, r1, r3, r8, r9, fp, ip, sp}
     9dc:	000b3813 	andeq	r3, fp, r3, lsl r8
     9e0:	01131100 	tsteq	r3, r0, lsl #2
     9e4:	050b0e03 	streq	r0, [fp, #-3587]	; 0xfffff1fd
     9e8:	0b3b0b3a 	bleq	ec36d8 <__bss_end__+0xeb9748>
     9ec:	00001301 	andeq	r1, r0, r1, lsl #6
     9f0:	03000d12 	movweq	r0, #3346	; 0xd12
     9f4:	3b0b3a0e 	blcc	2cf234 <__bss_end__+0x2c52a4>
     9f8:	3813490b 	ldmdacc	r3, {r0, r1, r3, r8, fp, lr}
     9fc:	13000005 	movwne	r0, #5
     a00:	19270015 	stmdbne	r7!, {r0, r2, r4}
     a04:	15140000 	ldrne	r0, [r4, #-0]
     a08:	49192701 	ldmdbmi	r9, {r0, r8, r9, sl, sp}
     a0c:	00130113 	andseq	r0, r3, r3, lsl r1
     a10:	00051500 	andeq	r1, r5, r0, lsl #10
     a14:	00001349 	andeq	r1, r0, r9, asr #6
     a18:	03011316 	movweq	r1, #4886	; 0x1316
     a1c:	3a050b0e 	bcc	14365c <__bss_end__+0x1396cc>
     a20:	01053b0b 	tsteq	r5, fp, lsl #22
     a24:	17000013 	smladne	r0, r3, r0, r0
     a28:	0e03000d 	cdpeq	0, 0, cr0, cr3, cr13, {0}
     a2c:	053b0b3a 	ldreq	r0, [fp, #-2874]!	; 0xfffff4c6
     a30:	0b381349 	bleq	e0575c <__bss_end__+0xdfb7cc>
     a34:	0d180000 	ldceq	0, cr0, [r8, #-0]
     a38:	3a0e0300 	bcc	381640 <__bss_end__+0x3776b0>
     a3c:	49053b0b 	stmdbmi	r5, {r0, r1, r3, r8, r9, fp, ip, sp}
     a40:	00053813 	andeq	r3, r5, r3, lsl r8
     a44:	01131900 	tsteq	r3, r0, lsl #18
     a48:	0b0b0e03 	bleq	2c425c <__bss_end__+0x2ba2cc>
     a4c:	053b0b3a 	ldreq	r0, [fp, #-2874]!	; 0xfffff4c6
     a50:	00001301 	andeq	r1, r0, r1, lsl #6
     a54:	0b01131a 	bleq	456c4 <__bss_end__+0x3b734>
     a58:	3b0b3a0b 	blcc	2cf28c <__bss_end__+0x2c52fc>
     a5c:	00130105 	andseq	r0, r3, r5, lsl #2
     a60:	01171b00 	tsteq	r7, r0, lsl #22
     a64:	0b3a0b0b 	bleq	e83698 <__bss_end__+0xe79708>
     a68:	1301053b 	movwne	r0, #5435	; 0x153b
     a6c:	0d1c0000 	ldceq	0, cr0, [ip, #-0]
     a70:	3a0e0300 	bcc	381678 <__bss_end__+0x3776e8>
     a74:	49053b0b 	stmdbmi	r5, {r0, r1, r3, r8, r9, fp, ip, sp}
     a78:	1d000013 	stcne	0, cr0, [r0, #-76]	; 0xffffffb4
     a7c:	19270115 	stmdbne	r7!, {r0, r2, r4, r8}
     a80:	00001301 	andeq	r1, r0, r1, lsl #6
     a84:	0300341e 	movweq	r3, #1054	; 0x41e
     a88:	3b0b3a0e 	blcc	2cf2c8 <__bss_end__+0x2c5338>
     a8c:	3f134905 	svccc	0x00134905
     a90:	00193c19 	andseq	r3, r9, r9, lsl ip
     a94:	00341f00 	eorseq	r1, r4, r0, lsl #30
     a98:	0b3a0e03 	bleq	e842ac <__bss_end__+0xe7a31c>
     a9c:	13490b3b 	movtne	r0, #39739	; 0x9b3b
     aa0:	193c193f 	ldmdbne	ip!, {r0, r1, r2, r3, r4, r5, r8, fp, ip}
     aa4:	0d200000 	stceq	0, cr0, [r0, #-0]
     aa8:	490e0300 	stmdbmi	lr, {r8, r9}
     aac:	340b3813 	strcc	r3, [fp], #-2067	; 0xfffff7ed
     ab0:	21000019 	tstcs	r0, r9, lsl r0
     ab4:	193f012e 	ldmdbne	pc!, {r1, r2, r3, r5, r8}	; <UNPREDICTABLE>
     ab8:	0b3a0e03 	bleq	e842cc <__bss_end__+0xe7a33c>
     abc:	19270b3b 	stmdbne	r7!, {r0, r1, r3, r4, r5, r8, r9, fp}
     ac0:	01111349 	tsteq	r1, r9, asr #6
     ac4:	18400612 	stmdane	r0, {r1, r4, r9, sl}^
     ac8:	01194297 			; <UNDEFINED> instruction: 0x01194297
     acc:	22000013 	andcs	r0, r0, #19
     ad0:	08030005 	stmdaeq	r3, {r0, r2}
     ad4:	0b3b0b3a 	bleq	ec37c4 <__bss_end__+0xeb9834>
     ad8:	17021349 	strne	r1, [r2, -r9, asr #6]
     adc:	05230000 	streq	r0, [r3, #-0]!
     ae0:	3a0e0300 	bcc	3816e8 <__bss_end__+0x377758>
     ae4:	490b3b0b 	stmdbmi	fp, {r0, r1, r3, r8, r9, fp, ip, sp}
     ae8:	00180213 	andseq	r0, r8, r3, lsl r2
     aec:	00342400 	eorseq	r2, r4, r0, lsl #8
     af0:	0b3a0803 	bleq	e82b04 <__bss_end__+0xe78b74>
     af4:	13490b3b 	movtne	r0, #39739	; 0x9b3b
     af8:	00001702 	andeq	r1, r0, r2, lsl #14
     afc:	03003425 	movweq	r3, #1061	; 0x425
     b00:	3413490e 	ldrcc	r4, [r3], #-2318	; 0xfffff6f2
     b04:	00180219 	andseq	r0, r8, r9, lsl r2
     b08:	010b2600 	tsteq	fp, r0, lsl #12
     b0c:	00001755 	andeq	r1, r0, r5, asr r7
     b10:	03003427 	movweq	r3, #1063	; 0x427
     b14:	3b0b3a08 	blcc	2cf33c <__bss_end__+0x2c53ac>
     b18:	0213490b 	andseq	r4, r3, #180224	; 0x2c000
     b1c:	28000018 	stmdacs	r0, {r3, r4}
     b20:	0e030034 	mcreq	0, 0, r0, cr3, cr4, {1}
     b24:	0b3b0b3a 	bleq	ec3814 <__bss_end__+0xeb9884>
     b28:	17021349 	strne	r1, [r2, -r9, asr #6]
     b2c:	89290000 	stmdbhi	r9!, {}	; <UNPREDICTABLE>
     b30:	11010182 	smlabbne	r1, r2, r1, r0
     b34:	01133101 	tsteq	r3, r1, lsl #2
     b38:	2a000013 	bcs	b8c <_start-0x7474>
     b3c:	0001828a 	andeq	r8, r1, sl, lsl #5
     b40:	42911802 	addsmi	r1, r1, #131072	; 0x20000
     b44:	2b000018 	blcs	bac <_start-0x7454>
     b48:	00018289 	andeq	r8, r1, r9, lsl #5
     b4c:	13310111 	teqne	r1, #1073741828	; 0x40000004
     b50:	2e2c0000 	cdpcs	0, 2, cr0, cr12, cr0, {0}
     b54:	3a0e0301 	bcc	381760 <__bss_end__+0x3777d0>
     b58:	270b3b0b 	strcs	r3, [fp, -fp, lsl #22]
     b5c:	11134919 	tstne	r3, r9, lsl r9
     b60:	40061201 	andmi	r1, r6, r1, lsl #4
     b64:	19429718 	stmdbne	r2, {r3, r4, r8, r9, sl, ip, pc}^
     b68:	00001301 	andeq	r1, r0, r1, lsl #6
     b6c:	0300052d 	movweq	r0, #1325	; 0x52d
     b70:	3b0b3a0e 	blcc	2cf3b0 <__bss_end__+0x2c5420>
     b74:	0213490b 	andseq	r4, r3, #180224	; 0x2c000
     b78:	2e000017 	mcrcs	0, 0, r0, cr0, cr7, {0}
     b7c:	0111010b 	tsteq	r1, fp, lsl #2
     b80:	13010612 	movwne	r0, #5650	; 0x1612
     b84:	2e2f0000 	cdpcs	0, 2, cr0, cr15, cr0, {0}
     b88:	3a080301 	bcc	201794 <__bss_end__+0x1f7804>
     b8c:	270b3b0b 	strcs	r3, [fp, -fp, lsl #22]
     b90:	11134919 	tstne	r3, r9, lsl r9
     b94:	40061201 	andmi	r1, r6, r1, lsl #4
     b98:	19429718 	stmdbne	r2, {r3, r4, r8, r9, sl, ip, pc}^
     b9c:	00001301 	andeq	r1, r0, r1, lsl #6
     ba0:	3f012e30 	svccc	0x00012e30
     ba4:	3a0e0319 	bcc	381810 <__bss_end__+0x377880>
     ba8:	270b3b0b 	strcs	r3, [fp, -fp, lsl #22]
     bac:	12011119 	andne	r1, r1, #1073741830	; 0x40000006
     bb0:	97184006 	ldrls	r4, [r8, -r6]
     bb4:	13011942 	movwne	r1, #6466	; 0x1942
     bb8:	2e310000 	cdpcs	0, 3, cr0, cr1, cr0, {0}
     bbc:	3c193f00 	ldccc	15, cr3, [r9], {-0}
     bc0:	030e6e19 	movweq	r6, #60953	; 0xee19
     bc4:	3b0b3a0e 	blcc	2cf404 <__bss_end__+0x2c5474>
     bc8:	0000000b 	andeq	r0, r0, fp
     bcc:	25011101 	strcs	r1, [r1, #-257]	; 0xfffffeff
     bd0:	030b130e 	movweq	r1, #45838	; 0xb30e
     bd4:	110e1b0e 	tstne	lr, lr, lsl #22
     bd8:	10061201 	andne	r1, r6, r1, lsl #4
     bdc:	02000017 	andeq	r0, r0, #23
     be0:	0b0b0024 	bleq	2c0c78 <__bss_end__+0x2b6ce8>
     be4:	08030b3e 	stmdaeq	r3, {r1, r2, r3, r4, r5, r8, r9, fp}
     be8:	24030000 	strcs	r0, [r3], #-0
     bec:	3e0b0b00 	vmlacc.f64	d0, d11, d0
     bf0:	000e030b 	andeq	r0, lr, fp, lsl #6
     bf4:	00160400 	andseq	r0, r6, r0, lsl #8
     bf8:	0b3a0e03 	bleq	e8440c <__bss_end__+0xe7a47c>
     bfc:	13490b3b 	movtne	r0, #39739	; 0x9b3b
     c00:	16050000 	strne	r0, [r5], -r0
     c04:	3a0e0300 	bcc	38180c <__bss_end__+0x37787c>
     c08:	49053b0b 	stmdbmi	r5, {r0, r1, r3, r8, r9, fp, ip, sp}
     c0c:	06000013 			; <UNDEFINED> instruction: 0x06000013
     c10:	0b0b0117 	bleq	2c1074 <__bss_end__+0x2b70e4>
     c14:	0b3b0b3a 	bleq	ec3904 <__bss_end__+0xeb9974>
     c18:	00001301 	andeq	r1, r0, r1, lsl #6
     c1c:	03000d07 	movweq	r0, #3335	; 0xd07
     c20:	3b0b3a0e 	blcc	2cf460 <__bss_end__+0x2c54d0>
     c24:	0013490b 	andseq	r4, r3, fp, lsl #18
     c28:	01010800 	tsteq	r1, r0, lsl #16
     c2c:	13011349 	movwne	r1, #4937	; 0x1349
     c30:	21090000 	mrscs	r0, (UNDEF: 9)
     c34:	2f134900 	svccs	0x00134900
     c38:	0a00000b 	beq	c6c <_start-0x7394>
     c3c:	0b0b0113 	bleq	2c1090 <__bss_end__+0x2b7100>
     c40:	0b3b0b3a 	bleq	ec3930 <__bss_end__+0xeb99a0>
     c44:	00001301 	andeq	r1, r0, r1, lsl #6
     c48:	03000d0b 	movweq	r0, #3339	; 0xd0b
     c4c:	3b0b3a0e 	blcc	2cf48c <__bss_end__+0x2c54fc>
     c50:	3813490b 	ldmdacc	r3, {r0, r1, r3, r8, fp, lr}
     c54:	0c00000b 	stceq	0, cr0, [r0], {11}
     c58:	0b0b000f 	bleq	2c0c9c <__bss_end__+0x2b6d0c>
     c5c:	0f0d0000 	svceq	0x000d0000
     c60:	490b0b00 	stmdbmi	fp, {r8, r9, fp}
     c64:	0e000013 	mcreq	0, 0, r0, cr0, cr3, {0}
     c68:	13490026 	movtne	r0, #36902	; 0x9026
     c6c:	130f0000 	movwne	r0, #61440	; 0xf000
     c70:	0b0e0301 	bleq	38187c <__bss_end__+0x3778ec>
     c74:	3b0b3a0b 	blcc	2cf4a8 <__bss_end__+0x2c5518>
     c78:	0013010b 	andseq	r0, r3, fp, lsl #2
     c7c:	000d1000 	andeq	r1, sp, r0
     c80:	0b3a0803 	bleq	e82c94 <__bss_end__+0xe78d04>
     c84:	13490b3b 	movtne	r0, #39739	; 0x9b3b
     c88:	00000b38 	andeq	r0, r0, r8, lsr fp
     c8c:	03011311 	movweq	r1, #4881	; 0x1311
     c90:	3a050b0e 	bcc	1438d0 <__bss_end__+0x139940>
     c94:	010b3b0b 	tsteq	fp, fp, lsl #22
     c98:	12000013 	andne	r0, r0, #19
     c9c:	0e03000d 	cdpeq	0, 0, cr0, cr3, cr13, {0}
     ca0:	0b3b0b3a 	bleq	ec3990 <__bss_end__+0xeb9a00>
     ca4:	05381349 	ldreq	r1, [r8, #-841]!	; 0xfffffcb7
     ca8:	15130000 	ldrne	r0, [r3, #-0]
     cac:	00192700 	andseq	r2, r9, r0, lsl #14
     cb0:	01151400 	tsteq	r5, r0, lsl #8
     cb4:	13491927 	movtne	r1, #39207	; 0x9927
     cb8:	00001301 	andeq	r1, r0, r1, lsl #6
     cbc:	49000515 	stmdbmi	r0, {r0, r2, r4, r8, sl}
     cc0:	16000013 			; <UNDEFINED> instruction: 0x16000013
     cc4:	0e030113 	mcreq	1, 0, r0, cr3, cr3, {0}
     cc8:	0b3a050b 	bleq	e820fc <__bss_end__+0xe7816c>
     ccc:	1301053b 	movwne	r0, #5435	; 0x153b
     cd0:	0d170000 	ldceq	0, cr0, [r7, #-0]
     cd4:	3a0e0300 	bcc	3818dc <__bss_end__+0x37794c>
     cd8:	49053b0b 	stmdbmi	r5, {r0, r1, r3, r8, r9, fp, ip, sp}
     cdc:	000b3813 	andeq	r3, fp, r3, lsl r8
     ce0:	000d1800 	andeq	r1, sp, r0, lsl #16
     ce4:	0b3a0e03 	bleq	e844f8 <__bss_end__+0xe7a568>
     ce8:	1349053b 	movtne	r0, #38203	; 0x953b
     cec:	00000538 	andeq	r0, r0, r8, lsr r5
     cf0:	03011319 	movweq	r1, #4889	; 0x1319
     cf4:	3a0b0b0e 	bcc	2c3934 <__bss_end__+0x2b99a4>
     cf8:	01053b0b 	tsteq	r5, fp, lsl #22
     cfc:	1a000013 	bne	d50 <_start-0x72b0>
     d00:	0b0b0113 	bleq	2c1154 <__bss_end__+0x2b71c4>
     d04:	053b0b3a 	ldreq	r0, [fp, #-2874]!	; 0xfffff4c6
     d08:	00001301 	andeq	r1, r0, r1, lsl #6
     d0c:	0b01171b 	bleq	46980 <__bss_end__+0x3c9f0>
     d10:	3b0b3a0b 	blcc	2cf544 <__bss_end__+0x2c55b4>
     d14:	00130105 	andseq	r0, r3, r5, lsl #2
     d18:	000d1c00 	andeq	r1, sp, r0, lsl #24
     d1c:	0b3a0e03 	bleq	e84530 <__bss_end__+0xe7a5a0>
     d20:	1349053b 	movtne	r0, #38203	; 0x953b
     d24:	151d0000 	ldrne	r0, [sp, #-0]
     d28:	01192701 	tsteq	r9, r1, lsl #14
     d2c:	1e000013 	mcrne	0, 0, r0, cr0, cr3, {0}
     d30:	0e030034 	mcreq	0, 0, r0, cr3, cr4, {1}
     d34:	053b0b3a 	ldreq	r0, [fp, #-2874]!	; 0xfffff4c6
     d38:	193f1349 	ldmdbne	pc!, {r0, r3, r6, r8, r9, ip}	; <UNPREDICTABLE>
     d3c:	0000193c 	andeq	r1, r0, ip, lsr r9
     d40:	0300341f 	movweq	r3, #1055	; 0x41f
     d44:	3b0b3a0e 	blcc	2cf584 <__bss_end__+0x2c55f4>
     d48:	3f13490b 	svccc	0x0013490b
     d4c:	00193c19 	andseq	r3, r9, r9, lsl ip
     d50:	00342000 	eorseq	r2, r4, r0
     d54:	0b3a1347 	bleq	e85a78 <__bss_end__+0xe7bae8>
     d58:	18020b3b 	stmdane	r2, {r0, r1, r3, r4, r5, r8, r9, fp}
     d5c:	2e210000 	cdpcs	0, 2, cr0, cr1, cr0, {0}
     d60:	03193f01 	tsteq	r9, #1, 30
     d64:	3b0b3a0e 	blcc	2cf5a4 <__bss_end__+0x2c5614>
     d68:	4919270b 	ldmdbmi	r9, {r0, r1, r3, r8, r9, sl, sp}
     d6c:	12011113 	andne	r1, r1, #-1073741820	; 0xc0000004
     d70:	96184006 	ldrls	r4, [r8], -r6
     d74:	00001942 	andeq	r1, r0, r2, asr #18
     d78:	03000522 	movweq	r0, #1314	; 0x522
     d7c:	3b0b3a08 	blcc	2cf5a4 <__bss_end__+0x2c5614>
     d80:	0213490b 	andseq	r4, r3, #180224	; 0x2c000
     d84:	00000017 	andeq	r0, r0, r7, lsl r0
     d88:	25011101 	strcs	r1, [r1, #-257]	; 0xfffffeff
     d8c:	030b130e 	movweq	r1, #45838	; 0xb30e
     d90:	110e1b0e 	tstne	lr, lr, lsl #22
     d94:	10061201 	andne	r1, r6, r1, lsl #4
     d98:	02000017 	andeq	r0, r0, #23
     d9c:	0b0b0024 	bleq	2c0e34 <__bss_end__+0x2b6ea4>
     da0:	08030b3e 	stmdaeq	r3, {r1, r2, r3, r4, r5, r8, r9, fp}
     da4:	24030000 	strcs	r0, [r3], #-0
     da8:	3e0b0b00 	vmlacc.f64	d0, d11, d0
     dac:	000e030b 	andeq	r0, lr, fp, lsl #6
     db0:	00160400 	andseq	r0, r6, r0, lsl #8
     db4:	0b3a0e03 	bleq	e845c8 <__bss_end__+0xe7a638>
     db8:	13490b3b 	movtne	r0, #39739	; 0x9b3b
     dbc:	16050000 	strne	r0, [r5], -r0
     dc0:	3a0e0300 	bcc	3819c8 <__bss_end__+0x377a38>
     dc4:	49053b0b 	stmdbmi	r5, {r0, r1, r3, r8, r9, fp, ip, sp}
     dc8:	06000013 			; <UNDEFINED> instruction: 0x06000013
     dcc:	0b0b0117 	bleq	2c1230 <__bss_end__+0x2b72a0>
     dd0:	0b3b0b3a 	bleq	ec3ac0 <__bss_end__+0xeb9b30>
     dd4:	00001301 	andeq	r1, r0, r1, lsl #6
     dd8:	03000d07 	movweq	r0, #3335	; 0xd07
     ddc:	3b0b3a0e 	blcc	2cf61c <__bss_end__+0x2c568c>
     de0:	0013490b 	andseq	r4, r3, fp, lsl #18
     de4:	01010800 	tsteq	r1, r0, lsl #16
     de8:	13011349 	movwne	r1, #4937	; 0x1349
     dec:	21090000 	mrscs	r0, (UNDEF: 9)
     df0:	2f134900 	svccs	0x00134900
     df4:	0a00000b 	beq	e28 <_start-0x71d8>
     df8:	0b0b0113 	bleq	2c124c <__bss_end__+0x2b72bc>
     dfc:	0b3b0b3a 	bleq	ec3aec <__bss_end__+0xeb9b5c>
     e00:	00001301 	andeq	r1, r0, r1, lsl #6
     e04:	03000d0b 	movweq	r0, #3339	; 0xd0b
     e08:	3b0b3a0e 	blcc	2cf648 <__bss_end__+0x2c56b8>
     e0c:	3813490b 	ldmdacc	r3, {r0, r1, r3, r8, fp, lr}
     e10:	0c00000b 	stceq	0, cr0, [r0], {11}
     e14:	0b0b000f 	bleq	2c0e58 <__bss_end__+0x2b6ec8>
     e18:	0f0d0000 	svceq	0x000d0000
     e1c:	490b0b00 	stmdbmi	fp, {r8, r9, fp}
     e20:	0e000013 	mcreq	0, 0, r0, cr0, cr3, {0}
     e24:	13490026 	movtne	r0, #36902	; 0x9026
     e28:	130f0000 	movwne	r0, #61440	; 0xf000
     e2c:	0b0e0301 	bleq	381a38 <__bss_end__+0x377aa8>
     e30:	3b0b3a0b 	blcc	2cf664 <__bss_end__+0x2c56d4>
     e34:	0013010b 	andseq	r0, r3, fp, lsl #2
     e38:	000d1000 	andeq	r1, sp, r0
     e3c:	0b3a0803 	bleq	e82e50 <__bss_end__+0xe78ec0>
     e40:	13490b3b 	movtne	r0, #39739	; 0x9b3b
     e44:	00000b38 	andeq	r0, r0, r8, lsr fp
     e48:	03011311 	movweq	r1, #4881	; 0x1311
     e4c:	3a050b0e 	bcc	143a8c <__bss_end__+0x139afc>
     e50:	010b3b0b 	tsteq	fp, fp, lsl #22
     e54:	12000013 	andne	r0, r0, #19
     e58:	0e03000d 	cdpeq	0, 0, cr0, cr3, cr13, {0}
     e5c:	0b3b0b3a 	bleq	ec3b4c <__bss_end__+0xeb9bbc>
     e60:	05381349 	ldreq	r1, [r8, #-841]!	; 0xfffffcb7
     e64:	15130000 	ldrne	r0, [r3, #-0]
     e68:	00192700 	andseq	r2, r9, r0, lsl #14
     e6c:	01151400 	tsteq	r5, r0, lsl #8
     e70:	13491927 	movtne	r1, #39207	; 0x9927
     e74:	00001301 	andeq	r1, r0, r1, lsl #6
     e78:	49000515 	stmdbmi	r0, {r0, r2, r4, r8, sl}
     e7c:	16000013 			; <UNDEFINED> instruction: 0x16000013
     e80:	0e030113 	mcreq	1, 0, r0, cr3, cr3, {0}
     e84:	0b3a050b 	bleq	e822b8 <__bss_end__+0xe78328>
     e88:	1301053b 	movwne	r0, #5435	; 0x153b
     e8c:	0d170000 	ldceq	0, cr0, [r7, #-0]
     e90:	3a0e0300 	bcc	381a98 <__bss_end__+0x377b08>
     e94:	49053b0b 	stmdbmi	r5, {r0, r1, r3, r8, r9, fp, ip, sp}
     e98:	000b3813 	andeq	r3, fp, r3, lsl r8
     e9c:	000d1800 	andeq	r1, sp, r0, lsl #16
     ea0:	0b3a0e03 	bleq	e846b4 <__bss_end__+0xe7a724>
     ea4:	1349053b 	movtne	r0, #38203	; 0x953b
     ea8:	00000538 	andeq	r0, r0, r8, lsr r5
     eac:	03011319 	movweq	r1, #4889	; 0x1319
     eb0:	3a0b0b0e 	bcc	2c3af0 <__bss_end__+0x2b9b60>
     eb4:	01053b0b 	tsteq	r5, fp, lsl #22
     eb8:	1a000013 	bne	f0c <_start-0x70f4>
     ebc:	0b0b0113 	bleq	2c1310 <__bss_end__+0x2b7380>
     ec0:	053b0b3a 	ldreq	r0, [fp, #-2874]!	; 0xfffff4c6
     ec4:	00001301 	andeq	r1, r0, r1, lsl #6
     ec8:	0b01171b 	bleq	46b3c <__bss_end__+0x3cbac>
     ecc:	3b0b3a0b 	blcc	2cf700 <__bss_end__+0x2c5770>
     ed0:	00130105 	andseq	r0, r3, r5, lsl #2
     ed4:	000d1c00 	andeq	r1, sp, r0, lsl #24
     ed8:	0b3a0e03 	bleq	e846ec <__bss_end__+0xe7a75c>
     edc:	1349053b 	movtne	r0, #38203	; 0x953b
     ee0:	151d0000 	ldrne	r0, [sp, #-0]
     ee4:	01192701 	tsteq	r9, r1, lsl #14
     ee8:	1e000013 	mcrne	0, 0, r0, cr0, cr3, {0}
     eec:	0e030034 	mcreq	0, 0, r0, cr3, cr4, {1}
     ef0:	053b0b3a 	ldreq	r0, [fp, #-2874]!	; 0xfffff4c6
     ef4:	193f1349 	ldmdbne	pc!, {r0, r3, r6, r8, r9, ip}	; <UNPREDICTABLE>
     ef8:	0000193c 	andeq	r1, r0, ip, lsr r9
     efc:	0300341f 	movweq	r3, #1055	; 0x41f
     f00:	3b0b3a0e 	blcc	2cf740 <__bss_end__+0x2c57b0>
     f04:	3f13490b 	svccc	0x0013490b
     f08:	00193c19 	andseq	r3, r9, r9, lsl ip
     f0c:	00342000 	eorseq	r2, r4, r0
     f10:	0b3a1347 	bleq	e85c34 <__bss_end__+0xe7bca4>
     f14:	18020b3b 	stmdane	r2, {r0, r1, r3, r4, r5, r8, r9, fp}
     f18:	2e210000 	cdpcs	0, 2, cr0, cr1, cr0, {0}
     f1c:	03193f01 	tsteq	r9, #1, 30
     f20:	3b0b3a0e 	blcc	2cf760 <__bss_end__+0x2c57d0>
     f24:	1119270b 	tstne	r9, fp, lsl #14
     f28:	40061201 	andmi	r1, r6, r1, lsl #4
     f2c:	19429718 	stmdbne	r2, {r3, r4, r8, r9, sl, ip, pc}^
     f30:	00001301 	andeq	r1, r0, r1, lsl #6
     f34:	03000522 	movweq	r0, #1314	; 0x522
     f38:	3b0b3a08 	blcc	2cf760 <__bss_end__+0x2c57d0>
     f3c:	0213490b 	andseq	r4, r3, #180224	; 0x2c000
     f40:	23000018 	movwcs	r0, #24
     f44:	193f002e 	ldmdbne	pc!, {r1, r2, r3, r5}	; <UNPREDICTABLE>
     f48:	0b3a0e03 	bleq	e8475c <__bss_end__+0xe7a7cc>
     f4c:	19270b3b 	stmdbne	r7!, {r0, r1, r3, r4, r5, r8, r9, fp}
     f50:	06120111 			; <UNDEFINED> instruction: 0x06120111
     f54:	42971840 	addsmi	r1, r7, #64, 16	; 0x400000
     f58:	24000019 	strcs	r0, [r0], #-25	; 0xffffffe7
     f5c:	0e03012e 	adfeqsp	f0, f3, #0.5
     f60:	0b3b0b3a 	bleq	ec3c50 <__bss_end__+0xeb9cc0>
     f64:	13491927 	movtne	r1, #39207	; 0x9927
     f68:	06120111 			; <UNDEFINED> instruction: 0x06120111
     f6c:	42971840 	addsmi	r1, r7, #64, 16	; 0x400000
     f70:	00130119 	andseq	r0, r3, r9, lsl r1
     f74:	00052500 	andeq	r2, r5, r0, lsl #10
     f78:	0b3a0803 	bleq	e82f8c <__bss_end__+0xe78ffc>
     f7c:	13490b3b 	movtne	r0, #39739	; 0x9b3b
     f80:	00001702 	andeq	r1, r0, r2, lsl #14
     f84:	01828926 	orreq	r8, r2, r6, lsr #18
     f88:	31011101 	tstcc	r1, r1, lsl #2
     f8c:	27000013 	smladcs	r0, r3, r0, r0
     f90:	0001828a 	andeq	r8, r1, sl, lsl #5
     f94:	42911802 	addsmi	r1, r1, #131072	; 0x20000
     f98:	28000018 	stmdacs	r0, {r3, r4}
     f9c:	193f002e 	ldmdbne	pc!, {r1, r2, r3, r5}	; <UNPREDICTABLE>
     fa0:	0e6e193c 			; <UNDEFINED> instruction: 0x0e6e193c
     fa4:	0b3a0e03 	bleq	e847b8 <__bss_end__+0xe7a828>
     fa8:	00000b3b 	andeq	r0, r0, fp, lsr fp
     fac:	01110100 	tsteq	r1, r0, lsl #2
     fb0:	0b130e25 	bleq	4c484c <__bss_end__+0x4ba8bc>
     fb4:	0e1b0e03 	cdpeq	14, 1, cr0, cr11, cr3, {0}
     fb8:	06120111 			; <UNDEFINED> instruction: 0x06120111
     fbc:	00001710 	andeq	r1, r0, r0, lsl r7
     fc0:	0b002402 	bleq	9fd0 <__bss_end__+0x40>
     fc4:	030b3e0b 	movweq	r3, #48651	; 0xbe0b
     fc8:	03000008 	movweq	r0, #8
     fcc:	0b0b0024 	bleq	2c1064 <__bss_end__+0x2b70d4>
     fd0:	0e030b3e 	vmoveq.16	d3[0], r0
     fd4:	16040000 	strne	r0, [r4], -r0
     fd8:	3a0e0300 	bcc	381be0 <__bss_end__+0x377c50>
     fdc:	490b3b0b 	stmdbmi	fp, {r0, r1, r3, r8, r9, fp, ip, sp}
     fe0:	05000013 	streq	r0, [r0, #-19]	; 0xffffffed
     fe4:	0e030016 	mcreq	0, 0, r0, cr3, cr6, {0}
     fe8:	053b0b3a 	ldreq	r0, [fp, #-2874]!	; 0xfffff4c6
     fec:	00001349 	andeq	r1, r0, r9, asr #6
     ff0:	0b011706 	bleq	46c10 <__bss_end__+0x3cc80>
     ff4:	3b0b3a0b 	blcc	2cf828 <__bss_end__+0x2c5898>
     ff8:	0013010b 	andseq	r0, r3, fp, lsl #2
     ffc:	000d0700 	andeq	r0, sp, r0, lsl #14
    1000:	0b3a0e03 	bleq	e84814 <__bss_end__+0xe7a884>
    1004:	13490b3b 	movtne	r0, #39739	; 0x9b3b
    1008:	01080000 	mrseq	r0, (UNDEF: 8)
    100c:	01134901 	tsteq	r3, r1, lsl #18
    1010:	09000013 	stmdbeq	r0, {r0, r1, r4}
    1014:	13490021 	movtne	r0, #36897	; 0x9021
    1018:	00000b2f 	andeq	r0, r0, pc, lsr #22
    101c:	0b01130a 	bleq	45c4c <__bss_end__+0x3bcbc>
    1020:	3b0b3a0b 	blcc	2cf854 <__bss_end__+0x2c58c4>
    1024:	0013010b 	andseq	r0, r3, fp, lsl #2
    1028:	000d0b00 	andeq	r0, sp, r0, lsl #22
    102c:	0b3a0e03 	bleq	e84840 <__bss_end__+0xe7a8b0>
    1030:	13490b3b 	movtne	r0, #39739	; 0x9b3b
    1034:	00000b38 	andeq	r0, r0, r8, lsr fp
    1038:	0b000f0c 	bleq	4c70 <_start-0x3390>
    103c:	0d00000b 	stceq	0, cr0, [r0, #-44]	; 0xffffffd4
    1040:	0b0b000f 	bleq	2c1084 <__bss_end__+0x2b70f4>
    1044:	00001349 	andeq	r1, r0, r9, asr #6
    1048:	4900260e 	stmdbmi	r0, {r1, r2, r3, r9, sl, sp}
    104c:	0f000013 	svceq	0x00000013
    1050:	0e030113 	mcreq	1, 0, r0, cr3, cr3, {0}
    1054:	0b3a0b0b 	bleq	e83c88 <__bss_end__+0xe79cf8>
    1058:	13010b3b 	movwne	r0, #6971	; 0x1b3b
    105c:	0d100000 	ldceq	0, cr0, [r0, #-0]
    1060:	3a080300 	bcc	201c68 <__bss_end__+0x1f7cd8>
    1064:	490b3b0b 	stmdbmi	fp, {r0, r1, r3, r8, r9, fp, ip, sp}
    1068:	000b3813 	andeq	r3, fp, r3, lsl r8
    106c:	01131100 	tsteq	r3, r0, lsl #2
    1070:	050b0e03 	streq	r0, [fp, #-3587]	; 0xfffff1fd
    1074:	0b3b0b3a 	bleq	ec3d64 <__bss_end__+0xeb9dd4>
    1078:	00001301 	andeq	r1, r0, r1, lsl #6
    107c:	03000d12 	movweq	r0, #3346	; 0xd12
    1080:	3b0b3a0e 	blcc	2cf8c0 <__bss_end__+0x2c5930>
    1084:	3813490b 	ldmdacc	r3, {r0, r1, r3, r8, fp, lr}
    1088:	13000005 	movwne	r0, #5
    108c:	19270015 	stmdbne	r7!, {r0, r2, r4}
    1090:	15140000 	ldrne	r0, [r4, #-0]
    1094:	49192701 	ldmdbmi	r9, {r0, r8, r9, sl, sp}
    1098:	00130113 	andseq	r0, r3, r3, lsl r1
    109c:	00051500 	andeq	r1, r5, r0, lsl #10
    10a0:	00001349 	andeq	r1, r0, r9, asr #6
    10a4:	03011316 	movweq	r1, #4886	; 0x1316
    10a8:	3a050b0e 	bcc	143ce8 <__bss_end__+0x139d58>
    10ac:	01053b0b 	tsteq	r5, fp, lsl #22
    10b0:	17000013 	smladne	r0, r3, r0, r0
    10b4:	0e03000d 	cdpeq	0, 0, cr0, cr3, cr13, {0}
    10b8:	053b0b3a 	ldreq	r0, [fp, #-2874]!	; 0xfffff4c6
    10bc:	0b381349 	bleq	e05de8 <__bss_end__+0xdfbe58>
    10c0:	0d180000 	ldceq	0, cr0, [r8, #-0]
    10c4:	3a0e0300 	bcc	381ccc <__bss_end__+0x377d3c>
    10c8:	49053b0b 	stmdbmi	r5, {r0, r1, r3, r8, r9, fp, ip, sp}
    10cc:	00053813 	andeq	r3, r5, r3, lsl r8
    10d0:	01131900 	tsteq	r3, r0, lsl #18
    10d4:	0b0b0e03 	bleq	2c48e8 <__bss_end__+0x2ba958>
    10d8:	053b0b3a 	ldreq	r0, [fp, #-2874]!	; 0xfffff4c6
    10dc:	00001301 	andeq	r1, r0, r1, lsl #6
    10e0:	0b01131a 	bleq	45d50 <__bss_end__+0x3bdc0>
    10e4:	3b0b3a0b 	blcc	2cf918 <__bss_end__+0x2c5988>
    10e8:	00130105 	andseq	r0, r3, r5, lsl #2
    10ec:	01171b00 	tsteq	r7, r0, lsl #22
    10f0:	0b3a0b0b 	bleq	e83d24 <__bss_end__+0xe79d94>
    10f4:	1301053b 	movwne	r0, #5435	; 0x153b
    10f8:	0d1c0000 	ldceq	0, cr0, [ip, #-0]
    10fc:	3a0e0300 	bcc	381d04 <__bss_end__+0x377d74>
    1100:	49053b0b 	stmdbmi	r5, {r0, r1, r3, r8, r9, fp, ip, sp}
    1104:	1d000013 	stcne	0, cr0, [r0, #-76]	; 0xffffffb4
    1108:	19270115 	stmdbne	r7!, {r0, r2, r4, r8}
    110c:	00001301 	andeq	r1, r0, r1, lsl #6
    1110:	0300341e 	movweq	r3, #1054	; 0x41e
    1114:	3b0b3a0e 	blcc	2cf954 <__bss_end__+0x2c59c4>
    1118:	3f134905 	svccc	0x00134905
    111c:	00193c19 	andseq	r3, r9, r9, lsl ip
    1120:	00341f00 	eorseq	r1, r4, r0, lsl #30
    1124:	0b3a0e03 	bleq	e84938 <__bss_end__+0xe7a9a8>
    1128:	13490b3b 	movtne	r0, #39739	; 0x9b3b
    112c:	193c193f 	ldmdbne	ip!, {r0, r1, r2, r3, r4, r5, r8, fp, ip}
    1130:	34200000 	strtcc	r0, [r0], #-0
    1134:	3a0e0300 	bcc	381d3c <__bss_end__+0x377dac>
    1138:	490b3b0b 	stmdbmi	fp, {r0, r1, r3, r8, r9, fp, ip, sp}
    113c:	00193f13 	andseq	r3, r9, r3, lsl pc
    1140:	01042100 	mrseq	r2, (UNDEF: 20)
    1144:	13490b0b 	movtne	r0, #39691	; 0x9b0b
    1148:	0b3b0b3a 	bleq	ec3e38 <__bss_end__+0xeb9ea8>
    114c:	00001301 	andeq	r1, r0, r1, lsl #6
    1150:	03002822 	movweq	r2, #2082	; 0x822
    1154:	000b1c0e 	andeq	r1, fp, lr, lsl #24
    1158:	00342300 	eorseq	r2, r4, r0, lsl #6
    115c:	0b3a0e03 	bleq	e84970 <__bss_end__+0xe7a9e0>
    1160:	13490b3b 	movtne	r0, #39739	; 0x9b3b
    1164:	2e240000 	cdpcs	0, 2, cr0, cr4, cr0, {0}
    1168:	03193f01 	tsteq	r9, #1, 30
    116c:	3b0b3a0e 	blcc	2cf9ac <__bss_end__+0x2c5a1c>
    1170:	1201110b 	andne	r1, r1, #-1073741822	; 0xc0000002
    1174:	97184006 	ldrls	r4, [r8, -r6]
    1178:	13011942 	movwne	r1, #6466	; 0x1942
    117c:	2e250000 	cdpcs	0, 2, cr0, cr5, cr0, {0}
    1180:	03193f00 	tsteq	r9, #0, 30
    1184:	3b0b3a0e 	blcc	2cf9c4 <__bss_end__+0x2c5a34>
    1188:	3c19270b 	ldccc	7, cr2, [r9], {11}
    118c:	26000019 			; <UNDEFINED> instruction: 0x26000019
    1190:	08030034 	stmdaeq	r3, {r2, r4, r5}
    1194:	0b3b0b3a 	bleq	ec3e84 <__bss_end__+0xeb9ef4>
    1198:	17021349 	strne	r1, [r2, -r9, asr #6]
    119c:	89270000 	stmdbhi	r7!, {}	; <UNPREDICTABLE>
    11a0:	11000182 	smlabbne	r0, r2, r1, r0
    11a4:	00133101 	andseq	r3, r3, r1, lsl #2
    11a8:	82892800 	addhi	r2, r9, #0, 16
    11ac:	01110101 	tsteq	r1, r1, lsl #2
    11b0:	00001331 	andeq	r1, r0, r1, lsr r3
    11b4:	01828a29 	orreq	r8, r2, r9, lsr #20
    11b8:	91180200 	tstls	r8, r0, lsl #4
    11bc:	00001842 	andeq	r1, r0, r2, asr #16
    11c0:	03012e2a 	movweq	r2, #7722	; 0x1e2a
    11c4:	3b0b3a0e 	blcc	2cfa04 <__bss_end__+0x2c5a74>
    11c8:	4919270b 	ldmdbmi	r9, {r0, r1, r3, r8, r9, sl, sp}
    11cc:	12011113 	andne	r1, r1, #-1073741820	; 0xc0000004
    11d0:	97184006 	ldrls	r4, [r8, -r6]
    11d4:	13011942 	movwne	r1, #6466	; 0x1942
    11d8:	052b0000 	streq	r0, [fp, #-0]!
    11dc:	3a080300 	bcc	201de4 <__bss_end__+0x1f7e54>
    11e0:	490b3b0b 	stmdbmi	fp, {r0, r1, r3, r8, r9, fp, ip, sp}
    11e4:	00180213 	andseq	r0, r8, r3, lsl r2
    11e8:	002e2c00 	eoreq	r2, lr, r0, lsl #24
    11ec:	193c193f 	ldmdbne	ip!, {r0, r1, r2, r3, r4, r5, r8, fp, ip}
    11f0:	0e030e6e 	cdpeq	14, 0, cr0, cr3, cr14, {3}
    11f4:	0b3b0b3a 	bleq	ec3ee4 <__bss_end__+0xeb9f54>
    11f8:	01000000 	mrseq	r0, (UNDEF: 0)
    11fc:	0e250111 	mcreq	1, 1, r0, cr5, cr1, {0}
    1200:	0e030b13 	vmoveq.32	d3[0], r0
    1204:	17550e1b 	smmlane	r5, fp, lr, r0
    1208:	17100111 			; <UNDEFINED> instruction: 0x17100111
    120c:	24020000 	strcs	r0, [r2], #-0
    1210:	3e0b0b00 	vmlacc.f64	d0, d11, d0
    1214:	0008030b 	andeq	r0, r8, fp, lsl #6
    1218:	00260300 	eoreq	r0, r6, r0, lsl #6
    121c:	00001349 	andeq	r1, r0, r9, asr #6
    1220:	0b002404 	bleq	a238 <__bss_end__+0x2a8>
    1224:	030b3e0b 	movweq	r3, #48651	; 0xbe0b
    1228:	0500000e 	streq	r0, [r0, #-14]
    122c:	0e030016 	mcreq	0, 0, r0, cr3, cr6, {0}
    1230:	0b3b0b3a 	bleq	ec3f20 <__bss_end__+0xeb9f90>
    1234:	00001349 	andeq	r1, r0, r9, asr #6
    1238:	03001606 	movweq	r1, #1542	; 0x606
    123c:	3b0b3a0e 	blcc	2cfa7c <__bss_end__+0x2c5aec>
    1240:	00134905 	andseq	r4, r3, r5, lsl #18
    1244:	01170700 	tsteq	r7, r0, lsl #14
    1248:	0b3a0b0b 	bleq	e83e7c <__bss_end__+0xe79eec>
    124c:	13010b3b 	movwne	r0, #6971	; 0x1b3b
    1250:	0d080000 	stceq	0, cr0, [r8, #-0]
    1254:	3a0e0300 	bcc	381e5c <__bss_end__+0x377ecc>
    1258:	490b3b0b 	stmdbmi	fp, {r0, r1, r3, r8, r9, fp, ip, sp}
    125c:	09000013 	stmdbeq	r0, {r0, r1, r4}
    1260:	13490101 	movtne	r0, #37121	; 0x9101
    1264:	00001301 	andeq	r1, r0, r1, lsl #6
    1268:	4900210a 	stmdbmi	r0, {r1, r3, r8, sp}
    126c:	000b2f13 	andeq	r2, fp, r3, lsl pc
    1270:	01130b00 	tsteq	r3, r0, lsl #22
    1274:	0b3a0b0b 	bleq	e83ea8 <__bss_end__+0xe79f18>
    1278:	13010b3b 	movwne	r0, #6971	; 0x1b3b
    127c:	0d0c0000 	stceq	0, cr0, [ip, #-0]
    1280:	3a0e0300 	bcc	381e88 <__bss_end__+0x377ef8>
    1284:	490b3b0b 	stmdbmi	fp, {r0, r1, r3, r8, r9, fp, ip, sp}
    1288:	000b3813 	andeq	r3, fp, r3, lsl r8
    128c:	000f0d00 	andeq	r0, pc, r0, lsl #26
    1290:	00000b0b 	andeq	r0, r0, fp, lsl #22
    1294:	0b000f0e 	bleq	4ed4 <_start-0x312c>
    1298:	0013490b 	andseq	r4, r3, fp, lsl #18
    129c:	01130f00 	tsteq	r3, r0, lsl #30
    12a0:	0b0b0e03 	bleq	2c4ab4 <__bss_end__+0x2bab24>
    12a4:	0b3b0b3a 	bleq	ec3f94 <__bss_end__+0xeba004>
    12a8:	00001301 	andeq	r1, r0, r1, lsl #6
    12ac:	03000d10 	movweq	r0, #3344	; 0xd10
    12b0:	3b0b3a08 	blcc	2cfad8 <__bss_end__+0x2c5b48>
    12b4:	3813490b 	ldmdacc	r3, {r0, r1, r3, r8, fp, lr}
    12b8:	1100000b 	tstne	r0, fp
    12bc:	0e030113 	mcreq	1, 0, r0, cr3, cr3, {0}
    12c0:	0b3a050b 	bleq	e826f4 <__bss_end__+0xe78764>
    12c4:	13010b3b 	movwne	r0, #6971	; 0x1b3b
    12c8:	0d120000 	ldceq	0, cr0, [r2, #-0]
    12cc:	3a0e0300 	bcc	381ed4 <__bss_end__+0x377f44>
    12d0:	490b3b0b 	stmdbmi	fp, {r0, r1, r3, r8, r9, fp, ip, sp}
    12d4:	00053813 	andeq	r3, r5, r3, lsl r8
    12d8:	00151300 	andseq	r1, r5, r0, lsl #6
    12dc:	00001927 	andeq	r1, r0, r7, lsr #18
    12e0:	27011514 	smladcs	r1, r4, r5, r1
    12e4:	01134919 	tsteq	r3, r9, lsl r9
    12e8:	15000013 	strne	r0, [r0, #-19]	; 0xffffffed
    12ec:	13490005 	movtne	r0, #36869	; 0x9005
    12f0:	13160000 	tstne	r6, #0
    12f4:	0b0e0301 	bleq	381f00 <__bss_end__+0x377f70>
    12f8:	3b0b3a05 	blcc	2cfb14 <__bss_end__+0x2c5b84>
    12fc:	00130105 	andseq	r0, r3, r5, lsl #2
    1300:	000d1700 	andeq	r1, sp, r0, lsl #14
    1304:	0b3a0e03 	bleq	e84b18 <__bss_end__+0xe7ab88>
    1308:	1349053b 	movtne	r0, #38203	; 0x953b
    130c:	00000b38 	andeq	r0, r0, r8, lsr fp
    1310:	03000d18 	movweq	r0, #3352	; 0xd18
    1314:	3b0b3a0e 	blcc	2cfb54 <__bss_end__+0x2c5bc4>
    1318:	38134905 	ldmdacc	r3, {r0, r2, r8, fp, lr}
    131c:	19000005 	stmdbne	r0, {r0, r2}
    1320:	0e030113 	mcreq	1, 0, r0, cr3, cr3, {0}
    1324:	0b3a0b0b 	bleq	e83f58 <__bss_end__+0xe79fc8>
    1328:	1301053b 	movwne	r0, #5435	; 0x153b
    132c:	131a0000 	tstne	sl, #0
    1330:	3a0b0b01 	bcc	2c3f3c <__bss_end__+0x2b9fac>
    1334:	01053b0b 	tsteq	r5, fp, lsl #22
    1338:	1b000013 	blne	138c <_start-0x6c74>
    133c:	0b0b0117 	bleq	2c17a0 <__bss_end__+0x2b7810>
    1340:	053b0b3a 	ldreq	r0, [fp, #-2874]!	; 0xfffff4c6
    1344:	00001301 	andeq	r1, r0, r1, lsl #6
    1348:	03000d1c 	movweq	r0, #3356	; 0xd1c
    134c:	3b0b3a0e 	blcc	2cfb8c <__bss_end__+0x2c5bfc>
    1350:	00134905 	andseq	r4, r3, r5, lsl #18
    1354:	01151d00 	tsteq	r5, r0, lsl #26
    1358:	13011927 	movwne	r1, #6439	; 0x1927
    135c:	341e0000 	ldrcc	r0, [lr], #-0
    1360:	3a0e0300 	bcc	381f68 <__bss_end__+0x377fd8>
    1364:	49053b0b 	stmdbmi	r5, {r0, r1, r3, r8, r9, fp, ip, sp}
    1368:	3c193f13 	ldccc	15, cr3, [r9], {19}
    136c:	1f000019 	svcne	0x00000019
    1370:	0e030034 	mcreq	0, 0, r0, cr3, cr4, {1}
    1374:	0b3b0b3a 	bleq	ec4064 <__bss_end__+0xeba0d4>
    1378:	193f1349 	ldmdbne	pc!, {r0, r3, r6, r8, r9, ip}	; <UNPREDICTABLE>
    137c:	0000193c 	andeq	r1, r0, ip, lsr r9
    1380:	03003420 	movweq	r3, #1056	; 0x420
    1384:	3b0b3a0e 	blcc	2cfbc4 <__bss_end__+0x2c5c34>
    1388:	0013490b 	andseq	r4, r3, fp, lsl #18
    138c:	012e2100 			; <UNDEFINED> instruction: 0x012e2100
    1390:	0e03193f 			; <UNDEFINED> instruction: 0x0e03193f
    1394:	0b3b0b3a 	bleq	ec4084 <__bss_end__+0xeba0f4>
    1398:	01871927 	orreq	r1, r7, r7, lsr #18
    139c:	12011119 	andne	r1, r1, #1073741830	; 0x40000006
    13a0:	97184006 	ldrls	r4, [r8, -r6]
    13a4:	13011942 	movwne	r1, #6466	; 0x1942
    13a8:	34220000 	strtcc	r0, [r2], #-0
    13ac:	3a0e0300 	bcc	381fb4 <__bss_end__+0x378024>
    13b0:	490b3b0b 	stmdbmi	fp, {r0, r1, r3, r8, r9, fp, ip, sp}
    13b4:	00170213 	andseq	r0, r7, r3, lsl r2
    13b8:	82892300 	addhi	r2, r9, #0, 6
    13bc:	01110001 	tsteq	r1, r1
    13c0:	00001331 	andeq	r1, r0, r1, lsr r3
    13c4:	01828924 	orreq	r8, r2, r4, lsr #18
    13c8:	31011101 	tstcc	r1, r1, lsl #2
    13cc:	00130113 	andseq	r0, r3, r3, lsl r1
    13d0:	828a2500 	addhi	r2, sl, #0, 10
    13d4:	18020001 	stmdane	r2, {r0}
    13d8:	00184291 	mulseq	r8, r1, r2
    13dc:	012e2600 			; <UNDEFINED> instruction: 0x012e2600
    13e0:	0e03193f 			; <UNDEFINED> instruction: 0x0e03193f
    13e4:	0b3b0b3a 	bleq	ec40d4 <__bss_end__+0xeba144>
    13e8:	01111927 	tsteq	r1, r7, lsr #18
    13ec:	18400612 	stmdane	r0, {r1, r4, r9, sl}^
    13f0:	01194297 			; <UNDEFINED> instruction: 0x01194297
    13f4:	27000013 	smladcs	r0, r3, r0, r0
    13f8:	193f012e 	ldmdbne	pc!, {r1, r2, r3, r5, r8}	; <UNPREDICTABLE>
    13fc:	0b3a0e03 	bleq	e84c10 <__bss_end__+0xe7ac80>
    1400:	19270b3b 	stmdbne	r7!, {r0, r1, r3, r4, r5, r8, r9, fp}
    1404:	01111349 	tsteq	r1, r9, asr #6
    1408:	18400612 	stmdane	r0, {r1, r4, r9, sl}^
    140c:	01194297 			; <UNDEFINED> instruction: 0x01194297
    1410:	28000013 	stmdacs	r0, {r0, r1, r4}
    1414:	193f002e 	ldmdbne	pc!, {r1, r2, r3, r5}	; <UNPREDICTABLE>
    1418:	0e6e193c 			; <UNDEFINED> instruction: 0x0e6e193c
    141c:	0b3a0e03 	bleq	e84c30 <__bss_end__+0xe7aca0>
    1420:	00000b3b 	andeq	r0, r0, fp, lsr fp
    1424:	01110100 	tsteq	r1, r0, lsl #2
    1428:	0b130e25 	bleq	4c4cc4 <__bss_end__+0x4bad34>
    142c:	0e1b0e03 	cdpeq	14, 1, cr0, cr11, cr3, {0}
    1430:	06120111 			; <UNDEFINED> instruction: 0x06120111
    1434:	00001710 	andeq	r1, r0, r0, lsl r7
    1438:	0b002402 	bleq	a448 <__bss_end__+0x4b8>
    143c:	030b3e0b 	movweq	r3, #48651	; 0xbe0b
    1440:	03000008 	movweq	r0, #8
    1444:	0b0b0024 	bleq	2c14dc <__bss_end__+0x2b754c>
    1448:	0e030b3e 	vmoveq.16	d3[0], r0
    144c:	16040000 	strne	r0, [r4], -r0
    1450:	3a0e0300 	bcc	382058 <__bss_end__+0x3780c8>
    1454:	490b3b0b 	stmdbmi	fp, {r0, r1, r3, r8, r9, fp, ip, sp}
    1458:	05000013 	streq	r0, [r0, #-19]	; 0xffffffed
    145c:	0e030016 	mcreq	0, 0, r0, cr3, cr6, {0}
    1460:	053b0b3a 	ldreq	r0, [fp, #-2874]!	; 0xfffff4c6
    1464:	00001349 	andeq	r1, r0, r9, asr #6
    1468:	0b011706 	bleq	47088 <__bss_end__+0x3d0f8>
    146c:	3b0b3a0b 	blcc	2cfca0 <__bss_end__+0x2c5d10>
    1470:	0013010b 	andseq	r0, r3, fp, lsl #2
    1474:	000d0700 	andeq	r0, sp, r0, lsl #14
    1478:	0b3a0e03 	bleq	e84c8c <__bss_end__+0xe7acfc>
    147c:	13490b3b 	movtne	r0, #39739	; 0x9b3b
    1480:	01080000 	mrseq	r0, (UNDEF: 8)
    1484:	01134901 	tsteq	r3, r1, lsl #18
    1488:	09000013 	stmdbeq	r0, {r0, r1, r4}
    148c:	13490021 	movtne	r0, #36897	; 0x9021
    1490:	00000b2f 	andeq	r0, r0, pc, lsr #22
    1494:	0b01130a 	bleq	460c4 <__bss_end__+0x3c134>
    1498:	3b0b3a0b 	blcc	2cfccc <__bss_end__+0x2c5d3c>
    149c:	0013010b 	andseq	r0, r3, fp, lsl #2
    14a0:	000d0b00 	andeq	r0, sp, r0, lsl #22
    14a4:	0b3a0e03 	bleq	e84cb8 <__bss_end__+0xe7ad28>
    14a8:	13490b3b 	movtne	r0, #39739	; 0x9b3b
    14ac:	00000b38 	andeq	r0, r0, r8, lsr fp
    14b0:	0b000f0c 	bleq	50e8 <_start-0x2f18>
    14b4:	0d00000b 	stceq	0, cr0, [r0, #-44]	; 0xffffffd4
    14b8:	0b0b000f 	bleq	2c14fc <__bss_end__+0x2b756c>
    14bc:	00001349 	andeq	r1, r0, r9, asr #6
    14c0:	4900260e 	stmdbmi	r0, {r1, r2, r3, r9, sl, sp}
    14c4:	0f000013 	svceq	0x00000013
    14c8:	0e030113 	mcreq	1, 0, r0, cr3, cr3, {0}
    14cc:	0b3a0b0b 	bleq	e84100 <__bss_end__+0xe7a170>
    14d0:	13010b3b 	movwne	r0, #6971	; 0x1b3b
    14d4:	0d100000 	ldceq	0, cr0, [r0, #-0]
    14d8:	3a080300 	bcc	2020e0 <__bss_end__+0x1f8150>
    14dc:	490b3b0b 	stmdbmi	fp, {r0, r1, r3, r8, r9, fp, ip, sp}
    14e0:	000b3813 	andeq	r3, fp, r3, lsl r8
    14e4:	01131100 	tsteq	r3, r0, lsl #2
    14e8:	050b0e03 	streq	r0, [fp, #-3587]	; 0xfffff1fd
    14ec:	0b3b0b3a 	bleq	ec41dc <__bss_end__+0xeba24c>
    14f0:	00001301 	andeq	r1, r0, r1, lsl #6
    14f4:	03000d12 	movweq	r0, #3346	; 0xd12
    14f8:	3b0b3a0e 	blcc	2cfd38 <__bss_end__+0x2c5da8>
    14fc:	3813490b 	ldmdacc	r3, {r0, r1, r3, r8, fp, lr}
    1500:	13000005 	movwne	r0, #5
    1504:	19270015 	stmdbne	r7!, {r0, r2, r4}
    1508:	15140000 	ldrne	r0, [r4, #-0]
    150c:	49192701 	ldmdbmi	r9, {r0, r8, r9, sl, sp}
    1510:	00130113 	andseq	r0, r3, r3, lsl r1
    1514:	00051500 	andeq	r1, r5, r0, lsl #10
    1518:	00001349 	andeq	r1, r0, r9, asr #6
    151c:	03011316 	movweq	r1, #4886	; 0x1316
    1520:	3a050b0e 	bcc	144160 <__bss_end__+0x13a1d0>
    1524:	01053b0b 	tsteq	r5, fp, lsl #22
    1528:	17000013 	smladne	r0, r3, r0, r0
    152c:	0e03000d 	cdpeq	0, 0, cr0, cr3, cr13, {0}
    1530:	053b0b3a 	ldreq	r0, [fp, #-2874]!	; 0xfffff4c6
    1534:	0b381349 	bleq	e06260 <__bss_end__+0xdfc2d0>
    1538:	0d180000 	ldceq	0, cr0, [r8, #-0]
    153c:	3a0e0300 	bcc	382144 <__bss_end__+0x3781b4>
    1540:	49053b0b 	stmdbmi	r5, {r0, r1, r3, r8, r9, fp, ip, sp}
    1544:	00053813 	andeq	r3, r5, r3, lsl r8
    1548:	01131900 	tsteq	r3, r0, lsl #18
    154c:	0b0b0e03 	bleq	2c4d60 <__bss_end__+0x2badd0>
    1550:	053b0b3a 	ldreq	r0, [fp, #-2874]!	; 0xfffff4c6
    1554:	00001301 	andeq	r1, r0, r1, lsl #6
    1558:	0b01131a 	bleq	461c8 <__bss_end__+0x3c238>
    155c:	3b0b3a0b 	blcc	2cfd90 <__bss_end__+0x2c5e00>
    1560:	00130105 	andseq	r0, r3, r5, lsl #2
    1564:	01171b00 	tsteq	r7, r0, lsl #22
    1568:	0b3a0b0b 	bleq	e8419c <__bss_end__+0xe7a20c>
    156c:	1301053b 	movwne	r0, #5435	; 0x153b
    1570:	0d1c0000 	ldceq	0, cr0, [ip, #-0]
    1574:	3a0e0300 	bcc	38217c <__bss_end__+0x3781ec>
    1578:	49053b0b 	stmdbmi	r5, {r0, r1, r3, r8, r9, fp, ip, sp}
    157c:	1d000013 	stcne	0, cr0, [r0, #-76]	; 0xffffffb4
    1580:	19270115 	stmdbne	r7!, {r0, r2, r4, r8}
    1584:	00001301 	andeq	r1, r0, r1, lsl #6
    1588:	0300341e 	movweq	r3, #1054	; 0x41e
    158c:	3b0b3a0e 	blcc	2cfdcc <__bss_end__+0x2c5e3c>
    1590:	3f134905 	svccc	0x00134905
    1594:	00193c19 	andseq	r3, r9, r9, lsl ip
    1598:	00341f00 	eorseq	r1, r4, r0, lsl #30
    159c:	0b3a0e03 	bleq	e84db0 <__bss_end__+0xe7ae20>
    15a0:	13490b3b 	movtne	r0, #39739	; 0x9b3b
    15a4:	193c193f 	ldmdbne	ip!, {r0, r1, r2, r3, r4, r5, r8, fp, ip}
    15a8:	2e200000 	cdpcs	0, 2, cr0, cr0, cr0, {0}
    15ac:	03193f01 	tsteq	r9, #1, 30
    15b0:	3b0b3a0e 	blcc	2cfdf0 <__bss_end__+0x2c5e60>
    15b4:	8719270b 	ldrhi	r2, [r9, -fp, lsl #14]
    15b8:	01111901 	tsteq	r1, r1, lsl #18
    15bc:	18400612 	stmdane	r0, {r1, r4, r9, sl}^
    15c0:	01194297 			; <UNDEFINED> instruction: 0x01194297
    15c4:	21000013 	tstcs	r0, r3, lsl r0
    15c8:	01018289 	smlabbeq	r1, r9, r2, r8
    15cc:	13010111 	movwne	r0, #4369	; 0x1111
    15d0:	8a220000 	bhi	8815d8 <__bss_end__+0x877648>
    15d4:	02000182 	andeq	r0, r0, #-2147483616	; 0x80000020
    15d8:	18429118 	stmdane	r2, {r3, r4, r8, ip, pc}^
    15dc:	89230000 	stmdbhi	r3!, {}	; <UNPREDICTABLE>
    15e0:	11010182 	smlabbne	r1, r2, r1, r0
    15e4:	01133101 	tsteq	r3, r1, lsl #2
    15e8:	24000013 	strcs	r0, [r0], #-19	; 0xffffffed
    15ec:	00018289 	andeq	r8, r1, r9, lsl #5
    15f0:	13310111 	teqne	r1, #1073741828	; 0x40000004
    15f4:	2e250000 	cdpcs	0, 2, cr0, cr5, cr0, {0}
    15f8:	3c193f00 	ldccc	15, cr3, [r9], {-0}
    15fc:	030e6e19 	movweq	r6, #60953	; 0xee19
    1600:	3b0b3a0e 	blcc	2cfe40 <__bss_end__+0x2c5eb0>
    1604:	0000000b 	andeq	r0, r0, fp
    1608:	25011101 	strcs	r1, [r1, #-257]	; 0xfffffeff
    160c:	030b130e 	movweq	r1, #45838	; 0xb30e
    1610:	110e1b0e 	tstne	lr, lr, lsl #22
    1614:	10061201 	andne	r1, r6, r1, lsl #4
    1618:	02000017 	andeq	r0, r0, #23
    161c:	0b0b0024 	bleq	2c16b4 <__bss_end__+0x2b7724>
    1620:	08030b3e 	stmdaeq	r3, {r1, r2, r3, r4, r5, r8, r9, fp}
    1624:	24030000 	strcs	r0, [r3], #-0
    1628:	3e0b0b00 	vmlacc.f64	d0, d11, d0
    162c:	000e030b 	andeq	r0, lr, fp, lsl #6
    1630:	00160400 	andseq	r0, r6, r0, lsl #8
    1634:	0b3a0e03 	bleq	e84e48 <__bss_end__+0xe7aeb8>
    1638:	13490b3b 	movtne	r0, #39739	; 0x9b3b
    163c:	16050000 	strne	r0, [r5], -r0
    1640:	3a0e0300 	bcc	382248 <__bss_end__+0x3782b8>
    1644:	49053b0b 	stmdbmi	r5, {r0, r1, r3, r8, r9, fp, ip, sp}
    1648:	06000013 			; <UNDEFINED> instruction: 0x06000013
    164c:	0b0b0117 	bleq	2c1ab0 <__bss_end__+0x2b7b20>
    1650:	0b3b0b3a 	bleq	ec4340 <__bss_end__+0xeba3b0>
    1654:	00001301 	andeq	r1, r0, r1, lsl #6
    1658:	03000d07 	movweq	r0, #3335	; 0xd07
    165c:	3b0b3a0e 	blcc	2cfe9c <__bss_end__+0x2c5f0c>
    1660:	0013490b 	andseq	r4, r3, fp, lsl #18
    1664:	01010800 	tsteq	r1, r0, lsl #16
    1668:	13011349 	movwne	r1, #4937	; 0x1349
    166c:	21090000 	mrscs	r0, (UNDEF: 9)
    1670:	2f134900 	svccs	0x00134900
    1674:	0a00000b 	beq	16a8 <_start-0x6958>
    1678:	0b0b0113 	bleq	2c1acc <__bss_end__+0x2b7b3c>
    167c:	0b3b0b3a 	bleq	ec436c <__bss_end__+0xeba3dc>
    1680:	00001301 	andeq	r1, r0, r1, lsl #6
    1684:	03000d0b 	movweq	r0, #3339	; 0xd0b
    1688:	3b0b3a0e 	blcc	2cfec8 <__bss_end__+0x2c5f38>
    168c:	3813490b 	ldmdacc	r3, {r0, r1, r3, r8, fp, lr}
    1690:	0c00000b 	stceq	0, cr0, [r0], {11}
    1694:	0b0b000f 	bleq	2c16d8 <__bss_end__+0x2b7748>
    1698:	0f0d0000 	svceq	0x000d0000
    169c:	490b0b00 	stmdbmi	fp, {r8, r9, fp}
    16a0:	0e000013 	mcreq	0, 0, r0, cr0, cr3, {0}
    16a4:	13490026 	movtne	r0, #36902	; 0x9026
    16a8:	130f0000 	movwne	r0, #61440	; 0xf000
    16ac:	0b0e0301 	bleq	3822b8 <__bss_end__+0x378328>
    16b0:	3b0b3a0b 	blcc	2cfee4 <__bss_end__+0x2c5f54>
    16b4:	0013010b 	andseq	r0, r3, fp, lsl #2
    16b8:	000d1000 	andeq	r1, sp, r0
    16bc:	0b3a0803 	bleq	e836d0 <__bss_end__+0xe79740>
    16c0:	13490b3b 	movtne	r0, #39739	; 0x9b3b
    16c4:	00000b38 	andeq	r0, r0, r8, lsr fp
    16c8:	03011311 	movweq	r1, #4881	; 0x1311
    16cc:	3a050b0e 	bcc	14430c <__bss_end__+0x13a37c>
    16d0:	010b3b0b 	tsteq	fp, fp, lsl #22
    16d4:	12000013 	andne	r0, r0, #19
    16d8:	0e03000d 	cdpeq	0, 0, cr0, cr3, cr13, {0}
    16dc:	0b3b0b3a 	bleq	ec43cc <__bss_end__+0xeba43c>
    16e0:	05381349 	ldreq	r1, [r8, #-841]!	; 0xfffffcb7
    16e4:	15130000 	ldrne	r0, [r3, #-0]
    16e8:	00192700 	andseq	r2, r9, r0, lsl #14
    16ec:	01151400 	tsteq	r5, r0, lsl #8
    16f0:	13491927 	movtne	r1, #39207	; 0x9927
    16f4:	00001301 	andeq	r1, r0, r1, lsl #6
    16f8:	49000515 	stmdbmi	r0, {r0, r2, r4, r8, sl}
    16fc:	16000013 			; <UNDEFINED> instruction: 0x16000013
    1700:	0e030113 	mcreq	1, 0, r0, cr3, cr3, {0}
    1704:	0b3a050b 	bleq	e82b38 <__bss_end__+0xe78ba8>
    1708:	1301053b 	movwne	r0, #5435	; 0x153b
    170c:	0d170000 	ldceq	0, cr0, [r7, #-0]
    1710:	3a0e0300 	bcc	382318 <__bss_end__+0x378388>
    1714:	49053b0b 	stmdbmi	r5, {r0, r1, r3, r8, r9, fp, ip, sp}
    1718:	000b3813 	andeq	r3, fp, r3, lsl r8
    171c:	000d1800 	andeq	r1, sp, r0, lsl #16
    1720:	0b3a0e03 	bleq	e84f34 <__bss_end__+0xe7afa4>
    1724:	1349053b 	movtne	r0, #38203	; 0x953b
    1728:	00000538 	andeq	r0, r0, r8, lsr r5
    172c:	03011319 	movweq	r1, #4889	; 0x1319
    1730:	3a0b0b0e 	bcc	2c4370 <__bss_end__+0x2ba3e0>
    1734:	01053b0b 	tsteq	r5, fp, lsl #22
    1738:	1a000013 	bne	178c <_start-0x6874>
    173c:	0b0b0113 	bleq	2c1b90 <__bss_end__+0x2b7c00>
    1740:	053b0b3a 	ldreq	r0, [fp, #-2874]!	; 0xfffff4c6
    1744:	00001301 	andeq	r1, r0, r1, lsl #6
    1748:	0b01171b 	bleq	473bc <__bss_end__+0x3d42c>
    174c:	3b0b3a0b 	blcc	2cff80 <__bss_end__+0x2c5ff0>
    1750:	00130105 	andseq	r0, r3, r5, lsl #2
    1754:	000d1c00 	andeq	r1, sp, r0, lsl #24
    1758:	0b3a0e03 	bleq	e84f6c <__bss_end__+0xe7afdc>
    175c:	1349053b 	movtne	r0, #38203	; 0x953b
    1760:	151d0000 	ldrne	r0, [sp, #-0]
    1764:	01192701 	tsteq	r9, r1, lsl #14
    1768:	1e000013 	mcrne	0, 0, r0, cr0, cr3, {0}
    176c:	0e030034 	mcreq	0, 0, r0, cr3, cr4, {1}
    1770:	053b0b3a 	ldreq	r0, [fp, #-2874]!	; 0xfffff4c6
    1774:	193f1349 	ldmdbne	pc!, {r0, r3, r6, r8, r9, ip}	; <UNPREDICTABLE>
    1778:	0000193c 	andeq	r1, r0, ip, lsr r9
    177c:	0300341f 	movweq	r3, #1055	; 0x41f
    1780:	3b0b3a0e 	blcc	2cffc0 <__bss_end__+0x2c6030>
    1784:	3f13490b 	svccc	0x0013490b
    1788:	00193c19 	andseq	r3, r9, r9, lsl ip
    178c:	012e2000 			; <UNDEFINED> instruction: 0x012e2000
    1790:	0e03193f 			; <UNDEFINED> instruction: 0x0e03193f
    1794:	0b3b0b3a 	bleq	ec4484 <__bss_end__+0xeba4f4>
    1798:	01111927 	tsteq	r1, r7, lsr #18
    179c:	18400612 	stmdane	r0, {r1, r4, r9, sl}^
    17a0:	01194297 			; <UNDEFINED> instruction: 0x01194297
    17a4:	21000013 	tstcs	r0, r3, lsl r0
    17a8:	08030005 	stmdaeq	r3, {r0, r2}
    17ac:	0b3b0b3a 	bleq	ec449c <__bss_end__+0xeba50c>
    17b0:	17021349 	strne	r1, [r2, -r9, asr #6]
    17b4:	89220000 	stmdbhi	r2!, {}	; <UNPREDICTABLE>
    17b8:	11010182 	smlabbne	r1, r2, r1, r0
    17bc:	00133101 	andseq	r3, r3, r1, lsl #2
    17c0:	828a2300 	addhi	r2, sl, #0, 6
    17c4:	18020001 	stmdane	r2, {r0}
    17c8:	00184291 	mulseq	r8, r1, r2
    17cc:	00342400 	eorseq	r2, r4, r0, lsl #8
    17d0:	0b3a0803 	bleq	e837e4 <__bss_end__+0xe79854>
    17d4:	13490b3b 	movtne	r0, #39739	; 0x9b3b
    17d8:	00001802 	andeq	r1, r0, r2, lsl #16
    17dc:	11010b25 	tstne	r1, r5, lsr #22
    17e0:	01061201 	tsteq	r6, r1, lsl #4
    17e4:	26000013 			; <UNDEFINED> instruction: 0x26000013
    17e8:	08030034 	stmdaeq	r3, {r2, r4, r5}
    17ec:	0b3b0b3a 	bleq	ec44dc <__bss_end__+0xeba54c>
    17f0:	17021349 	strne	r1, [r2, -r9, asr #6]
    17f4:	89270000 	stmdbhi	r7!, {}	; <UNPREDICTABLE>
    17f8:	11000182 	smlabbne	r0, r2, r1, r0
    17fc:	00133101 	andseq	r3, r3, r1, lsl #2
    1800:	012e2800 			; <UNDEFINED> instruction: 0x012e2800
    1804:	0e03193f 			; <UNDEFINED> instruction: 0x0e03193f
    1808:	0b3b0b3a 	bleq	ec44f8 <__bss_end__+0xeba568>
    180c:	13491927 	movtne	r1, #39207	; 0x9927
    1810:	06120111 			; <UNDEFINED> instruction: 0x06120111
    1814:	42971840 	addsmi	r1, r7, #64, 16	; 0x400000
    1818:	00130119 	andseq	r0, r3, r9, lsl r1
    181c:	00052900 	andeq	r2, r5, r0, lsl #18
    1820:	0b3a0e03 	bleq	e85034 <__bss_end__+0xe7b0a4>
    1824:	13490b3b 	movtne	r0, #39739	; 0x9b3b
    1828:	00001702 	andeq	r1, r0, r2, lsl #14
    182c:	3f002e2a 	svccc	0x00002e2a
    1830:	6e193c19 	mrcvs	12, 0, r3, cr9, cr9, {0}
    1834:	3a0e030e 	bcc	382474 <__bss_end__+0x3784e4>
    1838:	000b3b0b 	andeq	r3, fp, fp, lsl #22
    183c:	11010000 	mrsne	r0, (UNDEF: 1)
    1840:	130e2501 	movwne	r2, #58625	; 0xe501
    1844:	1b0e030b 	blne	382478 <__bss_end__+0x3784e8>
    1848:	1201110e 	andne	r1, r1, #-2147483645	; 0x80000003
    184c:	00171006 	andseq	r1, r7, r6
    1850:	00240200 	eoreq	r0, r4, r0, lsl #4
    1854:	0b3e0b0b 	bleq	f84488 <__bss_end__+0xf7a4f8>
    1858:	00000803 	andeq	r0, r0, r3, lsl #16
    185c:	0b002403 	bleq	a870 <__bss_end__+0x8e0>
    1860:	030b3e0b 	movweq	r3, #48651	; 0xbe0b
    1864:	0400000e 	streq	r0, [r0], #-14
    1868:	13490035 	movtne	r0, #36917	; 0x9035
    186c:	16050000 	strne	r0, [r5], -r0
    1870:	3a0e0300 	bcc	382478 <__bss_end__+0x3784e8>
    1874:	490b3b0b 	stmdbmi	fp, {r0, r1, r3, r8, r9, fp, ip, sp}
    1878:	06000013 			; <UNDEFINED> instruction: 0x06000013
    187c:	0b0b000f 	bleq	2c18c0 <__bss_end__+0x2b7930>
    1880:	00001349 	andeq	r1, r0, r9, asr #6
    1884:	03001307 	movweq	r1, #775	; 0x307
    1888:	00193c0e 	andseq	r3, r9, lr, lsl #24
    188c:	00160800 	andseq	r0, r6, r0, lsl #16
    1890:	0b3a0e03 	bleq	e850a4 <__bss_end__+0xe7b114>
    1894:	1349053b 	movtne	r0, #38203	; 0x953b
    1898:	17090000 	strne	r0, [r9, -r0]
    189c:	3a0b0b01 	bcc	2c44a8 <__bss_end__+0x2ba518>
    18a0:	010b3b0b 	tsteq	fp, fp, lsl #22
    18a4:	0a000013 	beq	18f8 <_start-0x6708>
    18a8:	0e03000d 	cdpeq	0, 0, cr0, cr3, cr13, {0}
    18ac:	0b3b0b3a 	bleq	ec459c <__bss_end__+0xeba60c>
    18b0:	00001349 	andeq	r1, r0, r9, asr #6
    18b4:	4901010b 	stmdbmi	r1, {r0, r1, r3, r8}
    18b8:	00130113 	andseq	r0, r3, r3, lsl r1
    18bc:	00210c00 	eoreq	r0, r1, r0, lsl #24
    18c0:	0b2f1349 	bleq	bc65ec <__bss_end__+0xbbc65c>
    18c4:	130d0000 	movwne	r0, #53248	; 0xd000
    18c8:	3a0b0b01 	bcc	2c44d4 <__bss_end__+0x2ba544>
    18cc:	010b3b0b 	tsteq	fp, fp, lsl #22
    18d0:	0e000013 	mcreq	0, 0, r0, cr0, cr3, {0}
    18d4:	0e03000d 	cdpeq	0, 0, cr0, cr3, cr13, {0}
    18d8:	0b3b0b3a 	bleq	ec45c8 <__bss_end__+0xeba638>
    18dc:	0b381349 	bleq	e06608 <__bss_end__+0xdfc678>
    18e0:	0f0f0000 	svceq	0x000f0000
    18e4:	000b0b00 	andeq	r0, fp, r0, lsl #22
    18e8:	00261000 	eoreq	r1, r6, r0
    18ec:	00001349 	andeq	r1, r0, r9, asr #6
    18f0:	03011311 	movweq	r1, #4881	; 0x1311
    18f4:	3a0b0b0e 	bcc	2c4534 <__bss_end__+0x2ba5a4>
    18f8:	010b3b0b 	tsteq	fp, fp, lsl #22
    18fc:	12000013 	andne	r0, r0, #19
    1900:	0803000d 	stmdaeq	r3, {r0, r2, r3}
    1904:	0b3b0b3a 	bleq	ec45f4 <__bss_end__+0xeba664>
    1908:	0b381349 	bleq	e06634 <__bss_end__+0xdfc6a4>
    190c:	13130000 	tstne	r3, #0
    1910:	0b0e0301 	bleq	38251c <__bss_end__+0x37858c>
    1914:	3b0b3a05 	blcc	2d0130 <__bss_end__+0x2c61a0>
    1918:	0013010b 	andseq	r0, r3, fp, lsl #2
    191c:	000d1400 	andeq	r1, sp, r0, lsl #8
    1920:	0b3a0e03 	bleq	e85134 <__bss_end__+0xe7b1a4>
    1924:	13490b3b 	movtne	r0, #39739	; 0x9b3b
    1928:	00000538 	andeq	r0, r0, r8, lsr r5
    192c:	27001515 	smladcs	r0, r5, r5, r1
    1930:	16000019 			; <UNDEFINED> instruction: 0x16000019
    1934:	19270115 	stmdbne	r7!, {r0, r2, r4, r8}
    1938:	13011349 	movwne	r1, #4937	; 0x1349
    193c:	05170000 	ldreq	r0, [r7, #-0]
    1940:	00134900 	andseq	r4, r3, r0, lsl #18
    1944:	01131800 	tsteq	r3, r0, lsl #16
    1948:	050b0e03 	streq	r0, [fp, #-3587]	; 0xfffff1fd
    194c:	053b0b3a 	ldreq	r0, [fp, #-2874]!	; 0xfffff4c6
    1950:	00001301 	andeq	r1, r0, r1, lsl #6
    1954:	03000d19 	movweq	r0, #3353	; 0xd19
    1958:	3b0b3a0e 	blcc	2d0198 <__bss_end__+0x2c6208>
    195c:	38134905 	ldmdacc	r3, {r0, r2, r8, fp, lr}
    1960:	1a00000b 	bne	1994 <_start-0x666c>
    1964:	0e03000d 	cdpeq	0, 0, cr0, cr3, cr13, {0}
    1968:	053b0b3a 	ldreq	r0, [fp, #-2874]!	; 0xfffff4c6
    196c:	05381349 	ldreq	r1, [r8, #-841]!	; 0xfffffcb7
    1970:	131b0000 	tstne	fp, #0
    1974:	0b0e0301 	bleq	382580 <__bss_end__+0x3785f0>
    1978:	3b0b3a0b 	blcc	2d01ac <__bss_end__+0x2c621c>
    197c:	00130105 	andseq	r0, r3, r5, lsl #2
    1980:	01131c00 	tsteq	r3, r0, lsl #24
    1984:	0b3a0b0b 	bleq	e845b8 <__bss_end__+0xe7a628>
    1988:	1301053b 	movwne	r0, #5435	; 0x153b
    198c:	171d0000 	ldrne	r0, [sp, -r0]
    1990:	3a0b0b01 	bcc	2c459c <__bss_end__+0x2ba60c>
    1994:	01053b0b 	tsteq	r5, fp, lsl #22
    1998:	1e000013 	mcrne	0, 0, r0, cr0, cr3, {0}
    199c:	0e03000d 	cdpeq	0, 0, cr0, cr3, cr13, {0}
    19a0:	053b0b3a 	ldreq	r0, [fp, #-2874]!	; 0xfffff4c6
    19a4:	00001349 	andeq	r1, r0, r9, asr #6
    19a8:	2701151f 	smladcs	r1, pc, r5, r1	; <UNPREDICTABLE>
    19ac:	00130119 	andseq	r0, r3, r9, lsl r1
    19b0:	00342000 	eorseq	r2, r4, r0
    19b4:	0b3a0e03 	bleq	e851c8 <__bss_end__+0xe7b238>
    19b8:	1349053b 	movtne	r0, #38203	; 0x953b
    19bc:	193c193f 	ldmdbne	ip!, {r0, r1, r2, r3, r4, r5, r8, fp, ip}
    19c0:	34210000 	strtcc	r0, [r1], #-0
    19c4:	3a0e0300 	bcc	3825cc <__bss_end__+0x37863c>
    19c8:	490b3b0b 	stmdbmi	fp, {r0, r1, r3, r8, r9, fp, ip, sp}
    19cc:	3c193f13 	ldccc	15, cr3, [r9], {19}
    19d0:	22000019 	andcs	r0, r0, #25
    19d4:	0b3e0104 	bleq	f81dec <__bss_end__+0xf77e5c>
    19d8:	13490b0b 	movtne	r0, #39691	; 0x9b0b
    19dc:	0b3b0b3a 	bleq	ec46cc <__bss_end__+0xeba73c>
    19e0:	00001301 	andeq	r1, r0, r1, lsl #6
    19e4:	03002823 	movweq	r2, #2083	; 0x823
    19e8:	000b1c0e 	andeq	r1, fp, lr, lsl #24
    19ec:	00342400 	eorseq	r2, r4, r0, lsl #8
    19f0:	0b3a0e03 	bleq	e85204 <__bss_end__+0xe7b274>
    19f4:	13490b3b 	movtne	r0, #39739	; 0x9b3b
    19f8:	0000061c 	andeq	r0, r0, ip, lsl r6
    19fc:	3f012e25 	svccc	0x00012e25
    1a00:	3a0e0319 	bcc	38266c <__bss_end__+0x3786dc>
    1a04:	270b3b0b 	strcs	r3, [fp, -fp, lsl #22]
    1a08:	11134919 	tstne	r3, r9, lsl r9
    1a0c:	40061201 	andmi	r1, r6, r1, lsl #4
    1a10:	19429718 	stmdbne	r2, {r3, r4, r8, r9, sl, ip, pc}^
    1a14:	00001301 	andeq	r1, r0, r1, lsl #6
    1a18:	01828926 	orreq	r8, r2, r6, lsr #18
    1a1c:	31011100 	mrscc	r1, (UNDEF: 17)
    1a20:	27000013 	smladcs	r0, r3, r0, r0
    1a24:	193f012e 	ldmdbne	pc!, {r1, r2, r3, r5, r8}	; <UNPREDICTABLE>
    1a28:	0b3a0e03 	bleq	e8523c <__bss_end__+0xe7b2ac>
    1a2c:	19270b3b 	stmdbne	r7!, {r0, r1, r3, r4, r5, r8, r9, fp}
    1a30:	06120111 			; <UNDEFINED> instruction: 0x06120111
    1a34:	42971840 	addsmi	r1, r7, #64, 16	; 0x400000
    1a38:	00130119 	andseq	r0, r3, r9, lsl r1
    1a3c:	00052800 	andeq	r2, r5, r0, lsl #16
    1a40:	0b3a0803 	bleq	e83a54 <__bss_end__+0xe79ac4>
    1a44:	13490b3b 	movtne	r0, #39739	; 0x9b3b
    1a48:	00001702 	andeq	r1, r0, r2, lsl #14
    1a4c:	01828929 	orreq	r8, r2, r9, lsr #18
    1a50:	31011101 	tstcc	r1, r1, lsl #2
    1a54:	2a000013 	bcs	1aa8 <_start-0x6558>
    1a58:	0001828a 	andeq	r8, r1, sl, lsl #5
    1a5c:	42911802 	addsmi	r1, r1, #131072	; 0x20000
    1a60:	2b000018 	blcs	1ac8 <_start-0x6538>
    1a64:	01018289 	smlabbeq	r1, r9, r2, r8
    1a68:	13310111 	teqne	r1, #1073741828	; 0x40000004
    1a6c:	00001301 	andeq	r1, r0, r1, lsl #6
    1a70:	03012e2c 	movweq	r2, #7724	; 0x1e2c
    1a74:	3b0b3a0e 	blcc	2d02b4 <__bss_end__+0x2c6324>
    1a78:	1119270b 	tstne	r9, fp, lsl #14
    1a7c:	40061201 	andmi	r1, r6, r1, lsl #4
    1a80:	19429718 	stmdbne	r2, {r3, r4, r8, r9, sl, ip, pc}^
    1a84:	00001301 	andeq	r1, r0, r1, lsl #6
    1a88:	0300052d 	movweq	r0, #1325	; 0x52d
    1a8c:	3b0b3a0e 	blcc	2d02cc <__bss_end__+0x2c633c>
    1a90:	0213490b 	andseq	r4, r3, #180224	; 0x2c000
    1a94:	2e000017 	mcrcs	0, 0, r0, cr0, cr7, {0}
    1a98:	00000035 	andeq	r0, r0, r5, lsr r0
    1a9c:	3f002e2f 	svccc	0x00002e2f
    1aa0:	6e193c19 	mrcvs	12, 0, r3, cr9, cr9, {0}
    1aa4:	3a0e030e 	bcc	3826e4 <__bss_end__+0x378754>
    1aa8:	000b3b0b 	andeq	r3, fp, fp, lsl #22
    1aac:	11010000 	mrsne	r0, (UNDEF: 1)
    1ab0:	130e2501 	movwne	r2, #58625	; 0xe501
    1ab4:	1b0e030b 	blne	3826e8 <__bss_end__+0x378758>
    1ab8:	1201110e 	andne	r1, r1, #-2147483645	; 0x80000003
    1abc:	00171006 	andseq	r1, r7, r6
    1ac0:	00240200 	eoreq	r0, r4, r0, lsl #4
    1ac4:	0b3e0b0b 	bleq	f846f8 <__bss_end__+0xf7a768>
    1ac8:	00000803 	andeq	r0, r0, r3, lsl #16
    1acc:	0b002403 	bleq	aae0 <__bss_end__+0xb50>
    1ad0:	030b3e0b 	movweq	r3, #48651	; 0xbe0b
    1ad4:	0400000e 	streq	r0, [r0], #-14
    1ad8:	13490035 	movtne	r0, #36917	; 0x9035
    1adc:	26050000 	strcs	r0, [r5], -r0
    1ae0:	00134900 	andseq	r4, r3, r0, lsl #18
    1ae4:	00160600 	andseq	r0, r6, r0, lsl #12
    1ae8:	0b3a0e03 	bleq	e852fc <__bss_end__+0xe7b36c>
    1aec:	13490b3b 	movtne	r0, #39739	; 0x9b3b
    1af0:	0f070000 	svceq	0x00070000
    1af4:	490b0b00 	stmdbmi	fp, {r8, r9, fp}
    1af8:	08000013 	stmdaeq	r0, {r0, r1, r4}
    1afc:	0e030013 	mcreq	0, 0, r0, cr3, cr3, {0}
    1b00:	0000193c 	andeq	r1, r0, ip, lsr r9
    1b04:	03001609 	movweq	r1, #1545	; 0x609
    1b08:	3b0b3a0e 	blcc	2d0348 <__bss_end__+0x2c63b8>
    1b0c:	00134905 	andseq	r4, r3, r5, lsl #18
    1b10:	01170a00 	tsteq	r7, r0, lsl #20
    1b14:	0b3a0b0b 	bleq	e84748 <__bss_end__+0xe7a7b8>
    1b18:	13010b3b 	movwne	r0, #6971	; 0x1b3b
    1b1c:	0d0b0000 	stceq	0, cr0, [fp, #-0]
    1b20:	3a0e0300 	bcc	382728 <__bss_end__+0x378798>
    1b24:	490b3b0b 	stmdbmi	fp, {r0, r1, r3, r8, r9, fp, ip, sp}
    1b28:	0c000013 	stceq	0, cr0, [r0], {19}
    1b2c:	13490101 	movtne	r0, #37121	; 0x9101
    1b30:	00001301 	andeq	r1, r0, r1, lsl #6
    1b34:	4900210d 	stmdbmi	r0, {r0, r2, r3, r8, sp}
    1b38:	000b2f13 	andeq	r2, fp, r3, lsl pc
    1b3c:	01130e00 	tsteq	r3, r0, lsl #28
    1b40:	0b3a0b0b 	bleq	e84774 <__bss_end__+0xe7a7e4>
    1b44:	13010b3b 	movwne	r0, #6971	; 0x1b3b
    1b48:	0d0f0000 	stceq	0, cr0, [pc, #-0]	; 1b50 <_start-0x64b0>
    1b4c:	3a0e0300 	bcc	382754 <__bss_end__+0x3787c4>
    1b50:	490b3b0b 	stmdbmi	fp, {r0, r1, r3, r8, r9, fp, ip, sp}
    1b54:	000b3813 	andeq	r3, fp, r3, lsl r8
    1b58:	000f1000 	andeq	r1, pc, r0
    1b5c:	00000b0b 	andeq	r0, r0, fp, lsl #22
    1b60:	03011311 	movweq	r1, #4881	; 0x1311
    1b64:	3a0b0b0e 	bcc	2c47a4 <__bss_end__+0x2ba814>
    1b68:	010b3b0b 	tsteq	fp, fp, lsl #22
    1b6c:	12000013 	andne	r0, r0, #19
    1b70:	0803000d 	stmdaeq	r3, {r0, r2, r3}
    1b74:	0b3b0b3a 	bleq	ec4864 <__bss_end__+0xeba8d4>
    1b78:	0b381349 	bleq	e068a4 <__bss_end__+0xdfc914>
    1b7c:	13130000 	tstne	r3, #0
    1b80:	0b0e0301 	bleq	38278c <__bss_end__+0x3787fc>
    1b84:	3b0b3a05 	blcc	2d03a0 <__bss_end__+0x2c6410>
    1b88:	0013010b 	andseq	r0, r3, fp, lsl #2
    1b8c:	000d1400 	andeq	r1, sp, r0, lsl #8
    1b90:	0b3a0e03 	bleq	e853a4 <__bss_end__+0xe7b414>
    1b94:	13490b3b 	movtne	r0, #39739	; 0x9b3b
    1b98:	00000538 	andeq	r0, r0, r8, lsr r5
    1b9c:	27001515 	smladcs	r0, r5, r5, r1
    1ba0:	16000019 			; <UNDEFINED> instruction: 0x16000019
    1ba4:	19270115 	stmdbne	r7!, {r0, r2, r4, r8}
    1ba8:	13011349 	movwne	r1, #4937	; 0x1349
    1bac:	05170000 	ldreq	r0, [r7, #-0]
    1bb0:	00134900 	andseq	r4, r3, r0, lsl #18
    1bb4:	01131800 	tsteq	r3, r0, lsl #16
    1bb8:	050b0e03 	streq	r0, [fp, #-3587]	; 0xfffff1fd
    1bbc:	053b0b3a 	ldreq	r0, [fp, #-2874]!	; 0xfffff4c6
    1bc0:	00001301 	andeq	r1, r0, r1, lsl #6
    1bc4:	03000d19 	movweq	r0, #3353	; 0xd19
    1bc8:	3b0b3a0e 	blcc	2d0408 <__bss_end__+0x2c6478>
    1bcc:	38134905 	ldmdacc	r3, {r0, r2, r8, fp, lr}
    1bd0:	1a00000b 	bne	1c04 <_start-0x63fc>
    1bd4:	0e03000d 	cdpeq	0, 0, cr0, cr3, cr13, {0}
    1bd8:	053b0b3a 	ldreq	r0, [fp, #-2874]!	; 0xfffff4c6
    1bdc:	05381349 	ldreq	r1, [r8, #-841]!	; 0xfffffcb7
    1be0:	131b0000 	tstne	fp, #0
    1be4:	0b0e0301 	bleq	3827f0 <__bss_end__+0x378860>
    1be8:	3b0b3a0b 	blcc	2d041c <__bss_end__+0x2c648c>
    1bec:	00130105 	andseq	r0, r3, r5, lsl #2
    1bf0:	01131c00 	tsteq	r3, r0, lsl #24
    1bf4:	0b3a0b0b 	bleq	e84828 <__bss_end__+0xe7a898>
    1bf8:	1301053b 	movwne	r0, #5435	; 0x153b
    1bfc:	171d0000 	ldrne	r0, [sp, -r0]
    1c00:	3a0b0b01 	bcc	2c480c <__bss_end__+0x2ba87c>
    1c04:	01053b0b 	tsteq	r5, fp, lsl #22
    1c08:	1e000013 	mcrne	0, 0, r0, cr0, cr3, {0}
    1c0c:	0e03000d 	cdpeq	0, 0, cr0, cr3, cr13, {0}
    1c10:	053b0b3a 	ldreq	r0, [fp, #-2874]!	; 0xfffff4c6
    1c14:	00001349 	andeq	r1, r0, r9, asr #6
    1c18:	2701151f 	smladcs	r1, pc, r5, r1	; <UNPREDICTABLE>
    1c1c:	00130119 	andseq	r0, r3, r9, lsl r1
    1c20:	00342000 	eorseq	r2, r4, r0
    1c24:	0b3a0e03 	bleq	e85438 <__bss_end__+0xe7b4a8>
    1c28:	1349053b 	movtne	r0, #38203	; 0x953b
    1c2c:	193c193f 	ldmdbne	ip!, {r0, r1, r2, r3, r4, r5, r8, fp, ip}
    1c30:	34210000 	strtcc	r0, [r1], #-0
    1c34:	3a0e0300 	bcc	38283c <__bss_end__+0x3788ac>
    1c38:	490b3b0b 	stmdbmi	fp, {r0, r1, r3, r8, r9, fp, ip, sp}
    1c3c:	3c193f13 	ldccc	15, cr3, [r9], {19}
    1c40:	22000019 	andcs	r0, r0, #25
    1c44:	0b3e0104 	bleq	f8205c <__bss_end__+0xf780cc>
    1c48:	13490b0b 	movtne	r0, #39691	; 0x9b0b
    1c4c:	0b3b0b3a 	bleq	ec493c <__bss_end__+0xeba9ac>
    1c50:	00001301 	andeq	r1, r0, r1, lsl #6
    1c54:	03002823 	movweq	r2, #2083	; 0x823
    1c58:	000b1c0e 	andeq	r1, fp, lr, lsl #24
    1c5c:	00342400 	eorseq	r2, r4, r0, lsl #8
    1c60:	0b3a0e03 	bleq	e85474 <__bss_end__+0xe7b4e4>
    1c64:	13490b3b 	movtne	r0, #39739	; 0x9b3b
    1c68:	0000061c 	andeq	r0, r0, ip, lsl r6
    1c6c:	3f012e25 	svccc	0x00012e25
    1c70:	3a0e0319 	bcc	3828dc <__bss_end__+0x37894c>
    1c74:	270b3b0b 	strcs	r3, [fp, -fp, lsl #22]
    1c78:	11134919 	tstne	r3, r9, lsl r9
    1c7c:	40061201 	andmi	r1, r6, r1, lsl #4
    1c80:	19429718 	stmdbne	r2, {r3, r4, r8, r9, sl, ip, pc}^
    1c84:	00001301 	andeq	r1, r0, r1, lsl #6
    1c88:	03000526 	movweq	r0, #1318	; 0x526
    1c8c:	3b0b3a08 	blcc	2d04b4 <__bss_end__+0x2c6524>
    1c90:	0213490b 	andseq	r4, r3, #180224	; 0x2c000
    1c94:	27000017 	smladcs	r0, r7, r0, r0
    1c98:	0e030034 	mcreq	0, 0, r0, cr3, cr4, {1}
    1c9c:	0b3b0b3a 	bleq	ec498c <__bss_end__+0xeba9fc>
    1ca0:	17021349 	strne	r1, [r2, -r9, asr #6]
    1ca4:	34280000 	strtcc	r0, [r8], #-0
    1ca8:	3a080300 	bcc	2028b0 <__bss_end__+0x1f8920>
    1cac:	490b3b0b 	stmdbmi	fp, {r0, r1, r3, r8, r9, fp, ip, sp}
    1cb0:	00170213 	andseq	r0, r7, r3, lsl r2
    1cb4:	82892900 	addhi	r2, r9, #0, 18
    1cb8:	01110101 	tsteq	r1, r1, lsl #2
    1cbc:	00001331 	andeq	r1, r0, r1, lsr r3
    1cc0:	01828a2a 	orreq	r8, r2, sl, lsr #20
    1cc4:	91180200 	tstls	r8, r0, lsl #4
    1cc8:	00001842 	andeq	r1, r0, r2, asr #16
    1ccc:	3f012e2b 	svccc	0x00012e2b
    1cd0:	3a0e0319 	bcc	38293c <__bss_end__+0x3789ac>
    1cd4:	270b3b0b 	strcs	r3, [fp, -fp, lsl #22]
    1cd8:	12011119 	andne	r1, r1, #1073741830	; 0x40000006
    1cdc:	97184006 	ldrls	r4, [r8, -r6]
    1ce0:	13011942 	movwne	r1, #6466	; 0x1942
    1ce4:	892c0000 	stmdbhi	ip!, {}	; <UNPREDICTABLE>
    1ce8:	11010182 	smlabbne	r1, r2, r1, r0
    1cec:	01133101 	tsteq	r3, r1, lsl #2
    1cf0:	2d000013 	stccs	0, cr0, [r0, #-76]	; 0xffffffb4
    1cf4:	00018289 	andeq	r8, r1, r9, lsl #5
    1cf8:	13310111 	teqne	r1, #1073741828	; 0x40000004
    1cfc:	052e0000 	streq	r0, [lr, #-0]!
    1d00:	3a0e0300 	bcc	382908 <__bss_end__+0x378978>
    1d04:	490b3b0b 	stmdbmi	fp, {r0, r1, r3, r8, r9, fp, ip, sp}
    1d08:	00170213 	andseq	r0, r7, r3, lsl r2
    1d0c:	00342f00 	eorseq	r2, r4, r0, lsl #30
    1d10:	0b3a0803 	bleq	e83d24 <__bss_end__+0xe79d94>
    1d14:	13490b3b 	movtne	r0, #39739	; 0x9b3b
    1d18:	00001802 	andeq	r1, r0, r2, lsl #16
    1d1c:	3f002e30 	svccc	0x00002e30
    1d20:	6e193c19 	mrcvs	12, 0, r3, cr9, cr9, {0}
    1d24:	3a0e030e 	bcc	382964 <__bss_end__+0x3789d4>
    1d28:	000b3b0b 	andeq	r3, fp, fp, lsl #22
    1d2c:	11010000 	mrsne	r0, (UNDEF: 1)
    1d30:	130e2501 	movwne	r2, #58625	; 0xe501
    1d34:	1b0e030b 	blne	382968 <__bss_end__+0x3789d8>
    1d38:	1201110e 	andne	r1, r1, #-2147483645	; 0x80000003
    1d3c:	00171006 	andseq	r1, r7, r6
    1d40:	00240200 	eoreq	r0, r4, r0, lsl #4
    1d44:	0b3e0b0b 	bleq	f84978 <__bss_end__+0xf7a9e8>
    1d48:	00000803 	andeq	r0, r0, r3, lsl #16
    1d4c:	0b002403 	bleq	ad60 <__bss_end__+0xdd0>
    1d50:	030b3e0b 	movweq	r3, #48651	; 0xbe0b
    1d54:	0400000e 	streq	r0, [r0], #-14
    1d58:	0e030016 	mcreq	0, 0, r0, cr3, cr6, {0}
    1d5c:	0b3b0b3a 	bleq	ec4a4c <__bss_end__+0xebaabc>
    1d60:	00001349 	andeq	r1, r0, r9, asr #6
    1d64:	03001605 	movweq	r1, #1541	; 0x605
    1d68:	3b0b3a0e 	blcc	2d05a8 <__bss_end__+0x2c6618>
    1d6c:	00134905 	andseq	r4, r3, r5, lsl #18
    1d70:	01170600 	tsteq	r7, r0, lsl #12
    1d74:	0b3a0b0b 	bleq	e849a8 <__bss_end__+0xe7aa18>
    1d78:	13010b3b 	movwne	r0, #6971	; 0x1b3b
    1d7c:	0d070000 	stceq	0, cr0, [r7, #-0]
    1d80:	3a0e0300 	bcc	382988 <__bss_end__+0x3789f8>
    1d84:	490b3b0b 	stmdbmi	fp, {r0, r1, r3, r8, r9, fp, ip, sp}
    1d88:	08000013 	stmdaeq	r0, {r0, r1, r4}
    1d8c:	13490101 	movtne	r0, #37121	; 0x9101
    1d90:	00001301 	andeq	r1, r0, r1, lsl #6
    1d94:	49002109 	stmdbmi	r0, {r0, r3, r8, sp}
    1d98:	000b2f13 	andeq	r2, fp, r3, lsl pc
    1d9c:	01130a00 	tsteq	r3, r0, lsl #20
    1da0:	0b3a0b0b 	bleq	e849d4 <__bss_end__+0xe7aa44>
    1da4:	13010b3b 	movwne	r0, #6971	; 0x1b3b
    1da8:	0d0b0000 	stceq	0, cr0, [fp, #-0]
    1dac:	3a0e0300 	bcc	3829b4 <__bss_end__+0x378a24>
    1db0:	490b3b0b 	stmdbmi	fp, {r0, r1, r3, r8, r9, fp, ip, sp}
    1db4:	000b3813 	andeq	r3, fp, r3, lsl r8
    1db8:	000f0c00 	andeq	r0, pc, r0, lsl #24
    1dbc:	00000b0b 	andeq	r0, r0, fp, lsl #22
    1dc0:	0b000f0d 	bleq	59fc <_start-0x2604>
    1dc4:	0013490b 	andseq	r4, r3, fp, lsl #18
    1dc8:	00260e00 	eoreq	r0, r6, r0, lsl #28
    1dcc:	00001349 	andeq	r1, r0, r9, asr #6
    1dd0:	0301130f 	movweq	r1, #4879	; 0x130f
    1dd4:	3a0b0b0e 	bcc	2c4a14 <__bss_end__+0x2baa84>
    1dd8:	010b3b0b 	tsteq	fp, fp, lsl #22
    1ddc:	10000013 	andne	r0, r0, r3, lsl r0
    1de0:	0803000d 	stmdaeq	r3, {r0, r2, r3}
    1de4:	0b3b0b3a 	bleq	ec4ad4 <__bss_end__+0xebab44>
    1de8:	0b381349 	bleq	e06b14 <__bss_end__+0xdfcb84>
    1dec:	13110000 	tstne	r1, #0
    1df0:	0b0e0301 	bleq	3829fc <__bss_end__+0x378a6c>
    1df4:	3b0b3a05 	blcc	2d0610 <__bss_end__+0x2c6680>
    1df8:	0013010b 	andseq	r0, r3, fp, lsl #2
    1dfc:	000d1200 	andeq	r1, sp, r0, lsl #4
    1e00:	0b3a0e03 	bleq	e85614 <__bss_end__+0xe7b684>
    1e04:	13490b3b 	movtne	r0, #39739	; 0x9b3b
    1e08:	00000538 	andeq	r0, r0, r8, lsr r5
    1e0c:	27001513 	smladcs	r0, r3, r5, r1
    1e10:	14000019 	strne	r0, [r0], #-25	; 0xffffffe7
    1e14:	19270115 	stmdbne	r7!, {r0, r2, r4, r8}
    1e18:	13011349 	movwne	r1, #4937	; 0x1349
    1e1c:	05150000 	ldreq	r0, [r5, #-0]
    1e20:	00134900 	andseq	r4, r3, r0, lsl #18
    1e24:	01131600 	tsteq	r3, r0, lsl #12
    1e28:	050b0e03 	streq	r0, [fp, #-3587]	; 0xfffff1fd
    1e2c:	053b0b3a 	ldreq	r0, [fp, #-2874]!	; 0xfffff4c6
    1e30:	00001301 	andeq	r1, r0, r1, lsl #6
    1e34:	03000d17 	movweq	r0, #3351	; 0xd17
    1e38:	3b0b3a0e 	blcc	2d0678 <__bss_end__+0x2c66e8>
    1e3c:	38134905 	ldmdacc	r3, {r0, r2, r8, fp, lr}
    1e40:	1800000b 	stmdane	r0, {r0, r1, r3}
    1e44:	0e03000d 	cdpeq	0, 0, cr0, cr3, cr13, {0}
    1e48:	053b0b3a 	ldreq	r0, [fp, #-2874]!	; 0xfffff4c6
    1e4c:	05381349 	ldreq	r1, [r8, #-841]!	; 0xfffffcb7
    1e50:	13190000 	tstne	r9, #0
    1e54:	0b0e0301 	bleq	382a60 <__bss_end__+0x378ad0>
    1e58:	3b0b3a0b 	blcc	2d068c <__bss_end__+0x2c66fc>
    1e5c:	00130105 	andseq	r0, r3, r5, lsl #2
    1e60:	01131a00 	tsteq	r3, r0, lsl #20
    1e64:	0b3a0b0b 	bleq	e84a98 <__bss_end__+0xe7ab08>
    1e68:	1301053b 	movwne	r0, #5435	; 0x153b
    1e6c:	171b0000 	ldrne	r0, [fp, -r0]
    1e70:	3a0b0b01 	bcc	2c4a7c <__bss_end__+0x2baaec>
    1e74:	01053b0b 	tsteq	r5, fp, lsl #22
    1e78:	1c000013 	stcne	0, cr0, [r0], {19}
    1e7c:	0e03000d 	cdpeq	0, 0, cr0, cr3, cr13, {0}
    1e80:	053b0b3a 	ldreq	r0, [fp, #-2874]!	; 0xfffff4c6
    1e84:	00001349 	andeq	r1, r0, r9, asr #6
    1e88:	2701151d 	smladcs	r1, sp, r5, r1
    1e8c:	00130119 	andseq	r0, r3, r9, lsl r1
    1e90:	00341e00 	eorseq	r1, r4, r0, lsl #28
    1e94:	0b3a0e03 	bleq	e856a8 <__bss_end__+0xe7b718>
    1e98:	1349053b 	movtne	r0, #38203	; 0x953b
    1e9c:	193c193f 	ldmdbne	ip!, {r0, r1, r2, r3, r4, r5, r8, fp, ip}
    1ea0:	341f0000 	ldrcc	r0, [pc], #-0	; 1ea8 <_start-0x6158>
    1ea4:	3a0e0300 	bcc	382aac <__bss_end__+0x378b1c>
    1ea8:	490b3b0b 	stmdbmi	fp, {r0, r1, r3, r8, r9, fp, ip, sp}
    1eac:	3c193f13 	ldccc	15, cr3, [r9], {19}
    1eb0:	20000019 	andcs	r0, r0, r9, lsl r0
    1eb4:	0e030034 	mcreq	0, 0, r0, cr3, cr4, {1}
    1eb8:	0b3b0b3a 	bleq	ec4ba8 <__bss_end__+0xebac18>
    1ebc:	193f1349 	ldmdbne	pc!, {r0, r3, r6, r8, r9, ip}	; <UNPREDICTABLE>
    1ec0:	04210000 	strteq	r0, [r1], #-0
    1ec4:	490b0b01 	stmdbmi	fp, {r0, r8, r9, fp}
    1ec8:	3b0b3a13 	blcc	2d071c <__bss_end__+0x2c678c>
    1ecc:	0013010b 	andseq	r0, r3, fp, lsl #2
    1ed0:	00282200 	eoreq	r2, r8, r0, lsl #4
    1ed4:	0b1c0e03 	bleq	7056e8 <__bss_end__+0x6fb758>
    1ed8:	2e230000 	cdpcs	0, 2, cr0, cr3, cr0, {0}
    1edc:	03193f01 	tsteq	r9, #1, 30
    1ee0:	3b0b3a0e 	blcc	2d0720 <__bss_end__+0x2c6790>
    1ee4:	4919270b 	ldmdbmi	r9, {r0, r1, r3, r8, r9, sl, sp}
    1ee8:	12011113 	andne	r1, r1, #-1073741820	; 0xc0000004
    1eec:	97184006 	ldrls	r4, [r8, -r6]
    1ef0:	13011942 	movwne	r1, #6466	; 0x1942
    1ef4:	34240000 	strtcc	r0, [r4], #-0
    1ef8:	3a080300 	bcc	202b00 <__bss_end__+0x1f8b70>
    1efc:	490b3b0b 	stmdbmi	fp, {r0, r1, r3, r8, r9, fp, ip, sp}
    1f00:	00061c13 	andeq	r1, r6, r3, lsl ip
    1f04:	82892500 	addhi	r2, r9, #0, 10
    1f08:	01110101 	tsteq	r1, r1, lsl #2
    1f0c:	00001331 	andeq	r1, r0, r1, lsr r3
    1f10:	01828a26 	orreq	r8, r2, r6, lsr #20
    1f14:	91180200 	tstls	r8, r0, lsl #4
    1f18:	00001842 	andeq	r1, r0, r2, asr #16
    1f1c:	3f002e27 	svccc	0x00002e27
    1f20:	6e193c19 	mrcvs	12, 0, r3, cr9, cr9, {0}
    1f24:	3a0e030e 	bcc	382b64 <__bss_end__+0x378bd4>
    1f28:	000b3b0b 	andeq	r3, fp, fp, lsl #22
    1f2c:	11010000 	mrsne	r0, (UNDEF: 1)
    1f30:	130e2501 	movwne	r2, #58625	; 0xe501
    1f34:	1b0e030b 	blne	382b68 <__bss_end__+0x378bd8>
    1f38:	1201110e 	andne	r1, r1, #-2147483645	; 0x80000003
    1f3c:	00171006 	andseq	r1, r7, r6
    1f40:	00240200 	eoreq	r0, r4, r0, lsl #4
    1f44:	0b3e0b0b 	bleq	f84b78 <__bss_end__+0xf7abe8>
    1f48:	00000803 	andeq	r0, r0, r3, lsl #16
    1f4c:	03001603 	movweq	r1, #1539	; 0x603
    1f50:	3b0b3a0e 	blcc	2d0790 <__bss_end__+0x2c6800>
    1f54:	0013490b 	andseq	r4, r3, fp, lsl #18
    1f58:	00240400 	eoreq	r0, r4, r0, lsl #8
    1f5c:	0b3e0b0b 	bleq	f84b90 <__bss_end__+0xf7ac00>
    1f60:	00000e03 	andeq	r0, r0, r3, lsl #28
    1f64:	03001605 	movweq	r1, #1541	; 0x605
    1f68:	3b0b3a0e 	blcc	2d07a8 <__bss_end__+0x2c6818>
    1f6c:	00134905 	andseq	r4, r3, r5, lsl #18
    1f70:	01170600 	tsteq	r7, r0, lsl #12
    1f74:	0b3a0b0b 	bleq	e84ba8 <__bss_end__+0xe7ac18>
    1f78:	13010b3b 	movwne	r0, #6971	; 0x1b3b
    1f7c:	0d070000 	stceq	0, cr0, [r7, #-0]
    1f80:	3a0e0300 	bcc	382b88 <__bss_end__+0x378bf8>
    1f84:	490b3b0b 	stmdbmi	fp, {r0, r1, r3, r8, r9, fp, ip, sp}
    1f88:	08000013 	stmdaeq	r0, {r0, r1, r4}
    1f8c:	13490101 	movtne	r0, #37121	; 0x9101
    1f90:	00001301 	andeq	r1, r0, r1, lsl #6
    1f94:	49002109 	stmdbmi	r0, {r0, r3, r8, sp}
    1f98:	000b2f13 	andeq	r2, fp, r3, lsl pc
    1f9c:	01130a00 	tsteq	r3, r0, lsl #20
    1fa0:	0b3a0b0b 	bleq	e84bd4 <__bss_end__+0xe7ac44>
    1fa4:	13010b3b 	movwne	r0, #6971	; 0x1b3b
    1fa8:	0d0b0000 	stceq	0, cr0, [fp, #-0]
    1fac:	3a0e0300 	bcc	382bb4 <__bss_end__+0x378c24>
    1fb0:	490b3b0b 	stmdbmi	fp, {r0, r1, r3, r8, r9, fp, ip, sp}
    1fb4:	000b3813 	andeq	r3, fp, r3, lsl r8
    1fb8:	000f0c00 	andeq	r0, pc, r0, lsl #24
    1fbc:	00000b0b 	andeq	r0, r0, fp, lsl #22
    1fc0:	0b000f0d 	bleq	5bfc <_start-0x2404>
    1fc4:	0013490b 	andseq	r4, r3, fp, lsl #18
    1fc8:	00260e00 	eoreq	r0, r6, r0, lsl #28
    1fcc:	00001349 	andeq	r1, r0, r9, asr #6
    1fd0:	0301130f 	movweq	r1, #4879	; 0x130f
    1fd4:	3a0b0b0e 	bcc	2c4c14 <__bss_end__+0x2bac84>
    1fd8:	010b3b0b 	tsteq	fp, fp, lsl #22
    1fdc:	10000013 	andne	r0, r0, r3, lsl r0
    1fe0:	0803000d 	stmdaeq	r3, {r0, r2, r3}
    1fe4:	0b3b0b3a 	bleq	ec4cd4 <__bss_end__+0xebad44>
    1fe8:	0b381349 	bleq	e06d14 <__bss_end__+0xdfcd84>
    1fec:	13110000 	tstne	r1, #0
    1ff0:	0b0e0301 	bleq	382bfc <__bss_end__+0x378c6c>
    1ff4:	3b0b3a05 	blcc	2d0810 <__bss_end__+0x2c6880>
    1ff8:	0013010b 	andseq	r0, r3, fp, lsl #2
    1ffc:	000d1200 	andeq	r1, sp, r0, lsl #4
    2000:	0b3a0e03 	bleq	e85814 <__bss_end__+0xe7b884>
    2004:	13490b3b 	movtne	r0, #39739	; 0x9b3b
    2008:	00000538 	andeq	r0, r0, r8, lsr r5
    200c:	27001513 	smladcs	r0, r3, r5, r1
    2010:	14000019 	strne	r0, [r0], #-25	; 0xffffffe7
    2014:	19270115 	stmdbne	r7!, {r0, r2, r4, r8}
    2018:	13011349 	movwne	r1, #4937	; 0x1349
    201c:	05150000 	ldreq	r0, [r5, #-0]
    2020:	00134900 	andseq	r4, r3, r0, lsl #18
    2024:	01131600 	tsteq	r3, r0, lsl #12
    2028:	050b0e03 	streq	r0, [fp, #-3587]	; 0xfffff1fd
    202c:	053b0b3a 	ldreq	r0, [fp, #-2874]!	; 0xfffff4c6
    2030:	00001301 	andeq	r1, r0, r1, lsl #6
    2034:	03000d17 	movweq	r0, #3351	; 0xd17
    2038:	3b0b3a0e 	blcc	2d0878 <__bss_end__+0x2c68e8>
    203c:	38134905 	ldmdacc	r3, {r0, r2, r8, fp, lr}
    2040:	1800000b 	stmdane	r0, {r0, r1, r3}
    2044:	0e03000d 	cdpeq	0, 0, cr0, cr3, cr13, {0}
    2048:	053b0b3a 	ldreq	r0, [fp, #-2874]!	; 0xfffff4c6
    204c:	05381349 	ldreq	r1, [r8, #-841]!	; 0xfffffcb7
    2050:	13190000 	tstne	r9, #0
    2054:	0b0e0301 	bleq	382c60 <__bss_end__+0x378cd0>
    2058:	3b0b3a0b 	blcc	2d088c <__bss_end__+0x2c68fc>
    205c:	00130105 	andseq	r0, r3, r5, lsl #2
    2060:	01131a00 	tsteq	r3, r0, lsl #20
    2064:	0b3a0b0b 	bleq	e84c98 <__bss_end__+0xe7ad08>
    2068:	1301053b 	movwne	r0, #5435	; 0x153b
    206c:	171b0000 	ldrne	r0, [fp, -r0]
    2070:	3a0b0b01 	bcc	2c4c7c <__bss_end__+0x2bacec>
    2074:	01053b0b 	tsteq	r5, fp, lsl #22
    2078:	1c000013 	stcne	0, cr0, [r0], {19}
    207c:	0e03000d 	cdpeq	0, 0, cr0, cr3, cr13, {0}
    2080:	053b0b3a 	ldreq	r0, [fp, #-2874]!	; 0xfffff4c6
    2084:	00001349 	andeq	r1, r0, r9, asr #6
    2088:	2701151d 	smladcs	r1, sp, r5, r1
    208c:	00130119 	andseq	r0, r3, r9, lsl r1
    2090:	00341e00 	eorseq	r1, r4, r0, lsl #28
    2094:	0b3a0e03 	bleq	e858a8 <__bss_end__+0xe7b918>
    2098:	1349053b 	movtne	r0, #38203	; 0x953b
    209c:	193c193f 	ldmdbne	ip!, {r0, r1, r2, r3, r4, r5, r8, fp, ip}
    20a0:	2e1f0000 	cdpcs	0, 1, cr0, cr15, cr0, {0}
    20a4:	03193f01 	tsteq	r9, #1, 30
    20a8:	3b0b3a0e 	blcc	2d08e8 <__bss_end__+0x2c6958>
    20ac:	4919270b 	ldmdbmi	r9, {r0, r1, r3, r8, r9, sl, sp}
    20b0:	12011113 	andne	r1, r1, #-1073741820	; 0xc0000004
    20b4:	97184006 	ldrls	r4, [r8, -r6]
    20b8:	00001942 	andeq	r1, r0, r2, asr #18
    20bc:	03000520 	movweq	r0, #1312	; 0x520
    20c0:	3b0b3a08 	blcc	2d08e8 <__bss_end__+0x2c6958>
    20c4:	0213490b 	andseq	r4, r3, #180224	; 0x2c000
    20c8:	21000018 	tstcs	r0, r8, lsl r0
    20cc:	08030005 	stmdaeq	r3, {r0, r2}
    20d0:	0b3b0b3a 	bleq	ec4dc0 <__bss_end__+0xebae30>
    20d4:	17021349 	strne	r1, [r2, -r9, asr #6]
    20d8:	34220000 	strtcc	r0, [r2], #-0
    20dc:	3a080300 	bcc	202ce4 <__bss_end__+0x1f8d54>
    20e0:	490b3b0b 	stmdbmi	fp, {r0, r1, r3, r8, r9, fp, ip, sp}
    20e4:	00170213 	andseq	r0, r7, r3, lsl r2
    20e8:	00342300 	eorseq	r2, r4, r0, lsl #6
    20ec:	0b3a0803 	bleq	e84100 <__bss_end__+0xe7a170>
    20f0:	13490b3b 	movtne	r0, #39739	; 0x9b3b
    20f4:	00001802 	andeq	r1, r0, r2, lsl #16
	...

Disassembly of section .debug_loc:

00000000 <.debug_loc>:
       0:	00000558 	andeq	r0, r0, r8, asr r5
       4:	00000567 	andeq	r0, r0, r7, ror #10
       8:	8c500001 	mrrchi	0, 0, r0, r0, cr1	; <UNPREDICTABLE>
       c:	90000005 	andls	r0, r0, r5
      10:	01000005 	tsteq	r0, r5
      14:	00005000 	andeq	r5, r0, r0
      18:	00000000 	andeq	r0, r0, r0
      1c:	04980000 	ldreq	r0, [r8], #0
      20:	04a00000 	strteq	r0, [r0], #0
      24:	00020000 	andeq	r0, r2, r0
      28:	04a09f30 	strteq	r9, [r0], #3888	; 0xf30
      2c:	05180000 	ldreq	r0, [r8, #-0]
      30:	00010000 	andeq	r0, r1, r0
      34:	00000056 	andeq	r0, r0, r6, asr r0
      38:	00000000 	andeq	r0, r0, r0
      3c:	00028000 	andeq	r8, r2, r0
      40:	00029b00 	andeq	r9, r2, r0, lsl #22
      44:	51000100 	mrspl	r0, (UNDEF: 16)
      48:	0000029b 	muleq	r0, fp, r2
      4c:	00000418 	andeq	r0, r0, r8, lsl r4
      50:	01f30004 	mvnseq	r0, r4
      54:	00009f51 	andeq	r9, r0, r1, asr pc
      58:	00000000 	andeq	r0, r0, r0
      5c:	02800000 	addeq	r0, r0, #0
      60:	029b0000 	addseq	r0, fp, #0
      64:	00010000 	andeq	r0, r1, r0
      68:	00029b52 	andeq	r9, r2, r2, asr fp
      6c:	00036400 	andeq	r6, r3, r0, lsl #8
      70:	54000100 	strpl	r0, [r0], #-256	; 0xffffff00
      74:	00000364 	andeq	r0, r0, r4, ror #6
      78:	00000390 	muleq	r0, r0, r3
      7c:	01f30004 	mvnseq	r0, r4
      80:	03909f52 	orrseq	r9, r0, #328	; 0x148
      84:	04180000 	ldreq	r0, [r8], #-0
      88:	00010000 	andeq	r0, r1, r0
      8c:	00000054 	andeq	r0, r0, r4, asr r0
      90:	00000000 	andeq	r0, r0, r0
      94:	00028000 	andeq	r8, r2, r0
      98:	00029b00 	andeq	r9, r2, r0, lsl #22
      9c:	53000100 	movwpl	r0, #256	; 0x100
      a0:	0000029b 	muleq	r0, fp, r2
      a4:	00000418 	andeq	r0, r0, r8, lsl r4
      a8:	01f30004 	mvnseq	r0, r4
      ac:	00009f53 	andeq	r9, r0, r3, asr pc
      b0:	00000000 	andeq	r0, r0, r0
      b4:	03080000 	movweq	r0, #32768	; 0x8000
      b8:	03640000 	cmneq	r4, #0
      bc:	00050000 	andeq	r0, r5, r0
      c0:	25400074 	strbcs	r0, [r0, #-116]	; 0xffffff8c
      c4:	0003649f 	muleq	r3, pc, r4	; <UNPREDICTABLE>
      c8:	00039000 	andeq	r9, r3, r0
      cc:	f3000600 	vmax.u8	d0, d0, d0
      d0:	25405201 	strbcs	r5, [r0, #-513]	; 0xfffffdff
      d4:	0003d89f 	muleq	r3, pc, r8	; <UNPREDICTABLE>
      d8:	00041800 	andeq	r1, r4, r0, lsl #16
      dc:	74000500 	strvc	r0, [r0], #-1280	; 0xfffffb00
      e0:	9f254000 	svcls	0x00254000
	...
      ec:	0000030c 	andeq	r0, r0, ip, lsl #6
      f0:	0000032f 	andeq	r0, r0, pc, lsr #6
      f4:	2f530001 	svccs	0x00530001
      f8:	64000003 	strvs	r0, [r0], #-3
      fc:	06000003 	streq	r0, [r0], -r3
     100:	08007400 	stmdaeq	r0, {sl, ip, sp, lr}
     104:	d89f1aff 	ldmle	pc, {r0, r1, r2, r3, r4, r5, r6, r7, r9, fp, ip}	; <UNPREDICTABLE>
     108:	db000003 	blle	11c <_start-0x7ee4>
     10c:	01000003 	tsteq	r0, r3
     110:	03db5300 	bicseq	r5, fp, #0, 6
     114:	04180000 	ldreq	r0, [r8], #-0
     118:	00060000 	andeq	r0, r6, r0
     11c:	ff080074 			; <UNDEFINED> instruction: 0xff080074
     120:	00009f1a 	andeq	r9, r0, sl, lsl pc
     124:	00000000 	andeq	r0, r0, r0
     128:	02a80000 	adceq	r0, r8, #0
     12c:	02d40000 	sbcseq	r0, r4, #0
     130:	00010000 	andeq	r0, r1, r0
     134:	0002f454 	andeq	pc, r2, r4, asr r4	; <UNPREDICTABLE>
     138:	0002f800 	andeq	pc, r2, r0, lsl #16
     13c:	54000100 	strpl	r0, [r0], #-256	; 0xffffff00
     140:	00000390 	muleq	r0, r0, r3
     144:	00000398 	muleq	r0, r8, r3
     148:	00540001 	subseq	r0, r4, r1
     14c:	00000000 	andeq	r0, r0, r0
     150:	08000000 	stmdaeq	r0, {}	; <UNPREDICTABLE>
     154:	18000002 	stmdane	r0, {r1}
     158:	01000002 	tsteq	r0, r2
     15c:	02185100 	andseq	r5, r8, #0, 2
     160:	025c0000 	subseq	r0, ip, #0
     164:	00010000 	andeq	r0, r1, r0
     168:	00025c54 	andeq	r5, r2, r4, asr ip
     16c:	00028000 	andeq	r8, r2, r0
     170:	f3000400 	vshl.u8	d0, d0, d0
     174:	009f5101 	addseq	r5, pc, r1, lsl #2
     178:	00000000 	andeq	r0, r0, r0
     17c:	f0000000 			; <UNDEFINED> instruction: 0xf0000000
     180:	fc000001 	stc2	0, cr0, [r0], {1}
     184:	01000001 	tsteq	r0, r1
     188:	01fc5000 	mvnseq	r5, r0
     18c:	02080000 	andeq	r0, r8, #0
     190:	00040000 	andeq	r0, r4, r0
     194:	9f5001f3 	svcls	0x005001f3
	...
     1a0:	00000200 	andeq	r0, r0, r0, lsl #4
     1a4:	00000204 	andeq	r0, r0, r4, lsl #4
     1a8:	00500001 	subseq	r0, r0, r1
     1ac:	00000000 	andeq	r0, r0, r0
     1b0:	88000000 	stmdahi	r0, {}	; <UNPREDICTABLE>
     1b4:	9c000001 	stcls	0, cr0, [r0], {1}
     1b8:	01000001 	tsteq	r0, r1
     1bc:	019c5100 	orrseq	r5, ip, r0, lsl #2
     1c0:	01e80000 	mvneq	r0, r0
     1c4:	00010000 	andeq	r0, r1, r0
     1c8:	0001e854 	andeq	lr, r1, r4, asr r8
     1cc:	0001f000 	andeq	pc, r1, r0
     1d0:	f3000400 	vshl.u8	d0, d0, d0
     1d4:	009f5101 	addseq	r5, pc, r1, lsl #2
     1d8:	00000000 	andeq	r0, r0, r0
     1dc:	a0000000 	andge	r0, r0, r0
     1e0:	ab000001 	blge	1ec <_start-0x7e14>
     1e4:	02000001 	andeq	r0, r0, #1
     1e8:	00087400 	andeq	r7, r8, r0, lsl #8
     1ec:	00000000 	andeq	r0, r0, r0
     1f0:	b0000000 	andlt	r0, r0, r0
     1f4:	b8000001 	stmdalt	r0, {r0}
     1f8:	01000001 	tsteq	r0, r1
     1fc:	01b85000 			; <UNDEFINED> instruction: 0x01b85000
     200:	01e80000 	mvneq	r0, r0
     204:	00010000 	andeq	r0, r1, r0
     208:	00000056 	andeq	r0, r0, r6, asr r0
     20c:	00000000 	andeq	r0, r0, r0
     210:	0001c000 	andeq	ip, r1, r0
     214:	0001c800 	andeq	ip, r1, r0, lsl #16
     218:	50000100 	andpl	r0, r0, r0, lsl #2
     21c:	000001c8 	andeq	r0, r0, r8, asr #3
     220:	000001e8 	andeq	r0, r0, r8, ror #3
     224:	00570001 	subseq	r0, r7, r1
     228:	00000000 	andeq	r0, r0, r0
     22c:	cc000000 	stcgt	0, cr0, [r0], {-0}
     230:	dc000001 	stcle	0, cr0, [r0], {1}
     234:	01000001 	tsteq	r0, r1
     238:	01dc5000 	bicseq	r5, ip, r0
     23c:	01df0000 	bicseq	r0, pc, r0
     240:	00010000 	andeq	r0, r1, r0
     244:	00000053 	andeq	r0, r0, r3, asr r0
     248:	00000000 	andeq	r0, r0, r0
     24c:	00008000 	andeq	r8, r0, r0
     250:	00008c00 	andeq	r8, r0, r0, lsl #24
     254:	50000100 	andpl	r0, r0, r0, lsl #2
     258:	0000008c 	andeq	r0, r0, ip, lsl #1
     25c:	000000e8 	andeq	r0, r0, r8, ror #1
     260:	00540001 	subseq	r0, r4, r1
     264:	00000000 	andeq	r0, r0, r0
     268:	80000000 	andhi	r0, r0, r0
     26c:	94000000 	strls	r0, [r0], #-0
     270:	01000000 	mrseq	r0, (UNDEF: 0)
     274:	00945100 	addseq	r5, r4, r0, lsl #2
     278:	00e80000 	rsceq	r0, r8, r0
     27c:	00040000 	andeq	r0, r4, r0
     280:	9f5101f3 	svcls	0x005101f3
	...
     28c:	00000080 	andeq	r0, r0, r0, lsl #1
     290:	00000097 	muleq	r0, r7, r0
     294:	97520001 	ldrbls	r0, [r2, -r1]
     298:	e8000000 	stmda	r0, {}	; <UNPREDICTABLE>
     29c:	04000000 	streq	r0, [r0], #-0
     2a0:	5201f300 	andpl	pc, r1, #0, 6
     2a4:	0000009f 	muleq	r0, pc, r0	; <UNPREDICTABLE>
     2a8:	00000000 	andeq	r0, r0, r0
     2ac:	00008000 	andeq	r8, r0, r0
     2b0:	00009700 	andeq	r9, r0, r0, lsl #14
     2b4:	53000100 	movwpl	r0, #256	; 0x100
     2b8:	00000097 	muleq	r0, r7, r0
     2bc:	000000a4 	andeq	r0, r0, r4, lsr #1
     2c0:	a4550001 	ldrbge	r0, [r5], #-1
     2c4:	e8000000 	stmda	r0, {}	; <UNPREDICTABLE>
     2c8:	04000000 	streq	r0, [r0], #-0
     2cc:	5301f300 	movwpl	pc, #4864	; 0x1300	; <UNPREDICTABLE>
     2d0:	0000009f 	muleq	r0, pc, r0	; <UNPREDICTABLE>
     2d4:	00000000 	andeq	r0, r0, r0
     2d8:	0000a400 	andeq	sl, r0, r0, lsl #8
     2dc:	0000b000 	andeq	fp, r0, r0
     2e0:	50000100 	andpl	r0, r0, r0, lsl #2
     2e4:	000000b0 	strheq	r0, [r0], -r0	; <UNPREDICTABLE>
     2e8:	000000b3 	strheq	r0, [r0], -r3
     2ec:	b3520001 	cmplt	r2, #1
     2f0:	e8000000 	stmda	r0, {}	; <UNPREDICTABLE>
     2f4:	01000000 	mrseq	r0, (UNDEF: 0)
     2f8:	00005500 	andeq	r5, r0, r0, lsl #10
     2fc:	00000000 	andeq	r0, r0, r0
     300:	001c0000 	andseq	r0, ip, r0
     304:	00380000 	eorseq	r0, r8, r0
     308:	00010000 	andeq	r0, r1, r0
     30c:	00003850 	andeq	r3, r0, r0, asr r8
     310:	00003b00 	andeq	r3, r0, r0, lsl #22
     314:	51000100 	mrspl	r0, (UNDEF: 16)
     318:	0000003b 	andeq	r0, r0, fp, lsr r0
     31c:	00000050 	andeq	r0, r0, r0, asr r0
     320:	50550001 	subspl	r0, r5, r1
     324:	53000000 	movwpl	r0, #0
     328:	01000000 	mrseq	r0, (UNDEF: 0)
     32c:	00535000 	subseq	r5, r3, r0
     330:	00800000 	addeq	r0, r0, r0
     334:	00040000 	andeq	r0, r4, r0
     338:	9f5001f3 	svcls	0x005001f3
	...
     344:	0000001c 	andeq	r0, r0, ip, lsl r0
     348:	00000034 	andeq	r0, r0, r4, lsr r0
     34c:	34510001 	ldrbcc	r0, [r1], #-1
     350:	50000000 	andpl	r0, r0, r0
     354:	01000000 	mrseq	r0, (UNDEF: 0)
     358:	00505400 	subseq	r5, r0, r0, lsl #8
     35c:	00530000 	subseq	r0, r3, r0
     360:	00010000 	andeq	r0, r1, r0
     364:	00005351 	andeq	r5, r0, r1, asr r3
     368:	00008000 	andeq	r8, r0, r0
     36c:	f3000400 	vshl.u8	d0, d0, d0
     370:	009f5101 	addseq	r5, pc, r1, lsl #2
	...
     37c:	04000000 	streq	r0, [r0], #-0
     380:	01000000 	mrseq	r0, (UNDEF: 0)
     384:	00045000 	andeq	r5, r4, r0
     388:	000c0000 	andeq	r0, ip, r0
     38c:	00040000 	andeq	r0, r4, r0
     390:	9f5001f3 	svcls	0x005001f3
	...
     3a0:	00000004 	andeq	r0, r0, r4
     3a4:	00700005 	rsbseq	r0, r0, r5
     3a8:	049f2438 	ldreq	r2, [pc], #1080	; 3b0 <_start-0x7c50>
     3ac:	0c000000 	stceq	0, cr0, [r0], {-0}
     3b0:	01000000 	mrseq	r0, (UNDEF: 0)
     3b4:	00005000 	andeq	r5, r0, r0
     3b8:	00000000 	andeq	r0, r0, r0
     3bc:	01480000 	mrseq	r0, (UNDEF: 72)
     3c0:	016f0000 	cmneq	pc, r0
     3c4:	00010000 	andeq	r0, r1, r0
     3c8:	00016f50 	andeq	r6, r1, r0, asr pc
     3cc:	00018800 	andeq	r8, r1, r0, lsl #16
     3d0:	f3000400 	vshl.u8	d0, d0, d0
     3d4:	009f5001 	addseq	r5, pc, r1
     3d8:	00000000 	andeq	r0, r0, r0
     3dc:	48000000 	stmdami	r0, {}	; <UNPREDICTABLE>
     3e0:	6c000001 	stcvs	0, cr0, [r0], {1}
     3e4:	01000001 	tsteq	r0, r1
     3e8:	016c5100 	cmneq	ip, r0, lsl #2
     3ec:	016f0000 	cmneq	pc, r0
     3f0:	00020000 	andeq	r0, r2, r0
     3f4:	00000071 	andeq	r0, r0, r1, ror r0
     3f8:	00000000 	andeq	r0, r0, r0
     3fc:	01480000 	mrseq	r0, (UNDEF: 72)
     400:	01680000 	cmneq	r8, r0
     404:	00010000 	andeq	r0, r1, r0
     408:	00016852 	andeq	r6, r1, r2, asr r8
     40c:	00018800 	andeq	r8, r1, r0, lsl #16
     410:	55000100 	strpl	r0, [r0, #-256]	; 0xffffff00
	...
     41c:	00000148 	andeq	r0, r0, r8, asr #2
     420:	00000160 	andeq	r0, r0, r0, ror #2
     424:	60530001 	subsvs	r0, r3, r1
     428:	88000001 	stmdahi	r0, {r0}
     42c:	01000001 	tsteq	r0, r1
     430:	00005600 	andeq	r5, r0, r0, lsl #12
     434:	00000000 	andeq	r0, r0, r0
     438:	01240000 			; <UNDEFINED> instruction: 0x01240000
     43c:	013f0000 	teqeq	pc, r0
     440:	00010000 	andeq	r0, r1, r0
     444:	00013f50 	andeq	r3, r1, r0, asr pc
     448:	00014800 	andeq	r4, r1, r0, lsl #16
     44c:	f3000400 	vshl.u8	d0, d0, d0
     450:	009f5001 	addseq	r5, pc, r1
     454:	00000000 	andeq	r0, r0, r0
     458:	24000000 	strcs	r0, [r0], #-0
     45c:	3c000001 	stccc	0, cr0, [r0], {1}
     460:	01000001 	tsteq	r0, r1
     464:	013c5100 	teqeq	ip, r0, lsl #2
     468:	013f0000 	teqeq	pc, r0
     46c:	00020000 	andeq	r0, r2, r0
     470:	013f0071 	teqeq	pc, r1, ror r0	; <UNPREDICTABLE>
     474:	01480000 	mrseq	r0, (UNDEF: 72)
     478:	00040000 	andeq	r0, r4, r0
     47c:	9f5101f3 	svcls	0x005101f3
	...
     488:	00000124 	andeq	r0, r0, r4, lsr #2
     48c:	00000138 	andeq	r0, r0, r8, lsr r1
     490:	38520001 	ldmdacc	r2, {r0}^
     494:	3f000001 	svccc	0x00000001
     498:	02000001 	andeq	r0, r0, #1
     49c:	3f6d9100 	svccc	0x006d9100
     4a0:	48000001 	stmdami	r0, {r0}
     4a4:	04000001 	streq	r0, [r0], #-1
     4a8:	5201f300 	andpl	pc, r1, #0, 6
     4ac:	0000009f 	muleq	r0, pc, r0	; <UNPREDICTABLE>
     4b0:	00000000 	andeq	r0, r0, r0
     4b4:	0000e800 	andeq	lr, r0, r0, lsl #16
     4b8:	00010700 	andeq	r0, r1, r0, lsl #14
     4bc:	50000100 	andpl	r0, r0, r0, lsl #2
     4c0:	00000107 	andeq	r0, r0, r7, lsl #2
     4c4:	00000124 	andeq	r0, r0, r4, lsr #2
     4c8:	01f30004 	mvnseq	r0, r4
     4cc:	00009f50 	andeq	r9, r0, r0, asr pc
     4d0:	00000000 	andeq	r0, r0, r0
     4d4:	00e80000 	rsceq	r0, r8, r0
     4d8:	01040000 	mrseq	r0, (UNDEF: 4)
     4dc:	00010000 	andeq	r0, r1, r0
     4e0:	00010451 	andeq	r0, r1, r1, asr r4
     4e4:	00010700 	andeq	r0, r1, r0, lsl #14
     4e8:	71000200 	mrsvc	r0, R8_usr
	...
     4f4:	0003ec00 	andeq	lr, r3, r0, lsl #24
     4f8:	00040300 	andeq	r0, r4, r0, lsl #6
     4fc:	50000100 	andpl	r0, r0, r0, lsl #2
     500:	00000403 	andeq	r0, r0, r3, lsl #8
     504:	000004ac 	andeq	r0, r0, ip, lsr #9
     508:	01f30004 	mvnseq	r0, r4
     50c:	00009f50 	andeq	r9, r0, r0, asr pc
     510:	00000000 	andeq	r0, r0, r0
     514:	03ec0000 	mvneq	r0, #0
     518:	04000000 	streq	r0, [r0], #-0
     51c:	00010000 	andeq	r0, r1, r0
     520:	00040051 	andeq	r0, r4, r1, asr r0
     524:	0004ac00 	andeq	sl, r4, r0, lsl #24
     528:	55000100 	strpl	r0, [r0, #-256]	; 0xffffff00
	...
     534:	000003ec 	andeq	r0, r0, ip, ror #7
     538:	000003fc 	strdeq	r0, [r0], -ip
     53c:	fc520001 	mrrc2	0, 0, r0, r2, cr1
     540:	ac000003 	stcge	0, cr0, [r0], {3}
     544:	01000004 	tsteq	r0, r4
     548:	00005400 	andeq	r5, r0, r0, lsl #8
     54c:	00000000 	andeq	r0, r0, r0
     550:	04040000 	streq	r0, [r4], #-0
     554:	040c0000 	streq	r0, [ip], #-0
     558:	00020000 	andeq	r0, r2, r0
     55c:	040c9f30 	streq	r9, [ip], #-3888	; 0xfffff0d0
     560:	040f0000 	streq	r0, [pc], #-0	; 568 <_start-0x7a98>
     564:	00010000 	andeq	r0, r1, r0
     568:	00042852 	andeq	r2, r4, r2, asr r8
     56c:	00047300 	andeq	r7, r4, r0, lsl #6
     570:	52000100 	andpl	r0, r0, #0, 2
     574:	0000048c 	andeq	r0, r0, ip, lsl #9
     578:	0000048f 	andeq	r0, r0, pc, lsl #9
     57c:	00520001 	subseq	r0, r2, r1
     580:	00000000 	andeq	r0, r0, r0
     584:	28000000 	stmdacs	r0, {}	; <UNPREDICTABLE>
     588:	3f000003 	svccc	0x00000003
     58c:	01000003 	tsteq	r0, r3
     590:	033f5000 	teqeq	pc, #0
     594:	03ec0000 	mvneq	r0, #0
     598:	00040000 	andeq	r0, r4, r0
     59c:	9f5001f3 	svcls	0x005001f3
	...
     5a8:	00000328 	andeq	r0, r0, r8, lsr #6
     5ac:	0000033c 	andeq	r0, r0, ip, lsr r3
     5b0:	3c510001 	mrrccc	0, 0, r0, r1, cr1
     5b4:	ec000003 	stc	0, cr0, [r0], {3}
     5b8:	01000003 	tsteq	r0, r3
     5bc:	00005500 	andeq	r5, r0, r0, lsl #10
     5c0:	00000000 	andeq	r0, r0, r0
     5c4:	03280000 			; <UNDEFINED> instruction: 0x03280000
     5c8:	03380000 	teqeq	r8, #0
     5cc:	00010000 	andeq	r0, r1, r0
     5d0:	00033852 	andeq	r3, r3, r2, asr r8
     5d4:	0003ec00 	andeq	lr, r3, r0, lsl #24
     5d8:	54000100 	strpl	r0, [r0], #-256	; 0xffffff00
	...
     5e4:	00000340 	andeq	r0, r0, r0, asr #6
     5e8:	00000348 	andeq	r0, r0, r8, asr #6
     5ec:	9f300002 	svcls	0x00300002
     5f0:	00000348 	andeq	r0, r0, r8, asr #6
     5f4:	0000034b 	andeq	r0, r0, fp, asr #6
     5f8:	64520001 	ldrbvs	r0, [r2], #-1
     5fc:	af000003 	svcge	0x00000003
     600:	01000003 	tsteq	r0, r3
     604:	03c85200 	biceq	r5, r8, #0, 4
     608:	03cb0000 	biceq	r0, fp, #0
     60c:	00010000 	andeq	r0, r1, r0
     610:	00000052 	andeq	r0, r0, r2, asr r0
     614:	00000000 	andeq	r0, r0, r0
     618:	00016000 	andeq	r6, r1, r0
     61c:	00017300 	andeq	r7, r1, r0, lsl #6
     620:	50000100 	andpl	r0, r0, r0, lsl #2
     624:	00000173 	andeq	r0, r0, r3, ror r1
     628:	00000328 	andeq	r0, r0, r8, lsr #6
     62c:	00560001 	subseq	r0, r6, r1
     630:	00000000 	andeq	r0, r0, r0
     634:	60000000 	andvs	r0, r0, r0
     638:	73000001 	movwvc	r0, #1
     63c:	01000001 	tsteq	r0, r1
     640:	01735100 	cmneq	r3, r0, lsl #2
     644:	021c0000 	andseq	r0, ip, #0
     648:	00010000 	andeq	r0, r1, r0
     64c:	00021c55 	andeq	r1, r2, r5, asr ip
     650:	00028800 	andeq	r8, r2, r0, lsl #16
     654:	f3000400 	vshl.u8	d0, d0, d0
     658:	889f5101 	ldmhi	pc, {r0, r8, ip, lr}	; <UNPREDICTABLE>
     65c:	dc000002 	stcle	0, cr0, [r0], {2}
     660:	01000002 	tsteq	r0, r2
     664:	02dc5500 	sbcseq	r5, ip, #0, 10
     668:	03280000 			; <UNDEFINED> instruction: 0x03280000
     66c:	00040000 	andeq	r0, r4, r0
     670:	9f5101f3 	svcls	0x005101f3
	...
     67c:	00000160 	andeq	r0, r0, r0, ror #2
     680:	00000173 	andeq	r0, r0, r3, ror r1
     684:	73520001 	cmpvc	r2, #1
     688:	28000001 	stmdacs	r0, {r0}
     68c:	01000003 	tsteq	r0, r3
     690:	00005400 	andeq	r5, r0, r0, lsl #8
     694:	00000000 	andeq	r0, r0, r0
     698:	022c0000 	eoreq	r0, ip, #0
     69c:	02300000 	eorseq	r0, r0, #0
     6a0:	00010000 	andeq	r0, r1, r0
     6a4:	00000050 	andeq	r0, r0, r0, asr r0
     6a8:	00000000 	andeq	r0, r0, r0
     6ac:	00013c00 	andeq	r3, r1, r0, lsl #24
     6b0:	00014000 	andeq	r4, r1, r0
     6b4:	51000100 	mrspl	r0, (UNDEF: 16)
	...
     6c0:	00000118 	andeq	r0, r0, r8, lsl r1
     6c4:	0000011f 	andeq	r0, r0, pc, lsl r1
     6c8:	1f500001 	svcne	0x00500001
     6cc:	28000001 	stmdacs	r0, {r0}
     6d0:	04000001 	streq	r0, [r0], #-1
     6d4:	5001f300 	andpl	pc, r1, r0, lsl #6
     6d8:	0000009f 	muleq	r0, pc, r0	; <UNPREDICTABLE>
     6dc:	00000000 	andeq	r0, r0, r0
     6e0:	00001400 	andeq	r1, r0, r0, lsl #8
     6e4:	00001800 	andeq	r1, r0, r0, lsl #16
     6e8:	50000100 	andpl	r0, r0, r0, lsl #2
	...
     6f4:	00000150 	andeq	r0, r0, r0, asr r1
     6f8:	00000157 	andeq	r0, r0, r7, asr r1
     6fc:	57500001 	ldrbpl	r0, [r0, -r1]
     700:	60000001 	andvs	r0, r0, r1
     704:	04000001 	streq	r0, [r0], #-1
     708:	5001f300 	andpl	pc, r1, r0, lsl #6
     70c:	0000009f 	muleq	r0, pc, r0	; <UNPREDICTABLE>
	...
     718:	00000400 	andeq	r0, r0, r0, lsl #8
     71c:	50000100 	andpl	r0, r0, r0, lsl #2
     720:	00000010 	andeq	r0, r0, r0, lsl r0
     724:	00000010 	andeq	r0, r0, r0, lsl r0
     728:	00500001 	subseq	r0, r0, r1
     72c:	00000000 	andeq	r0, r0, r0
     730:	2c000000 	stccs	0, cr0, [r0], {-0}
     734:	38000000 	stmdacc	r0, {}	; <UNPREDICTABLE>
     738:	01000000 	mrseq	r0, (UNDEF: 0)
     73c:	00385000 	eorseq	r5, r8, r0
     740:	00480000 	subeq	r0, r8, r0
     744:	00010000 	andeq	r0, r1, r0
     748:	00004855 	andeq	r4, r0, r5, asr r8
     74c:	00005800 	andeq	r5, r0, r0, lsl #16
     750:	50000100 	andpl	r0, r0, r0, lsl #2
	...
     75c:	00000270 	andeq	r0, r0, r0, ror r2
     760:	00000294 	muleq	r0, r4, r2
     764:	94500001 	ldrbls	r0, [r0], #-1
     768:	1c000002 	stcne	0, cr0, [r0], {2}
     76c:	01000005 	tsteq	r0, r5
     770:	051c5900 	ldreq	r5, [ip, #-2304]	; 0xfffff700
     774:	05300000 	ldreq	r0, [r0, #-0]!
     778:	00040000 	andeq	r0, r4, r0
     77c:	9f5001f3 	svcls	0x005001f3
	...
     788:	00000270 	andeq	r0, r0, r0, ror r2
     78c:	00000284 	andeq	r0, r0, r4, lsl #5
     790:	84510001 	ldrbhi	r0, [r1], #-1
     794:	94000002 	strls	r0, [r0], #-2
     798:	03000002 	movweq	r0, #2
     79c:	9f017100 	svcls	0x00017100
     7a0:	00000294 	muleq	r0, r4, r2
     7a4:	00000530 	andeq	r0, r0, r0, lsr r5
     7a8:	01f30004 	mvnseq	r0, r4
     7ac:	00009f51 	andeq	r9, r0, r1, asr pc
     7b0:	00000000 	andeq	r0, r0, r0
     7b4:	02700000 	rsbseq	r0, r0, #0
     7b8:	02b00000 	adcseq	r0, r0, #0
     7bc:	00010000 	andeq	r0, r1, r0
     7c0:	0002b052 	andeq	fp, r2, r2, asr r0
     7c4:	0002c800 	andeq	ip, r2, r0, lsl #16
     7c8:	52000100 	andpl	r0, r0, #0, 2
     7cc:	000002c8 	andeq	r0, r0, r8, asr #5
     7d0:	000002d0 	ldrdeq	r0, [r0], -r0	; <UNPREDICTABLE>
     7d4:	d0550001 	subsle	r0, r5, r1
     7d8:	e0000002 	and	r0, r0, r2
     7dc:	01000002 	tsteq	r0, r2
     7e0:	02e05200 	rsceq	r5, r0, #0, 4
     7e4:	03e40000 	mvneq	r0, #0
     7e8:	00010000 	andeq	r0, r1, r0
     7ec:	0003e455 	andeq	lr, r3, r5, asr r4
     7f0:	0003e800 	andeq	lr, r3, r0, lsl #16
     7f4:	52000100 	andpl	r0, r0, #0, 2
     7f8:	000003e8 	andeq	r0, r0, r8, ror #7
     7fc:	000004e0 	andeq	r0, r0, r0, ror #9
     800:	e0550001 	subs	r0, r5, r1
     804:	30000004 	andcc	r0, r0, r4
     808:	01000005 	tsteq	r0, r5
     80c:	00005200 	andeq	r5, r0, r0, lsl #4
     810:	00000000 	andeq	r0, r0, r0
     814:	02800000 	addeq	r0, r0, #0
     818:	02940000 	addseq	r0, r4, #0
     81c:	00010000 	andeq	r0, r1, r0
     820:	00029450 	andeq	r9, r2, r0, asr r4
     824:	0002ac00 	andeq	sl, r2, r0, lsl #24
     828:	56000100 	strpl	r0, [r0], -r0, lsl #2
     82c:	000002ac 	andeq	r0, r0, ip, lsr #5
     830:	000002b8 			; <UNDEFINED> instruction: 0x000002b8
     834:	01760003 	cmneq	r6, r3
     838:	0002b89f 	muleq	r2, pc, r8	; <UNPREDICTABLE>
     83c:	0002d000 	andeq	sp, r2, r0
     840:	56000100 	strpl	r0, [r0], -r0, lsl #2
     844:	000002d0 	ldrdeq	r0, [r0], -r0	; <UNPREDICTABLE>
     848:	000002dc 	ldrdeq	r0, [r0], -ip
     84c:	01760003 	cmneq	r6, r3
     850:	0002dc9f 	muleq	r2, pc, ip	; <UNPREDICTABLE>
     854:	0004e000 	andeq	lr, r4, r0
     858:	56000100 	strpl	r0, [r0], -r0, lsl #2
     85c:	000004e0 	andeq	r0, r0, r0, ror #9
     860:	000004ec 	andeq	r0, r0, ip, ror #9
     864:	01760003 	cmneq	r6, r3
     868:	0004ec9f 	muleq	r4, pc, ip	; <UNPREDICTABLE>
     86c:	00050800 	andeq	r0, r5, r0, lsl #16
     870:	56000100 	strpl	r0, [r0], -r0, lsl #2
     874:	00000508 	andeq	r0, r0, r8, lsl #10
     878:	00000514 	andeq	r0, r0, r4, lsl r5
     87c:	14500001 	ldrbne	r0, [r0], #-1
     880:	1c000005 	stcne	0, cr0, [r0], {5}
     884:	03000005 	movweq	r0, #5
     888:	9f017600 	svcls	0x00017600
	...
     894:	00000288 	andeq	r0, r0, r8, lsl #5
     898:	0000051c 	andeq	r0, r0, ip, lsl r5
     89c:	1c580001 	mrrcne	0, 0, r0, r8, cr1
     8a0:	30000005 	andcc	r0, r0, r5
     8a4:	0a000005 	beq	8c0 <_start-0x7740>
     8a8:	5101f300 	mrspl	pc, SP_irq	; <UNPREDICTABLE>
     8ac:	225001f3 	subscs	r0, r0, #-1073741764	; 0xc000003c
     8b0:	009f1c31 	addseq	r1, pc, r1, lsr ip	; <UNPREDICTABLE>
     8b4:	00000000 	andeq	r0, r0, r0
     8b8:	e0000000 	and	r0, r0, r0
     8bc:	e8000003 	stmda	r0, {r0, r1}
     8c0:	01000003 	tsteq	r0, r3
     8c4:	04145000 	ldreq	r5, [r4], #-0
     8c8:	04180000 	ldreq	r0, [r8], #-0
     8cc:	00010000 	andeq	r0, r1, r0
     8d0:	00044450 	andeq	r4, r4, r0, asr r4
     8d4:	00044800 	andeq	r4, r4, r0, lsl #16
     8d8:	50000100 	andpl	r0, r0, r0, lsl #2
     8dc:	00000474 	andeq	r0, r0, r4, ror r4
     8e0:	00000478 	andeq	r0, r0, r8, ror r4
     8e4:	b8500001 	ldmdalt	r0, {r0}^
     8e8:	bc000004 	stclt	0, cr0, [r0], {4}
     8ec:	01000004 	tsteq	r0, r4
     8f0:	04e05000 	strbteq	r5, [r0], #0
     8f4:	05040000 	streq	r0, [r4, #-0]
     8f8:	00010000 	andeq	r0, r1, r0
     8fc:	00000050 	andeq	r0, r0, r0, asr r0
     900:	00000000 	andeq	r0, r0, r0
     904:	0002c800 	andeq	ip, r2, r0, lsl #16
     908:	0002d000 	andeq	sp, r2, r0
     90c:	30000200 	andcc	r0, r0, r0, lsl #4
     910:	0002e09f 	muleq	r2, pc, r0	; <UNPREDICTABLE>
     914:	0002e400 	andeq	lr, r2, r0, lsl #8
     918:	54000100 	strpl	r0, [r0], #-256	; 0xffffff00
     91c:	000002f0 	strdeq	r0, [r0], -r0	; <UNPREDICTABLE>
     920:	00000504 	andeq	r0, r0, r4, lsl #10
     924:	00540001 	subseq	r0, r4, r1
     928:	00000000 	andeq	r0, r0, r0
     92c:	80000000 	andhi	r0, r0, r0
     930:	a4000000 	strge	r0, [r0], #-0
     934:	01000000 	mrseq	r0, (UNDEF: 0)
     938:	00a45000 	adceq	r5, r4, r0
     93c:	00f00000 	rscseq	r0, r0, r0
     940:	00030000 	andeq	r0, r3, r0
     944:	f09f0270 			; <UNDEFINED> instruction: 0xf09f0270
     948:	1c000000 	stcne	0, cr0, [r0], {-0}
     94c:	04000002 	streq	r0, [r0], #-2
     950:	5001f300 	andpl	pc, r1, r0, lsl #6
     954:	0000009f 	muleq	r0, pc, r0	; <UNPREDICTABLE>
     958:	00000000 	andeq	r0, r0, r0
     95c:	00008000 	andeq	r8, r0, r0
     960:	0000a000 	andeq	sl, r0, r0
     964:	51000100 	mrspl	r0, (UNDEF: 16)
     968:	000000a0 	andeq	r0, r0, r0, lsr #1
     96c:	0000021c 	andeq	r0, r0, ip, lsl r2
     970:	00550001 	subseq	r0, r5, r1
     974:	00000000 	andeq	r0, r0, r0
     978:	80000000 	andhi	r0, r0, r0
     97c:	94000000 	strls	r0, [r0], #-0
     980:	01000000 	mrseq	r0, (UNDEF: 0)
     984:	00945200 	addseq	r5, r4, r0, lsl #4
     988:	021c0000 	andseq	r0, ip, #0
     98c:	00010000 	andeq	r0, r1, r0
     990:	00000054 	andeq	r0, r0, r4, asr r0
     994:	00000000 	andeq	r0, r0, r0
     998:	00008000 	andeq	r8, r0, r0
     99c:	0000ec00 	andeq	lr, r0, r0, lsl #24
     9a0:	53000100 	movwpl	r0, #256	; 0x100
     9a4:	000000ec 	andeq	r0, r0, ip, ror #1
     9a8:	00000104 	andeq	r0, r0, r4, lsl #2
     9ac:	10510001 	subsne	r0, r1, r1
     9b0:	18000001 	stmdane	r0, {r0}
     9b4:	01000001 	tsteq	r0, r1
     9b8:	01685100 	cmneq	r8, r0, lsl #2
     9bc:	016c0000 	cmneq	ip, r0
     9c0:	00010000 	andeq	r0, r1, r0
     9c4:	00016c51 	andeq	r6, r1, r1, asr ip
     9c8:	00018c00 	andeq	r8, r1, r0, lsl #24
     9cc:	f3000400 	vshl.u8	d0, d0, d0
     9d0:	b09f5301 	addslt	r5, pc, r1, lsl #6
     9d4:	c0000001 	andgt	r0, r0, r1
     9d8:	01000001 	tsteq	r0, r1
     9dc:	01c05100 	biceq	r5, r0, r0, lsl #2
     9e0:	01e40000 	mvneq	r0, r0
     9e4:	00040000 	andeq	r0, r4, r0
     9e8:	9f5301f3 	svcls	0x005301f3
     9ec:	000001e4 	andeq	r0, r0, r4, ror #3
     9f0:	000001e7 	andeq	r0, r0, r7, ror #3
     9f4:	e7510001 	ldrb	r0, [r1, -r1]
     9f8:	1c000001 	stcne	0, cr0, [r0], {1}
     9fc:	04000002 	streq	r0, [r0], #-2
     a00:	5301f300 	movwpl	pc, #4864	; 0x1300	; <UNPREDICTABLE>
     a04:	0000009f 	muleq	r0, pc, r0	; <UNPREDICTABLE>
     a08:	00000000 	andeq	r0, r0, r0
     a0c:	00008000 	andeq	r8, r0, r0
     a10:	00009c00 	andeq	r9, r0, r0, lsl #24
     a14:	91000200 	mrsls	r0, R8_usr
     a18:	00009c00 	andeq	r9, r0, r0, lsl #24
     a1c:	00019300 	andeq	r9, r1, r0, lsl #6
     a20:	52000100 	andpl	r0, r0, #0, 2
     a24:	000001b0 			; <UNDEFINED> instruction: 0x000001b0
     a28:	000001e7 	andeq	r0, r0, r7, ror #3
     a2c:	00520001 	subseq	r0, r2, r1
     a30:	00000000 	andeq	r0, r0, r0
     a34:	9c000000 	stcls	0, cr0, [r0], {-0}
     a38:	18000000 	stmdane	r0, {}	; <UNPREDICTABLE>
     a3c:	01000001 	tsteq	r0, r1
     a40:	01185d00 	tsteq	r8, r0, lsl #26
     a44:	011c0000 	tsteq	ip, r0
     a48:	00010000 	andeq	r0, r1, r0
     a4c:	00011c50 	andeq	r1, r1, r0, asr ip
     a50:	00012000 	andeq	r2, r1, r0
     a54:	5c000100 	stfpls	f0, [r0], {-0}
     a58:	00000120 	andeq	r0, r0, r0, lsr #2
     a5c:	00000158 	andeq	r0, r0, r8, asr r1
     a60:	58500001 	ldmdapl	r0, {r0}^
     a64:	64000001 	strvs	r0, [r0], #-1
     a68:	03000001 	movweq	r0, #1
     a6c:	9f027c00 	svcls	0x00027c00
     a70:	00000164 	andeq	r0, r0, r4, ror #2
     a74:	00000168 	andeq	r0, r0, r8, ror #2
     a78:	68500001 	ldmdavs	r0, {r0}^
     a7c:	6c000001 	stcvs	0, cr0, [r0], {1}
     a80:	01000001 	tsteq	r0, r1
     a84:	016c5d00 	cmneq	ip, r0, lsl #26
     a88:	01700000 	cmneq	r0, r0
     a8c:	00010000 	andeq	r0, r1, r0
     a90:	00017053 	andeq	r7, r1, r3, asr r0
     a94:	00019300 	andeq	r9, r1, r0, lsl #6
     a98:	50000100 	andpl	r0, r0, r0, lsl #2
     a9c:	000001b0 			; <UNDEFINED> instruction: 0x000001b0
     aa0:	000001b8 			; <UNDEFINED> instruction: 0x000001b8
     aa4:	a1910004 	orrsge	r0, r1, r4
     aa8:	01b89f7f 			; <UNDEFINED> instruction: 0x01b89f7f
     aac:	01bc0000 			; <UNDEFINED> instruction: 0x01bc0000
     ab0:	00010000 	andeq	r0, r1, r0
     ab4:	0001bc50 	andeq	fp, r1, r0, asr ip
     ab8:	0001c000 	andeq	ip, r1, r0
     abc:	5d000100 	stfpls	f0, [r0, #-0]
     ac0:	000001c0 	andeq	r0, r0, r0, asr #3
     ac4:	000001c4 	andeq	r0, r0, r4, asr #3
     ac8:	c4530001 	ldrbgt	r0, [r3], #-1
     acc:	e4000001 	str	r0, [r0], #-1
     ad0:	01000001 	tsteq	r0, r1
     ad4:	01e45000 	mvneq	r5, r0
     ad8:	021c0000 	andseq	r0, ip, #0
     adc:	00010000 	andeq	r0, r1, r0
     ae0:	0000005d 	andeq	r0, r0, sp, asr r0
     ae4:	00000000 	andeq	r0, r0, r0
     ae8:	0000a000 	andeq	sl, r0, r0
     aec:	00014000 	andeq	r4, r1, r0
     af0:	51000100 	mrspl	r0, (UNDEF: 16)
     af4:	0000014c 	andeq	r0, r0, ip, asr #2
     af8:	00000180 	andeq	r0, r0, r0, lsl #3
     afc:	80510001 	subshi	r0, r1, r1
     b00:	88000001 	stmdahi	r0, {r0}
     b04:	05000001 	streq	r0, [r0, #-1]
     b08:	34007100 	strcc	r7, [r0], #-256	; 0xffffff00
     b0c:	01889f25 	orreq	r9, r8, r5, lsr #30
     b10:	01900000 	orrseq	r0, r0, r0
     b14:	00010000 	andeq	r0, r1, r0
     b18:	0001b051 	andeq	fp, r1, r1, asr r0
     b1c:	0001d400 	andeq	sp, r1, r0, lsl #8
     b20:	51000100 	mrspl	r0, (UNDEF: 16)
     b24:	000001d4 	ldrdeq	r0, [r0], -r4
     b28:	000001dc 	ldrdeq	r0, [r0], -ip
     b2c:	00710005 	rsbseq	r0, r1, r5
     b30:	dc9f2531 	cfldr32le	mvfx2, [pc], {49}	; 0x31
     b34:	e7000001 	str	r0, [r0, -r1]
     b38:	01000001 	tsteq	r0, r1
     b3c:	01e75100 	mvneq	r5, r0, lsl #2
     b40:	021c0000 	andseq	r0, ip, #0
     b44:	00040000 	andeq	r0, r4, r0
     b48:	9f5301f3 	svcls	0x005301f3
	...
     b54:	000000ec 	andeq	r0, r0, ip, ror #1
     b58:	00000100 	andeq	r0, r0, r0, lsl #2
     b5c:	9f300002 	svcls	0x00300002
     b60:	00000100 	andeq	r0, r0, r0, lsl #2
     b64:	00000108 	andeq	r0, r0, r8, lsl #2
     b68:	9f310002 	svcls	0x00310002
     b6c:	00000110 	andeq	r0, r0, r0, lsl r1
     b70:	00000118 	andeq	r0, r0, r8, lsl r1
     b74:	9f300002 	svcls	0x00300002
     b78:	00000118 	andeq	r0, r0, r8, lsl r1
     b7c:	00000168 	andeq	r0, r0, r8, ror #2
     b80:	00570001 	subseq	r0, r7, r1
     b84:	00000000 	andeq	r0, r0, r0
     b88:	40000000 	andmi	r0, r0, r0
     b8c:	60000000 	andvs	r0, r0, r0
     b90:	01000000 	mrseq	r0, (UNDEF: 0)
     b94:	00605000 	rsbeq	r5, r0, r0
     b98:	006c0000 	rsbeq	r0, ip, r0
     b9c:	00030000 	andeq	r0, r3, r0
     ba0:	6c9f0171 	ldfvss	f0, [pc], {113}	; 0x71
     ba4:	74000000 	strvc	r0, [r0], #-0
     ba8:	01000000 	mrseq	r0, (UNDEF: 0)
     bac:	00745100 	rsbseq	r5, r4, r0, lsl #2
     bb0:	00800000 	addeq	r0, r0, r0
     bb4:	00030000 	andeq	r0, r3, r0
     bb8:	009f0171 	addseq	r0, pc, r1, ror r1	; <UNPREDICTABLE>
     bbc:	00000000 	andeq	r0, r0, r0
     bc0:	40000000 	andmi	r0, r0, r0
     bc4:	5c000000 	stcpl	0, cr0, [r0], {-0}
     bc8:	01000000 	mrseq	r0, (UNDEF: 0)
     bcc:	005c5100 	subseq	r5, ip, r0, lsl #2
     bd0:	00800000 	addeq	r0, r0, r0
     bd4:	00040000 	andeq	r0, r4, r0
     bd8:	9f5101f3 	svcls	0x005101f3
	...
     be4:	00000040 	andeq	r0, r0, r0, asr #32
     be8:	00000058 	andeq	r0, r0, r8, asr r0
     bec:	58520001 	ldmdapl	r2, {r0}^
     bf0:	64000000 	strvs	r0, [r0], #-0
     bf4:	01000000 	mrseq	r0, (UNDEF: 0)
     bf8:	00645200 	rsbeq	r5, r4, r0, lsl #4
     bfc:	00680000 	rsbeq	r0, r8, r0
     c00:	00030000 	andeq	r0, r3, r0
     c04:	689f0172 	ldmvs	pc, {r1, r4, r5, r6, r8}	; <UNPREDICTABLE>
     c08:	80000000 	andhi	r0, r0, r0
     c0c:	01000000 	mrseq	r0, (UNDEF: 0)
     c10:	00005200 	andeq	r5, r0, r0, lsl #4
     c14:	00000000 	andeq	r0, r0, r0
     c18:	00400000 	subeq	r0, r0, r0
     c1c:	00540000 	subseq	r0, r4, r0
     c20:	00010000 	andeq	r0, r1, r0
     c24:	00005453 	andeq	r5, r0, r3, asr r4
     c28:	00007800 	andeq	r7, r0, r0, lsl #16
     c2c:	53000100 	movwpl	r0, #256	; 0x100
	...
     c38:	00000048 	andeq	r0, r0, r8, asr #32
     c3c:	00000050 	andeq	r0, r0, r0, asr r0
     c40:	505c0001 	subspl	r0, ip, r1
     c44:	54000000 	strpl	r0, [r0], #-0
     c48:	08000000 	stmdaeq	r0, {}	; <UNPREDICTABLE>
     c4c:	73007200 	movwvc	r7, #512	; 0x200
     c50:	01231c00 			; <UNDEFINED> instruction: 0x01231c00
     c54:	0000549f 	muleq	r0, pc, r4	; <UNPREDICTABLE>
     c58:	00005800 	andeq	r5, r0, r0, lsl #16
     c5c:	72000900 	andvc	r0, r0, #0, 18
     c60:	5301f300 	movwpl	pc, #4864	; 0x1300	; <UNPREDICTABLE>
     c64:	9f01231c 	svcls	0x0001231c
     c68:	00000058 	andeq	r0, r0, r8, asr r0
     c6c:	00000060 	andeq	r0, r0, r0, rrx
     c70:	00720009 	rsbseq	r0, r2, r9
     c74:	1c5301f3 	ldfnee	f0, [r3], {243}	; 0xf3
     c78:	609f0223 	addsvs	r0, pc, r3, lsr #4
     c7c:	80000000 	andhi	r0, r0, r0
     c80:	0a000000 	beq	c88 <_start-0x7378>
     c84:	5201f300 	andpl	pc, r1, #0, 6
     c88:	1c5301f3 	ldfnee	f0, [r3], {243}	; 0xf3
     c8c:	009f0123 	addseq	r0, pc, r3, lsr #2
     c90:	00000000 	andeq	r0, r0, r0
     c94:	14000000 	strne	r0, [r0], #-0
     c98:	1c000000 	stcne	0, cr0, [r0], {-0}
     c9c:	01000000 	mrseq	r0, (UNDEF: 0)
     ca0:	001c5000 	andseq	r5, ip, r0
     ca4:	002c0000 	eoreq	r0, ip, r0
     ca8:	00030000 	andeq	r0, r3, r0
     cac:	2c9f0170 	ldfcss	f0, [pc], {112}	; 0x70
     cb0:	40000000 	andmi	r0, r0, r0
     cb4:	01000000 	mrseq	r0, (UNDEF: 0)
     cb8:	00005000 	andeq	r5, r0, r0
     cbc:	00000000 	andeq	r0, r0, r0
     cc0:	00140000 	andseq	r0, r4, r0
     cc4:	00180000 	andseq	r0, r8, r0
     cc8:	00010000 	andeq	r0, r1, r0
     ccc:	00001851 	andeq	r1, r0, r1, asr r8
     cd0:	00004000 	andeq	r4, r0, r0
     cd4:	f3000400 	vshl.u8	d0, d0, d0
     cd8:	009f5101 	addseq	r5, pc, r1, lsl #2
	...
     ce4:	04000000 	streq	r0, [r0], #-0
     ce8:	01000000 	mrseq	r0, (UNDEF: 0)
     cec:	00045000 	andeq	r5, r4, r0
     cf0:	000c0000 	andeq	r0, ip, r0
     cf4:	00030000 	andeq	r0, r3, r0
     cf8:	0c9f3070 	ldceq	0, cr3, [pc], {112}	; 0x70
     cfc:	14000000 	strne	r0, [r0], #-0
     d00:	04000000 	streq	r0, [r0], #-0
     d04:	5001f300 	andpl	pc, r1, r0, lsl #6
     d08:	0000009f 	muleq	r0, pc, r0	; <UNPREDICTABLE>
     d0c:	00000000 	andeq	r0, r0, r0
     d10:	00021c00 	andeq	r1, r2, r0, lsl #24
     d14:	00024300 	andeq	r4, r2, r0, lsl #6
     d18:	50000100 	andpl	r0, r0, r0, lsl #2
     d1c:	00000243 	andeq	r0, r0, r3, asr #4
     d20:	00000270 	andeq	r0, r0, r0, ror r2
     d24:	01f30004 	mvnseq	r0, r4
     d28:	00009f50 	andeq	r9, r0, r0, asr pc
     d2c:	00000000 	andeq	r0, r0, r0
     d30:	021c0000 	andseq	r0, ip, #0
     d34:	02430000 	subeq	r0, r3, #0
     d38:	00010000 	andeq	r0, r1, r0
     d3c:	00024351 	andeq	r4, r2, r1, asr r3
     d40:	00027000 	andeq	r7, r2, r0
     d44:	f3000400 	vshl.u8	d0, d0, d0
     d48:	009f5101 	addseq	r5, pc, r1, lsl #2
	...
     d54:	0c000000 	stceq	0, cr0, [r0], {-0}
     d58:	01000000 	mrseq	r0, (UNDEF: 0)
     d5c:	000c5000 	andeq	r5, ip, r0
     d60:	00340000 	eorseq	r0, r4, r0
     d64:	00010000 	andeq	r0, r1, r0
     d68:	00000054 	andeq	r0, r0, r4, asr r0
	...
     d74:	00000b00 	andeq	r0, r0, r0, lsl #22
     d78:	50000100 	andpl	r0, r0, r0, lsl #2
     d7c:	0000000b 	andeq	r0, r0, fp
     d80:	00000014 	andeq	r0, r0, r4, lsl r0
     d84:	00540001 	subseq	r0, r4, r1
     d88:	00000000 	andeq	r0, r0, r0
     d8c:	10000000 	andne	r0, r0, r0
     d90:	1c000000 	stcne	0, cr0, [r0], {-0}
     d94:	03000000 	movweq	r0, #0
     d98:	9f047300 	svcls	0x00047300
     d9c:	0000001c 	andeq	r0, r0, ip, lsl r0
     da0:	0000002b 	andeq	r0, r0, fp, lsr #32
     da4:	00530001 	subseq	r0, r3, r1
     da8:	00000000 	andeq	r0, r0, r0
     dac:	2c000000 	stccs	0, cr0, [r0], {-0}
     db0:	40000000 	andmi	r0, r0, r0
     db4:	01000000 	mrseq	r0, (UNDEF: 0)
     db8:	00485000 	subeq	r5, r8, r0
     dbc:	00580000 	subseq	r0, r8, r0
     dc0:	00010000 	andeq	r0, r1, r0
     dc4:	00000050 	andeq	r0, r0, r0, asr r0
     dc8:	00000000 	andeq	r0, r0, r0
     dcc:	0091d400 	addseq	sp, r1, r0, lsl #8
     dd0:	0091f000 	addseq	pc, r1, r0
     dd4:	0c000600 	stceq	6, cr0, [r0], {-0}
     dd8:	2010001c 	andscs	r0, r0, ip, lsl r0
     ddc:	0000009f 	muleq	r0, pc, r0	; <UNPREDICTABLE>
     de0:	00000000 	andeq	r0, r0, r0
     de4:	0091d400 	addseq	sp, r1, r0, lsl #8
     de8:	0091f000 	addseq	pc, r1, r0
     dec:	0c000600 	stceq	6, cr0, [r0], {-0}
     df0:	20100024 	andscs	r0, r0, r4, lsr #32
     df4:	0000009f 	muleq	r0, pc, r0	; <UNPREDICTABLE>
     df8:	00000000 	andeq	r0, r0, r0
     dfc:	0091d400 	addseq	sp, r1, r0, lsl #8
     e00:	0091f000 	addseq	pc, r1, r0
     e04:	08000500 	stmdaeq	r0, {r8, sl}
     e08:	9f2447b4 	svcls	0x002447b4
	...
     e14:	000091d4 	ldrdeq	r9, [r0], -r4
     e18:	000091f0 	strdeq	r9, [r0], -r0
     e1c:	20080003 	andcs	r0, r8, r3
     e20:	0000009f 	muleq	r0, pc, r0	; <UNPREDICTABLE>
     e24:	00000000 	andeq	r0, r0, r0
     e28:	0091a800 	addseq	sl, r1, r0, lsl #16
     e2c:	0091ac00 	addseq	sl, r1, r0, lsl #24
     e30:	30000200 	andcc	r0, r0, r0, lsl #4
     e34:	0091ac9f 	umullseq	sl, r1, pc, ip	; <UNPREDICTABLE>
     e38:	0091b000 	addseq	fp, r1, r0
     e3c:	53000100 	movwpl	r0, #256	; 0x100
     e40:	000091b4 			; <UNDEFINED> instruction: 0x000091b4
     e44:	000091bc 			; <UNDEFINED> instruction: 0x000091bc
     e48:	00530001 	subseq	r0, r3, r1
     e4c:	00000000 	andeq	r0, r0, r0
     e50:	90000000 	andls	r0, r0, r0
     e54:	94000091 	strls	r0, [r0], #-145	; 0xffffff6f
     e58:	02000091 	andeq	r0, r0, #145	; 0x91
     e5c:	949f3000 	ldrls	r3, [pc], #0	; e64 <_start-0x719c>
     e60:	98000091 	stmdals	r0, {r0, r4, r7}
     e64:	01000091 	swpeq	r0, r1, [r0]	; <UNPREDICTABLE>
     e68:	00005000 	andeq	r5, r0, r0
     e6c:	00000000 	andeq	r0, r0, r0
     e70:	00740000 	rsbseq	r0, r4, r0
     e74:	00800000 	addeq	r0, r0, r0
     e78:	00010000 	andeq	r0, r1, r0
     e7c:	00008050 	andeq	r8, r0, r0, asr r0
     e80:	00008800 	andeq	r8, r0, r0, lsl #16
     e84:	f3000400 	vshl.u8	d0, d0, d0
     e88:	009f5001 	addseq	r5, pc, r1
     e8c:	00000000 	andeq	r0, r0, r0
     e90:	60000000 	andvs	r0, r0, r0
     e94:	6c000000 	stcvs	0, cr0, [r0], {-0}
     e98:	01000000 	mrseq	r0, (UNDEF: 0)
     e9c:	006c5000 	rsbeq	r5, ip, r0
     ea0:	00740000 	rsbseq	r0, r4, r0
     ea4:	00040000 	andeq	r0, r4, r0
     ea8:	9f5001f3 	svcls	0x005001f3
	...
     eb4:	0000003c 	andeq	r0, r0, ip, lsr r0
     eb8:	00000047 	andeq	r0, r0, r7, asr #32
     ebc:	47500001 	ldrbmi	r0, [r0, -r1]
     ec0:	60000000 	andvs	r0, r0, r0
     ec4:	01000000 	mrseq	r0, (UNDEF: 0)
     ec8:	00005500 	andeq	r5, r0, r0, lsl #10
     ecc:	00000000 	andeq	r0, r0, r0
     ed0:	00500000 	subseq	r0, r0, r0
     ed4:	00540000 	subseq	r0, r4, r0
     ed8:	00010000 	andeq	r0, r1, r0
     edc:	00000050 	andeq	r0, r0, r0, asr r0
	...
     ee8:	00000400 	andeq	r0, r0, r0, lsl #8
     eec:	50000100 	andpl	r0, r0, r0, lsl #2
     ef0:	00000004 	andeq	r0, r0, r4
     ef4:	0000000c 	andeq	r0, r0, ip
     ef8:	0c530001 	mrrceq	0, 0, r0, r3, cr1
     efc:	10000000 	andne	r0, r0, r0
     f00:	01000000 	mrseq	r0, (UNDEF: 0)
     f04:	00105000 	andseq	r5, r0, r0
     f08:	001c0000 	andseq	r0, ip, r0
     f0c:	00010000 	andeq	r0, r1, r0
     f10:	00000053 	andeq	r0, r0, r3, asr r0
     f14:	00000000 	andeq	r0, r0, r0
     f18:	00012c00 	andeq	r2, r1, r0, lsl #24
     f1c:	00013400 	andeq	r3, r1, r0, lsl #8
     f20:	50000100 	andpl	r0, r0, r0, lsl #2
     f24:	00000134 	andeq	r0, r0, r4, lsr r1
     f28:	00000154 	andeq	r0, r0, r4, asr r1
     f2c:	00540001 	subseq	r0, r4, r1
	...
     f38:	0f000000 	svceq	0x00000000
     f3c:	01000000 	mrseq	r0, (UNDEF: 0)
     f40:	000f5000 	andeq	r5, pc, r0
     f44:	00200000 	eoreq	r0, r0, r0
     f48:	00010000 	andeq	r0, r1, r0
     f4c:	00000054 	andeq	r0, r0, r4, asr r0
	...
     f58:	00000f00 	andeq	r0, r0, r0, lsl #30
     f5c:	51000100 	mrspl	r0, (UNDEF: 16)
     f60:	0000000f 	andeq	r0, r0, pc
     f64:	00000020 	andeq	r0, r0, r0, lsr #32
     f68:	00550001 	subseq	r0, r5, r1
     f6c:	00000000 	andeq	r0, r0, r0
     f70:	ec000000 	stc	0, cr0, [r0], {-0}
     f74:	04000000 	streq	r0, [r0], #-0
     f78:	01000001 	tsteq	r0, r1
     f7c:	01045000 	mrseq	r5, (UNDEF: 4)
     f80:	01140000 	tsteq	r4, r0
     f84:	00040000 	andeq	r0, r4, r0
     f88:	9f5001f3 	svcls	0x005001f3
     f8c:	00000114 	andeq	r0, r0, r4, lsl r1
     f90:	00000118 	andeq	r0, r0, r8, lsl r1
     f94:	18500001 	ldmdane	r0, {r0}^
     f98:	20000001 	andcs	r0, r0, r1
     f9c:	04000001 	streq	r0, [r0], #-1
     fa0:	5001f300 	andpl	pc, r1, r0, lsl #6
     fa4:	0000009f 	muleq	r0, pc, r0	; <UNPREDICTABLE>
     fa8:	00000000 	andeq	r0, r0, r0
     fac:	0000f800 	andeq	pc, r0, r0, lsl #16
     fb0:	00010400 	andeq	r0, r1, r0, lsl #8
     fb4:	70000b00 	andvc	r0, r0, r0, lsl #22
     fb8:	23253500 			; <UNDEFINED> instruction: 0x23253500
     fbc:	818080b4 	strhhi	r8, [r0, r4]
     fc0:	01049f02 	tsteq	r4, r2, lsl #30
     fc4:	01070000 	mrseq	r0, (UNDEF: 7)
     fc8:	00010000 	andeq	r0, r1, r0
     fcc:	00010750 	andeq	r0, r1, r0, asr r7
     fd0:	00011400 	andeq	r1, r1, r0, lsl #8
     fd4:	f3000c00 			; <UNDEFINED> instruction: 0xf3000c00
     fd8:	25355001 	ldrcs	r5, [r5, #-1]!
     fdc:	8080b423 	addhi	fp, r0, r3, lsr #8
     fe0:	009f0281 	addseq	r0, pc, r1, lsl #5
     fe4:	00000000 	andeq	r0, r0, r0
     fe8:	fc000000 	stc2	0, cr0, [r0], {-0}
     fec:	14000000 	strne	r0, [r0], #-0
     ff0:	01000001 	tsteq	r0, r1
     ff4:	00005400 	andeq	r5, r0, r0, lsl #8
     ff8:	00000000 	andeq	r0, r0, r0
     ffc:	00d00000 	sbcseq	r0, r0, r0
    1000:	00df0000 	sbcseq	r0, pc, r0
    1004:	00010000 	andeq	r0, r1, r0
    1008:	0000df50 	andeq	sp, r0, r0, asr pc
    100c:	0000e400 	andeq	lr, r0, r0, lsl #8
    1010:	f3000400 	vshl.u8	d0, d0, d0
    1014:	e49f5001 	ldr	r5, [pc], #1	; 101c <_start-0x6fe4>
    1018:	e7000000 	str	r0, [r0, -r0]
    101c:	01000000 	mrseq	r0, (UNDEF: 0)
    1020:	00e75000 	rsceq	r5, r7, r0
    1024:	00ec0000 	rsceq	r0, ip, r0
    1028:	00040000 	andeq	r0, r4, r0
    102c:	9f5001f3 	svcls	0x005001f3
	...
    1038:	000000d0 	ldrdeq	r0, [r0], -r0	; <UNPREDICTABLE>
    103c:	000000df 	ldrdeq	r0, [r0], -pc	; <UNPREDICTABLE>
    1040:	df510001 	svcle	0x00510001
    1044:	e4000000 	str	r0, [r0], #-0
    1048:	04000000 	streq	r0, [r0], #-0
    104c:	5101f300 	mrspl	pc, SP_irq	; <UNPREDICTABLE>
    1050:	0000e49f 	muleq	r0, pc, r4	; <UNPREDICTABLE>
    1054:	0000e700 	andeq	lr, r0, r0, lsl #14
    1058:	51000100 	mrspl	r0, (UNDEF: 16)
    105c:	000000e7 	andeq	r0, r0, r7, ror #1
    1060:	000000ec 	andeq	r0, r0, ip, ror #1
    1064:	01f30004 	mvnseq	r0, r4
    1068:	00009f51 	andeq	r9, r0, r1, asr pc
    106c:	00000000 	andeq	r0, r0, r0
    1070:	00c00000 	sbceq	r0, r0, r0
    1074:	00cb0000 	sbceq	r0, fp, r0
    1078:	00010000 	andeq	r0, r1, r0
    107c:	0000cb50 	andeq	ip, r0, r0, asr fp
    1080:	0000d000 	andeq	sp, r0, r0
    1084:	f3000400 	vshl.u8	d0, d0, d0
    1088:	009f5001 	addseq	r5, pc, r1
    108c:	00000000 	andeq	r0, r0, r0
    1090:	9c000000 	stcls	0, cr0, [r0], {-0}
    1094:	b4000000 	strlt	r0, [r0], #-0
    1098:	01000000 	mrseq	r0, (UNDEF: 0)
    109c:	00b45000 	adcseq	r5, r4, r0
    10a0:	00c00000 	sbceq	r0, r0, r0
    10a4:	00040000 	andeq	r0, r4, r0
    10a8:	9f5001f3 	svcls	0x005001f3
	...
    10b4:	00000078 	andeq	r0, r0, r8, ror r0
    10b8:	00000090 	muleq	r0, r0, r0
    10bc:	90500001 	subsls	r0, r0, r1
    10c0:	9c000000 	stcls	0, cr0, [r0], {-0}
    10c4:	04000000 	streq	r0, [r0], #-0
    10c8:	5001f300 	andpl	pc, r1, r0, lsl #6
    10cc:	0000009f 	muleq	r0, pc, r0	; <UNPREDICTABLE>
    10d0:	00000000 	andeq	r0, r0, r0
    10d4:	00006800 	andeq	r6, r0, r0, lsl #16
    10d8:	00007300 	andeq	r7, r0, r0, lsl #6
    10dc:	50000100 	andpl	r0, r0, r0, lsl #2
    10e0:	00000073 	andeq	r0, r0, r3, ror r0
    10e4:	00000078 	andeq	r0, r0, r8, ror r0
    10e8:	01f30004 	mvnseq	r0, r4
    10ec:	00009f50 	andeq	r9, r0, r0, asr pc
	...
    10f8:	003c0000 	eorseq	r0, ip, r0
    10fc:	00010000 	andeq	r0, r1, r0
    1100:	00003c50 	andeq	r3, r0, r0, asr ip
    1104:	00006800 	andeq	r6, r0, r0, lsl #16
    1108:	f3000400 	vshl.u8	d0, d0, d0
    110c:	009f5001 	addseq	r5, pc, r1
	...
    1118:	30000000 	andcc	r0, r0, r0
    111c:	01000000 	mrseq	r0, (UNDEF: 0)
    1120:	00305100 	eorseq	r5, r0, r0, lsl #2
    1124:	00680000 	rsbeq	r0, r8, r0
    1128:	00040000 	andeq	r0, r4, r0
    112c:	9f5101f3 	svcls	0x005101f3
	...
    1138:	0000004c 	andeq	r0, r0, ip, asr #32
    113c:	00000054 	andeq	r0, r0, r4, asr r0
    1140:	54500001 	ldrbpl	r0, [r0], #-1
    1144:	58000000 	stmdapl	r0, {}	; <UNPREDICTABLE>
    1148:	09000000 	stmdbeq	r0, {}	; <UNPREDICTABLE>
    114c:	75007400 	strvc	r7, [r0, #-1024]	; 0xfffffc00
    1150:	00712400 	rsbseq	r2, r1, r0, lsl #8
    1154:	00589f21 	subseq	r9, r8, r1, lsr #30
    1158:	005f0000 	subseq	r0, pc, r0
    115c:	00010000 	andeq	r0, r1, r0
    1160:	00000051 	andeq	r0, r0, r1, asr r0
	...
    116c:	00000400 	andeq	r0, r0, r0, lsl #8
    1170:	52000100 	andpl	r0, r0, #0, 2
    1174:	00000004 	andeq	r0, r0, r4
    1178:	00000020 	andeq	r0, r0, r0, lsr #32
    117c:	01f30004 	mvnseq	r0, r4
    1180:	00009f52 	andeq	r9, r0, r2, asr pc
	...
    118c:	000c0000 	andeq	r0, ip, r0
    1190:	00010000 	andeq	r0, r1, r0
    1194:	00000c50 	andeq	r0, r0, r0, asr ip
    1198:	00001400 	andeq	r1, r0, r0, lsl #8
    119c:	73000300 	movwvc	r0, #768	; 0x300
    11a0:	00149f01 	andseq	r9, r4, r1, lsl #30
    11a4:	00200000 	eoreq	r0, r0, r0
    11a8:	00010000 	andeq	r0, r1, r0
    11ac:	00000053 	andeq	r0, r0, r3, asr r0
    11b0:	00000000 	andeq	r0, r0, r0
	...

Disassembly of section .debug_aranges:

00000000 <.debug_aranges>:
   0:	0000001c 	andeq	r0, r0, ip, lsl r0
   4:	00000002 	andeq	r0, r0, r2
   8:	00040000 	andeq	r0, r4, r0
   c:	00000000 	andeq	r0, r0, r0
  10:	00008010 	andeq	r8, r0, r0, lsl r0
  14:	000005ac 	andeq	r0, r0, ip, lsr #11
	...
  20:	0000001c 	andeq	r0, r0, ip, lsl r0
  24:	171f0002 	ldrne	r0, [pc, -r2]
  28:	00040000 	andeq	r0, r4, r0
  2c:	00000000 	andeq	r0, r0, r0
  30:	000085bc 			; <UNDEFINED> instruction: 0x000085bc
  34:	00000568 	andeq	r0, r0, r8, ror #10
	...
  40:	0000001c 	andeq	r0, r0, ip, lsl r0
  44:	32810002 	addcc	r0, r1, #2
  48:	00040000 	andeq	r0, r4, r0
  4c:	00000000 	andeq	r0, r0, r0
  50:	00008b24 	andeq	r8, r0, r4, lsr #22
  54:	00000058 	andeq	r0, r0, r8, asr r0
	...
  60:	0000001c 	andeq	r0, r0, ip, lsl r0
  64:	3c130002 	ldccc	0, cr0, [r3], {2}
  68:	00040000 	andeq	r0, r4, r0
  6c:	00000000 	andeq	r0, r0, r0
  70:	00008b7c 	andeq	r8, r0, ip, ror fp
  74:	00000530 	andeq	r0, r0, r0, lsr r5
	...
  80:	0000001c 	andeq	r0, r0, ip, lsl r0
  84:	4a870002 	bmi	fe1c0094 <__bss_end__+0xfe1b6104>
  88:	00040000 	andeq	r0, r4, r0
  8c:	00000000 	andeq	r0, r0, r0
  90:	000090ac 	andeq	r9, r0, ip, lsr #1
  94:	00000034 	andeq	r0, r0, r4, lsr r0
	...
  a0:	0000001c 	andeq	r0, r0, ip, lsl r0
  a4:	53760002 	cmnpl	r6, #2
  a8:	00040000 	andeq	r0, r4, r0
  ac:	00000000 	andeq	r0, r0, r0
  b0:	000090e0 	andeq	r9, r0, r0, ror #1
  b4:	0000003c 	andeq	r0, r0, ip, lsr r0
	...
  c0:	0000001c 	andeq	r0, r0, ip, lsl r0
  c4:	5cb70002 	ldcpl	0, cr0, [r7], #8
  c8:	00040000 	andeq	r0, r4, r0
  cc:	00000000 	andeq	r0, r0, r0
  d0:	0000911c 	andeq	r9, r0, ip, lsl r1
  d4:	00000074 	andeq	r0, r0, r4, ror r0
	...
  e0:	0000001c 	andeq	r0, r0, ip, lsl r0
  e4:	67370002 	ldrvs	r0, [r7, -r2]!
  e8:	00040000 	andeq	r0, r4, r0
  ec:	00000000 	andeq	r0, r0, r0
  f0:	00009190 	muleq	r0, r0, r1
  f4:	00000078 	andeq	r0, r0, r8, ror r0
	...
 100:	0000001c 	andeq	r0, r0, ip, lsl r0
 104:	71210002 			; <UNDEFINED> instruction: 0x71210002
 108:	00040000 	andeq	r0, r4, r0
 10c:	00000000 	andeq	r0, r0, r0
 110:	00009208 	andeq	r9, r0, r8, lsl #4
 114:	00000028 	andeq	r0, r0, r8, lsr #32
	...
 120:	0000001c 	andeq	r0, r0, ip, lsl r0
 124:	7a3c0002 	bvc	f00134 <__bss_end__+0xef61a4>
 128:	00040000 	andeq	r0, r4, r0
 12c:	00000000 	andeq	r0, r0, r0
 130:	00009230 	andeq	r9, r0, r0, lsr r2
 134:	00000088 	andeq	r0, r0, r8, lsl #1
	...
 140:	0000001c 	andeq	r0, r0, ip, lsl r0
 144:	84570002 	ldrbhi	r0, [r7], #-2
 148:	00040000 	andeq	r0, r4, r0
 14c:	00000000 	andeq	r0, r0, r0
 150:	0000931c 	andeq	r9, r0, ip, lsl r3
 154:	00000160 	andeq	r0, r0, r0, ror #2
	...
 160:	0000001c 	andeq	r0, r0, ip, lsl r0
 164:	90f00002 	rscsls	r0, r0, r2
 168:	00040000 	andeq	r0, r4, r0
 16c:	00000000 	andeq	r0, r0, r0
 170:	0000947c 	andeq	r9, r0, ip, ror r4
 174:	00000120 	andeq	r0, r0, r0, lsr #2
	...
 180:	0000001c 	andeq	r0, r0, ip, lsl r0
 184:	9c8e0002 	stcls	0, cr0, [lr], {2}
 188:	00040000 	andeq	r0, r4, r0
 18c:	00000000 	andeq	r0, r0, r0
 190:	0000959c 	muleq	r0, ip, r5
 194:	00000050 	andeq	r0, r0, r0, asr r0
	...
 1a0:	0000001c 	andeq	r0, r0, ip, lsl r0
 1a4:	a6970002 	ldrge	r0, [r7], r2
 1a8:	00040000 	andeq	r0, r4, r0
 1ac:	00000000 	andeq	r0, r0, r0
 1b0:	000095ec 	andeq	r9, r0, ip, ror #11
 1b4:	00000020 	andeq	r0, r0, r0, lsr #32
	...

Disassembly of section .debug_ranges:

00000000 <.debug_ranges>:
   0:	000002a8 	andeq	r0, r0, r8, lsr #5
   4:	000002d4 	ldrdeq	r0, [r0], -r4
   8:	000002f4 	strdeq	r0, [r0], -r4
   c:	000002f8 	strdeq	r0, [r0], -r8
  10:	00000390 	muleq	r0, r0, r3
  14:	00000398 	muleq	r0, r8, r3
	...
  20:	000002c4 	andeq	r0, r0, r4, asr #5
  24:	000002d0 	ldrdeq	r0, [r0], -r0	; <UNPREDICTABLE>
  28:	000002e0 	andeq	r0, r0, r0, ror #5
  2c:	00000504 	andeq	r0, r0, r4, lsl #10
	...
  38:	00009190 	muleq	r0, r0, r1
  3c:	00009208 	andeq	r9, r0, r8, lsl #4
	...

Disassembly of section .debug_line:

00000000 <.debug_line>:
       0:	000001b2 			; <UNDEFINED> instruction: 0x000001b2
       4:	00d80002 	sbcseq	r0, r8, r2
       8:	01020000 	mrseq	r0, (UNDEF: 2)
       c:	000d0efb 	strdeq	r0, [sp], -fp
      10:	01010101 	tsteq	r1, r1, lsl #2
      14:	01000000 	mrseq	r0, (UNDEF: 0)
      18:	2f010000 	svccs	0x00010000
      1c:	2f727375 	svccs	0x00727375
      20:	2f62696c 	svccs	0x0062696c
      24:	2f636367 	svccs	0x00636367
      28:	2d6d7261 	sfmcs	f7, 2, [sp, #-388]!	; 0xfffffe7c
      2c:	656e6f6e 	strbvs	r6, [lr, #-3950]!	; 0xfffff092
      30:	6261652d 	rsbvs	r6, r1, #188743680	; 0xb400000
      34:	2e362f69 	cdpcs	15, 3, cr2, cr6, cr9, {3}
      38:	2f312e33 	svccs	0x00312e33
      3c:	6c636e69 	stclvs	14, cr6, [r3], #-420	; 0xfffffe5c
      40:	00656475 	rsbeq	r6, r5, r5, ror r4
      44:	7273752f 	rsbsvc	r7, r3, #197132288	; 0xbc00000
      48:	636e692f 	cmnvs	lr, #770048	; 0xbc000
      4c:	6564756c 	strbvs	r7, [r4, #-1388]!	; 0xfffffa94
      50:	77656e2f 	strbvc	r6, [r5, -pc, lsr #28]!
      54:	2f62696c 	svccs	0x0062696c
      58:	00737973 	rsbseq	r7, r3, r3, ror r9
      5c:	6d6f682f 	stclvs	8, cr6, [pc, #-188]!	; ffffffa8 <__bss_end__+0xffff6018>
      60:	73752f65 	cmnvc	r5, #404	; 0x194
      64:	442f7265 	strtmi	r7, [pc], #-613	; 6c <_start-0x7f94>
      68:	432f7665 			; <UNDEFINED> instruction: 0x432f7665
      6c:	30343153 	eorscc	r3, r4, r3, asr r1
      70:	696c2f45 	stmdbvs	ip!, {r0, r2, r6, r8, r9, sl, fp, sp}^
      74:	00697062 	rsbeq	r7, r9, r2, rrx
      78:	63636100 	cmnvs	r3, #0, 2
      7c:	632e6c65 			; <UNDEFINED> instruction: 0x632e6c65
      80:	00000000 	andeq	r0, r0, r0
      84:	366d736c 	strbtcc	r7, [sp], -ip, ror #6
      88:	33337364 	teqcc	r3, #100, 6	; 0x90000001
      8c:	0000682e 	andeq	r6, r0, lr, lsr #16
      90:	74730000 	ldrbtvc	r0, [r3], #-0
      94:	746e6964 	strbtvc	r6, [lr], #-2404	; 0xfffff69c
      98:	6363672d 	cmnvs	r3, #11796480	; 0xb40000
      9c:	0100682e 	tsteq	r0, lr, lsr #16
      a0:	6f6c0000 	svcvs	0x006c0000
      a4:	682e6b63 	stmdavs	lr!, {r0, r1, r5, r6, r8, r9, fp, sp, lr}
      a8:	00000200 	andeq	r0, r0, r0, lsl #4
      ac:	7079745f 	rsbsvc	r7, r9, pc, asr r4
      b0:	682e7365 	stmdavs	lr!, {r0, r2, r5, r6, r8, r9, ip, sp, lr}
      b4:	00000200 	andeq	r0, r0, r0, lsl #4
      b8:	64647473 	strbtvs	r7, [r4], #-1139	; 0xfffffb8d
      bc:	682e6665 	stmdavs	lr!, {r0, r2, r5, r6, r9, sl, sp, lr}
      c0:	00000100 	andeq	r0, r0, r0, lsl #2
      c4:	6e656572 	mcrvs	5, 3, r6, cr5, cr2, {3}
      c8:	00682e74 	rsbeq	r2, r8, r4, ror lr
      cc:	72000002 	andvc	r0, r0, #2
      d0:	682e6970 	stmdavs	lr!, {r4, r5, r6, r8, fp, sp, lr}
      d4:	00000300 	andeq	r0, r0, r0, lsl #6
      d8:	2e633269 	cdpcs	2, 6, cr3, cr3, cr9, {3}
      dc:	00000068 	andeq	r0, r0, r8, rrx
      e0:	05000000 	streq	r0, [r0, #-0]
      e4:	00801002 	addeq	r1, r0, r2
      e8:	00c30300 	sbceq	r0, r3, r0, lsl #6
      ec:	03301501 	teqeq	r0, #4194304	; 0x400000
      f0:	67134a0f 	ldrvs	r4, [r3, -pc, lsl #20]
      f4:	2f2e7103 	svccs	0x002e7103
      f8:	00686783 	rsbeq	r6, r8, r3, lsl #15
      fc:	46010402 	strmi	r0, [r1], -r2, lsl #8
     100:	9f837a08 	svcls	0x00837a08
     104:	04020083 	streq	r0, [r2], #-131	; 0xffffff7d
     108:	064a0601 	strbeq	r0, [sl], -r1, lsl #12
     10c:	58085203 	stmdapl	r8, {r0, r1, r9, ip, lr}
     110:	6984699f 	stmibvs	r4, {r0, r1, r2, r3, r4, r7, r8, fp, sp, lr}
     114:	682f2f4c 	stmdavs	pc!, {r2, r3, r6, r8, r9, sl, fp, sp}	; <UNPREDICTABLE>
     118:	8367d74e 	cmnhi	r7, #20447232	; 0x1380000
     11c:	bc4a2003 	mcrrlt	0, 0, r2, sl, cr3
     120:	9f678383 	svcls	0x00678383
     124:	03682f85 	cmneq	r8, #532	; 0x214
     128:	02004a0b 	andeq	r4, r0, #45056	; 0xb000
     12c:	86880104 	strhi	r0, [r8], r4, lsl #2
     130:	638383a0 	orrvs	r8, r3, #160, 6	; 0x80000002
     134:	31bb6e6c 			; <UNDEFINED> instruction: 0x31bb6e6c
     138:	85030204 	strhi	r0, [r3, #-516]	; 0xfffffdfc
     13c:	0104667f 	tsteq	r4, pc, ror r6
     140:	08018003 	stmdaeq	r1, {r0, r1, pc}
     144:	03020458 	movweq	r0, #9304	; 0x2458
     148:	04f27f80 	ldrbteq	r7, [r2], #3968	; 0xf80
     14c:	01840301 	orreq	r0, r4, r1, lsl #6
     150:	2f4f4c2e 	svccs	0x004f4c2e
     154:	bb83694c 	bllt	fe0da68c <__bss_end__+0xfe0d06fc>
     158:	67834d83 	strvs	r4, [r3, r3, lsl #27]
     15c:	0302044b 	movweq	r0, #9291	; 0x244b
     160:	04667ee6 	strbteq	r7, [r6], #-3814	; 0xfffff11a
     164:	01850301 	orreq	r0, r5, r1, lsl #6
     168:	0200f44a 	andeq	pc, r0, #1241513984	; 0x4a000000
     16c:	03f70104 	mvnseq	r0, #4, 2
     170:	4ce40811 	stclmi	8, cr0, [r4], #68	; 0x44
     174:	9f9f9fa3 	svcls	0x009f9fa3
     178:	0200a09f 	andeq	sl, r0, #159	; 0x9f
     17c:	004b0304 	subeq	r0, fp, r4, lsl #6
     180:	83030402 	movwhi	r0, #13314	; 0x3402
     184:	03040200 	movweq	r0, #16896	; 0x4200
     188:	040200a0 	streq	r0, [r2], #-160	; 0xffffff60
     18c:	00210803 	eoreq	r0, r1, r3, lsl #16
     190:	a0030402 	andge	r0, r3, r2, lsl #8
     194:	03040200 	movweq	r0, #16896	; 0x4200
     198:	004a7903 	subeq	r7, sl, r3, lsl #18
     19c:	06010402 	streq	r0, [r1], -r2, lsl #8
     1a0:	0903062e 	stmdbeq	r3, {r1, r2, r3, r5, r9, sl}
     1a4:	304bdb4a 	subcc	sp, fp, sl, asr #22
     1a8:	674e2f4b 	strbvs	r2, [lr, -fp, asr #30]
     1ac:	4c3e0867 	ldcmi	8, cr0, [lr], #-412	; 0xfffffe64
     1b0:	000a022f 	andeq	r0, sl, pc, lsr #4
     1b4:	02410101 	subeq	r0, r1, #1073741824	; 0x40000000
     1b8:	00020000 	andeq	r0, r2, r0
     1bc:	00000104 	andeq	r0, r0, r4, lsl #2
     1c0:	0efb0102 	cdpeq	1, 15, cr0, cr11, cr2, {0}
     1c4:	0101000d 	tsteq	r1, sp
     1c8:	00000101 	andeq	r0, r0, r1, lsl #2
     1cc:	00000100 	andeq	r0, r0, r0, lsl #2
     1d0:	73752f01 	cmnvc	r5, #1, 30
     1d4:	696c2f72 	stmdbvs	ip!, {r1, r4, r5, r6, r8, r9, sl, fp, sp}^
     1d8:	63672f62 	cmnvs	r7, #392	; 0x188
     1dc:	72612f63 	rsbvc	r2, r1, #396	; 0x18c
     1e0:	6f6e2d6d 	svcvs	0x006e2d6d
     1e4:	652d656e 	strvs	r6, [sp, #-1390]!	; 0xfffffa92
     1e8:	2f696261 	svccs	0x00696261
     1ec:	2e332e36 	mrccs	14, 1, r2, cr3, cr6, {1}
     1f0:	6e692f31 	mcrvs	15, 3, r2, cr9, cr1, {1}
     1f4:	64756c63 	ldrbtvs	r6, [r5], #-3171	; 0xfffff39d
     1f8:	752f0065 	strvc	r0, [pc, #-101]!	; 19b <_start-0x7e65>
     1fc:	692f7273 	stmdbvs	pc!, {r0, r1, r4, r5, r6, r9, ip, sp, lr}	; <UNPREDICTABLE>
     200:	756c636e 	strbvc	r6, [ip, #-878]!	; 0xfffffc92
     204:	6e2f6564 	cfsh64vs	mvdx6, mvdx15, #52
     208:	696c7765 	stmdbvs	ip!, {r0, r2, r5, r6, r8, r9, sl, ip, sp, lr}^
     20c:	79732f62 	ldmdbvc	r3!, {r1, r5, r6, r8, r9, sl, fp, sp}^
     210:	682f0073 	stmdavs	pc!, {r0, r1, r4, r5, r6}	; <UNPREDICTABLE>
     214:	2f656d6f 	svccs	0x00656d6f
     218:	6c676e65 	stclvs	14, cr6, [r7], #-404	; 0xfffffe6c
     21c:	632f7265 			; <UNDEFINED> instruction: 0x632f7265
     220:	7373616c 	cmnvc	r3, #108, 2
     224:	3173632f 	cmncc	r3, pc, lsr #6
     228:	2d653034 	stclcs	0, cr3, [r5, #-208]!	; 0xffffff30
     22c:	69773032 	ldmdbvs	r7!, {r1, r4, r5, ip, sp}^
     230:	696c2f6e 	stmdbvs	ip!, {r1, r2, r3, r5, r6, r8, r9, sl, fp, sp}^
     234:	00697062 	rsbeq	r7, r9, r2, rrx
     238:	6d6f682f 	stclvs	8, cr6, [pc, #-188]!	; 184 <_start-0x7e7c>
     23c:	6e652f65 	cdpvs	15, 6, cr2, cr5, cr5, {3}
     240:	72656c67 	rsbvc	r6, r5, #26368	; 0x6700
     244:	616c632f 	cmnvs	ip, pc, lsr #6
     248:	632f7373 			; <UNDEFINED> instruction: 0x632f7373
     24c:	30343173 	eorscc	r3, r4, r3, ror r1
     250:	30322d65 	eorscc	r2, r2, r5, ror #26
     254:	2f6e6977 	svccs	0x006e6977
     258:	7062696c 	rsbvc	r6, r2, ip, ror #18
     25c:	73632f69 	cmnvc	r3, #420	; 0x1a4
     260:	65303431 	ldrvs	r3, [r0, #-1073]!	; 0xfffffbcf
     264:	6372732d 	cmnvs	r2, #-1275068416	; 0xb4000000
     268:	32690000 	rsbcc	r0, r9, #0
     26c:	00632e63 	rsbeq	r2, r3, r3, ror #28
     270:	73000000 	movwvc	r0, #0
     274:	6e696474 	mcrvs	4, 3, r6, cr9, cr4, {3}
     278:	63672d74 	cmnvs	r7, #116, 26	; 0x1d00
     27c:	00682e63 	rsbeq	r2, r8, r3, ror #28
     280:	6c000001 	stcvs	0, cr0, [r0], {1}
     284:	2e6b636f 	cdpcs	3, 6, cr6, cr11, cr15, {3}
     288:	00020068 	andeq	r0, r2, r8, rrx
     28c:	79745f00 	ldmdbvc	r4!, {r8, r9, sl, fp, ip, lr}^
     290:	2e736570 	mrccs	5, 3, r6, cr3, cr0, {3}
     294:	00020068 	andeq	r0, r2, r8, rrx
     298:	64747300 	ldrbtvs	r7, [r4], #-768	; 0xfffffd00
     29c:	2e666564 	cdpcs	5, 6, cr6, cr6, cr4, {3}
     2a0:	00010068 	andeq	r0, r1, r8, rrx
     2a4:	65657200 	strbvs	r7, [r5, #-512]!	; 0xfffffe00
     2a8:	682e746e 	stmdavs	lr!, {r1, r2, r3, r5, r6, sl, ip, sp, lr}
     2ac:	00000200 	andeq	r0, r0, r0, lsl #4
     2b0:	2e697072 	mcrcs	0, 3, r7, cr9, cr2, {3}
     2b4:	00030068 	andeq	r0, r3, r8, rrx
     2b8:	69706700 	ldmdbvs	r0!, {r8, r9, sl, sp, lr}^
     2bc:	00682e6f 	rsbeq	r2, r8, pc, ror #28
     2c0:	00000004 	andeq	r0, r0, r4
     2c4:	bc020500 	cfstr32lt	mvfx0, [r2], {-0}
     2c8:	03000085 	movweq	r0, #133	; 0x85
     2cc:	130100f3 	movwne	r0, #4339	; 0x10f3
     2d0:	302f2f2f 	eorcc	r2, pc, pc, lsr #30
     2d4:	132e3703 			; <UNDEFINED> instruction: 0x132e3703
     2d8:	01b5034c 			; <UNDEFINED> instruction: 0x01b5034c
     2dc:	2e1d032e 	cdpcs	3, 1, cr0, cr13, cr14, {1}
     2e0:	2e7f8b03 	vaddcs.f64	d24, d15, d3
     2e4:	04040200 	streq	r0, [r4], #-512	; 0xfffffe00
     2e8:	04020030 	streq	r0, [r2], #-48	; 0xffffffd0
     2ec:	00820605 	addeq	r0, r2, r5, lsl #12
     2f0:	82020402 	andhi	r0, r2, #33554432	; 0x2000000
     2f4:	03040200 	movweq	r0, #16896	; 0x4200
     2f8:	04020082 	streq	r0, [r2], #-130	; 0xffffff7e
     2fc:	d906d601 	stmdble	r6, {r0, r9, sl, ip, lr, pc}
     300:	02008484 	andeq	r8, r0, #132, 8	; 0x84000000
     304:	00460104 	subeq	r0, r6, r4, lsl #2
     308:	d8010402 	stmdale	r1, {r1, sl}
     30c:	087f9d03 	ldmdaeq	pc!, {r0, r1, r8, sl, fp, ip, pc}^	; <UNPREDICTABLE>
     310:	034b2fe4 	movteq	r2, #49124	; 0xbfe4
     314:	672f2e2d 	strvs	r2, [pc, -sp, lsr #28]!
     318:	7f8f0334 	svcvc	0x008f0334
     31c:	034b2f9e 	movteq	r2, #49054	; 0xbf9e
     320:	832e00f2 			; <UNDEFINED> instruction: 0x832e00f2
     324:	04040200 	streq	r0, [r4], #-512	; 0xfffffe00
     328:	04020031 	streq	r0, [r2], #-49	; 0xffffffcf
     32c:	00820605 	addeq	r0, r2, r5, lsl #12
     330:	82020402 	andhi	r0, r2, #33554432	; 0x2000000
     334:	03040200 	movweq	r0, #16896	; 0x4200
     338:	04020082 	streq	r0, [r2], #-130	; 0xffffff7e
     33c:	d906d601 	stmdble	r6, {r0, r9, sl, ip, lr, pc}
     340:	694b3184 	stmdbvs	fp, {r2, r7, r8, ip, sp}^
     344:	2f68684b 	svccs	0x0068684b
     348:	0402004b 	streq	r0, [r2], #-75	; 0xffffffb5
     34c:	02006e04 	andeq	r6, r0, #4, 28	; 0x40
     350:	82060504 	andhi	r0, r6, #4, 10	; 0x1000000
     354:	02040200 	andeq	r0, r4, #0, 4
     358:	04020082 	streq	r0, [r2], #-130	; 0xffffff7e
     35c:	02008203 	andeq	r8, r0, #805306368	; 0x30000000
     360:	03060104 	movweq	r0, #24836	; 0x6104
     364:	0200d668 	andeq	sp, r0, #104, 12	; 0x6800000
     368:	00db0104 	sbcseq	r0, fp, r4, lsl #2
     36c:	da010402 	ble	4137c <__bss_end__+0x373ec>
     370:	01040200 	mrseq	r0, R12_usr
     374:	d7d60f03 	ldrble	r0, [r6, r3, lsl #30]
     378:	74080f03 	strvc	r0, [r8], #-3843	; 0xfffff0fd
     37c:	02006867 	andeq	r6, r0, #6750208	; 0x670000
     380:	004c0104 	subeq	r0, ip, r4, lsl #2
     384:	d9020402 	stmdble	r2, {r1, sl}
     388:	02040200 	andeq	r0, r4, #0, 4
     38c:	04020061 	streq	r0, [r2], #-97	; 0xffffff9f
     390:	002e0601 	eoreq	r0, lr, r1, lsl #12
     394:	06040402 	streq	r0, [r4], -r2, lsl #8
     398:	0402004c 	streq	r0, [r2], #-76	; 0xffffffb4
     39c:	00820605 	addeq	r0, r2, r5, lsl #12
     3a0:	82020402 	andhi	r0, r2, #33554432	; 0x2000000
     3a4:	03040200 	movweq	r0, #16896	; 0x4200
     3a8:	30dc0682 	sbcscc	r0, ip, r2, lsl #13
     3ac:	006967f5 	strdeq	r6, [r9], #-117	; 0xffffff8b	; <UNPREDICTABLE>
     3b0:	4c010402 	cfstrsmi	mvf0, [r1], {2}
     3b4:	02040200 	andeq	r0, r4, #0, 4
     3b8:	040200d9 	streq	r0, [r2], #-217	; 0xffffff27
     3bc:	02006102 	andeq	r6, r0, #-2147483648	; 0x80000000
     3c0:	2e060104 	adfcss	f0, f6, f4
     3c4:	04040200 	streq	r0, [r4], #-512	; 0xfffffe00
     3c8:	02004c06 	andeq	r4, r0, #1536	; 0x600
     3cc:	82060504 	andhi	r0, r6, #4, 10	; 0x1000000
     3d0:	02040200 	andeq	r0, r4, #0, 4
     3d4:	04020082 	streq	r0, [r2], #-130	; 0xffffff7e
     3d8:	dc068203 	sfmle	f0, 1, [r6], {3}
     3dc:	8a14db30 	bhi	5370a4 <__bss_end__+0x52d114>
     3e0:	6732302f 	ldrvs	r3, [r2, -pc, lsr #32]!
     3e4:	30843468 	addcc	r3, r4, r8, ror #8
     3e8:	00682f30 	rsbeq	r2, r8, r0, lsr pc
     3ec:	80010402 	andhi	r0, r1, r2, lsl #8
     3f0:	90086203 	andls	r6, r8, r3, lsl #4
     3f4:	0402682f 	streq	r6, [r2], #-2095	; 0xfffff7d1
     3f8:	f7010100 			; <UNDEFINED> instruction: 0xf7010100
     3fc:	02000000 	andeq	r0, r0, #0
     400:	0000e000 	andeq	lr, r0, r0
     404:	fb010200 	blx	40c0e <__bss_end__+0x36c7e>
     408:	01000d0e 	tsteq	r0, lr, lsl #26
     40c:	00010101 	andeq	r0, r1, r1, lsl #2
     410:	00010000 	andeq	r0, r1, r0
     414:	696c0100 	stmdbvs	ip!, {r8}^
     418:	2f006362 	svccs	0x00006362
     41c:	2f727375 	svccs	0x00727375
     420:	2f62696c 	svccs	0x0062696c
     424:	2f636367 	svccs	0x00636367
     428:	2d6d7261 	sfmcs	f7, 2, [sp, #-388]!	; 0xfffffe7c
     42c:	656e6f6e 	strbvs	r6, [lr, #-3950]!	; 0xfffff092
     430:	6261652d 	rsbvs	r6, r1, #188743680	; 0xb400000
     434:	2e362f69 	cdpcs	15, 3, cr2, cr6, cr9, {3}
     438:	2f312e33 	svccs	0x00312e33
     43c:	6c636e69 	stclvs	14, cr6, [r3], #-420	; 0xfffffe5c
     440:	00656475 	rsbeq	r6, r5, r5, ror r4
     444:	7273752f 	rsbsvc	r7, r3, #197132288	; 0xbc00000
     448:	636e692f 	cmnvs	lr, #770048	; 0xbc000
     44c:	6564756c 	strbvs	r7, [r4, #-1388]!	; 0xfffffa94
     450:	77656e2f 	strbvc	r6, [r5, -pc, lsr #28]!
     454:	2f62696c 	svccs	0x0062696c
     458:	00737973 	rsbseq	r7, r3, r3, ror r9
     45c:	6d6f682f 	stclvs	8, cr6, [pc, #-188]!	; 3a8 <_start-0x7c58>
     460:	73752f65 	cmnvc	r5, #404	; 0x194
     464:	442f7265 	strtmi	r7, [pc], #-613	; 46c <_start-0x7b94>
     468:	432f7665 			; <UNDEFINED> instruction: 0x432f7665
     46c:	30343153 	eorscc	r3, r4, r3, asr r1
     470:	696c2f45 	stmdbvs	ip!, {r0, r2, r6, r8, r9, sl, fp, sp}^
     474:	00697062 	rsbeq	r7, r9, r2, rrx
     478:	69727000 	ldmdbvs	r2!, {ip, sp, lr}^
     47c:	2e6b746e 	cdpcs	4, 6, cr7, cr11, cr14, {3}
     480:	00010063 	andeq	r0, r1, r3, rrx
     484:	64747300 	ldrbtvs	r7, [r4], #-768	; 0xfffffd00
     488:	2e677261 	cdpcs	2, 6, cr7, cr7, cr1, {3}
     48c:	00020068 	andeq	r0, r2, r8, rrx
     490:	636f6c00 	cmnvs	pc, #0, 24
     494:	00682e6b 	rsbeq	r2, r8, fp, ror #28
     498:	5f000003 	svcpl	0x00000003
     49c:	65707974 	ldrbvs	r7, [r0, #-2420]!	; 0xfffff68c
     4a0:	00682e73 	rsbeq	r2, r8, r3, ror lr
     4a4:	73000003 	movwvc	r0, #3
     4a8:	65646474 	strbvs	r6, [r4, #-1140]!	; 0xfffffb8c
     4ac:	00682e66 	rsbeq	r2, r8, r6, ror #28
     4b0:	72000002 	andvc	r0, r0, #2
     4b4:	746e6565 	strbtvc	r6, [lr], #-1381	; 0xfffffa9b
     4b8:	0300682e 	movweq	r6, #2094	; 0x82e
     4bc:	623c0000 	eorsvs	r0, ip, #0
     4c0:	746c6975 	strbtvc	r6, [ip], #-2421	; 0xfffff68b
     4c4:	3e6e692d 	vmulcc.f16	s13, s28, s27	; <UNPREDICTABLE>
     4c8:	00000000 	andeq	r0, r0, r0
     4cc:	2e697072 	mcrcs	0, 3, r7, cr9, cr2, {3}
     4d0:	00040068 	andeq	r0, r4, r8, rrx
     4d4:	2d617600 	stclcs	6, cr7, [r1, #-0]
     4d8:	6e697270 	mcrvs	2, 3, r7, cr9, cr0, {3}
     4dc:	682e6b74 	stmdavs	lr!, {r2, r4, r5, r6, r8, r9, fp, sp, lr}
     4e0:	00000100 	andeq	r0, r0, r0, lsl #2
     4e4:	02050000 	andeq	r0, r5, #0
     4e8:	00008b24 	andeq	r8, r0, r4, lsr #22
     4ec:	bf4b6b17 	svclt	0x004b6b17
     4f0:	000e0289 	andeq	r0, lr, r9, lsl #5
     4f4:	01c30101 	biceq	r0, r3, r1, lsl #2
     4f8:	00020000 	andeq	r0, r2, r0
     4fc:	000000d4 	ldrdeq	r0, [r0], -r4
     500:	0efb0102 	cdpeq	1, 15, cr0, cr11, cr2, {0}
     504:	0101000d 	tsteq	r1, sp
     508:	00000101 	andeq	r0, r0, r1, lsl #2
     50c:	00000100 	andeq	r0, r0, r0, lsl #2
     510:	62696c01 	rsbvs	r6, r9, #256	; 0x100
     514:	752f0063 	strvc	r0, [pc, #-99]!	; 4b9 <_start-0x7b47>
     518:	692f7273 	stmdbvs	pc!, {r0, r1, r4, r5, r6, r9, ip, sp, lr}	; <UNPREDICTABLE>
     51c:	756c636e 	strbvc	r6, [ip, #-878]!	; 0xfffffc92
     520:	6e2f6564 	cfsh64vs	mvdx6, mvdx15, #52
     524:	696c7765 	stmdbvs	ip!, {r0, r2, r5, r6, r8, r9, sl, ip, sp, lr}^
     528:	79732f62 	ldmdbvc	r3!, {r1, r5, r6, r8, r9, sl, fp, sp}^
     52c:	752f0073 	strvc	r0, [pc, #-115]!	; 4c1 <_start-0x7b3f>
     530:	6c2f7273 	sfmvs	f7, 4, [pc], #-460	; 36c <_start-0x7c94>
     534:	672f6269 	strvs	r6, [pc, -r9, ror #4]!
     538:	612f6363 			; <UNDEFINED> instruction: 0x612f6363
     53c:	6e2d6d72 	mcrvs	13, 1, r6, cr13, cr2, {3}
     540:	2d656e6f 	stclcs	14, cr6, [r5, #-444]!	; 0xfffffe44
     544:	69626165 	stmdbvs	r2!, {r0, r2, r5, r6, r8, sp, lr}^
     548:	332e362f 			; <UNDEFINED> instruction: 0x332e362f
     54c:	692f312e 	stmdbvs	pc!, {r1, r2, r3, r5, r8, ip, sp}	; <UNPREDICTABLE>
     550:	756c636e 	strbvc	r6, [ip, #-878]!	; 0xfffffc92
     554:	2f006564 	svccs	0x00006564
     558:	656d6f68 	strbvs	r6, [sp, #-3944]!	; 0xfffff098
     55c:	6573752f 	ldrbvs	r7, [r3, #-1327]!	; 0xfffffad1
     560:	65442f72 	strbvs	r2, [r4, #-3954]	; 0xfffff08e
     564:	53432f76 	movtpl	r2, #16246	; 0x3f76
     568:	45303431 	ldrmi	r3, [r0, #-1073]!	; 0xfffffbcf
     56c:	62696c2f 	rsbvs	r6, r9, #12032	; 0x2f00
     570:	00006970 	andeq	r6, r0, r0, ror r9
     574:	702d6176 	eorvc	r6, sp, r6, ror r1
     578:	746e6972 	strbtvc	r6, [lr], #-2418	; 0xfffff68e
     57c:	00632e6b 	rsbeq	r2, r3, fp, ror #28
     580:	6c000001 	stcvs	0, cr0, [r0], {1}
     584:	2e6b636f 	cdpcs	3, 6, cr6, cr11, cr15, {3}
     588:	00020068 	andeq	r0, r2, r8, rrx
     58c:	79745f00 	ldmdbvc	r4!, {r8, r9, sl, fp, ip, lr}^
     590:	2e736570 	mrccs	5, 3, r6, cr3, cr0, {3}
     594:	00020068 	andeq	r0, r2, r8, rrx
     598:	64747300 	ldrbtvs	r7, [r4], #-768	; 0xfffffd00
     59c:	2e666564 	cdpcs	5, 6, cr6, cr6, cr4, {3}
     5a0:	00030068 	andeq	r0, r3, r8, rrx
     5a4:	65657200 	strbvs	r7, [r5, #-512]!	; 0xfffffe00
     5a8:	682e746e 	stmdavs	lr!, {r1, r2, r3, r5, r6, sl, ip, sp, lr}
     5ac:	00000200 	andeq	r0, r0, r0, lsl #4
     5b0:	2e697072 	mcrcs	0, 3, r7, cr9, cr2, {3}
     5b4:	00040068 	andeq	r0, r4, r8, rrx
     5b8:	64747300 	ldrbtvs	r7, [r4], #-768	; 0xfffffd00
     5bc:	2e677261 	cdpcs	2, 6, cr7, cr7, cr1, {3}
     5c0:	00030068 	andeq	r0, r3, r8, rrx
     5c4:	75623c00 	strbvc	r3, [r2, #-3072]!	; 0xfffff400
     5c8:	2d746c69 	ldclcs	12, cr6, [r4, #-420]!	; 0xfffffe5c
     5cc:	003e6e69 	eorseq	r6, lr, r9, ror #28
     5d0:	00000000 	andeq	r0, r0, r0
     5d4:	7c020500 	cfstr32vc	mvfx0, [r2], {-0}
     5d8:	0300008b 	movweq	r0, #139	; 0x8b
     5dc:	a5010126 	strge	r0, [r1, #-294]	; 0xfffffeda
     5e0:	02003013 	andeq	r3, r0, #19
     5e4:	002f0204 	eoreq	r0, pc, r4, lsl #4
     5e8:	49020402 	stmdbmi	r2, {r1, sl}
     5ec:	02040200 	andeq	r0, r4, #0, 4
     5f0:	0402002f 	streq	r0, [r2], #-47	; 0xffffffd1
     5f4:	4c4c2d01 	mcrrmi	13, 0, r2, ip, cr1
     5f8:	2f4b1430 	svccs	0x004b1430
     5fc:	0402004f 	streq	r0, [r2], #-79	; 0xffffffb1
     600:	02006703 	andeq	r6, r0, #786432	; 0xc0000
     604:	4c650104 	stfmie	f0, [r5], #-16
     608:	2fa0304d 	svccs	0x00a0304d
     60c:	26023031 			; <UNDEFINED> instruction: 0x26023031
     610:	002da016 	eoreq	sl, sp, r6, lsl r0
     614:	06010402 	streq	r0, [r1], -r2, lsl #8
     618:	5148062e 	cmppl	r8, lr, lsr #12
     61c:	01040200 	mrseq	r0, R12_usr
     620:	02002e06 	andeq	r2, r0, #6, 28	; 0x60
     624:	08060104 	stmdaeq	r6, {r2, r8}
     628:	032f6759 			; <UNDEFINED> instruction: 0x032f6759
     62c:	02008273 	andeq	r8, r0, #805306375	; 0x30000007
     630:	13030104 	movwne	r0, #12548	; 0x3104
     634:	0402002e 	streq	r0, [r2], #-46	; 0xffffffd2
     638:	1503bb01 	strne	fp, [r3, #-2817]	; 0xfffff4ff
     63c:	6e03d74a 	cdpvs	7, 0, cr13, cr3, cr10, {2}
     640:	67034b4a 	strvs	r4, [r3, -sl, asr #22]
     644:	0402002e 	streq	r0, [r2], #-46	; 0xffffffd2
     648:	2e210301 	cdpcs	3, 2, cr0, cr1, cr1, {0}
     64c:	01040200 	mrseq	r0, R12_usr
     650:	040200bb 	streq	r0, [r2], #-187	; 0xffffff45
     654:	aa036a01 	bge	dae60 <__bss_end__+0xd0ed0>
     658:	13ac087f 			; <UNDEFINED> instruction: 0x13ac087f
     65c:	002f4b4b 	eoreq	r4, pc, fp, asr #22
     660:	62010402 	andvs	r0, r1, #33554432	; 0x2000000
     664:	01040200 	mrseq	r0, R12_usr
     668:	00dd032f 	sbcseq	r0, sp, pc, lsr #6
     66c:	4c837408 	cfstrsmi	mvf7, [r3], {8}
     670:	02003148 	andeq	r3, r0, #72, 2
     674:	66060104 	strvs	r0, [r6], -r4, lsl #2
     678:	842f4b06 	strthi	r4, [pc], #-2822	; 680 <_start-0x7980>
     67c:	0330314e 	teqeq	r0, #-2147483629	; 0x80000013
     680:	2d2f2e78 	stccs	14, cr2, [pc, #-480]!	; 4a8 <_start-0x7b58>
     684:	834a0903 	movthi	r0, #43267	; 0xa903
     688:	004ca22c 	subeq	sl, ip, ip, lsr #4
     68c:	02010402 	andeq	r0, r1, #33554432	; 0x2000000
     690:	03dc1036 	bicseq	r1, ip, #54	; 0x36
     694:	1603d60e 	strne	sp, [r3], -lr, lsl #12
     698:	03315808 	teqeq	r1, #8, 16	; 0x80000
     69c:	59082e6a 	stmdbpl	r8, {r1, r3, r5, r6, r9, sl, fp, sp}
     6a0:	30590831 	subscc	r0, r9, r1, lsr r8
     6a4:	83305908 	teqhi	r0, #8, 18	; 0x20000
     6a8:	30590830 	subscc	r0, r9, r0, lsr r8
     6ac:	00652708 	rsbeq	r2, r5, r8, lsl #14
     6b0:	06010402 	streq	r0, [r1], -r2, lsl #8
     6b4:	6886064a 	stmvs	r6, {r1, r3, r6, r9, sl}
     6b8:	01001002 	tsteq	r0, r2
     6bc:	0000db01 	andeq	sp, r0, r1, lsl #22
     6c0:	b5000200 	strlt	r0, [r0, #-512]	; 0xfffffe00
     6c4:	02000000 	andeq	r0, r0, #0
     6c8:	0d0efb01 	vstreq	d15, [lr, #-4]
     6cc:	01010100 	mrseq	r0, (UNDEF: 17)
     6d0:	00000001 	andeq	r0, r0, r1
     6d4:	01000001 	tsteq	r0, r1
     6d8:	6362696c 	cmnvs	r2, #108, 18	; 0x1b0000
     6dc:	73752f00 	cmnvc	r5, #0, 30
     6e0:	6e692f72 	mcrvs	15, 3, r2, cr9, cr2, {3}
     6e4:	64756c63 	ldrbtvs	r6, [r5], #-3171	; 0xfffff39d
     6e8:	656e2f65 	strbvs	r2, [lr, #-3941]!	; 0xfffff09b
     6ec:	62696c77 	rsbvs	r6, r9, #30464	; 0x7700
     6f0:	7379732f 	cmnvc	r9, #-1140850688	; 0xbc000000
     6f4:	73752f00 	cmnvc	r5, #0, 30
     6f8:	696c2f72 	stmdbvs	ip!, {r1, r4, r5, r6, r8, r9, sl, fp, sp}^
     6fc:	63672f62 	cmnvs	r7, #392	; 0x188
     700:	72612f63 	rsbvc	r2, r1, #396	; 0x18c
     704:	6f6e2d6d 	svcvs	0x006e2d6d
     708:	652d656e 	strvs	r6, [sp, #-1390]!	; 0xfffffa92
     70c:	2f696261 	svccs	0x00696261
     710:	2e332e36 	mrccs	14, 1, r2, cr3, cr6, {1}
     714:	6e692f31 	mcrvs	15, 3, r2, cr9, cr1, {1}
     718:	64756c63 	ldrbtvs	r6, [r5], #-3171	; 0xfffff39d
     71c:	682f0065 	stmdavs	pc!, {r0, r2, r5, r6}	; <UNPREDICTABLE>
     720:	2f656d6f 	svccs	0x00656d6f
     724:	72657375 	rsbvc	r7, r5, #-738197503	; 0xd4000001
     728:	7665442f 	strbtvc	r4, [r5], -pc, lsr #8
     72c:	3153432f 	cmpcc	r3, pc, lsr #6
     730:	2f453034 	svccs	0x00453034
     734:	7062696c 	rsbvc	r6, r2, ip, ror #18
     738:	70000069 	andvc	r0, r0, r9, rrx
     73c:	2e6b7475 	mcrcs	4, 3, r7, cr11, cr5, {3}
     740:	00010063 	andeq	r0, r1, r3, rrx
     744:	636f6c00 	cmnvs	pc, #0, 24
     748:	00682e6b 	rsbeq	r2, r8, fp, ror #28
     74c:	5f000002 	svcpl	0x00000002
     750:	65707974 	ldrbvs	r7, [r0, #-2420]!	; 0xfffff68c
     754:	00682e73 	rsbeq	r2, r8, r3, ror lr
     758:	73000002 	movwvc	r0, #2
     75c:	65646474 	strbvs	r6, [r4, #-1140]!	; 0xfffffb8c
     760:	00682e66 	rsbeq	r2, r8, r6, ror #28
     764:	72000003 	andvc	r0, r0, #3
     768:	746e6565 	strbtvc	r6, [lr], #-1381	; 0xfffffa9b
     76c:	0200682e 	andeq	r6, r0, #3014656	; 0x2e0000
     770:	70720000 	rsbsvc	r0, r2, r0
     774:	00682e69 	rsbeq	r2, r8, r9, ror #28
     778:	00000004 	andeq	r0, r0, r4
     77c:	ac020500 	cfstr32ge	mvfx0, [r2], {-0}
     780:	15000090 	strne	r0, [r0, #-144]	; 0xffffff70
     784:	0402004b 	streq	r0, [r2], #-75	; 0xffffffb5
     788:	02002f02 	andeq	r2, r0, #2, 30
     78c:	00650204 	rsbeq	r0, r5, r4, lsl #4
     790:	06010402 	streq	r0, [r1], -r2, lsl #8
     794:	026b062e 	rsbeq	r0, fp, #48234496	; 0x2e00000
     798:	01010006 	tsteq	r1, r6
     79c:	000000d0 	ldrdeq	r0, [r0], -r0	; <UNPREDICTABLE>
     7a0:	00b80002 	adcseq	r0, r8, r2
     7a4:	01020000 	mrseq	r0, (UNDEF: 2)
     7a8:	000d0efb 	strdeq	r0, [sp], -fp
     7ac:	01010101 	tsteq	r1, r1, lsl #2
     7b0:	01000000 	mrseq	r0, (UNDEF: 0)
     7b4:	6c010000 	stcvs	0, cr0, [r1], {-0}
     7b8:	00636269 	rsbeq	r6, r3, r9, ror #4
     7bc:	7273752f 	rsbsvc	r7, r3, #197132288	; 0xbc00000
     7c0:	636e692f 	cmnvs	lr, #770048	; 0xbc000
     7c4:	6564756c 	strbvs	r7, [r4, #-1388]!	; 0xfffffa94
     7c8:	77656e2f 	strbvc	r6, [r5, -pc, lsr #28]!
     7cc:	2f62696c 	svccs	0x0062696c
     7d0:	00737973 	rsbseq	r7, r3, r3, ror r9
     7d4:	7273752f 	rsbsvc	r7, r3, #197132288	; 0xbc00000
     7d8:	62696c2f 	rsbvs	r6, r9, #12032	; 0x2f00
     7dc:	6363672f 	cmnvs	r3, #12320768	; 0xbc0000
     7e0:	6d72612f 	ldfvse	f6, [r2, #-188]!	; 0xffffff44
     7e4:	6e6f6e2d 	cdpvs	14, 6, cr6, cr15, cr13, {1}
     7e8:	61652d65 	cmnvs	r5, r5, ror #26
     7ec:	362f6962 	strtcc	r6, [pc], -r2, ror #18
     7f0:	312e332e 			; <UNDEFINED> instruction: 0x312e332e
     7f4:	636e692f 	cmnvs	lr, #770048	; 0xbc000
     7f8:	6564756c 	strbvs	r7, [r4, #-1388]!	; 0xfffffa94
     7fc:	6f682f00 	svcvs	0x00682f00
     800:	752f656d 	strvc	r6, [pc, #-1389]!	; 29b <_start-0x7d65>
     804:	2f726573 	svccs	0x00726573
     808:	2f766544 	svccs	0x00766544
     80c:	34315343 	ldrtcc	r5, [r1], #-835	; 0xfffffcbd
     810:	6c2f4530 	cfstr32vs	mvfx4, [pc], #-192	; 758 <_start-0x78a8>
     814:	69706269 	ldmdbvs	r0!, {r0, r3, r5, r6, r9, sp, lr}^
     818:	75700000 	ldrbvc	r0, [r0, #-0]!
     81c:	61686374 	smcvs	34356	; 0x8634
     820:	00632e72 	rsbeq	r2, r3, r2, ror lr
     824:	6c000001 	stcvs	0, cr0, [r0], {1}
     828:	2e6b636f 	cdpcs	3, 6, cr6, cr11, cr15, {3}
     82c:	00020068 	andeq	r0, r2, r8, rrx
     830:	79745f00 	ldmdbvc	r4!, {r8, r9, sl, fp, ip, lr}^
     834:	2e736570 	mrccs	5, 3, r6, cr3, cr0, {3}
     838:	00020068 	andeq	r0, r2, r8, rrx
     83c:	64747300 	ldrbtvs	r7, [r4], #-768	; 0xfffffd00
     840:	2e666564 	cdpcs	5, 6, cr6, cr6, cr4, {3}
     844:	00030068 	andeq	r0, r3, r8, rrx
     848:	65657200 	strbvs	r7, [r5, #-512]!	; 0xfffffe00
     84c:	682e746e 	stmdavs	lr!, {r1, r2, r3, r5, r6, sl, ip, sp, lr}
     850:	00000200 	andeq	r0, r0, r0, lsl #4
     854:	2e697072 	mcrcs	0, 3, r7, cr9, cr2, {3}
     858:	00040068 	andeq	r0, r4, r8, rrx
     85c:	05000000 	streq	r0, [r0, #-0]
     860:	0090e002 	addseq	lr, r0, r2
     864:	6b4a1400 	blvs	128586c <__bss_end__+0x127b8dc>
     868:	0213bc13 	andseq	fp, r3, #4864	; 0x1300
     86c:	01010008 	tsteq	r1, r8
     870:	00000146 	andeq	r0, r0, r6, asr #2
     874:	01240002 			; <UNDEFINED> instruction: 0x01240002
     878:	01020000 	mrseq	r0, (UNDEF: 2)
     87c:	000d0efb 	strdeq	r0, [sp], -fp
     880:	01010101 	tsteq	r1, r1, lsl #2
     884:	01000000 	mrseq	r0, (UNDEF: 0)
     888:	63010000 	movwvs	r0, #4096	; 0x1000
     88c:	30343173 	eorscc	r3, r4, r3, ror r1
     890:	72732d65 	rsbsvc	r2, r3, #6464	; 0x1940
     894:	752f0063 	strvc	r0, [pc, #-99]!	; 839 <_start-0x77c7>
     898:	6c2f7273 	sfmvs	f7, 4, [pc], #-460	; 6d4 <_start-0x792c>
     89c:	672f6269 	strvs	r6, [pc, -r9, ror #4]!
     8a0:	612f6363 			; <UNDEFINED> instruction: 0x612f6363
     8a4:	6e2d6d72 	mcrvs	13, 1, r6, cr13, cr2, {3}
     8a8:	2d656e6f 	stclcs	14, cr6, [r5, #-444]!	; 0xfffffe44
     8ac:	69626165 	stmdbvs	r2!, {r0, r2, r5, r6, r8, sp, lr}^
     8b0:	332e362f 			; <UNDEFINED> instruction: 0x332e362f
     8b4:	692f312e 	stmdbvs	pc!, {r1, r2, r3, r5, r8, ip, sp}	; <UNPREDICTABLE>
     8b8:	756c636e 	strbvc	r6, [ip, #-878]!	; 0xfffffc92
     8bc:	2f006564 	svccs	0x00006564
     8c0:	2f727375 	svccs	0x00727375
     8c4:	6c636e69 	stclvs	14, cr6, [r3], #-420	; 0xfffffe5c
     8c8:	2f656475 	svccs	0x00656475
     8cc:	6c77656e 	cfldr64vs	mvdx6, [r7], #-440	; 0xfffffe48
     8d0:	732f6269 			; <UNDEFINED> instruction: 0x732f6269
     8d4:	2f007379 	svccs	0x00007379
     8d8:	656d6f68 	strbvs	r6, [sp, #-3944]!	; 0xfffff098
     8dc:	6573752f 	ldrbvs	r7, [r3, #-1327]!	; 0xfffffad1
     8e0:	65442f72 	strbvs	r2, [r4, #-3954]	; 0xfffff08e
     8e4:	53432f76 	movtpl	r2, #16246	; 0x3f76
     8e8:	45303431 	ldrmi	r3, [r0, #-1073]!	; 0xfffffbcf
     8ec:	62696c2f 	rsbvs	r6, r9, #12032	; 0x2f00
     8f0:	2f006970 	svccs	0x00006970
     8f4:	656d6f68 	strbvs	r6, [sp, #-3944]!	; 0xfffff098
     8f8:	6573752f 	ldrbvs	r7, [r3, #-1327]!	; 0xfffffad1
     8fc:	65442f72 	strbvs	r2, [r4, #-3954]	; 0xfffff08e
     900:	53432f76 	movtpl	r2, #16246	; 0x3f76
     904:	45303431 	ldrmi	r3, [r0, #-1073]!	; 0xfffffbcf
     908:	62696c2f 	rsbvs	r6, r9, #12032	; 0x2f00
     90c:	632f6970 			; <UNDEFINED> instruction: 0x632f6970
     910:	30343173 	eorscc	r3, r4, r3, ror r1
     914:	72732d65 	rsbsvc	r2, r3, #6464	; 0x1940
     918:	63000063 	movwvs	r0, #99	; 0x63
     91c:	72617473 	rsbvc	r7, r1, #1929379840	; 0x73000000
     920:	00632e74 	rsbeq	r2, r3, r4, ror lr
     924:	73000001 	movwvc	r0, #1
     928:	6e696474 	mcrvs	4, 3, r6, cr9, cr4, {3}
     92c:	63672d74 	cmnvs	r7, #116, 26	; 0x1d00
     930:	00682e63 	rsbeq	r2, r8, r3, ror #28
     934:	6c000002 	stcvs	0, cr0, [r0], {2}
     938:	2e6b636f 	cdpcs	3, 6, cr6, cr11, cr15, {3}
     93c:	00030068 	andeq	r0, r3, r8, rrx
     940:	79745f00 	ldmdbvc	r4!, {r8, r9, sl, fp, ip, lr}^
     944:	2e736570 	mrccs	5, 3, r6, cr3, cr0, {3}
     948:	00030068 	andeq	r0, r3, r8, rrx
     94c:	64747300 	ldrbtvs	r7, [r4], #-768	; 0xfffffd00
     950:	2e666564 	cdpcs	5, 6, cr6, cr6, cr4, {3}
     954:	00020068 	andeq	r0, r2, r8, rrx
     958:	65657200 	strbvs	r7, [r5, #-512]!	; 0xfffffe00
     95c:	682e746e 	stmdavs	lr!, {r1, r2, r3, r5, r6, sl, ip, sp, lr}
     960:	00000300 	andeq	r0, r0, r0, lsl #6
     964:	2e697072 	mcrcs	0, 3, r7, cr9, cr2, {3}
     968:	00040068 	andeq	r0, r4, r8, rrx
     96c:	2d777300 	ldclcs	3, cr7, [r7, #-0]
     970:	74726175 	ldrbtvc	r6, [r2], #-373	; 0xfffffe8b
     974:	0100682e 	tsteq	r0, lr, lsr #16
     978:	79630000 	stmdbvc	r3!, {}^	; <UNPREDICTABLE>
     97c:	2d656c63 	stclcs	12, cr6, [r5, #-396]!	; 0xfffffe74
     980:	6c697475 	cfstrdvs	mvd7, [r9], #-468	; 0xfffffe2c
     984:	0500682e 	streq	r6, [r0, #-2094]	; 0xfffff7d2
     988:	6f630000 	svcvs	0x00630000
     98c:	6f72746e 	svcvs	0x0072746e
     990:	6c622d6c 	stclvs	13, cr2, [r2], #-432	; 0xfffffe50
     994:	2e6b636f 	cdpcs	3, 6, cr6, cr11, cr15, {3}
     998:	00010068 	andeq	r0, r1, r8, rrx
     99c:	05000000 	streq	r0, [r0, #-0]
     9a0:	00911c02 	addseq	r1, r1, r2, lsl #24
     9a4:	30151700 	andscc	r1, r5, r0, lsl #14
     9a8:	652f3132 	strvs	r3, [pc, #-306]!	; 87e <_start-0x7782>
     9ac:	6e4b2f6b 	cdpvs	15, 4, cr2, cr11, cr11, {3}
     9b0:	2e78032f 	cdpcs	3, 7, cr0, cr8, cr15, {1}
     9b4:	00100269 	andseq	r0, r0, r9, ror #4
     9b8:	00e10101 	rsceq	r0, r1, r1, lsl #2
     9bc:	00020000 	andeq	r0, r2, r0
     9c0:	000000bd 	strheq	r0, [r0], -sp
     9c4:	0efb0102 	cdpeq	1, 15, cr0, cr11, cr2, {0}
     9c8:	0101000d 	tsteq	r1, sp
     9cc:	00000101 	andeq	r0, r0, r1, lsl #2
     9d0:	00000100 	andeq	r0, r0, r0, lsl #2
     9d4:	31736301 	cmncc	r3, r1, lsl #6
     9d8:	2d653034 	stclcs	0, cr3, [r5, #-208]!	; 0xffffff30
     9dc:	00637273 	rsbeq	r7, r3, r3, ror r2
     9e0:	7273752f 	rsbsvc	r7, r3, #197132288	; 0xbc00000
     9e4:	636e692f 	cmnvs	lr, #770048	; 0xbc000
     9e8:	6564756c 	strbvs	r7, [r4, #-1388]!	; 0xfffffa94
     9ec:	77656e2f 	strbvc	r6, [r5, -pc, lsr #28]!
     9f0:	2f62696c 	svccs	0x0062696c
     9f4:	00737973 	rsbseq	r7, r3, r3, ror r9
     9f8:	7273752f 	rsbsvc	r7, r3, #197132288	; 0xbc00000
     9fc:	62696c2f 	rsbvs	r6, r9, #12032	; 0x2f00
     a00:	6363672f 	cmnvs	r3, #12320768	; 0xbc0000
     a04:	6d72612f 	ldfvse	f6, [r2, #-188]!	; 0xffffff44
     a08:	6e6f6e2d 	cdpvs	14, 6, cr6, cr15, cr13, {1}
     a0c:	61652d65 	cmnvs	r5, r5, ror #26
     a10:	362f6962 	strtcc	r6, [pc], -r2, ror #18
     a14:	312e332e 			; <UNDEFINED> instruction: 0x312e332e
     a18:	636e692f 	cmnvs	lr, #770048	; 0xbc000
     a1c:	6564756c 	strbvs	r7, [r4, #-1388]!	; 0xfffffa94
     a20:	6f682f00 	svcvs	0x00682f00
     a24:	752f656d 	strvc	r6, [pc, #-1389]!	; 4bf <_start-0x7b41>
     a28:	2f726573 	svccs	0x00726573
     a2c:	2f766544 	svccs	0x00766544
     a30:	34315343 	ldrtcc	r5, [r1], #-835	; 0xfffffcbd
     a34:	6c2f4530 	cfstr32vs	mvfx4, [pc], #-192	; 97c <_start-0x7684>
     a38:	69706269 	ldmdbvs	r0!, {r0, r3, r5, r6, r9, sp, lr}^
     a3c:	65720000 	ldrbvs	r0, [r2, #-0]!
     a40:	746f6f62 	strbtvc	r6, [pc], #-3938	; a48 <_start-0x75b8>
     a44:	0100632e 	tsteq	r0, lr, lsr #6
     a48:	6f6c0000 	svcvs	0x006c0000
     a4c:	682e6b63 	stmdavs	lr!, {r0, r1, r5, r6, r8, r9, fp, sp, lr}
     a50:	00000200 	andeq	r0, r0, r0, lsl #4
     a54:	7079745f 	rsbsvc	r7, r9, pc, asr r4
     a58:	682e7365 	stmdavs	lr!, {r0, r2, r5, r6, r8, r9, ip, sp, lr}
     a5c:	00000200 	andeq	r0, r0, r0, lsl #4
     a60:	64647473 	strbtvs	r7, [r4], #-1139	; 0xfffffb8d
     a64:	682e6665 	stmdavs	lr!, {r0, r2, r5, r6, r9, sl, sp, lr}
     a68:	00000300 	andeq	r0, r0, r0, lsl #6
     a6c:	6e656572 	mcrvs	5, 3, r6, cr5, cr2, {3}
     a70:	00682e74 	rsbeq	r2, r8, r4, ror lr
     a74:	72000002 	andvc	r0, r0, #2
     a78:	682e6970 	stmdavs	lr!, {r4, r5, r6, r8, fp, sp, lr}
     a7c:	00000400 	andeq	r0, r0, r0, lsl #8
     a80:	02050000 	andeq	r0, r5, #0
     a84:	00009190 	muleq	r0, r0, r1
     a88:	14010d03 	strne	r0, [r1], #-3331	; 0xfffff2fd
     a8c:	15852f31 	strne	r2, [r5, #3889]	; 0xf31
     a90:	2f4d4b2f 	svccs	0x004d4b2f
     a94:	0367526e 	cmneq	r7, #-536870906	; 0xe0000006
     a98:	0c028270 	sfmeq	f0, 1, [r2], {112}	; 0x70
     a9c:	d9010100 	stmdble	r1, {r8}
     aa0:	02000000 	andeq	r0, r0, #0
     aa4:	0000c300 	andeq	ip, r0, r0, lsl #6
     aa8:	fb010200 	blx	412b2 <__bss_end__+0x37322>
     aac:	01000d0e 	tsteq	r0, lr, lsl #26
     ab0:	00010101 	andeq	r0, r1, r1, lsl #2
     ab4:	00010000 	andeq	r0, r1, r0
     ab8:	73630100 	cmnvc	r3, #0, 2
     abc:	65303431 	ldrvs	r3, [r0, #-1073]!	; 0xfffffbcf
     ac0:	6372732d 	cmnvs	r2, #-1275068416	; 0xb4000000
     ac4:	73752f00 	cmnvc	r5, #0, 30
     ac8:	6e692f72 	mcrvs	15, 3, r2, cr9, cr2, {3}
     acc:	64756c63 	ldrbtvs	r6, [r5], #-3171	; 0xfffff39d
     ad0:	656e2f65 	strbvs	r2, [lr, #-3941]!	; 0xfffff09b
     ad4:	62696c77 	rsbvs	r6, r9, #30464	; 0x7700
     ad8:	7379732f 	cmnvc	r9, #-1140850688	; 0xbc000000
     adc:	73752f00 	cmnvc	r5, #0, 30
     ae0:	696c2f72 	stmdbvs	ip!, {r1, r4, r5, r6, r8, r9, sl, fp, sp}^
     ae4:	63672f62 	cmnvs	r7, #392	; 0x188
     ae8:	72612f63 	rsbvc	r2, r1, #396	; 0x18c
     aec:	6f6e2d6d 	svcvs	0x006e2d6d
     af0:	652d656e 	strvs	r6, [sp, #-1390]!	; 0xfffffa92
     af4:	2f696261 	svccs	0x00696261
     af8:	2e332e36 	mrccs	14, 1, r2, cr3, cr6, {1}
     afc:	6e692f31 	mcrvs	15, 3, r2, cr9, cr1, {1}
     b00:	64756c63 	ldrbtvs	r6, [r5], #-3171	; 0xfffff39d
     b04:	682f0065 	stmdavs	pc!, {r0, r2, r5, r6}	; <UNPREDICTABLE>
     b08:	2f656d6f 	svccs	0x00656d6f
     b0c:	72657375 	rsbvc	r7, r5, #-738197503	; 0xd4000001
     b10:	7665442f 	strbtvc	r4, [r5], -pc, lsr #8
     b14:	3153432f 	cmpcc	r3, pc, lsr #6
     b18:	2f453034 	svccs	0x00453034
     b1c:	7062696c 	rsbvc	r6, r2, ip, ror #18
     b20:	63000069 	movwvs	r0, #105	; 0x69
     b24:	6e61656c 	cdpvs	5, 6, cr6, cr1, cr12, {3}
     b28:	6265722d 	rsbvs	r7, r5, #-805306366	; 0xd0000002
     b2c:	2e746f6f 	cdpcs	15, 7, cr6, cr4, cr15, {3}
     b30:	00010063 	andeq	r0, r1, r3, rrx
     b34:	636f6c00 	cmnvs	pc, #0, 24
     b38:	00682e6b 	rsbeq	r2, r8, fp, ror #28
     b3c:	5f000002 	svcpl	0x00000002
     b40:	65707974 	ldrbvs	r7, [r0, #-2420]!	; 0xfffff68c
     b44:	00682e73 	rsbeq	r2, r8, r3, ror lr
     b48:	73000002 	movwvc	r0, #2
     b4c:	65646474 	strbvs	r6, [r4, #-1140]!	; 0xfffffb8c
     b50:	00682e66 	rsbeq	r2, r8, r6, ror #28
     b54:	72000003 	andvc	r0, r0, #3
     b58:	746e6565 	strbtvc	r6, [lr], #-1381	; 0xfffffa9b
     b5c:	0200682e 	andeq	r6, r0, #3014656	; 0x2e0000
     b60:	70720000 	rsbsvc	r0, r2, r0
     b64:	00682e69 	rsbeq	r2, r8, r9, ror #28
     b68:	00000004 	andeq	r0, r0, r4
     b6c:	08020500 	stmdaeq	r2, {r8, sl}
     b70:	15000092 	strne	r0, [r0, #-146]	; 0xffffff6e
     b74:	024b832f 	subeq	r8, fp, #-1140850688	; 0xbc000000
     b78:	01010006 	tsteq	r1, r6
     b7c:	000000e2 	andeq	r0, r0, r2, ror #1
     b80:	00bc0002 	adcseq	r0, ip, r2
     b84:	01020000 	mrseq	r0, (UNDEF: 2)
     b88:	000d0efb 	strdeq	r0, [sp], -fp
     b8c:	01010101 	tsteq	r1, r1, lsl #2
     b90:	01000000 	mrseq	r0, (UNDEF: 0)
     b94:	63010000 	movwvs	r0, #4096	; 0x1000
     b98:	30343173 	eorscc	r3, r4, r3, ror r1
     b9c:	72732d65 	rsbsvc	r2, r3, #6464	; 0x1940
     ba0:	752f0063 	strvc	r0, [pc, #-99]!	; b45 <_start-0x74bb>
     ba4:	692f7273 	stmdbvs	pc!, {r0, r1, r4, r5, r6, r9, ip, sp, lr}	; <UNPREDICTABLE>
     ba8:	756c636e 	strbvc	r6, [ip, #-878]!	; 0xfffffc92
     bac:	6e2f6564 	cfsh64vs	mvdx6, mvdx15, #52
     bb0:	696c7765 	stmdbvs	ip!, {r0, r2, r5, r6, r8, r9, sl, ip, sp, lr}^
     bb4:	79732f62 	ldmdbvc	r3!, {r1, r5, r6, r8, r9, sl, fp, sp}^
     bb8:	752f0073 	strvc	r0, [pc, #-115]!	; b4d <_start-0x74b3>
     bbc:	6c2f7273 	sfmvs	f7, 4, [pc], #-460	; 9f8 <_start-0x7608>
     bc0:	672f6269 	strvs	r6, [pc, -r9, ror #4]!
     bc4:	612f6363 			; <UNDEFINED> instruction: 0x612f6363
     bc8:	6e2d6d72 	mcrvs	13, 1, r6, cr13, cr2, {3}
     bcc:	2d656e6f 	stclcs	14, cr6, [r5, #-444]!	; 0xfffffe44
     bd0:	69626165 	stmdbvs	r2!, {r0, r2, r5, r6, r8, sp, lr}^
     bd4:	332e362f 			; <UNDEFINED> instruction: 0x332e362f
     bd8:	692f312e 	stmdbvs	pc!, {r1, r2, r3, r5, r8, ip, sp}	; <UNPREDICTABLE>
     bdc:	756c636e 	strbvc	r6, [ip, #-878]!	; 0xfffffc92
     be0:	2f006564 	svccs	0x00006564
     be4:	656d6f68 	strbvs	r6, [sp, #-3944]!	; 0xfffff098
     be8:	6573752f 	ldrbvs	r7, [r3, #-1327]!	; 0xfffffad1
     bec:	65442f72 	strbvs	r2, [r4, #-3954]	; 0xfffff08e
     bf0:	53432f76 	movtpl	r2, #16246	; 0x3f76
     bf4:	45303431 	ldrmi	r3, [r0, #-1073]!	; 0xfffffbcf
     bf8:	62696c2f 	rsbvs	r6, r9, #12032	; 0x2f00
     bfc:	00006970 	andeq	r6, r0, r0, ror r9
     c00:	656d6974 	strbvs	r6, [sp, #-2420]!	; 0xfffff68c
     c04:	00632e72 	rsbeq	r2, r3, r2, ror lr
     c08:	6c000001 	stcvs	0, cr0, [r0], {1}
     c0c:	2e6b636f 	cdpcs	3, 6, cr6, cr11, cr15, {3}
     c10:	00020068 	andeq	r0, r2, r8, rrx
     c14:	79745f00 	ldmdbvc	r4!, {r8, r9, sl, fp, ip, lr}^
     c18:	2e736570 	mrccs	5, 3, r6, cr3, cr0, {3}
     c1c:	00020068 	andeq	r0, r2, r8, rrx
     c20:	64747300 	ldrbtvs	r7, [r4], #-768	; 0xfffffd00
     c24:	2e666564 	cdpcs	5, 6, cr6, cr6, cr4, {3}
     c28:	00030068 	andeq	r0, r3, r8, rrx
     c2c:	65657200 	strbvs	r7, [r5, #-512]!	; 0xfffffe00
     c30:	682e746e 	stmdavs	lr!, {r1, r2, r3, r5, r6, sl, ip, sp, lr}
     c34:	00000200 	andeq	r0, r0, r0, lsl #4
     c38:	2e697072 	mcrcs	0, 3, r7, cr9, cr2, {3}
     c3c:	00040068 	andeq	r0, r4, r8, rrx
     c40:	05000000 	streq	r0, [r0, #-0]
     c44:	00923002 	addseq	r3, r2, r2
     c48:	2f131600 	svccs	0x00131600
     c4c:	2f31842d 	svccs	0x0031842d
     c50:	31324d4b 	teqcc	r2, fp, asr #26
     c54:	2f4c4b30 	svccs	0x004c4b30
     c58:	842f2f6a 	strthi	r2, [pc], #-3946	; c60 <_start-0x73a0>
     c5c:	0008022f 	andeq	r0, r8, pc, lsr #4
     c60:	014b0101 	cmpeq	fp, r1, lsl #2
     c64:	00020000 	andeq	r0, r2, r0
     c68:	00000106 	andeq	r0, r0, r6, lsl #2
     c6c:	0efb0102 	cdpeq	1, 15, cr0, cr11, cr2, {0}
     c70:	0101000d 	tsteq	r1, sp
     c74:	00000101 	andeq	r0, r0, r1, lsl #2
     c78:	00000100 	andeq	r0, r0, r0, lsl #2
     c7c:	73752f01 	cmnvc	r5, #1, 30
     c80:	72612f72 	rsbvc	r2, r1, #456	; 0x1c8
     c84:	6f6e2d6d 	svcvs	0x006e2d6d
     c88:	652d656e 	strvs	r6, [sp, #-1390]!	; 0xfffffa92
     c8c:	2f696261 	svccs	0x00696261
     c90:	6c636e69 	stclvs	14, cr6, [r3], #-420	; 0xfffffe5c
     c94:	2f656475 	svccs	0x00656475
     c98:	00737973 	rsbseq	r7, r3, r3, ror r9
     c9c:	7273752f 	rsbsvc	r7, r3, #197132288	; 0xbc00000
     ca0:	62696c2f 	rsbvs	r6, r9, #12032	; 0x2f00
     ca4:	6363672f 	cmnvs	r3, #12320768	; 0xbc0000
     ca8:	6d72612f 	ldfvse	f6, [r2, #-188]!	; 0xffffff44
     cac:	6e6f6e2d 	cdpvs	14, 6, cr6, cr15, cr13, {1}
     cb0:	61652d65 	cmnvs	r5, r5, ror #26
     cb4:	372f6962 	strcc	r6, [pc, -r2, ror #18]!
     cb8:	312e332e 			; <UNDEFINED> instruction: 0x312e332e
     cbc:	636e692f 	cmnvs	lr, #770048	; 0xbc000
     cc0:	6564756c 	strbvs	r7, [r4, #-1388]!	; 0xfffffa94
     cc4:	6f682f00 	svcvs	0x00682f00
     cc8:	652f656d 	strvs	r6, [pc, #-1389]!	; 763 <_start-0x789d>
     ccc:	656c676e 	strbvs	r6, [ip, #-1902]!	; 0xfffff892
     cd0:	6c632f72 	stclvs	15, cr2, [r3], #-456	; 0xfffffe38
     cd4:	2f737361 	svccs	0x00737361
     cd8:	34317363 	ldrtcc	r7, [r1], #-867	; 0xfffffc9d
     cdc:	322d6530 	eorcc	r6, sp, #48, 10	; 0xc000000
     ce0:	6e697730 	mcrvs	7, 3, r7, cr9, cr0, {1}
     ce4:	62696c2f 	rsbvs	r6, r9, #12032	; 0x2f00
     ce8:	2f006970 	svccs	0x00006970
     cec:	656d6f68 	strbvs	r6, [sp, #-3944]!	; 0xfffff098
     cf0:	676e652f 	strbvs	r6, [lr, -pc, lsr #10]!
     cf4:	2f72656c 	svccs	0x0072656c
     cf8:	73616c63 	cmnvc	r1, #25344	; 0x6300
     cfc:	73632f73 	cmnvc	r3, #460	; 0x1cc
     d00:	65303431 	ldrvs	r3, [r0, #-1073]!	; 0xfffffbcf
     d04:	7730322d 	ldrvc	r3, [r0, -sp, lsr #4]!
     d08:	6c2f6e69 	stcvs	14, cr6, [pc], #-420	; b6c <_start-0x7494>
     d0c:	69706269 	ldmdbvs	r0!, {r0, r3, r5, r6, r9, sp, lr}^
     d10:	3173632f 	cmncc	r3, pc, lsr #6
     d14:	2d653034 	stclcs	0, cr3, [r5, #-208]!	; 0xffffff30
     d18:	00637273 	rsbeq	r7, r3, r3, ror r2
     d1c:	72617500 	rsbvc	r7, r1, #0, 10
     d20:	00632e74 	rsbeq	r2, r3, r4, ror lr
     d24:	6c000000 	stcvs	0, cr0, [r0], {-0}
     d28:	2e6b636f 	cdpcs	3, 6, cr6, cr11, cr15, {3}
     d2c:	00010068 	andeq	r0, r1, r8, rrx
     d30:	79745f00 	ldmdbvc	r4!, {r8, r9, sl, fp, ip, lr}^
     d34:	2e736570 	mrccs	5, 3, r6, cr3, cr0, {3}
     d38:	00010068 	andeq	r0, r1, r8, rrx
     d3c:	64747300 	ldrbtvs	r7, [r4], #-768	; 0xfffffd00
     d40:	2e666564 	cdpcs	5, 6, cr6, cr6, cr4, {3}
     d44:	00020068 	andeq	r0, r2, r8, rrx
     d48:	65657200 	strbvs	r7, [r5, #-512]!	; 0xfffffe00
     d4c:	682e746e 	stmdavs	lr!, {r1, r2, r3, r5, r6, sl, ip, sp, lr}
     d50:	00000100 	andeq	r0, r0, r0, lsl #2
     d54:	2e697072 	mcrcs	0, 3, r7, cr9, cr2, {3}
     d58:	00030068 	andeq	r0, r3, r8, rrx
     d5c:	72617500 	rsbvc	r7, r1, #0, 10
     d60:	00682e74 	rsbeq	r2, r8, r4, ror lr
     d64:	67000004 	strvs	r0, [r0, -r4]
     d68:	2e6f6970 			; <UNDEFINED> instruction: 0x2e6f6970
     d6c:	00040068 	andeq	r0, r4, r8, rrx
     d70:	05000000 	streq	r0, [r0, #-0]
     d74:	00931c02 	addseq	r1, r3, r2, lsl #24
     d78:	012d0300 			; <UNDEFINED> instruction: 0x012d0300
     d7c:	0b038367 	bleq	e1b20 <__bss_end__+0xd7b90>
     d80:	6867352e 	stmdavs	r7!, {r1, r2, r3, r5, r8, sl, ip, sp}^
     d84:	0c036835 	stceq	8, cr6, [r3], {53}	; 0x35
     d88:	696b852e 	stmdbvs	fp!, {r1, r2, r3, r5, r8, sl, pc}^
     d8c:	660c0369 	strvs	r0, [ip], -r9, ror #6
     d90:	082f676b 	stmdaeq	pc!, {r0, r1, r3, r5, r6, r8, r9, sl, sp, lr}	; <UNPREDICTABLE>
     d94:	4b683425 	blmi	1a0de30 <__bss_end__+0x1a03ea0>
     d98:	00876836 	addeq	r6, r7, r6, lsr r8
     d9c:	2f010402 	svccs	0x00010402
     da0:	00674b68 	rsbeq	r4, r7, r8, ror #22
     da4:	4b010402 	blmi	41db4 <__bss_end__+0x37e24>
     da8:	2e4c6768 	cdpcs	7, 4, cr6, cr12, cr8, {3}
     dac:	01000402 	tsteq	r0, r2, lsl #8
     db0:	00013701 	andeq	r3, r1, r1, lsl #14
     db4:	fc000200 	stc2	2, cr0, [r0], {-0}
     db8:	02000000 	andeq	r0, r0, #0
     dbc:	0d0efb01 	vstreq	d15, [lr, #-4]
     dc0:	01010100 	mrseq	r0, (UNDEF: 17)
     dc4:	00000001 	andeq	r0, r0, r1
     dc8:	01000001 	tsteq	r0, r1
     dcc:	7273752f 	rsbsvc	r7, r3, #197132288	; 0xbc00000
     dd0:	6d72612f 	ldfvse	f6, [r2, #-188]!	; 0xffffff44
     dd4:	6e6f6e2d 	cdpvs	14, 6, cr6, cr15, cr13, {1}
     dd8:	61652d65 	cmnvs	r5, r5, ror #26
     ddc:	692f6962 	stmdbvs	pc!, {r1, r5, r6, r8, fp, sp, lr}	; <UNPREDICTABLE>
     de0:	756c636e 	strbvc	r6, [ip, #-878]!	; 0xfffffc92
     de4:	732f6564 			; <UNDEFINED> instruction: 0x732f6564
     de8:	2f007379 	svccs	0x00007379
     dec:	2f727375 	svccs	0x00727375
     df0:	2f62696c 	svccs	0x0062696c
     df4:	2f636367 	svccs	0x00636367
     df8:	2d6d7261 	sfmcs	f7, 2, [sp, #-388]!	; 0xfffffe7c
     dfc:	656e6f6e 	strbvs	r6, [lr, #-3950]!	; 0xfffff092
     e00:	6261652d 	rsbvs	r6, r1, #188743680	; 0xb400000
     e04:	2e372f69 	cdpcs	15, 3, cr2, cr7, cr9, {3}
     e08:	2f312e33 	svccs	0x00312e33
     e0c:	6c636e69 	stclvs	14, cr6, [r3], #-420	; 0xfffffe5c
     e10:	00656475 	rsbeq	r6, r5, r5, ror r4
     e14:	6d6f682f 	stclvs	8, cr6, [pc, #-188]!	; d60 <_start-0x72a0>
     e18:	6e652f65 	cdpvs	15, 6, cr2, cr5, cr5, {3}
     e1c:	72656c67 	rsbvc	r6, r5, #26368	; 0x6700
     e20:	616c632f 	cmnvs	ip, pc, lsr #6
     e24:	632f7373 			; <UNDEFINED> instruction: 0x632f7373
     e28:	30343173 	eorscc	r3, r4, r3, ror r1
     e2c:	30322d65 	eorscc	r2, r2, r5, ror #26
     e30:	2f6e6977 	svccs	0x006e6977
     e34:	7062696c 	rsbvc	r6, r2, ip, ror #18
     e38:	682f0069 	stmdavs	pc!, {r0, r3, r5, r6}	; <UNPREDICTABLE>
     e3c:	2f656d6f 	svccs	0x00656d6f
     e40:	6c676e65 	stclvs	14, cr6, [r7], #-404	; 0xfffffe6c
     e44:	632f7265 			; <UNDEFINED> instruction: 0x632f7265
     e48:	7373616c 	cmnvc	r3, #108, 2
     e4c:	3173632f 	cmncc	r3, pc, lsr #6
     e50:	2d653034 	stclcs	0, cr3, [r5, #-208]!	; 0xffffff30
     e54:	69773032 	ldmdbvs	r7!, {r1, r4, r5, ip, sp}^
     e58:	696c2f6e 	stmdbvs	ip!, {r1, r2, r3, r5, r6, r8, r9, sl, fp, sp}^
     e5c:	2f697062 	svccs	0x00697062
     e60:	34317363 	ldrtcc	r7, [r1], #-867	; 0xfffffc9d
     e64:	732d6530 			; <UNDEFINED> instruction: 0x732d6530
     e68:	00006372 	andeq	r6, r0, r2, ror r3
     e6c:	6f697067 	svcvs	0x00697067
     e70:	0000632e 	andeq	r6, r0, lr, lsr #6
     e74:	6f6c0000 	svcvs	0x006c0000
     e78:	682e6b63 	stmdavs	lr!, {r0, r1, r5, r6, r8, r9, fp, sp, lr}
     e7c:	00000100 	andeq	r0, r0, r0, lsl #2
     e80:	7079745f 	rsbsvc	r7, r9, pc, asr r4
     e84:	682e7365 	stmdavs	lr!, {r0, r2, r5, r6, r8, r9, ip, sp, lr}
     e88:	00000100 	andeq	r0, r0, r0, lsl #2
     e8c:	64647473 	strbtvs	r7, [r4], #-1139	; 0xfffffb8d
     e90:	682e6665 	stmdavs	lr!, {r0, r2, r5, r6, r9, sl, sp, lr}
     e94:	00000200 	andeq	r0, r0, r0, lsl #4
     e98:	6e656572 	mcrvs	5, 3, r6, cr5, cr2, {3}
     e9c:	00682e74 	rsbeq	r2, r8, r4, ror lr
     ea0:	72000001 	andvc	r0, r0, #1
     ea4:	682e6970 	stmdavs	lr!, {r4, r5, r6, r8, fp, sp, lr}
     ea8:	00000300 	andeq	r0, r0, r0, lsl #6
     eac:	6f697067 	svcvs	0x00697067
     eb0:	0400682e 	streq	r6, [r0], #-2094	; 0xfffff7d2
     eb4:	00000000 	andeq	r0, r0, r0
     eb8:	947c0205 	ldrbtls	r0, [ip], #-517	; 0xfffffdfb
     ebc:	27030000 	strcs	r0, [r3, -r0]
     ec0:	474c1301 	strbmi	r1, [ip, -r1, lsl #6]
     ec4:	4b68f44f 	blmi	1a3e008 <__bss_end__+0x1a34078>
     ec8:	2f4c674c 	svccs	0x004c674c
     ecc:	4913314b 	ldmdbmi	r3, {r0, r1, r3, r6, r8, ip, sp}
     ed0:	134d8331 	movtne	r8, #54065	; 0xd331
     ed4:	4d833149 	stfmis	f3, [r3, #292]	; 0x124
     ed8:	2f314b2f 	svccs	0x00314b2f
     edc:	4f2b2f4d 	svcmi	0x002b2f4d
     ee0:	2f324913 	svccs	0x00324913
     ee4:	02322a9f 	eorseq	r2, r2, #651264	; 0x9f000
     ee8:	01010004 	tsteq	r1, r4
     eec:	00000166 	andeq	r0, r0, r6, ror #2
     ef0:	014b0002 	cmpeq	fp, r2
     ef4:	01020000 	mrseq	r0, (UNDEF: 2)
     ef8:	000d0efb 	strdeq	r0, [sp], -fp
     efc:	01010101 	tsteq	r1, r1, lsl #2
     f00:	01000000 	mrseq	r0, (UNDEF: 0)
     f04:	63010000 	movwvs	r0, #4096	; 0x1000
     f08:	30343173 	eorscc	r3, r4, r3, ror r1
     f0c:	72732d65 	rsbsvc	r2, r3, #6464	; 0x1940
     f10:	752f0063 	strvc	r0, [pc, #-99]!	; eb5 <_start-0x714b>
     f14:	6c2f7273 	sfmvs	f7, 4, [pc], #-460	; d50 <_start-0x72b0>
     f18:	672f6269 	strvs	r6, [pc, -r9, ror #4]!
     f1c:	612f6363 			; <UNDEFINED> instruction: 0x612f6363
     f20:	6e2d6d72 	mcrvs	13, 1, r6, cr13, cr2, {3}
     f24:	2d656e6f 	stclcs	14, cr6, [r5, #-444]!	; 0xfffffe44
     f28:	69626165 	stmdbvs	r2!, {r0, r2, r5, r6, r8, sp, lr}^
     f2c:	332e362f 			; <UNDEFINED> instruction: 0x332e362f
     f30:	692f312e 	stmdbvs	pc!, {r1, r2, r3, r5, r8, ip, sp}	; <UNPREDICTABLE>
     f34:	756c636e 	strbvc	r6, [ip, #-878]!	; 0xfffffc92
     f38:	2f006564 	svccs	0x00006564
     f3c:	2f727375 	svccs	0x00727375
     f40:	6c636e69 	stclvs	14, cr6, [r3], #-420	; 0xfffffe5c
     f44:	2f656475 	svccs	0x00656475
     f48:	6c77656e 	cfldr64vs	mvdx6, [r7], #-440	; 0xfffffe48
     f4c:	732f6269 			; <UNDEFINED> instruction: 0x732f6269
     f50:	2f007379 	svccs	0x00007379
     f54:	656d6f68 	strbvs	r6, [sp, #-3944]!	; 0xfffff098
     f58:	6573752f 	ldrbvs	r7, [r3, #-1327]!	; 0xfffffad1
     f5c:	65442f72 	strbvs	r2, [r4, #-3954]	; 0xfffff08e
     f60:	53432f76 	movtpl	r2, #16246	; 0x3f76
     f64:	45303431 	ldrmi	r3, [r0, #-1073]!	; 0xfffffbcf
     f68:	62696c2f 	rsbvs	r6, r9, #12032	; 0x2f00
     f6c:	2f006970 	svccs	0x00006970
     f70:	656d6f68 	strbvs	r6, [sp, #-3944]!	; 0xfffff098
     f74:	6573752f 	ldrbvs	r7, [r3, #-1327]!	; 0xfffffad1
     f78:	65442f72 	strbvs	r2, [r4, #-3954]	; 0xfffff08e
     f7c:	53432f76 	movtpl	r2, #16246	; 0x3f76
     f80:	45303431 	ldrmi	r3, [r0, #-1073]!	; 0xfffffbcf
     f84:	62696c2f 	rsbvs	r6, r9, #12032	; 0x2f00
     f88:	632f6970 			; <UNDEFINED> instruction: 0x632f6970
     f8c:	30343173 	eorscc	r3, r4, r3, ror r1
     f90:	72732d65 	rsbsvc	r2, r3, #6464	; 0x1940
     f94:	752f0063 	strvc	r0, [pc, #-99]!	; f39 <_start-0x70c7>
     f98:	692f7273 	stmdbvs	pc!, {r0, r1, r4, r5, r6, r9, ip, sp, lr}	; <UNPREDICTABLE>
     f9c:	756c636e 	strbvc	r6, [ip, #-878]!	; 0xfffffc92
     fa0:	6e2f6564 	cfsh64vs	mvdx6, mvdx15, #52
     fa4:	696c7765 	stmdbvs	ip!, {r0, r2, r5, r6, r8, r9, sl, ip, sp, lr}^
     fa8:	63000062 	movwvs	r0, #98	; 0x62
     fac:	72746e6f 	rsbsvc	r6, r4, #1776	; 0x6f0
     fb0:	622d6c6f 	eorvs	r6, sp, #28416	; 0x6f00
     fb4:	6b636f6c 	blvs	18dcd6c <__bss_end__+0x18d2ddc>
     fb8:	0100632e 	tsteq	r0, lr, lsr #6
     fbc:	74730000 	ldrbtvc	r0, [r3], #-0
     fc0:	746e6964 	strbtvc	r6, [lr], #-2404	; 0xfffff69c
     fc4:	6363672d 	cmnvs	r3, #11796480	; 0xb40000
     fc8:	0200682e 	andeq	r6, r0, #3014656	; 0x2e0000
     fcc:	6f6c0000 	svcvs	0x006c0000
     fd0:	682e6b63 	stmdavs	lr!, {r0, r1, r5, r6, r8, r9, fp, sp, lr}
     fd4:	00000300 	andeq	r0, r0, r0, lsl #6
     fd8:	7079745f 	rsbsvc	r7, r9, pc, asr r4
     fdc:	682e7365 	stmdavs	lr!, {r0, r2, r5, r6, r8, r9, ip, sp, lr}
     fe0:	00000300 	andeq	r0, r0, r0, lsl #6
     fe4:	64647473 	strbtvs	r7, [r4], #-1139	; 0xfffffb8d
     fe8:	682e6665 	stmdavs	lr!, {r0, r2, r5, r6, r9, sl, sp, lr}
     fec:	00000200 	andeq	r0, r0, r0, lsl #4
     ff0:	6e656572 	mcrvs	5, 3, r6, cr5, cr2, {3}
     ff4:	00682e74 	rsbeq	r2, r8, r4, ror lr
     ff8:	72000003 	andvc	r0, r0, #3
     ffc:	682e6970 	stmdavs	lr!, {r4, r5, r6, r8, fp, sp, lr}
    1000:	00000400 	andeq	r0, r0, r0, lsl #8
    1004:	752d7773 	strvc	r7, [sp, #-1907]!	; 0xfffff88d
    1008:	2e747261 	cdpcs	2, 7, cr7, cr4, cr1, {3}
    100c:	00010068 	andeq	r0, r1, r8, rrx
    1010:	63796300 	cmnvs	r9, #0, 6
    1014:	752d656c 	strvc	r6, [sp, #-1388]!	; 0xfffffa94
    1018:	2e6c6974 			; <UNDEFINED> instruction: 0x2e6c6974
    101c:	00050068 	andeq	r0, r5, r8, rrx
    1020:	6e6f6300 	cdpvs	3, 6, cr6, cr15, cr0, {0}
    1024:	6c6f7274 	sfmvs	f7, 2, [pc], #-464	; e5c <_start-0x71a4>
    1028:	6f6c622d 	svcvs	0x006c622d
    102c:	682e6b63 	stmdavs	lr!, {r0, r1, r5, r6, r8, r9, fp, sp, lr}
    1030:	00000100 	andeq	r0, r0, r0, lsl #2
    1034:	69727473 	ldmdbvs	r2!, {r0, r1, r4, r5, r6, sl, ip, sp, lr}^
    1038:	682e676e 	stmdavs	lr!, {r1, r2, r3, r5, r6, r8, r9, sl, sp, lr}
    103c:	00000600 	andeq	r0, r0, r0, lsl #12
    1040:	02050000 	andeq	r0, r5, #0
    1044:	0000959c 	muleq	r0, ip, r5
    1048:	68833016 	stmvs	r3, {r1, r2, r4, ip, sp}
    104c:	2fa0144c 	svccs	0x00a0144c
    1050:	0006022c 	andeq	r0, r6, ip, lsr #4
    1054:	00ca0101 	sbceq	r0, sl, r1, lsl #2
    1058:	00020000 	andeq	r0, r2, r0
    105c:	000000b2 	strheq	r0, [r0], -r2
    1060:	0efb0102 	cdpeq	1, 15, cr0, cr11, cr2, {0}
    1064:	0101000d 	tsteq	r1, sp
    1068:	00000101 	andeq	r0, r0, r1, lsl #2
    106c:	00000100 	andeq	r0, r0, r0, lsl #2
    1070:	62696c01 	rsbvs	r6, r9, #256	; 0x100
    1074:	752f0063 	strvc	r0, [pc, #-99]!	; 1019 <_start-0x6fe7>
    1078:	6c2f7273 	sfmvs	f7, 4, [pc], #-460	; eb4 <_start-0x714c>
    107c:	672f6269 	strvs	r6, [pc, -r9, ror #4]!
    1080:	612f6363 			; <UNDEFINED> instruction: 0x612f6363
    1084:	6e2d6d72 	mcrvs	13, 1, r6, cr13, cr2, {3}
    1088:	2d656e6f 	stclcs	14, cr6, [r5, #-444]!	; 0xfffffe44
    108c:	69626165 	stmdbvs	r2!, {r0, r2, r5, r6, r8, sp, lr}^
    1090:	332e362f 			; <UNDEFINED> instruction: 0x332e362f
    1094:	692f312e 	stmdbvs	pc!, {r1, r2, r3, r5, r8, ip, sp}	; <UNPREDICTABLE>
    1098:	756c636e 	strbvc	r6, [ip, #-878]!	; 0xfffffc92
    109c:	2f006564 	svccs	0x00006564
    10a0:	2f727375 	svccs	0x00727375
    10a4:	6c636e69 	stclvs	14, cr6, [r3], #-420	; 0xfffffe5c
    10a8:	2f656475 	svccs	0x00656475
    10ac:	6c77656e 	cfldr64vs	mvdx6, [r7], #-440	; 0xfffffe48
    10b0:	732f6269 			; <UNDEFINED> instruction: 0x732f6269
    10b4:	2f007379 	svccs	0x00007379
    10b8:	2f727375 	svccs	0x00727375
    10bc:	6c636e69 	stclvs	14, cr6, [r3], #-420	; 0xfffffe5c
    10c0:	2f656475 	svccs	0x00656475
    10c4:	6c77656e 	cfldr64vs	mvdx6, [r7], #-440	; 0xfffffe48
    10c8:	00006269 	andeq	r6, r0, r9, ror #4
    10cc:	736d656d 	cmnvc	sp, #457179136	; 0x1b400000
    10d0:	632e7465 			; <UNDEFINED> instruction: 0x632e7465
    10d4:	00000100 	andeq	r0, r0, r0, lsl #2
    10d8:	64647473 	strbtvs	r7, [r4], #-1139	; 0xfffffb8d
    10dc:	682e6665 	stmdavs	lr!, {r0, r2, r5, r6, r9, sl, sp, lr}
    10e0:	00000200 	andeq	r0, r0, r0, lsl #4
    10e4:	6b636f6c 	blvs	18dce9c <__bss_end__+0x18d2f0c>
    10e8:	0300682e 	movweq	r6, #2094	; 0x82e
    10ec:	745f0000 	ldrbvc	r0, [pc], #-0	; 10f4 <_start-0x6f0c>
    10f0:	73657079 	cmnvc	r5, #121	; 0x79
    10f4:	0300682e 	movweq	r6, #2094	; 0x82e
    10f8:	65720000 	ldrbvs	r0, [r2, #-0]!
    10fc:	2e746e65 	cdpcs	14, 7, cr6, cr4, cr5, {3}
    1100:	00030068 	andeq	r0, r3, r8, rrx
    1104:	72747300 	rsbsvc	r7, r4, #0, 6
    1108:	2e676e69 	cdpcs	14, 6, cr6, cr7, cr9, {3}
    110c:	00040068 	andeq	r0, r4, r8, rrx
    1110:	05000000 	streq	r0, [r0, #-0]
    1114:	0095ec02 	addseq	lr, r5, r2, lsl #24
    1118:	4c131400 	cfldrsmi	mvf1, [r3], {-0}
    111c:	024d492f 	subeq	r4, sp, #770048	; 0xbc000
    1120:	01010002 	tsteq	r1, r2

Disassembly of section .debug_str:

00000000 <.debug_str>:
       0:	6f73645f 	svcvs	0x0073645f
       4:	6e61685f 	mcrvs	8, 3, r6, cr1, cr15, {2}
       8:	00656c64 	rsbeq	r6, r5, r4, ror #24
       c:	4c525443 	cfldrdmi	mvd5, [r2], {67}	; 0x43
      10:	00435f34 	subeq	r5, r3, r4, lsr pc
      14:	454d4954 	strbmi	r4, [sp, #-2388]	; 0xfffff6ac
      18:	4d415453 	cfstrdmi	mvd5, [r1, #-332]	; 0xfffffeb4
      1c:	525f3050 	subspl	r3, pc, #80	; 0x50
      20:	47004745 	strmi	r4, [r0, -r5, asr #14]
      24:	4320554e 			; <UNDEFINED> instruction: 0x4320554e
      28:	36203939 			; <UNDEFINED> instruction: 0x36203939
      2c:	312e332e 			; <UNDEFINED> instruction: 0x312e332e
      30:	31303220 	teqcc	r0, r0, lsr #4
      34:	32363037 	eorscc	r3, r6, #55	; 0x37
      38:	6d2d2030 	stcvs	0, cr2, [sp, #-192]!	; 0xffffff40
      3c:	3d757063 	ldclcc	0, cr7, [r5, #-396]!	; 0xfffffe74
      40:	316d7261 	cmncc	sp, r1, ror #4
      44:	6a363731 	bvs	d8dd10 <__bss_end__+0xd83d80>
      48:	732d667a 			; <UNDEFINED> instruction: 0x732d667a
      4c:	746d2d20 	strbtvc	r2, [sp], #-3360	; 0xfffff2e0
      50:	3d656e75 	stclcc	14, cr6, [r5, #-468]!	; 0xfffffe2c
      54:	316d7261 	cmncc	sp, r1, ror #4
      58:	6a363731 	bvs	d8dd24 <__bss_end__+0xd83d94>
      5c:	732d667a 			; <UNDEFINED> instruction: 0x732d667a
      60:	67672d20 	strbvs	r2, [r7, -r0, lsr #26]!
      64:	2d206264 	sfmcs	f6, 4, [r0, #-400]!	; 0xfffffe70
      68:	2d20674f 	stccs	7, cr6, [r0, #-316]!	; 0xfffffec4
      6c:	3d647473 	cfstrdcc	mvd7, [r4, #-460]!	; 0xfffffe34
      70:	39756e67 	ldmdbcc	r5!, {r0, r1, r2, r5, r6, r9, sl, fp, sp, lr}^
      74:	662d2039 			; <UNDEFINED> instruction: 0x662d2039
      78:	65657266 	strbvs	r7, [r5, #-614]!	; 0xfffffd9a
      7c:	6e617473 	mcrvs	4, 3, r7, cr1, cr3, {3}
      80:	676e6964 	strbvs	r6, [lr, -r4, ror #18]!
      84:	61662d20 	cmnvs	r6, r0, lsr #26
      88:	6e67696c 	vnmulvs.f16	s13, s14, s25	; <UNPREDICTABLE>
      8c:	6e75662d 	cdpvs	6, 7, cr6, cr5, cr13, {1}
      90:	6f697463 	svcvs	0x00697463
      94:	343d736e 	ldrtcc	r7, [sp], #-878	; 0xfffffc92
      98:	444c5800 	strbmi	r5, [ip], #-2048	; 0xfffff800
      9c:	49425f41 	stmdbmi	r2, {r0, r6, r8, r9, sl, fp, ip, lr}^
      a0:	53414d54 	movtpl	r4, #7508	; 0x1d54
      a4:	735f004b 	cmpvc	pc, #75	; 0x4b
      a8:	00657a69 	rsbeq	r7, r5, r9, ror #20
      ac:	4f464946 	svcmi	0x00464946
      b0:	5254435f 	subspl	r4, r4, #2080374785	; 0x7c000001
      b4:	6c00314c 	stfvss	f3, [r0], {76}	; 0x4c
      b8:	64366d73 	ldrtvs	r6, [r6], #-3443	; 0xfffff28d
      bc:	5f333373 	svcpl	0x00333373
      c0:	68333338 	ldmdavs	r3!, {r3, r4, r5, r8, r9, ip, sp}
      c4:	4946007a 	stmdbmi	r6, {r1, r3, r4, r5, r6}^
      c8:	435f4f46 	cmpmi	pc, #280	; 0x118
      cc:	334c5254 	movtcc	r5, #49748	; 0xc254
      d0:	61725f00 	cmnvs	r2, r0, lsl #30
      d4:	3834646e 	ldmdacc	r4!, {r1, r2, r3, r5, r6, sl, sp, lr}
      d8:	46494600 	strbmi	r4, [r9], -r0, lsl #12
      dc:	54435f4f 	strbpl	r5, [r3], #-3919	; 0xfffff0b1
      e0:	00354c52 	eorseq	r4, r5, r2, asr ip
      e4:	4c525443 	cfldrdmi	mvd5, [r2], {67}	; 0x43
      e8:	4c585f39 	mrrcmi	15, 3, r5, r8, cr9
      ec:	6d655f00 	stclvs	15, cr5, [r5, #-0]
      f0:	65677265 	strbvs	r7, [r7, #-613]!	; 0xfffffd9b
      f4:	0079636e 	rsbseq	r6, r9, lr, ror #6
      f8:	366d736c 	strbtcc	r7, [sp], -ip, ror #6
      fc:	33337364 	teqcc	r3, #100, 6	; 0x90000001
     100:	745f675f 	ldrbvc	r6, [pc], #-1887	; 108 <_start-0x7ef8>
     104:	5f676d00 	svcpl	0x00676d00
     108:	6c616373 	stclvs	3, cr6, [r1], #-460	; 0xfffffe34
     10c:	6e006465 	cdpvs	4, 0, cr6, cr0, cr5, {3}
     110:	616d746f 	cmnvs	sp, pc, ror #8
     114:	75006e69 	strvc	r6, [r0, #-3689]	; 0xfffff197
     118:	5f747261 	svcpl	0x00747261
     11c:	74696e69 	strbtvc	r6, [r9], #-3689	; 0xfffff197
     120:	6d736c00 	ldclvs	12, cr6, [r3, #-0]
     124:	33736436 	cmncc	r3, #905969664	; 0x36000000
     128:	67385f33 			; <UNDEFINED> instruction: 0x67385f33
     12c:	63775f00 	cmnvs	r7, #0, 30
     130:	6d6f7472 	cfstrdvs	mvd7, [pc, #-456]!	; ffffff70 <__bss_end__+0xffff5fe0>
     134:	74735f62 	ldrbtvc	r5, [r3], #-3938	; 0xfffff09e
     138:	00657461 	rsbeq	r7, r5, r1, ror #8
     13c:	7363775f 	cmnvc	r3, #24903680	; 0x17c0000
     140:	6d6f7472 	cfstrdvs	mvd7, [pc, #-456]!	; ffffff80 <__bss_end__+0xffff5ff0>
     144:	735f7362 	cmpvc	pc, #-2013265919	; 0x88000001
     148:	65746174 	ldrbvs	r6, [r4, #-372]!	; 0xfffffe8c
     14c:	6e6f6c00 	cdpvs	12, 6, cr6, cr15, cr0, {0}
     150:	6f6c2067 	svcvs	0x006c2067
     154:	7520676e 	strvc	r6, [r0, #-1902]!	; 0xfffff892
     158:	6769736e 	strbvs	r7, [r9, -lr, ror #6]!
     15c:	2064656e 	rsbcs	r6, r4, lr, ror #10
     160:	00746e69 	rsbseq	r6, r4, r9, ror #28
     164:	5f756d69 	svcpl	0x00756d69
     168:	6e5f6472 	mrcvs	4, 2, r6, cr15, cr2, {3}
     16c:	626c5f00 	rsbvs	r5, ip, #0, 30
     170:	7a697366 	bvc	1a5cf10 <__bss_end__+0x1a52f80>
     174:	32690065 	rsbcc	r0, r9, #101	; 0x65
     178:	72775f63 	rsbsvc	r5, r7, #396	; 0x18c
     17c:	00657469 	rsbeq	r7, r5, r9, ror #8
     180:	42414e45 	submi	r4, r1, #1104	; 0x450
     184:	425f454c 	subsmi	r4, pc, #76, 10	; 0x13000000
     188:	5f005544 	svcpl	0x00005544
     18c:	7472626d 	ldrbtvc	r6, [r2], #-621	; 0xfffffd93
     190:	5f63776f 	svcpl	0x0063776f
     194:	74617473 	strbtvc	r7, [r1], #-1139	; 0xfffffb8d
     198:	676d0065 	strbvs	r0, [sp, -r5, rrx]!
     19c:	7761725f 			; <UNDEFINED> instruction: 0x7761725f
     1a0:	5f6f6400 	svcpl	0x006f6400
     1a4:	65636361 	strbvs	r6, [r3, #-865]!	; 0xfffffc9f
     1a8:	65745f6c 	ldrbvs	r5, [r4, #-3948]!	; 0xfffff094
     1ac:	5f007473 	svcpl	0x00007473
     1b0:	6f746377 	svcvs	0x00746377
     1b4:	735f626d 	cmpvc	pc, #-805306362	; 0xd0000006
     1b8:	65746174 	ldrbvs	r6, [r4, #-372]!	; 0xfffffe8c
     1bc:	745f5f00 	ldrbvc	r5, [pc], #-3840	; 1c4 <_start-0x7e3c>
     1c0:	65735f6d 	ldrbvs	r5, [r3, #-3949]!	; 0xfffff093
     1c4:	6f6c0063 	svcvs	0x006c0063
     1c8:	6c20676e 	stcvs	7, cr6, [r0], #-440	; 0xfffffe48
     1cc:	20676e6f 	rsbcs	r6, r7, pc, ror #28
     1d0:	00746e69 	rsbseq	r6, r4, r9, ror #28
     1d4:	5f54554f 	svcpl	0x0054554f
     1d8:	504d4554 	subpl	r4, sp, r4, asr r5
     1dc:	4300485f 	movwmi	r4, #2143	; 0x85f
     1e0:	314c5254 	cmpcc	ip, r4, asr r2
     1e4:	004c585f 	subeq	r5, ip, pc, asr r8
     1e8:	5f54554f 	svcpl	0x0054554f
     1ec:	504d4554 	subpl	r4, sp, r4, asr r5
     1f0:	5f004c5f 	svcpl	0x00004c5f
     1f4:	66756275 			; <UNDEFINED> instruction: 0x66756275
     1f8:	31444d00 	cmpcc	r4, r0, lsl #26
     1fc:	4746435f 	smlsldmi	r4, r6, pc, r3	; <UNPREDICTABLE>
     200:	61625f00 	cmnvs	r2, r0, lsl #30
     204:	5f006573 	svcpl	0x00006573
     208:	5f6d745f 	svcpl	0x006d745f
     20c:	72756f68 	rsbsvc	r6, r5, #104, 30	; 0x1a0
     210:	735f5f00 	cmpvc	pc, #0, 30
     214:	6f5f0066 	svcvs	0x005f0066
     218:	78655f6e 	stmdavc	r5!, {r1, r2, r3, r5, r6, r8, r9, sl, fp, ip, lr}^
     21c:	615f7469 	cmpvs	pc, r9, ror #8
     220:	00736772 	rsbseq	r6, r3, r2, ror r7
     224:	6f6f635f 	svcvs	0x006f635f
     228:	0065696b 	rsbeq	r6, r5, fp, ror #18
     22c:	67735f5f 			; <UNDEFINED> instruction: 0x67735f5f
     230:	0065756c 	rsbeq	r7, r5, ip, ror #10
     234:	4c525443 	cfldrdmi	mvd5, [r2], {67}	; 0x43
     238:	4c585f38 	mrrcmi	15, 3, r5, r8, cr8
     23c:	45545300 	ldrbmi	r5, [r4, #-768]	; 0xfffffd00
     240:	49545f50 	ldmdbmi	r4, {r4, r6, r8, r9, sl, fp, ip, lr}^
     244:	5453454d 	ldrbpl	r4, [r3], #-1357	; 0xfffffab3
     248:	5f504d41 	svcpl	0x00504d41
     24c:	41540048 	cmpmi	r4, r8, asr #32
     250:	48545f50 	ldmdami	r4, {r4, r6, r8, r9, sl, fp, ip, lr}^
     254:	44365f53 	ldrtmi	r5, [r6], #-3923	; 0xfffff0ad
     258:	6c665f00 	stclvs	15, cr5, [r6], #-0
     25c:	00736761 	rsbseq	r6, r3, r1, ror #14
     260:	5f73695f 	svcpl	0x0073695f
     264:	00617863 	rsbeq	r7, r1, r3, ror #16
     268:	6474735f 	ldrbtvs	r7, [r4], #-863	; 0xfffffca1
     26c:	78006e69 	stmdavc	r0, {r0, r3, r5, r6, r9, sl, fp, sp, lr}
     270:	6d5f7a79 	vldrvs	s15, [pc, #-484]	; 94 <_start-0x7f6c>
     274:	625f006b 	subsvs	r0, pc, #107	; 0x6b
     278:	69736b6c 	ldmdbvs	r3!, {r2, r3, r5, r6, r8, r9, fp, sp, lr}^
     27c:	4f00657a 	svcmi	0x0000657a
     280:	5f585455 	svcpl	0x00585455
     284:	00475f4c 	subeq	r5, r7, ip, asr #30
     288:	746e6975 	strbtvc	r6, [lr], #-2421	; 0xfffff68b
     28c:	745f3631 	ldrbvc	r3, [pc], #-1585	; 294 <_start-0x7d6c>
     290:	5f676d00 	svcpl	0x00676d00
     294:	6c616373 	stclvs	3, cr6, [r1], #-460	; 0xfffffe34
     298:	4e490065 	cdpmi	0, 4, cr0, cr9, cr5, {3}
     29c:	435f3154 	cmpmi	pc, #84, 2
     2a0:	004c5254 	subeq	r5, ip, r4, asr r2
     2a4:	7476635f 	ldrbtvc	r6, [r6], #-863	; 0xfffffca1
     2a8:	00667562 	rsbeq	r7, r6, r2, ror #10
     2ac:	66666f5f 	uqsaxvs	r6, r6, pc	; <UNPREDICTABLE>
     2b0:	00746573 	rsbseq	r6, r4, r3, ror r5
     2b4:	44414552 	strbmi	r4, [r1], #-1362	; 0xfffffaae
     2b8:	45505f53 	ldrbmi	r5, [r0, #-3923]	; 0xfffff0ad
     2bc:	4f505f52 	svcmi	0x00505f52
     2c0:	5f004c4c 	svcpl	0x00004c4c
     2c4:	7273626d 	rsbsvc	r6, r3, #-805306362	; 0xd0000006
     2c8:	63776f74 	cmnvs	r7, #116, 30	; 0x1d0
     2cc:	74735f73 	ldrbtvc	r5, [r3], #-3955	; 0xfffff08d
     2d0:	00657461 	rsbeq	r7, r5, r1, ror #8
     2d4:	5a54554f 	bpl	1515818 <__bss_end__+0x150b888>
     2d8:	475f4c5f 			; <UNDEFINED> instruction: 0x475f4c5f
     2dc:	626d5f00 	rsbvs	r5, sp, #0, 30
     2e0:	6e656c72 	mcrvs	12, 3, r6, cr5, cr2, {3}
     2e4:	6174735f 	cmnvs	r4, pc, asr r3
     2e8:	5f006574 	svcpl	0x00006574
     2ec:	72616e66 	rsbvc	r6, r1, #1632	; 0x660
     2f0:	54007367 	strpl	r7, [r0], #-871	; 0xfffffc99
     2f4:	535f5041 	cmppl	pc, #65	; 0x41
     2f8:	6c004352 	stcvs	3, cr4, [r0], {82}	; 0x52
     2fc:	64366d73 	ldrtvs	r6, [r6], #-3443	; 0xfffff28d
     300:	5f333373 	svcpl	0x00333373
     304:	68383032 	ldmdavs	r8!, {r1, r4, r5, ip, sp}
     308:	554f007a 	strbpl	r0, [pc, #-122]	; 296 <_start-0x7d6a>
     30c:	485f5854 	ldmdami	pc, {r2, r4, r6, fp, ip, lr}^	; <UNPREDICTABLE>
     310:	004c585f 	subeq	r5, ip, pc, asr r8
     314:	736e665f 	cmnvc	lr, #99614720	; 0x5f00000
     318:	69735f00 	ldmdbvs	r3!, {r8, r9, sl, fp, ip, lr}^
     31c:	5f006e67 	svcpl	0x00006e67
     320:	636f6c66 	cmnvs	pc, #26112	; 0x6600
     324:	00745f6b 	rsbseq	r5, r4, fp, ror #30
     328:	6474735f 	ldrbtvs	r7, [r4], #-863	; 0xfffffca1
     32c:	00727265 	rsbseq	r7, r2, r5, ror #4
     330:	6769425f 			; <UNDEFINED> instruction: 0x6769425f
     334:	00746e69 	rsbseq	r6, r4, r9, ror #28
     338:	6d61675f 	stclvs	7, cr6, [r1, #-380]!	; 0xfffffe84
     33c:	735f616d 	cmpvc	pc, #1073741851	; 0x4000001b
     340:	676e6769 	strbvs	r6, [lr, -r9, ror #14]!
     344:	61006d61 	tstvs	r0, r1, ror #26
     348:	6c656363 	stclvs	3, cr6, [r5], #-396	; 0xfffffe74
     34c:	6c00745f 	cfstrsvs	mvf7, [r0], {95}	; 0x5f
     350:	64366d73 	ldrtvs	r6, [r6], #-3443	; 0xfffff28d
     354:	5f333373 	svcpl	0x00333373
     358:	7a683235 	bvc	1a0cc34 <__bss_end__+0x1a02ca4>
     35c:	65725f00 	ldrbvs	r5, [r2, #-3840]!	; 0xfffff100
     360:	746c7573 	strbtvc	r7, [ip], #-1395	; 0xfffffa8d
     364:	72006b5f 	andvc	r6, r0, #97280	; 0x17c00
     368:	705f6970 	subsvc	r6, pc, r0, ror r9	; <UNPREDICTABLE>
     36c:	68637475 	stmdavs	r3!, {r0, r2, r4, r5, r6, sl, ip, sp, lr}^
     370:	5f007261 	svcpl	0x00007261
     374:	006d745f 	rsbeq	r7, sp, pc, asr r4
     378:	5f633269 	svcpl	0x00633269
     37c:	74696e69 	strbtvc	r6, [r9], #-3689	; 0xfffff197
     380:	775f5f00 	ldrbvc	r5, [pc, -r0, lsl #30]
     384:	00626863 	rsbeq	r6, r2, r3, ror #16
     388:	5f697072 	svcpl	0x00697072
     38c:	65736572 	ldrbvs	r6, [r3, #-1394]!	; 0xfffffa8e
     390:	75705f74 	ldrbvc	r5, [r0, #-3956]!	; 0xfffff08c
     394:	5f006374 	svcpl	0x00006374
     398:	6f647473 	svcvs	0x00647473
     39c:	5f007475 	svcpl	0x00007475
     3a0:	6c747663 	ldclvs	6, cr7, [r4], #-396	; 0xfffffe74
     3a4:	53006e65 	movwpl	r6, #3685	; 0xe65
     3a8:	55544154 	ldrbpl	r4, [r4, #-340]	; 0xfffffeac
     3ac:	45525f53 	ldrbmi	r5, [r2, #-3923]	; 0xfffff0ad
     3b0:	665f0047 	ldrbvs	r0, [pc], -r7, asr #32
     3b4:	00656c69 	rsbeq	r6, r5, r9, ror #24
     3b8:	5954554f 	ldmdbpl	r4, {r0, r1, r2, r3, r6, r8, sl, ip, lr}^
     3bc:	585f4c5f 	ldmdapl	pc, {r0, r1, r2, r3, r4, r6, sl, fp, lr}^	; <UNPREDICTABLE>
     3c0:	4946004c 	stmdbmi	r6, {r2, r3, r6}^
     3c4:	535f4f46 	cmppl	pc, #280	; 0x118
     3c8:	55544154 	ldrbpl	r4, [r4, #-340]	; 0xfffffeac
     3cc:	46003153 			; <UNDEFINED> instruction: 0x46003153
     3d0:	5f4f4649 	svcpl	0x004f4649
     3d4:	54415453 	strbpl	r5, [r1], #-1107	; 0xfffffbad
     3d8:	00325355 	eorseq	r5, r2, r5, asr r3
     3dc:	366d736c 	strbtcc	r7, [sp], -ip, ror #6
     3e0:	33337364 	teqcc	r3, #100, 6	; 0x90000001
     3e4:	3430315f 	ldrtcc	r3, [r0], #-351	; 0xfffffea1
     3e8:	46007a68 	strmi	r7, [r0], -r8, ror #20
     3ec:	5f4f4649 	svcpl	0x004f4649
     3f0:	54415453 	strbpl	r5, [r1], #-1107	; 0xfffffbad
     3f4:	00345355 	eorseq	r5, r4, r5, asr r3
     3f8:	4c525443 	cfldrdmi	mvd5, [r2], {67}	; 0x43
     3fc:	00475f32 	subeq	r5, r7, r2, lsr pc
     400:	6f696e5f 	svcvs	0x00696e5f
     404:	65007362 	strvs	r7, [r0, #-866]	; 0xfffffc9e
     408:	63657078 	cmnvs	r5, #120	; 0x78
     40c:	00646574 	rsbeq	r6, r4, r4, ror r5
     410:	366d736c 	strbtcc	r7, [sp], -ip, ror #6
     414:	33337364 	teqcc	r3, #100, 6	; 0x90000001
     418:	6736315f 			; <UNDEFINED> instruction: 0x6736315f
     41c:	6f687300 	svcvs	0x00687300
     420:	75207472 	strvc	r7, [r0, #-1138]!	; 0xfffffb8e
     424:	6769736e 	strbvs	r7, [r9, -lr, ror #6]!
     428:	2064656e 	rsbcs	r6, r4, lr, ror #10
     42c:	00746e69 	rsbseq	r6, r4, r9, ror #28
     430:	6574615f 	ldrbvs	r6, [r4, #-351]!	; 0xfffffea1
     434:	30746978 	rsbscc	r6, r4, r8, ror r9
     438:	69735f00 	ldmdbvs	r3!, {r8, r9, sl, fp, ip, lr}^
     43c:	6c616e67 	stclvs	14, cr6, [r1], #-412	; 0xfffffe64
     440:	6675625f 			; <UNDEFINED> instruction: 0x6675625f
     444:	73615f00 	cmnvc	r1, #0, 30
     448:	6d697463 	cfstrdvs	mvd7, [r9, #-396]!	; 0xfffffe74
     44c:	75625f65 	strbvc	r5, [r2, #-3941]!	; 0xfffff09b
     450:	65640066 	strbvs	r0, [r4, #-102]!	; 0xffffff9a
     454:	61625f76 	smcvs	9718	; 0x25f6
     458:	65697272 	strbvs	r7, [r9, #-626]!	; 0xfffffd8e
     45c:	656c0072 	strbvs	r0, [ip, #-114]!	; 0xffffff8e
     460:	5f6c6167 	svcpl	0x006c6167
     464:	725f0047 	subsvc	r0, pc, #71	; 0x47
     468:	6c757365 	ldclvs	3, cr7, [r5], #-404	; 0xfffffe6c
     46c:	5f5f0074 	svcpl	0x005f0074
     470:	00686377 	rsbeq	r6, r8, r7, ror r3
     474:	55465f5f 	strbpl	r5, [r6, #-3935]	; 0xfffff0a1
     478:	4954434e 	ldmdbmi	r4, {r1, r2, r3, r6, r8, r9, lr}^
     47c:	5f5f4e4f 	svcpl	0x005f4e4f
     480:	6e697700 	cdpvs	7, 6, cr7, cr9, cr0, {0}
     484:	00745f74 	rsbseq	r5, r4, r4, ror pc
     488:	4f464946 	svcmi	0x00464946
     48c:	5254435f 	subspl	r4, r4, #2080374785	; 0x7c000001
     490:	4600324c 	strmi	r3, [r0], -ip, asr #4
     494:	5f4f4649 	svcpl	0x004f4649
     498:	4c525443 	cfldrdmi	mvd5, [r2], {67}	; 0x43
     49c:	665f0034 			; <UNDEFINED> instruction: 0x665f0034
     4a0:	7367616c 	cmnvc	r7, #108, 2
     4a4:	65640032 	strbvs	r0, [r4, #-50]!	; 0xffffffce
     4a8:	64615f76 	strbtvs	r5, [r1], #-3958	; 0xfffff08a
     4ac:	6c007264 	sfmvs	f7, 4, [r0], {100}	; 0x64
     4b0:	6c616765 	stclvs	7, cr6, [r1], #-404	; 0xfffffe6c
     4b4:	625f675f 	subsvs	r6, pc, #24903680	; 0x17c0000
     4b8:	00737469 	rsbseq	r7, r3, r9, ror #8
     4bc:	65636361 	strbvs	r6, [r3, #-865]!	; 0xfffffc9f
     4c0:	63735f6c 	cmnvs	r3, #108, 30	; 0x1b0
     4c4:	00656c61 	rsbeq	r6, r5, r1, ror #24
     4c8:	4c525443 	cfldrdmi	mvd5, [r2], {67}	; 0x43
     4cc:	00475f37 	subeq	r5, r7, r7, lsr pc
     4d0:	6d745f5f 	ldclvs	15, cr5, [r4, #-380]!	; 0xfffffe84
     4d4:	6165795f 	cmnvs	r5, pc, asr r9
     4d8:	65720072 	ldrbvs	r0, [r2, #-114]!	; 0xffffff8e
     4dc:	64644167 	strbtvs	r4, [r4], #-359	; 0xfffffe99
     4e0:	41540072 	cmpmi	r4, r2, ror r0
     4e4:	46435f50 			; <UNDEFINED> instruction: 0x46435f50
     4e8:	736c0047 	cmnvc	ip, #71	; 0x47
     4ec:	7364366d 	cmnvc	r4, #114294784	; 0x6d00000
     4f0:	685f3333 	ldmdavs	pc, {r0, r1, r4, r5, r8, r9, ip, sp}^	; <UNPREDICTABLE>
     4f4:	00745f7a 	rsbseq	r5, r4, sl, ror pc
     4f8:	616d6e5f 	cmnvs	sp, pc, asr lr
     4fc:	636f6c6c 	cmnvs	pc, #108, 24	; 0x6c00
     500:	6d736c00 	ldclvs	12, cr6, [r3, #-0]
     504:	33736436 	cmncc	r3, #905969664	; 0x36000000
     508:	67325f33 			; <UNDEFINED> instruction: 0x67325f33
     50c:	7a697300 	bvc	1a5d114 <__bss_end__+0x1a53184>
     510:	70797465 	rsbsvc	r7, r9, r5, ror #8
     514:	65740065 	ldrbvs	r0, [r4, #-101]!	; 0xffffff9b
     518:	6d5f7473 	cfldrdvs	mvd7, [pc, #-460]	; 354 <_start-0x7cac>
     51c:	6d690067 	stclvs	0, cr0, [r9, #-412]!	; 0xfffffe64
     520:	64725f75 	ldrbtvs	r5, [r2], #-3957	; 0xfffff08b
     524:	6f682f00 	svcvs	0x00682f00
     528:	752f656d 	strvc	r6, [pc, #-1389]!	; ffffffc3 <__bss_end__+0xffff6033>
     52c:	2f726573 	svccs	0x00726573
     530:	2f766544 	svccs	0x00766544
     534:	34325343 	ldrtcc	r5, [r2], #-835	; 0xfffffcbd
     538:	6c2f5830 	stcvs	8, cr5, [pc], #-192	; 480 <_start-0x7b80>
     53c:	2f736261 	svccs	0x00736261
     540:	32692d38 	rsbcc	r2, r9, #56, 26	; 0xe00
     544:	63612d63 	cmnvs	r1, #6336	; 0x18c0
     548:	2f6c6563 	svccs	0x006c6563
     54c:	65646f63 	strbvs	r6, [r4, #-3939]!	; 0xfffff09d
     550:	656e5f00 	strbvs	r5, [lr, #-3840]!	; 0xfffff100
     554:	00667478 	rsbeq	r7, r6, r8, ror r4
     558:	45455246 	strbmi	r5, [r5, #-582]	; 0xfffffdba
     55c:	4c41465f 	mcrrmi	6, 5, r4, r1, cr15
     560:	5f5f004c 	svcpl	0x005f004c
     564:	6d5f6d74 	ldclvs	13, cr6, [pc, #-464]	; 39c <_start-0x7c64>
     568:	53006e6f 	movwpl	r6, #3695	; 0xe6f
     56c:	5f504554 	svcpl	0x00504554
     570:	454d4954 	strbmi	r4, [sp, #-2388]	; 0xfffff6ac
     574:	4d415453 	cfstrdmi	mvd5, [r1, #-332]	; 0xfffffeb4
     578:	004c5f50 	subeq	r5, ip, r0, asr pc
     57c:	6574615f 	ldrbvs	r6, [r4, #-351]!	; 0xfffffea1
     580:	00746978 	rsbseq	r6, r4, r8, ror r9
     584:	366d736c 	strbtcc	r7, [sp], -ip, ror #6
     588:	33337364 	teqcc	r3, #100, 6	; 0x90000001
     58c:	6833315f 	ldmdavs	r3!, {r0, r1, r2, r3, r4, r6, r8, ip, sp}
     590:	5f5f007a 	svcpl	0x005f007a
     594:	64696473 	strbtvs	r6, [r9], #-1139	; 0xfffffb8d
     598:	74696e69 	strbtvc	r6, [r9], #-3689	; 0xfffff197
     59c:	666f5f00 	strbtvs	r5, [pc], -r0, lsl #30
     5a0:	00745f66 	rsbseq	r5, r4, r6, ror #30
     5a4:	366d736c 	strbtcc	r7, [sp], -ip, ror #6
     5a8:	33337364 	teqcc	r3, #100, 6	; 0x90000001
     5ac:	66666f5f 	uqsaxvs	r6, r6, pc	; <UNPREDICTABLE>
     5b0:	6d736c00 	ldclvs	12, cr6, [r3, #-0]
     5b4:	33736436 	cmncc	r3, #905969664	; 0x36000000
     5b8:	67345f33 			; <UNDEFINED> instruction: 0x67345f33
     5bc:	756d6900 	strbvc	r6, [sp, #-2304]!	; 0xfffff700
     5c0:	7a79785f 	bvc	1e5e744 <__bss_end__+0x1e547b4>
     5c4:	5f00745f 	svcpl	0x0000745f
     5c8:	65657266 	strbvs	r7, [r5, #-614]!	; 0xfffffd9a
     5cc:	7473696c 	ldrbtvc	r6, [r3], #-2412	; 0xfffff694
     5d0:	6d736c00 	ldclvs	12, cr6, [r3, #-0]
     5d4:	33736436 	cmncc	r3, #905969664	; 0x36000000
     5d8:	36365f33 	shasxcc	r5, r6, r3
     5dc:	7a683036 	bvc	1a0c6bc <__bss_end__+0x1a0272c>
     5e0:	4f4c5f00 	svcmi	0x004c5f00
     5e4:	525f4b43 	subspl	r4, pc, #68608	; 0x10c00
     5e8:	52554345 	subspl	r4, r5, #335544321	; 0x14000001
     5ec:	45564953 	ldrbmi	r4, [r6, #-2387]	; 0xfffff6ad
     5f0:	6100545f 	tstvs	r0, pc, asr r4
     5f4:	6c656363 	stclvs	3, cr6, [r5], #-396	; 0xfffffe74
     5f8:	696e695f 	stmdbvs	lr!, {r0, r1, r2, r3, r4, r6, r8, fp, sp, lr}^
     5fc:	554f0074 	strbpl	r0, [pc, #-116]	; 590 <_start-0x7a70>
     600:	4c5f5954 	mrrcmi	9, 5, r5, pc, cr4	; <UNPREDICTABLE>
     604:	5300475f 	movwpl	r4, #1887	; 0x75f
     608:	5f504554 	svcpl	0x00504554
     60c:	4e554f43 	cdpmi	15, 5, cr4, cr5, cr3, {2}
     610:	5f524554 	svcpl	0x00524554
     614:	6e750048 	cdpvs	0, 7, cr0, cr5, cr8, {2}
     618:	6e676973 			; <UNDEFINED> instruction: 0x6e676973
     61c:	63206465 			; <UNDEFINED> instruction: 0x63206465
     620:	00726168 	rsbseq	r6, r2, r8, ror #2
     624:	50455453 	subpl	r5, r5, r3, asr r4
     628:	554f435f 	strbpl	r4, [pc, #-863]	; 2d1 <_start-0x7d2f>
     62c:	5245544e 	subpl	r5, r5, #1308622848	; 0x4e000000
     630:	43004c5f 	movwmi	r4, #3167	; 0xc5f
     634:	364c5254 			; <UNDEFINED> instruction: 0x364c5254
     638:	6100475f 	tstvs	r0, pc, asr r7
     63c:	6c656363 	stclvs	3, cr6, [r5], #-396	; 0xfffffe74
     640:	7361685f 	cmnvc	r1, #6225920	; 0x5f0000
     644:	7461645f 	strbtvc	r6, [r1], #-1119	; 0xfffffba1
     648:	55460061 	strbpl	r0, [r6, #-97]	; 0xffffff9f
     64c:	435f434e 	cmpmi	pc, #939524097	; 0x38000001
     650:	415f4746 	cmpmi	pc, r6, asr #14
     654:	53454343 	movtpl	r4, #21315	; 0x5343
     658:	685f0053 	ldmdavs	pc, {r0, r1, r4, r6}^	; <UNPREDICTABLE>
     65c:	7272655f 	rsbsvc	r6, r2, #398458880	; 0x17c00000
     660:	73006f6e 	movwvc	r6, #3950	; 0xf6e
     664:	74726f68 	ldrbtvc	r6, [r2], #-3944	; 0xfffff098
     668:	746e6920 	strbtvc	r6, [lr], #-2336	; 0xfffff6e0
     66c:	745f5f00 	ldrbvc	r5, [pc], #-3840	; 674 <_start-0x798c>
     670:	64795f6d 	ldrbtvs	r5, [r9], #-3949	; 0xfffff093
     674:	5f007961 	svcpl	0x00007961
     678:	7562735f 	strbvc	r7, [r2, #-863]!	; 0xfffffca1
     67c:	6c630066 	stclvs	0, cr0, [r3], #-408	; 0xfffffe68
     680:	5f6e6165 	svcpl	0x006e6165
     684:	6f626572 	svcvs	0x00626572
     688:	5f00746f 	svcpl	0x0000746f
     68c:	73626f69 	cmnvc	r2, #420	; 0x1a4
     690:	465f5f00 	ldrbmi	r5, [pc], -r0, lsl #30
     694:	00454c49 	subeq	r4, r5, r9, asr #24
     698:	73626d5f 	cmnvc	r2, #6080	; 0x17c0
     69c:	65746174 	ldrbvs	r6, [r4, #-372]!	; 0xfffffe8c
     6a0:	5f00745f 	svcpl	0x0000745f
     6a4:	4946735f 	stmdbmi	r6, {r0, r1, r2, r3, r4, r6, r8, r9, ip, sp, lr}^
     6a8:	4500454c 	strmi	r4, [r0, #-1356]	; 0xfffffab4
     6ac:	4c42414e 	stfmie	f4, [r2], {78}	; 0x4e
     6b0:	4c415f45 	mcrrmi	15, 4, r5, r1, cr5
     6b4:	58415f4c 	stmdapl	r1, {r2, r3, r6, r8, r9, sl, fp, ip, lr}^
     6b8:	5f005345 	svcpl	0x00005345
     6bc:	7473626d 	ldrbtvc	r6, [r3], #-621	; 0xfffffd93
     6c0:	00657461 	rsbeq	r7, r5, r1, ror #8
     6c4:	6e61725f 	mcrvs	2, 3, r7, cr1, cr15, {2}
     6c8:	656e5f64 	strbvs	r5, [lr, #-3940]!	; 0xfffff09c
     6cc:	4f007478 	svcmi	0x00007478
     6d0:	5f595455 	svcpl	0x00595455
     6d4:	4c585f48 	mrrcmi	15, 4, r5, r8, cr8
     6d8:	4b415700 	blmi	10562e0 <__bss_end__+0x104c350>
     6dc:	50555f45 	subspl	r5, r5, r5, asr #30
     6e0:	5255445f 	subspl	r4, r5, #1593835520	; 0x5f000000
     6e4:	626d5f00 	rsbvs	r5, sp, #0, 30
     6e8:	5f6e656c 	svcpl	0x006e656c
     6ec:	74617473 	strbtvc	r7, [r1], #-1139	; 0xfffffb8d
     6f0:	695f0065 	ldmdbvs	pc, {r0, r2, r5, r6}^	; <UNPREDICTABLE>
     6f4:	5f00636e 	svcpl	0x0000636e
     6f8:	00646e69 	rsbeq	r6, r4, r9, ror #28
     6fc:	7275635f 	rsbsvc	r6, r5, #2080374785	; 0x7c000001
     700:	746e6572 	strbtvc	r6, [lr], #-1394	; 0xfffffa8e
     704:	636f6c5f 	cmnvs	pc, #24320	; 0x5f00
     708:	00656c61 	rsbeq	r6, r5, r1, ror #24
     70c:	6c635f5f 	stclvs	15, cr5, [r3], #-380	; 0xfffffe84
     710:	756e6165 	strbvc	r6, [lr, #-357]!	; 0xfffffe9b
     714:	6d5f0070 	ldclvs	0, cr0, [pc, #-448]	; 55c <_start-0x7aa4>
     718:	64777861 	ldrbtvs	r7, [r7], #-2145	; 0xfffff79f
     71c:	725f0073 	subsvc	r0, pc, #115	; 0x73
     720:	746e6565 	strbtvc	r6, [lr], #-1381	; 0xfffffa9b
     724:	54554f00 	ldrbpl	r4, [r5], #-3840	; 0xfffff100
     728:	5f485f58 	svcpl	0x00485f58
     72c:	735f0047 	cmpvc	pc, #71	; 0x47
     730:	00646565 	rsbeq	r6, r4, r5, ror #10
     734:	616c6564 	cmnvs	ip, r4, ror #10
     738:	736d5f79 	cmnvc	sp, #484	; 0x1e4
     73c:	635f5f00 	cmpvs	pc, #0, 30
     740:	746e756f 	strbtvc	r7, [lr], #-1391	; 0xfffffa91
     744:	6e697500 	cdpvs	5, 6, cr7, cr9, cr0, {0}
     748:	5f323374 	svcpl	0x00323374
     74c:	735f0074 	cmpvc	pc, #116	; 0x74
     750:	006b6565 	rsbeq	r6, fp, r5, ror #10
     754:	5f4c4156 	svcpl	0x004c4156
     758:	5f4f4857 	svcpl	0x004f4857
     75c:	495f4d41 	ldmdbmi	pc, {r0, r6, r8, sl, fp, lr}^	; <UNPREDICTABLE>
     760:	70665f00 	rsbvc	r5, r6, r0, lsl #30
     764:	745f736f 	ldrbvc	r7, [pc], #-879	; 76c <_start-0x7894>
     768:	49524f00 	ldmdbmi	r2, {r8, r9, sl, fp, lr}^
     76c:	5f544e45 	svcpl	0x00544e45
     770:	5f474643 	svcpl	0x00474643
     774:	6d690047 	stclvs	0, cr0, [r9, #-284]!	; 0xfffffee4
     778:	72775f75 	rsbsvc	r5, r7, #468	; 0x1d4
     77c:	4b415700 	blmi	1056384 <__bss_end__+0x104c3f4>
     780:	50555f45 	subspl	r5, r5, r5, asr #30
     784:	4352535f 	cmpmi	r2, #2080374785	; 0x7c000001
     788:	745f5f00 	ldrbvc	r5, [pc], #-3840	; 790 <_start-0x7870>
     78c:	696d5f6d 	stmdbvs	sp!, {r0, r2, r3, r5, r6, r8, r9, sl, fp, ip, lr}^
     790:	736c006e 	cmnvc	ip, #110	; 0x6e
     794:	7364366d 	cmnvc	r4, #114294784	; 0x6d00000
     798:	345f3333 	ldrbcc	r3, [pc], #-819	; 7a0 <_start-0x7860>
     79c:	7a683631 	bvc	1a0e068 <__bss_end__+0x1a040d8>
     7a0:	54554f00 	ldrbpl	r4, [r5], #-3840	; 0xfffff100
     7a4:	5f4c5f5a 	svcpl	0x004c5f5a
     7a8:	5f004c58 	svcpl	0x00004c58
     7ac:	79746e66 	ldmdbvc	r4!, {r1, r2, r5, r6, r9, sl, fp, sp, lr}^
     7b0:	00736570 	rsbseq	r6, r3, r0, ror r5
     7b4:	4f464946 	svcmi	0x00464946
     7b8:	4154535f 	cmpmi	r4, pc, asr r3
     7bc:	33535554 	cmpcc	r3, #84, 10	; 0x15000000
     7c0:	6d736c00 	ldclvs	12, cr6, [r3, #-0]
     7c4:	33736436 	cmncc	r3, #905969664	; 0x36000000
     7c8:	33335f33 	teqcc	r3, #51, 30	; 0xcc
     7cc:	7a683033 	bvc	1a0c8a0 <__bss_end__+0x1a02910>
     7d0:	756d5f00 	strbvc	r5, [sp, #-3840]!	; 0xfffff100
     7d4:	5f00746c 	svcpl	0x0000746c
     7d8:	74727473 	ldrbtvc	r7, [r2], #-1139	; 0xfffffb8d
     7dc:	6c5f6b6f 	mrrcvs	11, 6, r6, pc, cr15	; <UNPREDICTABLE>
     7e0:	00747361 	rsbseq	r7, r4, r1, ror #6
     7e4:	61765f5f 	cmnvs	r6, pc, asr pc
     7e8:	0065756c 	rsbeq	r7, r5, ip, ror #10
     7ec:	5a54554f 	bpl	1515d30 <__bss_end__+0x150bda0>
     7f0:	585f485f 	ldmdapl	pc, {r0, r1, r2, r3, r4, r6, fp, lr}^	; <UNPREDICTABLE>
     7f4:	6361004c 	cmnvs	r1, #76	; 0x4c
     7f8:	2e6c6563 	cdpcs	5, 6, cr6, cr12, cr3, {3}
     7fc:	54430063 	strbpl	r0, [r3], #-99	; 0xffffff9d
     800:	5f354c52 	svcpl	0x00354c52
     804:	554f0043 	strbpl	r0, [pc, #-67]	; 7c9 <_start-0x7837>
     808:	4c5f5854 	mrrcmi	8, 5, r5, pc, cr4	; <UNPREDICTABLE>
     80c:	004c585f 	subeq	r5, ip, pc, asr r8
     810:	6464615f 	strbtvs	r6, [r4], #-351	; 0xfffffea1
     814:	52544300 	subspl	r4, r4, #0, 6
     818:	5f30314c 	svcpl	0x0030314c
     81c:	5f5f0043 	svcpl	0x005f0043
     820:	6e6f4c55 	mcrvs	12, 3, r4, cr15, cr5, {2}
     824:	675f0067 	ldrbvs	r0, [pc, -r7, rrx]
     828:	61647465 	cmnvs	r4, r5, ror #8
     82c:	655f6574 	ldrbvs	r6, [pc, #-1396]	; 2c0 <_start-0x7d40>
     830:	6c007272 	sfmvs	f7, 4, [r0], {114}	; 0x72
     834:	64366d73 	ldrtvs	r6, [r6], #-3443	; 0xfffff28d
     838:	5f333373 	svcpl	0x00333373
     83c:	61666564 	cmnvs	r6, r4, ror #10
     840:	5f746c75 	svcpl	0x00746c75
     844:	72646461 	rsbvc	r6, r4, #1627389952	; 0x61000000
     848:	6c675f00 	stclvs	15, cr5, [r7], #-0
     84c:	6c61626f 	sfmvs	f6, 2, [r1], #-444	; 0xfffffe44
     850:	706d695f 	rsbvc	r6, sp, pc, asr r9
     854:	5f657275 	svcpl	0x00657275
     858:	00727470 	rsbseq	r7, r2, r0, ror r4
     85c:	7275635f 	rsbsvc	r6, r5, #2080374785	; 0x7c000001
     860:	746e6572 	strbtvc	r6, [lr], #-1394	; 0xfffffa8e
     864:	7461635f 	strbtvc	r6, [r1], #-863	; 0xfffffca1
     868:	726f6765 	rsbvc	r6, pc, #26476544	; 0x1940000
     86c:	41570079 	cmpmi	r7, r9, ror r0
     870:	555f454b 	ldrbpl	r4, [pc, #-1355]	; 32d <_start-0x7cd3>
     874:	48545f50 	ldmdami	r4, {r4, r6, r8, r9, sl, fp, ip, lr}^
     878:	736c0053 	cmnvc	ip, #83	; 0x53
     87c:	7364366d 	cmnvc	r4, #114294784	; 0x6d00000
     880:	315f3333 	cmpcc	pc, r3, lsr r3	; <UNPREDICTABLE>
     884:	68303636 	ldmdavs	r0!, {r1, r2, r4, r5, r9, sl, ip, sp}
     888:	755f007a 	ldrbvc	r0, [pc, #-122]	; 816 <_start-0x77ea>
     88c:	6573756e 	ldrbvs	r7, [r3, #-1390]!	; 0xfffffa92
     890:	61725f64 	cmnvs	r2, r4, ror #30
     894:	6900646e 	stmdbvs	r0, {r1, r2, r3, r5, r6, sl, sp, lr}
     898:	725f6332 	subsvc	r6, pc, #-939524096	; 0xc8000000
     89c:	00646165 	rsbeq	r6, r4, r5, ror #2
     8a0:	65636361 	strbvs	r6, [r3, #-865]!	; 0xfffffc9f
     8a4:	64725f6c 	ldrbtvs	r5, [r2], #-3948	; 0xfffff094
     8a8:	73616200 	cmnvc	r1, #0, 4
     8ac:	65725f65 	ldrbvs	r5, [r2, #-3941]!	; 0xfffff09b
     8b0:	775f0067 	ldrbvc	r0, [pc, -r7, rrx]
     8b4:	5f007364 	svcpl	0x00007364
     8b8:	5f6d745f 	svcpl	0x006d745f
     8bc:	79616477 	stmdbvc	r1!, {r0, r1, r2, r4, r5, r6, sl, sp, lr}^
     8c0:	6c675f00 	stclvs	15, cr5, [r7], #-0
     8c4:	46006575 			; <UNDEFINED> instruction: 0x46006575
     8c8:	5f434e55 	svcpl	0x00434e55
     8cc:	00435253 	subeq	r5, r3, r3, asr r2
     8d0:	746e6975 	strbtvc	r6, [lr], #-2421	; 0xfffff68b
     8d4:	00745f38 	rsbseq	r5, r4, r8, lsr pc
     8d8:	34366c5f 	ldrtcc	r6, [r6], #-3167	; 0xfffff3a1
     8dc:	75625f61 	strbvc	r5, [r2, #-3937]!	; 0xfffff09f
     8e0:	735f0066 	cmpvc	pc, #102	; 0x66
     8e4:	665f6769 	ldrbvs	r6, [pc], -r9, ror #14
     8e8:	00636e75 	rsbeq	r6, r3, r5, ror lr
     8ec:	366d736c 	strbtcc	r7, [sp], -ip, ror #6
     8f0:	33337364 	teqcc	r3, #100, 6	; 0x90000001
     8f4:	6836325f 	ldmdavs	r6!, {r0, r1, r2, r3, r4, r6, r9, ip, sp}
     8f8:	444d007a 	strbmi	r0, [sp], #-122	; 0xffffff86
     8fc:	46435f32 			; <UNDEFINED> instruction: 0x46435f32
     900:	49540047 	ldmdbmi	r4, {r0, r1, r2, r6}^
     904:	5453454d 	ldrbpl	r4, [r3], #-1357	; 0xfffffab3
     908:	32504d41 	subscc	r4, r0, #4160	; 0x1040
     90c:	4745525f 	smlsldmi	r5, r5, pc, r2	; <UNPREDICTABLE>
     910:	626e5f00 	rsbvs	r5, lr, #0, 30
     914:	5f006675 	svcpl	0x00006675
     918:	73756e75 	cmnvc	r5, #1872	; 0x750
     91c:	54006465 	strpl	r6, [r0], #-1125	; 0xfffffb9b
     920:	53454d49 	movtpl	r4, #23881	; 0x5d49
     924:	504d4154 	subpl	r4, sp, r4, asr r1
     928:	45525f31 	ldrbmi	r5, [r2, #-3889]	; 0xfffff0cf
     92c:	36440047 	strbcc	r0, [r4], -r7, asr #32
     930:	52535f44 	subspl	r5, r3, #68, 30	; 0x110
     934:	5f5f0043 	svcpl	0x005f0043
     938:	695f6d74 	ldmdbvs	pc, {r2, r4, r5, r6, r8, sl, fp, sp, lr}^	; <UNPREDICTABLE>
     93c:	74736473 	ldrbtvc	r6, [r3], #-1139	; 0xfffffb8d
     940:	6f6c5f00 	svcvs	0x006c5f00
     944:	746c6163 	strbtvc	r6, [ip], #-355	; 0xfffffe9d
     948:	5f656d69 	svcpl	0x00656d69
     94c:	00667562 	rsbeq	r7, r6, r2, ror #10
     950:	6f6c635f 	svcvs	0x006c635f
     954:	5f006573 	svcpl	0x00006573
     958:	00383472 	eorseq	r3, r8, r2, ror r4
     95c:	5954554f 	ldmdbpl	r4, {r0, r1, r2, r3, r6, r8, sl, ip, lr}^
     960:	475f485f 			; <UNDEFINED> instruction: 0x475f485f
     964:	626d5f00 	rsbvs	r5, sp, #0, 30
     968:	63776f74 	cmnvs	r7, #116, 30	; 0x1d0
     96c:	6174735f 	cmnvs	r4, pc, asr r3
     970:	5f006574 	svcpl	0x00006574
     974:	00733570 	rsbseq	r3, r3, r0, ror r5
     978:	4f464946 	svcmi	0x00464946
     97c:	5441445f 	strbpl	r4, [r1], #-1119	; 0xfffffba1
     980:	554f5f41 	strbpl	r5, [pc, #-3905]	; fffffa47 <__bss_end__+0xffff5ab7>
     984:	00485f54 	subeq	r5, r8, r4, asr pc
     988:	5f544e49 	svcpl	0x00544e49
     98c:	32525544 	subscc	r5, r2, #68, 10	; 0x11000000
     990:	46494600 	strbmi	r4, [r9], -r0, lsl #12
     994:	41445f4f 	cmpmi	r4, pc, asr #30
     998:	4f5f4154 	svcmi	0x005f4154
     99c:	4c5f5455 	cfldrdmi	mvd5, [pc], {85}	; 0x55
     9a0:	54554f00 	ldrbpl	r4, [r5], #-3840	; 0xfffff100
     9a4:	5f485f5a 	svcpl	0x00485f5a
     9a8:	4e490047 	cdpmi	0, 4, cr0, cr9, cr7, {2}
     9ac:	435f3254 	cmpmi	pc, #84, 4	; 0x40000005
     9b0:	004c5254 	subeq	r5, ip, r4, asr r2
     9b4:	4c525443 	cfldrdmi	mvd5, [r2], {67}	; 0x43
     9b8:	00435f33 	subeq	r5, r3, r3, lsr pc
     9bc:	6d745f5f 	ldclvs	15, cr5, [r4, #-380]!	; 0xfffffe84
     9c0:	61646d5f 	cmnvs	r4, pc, asr sp
     9c4:	45520079 	ldrbmi	r0, [r2, #-121]	; 0xffffff87
     9c8:	5f594441 	svcpl	0x00594441
     9cc:	41544144 	cmpmi	r4, r4, asr #2
     9d0:	544e495f 	strbpl	r4, [lr], #-2399	; 0xfffff6a1
     9d4:	73005245 	movwvc	r5, #581	; 0x245
     9d8:	6765725f 			; <UNDEFINED> instruction: 0x6765725f
     9dc:	65747369 	ldrbvs	r7, [r4, #-873]!	; 0xfffffc97
     9e0:	50520072 	subspl	r0, r2, r2, ror r0
     9e4:	32695f49 	rsbcc	r5, r9, #292	; 0x124
     9e8:	6f640063 	svcvs	0x00640063
     9ec:	6600656e 	strvs	r6, [r0], -lr, ror #10
     9f0:	006f6669 	rsbeq	r6, pc, r9, ror #12
     9f4:	4f495047 	svcmi	0x00495047
     9f8:	4e55465f 	mrcmi	6, 2, r4, cr5, cr15, {2}
     9fc:	4e495f43 	cdpmi	15, 4, cr5, cr9, cr3, {2}
     a00:	00545550 	subseq	r5, r4, r0, asr r5
     a04:	5f633269 	svcpl	0x00633269
     a08:	695f7369 	ldmdbvs	pc, {r0, r3, r5, r6, r8, r9, ip, sp, lr}^	; <UNPREDICTABLE>
     a0c:	6974696e 	ldmdbvs	r4!, {r1, r2, r3, r5, r6, r8, fp, sp, lr}^
     a10:	7a696c61 	bvc	1a5bb9c <__bss_end__+0x1a51c0c>
     a14:	47006465 	strmi	r6, [r0, -r5, ror #8]
     a18:	5f4f4950 	svcpl	0x004f4950
     a1c:	434e5546 	movtmi	r5, #58694	; 0xe546
     a20:	544c415f 	strbpl	r4, [ip], #-351	; 0xfffffea1
     a24:	5f5f0031 	svcpl	0x005f0031
     a28:	73756e75 	cmnvc	r5, #1872	; 0x750
     a2c:	00316465 	eorseq	r6, r1, r5, ror #8
     a30:	636f6c63 	cmnvs	pc, #25344	; 0x6300
     a34:	74735f6b 	ldrbtvc	r5, [r3], #-3947	; 0xfffff095
     a38:	63746572 	cmnvs	r4, #478150656	; 0x1c800000
     a3c:	69745f68 	ldmdbvs	r4!, {r3, r5, r6, r8, r9, sl, fp, ip, lr}^
     a40:	756f656d 	strbvc	r6, [pc, #-1389]!	; 4db <_start-0x7b25>
     a44:	70670074 	rsbvc	r0, r7, r4, ror r0
     a48:	735f6f69 	cmpvc	pc, #420	; 0x1a4
     a4c:	665f7465 	ldrbvs	r7, [pc], -r5, ror #8
     a50:	74636e75 	strbtvc	r6, [r3], #-3701	; 0xfffff18b
     a54:	006e6f69 	rsbeq	r6, lr, r9, ror #30
     a58:	6e755f5f 	mrcvs	15, 3, r5, cr5, cr15, {2}
     a5c:	64657375 	strbtvs	r7, [r5], #-885	; 0xfffffc8b
     a60:	5f5f0030 	svcpl	0x005f0030
     a64:	73756e75 	cmnvc	r5, #1872	; 0x750
     a68:	00326465 	eorseq	r6, r2, r5, ror #8
     a6c:	6e755f5f 	mrcvs	15, 3, r5, cr5, cr15, {2}
     a70:	64657375 	strbtvs	r7, [r5], #-885	; 0xfffffc8b
     a74:	68730033 	ldmdavs	r3!, {r0, r1, r4, r5}^
     a78:	00746669 	rsbseq	r6, r4, r9, ror #12
     a7c:	2e633269 	cdpcs	2, 6, cr3, cr3, cr9, {3}
     a80:	65720063 	ldrbvs	r0, [r2, #-99]!	; 0xffffff9d
     a84:	635f6461 	cmpvs	pc, #1627389952	; 0x61000000
     a88:	61657200 	cmnvs	r5, r0, lsl #4
     a8c:	00735f64 	rsbseq	r5, r3, r4, ror #30
     a90:	64616572 	strbtvs	r6, [r1], #-1394	; 0xfffffa8e
     a94:	6900705f 	stmdbvs	r0, {r0, r1, r2, r3, r4, r6, ip, sp, lr}
     a98:	6974696e 	ldmdbvs	r4!, {r1, r2, r3, r5, r6, r8, fp, sp, lr}^
     a9c:	7a696c61 	bvc	1a5bc28 <__bss_end__+0x1a51c98>
     aa0:	705f6465 	subsvc	r6, pc, r5, ror #8
     aa4:	74657300 	strbtvc	r7, [r5], #-768	; 0xfffffd00
     aa8:	6c6c615f 	stfvse	f6, [ip], #-380	; 0xfffffe84
     aac:	6f6c6300 	svcvs	0x006c6300
     ab0:	645f6b63 	ldrbvs	r6, [pc], #-2915	; ab8 <_start-0x7548>
     ab4:	72007669 	andvc	r7, r0, #110100480	; 0x6900000
     ab8:	74657365 	strbtvc	r7, [r5], #-869	; 0xfffffc9b
     abc:	6174735f 	cmnvs	r4, pc, asr r3
     ac0:	00737574 	rsbseq	r7, r3, r4, ror r5
     ac4:	5f633269 	svcpl	0x00633269
     ac8:	74696e69 	strbtvc	r6, [r9], #-3689	; 0xfffff197
     acc:	636e6f5f 	cmnvs	lr, #380	; 0x17c
     ad0:	50470065 	subpl	r0, r7, r5, rrx
     ad4:	465f4f49 	ldrbmi	r4, [pc], -r9, asr #30
     ad8:	5f434e55 	svcpl	0x00434e55
     adc:	32544c41 	subscc	r4, r4, #16640	; 0x4100
     ae0:	746e6900 	strbtvc	r6, [lr], #-2304	; 0xfffff700
     ae4:	6c630064 	stclvs	0, cr0, [r3], #-400	; 0xfffffe70
     ae8:	00726165 	rsbseq	r6, r2, r5, ror #2
     aec:	72746e69 	rsbsvc	r6, r4, #1680	; 0x690
     af0:	746e6900 	strbtvc	r6, [lr], #-2304	; 0xfffff700
     af4:	68630074 	stmdavs	r3!, {r2, r4, r5, r6}^
     af8:	5f6b6365 	svcpl	0x006b6365
     afc:	6f79616c 	svcvs	0x0079616c
     b00:	69007475 	stmdbvs	r0, {r0, r2, r4, r5, r6, sl, ip, sp, lr}
     b04:	6e656332 	mcrvs	3, 3, r6, cr5, cr2, {1}
     b08:	79626e00 	stmdbvc	r2!, {r9, sl, fp, sp, lr}^
     b0c:	00736574 	rsbseq	r6, r3, r4, ror r5
     b10:	6e656c64 	cdpvs	12, 6, cr6, cr5, cr4, {3}
     b14:	6f6c6300 	svcvs	0x006c6300
     b18:	645f6b63 	ldrbvs	r6, [pc], #-2915	; b20 <_start-0x74e0>
     b1c:	79616c65 	stmdbvc	r1!, {r0, r2, r5, r6, sl, fp, sp, lr}^
     b20:	6e6f6300 	cdpvs	3, 6, cr6, cr15, cr0, {0}
     b24:	6c6f7274 	sfmvs	f7, 2, [pc], #-464	; 95c <_start-0x76a4>
     b28:	74757000 	ldrbtvc	r7, [r5], #-0
     b2c:	2f003233 	svccs	0x00003233
     b30:	656d6f68 	strbvs	r6, [sp, #-3944]!	; 0xfffff098
     b34:	676e652f 	strbvs	r6, [lr, -pc, lsr #10]!
     b38:	2f72656c 	svccs	0x0072656c
     b3c:	73616c63 	cmnvc	r1, #25344	; 0x6300
     b40:	73632f73 	cmnvc	r3, #460	; 0x1cc
     b44:	6c303432 	cfldrsvs	mvf3, [r0], #-200	; 0xffffff38
     b48:	30322d78 	eorscc	r2, r2, r8, ror sp
     b4c:	2f727073 	svccs	0x00727073
     b50:	7362616c 	cmnvc	r2, #108, 2
     b54:	692d382f 	pushvs	{r0, r1, r2, r3, r5, fp, ip, sp}
     b58:	612d6332 			; <UNDEFINED> instruction: 0x612d6332
     b5c:	6c656363 	stclvs	3, cr6, [r5], #-396	; 0xfffffe74
     b60:	646f632f 	strbtvs	r6, [pc], #-815	; b68 <_start-0x7498>
     b64:	66780065 	ldrbtvs	r0, [r8], -r5, rrx
     b68:	735f7265 	cmpvc	pc, #1342177286	; 0x50000006
     b6c:	74726174 	ldrbtvc	r6, [r2], #-372	; 0xfffffe8c
     b70:	49504700 	ldmdbmi	r0, {r8, r9, sl, lr}^
     b74:	55465f4f 	strbpl	r5, [r6, #-3919]	; 0xfffff0b1
     b78:	4f5f434e 	svcmi	0x005f434e
     b7c:	55505455 	ldrbpl	r5, [r0, #-1109]	; 0xfffffbab
     b80:	65670054 	strbvs	r0, [r7, #-84]!	; 0xffffffac
     b84:	00323374 	eorseq	r3, r2, r4, ror r3
     b88:	72656678 	rsbvc	r6, r5, #120, 12	; 0x7800000
     b8c:	646e655f 	strbtvs	r6, [lr], #-1375	; 0xfffffaa1
     b90:	6b6c6300 	blvs	1b19798 <__bss_end__+0x1b0f808>
     b94:	63006b74 	movwvs	r6, #2932	; 0xb74
     b98:	7261656c 	rsbvc	r6, r1, #108, 10	; 0x1b000000
     b9c:	4700635f 	smlsdmi	r0, pc, r3, r6	; <UNPREDICTABLE>
     ba0:	5f4f4950 	svcpl	0x004f4950
     ba4:	434e5546 	movtmi	r5, #58694	; 0xe546
     ba8:	544c415f 	strbpl	r4, [ip], #-351	; 0xfffffea1
     bac:	50470030 	subpl	r0, r7, r0, lsr r0
     bb0:	465f4f49 	ldrbmi	r4, [pc], -r9, asr #30
     bb4:	5f434e55 	svcpl	0x00434e55
     bb8:	33544c41 	cmpcc	r4, #16640	; 0x4100
     bbc:	49504700 	ldmdbmi	r0, {r8, r9, sl, lr}^
     bc0:	55465f4f 	strbpl	r5, [r6, #-3919]	; 0xfffff0b1
     bc4:	415f434e 	cmpmi	pc, lr, asr #6
     bc8:	0034544c 	eorseq	r5, r4, ip, asr #8
     bcc:	4f495047 	svcmi	0x00495047
     bd0:	4e55465f 	mrcmi	6, 2, r4, cr5, cr15, {2}
     bd4:	4c415f43 	mcrrmi	15, 4, r5, r1, cr3
     bd8:	63003554 	movwvs	r3, #1364	; 0x554
     bdc:	7261656c 	rsbvc	r6, r1, #108, 10	; 0x1b000000
     be0:	6300735f 	movwvs	r7, #863	; 0x35f
     be4:	6765725f 			; <UNDEFINED> instruction: 0x6765725f
     be8:	65747369 	ldrbvs	r7, [r4, #-873]!	; 0xfffffc97
     bec:	5f5f0072 	svcpl	0x005f0072
     bf0:	6c5f6176 	ldfvse	f6, [pc], {118}	; 0x76
     bf4:	00747369 	rsbseq	r7, r4, r9, ror #6
     bf8:	705f6176 	subsvc	r6, pc, r6, ror r1	; <UNPREDICTABLE>
     bfc:	746e6972 	strbtvc	r6, [lr], #-2418	; 0xfffff68e
     c00:	5f5f006b 	svcpl	0x005f006b
     c04:	63756e67 	cmnvs	r5, #1648	; 0x670
     c08:	5f61765f 	svcpl	0x0061765f
     c0c:	7473696c 	ldrbtvc	r6, [r3], #-2412	; 0xfffff694
     c10:	554e4700 	strbpl	r4, [lr, #-1792]	; 0xfffff900
     c14:	39394320 	ldmdbcc	r9!, {r5, r8, r9, lr}
     c18:	332e3620 			; <UNDEFINED> instruction: 0x332e3620
     c1c:	3220312e 	eorcc	r3, r0, #-2147483637	; 0x8000000b
     c20:	30373130 	eorscc	r3, r7, r0, lsr r1
     c24:	20303236 	eorscs	r3, r0, r6, lsr r2
     c28:	70636d2d 	rsbvc	r6, r3, sp, lsr #26
     c2c:	72613d75 	rsbvc	r3, r1, #7488	; 0x1d40
     c30:	3731316d 	ldrcc	r3, [r1, -sp, ror #2]!
     c34:	667a6a36 			; <UNDEFINED> instruction: 0x667a6a36
     c38:	2d20732d 	stccs	3, cr7, [r0, #-180]!	; 0xffffff4c
     c3c:	6e75746d 	cdpvs	4, 7, cr7, cr5, cr13, {3}
     c40:	72613d65 	rsbvc	r3, r1, #6464	; 0x1940
     c44:	3731316d 	ldrcc	r3, [r1, -sp, ror #2]!
     c48:	667a6a36 			; <UNDEFINED> instruction: 0x667a6a36
     c4c:	2d20732d 	stccs	3, cr7, [r0, #-180]!	; 0xffffff4c
     c50:	62646767 	rsbvs	r6, r4, #27000832	; 0x19c0000
     c54:	674f2d20 	strbvs	r2, [pc, -r0, lsr #26]
     c58:	74732d20 	ldrbtvc	r2, [r3], #-3360	; 0xfffff2e0
     c5c:	6e673d64 	cdpvs	13, 6, cr3, cr7, cr4, {3}
     c60:	20393975 	eorscs	r3, r9, r5, ror r9
     c64:	7266662d 	rsbvc	r6, r6, #47185920	; 0x2d00000
     c68:	74736565 	ldrbtvc	r6, [r3], #-1381	; 0xfffffa9b
     c6c:	69646e61 	stmdbvs	r4!, {r0, r5, r6, r9, sl, fp, sp, lr}^
     c70:	5f00676e 	svcpl	0x0000676e
     c74:	0070615f 	rsbseq	r6, r0, pc, asr r1
     c78:	6d6f682f 	stclvs	8, cr6, [pc, #-188]!	; bc4 <_start-0x743c>
     c7c:	73752f65 	cmnvc	r5, #404	; 0x194
     c80:	442f7265 	strtmi	r7, [pc], #-613	; c88 <_start-0x7378>
     c84:	432f7665 			; <UNDEFINED> instruction: 0x432f7665
     c88:	30343153 	eorscc	r3, r4, r3, asr r1
     c8c:	696c2f45 	stmdbvs	ip!, {r0, r2, r6, r8, r9, sl, fp, sp}^
     c90:	00697062 	rsbeq	r7, r9, r2, rrx
     c94:	6362696c 	cmnvs	r2, #108, 18	; 0x1b0000
     c98:	6972702f 	ldmdbvs	r2!, {r0, r1, r2, r3, r5, ip, sp, lr}^
     c9c:	2e6b746e 	cdpcs	4, 6, cr7, cr11, cr14, {3}
     ca0:	696c0063 	stmdbvs	ip!, {r0, r1, r5, r6}^
     ca4:	762f6362 	strtvc	r6, [pc], -r2, ror #6
     ca8:	72702d61 	rsbsvc	r2, r0, #6208	; 0x1840
     cac:	6b746e69 	blvs	1d1c658 <__bss_end__+0x1d126c8>
     cb0:	7200632e 	andvc	r6, r0, #-1207959552	; 0xb8000000
     cb4:	735f6970 	cmpvc	pc, #112, 18	; 0x1c0000
     cb8:	6f5f7465 	svcvs	0x005f7465
     cbc:	75707475 	ldrbvc	r7, [r0, #-1141]!	; 0xfffffb8b
     cc0:	69730074 	ldmdbvs	r3!, {r2, r4, r5, r6}^
     cc4:	64656e67 	strbtvs	r6, [r5], #-3687	; 0xfffff199
     cc8:	7200705f 	andvc	r7, r0, #95	; 0x5f
     ccc:	72657665 	rsbvc	r7, r5, #105906176	; 0x6500000
     cd0:	77006573 	smlsdxvc	r0, r3, r5, r6
     cd4:	68746469 	ldmdavs	r4!, {r0, r3, r5, r6, sl, sp, lr}^
     cd8:	74757000 	ldrbtvc	r7, [r5], #-0
     cdc:	70665f73 	rsbvc	r5, r6, r3, ror pc
     ce0:	67656e00 	strbvs	r6, [r5, -r0, lsl #28]!
     ce4:	7000705f 	andvc	r7, r0, pc, asr r0
     ce8:	5f637475 	svcpl	0x00637475
     cec:	69007066 	stmdbvs	r0, {r1, r2, r5, r6, ip, sp, lr}
     cf0:	67696473 			; <UNDEFINED> instruction: 0x67696473
     cf4:	65007469 	strvs	r7, [r0, #-1129]	; 0xfffffb97
     cf8:	0074696d 	rsbseq	r6, r4, sp, ror #18
     cfc:	65746e69 	ldrbvs	r6, [r4, #-3689]!	; 0xfffff197
     d00:	6c616e72 	stclvs	14, cr6, [r1], #-456	; 0xfffffe38
     d04:	7475705f 	ldrbtvc	r7, [r5], #-95	; 0xffffffa1
     d08:	696c006b 	stmdbvs	ip!, {r0, r1, r3, r5, r6}^
     d0c:	702f6362 	eorvc	r6, pc, r2, ror #6
     d10:	2e6b7475 	mcrcs	4, 3, r7, cr11, cr5, {3}
     d14:	70720063 	rsbsvc	r0, r2, r3, rrx
     d18:	65735f69 	ldrbvs	r5, [r3, #-3945]!	; 0xfffff097
     d1c:	75705f74 	ldrbvc	r5, [r0, #-3956]!	; 0xfffff08c
     d20:	75006374 	strvc	r6, [r0, #-884]	; 0xfffffc8c
     d24:	5f747261 	svcpl	0x00747261
     d28:	63747570 	cmnvs	r4, #112, 10	; 0x1c000000
     d2c:	746e6900 	strbtvc	r6, [lr], #-2304	; 0xfffff700
     d30:	616e7265 	cmnvs	lr, r5, ror #4
     d34:	75705f6c 	ldrbvc	r5, [r0, #-3948]!	; 0xfffff094
     d38:	61686374 	smcvs	34356	; 0x8634
     d3c:	696c0072 	stmdbvs	ip!, {r1, r4, r5, r6}^
     d40:	702f6362 	eorvc	r6, pc, r2, ror #6
     d44:	68637475 	stmdavs	r3!, {r0, r2, r4, r5, r6, sl, ip, sp, lr}^
     d48:	632e7261 			; <UNDEFINED> instruction: 0x632e7261
     d4c:	54555000 	ldrbpl	r5, [r5], #-0
     d50:	53455f43 	movtpl	r5, #24387	; 0x5f43
     d54:	41555f50 	cmpmi	r5, r0, asr pc
     d58:	75005452 	strvc	r5, [r0, #-1106]	; 0xfffffbae
     d5c:	5f747261 	svcpl	0x00747261
     d60:	5f766564 	svcpl	0x00766564
     d64:	635f0074 	cmpvs	pc, #116	; 0x74
     d68:	72617473 	rsbvc	r7, r1, #1929379840	; 0x73000000
     d6c:	77730074 			; <UNDEFINED> instruction: 0x77730074
     d70:	7261755f 	rsbvc	r7, r1, #398458880	; 0x17c00000
     d74:	6f630074 	svcvs	0x00630074
     d78:	6f72746e 	svcvs	0x0072746e
     d7c:	6c625f6c 	stclvs	15, cr5, [r2], #-432	; 0xfffffe50
     d80:	00745f6b 	rsbseq	r5, r4, fp, ror #30
     d84:	43545550 	cmpmi	r4, #80, 10	; 0x14000000
     d88:	5f57485f 	svcpl	0x0057485f
     d8c:	54524155 	ldrbpl	r4, [r2], #-341	; 0xfffffeab
     d90:	6e6f6300 	cdpvs	3, 6, cr6, cr15, cr0, {0}
     d94:	656c6f73 	strbvs	r6, [ip, #-3955]!	; 0xfffff08d
     d98:	7665645f 			; <UNDEFINED> instruction: 0x7665645f
     d9c:	6e6f6300 	cdpvs	3, 6, cr6, cr15, cr0, {0}
     da0:	656c6f73 	strbvs	r6, [ip, #-3955]!	; 0xfffff08d
     da4:	7261755f 	rsbvc	r7, r1, #398458880	; 0x17c00000
     da8:	5f5f0074 	svcpl	0x005f0074
     dac:	5f737362 	svcpl	0x00737362
     db0:	72617473 	rsbvc	r7, r1, #1929379840	; 0x73000000
     db4:	005f5f74 	subseq	r5, pc, r4, ror pc	; <UNPREDICTABLE>
     db8:	73625f5f 	cmnvc	r2, #380	; 0x17c
     dbc:	6e655f73 	mcrvs	15, 3, r5, cr5, cr3, {3}
     dc0:	005f5f64 	subseq	r5, pc, r4, ror #30
     dc4:	755f7773 	ldrbvc	r7, [pc, #-1907]	; 659 <_start-0x79a7>
     dc8:	5f747261 	svcpl	0x00747261
     dcc:	616d0074 	smcvs	53252	; 0xd004
     dd0:	00636967 	rsbeq	r6, r3, r7, ror #18
     dd4:	5f737362 	svcpl	0x00737362
     dd8:	00646e65 	rsbeq	r6, r4, r5, ror #28
     ddc:	5f726c63 	svcpl	0x00726c63
     de0:	6e690030 	mcrvs	0, 3, r0, cr9, cr0, {1}
     de4:	6e726574 	mrcvs	5, 3, r6, cr2, cr4, {3}
     de8:	735f6c61 	cmpvc	pc, #24832	; 0x6100
     dec:	75705f77 	ldrbvc	r5, [r0, #-3959]!	; 0xfffff089
     df0:	61686374 	smcvs	34356	; 0x8634
     df4:	70720072 	rsbsvc	r0, r2, r2, ror r0
     df8:	65725f69 	ldrbvs	r5, [r2, #-3945]!	; 0xfffff097
     dfc:	746f6f62 	strbtvc	r6, [pc], #-3938	; e04 <_start-0x71fc>
     e00:	75616200 	strbvc	r6, [r1, #-512]!	; 0xfffffe00
     e04:	62630064 	rsbvs	r0, r3, #100	; 0x64
     e08:	7465675f 	strbtvc	r6, [r5], #-1887	; 0xfffff8a1
     e0c:	6f6c625f 	svcvs	0x006c625f
     e10:	63006b63 	movwvs	r6, #2915	; 0xb63
     e14:	30343173 	eorscc	r3, r4, r3, ror r1
     e18:	72732d65 	rsbsvc	r2, r3, #6464	; 0x1940
     e1c:	73632f63 	cmnvc	r3, #396	; 0x18c
     e20:	74726174 	ldrbtvc	r6, [r2], #-372	; 0xfffffe8c
     e24:	5000632e 	andpl	r6, r0, lr, lsr #6
     e28:	5f435455 	svcpl	0x00435455
     e2c:	555f5753 	ldrbpl	r5, [pc, #-1875]	; 6e1 <_start-0x791f>
     e30:	00545241 	subseq	r5, r4, r1, asr #4
     e34:	305f6e6f 	subscc	r6, pc, pc, ror #28
     e38:	63796300 	cmnvs	r9, #0, 6
     e3c:	705f656c 	subsvc	r6, pc, ip, ror #10
     e40:	625f7265 	subsvs	r7, pc, #1342177286	; 0x50000006
     e44:	50007469 	andpl	r7, r0, r9, ror #8
     e48:	53525f4d 	cmppl	r2, #308	; 0x134
     e4c:	50004354 	andpl	r4, r0, r4, asr r3
     e50:	32335455 	eorscc	r5, r3, #1426063360	; 0x55000000
     e54:	5f4d5000 	svcpl	0x004d5000
     e58:	43545352 	cmpmi	r4, #1207959553	; 0x48000001
     e5c:	4352575f 	cmpmi	r2, #24903680	; 0x17c0000
     e60:	465f4746 	ldrbmi	r4, [pc], -r6, asr #14
     e64:	5f4c4c55 	svcpl	0x004c4c55
     e68:	45534552 	ldrbmi	r4, [r3, #-1362]	; 0xfffffaae
     e6c:	4d500054 	ldclmi	0, cr0, [r0, #-336]	; 0xfffffeb0
     e70:	4f44575f 	svcmi	0x0044575f
     e74:	70630047 	rsbvc	r0, r3, r7, asr #32
     e78:	50007273 	andpl	r7, r0, r3, ror r2
     e7c:	41505f4d 	cmpmi	r0, sp, asr #30
     e80:	4f575353 	svcmi	0x00575353
     e84:	63004452 	movwvs	r4, #1106	; 0x452
     e88:	30343173 	eorscc	r3, r4, r3, ror r1
     e8c:	72732d65 	rsbsvc	r2, r3, #6464	; 0x1940
     e90:	65722f63 	ldrbvs	r2, [r2, #-3939]!	; 0xfffff09d
     e94:	746f6f62 	strbtvc	r6, [pc], #-3938	; e9c <_start-0x7164>
     e98:	7300632e 	movwvc	r6, #814	; 0x32e
     e9c:	755f7465 	ldrbvc	r7, [pc, #-1125]	; a3f <_start-0x75c1>
     ea0:	5f726573 	svcpl	0x00726573
     ea4:	6576656c 	ldrbvs	r6, [r6, #-1388]!	; 0xfffffa94
     ea8:	7461006c 	strbtvc	r0, [r1], #-108	; 0xffffff94
     eac:	6573755f 	ldrbvs	r7, [r3, #-1375]!	; 0xfffffaa1
     eb0:	656c5f72 	strbvs	r5, [ip, #-3954]!	; 0xfffff08e
     eb4:	006c6576 	rsbeq	r6, ip, r6, ror r5
     eb8:	34317363 	ldrtcc	r7, [r1], #-867	; 0xfffffc9d
     ebc:	732d6530 			; <UNDEFINED> instruction: 0x732d6530
     ec0:	632f6372 			; <UNDEFINED> instruction: 0x632f6372
     ec4:	6e61656c 	cdpvs	5, 6, cr6, cr1, cr12, {3}
     ec8:	6265722d 	rsbvs	r7, r5, #-805306366	; 0xd0000002
     ecc:	2e746f6f 	cdpcs	15, 7, cr6, cr4, cr15, {3}
     ed0:	69740063 	ldmdbvs	r4!, {r0, r1, r5, r6}^
     ed4:	5f72656d 	svcpl	0x0072656d
     ed8:	5f746567 	svcpl	0x00746567
     edc:	63657375 	cmnvs	r5, #-738197503	; 0xd4000001
     ee0:	6c656400 	cfstrdvs	mvd6, [r5], #-0
     ee4:	735f7961 	cmpvc	pc, #1589248	; 0x184000
     ee8:	64006365 	strvs	r6, [r0], #-869	; 0xfffffc9b
     eec:	79616c65 	stmdbvc	r1!, {r0, r2, r5, r6, sl, fp, sp, lr}^
     ef0:	6379635f 	cmnvs	r9, #2080374785	; 0x7c000001
     ef4:	0073656c 	rsbseq	r6, r3, ip, ror #10
     ef8:	34317363 	ldrtcc	r7, [r1], #-867	; 0xfffffc9d
     efc:	732d6530 			; <UNDEFINED> instruction: 0x732d6530
     f00:	742f6372 	strtvc	r6, [pc], #-882	; f08 <_start-0x70f8>
     f04:	72656d69 	rsbvc	r6, r5, #6720	; 0x1a40
     f08:	7400632e 	strvc	r6, [r0], #-814	; 0xfffffcd2
     f0c:	736b6369 	cmnvc	fp, #-1543503871	; 0xa4000001
     f10:	54454700 	strbpl	r4, [r5], #-1792	; 0xfffff900
     f14:	74003233 	strvc	r3, [r0], #-563	; 0xfffffdcd
     f18:	72656d69 	rsbvc	r6, r5, #6720	; 0x1a40
     f1c:	7465675f 	strbtvc	r6, [r5], #-1887	; 0xfffff8a1
     f20:	6573755f 	ldrbvs	r7, [r3, #-1375]!	; 0xfffffaa1
     f24:	61725f63 	cmnvs	r2, r3, ror #30
     f28:	65640077 	strbvs	r0, [r4, #-119]!	; 0xffffff89
     f2c:	5f79616c 	svcpl	0x0079616c
     f30:	5f007375 	svcpl	0x00007375
     f34:	636f6c5f 	cmnvs	pc, #24320	; 0x5f00
     f38:	5f656c61 	svcpl	0x00656c61
     f3c:	74730074 	ldrbtvc	r0, [r3], #-116	; 0xffffff8c
     f40:	63007461 	movwvs	r7, #1121	; 0x461
     f44:	006c746e 	rsbeq	r7, ip, lr, ror #8
     f48:	74726175 	ldrbtvc	r6, [r2], #-373	; 0xfffffe8b
     f4c:	6100632e 	tstvs	r0, lr, lsr #6
     f50:	705f7875 	subsvc	r7, pc, r5, ror r8	; <UNPREDICTABLE>
     f54:	70697265 	rsbvc	r7, r9, r5, ror #4
     f58:	61007368 	tstvs	r0, r8, ror #6
     f5c:	655f7875 	ldrbvs	r7, [pc, #-2165]	; 6ef <_start-0x7911>
     f60:	6c62616e 	stfvse	f6, [r2], #-440	; 0xfffffe48
     f64:	75007365 	strvc	r7, [r0, #-869]	; 0xfffffc9b
     f68:	5f747261 	svcpl	0x00747261
     f6c:	5f6e6163 	svcpl	0x006e6163
     f70:	63747570 	cmnvs	r4, #112, 10	; 0x1c000000
     f74:	72617500 	rsbvc	r7, r1, #0, 10
     f78:	65675f74 	strbvs	r5, [r7, #-3956]!	; 0xfffff08c
     f7c:	5f006374 	svcpl	0x00006374
     f80:	4b434f4c 	blmi	10d4cb8 <__bss_end__+0x10cad28>
     f84:	4700545f 	smlsdmi	r0, pc, r4, r5	; <UNPREDICTABLE>
     f88:	4320554e 			; <UNDEFINED> instruction: 0x4320554e
     f8c:	37203939 			; <UNDEFINED> instruction: 0x37203939
     f90:	312e332e 			; <UNDEFINED> instruction: 0x312e332e
     f94:	31303220 	teqcc	r0, r0, lsr #4
     f98:	32363038 	eorscc	r3, r6, #56	; 0x38
     f9c:	72282032 	eorvc	r2, r8, #50	; 0x32
     fa0:	61656c65 	cmnvs	r5, r5, ror #24
     fa4:	20296573 	eorcs	r6, r9, r3, ror r5
     fa8:	4d52415b 	ldfmie	f4, [r2, #-364]	; 0xfffffe94
     fac:	626d652f 	rsbvs	r6, sp, #197132288	; 0xbc00000
     fb0:	65646465 	strbvs	r6, [r4, #-1125]!	; 0xfffffb9b
     fb4:	2d372d64 	ldccs	13, cr2, [r7, #-400]!	; 0xfffffe70
     fb8:	6e617262 	cdpvs	2, 6, cr7, cr1, cr2, {3}
     fbc:	72206863 	eorvc	r6, r0, #6488064	; 0x630000
     fc0:	73697665 	cmnvc	r9, #105906176	; 0x6500000
     fc4:	206e6f69 	rsbcs	r6, lr, r9, ror #30
     fc8:	39313632 	ldmdbcc	r1!, {r1, r4, r5, r9, sl, ip, sp}
     fcc:	205d3730 	subscs	r3, sp, r0, lsr r7
     fd0:	70636d2d 	rsbvc	r6, r3, sp, lsr #26
     fd4:	72613d75 	rsbvc	r3, r1, #7488	; 0x1d40
     fd8:	3731316d 	ldrcc	r3, [r1, -sp, ror #2]!
     fdc:	667a6a36 			; <UNDEFINED> instruction: 0x667a6a36
     fe0:	2d20732d 	stccs	3, cr7, [r0, #-180]!	; 0xffffff4c
     fe4:	6e75746d 	cdpvs	4, 7, cr7, cr5, cr13, {3}
     fe8:	72613d65 	rsbvc	r3, r1, #6464	; 0x1940
     fec:	3731316d 	ldrcc	r3, [r1, -sp, ror #2]!
     ff0:	667a6a36 			; <UNDEFINED> instruction: 0x667a6a36
     ff4:	2d20732d 	stccs	3, cr7, [r0, #-180]!	; 0xffffff4c
     ff8:	62646767 	rsbvs	r6, r4, #27000832	; 0x19c0000
     ffc:	674f2d20 	strbvs	r2, [pc, -r0, lsr #26]
    1000:	74732d20 	ldrbtvc	r2, [r3], #-3360	; 0xfffff2e0
    1004:	6e673d64 	cdpvs	13, 6, cr3, cr7, cr4, {3}
    1008:	20393975 	eorscs	r3, r9, r5, ror r9
    100c:	7266662d 	rsbvc	r6, r6, #47185920	; 0x2d00000
    1010:	74736565 	ldrbtvc	r6, [r3], #-1381	; 0xfffffa9b
    1014:	69646e61 	stmdbvs	r4!, {r0, r5, r6, r9, sl, fp, sp, lr}^
    1018:	2f00676e 	svccs	0x0000676e
    101c:	656d6f68 	strbvs	r6, [sp, #-3944]!	; 0xfffff098
    1020:	676e652f 	strbvs	r6, [lr, -pc, lsr #10]!
    1024:	2f72656c 	svccs	0x0072656c
    1028:	73616c63 	cmnvc	r1, #25344	; 0x6300
    102c:	73632f73 	cmnvc	r3, #460	; 0x1cc
    1030:	65303431 	ldrvs	r3, [r0, #-1073]!	; 0xfffffbcf
    1034:	7730322d 	ldrvc	r3, [r0, -sp, lsr #4]!
    1038:	6c2f6e69 	stcvs	14, cr6, [pc], #-420	; e9c <_start-0x7164>
    103c:	69706269 	ldmdbvs	r0!, {r0, r3, r5, r6, r9, sp, lr}^
    1040:	3173632f 	cmncc	r3, pc, lsr #6
    1044:	2d653034 	stclcs	0, cr3, [r5, #-208]!	; 0xffffff30
    1048:	76697270 			; <UNDEFINED> instruction: 0x76697270
    104c:	00657461 	rsbeq	r7, r5, r1, ror #8
    1050:	736e755f 	cmnvc	lr, #398458880	; 0x17c00000
    1054:	69636570 	stmdbvs	r3!, {r4, r5, r6, r8, sl, sp, lr}^
    1058:	64656966 	strbtvs	r6, [r5], #-2406	; 0xfffff69a
    105c:	636f6c5f 	cmnvs	pc, #24320	; 0x5f00
    1060:	5f656c61 	svcpl	0x00656c61
    1064:	6f666e69 	svcvs	0x00666e69
    1068:	6c5f5f00 	mrrcvs	15, 0, r5, pc, cr0	; <UNPREDICTABLE>
    106c:	006b636f 	rsbeq	r6, fp, pc, ror #6
    1070:	61726373 	cmnvs	r2, r3, ror r3
    1074:	00686374 	rsbeq	r6, r8, r4, ror r3
    1078:	74726175 	ldrbtvc	r6, [r2], #-373	; 0xfffffe8b
    107c:	6e61635f 	mcrvs	3, 3, r6, cr1, cr15, {2}
    1080:	7465675f 	strbtvc	r6, [r5], #-1887	; 0xfffff8a1
    1084:	726f0063 	rsbvc	r0, pc, #99	; 0x63
    1088:	336e695f 	cmncc	lr, #1556480	; 0x17c000
    108c:	61750032 	cmnvs	r5, r2, lsr r0
    1090:	685f7472 	ldmdavs	pc, {r1, r4, r5, r6, sl, ip, sp, lr}^	; <UNPREDICTABLE>
    1094:	645f7361 	ldrbvs	r7, [pc], #-865	; 109c <_start-0x6f64>
    1098:	00617461 	rsbeq	r7, r1, r1, ror #8
    109c:	6f697067 	svcvs	0x00697067
    10a0:	7465735f 	strbtvc	r7, [r5], #-863	; 0xfffffca1
    10a4:	66666f5f 	uqsaxvs	r6, r6, pc	; <UNPREDICTABLE>
    10a8:	6e616200 	cdpvs	2, 6, cr6, cr1, cr0, {0}
    10ac:	7067006b 	rsbvc	r0, r7, fp, rrx
    10b0:	632e6f69 			; <UNDEFINED> instruction: 0x632e6f69
    10b4:	69706700 	ldmdbvs	r0!, {r8, r9, sl, sp, lr}^
    10b8:	73665f6f 	cmnvc	r6, #444	; 0x1bc
    10bc:	00306c65 	eorseq	r6, r0, r5, ror #24
    10c0:	6f697067 	svcvs	0x00697067
    10c4:	6165725f 	cmnvs	r5, pc, asr r2
    10c8:	70670064 	rsbvc	r0, r7, r4, rrx
    10cc:	735f6f69 	cmpvc	pc, #420	; 0x1a4
    10d0:	6f5f7465 	svcvs	0x005f7465
    10d4:	75707475 	ldrbvc	r7, [r0, #-1141]!	; 0xfffffb8b
    10d8:	70670074 	rsbvc	r0, r7, r4, ror r0
    10dc:	775f6f69 	ldrbvc	r6, [pc, -r9, ror #30]
    10e0:	65746972 	ldrbvs	r6, [r4, #-2418]!	; 0xfffff68e
    10e4:	69706700 	ldmdbvs	r0!, {r8, r9, sl, sp, lr}^
    10e8:	65735f6f 	ldrbvs	r5, [r3, #-3951]!	; 0xfffff091
    10ec:	67003074 	smlsdxvs	r0, r4, r0, r3
    10f0:	5f6f6970 	svcpl	0x006f6970
    10f4:	3076656c 	rsbscc	r6, r6, ip, ror #10
    10f8:	69706700 	ldmdbvs	r0!, {r8, r9, sl, sp, lr}^
    10fc:	65735f6f 	ldrbvs	r5, [r3, #-3951]!	; 0xfffff091
    1100:	6e695f74 	mcrvs	15, 3, r5, cr9, cr4, {3}
    1104:	00747570 	rsbseq	r7, r4, r0, ror r5
    1108:	6f697067 	svcvs	0x00697067
    110c:	7465735f 	strbtvc	r7, [r5], #-863	; 0xfffffca1
    1110:	006e6f5f 	rsbeq	r6, lr, pc, asr pc
    1114:	6f697067 	svcvs	0x00697067
    1118:	6e75665f 	mrcvs	6, 3, r6, cr5, cr15, {2}
    111c:	00745f63 	rsbseq	r5, r4, r3, ror #30
    1120:	6f697067 	svcvs	0x00697067
    1124:	726c635f 	rsbvc	r6, ip, #2080374785	; 0x7c000001
    1128:	62630030 	rsbvs	r0, r3, #48	; 0x30
    112c:	77656e5f 			; <UNDEFINED> instruction: 0x77656e5f
    1130:	31736300 	cmncc	r3, r0, lsl #6
    1134:	2d653034 	stclcs	0, cr3, [r5, #-208]!	; 0xffffff30
    1138:	2f637273 	svccs	0x00637273
    113c:	746e6f63 	strbtvc	r6, [lr], #-3939	; 0xfffff09d
    1140:	2d6c6f72 	stclcs	15, cr6, [ip, #-456]!	; 0xfffffe38
    1144:	636f6c62 	cmnvs	pc, #25088	; 0x6200
    1148:	00632e6b 	rsbeq	r2, r3, fp, ror #28
    114c:	736d656d 	cmnvc	sp, #457179136	; 0x1b400000
    1150:	73007465 	movwvc	r7, #1125	; 0x465
    1154:	5f657a69 	svcpl	0x00657a69
    1158:	696c0074 	stmdbvs	ip!, {r2, r4, r5, r6}^
    115c:	6d2f6362 	stcvs	3, cr6, [pc, #-392]!	; fdc <_start-0x7024>
    1160:	65736d65 	ldrbvs	r6, [r3, #-3429]!	; 0xfffff29b
    1164:	00632e74 	rsbeq	r2, r3, r4, ror lr

Disassembly of section .debug_frame:

00000000 <.debug_frame>:
   0:	0000000c 	andeq	r0, r0, ip
   4:	ffffffff 			; <UNDEFINED> instruction: 0xffffffff
   8:	7c020001 	stcvc	0, cr0, [r2], {1}
   c:	000d0c0e 	andeq	r0, sp, lr, lsl #24
  10:	0000000c 	andeq	r0, r0, ip
  14:	00000000 	andeq	r0, r0, r0
  18:	00008010 	andeq	r8, r0, r0, lsl r0
  1c:	0000000c 	andeq	r0, r0, ip
  20:	0000000c 	andeq	r0, r0, ip
  24:	00000000 	andeq	r0, r0, r0
  28:	0000801c 	andeq	r8, r0, ip, lsl r0
  2c:	00000010 	andeq	r0, r0, r0, lsl r0
  30:	00000018 	andeq	r0, r0, r8, lsl r0
  34:	00000000 	andeq	r0, r0, r0
  38:	0000802c 	andeq	r8, r0, ip, lsr #32
  3c:	00000064 	andeq	r0, r0, r4, rrx
  40:	84100e42 	ldrhi	r0, [r0], #-3650	; 0xfffff1be
  44:	86038504 	strhi	r8, [r3], -r4, lsl #10
  48:	00018e02 	andeq	r8, r1, r2, lsl #28
  4c:	00000018 	andeq	r0, r0, r8, lsl r0
  50:	00000000 	andeq	r0, r0, r0
  54:	00008090 	muleq	r0, r0, r0
  58:	00000068 	andeq	r0, r0, r8, rrx
  5c:	84100e42 	ldrhi	r0, [r0], #-3650	; 0xfffff1be
  60:	86038504 	strhi	r8, [r3], -r4, lsl #10
  64:	00018e02 	andeq	r8, r1, r2, lsl #28
  68:	0000001c 	andeq	r0, r0, ip, lsl r0
  6c:	00000000 	andeq	r0, r0, r0
  70:	000080f8 	strdeq	r8, [r0], -r8	; <UNPREDICTABLE>
  74:	0000003c 	andeq	r0, r0, ip, lsr r0
  78:	84080e42 	strhi	r0, [r8], #-3650	; 0xfffff1be
  7c:	42018e02 	andmi	r8, r1, #2, 28
  80:	0e58180e 	cdpeq	8, 5, cr1, cr8, cr14, {0}
  84:	00000008 	andeq	r0, r0, r8
  88:	00000018 	andeq	r0, r0, r8, lsl r0
  8c:	00000000 	andeq	r0, r0, r0
  90:	00008134 	andeq	r8, r0, r4, lsr r1
  94:	00000024 	andeq	r0, r0, r4, lsr #32
  98:	8e040e42 	cdphi	14, 0, cr0, cr4, cr2, {2}
  9c:	100e4201 	andne	r4, lr, r1, lsl #4
  a0:	00040e4c 	andeq	r0, r4, ip, asr #28
  a4:	00000020 	andeq	r0, r0, r0, lsr #32
  a8:	00000000 	andeq	r0, r0, r0
  ac:	00008158 	andeq	r8, r0, r8, asr r1
  b0:	00000040 	andeq	r0, r0, r0, asr #32
  b4:	84100e42 	ldrhi	r0, [r0], #-3650	; 0xfffff1be
  b8:	86038504 	strhi	r8, [r3], -r4, lsl #10
  bc:	42018e02 	andmi	r8, r1, #2, 28
  c0:	0e5a180e 	cdpeq	8, 5, cr1, cr10, cr14, {0}
  c4:	00000010 	andeq	r0, r0, r0, lsl r0
  c8:	0000002c 	andeq	r0, r0, ip, lsr #32
  cc:	00000000 	andeq	r0, r0, r0
  d0:	00008198 	muleq	r0, r8, r1
  d4:	00000068 	andeq	r0, r0, r8, rrx
  d8:	42080e42 	andmi	r0, r8, #1056	; 0x420
  dc:	0884200e 	stmeq	r4, {r1, r2, r3, sp}
  e0:	06860785 	streq	r0, [r6], r5, lsl #15
  e4:	04880587 	streq	r0, [r8], #1415	; 0x587
  e8:	ce6c038e 	cdpgt	3, 6, cr0, cr12, cr14, {4}
  ec:	c5c6c7c8 	strbgt	ip, [r6, #1992]	; 0x7c8
  f0:	42080ec4 	andmi	r0, r8, #196, 28	; 0xc40
  f4:	0000000e 	andeq	r0, r0, lr
  f8:	00000014 	andeq	r0, r0, r4, lsl r0
  fc:	00000000 	andeq	r0, r0, r0
 100:	00008200 	andeq	r8, r0, r0, lsl #4
 104:	00000018 	andeq	r0, r0, r8, lsl r0
 108:	84080e42 	strhi	r0, [r8], #-3650	; 0xfffff1be
 10c:	00018e02 	andeq	r8, r1, r2, lsl #28
 110:	00000020 	andeq	r0, r0, r0, lsr #32
 114:	00000000 	andeq	r0, r0, r0
 118:	00008218 	andeq	r8, r0, r8, lsl r2
 11c:	00000078 	andeq	r0, r0, r8, ror r0
 120:	84100e42 	ldrhi	r0, [r0], #-3650	; 0xfffff1be
 124:	86038504 	strhi	r8, [r3], -r4, lsl #10
 128:	42018e02 	andmi	r8, r1, #2, 28
 12c:	0e76180e 	cdpeq	8, 7, cr1, cr6, cr14, {0}
 130:	00000010 	andeq	r0, r0, r0, lsl r0
 134:	00000024 	andeq	r0, r0, r4, lsr #32
 138:	00000000 	andeq	r0, r0, r0
 13c:	00008290 	muleq	r0, r0, r2
 140:	00000198 	muleq	r0, r8, r1
 144:	84140e42 	ldrhi	r0, [r4], #-3650	; 0xfffff1be
 148:	86048505 	strhi	r8, [r4], -r5, lsl #10
 14c:	8e028703 	cdphi	7, 0, cr8, cr2, cr3, {0}
 150:	400e4201 	andmi	r4, lr, r1, lsl #4
 154:	0e0a8202 	cdpeq	2, 0, cr8, cr10, cr2, {0}
 158:	000b4214 	andeq	r4, fp, r4, lsl r2
 15c:	00000020 	andeq	r0, r0, r0, lsr #32
 160:	00000000 	andeq	r0, r0, r0
 164:	00008428 	andeq	r8, r0, r8, lsr #8
 168:	00000114 	andeq	r0, r0, r4, lsl r1
 16c:	84100e42 	ldrhi	r0, [r0], #-3650	; 0xfffff1be
 170:	86038504 	strhi	r8, [r3], -r4, lsl #10
 174:	42018e02 	andmi	r8, r1, #2, 28
 178:	7a02400e 	bvc	901b8 <__bss_end__+0x86228>
 17c:	0000100e 	andeq	r1, r0, lr
 180:	00000018 	andeq	r0, r0, r8, lsl r0
 184:	00000000 	andeq	r0, r0, r0
 188:	0000853c 	andeq	r8, r0, ip, lsr r5
 18c:	00000080 	andeq	r0, r0, r0, lsl #1
 190:	84080e42 	strhi	r0, [r8], #-3650	; 0xfffff1be
 194:	42018e02 	andmi	r8, r1, #2, 28
 198:	0000100e 	andeq	r1, r0, lr
 19c:	0000000c 	andeq	r0, r0, ip
 1a0:	ffffffff 			; <UNDEFINED> instruction: 0xffffffff
 1a4:	7c020001 	stcvc	0, cr0, [r2], {1}
 1a8:	000d0c0e 	andeq	r0, sp, lr, lsl #24
 1ac:	0000000c 	andeq	r0, r0, ip
 1b0:	0000019c 	muleq	r0, ip, r1
 1b4:	000085bc 			; <UNDEFINED> instruction: 0x000085bc
 1b8:	00000014 	andeq	r0, r0, r4, lsl r0
 1bc:	0000000c 	andeq	r0, r0, ip
 1c0:	0000019c 	muleq	r0, ip, r1
 1c4:	000085d0 	ldrdeq	r8, [r0], -r0
 1c8:	0000000c 	andeq	r0, r0, ip
 1cc:	00000014 	andeq	r0, r0, r4, lsl r0
 1d0:	0000019c 	muleq	r0, ip, r1
 1d4:	000085dc 	ldrdeq	r8, [r0], -ip
 1d8:	00000008 	andeq	r0, r0, r8
 1dc:	8e040e42 	cdphi	14, 0, cr0, cr4, cr2, {2}
 1e0:	00000001 	andeq	r0, r0, r1
 1e4:	00000014 	andeq	r0, r0, r4, lsl r0
 1e8:	0000019c 	muleq	r0, ip, r1
 1ec:	000085e4 	andeq	r8, r0, r4, ror #11
 1f0:	000000f0 	strdeq	r0, [r0], -r0	; <UNPREDICTABLE>
 1f4:	84080e42 	strhi	r0, [r8], #-3650	; 0xfffff1be
 1f8:	00018e02 	andeq	r8, r1, r2, lsl #28
 1fc:	00000014 	andeq	r0, r0, r4, lsl r0
 200:	0000019c 	muleq	r0, ip, r1
 204:	000086d4 	ldrdeq	r8, [r0], -r4
 208:	00000010 	andeq	r0, r0, r0, lsl r0
 20c:	84080e42 	strhi	r0, [r8], #-3650	; 0xfffff1be
 210:	00018e02 	andeq	r8, r1, r2, lsl #28
 214:	00000014 	andeq	r0, r0, r4, lsl r0
 218:	0000019c 	muleq	r0, ip, r1
 21c:	000086e4 	andeq	r8, r0, r4, ror #13
 220:	00000028 	andeq	r0, r0, r8, lsr #32
 224:	84080e42 	strhi	r0, [r8], #-3650	; 0xfffff1be
 228:	00018e02 	andeq	r8, r1, r2, lsl #28
 22c:	00000014 	andeq	r0, r0, r4, lsl r0
 230:	0000019c 	muleq	r0, ip, r1
 234:	0000870c 	andeq	r8, r0, ip, lsl #14
 238:	00000010 	andeq	r0, r0, r0, lsl r0
 23c:	84080e42 	strhi	r0, [r8], #-3650	; 0xfffff1be
 240:	00018e02 	andeq	r8, r1, r2, lsl #28
 244:	00000018 	andeq	r0, r0, r8, lsl r0
 248:	0000019c 	muleq	r0, ip, r1
 24c:	0000871c 	andeq	r8, r0, ip, lsl r7
 250:	000001c8 	andeq	r0, r0, r8, asr #3
 254:	84100e42 	ldrhi	r0, [r0], #-3650	; 0xfffff1be
 258:	86038504 	strhi	r8, [r3], -r4, lsl #10
 25c:	00018e02 	andeq	r8, r1, r2, lsl #28
 260:	00000018 	andeq	r0, r0, r8, lsl r0
 264:	0000019c 	muleq	r0, ip, r1
 268:	000088e4 	andeq	r8, r0, r4, ror #17
 26c:	000000c4 	andeq	r0, r0, r4, asr #1
 270:	84100e42 	ldrhi	r0, [r0], #-3650	; 0xfffff1be
 274:	86038504 	strhi	r8, [r3], -r4, lsl #10
 278:	00018e02 	andeq	r8, r1, r2, lsl #28
 27c:	00000018 	andeq	r0, r0, r8, lsl r0
 280:	0000019c 	muleq	r0, ip, r1
 284:	000089a8 	andeq	r8, r0, r8, lsr #19
 288:	000000c0 	andeq	r0, r0, r0, asr #1
 28c:	84100e42 	ldrhi	r0, [r0], #-3650	; 0xfffff1be
 290:	86038504 	strhi	r8, [r3], -r4, lsl #10
 294:	00018e02 	andeq	r8, r1, r2, lsl #28
 298:	0000000c 	andeq	r0, r0, ip
 29c:	0000019c 	muleq	r0, ip, r1
 2a0:	00008a68 	andeq	r8, r0, r8, ror #20
 2a4:	00000010 	andeq	r0, r0, r0, lsl r0
 2a8:	00000014 	andeq	r0, r0, r4, lsl r0
 2ac:	0000019c 	muleq	r0, ip, r1
 2b0:	00008a78 	andeq	r8, r0, r8, ror sl
 2b4:	00000094 	muleq	r0, r4, r0
 2b8:	84080e42 	strhi	r0, [r8], #-3650	; 0xfffff1be
 2bc:	00018e02 	andeq	r8, r1, r2, lsl #28
 2c0:	00000014 	andeq	r0, r0, r4, lsl r0
 2c4:	0000019c 	muleq	r0, ip, r1
 2c8:	00008b0c 	andeq	r8, r0, ip, lsl #22
 2cc:	00000018 	andeq	r0, r0, r8, lsl r0
 2d0:	84080e42 	strhi	r0, [r8], #-3650	; 0xfffff1be
 2d4:	00018e02 	andeq	r8, r1, r2, lsl #28
 2d8:	0000000c 	andeq	r0, r0, ip
 2dc:	ffffffff 			; <UNDEFINED> instruction: 0xffffffff
 2e0:	7c020001 	stcvc	0, cr0, [r2], {1}
 2e4:	000d0c0e 	andeq	r0, sp, lr, lsl #24
 2e8:	00000034 	andeq	r0, r0, r4, lsr r0
 2ec:	000002d8 	ldrdeq	r0, [r0], -r8
 2f0:	00008b24 	andeq	r8, r0, r4, lsr #22
 2f4:	00000058 	andeq	r0, r0, r8, asr r0
 2f8:	80100e42 	andshi	r0, r0, r2, asr #28
 2fc:	82038104 	andhi	r8, r3, #4, 2
 300:	42018302 	andmi	r8, r1, #134217728	; 0x8000000
 304:	07841c0e 	streq	r1, [r4, lr, lsl #24]
 308:	058e0685 	streq	r0, [lr, #1669]	; 0x685
 30c:	5c280e42 	stcpl	14, cr0, [r8], #-264	; 0xfffffef8
 310:	ce421c0e 	cdpgt	12, 4, cr1, cr2, cr14, {0}
 314:	100ec4c5 	andne	ip, lr, r5, asr #9
 318:	c1c2c342 	bicgt	ip, r2, r2, asr #6
 31c:	00000ec0 	andeq	r0, r0, r0, asr #29
 320:	0000000c 	andeq	r0, r0, ip
 324:	ffffffff 			; <UNDEFINED> instruction: 0xffffffff
 328:	7c020001 	stcvc	0, cr0, [r2], {1}
 32c:	000d0c0e 	andeq	r0, sp, lr, lsl #24
 330:	0000000c 	andeq	r0, r0, ip
 334:	00000320 	andeq	r0, r0, r0, lsr #6
 338:	00008b7c 	andeq	r8, r0, ip, ror fp
 33c:	00000014 	andeq	r0, r0, r4, lsl r0
 340:	0000000c 	andeq	r0, r0, ip
 344:	00000320 	andeq	r0, r0, r0, lsr #6
 348:	00008b90 	muleq	r0, r0, fp
 34c:	0000002c 	andeq	r0, r0, ip, lsr #32
 350:	0000000c 	andeq	r0, r0, ip
 354:	00000320 	andeq	r0, r0, r0, lsr #6
 358:	00008bbc 			; <UNDEFINED> instruction: 0x00008bbc
 35c:	00000040 	andeq	r0, r0, r0, asr #32
 360:	00000024 	andeq	r0, r0, r4, lsr #32
 364:	00000320 	andeq	r0, r0, r0, lsr #6
 368:	00008bfc 	strdeq	r8, [r0], -ip
 36c:	0000019c 	muleq	r0, ip, r1
 370:	84140e42 	ldrhi	r0, [r4], #-3650	; 0xfffff1be
 374:	86048505 	strhi	r8, [r4], -r5, lsl #10
 378:	8e028703 	cdphi	7, 0, cr8, cr2, cr3, {0}
 37c:	580e4201 	stmdapl	lr, {r0, r9, lr}
 380:	0e0a9202 	cdpeq	2, 0, cr9, cr10, cr2, {0}
 384:	000b4214 	andeq	r4, fp, r4, lsl r2
 388:	00000014 	andeq	r0, r0, r4, lsl r0
 38c:	00000320 	andeq	r0, r0, r0, lsr #6
 390:	00008d98 	muleq	r0, r8, sp
 394:	00000054 	andeq	r0, r0, r4, asr r0
 398:	84080e52 	strhi	r0, [r8], #-3666	; 0xfffff1ae
 39c:	00018e02 	andeq	r8, r1, r2, lsl #28
 3a0:	00000028 	andeq	r0, r0, r8, lsr #32
 3a4:	00000320 	andeq	r0, r0, r0, lsr #6
 3a8:	00008dec 	andeq	r8, r0, ip, ror #27
 3ac:	000002c0 	andeq	r0, r0, r0, asr #5
 3b0:	841c0e42 	ldrhi	r0, [ip], #-3650	; 0xfffff1be
 3b4:	86068507 	strhi	r8, [r6], -r7, lsl #10
 3b8:	88048705 	stmdahi	r4, {r0, r2, r8, r9, sl, pc}
 3bc:	8e028903 	vmlahi.f16	s16, s4, s6	; <UNPREDICTABLE>
 3c0:	b00e4201 	andlt	r4, lr, r1, lsl #4
 3c4:	01500301 	cmpeq	r0, r1, lsl #6
 3c8:	00001c0e 	andeq	r1, r0, lr, lsl #24
 3cc:	0000000c 	andeq	r0, r0, ip
 3d0:	ffffffff 			; <UNDEFINED> instruction: 0xffffffff
 3d4:	7c020001 	stcvc	0, cr0, [r2], {1}
 3d8:	000d0c0e 	andeq	r0, sp, lr, lsl #24
 3dc:	00000014 	andeq	r0, r0, r4, lsl r0
 3e0:	000003cc 	andeq	r0, r0, ip, asr #7
 3e4:	000090ac 	andeq	r9, r0, ip, lsr #1
 3e8:	00000034 	andeq	r0, r0, r4, lsr r0
 3ec:	84080e42 	strhi	r0, [r8], #-3650	; 0xfffff1be
 3f0:	00018e02 	andeq	r8, r1, r2, lsl #28
 3f4:	0000000c 	andeq	r0, r0, ip
 3f8:	ffffffff 			; <UNDEFINED> instruction: 0xffffffff
 3fc:	7c020001 	stcvc	0, cr0, [r2], {1}
 400:	000d0c0e 	andeq	r0, sp, lr, lsl #24
 404:	00000014 	andeq	r0, r0, r4, lsl r0
 408:	000003f4 	strdeq	r0, [r0], -r4
 40c:	000090e0 	andeq	r9, r0, r0, ror #1
 410:	00000014 	andeq	r0, r0, r4, lsl r0
 414:	84080e42 	strhi	r0, [r8], #-3650	; 0xfffff1be
 418:	00018e02 	andeq	r8, r1, r2, lsl #28
 41c:	0000000c 	andeq	r0, r0, ip
 420:	000003f4 	strdeq	r0, [r0], -r4
 424:	000090f4 	strdeq	r9, [r0], -r4
 428:	00000018 	andeq	r0, r0, r8, lsl r0
 42c:	0000000c 	andeq	r0, r0, ip
 430:	000003f4 	strdeq	r0, [r0], -r4
 434:	0000910c 	andeq	r9, r0, ip, lsl #2
 438:	00000010 	andeq	r0, r0, r0, lsl r0
 43c:	0000000c 	andeq	r0, r0, ip
 440:	ffffffff 			; <UNDEFINED> instruction: 0xffffffff
 444:	7c020001 	stcvc	0, cr0, [r2], {1}
 448:	000d0c0e 	andeq	r0, sp, lr, lsl #24
 44c:	0000000c 	andeq	r0, r0, ip
 450:	0000043c 	andeq	r0, r0, ip, lsr r4
 454:	0000911c 	andeq	r9, r0, ip, lsl r1
 458:	00000004 	andeq	r0, r0, r4
 45c:	00000014 	andeq	r0, r0, r4, lsl r0
 460:	0000043c 	andeq	r0, r0, ip, lsr r4
 464:	00009120 	andeq	r9, r0, r0, lsr #2
 468:	00000070 	andeq	r0, r0, r0, ror r0
 46c:	84080e42 	strhi	r0, [r8], #-3650	; 0xfffff1be
 470:	00018e02 	andeq	r8, r1, r2, lsl #28
 474:	0000000c 	andeq	r0, r0, ip
 478:	ffffffff 			; <UNDEFINED> instruction: 0xffffffff
 47c:	7c020001 	stcvc	0, cr0, [r2], {1}
 480:	000d0c0e 	andeq	r0, sp, lr, lsl #24
 484:	0000000c 	andeq	r0, r0, ip
 488:	00000474 	andeq	r0, r0, r4, ror r4
 48c:	00009190 	muleq	r0, r0, r1
 490:	00000018 	andeq	r0, r0, r8, lsl r0
 494:	0000000c 	andeq	r0, r0, ip
 498:	00000474 	andeq	r0, r0, r4, ror r4
 49c:	000091a8 	andeq	r9, r0, r8, lsr #3
 4a0:	00000014 	andeq	r0, r0, r4, lsl r0
 4a4:	00000014 	andeq	r0, r0, r4, lsl r0
 4a8:	00000474 	andeq	r0, r0, r4, ror r4
 4ac:	000091bc 			; <UNDEFINED> instruction: 0x000091bc
 4b0:	0000004c 	andeq	r0, r0, ip, asr #32
 4b4:	84080e42 	strhi	r0, [r8], #-3650	; 0xfffff1be
 4b8:	00018e02 	andeq	r8, r1, r2, lsl #28
 4bc:	0000000c 	andeq	r0, r0, ip
 4c0:	ffffffff 			; <UNDEFINED> instruction: 0xffffffff
 4c4:	7c020001 	stcvc	0, cr0, [r2], {1}
 4c8:	000d0c0e 	andeq	r0, sp, lr, lsl #24
 4cc:	00000014 	andeq	r0, r0, r4, lsl r0
 4d0:	000004bc 			; <UNDEFINED> instruction: 0x000004bc
 4d4:	00009208 	andeq	r9, r0, r8, lsl #4
 4d8:	00000028 	andeq	r0, r0, r8, lsr #32
 4dc:	84080e42 	strhi	r0, [r8], #-3650	; 0xfffff1be
 4e0:	00018e02 	andeq	r8, r1, r2, lsl #28
 4e4:	0000000c 	andeq	r0, r0, ip
 4e8:	ffffffff 			; <UNDEFINED> instruction: 0xffffffff
 4ec:	7c020001 	stcvc	0, cr0, [r2], {1}
 4f0:	000d0c0e 	andeq	r0, sp, lr, lsl #24
 4f4:	0000000c 	andeq	r0, r0, ip
 4f8:	000004e4 	andeq	r0, r0, r4, ror #9
 4fc:	00009230 	andeq	r9, r0, r0, lsr r2
 500:	0000001c 	andeq	r0, r0, ip, lsl r0
 504:	00000014 	andeq	r0, r0, r4, lsl r0
 508:	000004e4 	andeq	r0, r0, r4, ror #9
 50c:	0000924c 	andeq	r9, r0, ip, asr #4
 510:	00000014 	andeq	r0, r0, r4, lsl r0
 514:	84080e42 	strhi	r0, [r8], #-3650	; 0xfffff1be
 518:	00018e02 	andeq	r8, r1, r2, lsl #28
 51c:	00000014 	andeq	r0, r0, r4, lsl r0
 520:	000004e4 	andeq	r0, r0, r4, ror #9
 524:	00009260 	andeq	r9, r0, r0, ror #4
 528:	0000000c 	andeq	r0, r0, ip
 52c:	84080e42 	strhi	r0, [r8], #-3650	; 0xfffff1be
 530:	00018e02 	andeq	r8, r1, r2, lsl #28
 534:	00000018 	andeq	r0, r0, r8, lsl r0
 538:	000004e4 	andeq	r0, r0, r4, ror #9
 53c:	0000926c 	andeq	r9, r0, ip, ror #4
 540:	00000024 	andeq	r0, r0, r4, lsr #32
 544:	84100e42 	ldrhi	r0, [r0], #-3650	; 0xfffff1be
 548:	86038504 	strhi	r8, [r3], -r4, lsl #10
 54c:	00018e02 	andeq	r8, r1, r2, lsl #28
 550:	00000014 	andeq	r0, r0, r4, lsl r0
 554:	000004e4 	andeq	r0, r0, r4, ror #9
 558:	00009290 	muleq	r0, r0, r2
 55c:	00000014 	andeq	r0, r0, r4, lsl r0
 560:	84080e42 	strhi	r0, [r8], #-3650	; 0xfffff1be
 564:	00018e02 	andeq	r8, r1, r2, lsl #28
 568:	00000014 	andeq	r0, r0, r4, lsl r0
 56c:	000004e4 	andeq	r0, r0, r4, ror #9
 570:	000092a4 	andeq	r9, r0, r4, lsr #5
 574:	00000014 	andeq	r0, r0, r4, lsl r0
 578:	84080e42 	strhi	r0, [r8], #-3650	; 0xfffff1be
 57c:	00018e02 	andeq	r8, r1, r2, lsl #28
 580:	0000000c 	andeq	r0, r0, ip
 584:	ffffffff 			; <UNDEFINED> instruction: 0xffffffff
 588:	7c020001 	stcvc	0, cr0, [r2], {1}
 58c:	000d0c0e 	andeq	r0, sp, lr, lsl #24
 590:	00000018 	andeq	r0, r0, r8, lsl r0
 594:	00000580 	andeq	r0, r0, r0, lsl #11
 598:	0000931c 	andeq	r9, r0, ip, lsl r3
 59c:	00000020 	andeq	r0, r0, r0, lsr #32
 5a0:	84100e42 	ldrhi	r0, [r0], #-3650	; 0xfffff1be
 5a4:	86038504 	strhi	r8, [r3], -r4, lsl #10
 5a8:	00018e02 	andeq	r8, r1, r2, lsl #28
 5ac:	00000014 	andeq	r0, r0, r4, lsl r0
 5b0:	00000580 	andeq	r0, r0, r0, lsl #11
 5b4:	0000933c 	andeq	r9, r0, ip, lsr r3
 5b8:	000000b0 	strheq	r0, [r0], -r0	; <UNPREDICTABLE>
 5bc:	84080e42 	strhi	r0, [r8], #-3650	; 0xfffff1be
 5c0:	00018e02 	andeq	r8, r1, r2, lsl #28
 5c4:	00000014 	andeq	r0, r0, r4, lsl r0
 5c8:	00000580 	andeq	r0, r0, r0, lsl #11
 5cc:	000093ec 	andeq	r9, r0, ip, ror #7
 5d0:	00000018 	andeq	r0, r0, r8, lsl r0
 5d4:	84080e42 	strhi	r0, [r8], #-3650	; 0xfffff1be
 5d8:	00018e02 	andeq	r8, r1, r2, lsl #28
 5dc:	00000014 	andeq	r0, r0, r4, lsl r0
 5e0:	00000580 	andeq	r0, r0, r0, lsl #11
 5e4:	00009404 	andeq	r9, r0, r4, lsl #8
 5e8:	00000020 	andeq	r0, r0, r0, lsr #32
 5ec:	84080e42 	strhi	r0, [r8], #-3650	; 0xfffff1be
 5f0:	00018e02 	andeq	r8, r1, r2, lsl #28
 5f4:	00000014 	andeq	r0, r0, r4, lsl r0
 5f8:	00000580 	andeq	r0, r0, r0, lsl #11
 5fc:	00009424 	andeq	r9, r0, r4, lsr #8
 600:	00000024 	andeq	r0, r0, r4, lsr #32
 604:	84080e42 	strhi	r0, [r8], #-3650	; 0xfffff1be
 608:	00018e02 	andeq	r8, r1, r2, lsl #28
 60c:	00000014 	andeq	r0, r0, r4, lsl r0
 610:	00000580 	andeq	r0, r0, r0, lsl #11
 614:	00009448 	andeq	r9, r0, r8, asr #8
 618:	00000028 	andeq	r0, r0, r8, lsr #32
 61c:	84080e42 	strhi	r0, [r8], #-3650	; 0xfffff1be
 620:	00018e02 	andeq	r8, r1, r2, lsl #28
 624:	00000014 	andeq	r0, r0, r4, lsl r0
 628:	00000580 	andeq	r0, r0, r0, lsl #11
 62c:	00009470 	andeq	r9, r0, r0, ror r4
 630:	0000000c 	andeq	r0, r0, ip
 634:	84080e42 	strhi	r0, [r8], #-3650	; 0xfffff1be
 638:	00018e02 	andeq	r8, r1, r2, lsl #28
 63c:	0000000c 	andeq	r0, r0, ip
 640:	ffffffff 			; <UNDEFINED> instruction: 0xffffffff
 644:	7c020001 	stcvc	0, cr0, [r2], {1}
 648:	000d0c0e 	andeq	r0, sp, lr, lsl #24
 64c:	00000018 	andeq	r0, r0, r8, lsl r0
 650:	0000063c 	andeq	r0, r0, ip, lsr r6
 654:	0000947c 	andeq	r9, r0, ip, ror r4
 658:	00000068 	andeq	r0, r0, r8, rrx
 65c:	84100e4a 	ldrhi	r0, [r0], #-3658	; 0xfffff1b6
 660:	86038504 	strhi	r8, [r3], -r4, lsl #10
 664:	00018e02 	andeq	r8, r1, r2, lsl #28
 668:	00000014 	andeq	r0, r0, r4, lsl r0
 66c:	0000063c 	andeq	r0, r0, ip, lsr r6
 670:	000094e4 	andeq	r9, r0, r4, ror #9
 674:	00000010 	andeq	r0, r0, r0, lsl r0
 678:	84080e42 	strhi	r0, [r8], #-3650	; 0xfffff1be
 67c:	00018e02 	andeq	r8, r1, r2, lsl #28
 680:	00000014 	andeq	r0, r0, r4, lsl r0
 684:	0000063c 	andeq	r0, r0, ip, lsr r6
 688:	000094f4 	strdeq	r9, [r0], -r4
 68c:	00000024 	andeq	r0, r0, r4, lsr #32
 690:	84080e46 	strhi	r0, [r8], #-3654	; 0xfffff1ba
 694:	00018e02 	andeq	r8, r1, r2, lsl #28
 698:	00000014 	andeq	r0, r0, r4, lsl r0
 69c:	0000063c 	andeq	r0, r0, ip, lsr r6
 6a0:	00009518 	andeq	r9, r0, r8, lsl r5
 6a4:	00000024 	andeq	r0, r0, r4, lsr #32
 6a8:	84080e46 	strhi	r0, [r8], #-3654	; 0xfffff1ba
 6ac:	00018e02 	andeq	r8, r1, r2, lsl #28
 6b0:	00000014 	andeq	r0, r0, r4, lsl r0
 6b4:	0000063c 	andeq	r0, r0, ip, lsr r6
 6b8:	0000953c 	andeq	r9, r0, ip, lsr r5
 6bc:	00000010 	andeq	r0, r0, r0, lsl r0
 6c0:	84080e42 	strhi	r0, [r8], #-3650	; 0xfffff1be
 6c4:	00018e02 	andeq	r8, r1, r2, lsl #28
 6c8:	00000014 	andeq	r0, r0, r4, lsl r0
 6cc:	0000063c 	andeq	r0, r0, ip, lsr r6
 6d0:	0000954c 	andeq	r9, r0, ip, asr #10
 6d4:	0000001c 	andeq	r0, r0, ip, lsl r0
 6d8:	84080e42 	strhi	r0, [r8], #-3650	; 0xfffff1be
 6dc:	00018e02 	andeq	r8, r1, r2, lsl #28
 6e0:	00000018 	andeq	r0, r0, r8, lsl r0
 6e4:	0000063c 	andeq	r0, r0, ip, lsr r6
 6e8:	00009568 	andeq	r9, r0, r8, ror #10
 6ec:	00000034 	andeq	r0, r0, r4, lsr r0
 6f0:	84080e46 	strhi	r0, [r8], #-3654	; 0xfffff1ba
 6f4:	4e018e02 	cdpmi	14, 0, cr8, cr1, cr2, {0}
 6f8:	cec4000e 	cdpgt	0, 12, cr0, cr4, cr14, {0}
 6fc:	0000000c 	andeq	r0, r0, ip
 700:	ffffffff 			; <UNDEFINED> instruction: 0xffffffff
 704:	7c020001 	stcvc	0, cr0, [r2], {1}
 708:	000d0c0e 	andeq	r0, sp, lr, lsl #24
 70c:	00000014 	andeq	r0, r0, r4, lsl r0
 710:	000006fc 	strdeq	r0, [r0], -ip
 714:	0000959c 	muleq	r0, ip, r5
 718:	00000028 	andeq	r0, r0, r8, lsr #32
 71c:	84080e42 	strhi	r0, [r8], #-3650	; 0xfffff1be
 720:	00018e02 	andeq	r8, r1, r2, lsl #28
 724:	0000000c 	andeq	r0, r0, ip
 728:	000006fc 	strdeq	r0, [r0], -ip
 72c:	000095c4 	andeq	r9, r0, r4, asr #11
 730:	00000028 	andeq	r0, r0, r8, lsr #32
 734:	0000000c 	andeq	r0, r0, ip
 738:	ffffffff 			; <UNDEFINED> instruction: 0xffffffff
 73c:	7c020001 	stcvc	0, cr0, [r2], {1}
 740:	000d0c0e 	andeq	r0, sp, lr, lsl #24
 744:	0000000c 	andeq	r0, r0, ip
 748:	00000734 	andeq	r0, r0, r4, lsr r7
 74c:	000095ec 	andeq	r9, r0, ip, ror #11
 750:	00000020 	andeq	r0, r0, r0, lsr #32
