
adc1115.elf:     file format elf32-littlearm


Disassembly of section .text:

00008000 <_start>:
    8000:	e3a0d302 	mov	sp, #134217728	; 0x8000000
    8004:	e3a0b000 	mov	fp, #0
    8008:	eb00037a 	bl	8df8 <_cstart>
    800c:	eb0003a0 	bl	8e94 <rpi_reboot>

00008010 <adc_write16>:
    8010:	e52de004 	push	{lr}		; (str lr, [sp, #-4]!)
    8014:	e24dd014 	sub	sp, sp, #20
    8018:	e1cd20b6 	strh	r2, [sp, #6]
    801c:	e5cd100c 	strb	r1, [sp, #12]
    8020:	e5cd200e 	strb	r2, [sp, #14]
    8024:	e1a02422 	lsr	r2, r2, #8
    8028:	e5cd200d 	strb	r2, [sp, #13]
    802c:	e3a02003 	mov	r2, #3
    8030:	e28d100c 	add	r1, sp, #12
    8034:	eb00015f 	bl	85b8 <i2c_write>
    8038:	e28dd014 	add	sp, sp, #20
    803c:	e49df004 	pop	{pc}		; (ldr pc, [sp], #4)

00008040 <adc_read16>:
    8040:	e92d4010 	push	{r4, lr}
    8044:	e24dd010 	sub	sp, sp, #16
    8048:	e1a04000 	mov	r4, r0
    804c:	e28d3010 	add	r3, sp, #16
    8050:	e5631009 	strb	r1, [r3, #-9]!
    8054:	e3a02001 	mov	r2, #1
    8058:	e1a01003 	mov	r1, r3
    805c:	eb000155 	bl	85b8 <i2c_write>
    8060:	e3a02002 	mov	r2, #2
    8064:	e28d100c 	add	r1, sp, #12
    8068:	e1a00004 	mov	r0, r4
    806c:	eb000182 	bl	867c <i2c_read>
    8070:	e5dd000c 	ldrb	r0, [sp, #12]
    8074:	e1a00400 	lsl	r0, r0, #8
    8078:	e6bf0070 	sxth	r0, r0
    807c:	e5dd300d 	ldrb	r3, [sp, #13]
    8080:	e1800003 	orr	r0, r0, r3
    8084:	e6ff0070 	uxth	r0, r0
    8088:	e28dd010 	add	sp, sp, #16
    808c:	e8bd8010 	pop	{r4, pc}

00008090 <adc_reset>:
    8090:	e52de004 	push	{lr}		; (str lr, [sp, #-4]!)
    8094:	e24dd00c 	sub	sp, sp, #12
    8098:	e28d1008 	add	r1, sp, #8
    809c:	e3a03006 	mov	r3, #6
    80a0:	e5613001 	strb	r3, [r1, #-1]!
    80a4:	e3a02001 	mov	r2, #1
    80a8:	e3a00000 	mov	r0, #0
    80ac:	eb000141 	bl	85b8 <i2c_write>
    80b0:	e28dd00c 	add	sp, sp, #12
    80b4:	e49df004 	pop	{pc}		; (ldr pc, [sp], #4)

000080b8 <notmain>:
    80b8:	e92d4070 	push	{r4, r5, r6, lr}
    80bc:	eb0003d4 	bl	9014 <uart_init>
    80c0:	e3a0001e 	mov	r0, #30
    80c4:	eb0003a7 	bl	8f68 <delay_ms>
    80c8:	eb0001a0 	bl	8750 <i2c_init>
    80cc:	e3a0001e 	mov	r0, #30
    80d0:	eb0003a4 	bl	8f68 <delay_ms>
    80d4:	ebffffed 	bl	8090 <adc_reset>
    80d8:	e3a00019 	mov	r0, #25
    80dc:	eb000398 	bl	8f44 <delay_us>
    80e0:	e3a01001 	mov	r1, #1
    80e4:	e3a00048 	mov	r0, #72	; 0x48
    80e8:	ebffffd4 	bl	8040 <adc_read16>
    80ec:	e1a04000 	mov	r4, r0
    80f0:	e1a05420 	lsr	r5, r0, #8
    80f4:	e6ff5075 	uxth	r5, r5
    80f8:	e1a03005 	mov	r3, r5
    80fc:	e6ef2070 	uxtb	r2, r0
    8100:	e1a01000 	mov	r1, r0
    8104:	e59f0154 	ldr	r0, [pc, #340]	; 8260 <notmain+0x1a8>
    8108:	eb0001bb 	bl	87fc <printk>
    810c:	e3150001 	tst	r5, #1
    8110:	0a00000a 	beq	8140 <notmain+0x88>
    8114:	e1a032a4 	lsr	r3, r4, #5
    8118:	e2033007 	and	r3, r3, #7
    811c:	e3530004 	cmp	r3, #4
    8120:	0a00000d 	beq	815c <notmain+0xa4>
    8124:	eb000328 	bl	8dcc <rpi_reset_putc>
    8128:	e3a03055 	mov	r3, #85	; 0x55
    812c:	e59f2130 	ldr	r2, [pc, #304]	; 8264 <notmain+0x1ac>
    8130:	e59f1130 	ldr	r1, [pc, #304]	; 8268 <notmain+0x1b0>
    8134:	e59f0130 	ldr	r0, [pc, #304]	; 826c <notmain+0x1b4>
    8138:	eb0001af 	bl	87fc <printk>
    813c:	eb000367 	bl	8ee0 <clean_reboot>
    8140:	eb000321 	bl	8dcc <rpi_reset_putc>
    8144:	e3a03053 	mov	r3, #83	; 0x53
    8148:	e59f2114 	ldr	r2, [pc, #276]	; 8264 <notmain+0x1ac>
    814c:	e59f1114 	ldr	r1, [pc, #276]	; 8268 <notmain+0x1b0>
    8150:	e59f0118 	ldr	r0, [pc, #280]	; 8270 <notmain+0x1b8>
    8154:	eb0001a8 	bl	87fc <printk>
    8158:	eb000360 	bl	8ee0 <clean_reboot>
    815c:	e1a034a4 	lsr	r3, r4, #9
    8160:	e2033007 	and	r3, r3, #7
    8164:	e3530002 	cmp	r3, #2
    8168:	0a000006 	beq	8188 <notmain+0xd0>
    816c:	eb000316 	bl	8dcc <rpi_reset_putc>
    8170:	e3a03057 	mov	r3, #87	; 0x57
    8174:	e59f20e8 	ldr	r2, [pc, #232]	; 8264 <notmain+0x1ac>
    8178:	e59f10e8 	ldr	r1, [pc, #232]	; 8268 <notmain+0x1b0>
    817c:	e59f00f0 	ldr	r0, [pc, #240]	; 8274 <notmain+0x1bc>
    8180:	eb00019d 	bl	87fc <printk>
    8184:	eb000355 	bl	8ee0 <clean_reboot>
    8188:	e3c42efe 	bic	r2, r4, #4064	; 0xfe0
    818c:	e6ff2072 	uxth	r2, r2
    8190:	e3822e2e 	orr	r2, r2, #736	; 0x2e0
    8194:	e3a01001 	mov	r1, #1
    8198:	e3a00048 	mov	r0, #72	; 0x48
    819c:	ebffff9b 	bl	8010 <adc_write16>
    81a0:	e3a01001 	mov	r1, #1
    81a4:	e3a00048 	mov	r0, #72	; 0x48
    81a8:	ebffffa4 	bl	8040 <adc_read16>
    81ac:	e3100c01 	tst	r0, #256	; 0x100
    81b0:	1a00000a 	bne	81e0 <notmain+0x128>
    81b4:	e1a032a0 	lsr	r3, r0, #5
    81b8:	e2033007 	and	r3, r3, #7
    81bc:	e3530007 	cmp	r3, #7
    81c0:	0a00000d 	beq	81fc <notmain+0x144>
    81c4:	eb000300 	bl	8dcc <rpi_reset_putc>
    81c8:	e3a0306e 	mov	r3, #110	; 0x6e
    81cc:	e59f2090 	ldr	r2, [pc, #144]	; 8264 <notmain+0x1ac>
    81d0:	e59f1090 	ldr	r1, [pc, #144]	; 8268 <notmain+0x1b0>
    81d4:	e59f009c 	ldr	r0, [pc, #156]	; 8278 <notmain+0x1c0>
    81d8:	eb000187 	bl	87fc <printk>
    81dc:	eb00033f 	bl	8ee0 <clean_reboot>
    81e0:	eb0002f9 	bl	8dcc <rpi_reset_putc>
    81e4:	e3a0306c 	mov	r3, #108	; 0x6c
    81e8:	e59f2074 	ldr	r2, [pc, #116]	; 8264 <notmain+0x1ac>
    81ec:	e59f1074 	ldr	r1, [pc, #116]	; 8268 <notmain+0x1b0>
    81f0:	e59f0084 	ldr	r0, [pc, #132]	; 827c <notmain+0x1c4>
    81f4:	eb000180 	bl	87fc <printk>
    81f8:	eb000338 	bl	8ee0 <clean_reboot>
    81fc:	e1a004a0 	lsr	r0, r0, #9
    8200:	e2000007 	and	r0, r0, #7
    8204:	e3500001 	cmp	r0, #1
    8208:	0a000012 	beq	8258 <notmain+0x1a0>
    820c:	eb0002ee 	bl	8dcc <rpi_reset_putc>
    8210:	e3a03070 	mov	r3, #112	; 0x70
    8214:	e59f2048 	ldr	r2, [pc, #72]	; 8264 <notmain+0x1ac>
    8218:	e59f1048 	ldr	r1, [pc, #72]	; 8268 <notmain+0x1b0>
    821c:	e59f005c 	ldr	r0, [pc, #92]	; 8280 <notmain+0x1c8>
    8220:	eb000175 	bl	87fc <printk>
    8224:	eb00032d 	bl	8ee0 <clean_reboot>
    8228:	e3a01000 	mov	r1, #0
    822c:	e3a00048 	mov	r0, #72	; 0x48
    8230:	ebffff82 	bl	8040 <adc_read16>
    8234:	e6bf1070 	sxth	r1, r0
    8238:	e59f0044 	ldr	r0, [pc, #68]	; 8284 <notmain+0x1cc>
    823c:	eb00016e 	bl	87fc <printk>
    8240:	e3a00ffa 	mov	r0, #1000	; 0x3e8
    8244:	eb000347 	bl	8f68 <delay_ms>
    8248:	e2844001 	add	r4, r4, #1
    824c:	e3540013 	cmp	r4, #19
    8250:	dafffff4 	ble	8228 <notmain+0x170>
    8254:	eb000321 	bl	8ee0 <clean_reboot>
    8258:	e3a04000 	mov	r4, #0
    825c:	eafffffa 	b	824c <notmain+0x194>
    8260:	000092f4 	strdeq	r9, [r0], -r4
    8264:	000092ec 	andeq	r9, r0, ip, ror #5
    8268:	00009320 	andeq	r9, r0, r0, lsr #6
    826c:	0000934c 	andeq	r9, r0, ip, asr #6
    8270:	0000932c 	andeq	r9, r0, ip, lsr #6
    8274:	00009370 	andeq	r9, r0, r0, ror r3
    8278:	000093b4 			; <UNDEFINED> instruction: 0x000093b4
    827c:	00009394 	muleq	r0, r4, r3
    8280:	000093d8 	ldrdeq	r9, [r0], -r8
    8284:	000093f8 	strdeq	r9, [r0], -r8

00008288 <clear_c>:
    8288:	e3c0000e 	bic	r0, r0, #14
    828c:	e3c00040 	bic	r0, r0, #64	; 0x40
    8290:	e3c00b1e 	bic	r0, r0, #30720	; 0x7800
    8294:	e6ff0070 	uxth	r0, r0
    8298:	e12fff1e 	bx	lr

0000829c <clear_s>:
    829c:	e1a00b00 	lsl	r0, r0, #22
    82a0:	e1a00b20 	lsr	r0, r0, #22
    82a4:	e12fff1e 	bx	lr

000082a8 <check_layout>:
    82a8:	e52de004 	push	{lr}		; (str lr, [sp, #-4]!)
    82ac:	e49df004 	pop	{pc}		; (ldr pc, [sp], #4)

000082b0 <xfer_end>:
    82b0:	e92d4010 	push	{r4, lr}
    82b4:	e59f30c0 	ldr	r3, [pc, #192]	; 837c <xfer_end+0xcc>
    82b8:	e5933004 	ldr	r3, [r3, #4]
    82bc:	e3130002 	tst	r3, #2
    82c0:	1a000015 	bne	831c <xfer_end+0x6c>
    82c4:	e59f30b0 	ldr	r3, [pc, #176]	; 837c <xfer_end+0xcc>
    82c8:	e5933004 	ldr	r3, [r3, #4]
    82cc:	e3130c01 	tst	r3, #256	; 0x100
    82d0:	1a00000a 	bne	8300 <xfer_end+0x50>
    82d4:	e59f30a0 	ldr	r3, [pc, #160]	; 837c <xfer_end+0xcc>
    82d8:	e5933004 	ldr	r3, [r3, #4]
    82dc:	e3130c02 	tst	r3, #512	; 0x200
    82e0:	0afffff3 	beq	82b4 <xfer_end+0x4>
    82e4:	eb0002b8 	bl	8dcc <rpi_reset_putc>
    82e8:	e59f3090 	ldr	r3, [pc, #144]	; 8380 <xfer_end+0xd0>
    82ec:	e59f2090 	ldr	r2, [pc, #144]	; 8384 <xfer_end+0xd4>
    82f0:	e59f1090 	ldr	r1, [pc, #144]	; 8388 <xfer_end+0xd8>
    82f4:	e59f0090 	ldr	r0, [pc, #144]	; 838c <xfer_end+0xdc>
    82f8:	eb00013f 	bl	87fc <printk>
    82fc:	eb0002f7 	bl	8ee0 <clean_reboot>
    8300:	eb0002b1 	bl	8dcc <rpi_reset_putc>
    8304:	e59f3074 	ldr	r3, [pc, #116]	; 8380 <xfer_end+0xd0>
    8308:	e59f2074 	ldr	r2, [pc, #116]	; 8384 <xfer_end+0xd4>
    830c:	e59f1074 	ldr	r1, [pc, #116]	; 8388 <xfer_end+0xd8>
    8310:	e59f0078 	ldr	r0, [pc, #120]	; 8390 <xfer_end+0xe0>
    8314:	eb000138 	bl	87fc <printk>
    8318:	eb0002f0 	bl	8ee0 <clean_reboot>
    831c:	e59f3058 	ldr	r3, [pc, #88]	; 837c <xfer_end+0xcc>
    8320:	e5933004 	ldr	r3, [r3, #4]
    8324:	e3130001 	tst	r3, #1
    8328:	1a000005 	bne	8344 <xfer_end+0x94>
    832c:	e59f3048 	ldr	r3, [pc, #72]	; 837c <xfer_end+0xcc>
    8330:	e5933004 	ldr	r3, [r3, #4]
    8334:	e3130c01 	tst	r3, #256	; 0x100
    8338:	1a000008 	bne	8360 <xfer_end+0xb0>
    833c:	eb000313 	bl	8f90 <dev_barrier>
    8340:	e8bd8010 	pop	{r4, pc}
    8344:	eb0002a0 	bl	8dcc <rpi_reset_putc>
    8348:	e59f3044 	ldr	r3, [pc, #68]	; 8394 <xfer_end+0xe4>
    834c:	e59f2030 	ldr	r2, [pc, #48]	; 8384 <xfer_end+0xd4>
    8350:	e59f1030 	ldr	r1, [pc, #48]	; 8388 <xfer_end+0xd8>
    8354:	e59f003c 	ldr	r0, [pc, #60]	; 8398 <xfer_end+0xe8>
    8358:	eb000127 	bl	87fc <printk>
    835c:	eb0002df 	bl	8ee0 <clean_reboot>
    8360:	eb000299 	bl	8dcc <rpi_reset_putc>
    8364:	e59f3030 	ldr	r3, [pc, #48]	; 839c <xfer_end+0xec>
    8368:	e59f2014 	ldr	r2, [pc, #20]	; 8384 <xfer_end+0xd4>
    836c:	e59f1014 	ldr	r1, [pc, #20]	; 8388 <xfer_end+0xd8>
    8370:	e59f0028 	ldr	r0, [pc, #40]	; 83a0 <xfer_end+0xf0>
    8374:	eb000120 	bl	87fc <printk>
    8378:	eb0002d8 	bl	8ee0 <clean_reboot>
    837c:	20804000 	addcs	r4, r0, r0
    8380:	00000116 	andeq	r0, r0, r6, lsl r1
    8384:	00009410 	andeq	r9, r0, r0, lsl r4
    8388:	0000944c 	andeq	r9, r0, ip, asr #8
    838c:	00009568 	andeq	r9, r0, r8, ror #10
    8390:	00009544 	andeq	r9, r0, r4, asr #10
    8394:	00000119 	andeq	r0, r0, r9, lsl r1
    8398:	00009598 	muleq	r0, r8, r5
    839c:	0000011b 	andeq	r0, r0, fp, lsl r1
    83a0:	000095bc 			; <UNDEFINED> instruction: 0x000095bc

000083a4 <read_s>:
    83a4:	e92d4010 	push	{r4, lr}
    83a8:	eb00030a 	bl	8fd8 <get32>
    83ac:	ebffffba 	bl	829c <clear_s>
    83b0:	e8bd8010 	pop	{r4, pc}

000083b4 <reset_status>:
    83b4:	e92d4010 	push	{r4, lr}
    83b8:	e59f4018 	ldr	r4, [pc, #24]	; 83d8 <reset_status+0x24>
    83bc:	e1a00004 	mov	r0, r4
    83c0:	ebfffff7 	bl	83a4 <read_s>
    83c4:	e3801002 	orr	r1, r0, #2
    83c8:	e3811c03 	orr	r1, r1, #768	; 0x300
    83cc:	e1a00004 	mov	r0, r4
    83d0:	eb0002f4 	bl	8fa8 <put32>
    83d4:	e8bd8010 	pop	{r4, pc}
    83d8:	20804004 	addcs	r4, r0, r4

000083dc <read_c>:
    83dc:	e92d4010 	push	{r4, lr}
    83e0:	eb0002fc 	bl	8fd8 <get32>
    83e4:	ebffffa7 	bl	8288 <clear_c>
    83e8:	e8bd8010 	pop	{r4, pc}

000083ec <xfer_start>:
    83ec:	e92d4070 	push	{r4, r5, r6, lr}
    83f0:	e1a06000 	mov	r6, r0
    83f4:	e1a05001 	mov	r5, r1
    83f8:	e1a04002 	mov	r4, r2
    83fc:	eb0002e3 	bl	8f90 <dev_barrier>
    8400:	e59f3180 	ldr	r3, [pc, #384]	; 8588 <xfer_start+0x19c>
    8404:	e5933004 	ldr	r3, [r3, #4]
    8408:	e3130001 	tst	r3, #1
    840c:	0a000015 	beq	8468 <xfer_start+0x7c>
    8410:	e59f3170 	ldr	r3, [pc, #368]	; 8588 <xfer_start+0x19c>
    8414:	e5933004 	ldr	r3, [r3, #4]
    8418:	e3130c01 	tst	r3, #256	; 0x100
    841c:	1a00000a 	bne	844c <xfer_start+0x60>
    8420:	e59f3160 	ldr	r3, [pc, #352]	; 8588 <xfer_start+0x19c>
    8424:	e5933004 	ldr	r3, [r3, #4]
    8428:	e3130c02 	tst	r3, #512	; 0x200
    842c:	0afffff3 	beq	8400 <xfer_start+0x14>
    8430:	eb000265 	bl	8dcc <rpi_reset_putc>
    8434:	e3a030f6 	mov	r3, #246	; 0xf6
    8438:	e59f214c 	ldr	r2, [pc, #332]	; 858c <xfer_start+0x1a0>
    843c:	e59f114c 	ldr	r1, [pc, #332]	; 8590 <xfer_start+0x1a4>
    8440:	e59f014c 	ldr	r0, [pc, #332]	; 8594 <xfer_start+0x1a8>
    8444:	eb0000ec 	bl	87fc <printk>
    8448:	eb0002a4 	bl	8ee0 <clean_reboot>
    844c:	eb00025e 	bl	8dcc <rpi_reset_putc>
    8450:	e3a030f6 	mov	r3, #246	; 0xf6
    8454:	e59f2130 	ldr	r2, [pc, #304]	; 858c <xfer_start+0x1a0>
    8458:	e59f1130 	ldr	r1, [pc, #304]	; 8590 <xfer_start+0x1a4>
    845c:	e59f0134 	ldr	r0, [pc, #308]	; 8598 <xfer_start+0x1ac>
    8460:	eb0000e5 	bl	87fc <printk>
    8464:	eb00029d 	bl	8ee0 <clean_reboot>
    8468:	e59f3118 	ldr	r3, [pc, #280]	; 8588 <xfer_start+0x19c>
    846c:	e5933004 	ldr	r3, [r3, #4]
    8470:	e3130040 	tst	r3, #64	; 0x40
    8474:	0a000026 	beq	8514 <xfer_start+0x128>
    8478:	ebffffcd 	bl	83b4 <reset_status>
    847c:	e1b033a6 	lsrs	r3, r6, #7
    8480:	1a00002a 	bne	8530 <xfer_start+0x144>
    8484:	e1a01006 	mov	r1, r6
    8488:	e59f010c 	ldr	r0, [pc, #268]	; 859c <xfer_start+0x1b0>
    848c:	eb0002c5 	bl	8fa8 <put32>
    8490:	e1b03825 	lsrs	r3, r5, #16
    8494:	1a00002c 	bne	854c <xfer_start+0x160>
    8498:	e1a01005 	mov	r1, r5
    849c:	e59f00fc 	ldr	r0, [pc, #252]	; 85a0 <xfer_start+0x1b4>
    84a0:	eb0002c0 	bl	8fa8 <put32>
    84a4:	e59f50dc 	ldr	r5, [pc, #220]	; 8588 <xfer_start+0x19c>
    84a8:	e1a00005 	mov	r0, r5
    84ac:	ebffffca 	bl	83dc <read_c>
    84b0:	e38000b0 	orr	r0, r0, #176	; 0xb0
    84b4:	e2041001 	and	r1, r4, #1
    84b8:	e3c00001 	bic	r0, r0, #1
    84bc:	e1811000 	orr	r1, r1, r0
    84c0:	e1a00005 	mov	r0, r5
    84c4:	eb0002b7 	bl	8fa8 <put32>
    84c8:	e59f30b8 	ldr	r3, [pc, #184]	; 8588 <xfer_start+0x19c>
    84cc:	e5933004 	ldr	r3, [r3, #4]
    84d0:	e3130001 	tst	r3, #1
    84d4:	1a00002a 	bne	8584 <xfer_start+0x198>
    84d8:	e59f30a8 	ldr	r3, [pc, #168]	; 8588 <xfer_start+0x19c>
    84dc:	e5933004 	ldr	r3, [r3, #4]
    84e0:	e3130c01 	tst	r3, #256	; 0x100
    84e4:	1a00001f 	bne	8568 <xfer_start+0x17c>
    84e8:	e59f3098 	ldr	r3, [pc, #152]	; 8588 <xfer_start+0x19c>
    84ec:	e5933004 	ldr	r3, [r3, #4]
    84f0:	e3130c02 	tst	r3, #512	; 0x200
    84f4:	0afffff3 	beq	84c8 <xfer_start+0xdc>
    84f8:	eb000233 	bl	8dcc <rpi_reset_putc>
    84fc:	e59f30a0 	ldr	r3, [pc, #160]	; 85a4 <xfer_start+0x1b8>
    8500:	e59f2084 	ldr	r2, [pc, #132]	; 858c <xfer_start+0x1a0>
    8504:	e59f1084 	ldr	r1, [pc, #132]	; 8590 <xfer_start+0x1a4>
    8508:	e59f0084 	ldr	r0, [pc, #132]	; 8594 <xfer_start+0x1a8>
    850c:	eb0000ba 	bl	87fc <printk>
    8510:	eb000272 	bl	8ee0 <clean_reboot>
    8514:	eb00022c 	bl	8dcc <rpi_reset_putc>
    8518:	e3a030f9 	mov	r3, #249	; 0xf9
    851c:	e59f2068 	ldr	r2, [pc, #104]	; 858c <xfer_start+0x1a0>
    8520:	e59f1068 	ldr	r1, [pc, #104]	; 8590 <xfer_start+0x1a4>
    8524:	e59f007c 	ldr	r0, [pc, #124]	; 85a8 <xfer_start+0x1bc>
    8528:	eb0000b3 	bl	87fc <printk>
    852c:	eb00026b 	bl	8ee0 <clean_reboot>
    8530:	eb000225 	bl	8dcc <rpi_reset_putc>
    8534:	e3a030fe 	mov	r3, #254	; 0xfe
    8538:	e59f204c 	ldr	r2, [pc, #76]	; 858c <xfer_start+0x1a0>
    853c:	e59f104c 	ldr	r1, [pc, #76]	; 8590 <xfer_start+0x1a4>
    8540:	e59f0064 	ldr	r0, [pc, #100]	; 85ac <xfer_start+0x1c0>
    8544:	eb0000ac 	bl	87fc <printk>
    8548:	eb000264 	bl	8ee0 <clean_reboot>
    854c:	eb00021e 	bl	8dcc <rpi_reset_putc>
    8550:	e59f3058 	ldr	r3, [pc, #88]	; 85b0 <xfer_start+0x1c4>
    8554:	e59f2030 	ldr	r2, [pc, #48]	; 858c <xfer_start+0x1a0>
    8558:	e59f1030 	ldr	r1, [pc, #48]	; 8590 <xfer_start+0x1a4>
    855c:	e59f0050 	ldr	r0, [pc, #80]	; 85b4 <xfer_start+0x1c8>
    8560:	eb0000a5 	bl	87fc <printk>
    8564:	eb00025d 	bl	8ee0 <clean_reboot>
    8568:	eb000217 	bl	8dcc <rpi_reset_putc>
    856c:	e59f3030 	ldr	r3, [pc, #48]	; 85a4 <xfer_start+0x1b8>
    8570:	e59f2014 	ldr	r2, [pc, #20]	; 858c <xfer_start+0x1a0>
    8574:	e59f1014 	ldr	r1, [pc, #20]	; 8590 <xfer_start+0x1a4>
    8578:	e59f0018 	ldr	r0, [pc, #24]	; 8598 <xfer_start+0x1ac>
    857c:	eb00009e 	bl	87fc <printk>
    8580:	eb000256 	bl	8ee0 <clean_reboot>
    8584:	e8bd8070 	pop	{r4, r5, r6, pc}
    8588:	20804000 	addcs	r4, r0, r0
    858c:	0000941c 	andeq	r9, r0, ip, lsl r4
    8590:	0000944c 	andeq	r9, r0, ip, asr #8
    8594:	00009568 	andeq	r9, r0, r8, ror #10
    8598:	00009544 	andeq	r9, r0, r4, asr #10
    859c:	2080400c 	addcs	r4, r0, ip
    85a0:	20804008 	addcs	r4, r0, r8
    85a4:	00000111 	andeq	r0, r0, r1, lsl r1
    85a8:	000095e0 	andeq	r9, r0, r0, ror #11
    85ac:	00009608 	andeq	r9, r0, r8, lsl #12
    85b0:	00000102 	andeq	r0, r0, r2, lsl #2
    85b4:	0000962c 	andeq	r9, r0, ip, lsr #12

000085b8 <i2c_write>:
    85b8:	e92d4070 	push	{r4, r5, r6, lr}
    85bc:	e1a05001 	mov	r5, r1
    85c0:	e1a04002 	mov	r4, r2
    85c4:	e3a02000 	mov	r2, #0
    85c8:	e1a01004 	mov	r1, r4
    85cc:	ebffff86 	bl	83ec <xfer_start>
    85d0:	e3a02000 	mov	r2, #0
    85d4:	ea00000a 	b	8604 <i2c_write+0x4c>
    85d8:	eb0001fb 	bl	8dcc <rpi_reset_putc>
    85dc:	e59f3080 	ldr	r3, [pc, #128]	; 8664 <i2c_write+0xac>
    85e0:	e59f2080 	ldr	r2, [pc, #128]	; 8668 <i2c_write+0xb0>
    85e4:	e59f1080 	ldr	r1, [pc, #128]	; 866c <i2c_write+0xb4>
    85e8:	e59f0080 	ldr	r0, [pc, #128]	; 8670 <i2c_write+0xb8>
    85ec:	eb000082 	bl	87fc <printk>
    85f0:	eb00023a 	bl	8ee0 <clean_reboot>
    85f4:	e7d51002 	ldrb	r1, [r5, r2]
    85f8:	e59f3074 	ldr	r3, [pc, #116]	; 8674 <i2c_write+0xbc>
    85fc:	e5831010 	str	r1, [r3, #16]
    8600:	e2822001 	add	r2, r2, #1
    8604:	e1520004 	cmp	r2, r4
    8608:	2a000012 	bcs	8658 <i2c_write+0xa0>
    860c:	e59f3060 	ldr	r3, [pc, #96]	; 8674 <i2c_write+0xbc>
    8610:	e5933004 	ldr	r3, [r3, #4]
    8614:	e3130010 	tst	r3, #16
    8618:	1afffff5 	bne	85f4 <i2c_write+0x3c>
    861c:	e59f3050 	ldr	r3, [pc, #80]	; 8674 <i2c_write+0xbc>
    8620:	e5933004 	ldr	r3, [r3, #4]
    8624:	e3130c01 	tst	r3, #256	; 0x100
    8628:	1affffea 	bne	85d8 <i2c_write+0x20>
    862c:	e59f3040 	ldr	r3, [pc, #64]	; 8674 <i2c_write+0xbc>
    8630:	e5933004 	ldr	r3, [r3, #4]
    8634:	e3130c02 	tst	r3, #512	; 0x200
    8638:	0afffff3 	beq	860c <i2c_write+0x54>
    863c:	eb0001e2 	bl	8dcc <rpi_reset_putc>
    8640:	e59f301c 	ldr	r3, [pc, #28]	; 8664 <i2c_write+0xac>
    8644:	e59f201c 	ldr	r2, [pc, #28]	; 8668 <i2c_write+0xb0>
    8648:	e59f101c 	ldr	r1, [pc, #28]	; 866c <i2c_write+0xb4>
    864c:	e59f0024 	ldr	r0, [pc, #36]	; 8678 <i2c_write+0xc0>
    8650:	eb000069 	bl	87fc <printk>
    8654:	eb000221 	bl	8ee0 <clean_reboot>
    8658:	ebffff14 	bl	82b0 <xfer_end>
    865c:	e3a00001 	mov	r0, #1
    8660:	e8bd8070 	pop	{r4, r5, r6, pc}
    8664:	00000126 	andeq	r0, r0, r6, lsr #2
    8668:	00009428 	andeq	r9, r0, r8, lsr #8
    866c:	0000944c 	andeq	r9, r0, ip, asr #8
    8670:	00009544 	andeq	r9, r0, r4, asr #10
    8674:	20804000 	addcs	r4, r0, r0
    8678:	00009568 	andeq	r9, r0, r8, ror #10

0000867c <i2c_read>:
    867c:	e92d4070 	push	{r4, r5, r6, lr}
    8680:	e1a05001 	mov	r5, r1
    8684:	e1a04002 	mov	r4, r2
    8688:	e3a02001 	mov	r2, #1
    868c:	e1a01004 	mov	r1, r4
    8690:	ebffff55 	bl	83ec <xfer_start>
    8694:	e3a02000 	mov	r2, #0
    8698:	ea00000a 	b	86c8 <i2c_read+0x4c>
    869c:	eb0001ca 	bl	8dcc <rpi_reset_putc>
    86a0:	e59f3080 	ldr	r3, [pc, #128]	; 8728 <i2c_read+0xac>
    86a4:	e59f2080 	ldr	r2, [pc, #128]	; 872c <i2c_read+0xb0>
    86a8:	e59f1080 	ldr	r1, [pc, #128]	; 8730 <i2c_read+0xb4>
    86ac:	e59f0080 	ldr	r0, [pc, #128]	; 8734 <i2c_read+0xb8>
    86b0:	eb000051 	bl	87fc <printk>
    86b4:	eb000209 	bl	8ee0 <clean_reboot>
    86b8:	e59f3078 	ldr	r3, [pc, #120]	; 8738 <i2c_read+0xbc>
    86bc:	e5933010 	ldr	r3, [r3, #16]
    86c0:	e7c53002 	strb	r3, [r5, r2]
    86c4:	e2822001 	add	r2, r2, #1
    86c8:	e1520004 	cmp	r2, r4
    86cc:	2a000012 	bcs	871c <i2c_read+0xa0>
    86d0:	e59f3060 	ldr	r3, [pc, #96]	; 8738 <i2c_read+0xbc>
    86d4:	e5933004 	ldr	r3, [r3, #4]
    86d8:	e3130020 	tst	r3, #32
    86dc:	1afffff5 	bne	86b8 <i2c_read+0x3c>
    86e0:	e59f3050 	ldr	r3, [pc, #80]	; 8738 <i2c_read+0xbc>
    86e4:	e5933004 	ldr	r3, [r3, #4]
    86e8:	e3130c01 	tst	r3, #256	; 0x100
    86ec:	1affffea 	bne	869c <i2c_read+0x20>
    86f0:	e59f3040 	ldr	r3, [pc, #64]	; 8738 <i2c_read+0xbc>
    86f4:	e5933004 	ldr	r3, [r3, #4]
    86f8:	e3130c02 	tst	r3, #512	; 0x200
    86fc:	0afffff3 	beq	86d0 <i2c_read+0x54>
    8700:	eb0001b1 	bl	8dcc <rpi_reset_putc>
    8704:	e59f301c 	ldr	r3, [pc, #28]	; 8728 <i2c_read+0xac>
    8708:	e59f201c 	ldr	r2, [pc, #28]	; 872c <i2c_read+0xb0>
    870c:	e59f101c 	ldr	r1, [pc, #28]	; 8730 <i2c_read+0xb4>
    8710:	e59f0024 	ldr	r0, [pc, #36]	; 873c <i2c_read+0xc0>
    8714:	eb000038 	bl	87fc <printk>
    8718:	eb0001f0 	bl	8ee0 <clean_reboot>
    871c:	ebfffee3 	bl	82b0 <xfer_end>
    8720:	e3a00001 	mov	r0, #1
    8724:	e8bd8070 	pop	{r4, r5, r6, pc}
    8728:	00000137 	andeq	r0, r0, r7, lsr r1
    872c:	00009434 	andeq	r9, r0, r4, lsr r4
    8730:	0000944c 	andeq	r9, r0, ip, asr #8
    8734:	00009544 	andeq	r9, r0, r4, asr #10
    8738:	20804000 	addcs	r4, r0, r0
    873c:	00009568 	andeq	r9, r0, r8, ror #10

00008740 <i2c_is_initialized>:
    8740:	e59f3004 	ldr	r3, [pc, #4]	; 874c <i2c_is_initialized+0xc>
    8744:	e5930000 	ldr	r0, [r3]
    8748:	e12fff1e 	bx	lr
    874c:	00009770 	andeq	r9, r0, r0, ror r7

00008750 <i2c_init>:
    8750:	e92d4010 	push	{r4, lr}
    8754:	ebfffed3 	bl	82a8 <check_layout>
    8758:	eb00020c 	bl	8f90 <dev_barrier>
    875c:	e3a01004 	mov	r1, #4
    8760:	e3a00002 	mov	r0, #2
    8764:	eb00027a 	bl	9154 <gpio_set_function>
    8768:	e3a01004 	mov	r1, #4
    876c:	e3a00003 	mov	r0, #3
    8770:	eb000277 	bl	9154 <gpio_set_function>
    8774:	eb000205 	bl	8f90 <dev_barrier>
    8778:	e59f404c 	ldr	r4, [pc, #76]	; 87cc <i2c_init+0x7c>
    877c:	e3a01902 	mov	r1, #32768	; 0x8000
    8780:	e1a00004 	mov	r0, r4
    8784:	eb000207 	bl	8fa8 <put32>
    8788:	eb000200 	bl	8f90 <dev_barrier>
    878c:	ebffff08 	bl	83b4 <reset_status>
    8790:	eb0001fe 	bl	8f90 <dev_barrier>
    8794:	e5943004 	ldr	r3, [r4, #4]
    8798:	e3130001 	tst	r3, #1
    879c:	1a000003 	bne	87b0 <i2c_init+0x60>
    87a0:	e3a02001 	mov	r2, #1
    87a4:	e59f3024 	ldr	r3, [pc, #36]	; 87d0 <i2c_init+0x80>
    87a8:	e5832000 	str	r2, [r3]
    87ac:	e8bd8010 	pop	{r4, pc}
    87b0:	eb000185 	bl	8dcc <rpi_reset_putc>
    87b4:	e59f3018 	ldr	r3, [pc, #24]	; 87d4 <i2c_init+0x84>
    87b8:	e59f2018 	ldr	r2, [pc, #24]	; 87d8 <i2c_init+0x88>
    87bc:	e59f1018 	ldr	r1, [pc, #24]	; 87dc <i2c_init+0x8c>
    87c0:	e59f0018 	ldr	r0, [pc, #24]	; 87e0 <i2c_init+0x90>
    87c4:	eb00000c 	bl	87fc <printk>
    87c8:	eb0001c4 	bl	8ee0 <clean_reboot>
    87cc:	20804000 	addcs	r4, r0, r0
    87d0:	00009770 	andeq	r9, r0, r0, ror r7
    87d4:	0000016e 	andeq	r0, r0, lr, ror #2
    87d8:	00009440 	andeq	r9, r0, r0, asr #8
    87dc:	0000944c 	andeq	r9, r0, ip, asr #8
    87e0:	00009598 	muleq	r0, r8, r5

000087e4 <i2c_init_once>:
    87e4:	e92d4010 	push	{r4, lr}
    87e8:	ebffffd4 	bl	8740 <i2c_is_initialized>
    87ec:	e3500000 	cmp	r0, #0
    87f0:	18bd8010 	popne	{r4, pc}
    87f4:	ebffffd5 	bl	8750 <i2c_init>
    87f8:	e8bd8010 	pop	{r4, pc}

000087fc <printk>:
    87fc:	e92d000f 	push	{r0, r1, r2, r3}
    8800:	e92d4030 	push	{r4, r5, lr}
    8804:	e24dd00c 	sub	sp, sp, #12
    8808:	e28d301c 	add	r3, sp, #28
    880c:	e58d3004 	str	r3, [sp, #4]
    8810:	e59f4034 	ldr	r4, [pc, #52]	; 884c <printk+0x50>
    8814:	e59d2018 	ldr	r2, [sp, #24]
    8818:	e3a01b01 	mov	r1, #1024	; 0x400
    881c:	e1a00004 	mov	r0, r4
    8820:	eb0000a7 	bl	8ac4 <va_printk>
    8824:	e1a05000 	mov	r5, r0
    8828:	e59f3020 	ldr	r3, [pc, #32]	; 8850 <printk+0x54>
    882c:	e5933000 	ldr	r3, [r3]
    8830:	e1a00004 	mov	r0, r4
    8834:	e12fff33 	blx	r3
    8838:	e1a00005 	mov	r0, r5
    883c:	e28dd00c 	add	sp, sp, #12
    8840:	e8bd4030 	pop	{r4, r5, lr}
    8844:	e28dd010 	add	sp, sp, #16
    8848:	e12fff1e 	bx	lr
    884c:	00009774 	andeq	r9, r0, r4, ror r7
    8850:	000092e4 	andeq	r9, r0, r4, ror #5

00008854 <isdigit>:
    8854:	e2400030 	sub	r0, r0, #48	; 0x30
    8858:	e3500009 	cmp	r0, #9
    885c:	83a00000 	movhi	r0, #0
    8860:	93a00001 	movls	r0, #1
    8864:	e12fff1e 	bx	lr

00008868 <pad>:
    8868:	e0401001 	sub	r1, r0, r1
    886c:	ea000003 	b	8880 <pad+0x18>
    8870:	e3a03020 	mov	r3, #32
    8874:	e5c03000 	strb	r3, [r0]
    8878:	e2811001 	add	r1, r1, #1
    887c:	e2800001 	add	r0, r0, #1
    8880:	e1510002 	cmp	r1, r2
    8884:	bafffff9 	blt	8870 <pad+0x8>
    8888:	e3a03000 	mov	r3, #0
    888c:	e5c03000 	strb	r3, [r0]
    8890:	e12fff1e 	bx	lr

00008894 <reverse>:
    8894:	e042c003 	sub	ip, r2, r3
    8898:	e28cc001 	add	ip, ip, #1
    889c:	e15c0001 	cmp	ip, r1
    88a0:	c04cc001 	subgt	ip, ip, r1
    88a4:	c083300c 	addgt	r3, r3, ip
    88a8:	e2422001 	sub	r2, r2, #1
    88ac:	e1a01000 	mov	r1, r0
    88b0:	ea000002 	b	88c0 <reverse+0x2c>
    88b4:	e452c001 	ldrb	ip, [r2], #-1
    88b8:	e5c1c000 	strb	ip, [r1]
    88bc:	e2811001 	add	r1, r1, #1
    88c0:	e1520003 	cmp	r2, r3
    88c4:	2afffffa 	bcs	88b4 <reverse+0x20>
    88c8:	e3a03000 	mov	r3, #0
    88cc:	e5c13000 	strb	r3, [r1]
    88d0:	e12fff1e 	bx	lr

000088d4 <emit>:
    88d4:	e92d40f0 	push	{r4, r5, r6, r7, lr}
    88d8:	e24dd044 	sub	sp, sp, #68	; 0x44
    88dc:	e1a05001 	mov	r5, r1
    88e0:	e1a04002 	mov	r4, r2
    88e4:	e59d2058 	ldr	r2, [sp, #88]	; 0x58
    88e8:	e1520004 	cmp	r2, r4
    88ec:	c2442001 	subgt	r2, r4, #1
    88f0:	e1a01003 	mov	r1, r3
    88f4:	e2400002 	sub	r0, r0, #2
    88f8:	e350000e 	cmp	r0, #14
    88fc:	979ff100 	ldrls	pc, [pc, r0, lsl #2]
    8900:	ea00004c 	b	8a38 <emit+0x164>
    8904:	00008a10 	andeq	r8, r0, r0, lsl sl
    8908:	00008a38 	andeq	r8, r0, r8, lsr sl
    890c:	00008a38 	andeq	r8, r0, r8, lsr sl
    8910:	00008a38 	andeq	r8, r0, r8, lsr sl
    8914:	00008a38 	andeq	r8, r0, r8, lsr sl
    8918:	00008a38 	andeq	r8, r0, r8, lsr sl
    891c:	00008a04 	andeq	r8, r0, r4, lsl #20
    8920:	00008a38 	andeq	r8, r0, r8, lsr sl
    8924:	00008940 	andeq	r8, r0, r0, asr #18
    8928:	00008a38 	andeq	r8, r0, r8, lsr sl
    892c:	00008a38 	andeq	r8, r0, r8, lsr sl
    8930:	00008a38 	andeq	r8, r0, r8, lsr sl
    8934:	00008a38 	andeq	r8, r0, r8, lsr sl
    8938:	00008a38 	andeq	r8, r0, r8, lsr sl
    893c:	000089bc 			; <UNDEFINED> instruction: 0x000089bc
    8940:	e59d005c 	ldr	r0, [sp, #92]	; 0x5c
    8944:	e2900000 	adds	r0, r0, #0
    8948:	13a00001 	movne	r0, #1
    894c:	e0100fa3 	ands	r0, r0, r3, lsr #31
    8950:	0a000003 	beq	8964 <emit+0x90>
    8954:	e2631000 	rsb	r1, r3, #0
    8958:	e3a07001 	mov	r7, #1
    895c:	e1a0c00d 	mov	ip, sp
    8960:	ea000002 	b	8970 <emit+0x9c>
    8964:	e3a07000 	mov	r7, #0
    8968:	eafffffb 	b	895c <emit+0x88>
    896c:	e1a0c000 	mov	ip, r0
    8970:	e28c0001 	add	r0, ip, #1
    8974:	e59f30d8 	ldr	r3, [pc, #216]	; 8a54 <emit+0x180>
    8978:	e083e193 	umull	lr, r3, r3, r1
    897c:	e1a031a3 	lsr	r3, r3, #3
    8980:	e1a0e003 	mov	lr, r3
    8984:	e0833103 	add	r3, r3, r3, lsl #2
    8988:	e1a06083 	lsl	r6, r3, #1
    898c:	e0413006 	sub	r3, r1, r6
    8990:	e59f10c0 	ldr	r1, [pc, #192]	; 8a58 <emit+0x184>
    8994:	e7d13003 	ldrb	r3, [r1, r3]
    8998:	e5cc3000 	strb	r3, [ip]
    899c:	e1a0100e 	mov	r1, lr
    89a0:	e35e0000 	cmp	lr, #0
    89a4:	1afffff0 	bne	896c <emit+0x98>
    89a8:	e3570000 	cmp	r7, #0
    89ac:	13a0302d 	movne	r3, #45	; 0x2d
    89b0:	15c03000 	strbne	r3, [r0]
    89b4:	128c0002 	addne	r0, ip, #2
    89b8:	ea000008 	b	89e0 <emit+0x10c>
    89bc:	e1a0300d 	mov	r3, sp
    89c0:	e2830001 	add	r0, r3, #1
    89c4:	e201c00f 	and	ip, r1, #15
    89c8:	e59fe08c 	ldr	lr, [pc, #140]	; 8a5c <emit+0x188>
    89cc:	e7dec00c 	ldrb	ip, [lr, ip]
    89d0:	e5c3c000 	strb	ip, [r3]
    89d4:	e1a03000 	mov	r3, r0
    89d8:	e1b01221 	lsrs	r1, r1, #4
    89dc:	1afffff7 	bne	89c0 <emit+0xec>
    89e0:	e1a0100d 	mov	r1, sp
    89e4:	ebffff9f 	bl	8868 <pad>
    89e8:	e1a0300d 	mov	r3, sp
    89ec:	e1a02000 	mov	r2, r0
    89f0:	e1a01004 	mov	r1, r4
    89f4:	e1a00005 	mov	r0, r5
    89f8:	ebffffa5 	bl	8894 <reverse>
    89fc:	e28dd044 	add	sp, sp, #68	; 0x44
    8a00:	e8bd80f0 	pop	{r4, r5, r6, r7, pc}
    8a04:	e5cd3000 	strb	r3, [sp]
    8a08:	e28d0001 	add	r0, sp, #1
    8a0c:	eafffff3 	b	89e0 <emit+0x10c>
    8a10:	e1a0300d 	mov	r3, sp
    8a14:	e2830001 	add	r0, r3, #1
    8a18:	e201c001 	and	ip, r1, #1
    8a1c:	e59fe03c 	ldr	lr, [pc, #60]	; 8a60 <emit+0x18c>
    8a20:	e7dec00c 	ldrb	ip, [lr, ip]
    8a24:	e5c3c000 	strb	ip, [r3]
    8a28:	e1a03000 	mov	r3, r0
    8a2c:	e1b010a1 	lsrs	r1, r1, #1
    8a30:	1afffff7 	bne	8a14 <emit+0x140>
    8a34:	eaffffe9 	b	89e0 <emit+0x10c>
    8a38:	eb0000e3 	bl	8dcc <rpi_reset_putc>
    8a3c:	e3a03075 	mov	r3, #117	; 0x75
    8a40:	e59f201c 	ldr	r2, [pc, #28]	; 8a64 <emit+0x190>
    8a44:	e59f101c 	ldr	r1, [pc, #28]	; 8a68 <emit+0x194>
    8a48:	e59f001c 	ldr	r0, [pc, #28]	; 8a6c <emit+0x198>
    8a4c:	ebffff6a 	bl	87fc <printk>
    8a50:	eb000122 	bl	8ee0 <clean_reboot>
    8a54:	cccccccd 	stclgt	12, cr12, [ip], {205}	; 0xcd
    8a58:	000096a0 	andeq	r9, r0, r0, lsr #13
    8a5c:	000096ac 	andeq	r9, r0, ip, lsr #13
    8a60:	000096c0 	andeq	r9, r0, r0, asr #13
    8a64:	00009654 	andeq	r9, r0, r4, asr r6
    8a68:	00009678 	andeq	r9, r0, r8, ror r6
    8a6c:	0000968c 	andeq	r9, r0, ip, lsl #13

00008a70 <rpi_set_output>:
    8a70:	e3500000 	cmp	r0, #0
    8a74:	0a000005 	beq	8a90 <rpi_set_output+0x20>
    8a78:	e59f3030 	ldr	r3, [pc, #48]	; 8ab0 <rpi_set_output+0x40>
    8a7c:	e5830000 	str	r0, [r3]
    8a80:	e3510000 	cmp	r1, #0
    8a84:	159f3028 	ldrne	r3, [pc, #40]	; 8ab4 <rpi_set_output+0x44>
    8a88:	15831000 	strne	r1, [r3]
    8a8c:	e12fff1e 	bx	lr
    8a90:	e92d4010 	push	{r4, lr}
    8a94:	eb0000cc 	bl	8dcc <rpi_reset_putc>
    8a98:	e3a03020 	mov	r3, #32
    8a9c:	e59f2014 	ldr	r2, [pc, #20]	; 8ab8 <rpi_set_output+0x48>
    8aa0:	e59f1014 	ldr	r1, [pc, #20]	; 8abc <rpi_set_output+0x4c>
    8aa4:	e59f0014 	ldr	r0, [pc, #20]	; 8ac0 <rpi_set_output+0x50>
    8aa8:	ebffff53 	bl	87fc <printk>
    8aac:	eb00010b 	bl	8ee0 <clean_reboot>
    8ab0:	000092e8 	andeq	r9, r0, r8, ror #5
    8ab4:	000092e4 	andeq	r9, r0, r4, ror #5
    8ab8:	0000965c 	andeq	r9, r0, ip, asr r6
    8abc:	00009678 	andeq	r9, r0, r8, ror r6
    8ac0:	000096c4 	andeq	r9, r0, r4, asr #13

00008ac4 <va_printk>:
    8ac4:	e92d43f0 	push	{r4, r5, r6, r7, r8, r9, lr}
    8ac8:	e24dd094 	sub	sp, sp, #148	; 0x94
    8acc:	e1a09000 	mov	r9, r0
    8ad0:	e58d300c 	str	r3, [sp, #12]
    8ad4:	e2411001 	sub	r1, r1, #1
    8ad8:	e0808001 	add	r8, r0, r1
    8adc:	e3a03000 	mov	r3, #0
    8ae0:	e5c03000 	strb	r3, [r0]
    8ae4:	e1a06000 	mov	r6, r0
    8ae8:	e5d23000 	ldrb	r3, [r2]
    8aec:	e3530000 	cmp	r3, #0
    8af0:	0a000098 	beq	8d58 <va_printk+0x294>
    8af4:	e1560008 	cmp	r6, r8
    8af8:	2a000096 	bcs	8d58 <va_printk+0x294>
    8afc:	e3530025 	cmp	r3, #37	; 0x25
    8b00:	12822001 	addne	r2, r2, #1
    8b04:	15c63000 	strbne	r3, [r6]
    8b08:	12866001 	addne	r6, r6, #1
    8b0c:	1afffff5 	bne	8ae8 <va_printk+0x24>
    8b10:	e5d21001 	ldrb	r1, [r2, #1]
    8b14:	e3510025 	cmp	r1, #37	; 0x25
    8b18:	12825001 	addne	r5, r2, #1
    8b1c:	13a04000 	movne	r4, #0
    8b20:	1a000008 	bne	8b48 <va_printk+0x84>
    8b24:	e5c63000 	strb	r3, [r6]
    8b28:	e2822002 	add	r2, r2, #2
    8b2c:	e2866001 	add	r6, r6, #1
    8b30:	eaffffec 	b	8ae8 <va_printk+0x24>
    8b34:	e0844104 	add	r4, r4, r4, lsl #2
    8b38:	e1a03084 	lsl	r3, r4, #1
    8b3c:	e0834007 	add	r4, r3, r7
    8b40:	e2444030 	sub	r4, r4, #48	; 0x30
    8b44:	e2855001 	add	r5, r5, #1
    8b48:	e5d57000 	ldrb	r7, [r5]
    8b4c:	e1a00007 	mov	r0, r7
    8b50:	ebffff3f 	bl	8854 <isdigit>
    8b54:	e3500000 	cmp	r0, #0
    8b58:	1afffff5 	bne	8b34 <va_printk+0x70>
    8b5c:	e354001f 	cmp	r4, #31
    8b60:	8a00001a 	bhi	8bd0 <va_printk+0x10c>
    8b64:	e2477062 	sub	r7, r7, #98	; 0x62
    8b68:	e3570016 	cmp	r7, #22
    8b6c:	979ff107 	ldrls	pc, [pc, r7, lsl #2]
    8b70:	ea000066 	b	8d10 <va_printk+0x24c>
    8b74:	00008c9c 	muleq	r0, ip, ip
    8b78:	00008ce0 	andeq	r8, r0, r0, ror #25
    8b7c:	00008c08 	andeq	r8, r0, r8, lsl #24
    8b80:	00008d10 	andeq	r8, r0, r0, lsl sp
    8b84:	00008bec 	andeq	r8, r0, ip, ror #23
    8b88:	00008d10 	andeq	r8, r0, r0, lsl sp
    8b8c:	00008d10 	andeq	r8, r0, r0, lsl sp
    8b90:	00008d10 	andeq	r8, r0, r0, lsl sp
    8b94:	00008d10 	andeq	r8, r0, r0, lsl sp
    8b98:	00008d10 	andeq	r8, r0, r0, lsl sp
    8b9c:	00008d10 	andeq	r8, r0, r0, lsl sp
    8ba0:	00008d10 	andeq	r8, r0, r0, lsl sp
    8ba4:	00008d10 	andeq	r8, r0, r0, lsl sp
    8ba8:	00008d10 	andeq	r8, r0, r0, lsl sp
    8bac:	00008c6c 	andeq	r8, r0, ip, ror #24
    8bb0:	00008d10 	andeq	r8, r0, r0, lsl sp
    8bb4:	00008d10 	andeq	r8, r0, r0, lsl sp
    8bb8:	00008ccc 	andeq	r8, r0, ip, asr #25
    8bbc:	00008d10 	andeq	r8, r0, r0, lsl sp
    8bc0:	00008c3c 	andeq	r8, r0, ip, lsr ip
    8bc4:	00008d10 	andeq	r8, r0, r0, lsl sp
    8bc8:	00008d10 	andeq	r8, r0, r0, lsl sp
    8bcc:	00008c6c 	andeq	r8, r0, ip, ror #24
    8bd0:	eb00007d 	bl	8dcc <rpi_reset_putc>
    8bd4:	e3a03092 	mov	r3, #146	; 0x92
    8bd8:	e59f2190 	ldr	r2, [pc, #400]	; 8d70 <va_printk+0x2ac>
    8bdc:	e59f1190 	ldr	r1, [pc, #400]	; 8d74 <va_printk+0x2b0>
    8be0:	e59f0190 	ldr	r0, [pc, #400]	; 8d78 <va_printk+0x2b4>
    8be4:	ebffff04 	bl	87fc <printk>
    8be8:	eb0000bc 	bl	8ee0 <clean_reboot>
    8bec:	eb000076 	bl	8dcc <rpi_reset_putc>
    8bf0:	e3a03098 	mov	r3, #152	; 0x98
    8bf4:	e59f2174 	ldr	r2, [pc, #372]	; 8d70 <va_printk+0x2ac>
    8bf8:	e59f1174 	ldr	r1, [pc, #372]	; 8d74 <va_printk+0x2b0>
    8bfc:	e59f0178 	ldr	r0, [pc, #376]	; 8d7c <va_printk+0x2b8>
    8c00:	ebfffefd 	bl	87fc <printk>
    8c04:	eb0000b5 	bl	8ee0 <clean_reboot>
    8c08:	e59d300c 	ldr	r3, [sp, #12]
    8c0c:	e2832004 	add	r2, r3, #4
    8c10:	e58d200c 	str	r2, [sp, #12]
    8c14:	e5933000 	ldr	r3, [r3]
    8c18:	e3a02001 	mov	r2, #1
    8c1c:	e58d2004 	str	r2, [sp, #4]
    8c20:	e58d4000 	str	r4, [sp]
    8c24:	e3a02080 	mov	r2, #128	; 0x80
    8c28:	e28d1010 	add	r1, sp, #16
    8c2c:	e3a0000a 	mov	r0, #10
    8c30:	ebffff27 	bl	88d4 <emit>
    8c34:	e2852001 	add	r2, r5, #1
    8c38:	ea000040 	b	8d40 <va_printk+0x27c>
    8c3c:	e59d300c 	ldr	r3, [sp, #12]
    8c40:	e2832004 	add	r2, r3, #4
    8c44:	e58d200c 	str	r2, [sp, #12]
    8c48:	e5933000 	ldr	r3, [r3]
    8c4c:	e3a02000 	mov	r2, #0
    8c50:	e58d2004 	str	r2, [sp, #4]
    8c54:	e58d4000 	str	r4, [sp]
    8c58:	e3a02080 	mov	r2, #128	; 0x80
    8c5c:	e28d1010 	add	r1, sp, #16
    8c60:	e3a0000a 	mov	r0, #10
    8c64:	ebffff1a 	bl	88d4 <emit>
    8c68:	eafffff1 	b	8c34 <va_printk+0x170>
    8c6c:	e59d300c 	ldr	r3, [sp, #12]
    8c70:	e2832004 	add	r2, r3, #4
    8c74:	e58d200c 	str	r2, [sp, #12]
    8c78:	e5933000 	ldr	r3, [r3]
    8c7c:	e3a02000 	mov	r2, #0
    8c80:	e58d2004 	str	r2, [sp, #4]
    8c84:	e58d4000 	str	r4, [sp]
    8c88:	e3a02080 	mov	r2, #128	; 0x80
    8c8c:	e28d1010 	add	r1, sp, #16
    8c90:	e3a00010 	mov	r0, #16
    8c94:	ebffff0e 	bl	88d4 <emit>
    8c98:	eaffffe5 	b	8c34 <va_printk+0x170>
    8c9c:	e59d300c 	ldr	r3, [sp, #12]
    8ca0:	e2832004 	add	r2, r3, #4
    8ca4:	e58d200c 	str	r2, [sp, #12]
    8ca8:	e5933000 	ldr	r3, [r3]
    8cac:	e3a02000 	mov	r2, #0
    8cb0:	e58d2004 	str	r2, [sp, #4]
    8cb4:	e58d4000 	str	r4, [sp]
    8cb8:	e3a02080 	mov	r2, #128	; 0x80
    8cbc:	e28d1010 	add	r1, sp, #16
    8cc0:	e3a00002 	mov	r0, #2
    8cc4:	ebffff02 	bl	88d4 <emit>
    8cc8:	eaffffd9 	b	8c34 <va_printk+0x170>
    8ccc:	e59d300c 	ldr	r3, [sp, #12]
    8cd0:	e2832004 	add	r2, r3, #4
    8cd4:	e58d200c 	str	r2, [sp, #12]
    8cd8:	e5930000 	ldr	r0, [r3]
    8cdc:	eaffffd4 	b	8c34 <va_printk+0x170>
    8ce0:	e59d300c 	ldr	r3, [sp, #12]
    8ce4:	e2832004 	add	r2, r3, #4
    8ce8:	e58d200c 	str	r2, [sp, #12]
    8cec:	e5933000 	ldr	r3, [r3]
    8cf0:	e3a02000 	mov	r2, #0
    8cf4:	e58d2004 	str	r2, [sp, #4]
    8cf8:	e58d4000 	str	r4, [sp]
    8cfc:	e3a02080 	mov	r2, #128	; 0x80
    8d00:	e28d1010 	add	r1, sp, #16
    8d04:	e3a00008 	mov	r0, #8
    8d08:	ebfffef1 	bl	88d4 <emit>
    8d0c:	eaffffc8 	b	8c34 <va_printk+0x170>
    8d10:	eb00002d 	bl	8dcc <rpi_reset_putc>
    8d14:	e5d53000 	ldrb	r3, [r5]
    8d18:	e58d3000 	str	r3, [sp]
    8d1c:	e3a030b9 	mov	r3, #185	; 0xb9
    8d20:	e59f2048 	ldr	r2, [pc, #72]	; 8d70 <va_printk+0x2ac>
    8d24:	e59f1048 	ldr	r1, [pc, #72]	; 8d74 <va_printk+0x2b0>
    8d28:	e59f0050 	ldr	r0, [pc, #80]	; 8d80 <va_printk+0x2bc>
    8d2c:	ebfffeb2 	bl	87fc <printk>
    8d30:	eb00006a 	bl	8ee0 <clean_reboot>
    8d34:	e2800001 	add	r0, r0, #1
    8d38:	e5c63000 	strb	r3, [r6]
    8d3c:	e2866001 	add	r6, r6, #1
    8d40:	e1560008 	cmp	r6, r8
    8d44:	2affff67 	bcs	8ae8 <va_printk+0x24>
    8d48:	e5d03000 	ldrb	r3, [r0]
    8d4c:	e3530000 	cmp	r3, #0
    8d50:	1afffff7 	bne	8d34 <va_printk+0x270>
    8d54:	eaffff63 	b	8ae8 <va_printk+0x24>
    8d58:	e2860001 	add	r0, r6, #1
    8d5c:	e3a03000 	mov	r3, #0
    8d60:	e5c63000 	strb	r3, [r6]
    8d64:	e0400009 	sub	r0, r0, r9
    8d68:	e28dd094 	add	sp, sp, #148	; 0x94
    8d6c:	e8bd83f0 	pop	{r4, r5, r6, r7, r8, r9, pc}
    8d70:	0000966c 	andeq	r9, r0, ip, ror #12
    8d74:	00009678 	andeq	r9, r0, r8, ror r6
    8d78:	000096dc 	ldrdeq	r9, [r0], -ip
    8d7c:	000096f8 	strdeq	r9, [r0], -r8
    8d80:	00009720 	andeq	r9, r0, r0, lsr #14

00008d84 <internal_putk>:
    8d84:	e92d4010 	push	{r4, lr}
    8d88:	e1a04000 	mov	r4, r0
    8d8c:	ea000003 	b	8da0 <internal_putk+0x1c>
    8d90:	e59f301c 	ldr	r3, [pc, #28]	; 8db4 <internal_putk+0x30>
    8d94:	e5933000 	ldr	r3, [r3]
    8d98:	e12fff33 	blx	r3
    8d9c:	e2844001 	add	r4, r4, #1
    8da0:	e5d40000 	ldrb	r0, [r4]
    8da4:	e3500000 	cmp	r0, #0
    8da8:	1afffff8 	bne	8d90 <internal_putk+0xc>
    8dac:	e3a00001 	mov	r0, #1
    8db0:	e8bd8010 	pop	{r4, pc}
    8db4:	000092e8 	andeq	r9, r0, r8, ror #5

00008db8 <internal_putchar>:
    8db8:	e92d4010 	push	{r4, lr}
    8dbc:	e1a04000 	mov	r4, r0
    8dc0:	eb0000d6 	bl	9120 <uart_putc>
    8dc4:	e1a00004 	mov	r0, r4
    8dc8:	e8bd8010 	pop	{r4, pc}

00008dcc <rpi_reset_putc>:
    8dcc:	e59f2008 	ldr	r2, [pc, #8]	; 8ddc <rpi_reset_putc+0x10>
    8dd0:	e59f3008 	ldr	r3, [pc, #8]	; 8de0 <rpi_reset_putc+0x14>
    8dd4:	e5832000 	str	r2, [r3]
    8dd8:	e12fff1e 	bx	lr
    8ddc:	00008db8 			; <UNDEFINED> instruction: 0x00008db8
    8de0:	000092e8 	andeq	r9, r0, r8, ror #5

00008de4 <rpi_set_putc>:
    8de4:	e59f3004 	ldr	r3, [pc, #4]	; 8df0 <rpi_set_putc+0xc>
    8de8:	e5830000 	str	r0, [r3]
    8dec:	e12fff1e 	bx	lr
    8df0:	000092e8 	andeq	r9, r0, r8, ror #5

00008df4 <internal_sw_putchar>:
    8df4:	e12fff1e 	bx	lr

00008df8 <_cstart>:
    8df8:	e92d4010 	push	{r4, lr}
    8dfc:	e59f3050 	ldr	r3, [pc, #80]	; 8e54 <_cstart+0x5c>
    8e00:	ea000002 	b	8e10 <_cstart+0x18>
    8e04:	e3a02000 	mov	r2, #0
    8e08:	e5832000 	str	r2, [r3]
    8e0c:	e2833004 	add	r3, r3, #4
    8e10:	e59f2040 	ldr	r2, [pc, #64]	; 8e58 <_cstart+0x60>
    8e14:	e1530002 	cmp	r3, r2
    8e18:	3afffff9 	bcc	8e04 <_cstart+0xc>
    8e1c:	eb00011e 	bl	929c <cb_get_block>
    8e20:	e3500000 	cmp	r0, #0
    8e24:	0a000002 	beq	8e34 <_cstart+0x3c>
    8e28:	e5d03004 	ldrb	r3, [r0, #4]
    8e2c:	e3530002 	cmp	r3, #2
    8e30:	0a000001 	beq	8e3c <_cstart+0x44>
    8e34:	ebfffc9f 	bl	80b8 <notmain>
    8e38:	eb000015 	bl	8e94 <rpi_reboot>
    8e3c:	e59f2018 	ldr	r2, [pc, #24]	; 8e5c <_cstart+0x64>
    8e40:	e59f3018 	ldr	r3, [pc, #24]	; 8e60 <_cstart+0x68>
    8e44:	e5832000 	str	r2, [r3]
    8e48:	e59f0014 	ldr	r0, [pc, #20]	; 8e64 <_cstart+0x6c>
    8e4c:	ebfffe6a 	bl	87fc <printk>
    8e50:	eafffff7 	b	8e34 <_cstart+0x3c>
    8e54:	00009770 	andeq	r9, r0, r0, ror r7
    8e58:	00009b78 	andeq	r9, r0, r8, ror fp
    8e5c:	00008df4 	strdeq	r8, [r0], -r4
    8e60:	000092e8 	andeq	r9, r0, r8, ror #5
    8e64:	00009758 	andeq	r9, r0, r8, asr r7

00008e68 <at_user_level>:
    8e68:	e10f0000 	mrs	r0, CPSR
    8e6c:	e200001f 	and	r0, r0, #31
    8e70:	e3500010 	cmp	r0, #16
    8e74:	13a00000 	movne	r0, #0
    8e78:	03a00001 	moveq	r0, #1
    8e7c:	e12fff1e 	bx	lr

00008e80 <set_user_level>:
    8e80:	e10f3000 	mrs	r3, CPSR
    8e84:	e3c3301f 	bic	r3, r3, #31
    8e88:	e3833010 	orr	r3, r3, #16
    8e8c:	e129f003 	msr	CPSR_fc, r3
    8e90:	e12fff1e 	bx	lr

00008e94 <rpi_reboot>:
    8e94:	e92d4010 	push	{r4, lr}
    8e98:	ebfffff2 	bl	8e68 <at_user_level>
    8e9c:	e3500000 	cmp	r0, #0
    8ea0:	1a000008 	bne	8ec8 <rpi_reboot+0x34>
    8ea4:	e3a0001e 	mov	r0, #30
    8ea8:	eb00002e 	bl	8f68 <delay_ms>
    8eac:	e59f101c 	ldr	r1, [pc, #28]	; 8ed0 <rpi_reboot+0x3c>
    8eb0:	e59f001c 	ldr	r0, [pc, #28]	; 8ed4 <rpi_reboot+0x40>
    8eb4:	eb00003d 	bl	8fb0 <PUT32>
    8eb8:	e59f1018 	ldr	r1, [pc, #24]	; 8ed8 <rpi_reboot+0x44>
    8ebc:	e59f0018 	ldr	r0, [pc, #24]	; 8edc <rpi_reboot+0x48>
    8ec0:	eb00003a 	bl	8fb0 <PUT32>
    8ec4:	eafffffe 	b	8ec4 <rpi_reboot+0x30>
    8ec8:	ebffffec 	bl	8e80 <set_user_level>
    8ecc:	eafffff4 	b	8ea4 <rpi_reboot+0x10>
    8ed0:	5a000001 	bpl	8edc <rpi_reboot+0x48>
    8ed4:	20100024 	andscs	r0, r0, r4, lsr #32
    8ed8:	5a000020 	bpl	8f60 <delay_us+0x1c>
    8edc:	2010001c 	andscs	r0, r0, ip, lsl r0

00008ee0 <clean_reboot>:
    8ee0:	e92d4010 	push	{r4, lr}
    8ee4:	e59f3014 	ldr	r3, [pc, #20]	; 8f00 <clean_reboot+0x20>
    8ee8:	e5933000 	ldr	r3, [r3]
    8eec:	e59f0010 	ldr	r0, [pc, #16]	; 8f04 <clean_reboot+0x24>
    8ef0:	e12fff33 	blx	r3
    8ef4:	e3a00064 	mov	r0, #100	; 0x64
    8ef8:	eb00001a 	bl	8f68 <delay_ms>
    8efc:	ebffffe4 	bl	8e94 <rpi_reboot>
    8f00:	000092e4 	andeq	r9, r0, r4, ror #5
    8f04:	00009764 	andeq	r9, r0, r4, ror #14

00008f08 <delay_cycles>:
    8f08:	ea000001 	b	8f14 <delay_cycles+0xc>
    8f0c:	e2811000 	add	r1, r1, #0
    8f10:	e1a00003 	mov	r0, r3
    8f14:	e2403001 	sub	r3, r0, #1
    8f18:	e3500000 	cmp	r0, #0
    8f1c:	1afffffa 	bne	8f0c <delay_cycles+0x4>
    8f20:	e12fff1e 	bx	lr

00008f24 <timer_get_usec_raw>:
    8f24:	e92d4010 	push	{r4, lr}
    8f28:	e59f0004 	ldr	r0, [pc, #4]	; 8f34 <timer_get_usec_raw+0x10>
    8f2c:	eb00002b 	bl	8fe0 <GET32>
    8f30:	e8bd8010 	pop	{r4, pc}
    8f34:	20003004 	andcs	r3, r0, r4

00008f38 <timer_get_usec>:
    8f38:	e92d4010 	push	{r4, lr}
    8f3c:	ebfffff8 	bl	8f24 <timer_get_usec_raw>
    8f40:	e8bd8010 	pop	{r4, pc}

00008f44 <delay_us>:
    8f44:	e92d4070 	push	{r4, r5, r6, lr}
    8f48:	e1a05000 	mov	r5, r0
    8f4c:	ebfffff9 	bl	8f38 <timer_get_usec>
    8f50:	e1a04000 	mov	r4, r0
    8f54:	ebfffff7 	bl	8f38 <timer_get_usec>
    8f58:	e0400004 	sub	r0, r0, r4
    8f5c:	e1500005 	cmp	r0, r5
    8f60:	3afffffb 	bcc	8f54 <delay_us+0x10>
    8f64:	e8bd8070 	pop	{r4, r5, r6, pc}

00008f68 <delay_ms>:
    8f68:	e92d4010 	push	{r4, lr}
    8f6c:	e3a03ffa 	mov	r3, #1000	; 0x3e8
    8f70:	e0000093 	mul	r0, r3, r0
    8f74:	ebfffff2 	bl	8f44 <delay_us>
    8f78:	e8bd8010 	pop	{r4, pc}

00008f7c <delay_sec>:
    8f7c:	e92d4010 	push	{r4, lr}
    8f80:	e3a03ffa 	mov	r3, #1000	; 0x3e8
    8f84:	e0000093 	mul	r0, r3, r0
    8f88:	ebfffff6 	bl	8f68 <delay_ms>
    8f8c:	e8bd8010 	pop	{r4, pc}

00008f90 <dev_barrier>:
    8f90:	ea000002 	b	8fa0 <dsb>

00008f94 <dmb>:
    8f94:	e3a00000 	mov	r0, #0
    8f98:	ee070fba 	mcr	15, 0, r0, cr7, cr10, {5}
    8f9c:	e12fff1e 	bx	lr

00008fa0 <dsb>:
    8fa0:	ee070f9a 	mcr	15, 0, r0, cr7, cr10, {4}
    8fa4:	e12fff1e 	bx	lr

00008fa8 <put32>:
    8fa8:	e5801000 	str	r1, [r0]
    8fac:	e12fff1e 	bx	lr

00008fb0 <PUT32>:
    8fb0:	e5801000 	str	r1, [r0]
    8fb4:	e12fff1e 	bx	lr

00008fb8 <put16>:
    8fb8:	e1c010b0 	strh	r1, [r0]
    8fbc:	e12fff1e 	bx	lr

00008fc0 <PUT16>:
    8fc0:	e1c010b0 	strh	r1, [r0]
    8fc4:	e12fff1e 	bx	lr

00008fc8 <put8>:
    8fc8:	e5c01000 	strb	r1, [r0]
    8fcc:	e12fff1e 	bx	lr

00008fd0 <PUT8>:
    8fd0:	e5c01000 	strb	r1, [r0]
    8fd4:	e12fff1e 	bx	lr

00008fd8 <get32>:
    8fd8:	e5900000 	ldr	r0, [r0]
    8fdc:	e12fff1e 	bx	lr

00008fe0 <GET32>:
    8fe0:	e5900000 	ldr	r0, [r0]
    8fe4:	e12fff1e 	bx	lr

00008fe8 <GETPC>:
    8fe8:	e1a0000e 	mov	r0, lr
    8fec:	e12fff1e 	bx	lr

00008ff0 <dummy>:
    8ff0:	e12fff1e 	bx	lr

00008ff4 <or_in32>:
    8ff4:	e92d4070 	push	{r4, r5, r6, lr}
    8ff8:	e1a04000 	mov	r4, r0
    8ffc:	e1a05001 	mov	r5, r1
    9000:	ebfffff4 	bl	8fd8 <get32>
    9004:	e1801005 	orr	r1, r0, r5
    9008:	e1a00004 	mov	r0, r4
    900c:	ebffffe5 	bl	8fa8 <put32>
    9010:	e8bd8070 	pop	{r4, r5, r6, pc}

00009014 <uart_init>:
    9014:	e92d4010 	push	{r4, lr}
    9018:	e3a01002 	mov	r1, #2
    901c:	e3a0000e 	mov	r0, #14
    9020:	eb00004b 	bl	9154 <gpio_set_function>
    9024:	e3a01002 	mov	r1, #2
    9028:	e3a0000f 	mov	r0, #15
    902c:	eb000048 	bl	9154 <gpio_set_function>
    9030:	ebffffd6 	bl	8f90 <dev_barrier>
    9034:	e3a01001 	mov	r1, #1
    9038:	e59f0064 	ldr	r0, [pc, #100]	; 90a4 <uart_init+0x90>
    903c:	ebffffec 	bl	8ff4 <or_in32>
    9040:	ebffffd2 	bl	8f90 <dev_barrier>
    9044:	e59f405c 	ldr	r4, [pc, #92]	; 90a8 <uart_init+0x94>
    9048:	e3a01000 	mov	r1, #0
    904c:	e1a00004 	mov	r0, r4
    9050:	ebffffd4 	bl	8fa8 <put32>
    9054:	e3a01000 	mov	r1, #0
    9058:	e59f004c 	ldr	r0, [pc, #76]	; 90ac <uart_init+0x98>
    905c:	ebffffd1 	bl	8fa8 <put32>
    9060:	e3a01003 	mov	r1, #3
    9064:	e59f0044 	ldr	r0, [pc, #68]	; 90b0 <uart_init+0x9c>
    9068:	ebffffce 	bl	8fa8 <put32>
    906c:	e3a01000 	mov	r1, #0
    9070:	e59f003c 	ldr	r0, [pc, #60]	; 90b4 <uart_init+0xa0>
    9074:	ebffffcb 	bl	8fa8 <put32>
    9078:	e3a010c7 	mov	r1, #199	; 0xc7
    907c:	e59f0034 	ldr	r0, [pc, #52]	; 90b8 <uart_init+0xa4>
    9080:	ebffffc8 	bl	8fa8 <put32>
    9084:	e59f1030 	ldr	r1, [pc, #48]	; 90bc <uart_init+0xa8>
    9088:	e59f0030 	ldr	r0, [pc, #48]	; 90c0 <uart_init+0xac>
    908c:	ebffffc5 	bl	8fa8 <put32>
    9090:	e3a01003 	mov	r1, #3
    9094:	e1a00004 	mov	r0, r4
    9098:	ebffffc2 	bl	8fa8 <put32>
    909c:	ebffffbb 	bl	8f90 <dev_barrier>
    90a0:	e8bd8010 	pop	{r4, pc}
    90a4:	20215004 	eorcs	r5, r1, r4
    90a8:	20215060 	eorcs	r5, r1, r0, rrx
    90ac:	20215044 	eorcs	r5, r1, r4, asr #32
    90b0:	2021504c 	eorcs	r5, r1, ip, asr #32
    90b4:	20215050 	eorcs	r5, r1, r0, asr r0
    90b8:	20215048 	eorcs	r5, r1, r8, asr #32
    90bc:	0000010e 	andeq	r0, r0, lr, lsl #2
    90c0:	20215068 	eorcs	r5, r1, r8, rrx

000090c4 <uart_can_getc>:
    90c4:	e92d4010 	push	{r4, lr}
    90c8:	e59f0008 	ldr	r0, [pc, #8]	; 90d8 <uart_can_getc+0x14>
    90cc:	ebffffc1 	bl	8fd8 <get32>
    90d0:	e2000001 	and	r0, r0, #1
    90d4:	e8bd8010 	pop	{r4, pc}
    90d8:	20215064 	eorcs	r5, r1, r4, rrx

000090dc <uart_can_putc>:
    90dc:	e92d4010 	push	{r4, lr}
    90e0:	e59f0010 	ldr	r0, [pc, #16]	; 90f8 <uart_can_putc+0x1c>
    90e4:	ebffffbb 	bl	8fd8 <get32>
    90e8:	e3100002 	tst	r0, #2
    90ec:	13a00001 	movne	r0, #1
    90f0:	03a00000 	moveq	r0, #0
    90f4:	e8bd8010 	pop	{r4, pc}
    90f8:	20215064 	eorcs	r5, r1, r4, rrx

000090fc <uart_getc>:
    90fc:	e92d4010 	push	{r4, lr}
    9100:	ebffffef 	bl	90c4 <uart_can_getc>
    9104:	e3500000 	cmp	r0, #0
    9108:	0afffffc 	beq	9100 <uart_getc+0x4>
    910c:	e59f0008 	ldr	r0, [pc, #8]	; 911c <uart_getc+0x20>
    9110:	ebffffb0 	bl	8fd8 <get32>
    9114:	e6ef0070 	uxtb	r0, r0
    9118:	e8bd8010 	pop	{r4, pc}
    911c:	20215040 	eorcs	r5, r1, r0, asr #32

00009120 <uart_putc>:
    9120:	e92d4010 	push	{r4, lr}
    9124:	e1a04000 	mov	r4, r0
    9128:	ebffffeb 	bl	90dc <uart_can_putc>
    912c:	e3500000 	cmp	r0, #0
    9130:	0afffffc 	beq	9128 <uart_putc+0x8>
    9134:	e6ef1074 	uxtb	r1, r4
    9138:	e59f0004 	ldr	r0, [pc, #4]	; 9144 <uart_putc+0x24>
    913c:	ebffff99 	bl	8fa8 <put32>
    9140:	e8bd8010 	pop	{r4, pc}
    9144:	20215040 	eorcs	r5, r1, r0, asr #32

00009148 <uart_has_data>:
    9148:	e92d4010 	push	{r4, lr}
    914c:	ebffffdc 	bl	90c4 <uart_can_getc>
    9150:	e8bd8010 	pop	{r4, pc}

00009154 <gpio_set_function>:
    9154:	e350001f 	cmp	r0, #31
    9158:	812fff1e 	bxhi	lr
    915c:	e3d13007 	bics	r3, r1, #7
    9160:	112fff1e 	bxne	lr
    9164:	e92d4070 	push	{r4, r5, r6, lr}
    9168:	e1a04001 	mov	r4, r1
    916c:	e59f2044 	ldr	r2, [pc, #68]	; 91b8 <gpio_set_function+0x64>
    9170:	e0832290 	umull	r2, r3, r0, r2
    9174:	e1a031a3 	lsr	r3, r3, #3
    9178:	e1a02003 	mov	r2, r3
    917c:	e0833103 	add	r3, r3, r3, lsl #2
    9180:	e1a01083 	lsl	r1, r3, #1
    9184:	e0403001 	sub	r3, r0, r1
    9188:	e0835083 	add	r5, r3, r3, lsl #1
    918c:	e2820302 	add	r0, r2, #134217728	; 0x8000000
    9190:	e2800702 	add	r0, r0, #524288	; 0x80000
    9194:	e1a06100 	lsl	r6, r0, #2
    9198:	e1a00006 	mov	r0, r6
    919c:	ebffff8f 	bl	8fe0 <GET32>
    91a0:	e3a01007 	mov	r1, #7
    91a4:	e1c01511 	bic	r1, r0, r1, lsl r5
    91a8:	e1811514 	orr	r1, r1, r4, lsl r5
    91ac:	e1a00006 	mov	r0, r6
    91b0:	ebffff7e 	bl	8fb0 <PUT32>
    91b4:	e8bd8070 	pop	{r4, r5, r6, pc}
    91b8:	cccccccd 	stclgt	12, cr12, [ip], {205}	; 0xcd

000091bc <gpio_set_output>:
    91bc:	e92d4010 	push	{r4, lr}
    91c0:	e3a01001 	mov	r1, #1
    91c4:	ebffffe2 	bl	9154 <gpio_set_function>
    91c8:	e8bd8010 	pop	{r4, pc}

000091cc <gpio_set_on>:
    91cc:	e350001f 	cmp	r0, #31
    91d0:	812fff1e 	bxhi	lr
    91d4:	e92d4010 	push	{r4, lr}
    91d8:	e3a01001 	mov	r1, #1
    91dc:	e1a01011 	lsl	r1, r1, r0
    91e0:	e59f0004 	ldr	r0, [pc, #4]	; 91ec <gpio_set_on+0x20>
    91e4:	ebffff71 	bl	8fb0 <PUT32>
    91e8:	e8bd8010 	pop	{r4, pc}
    91ec:	2020001c 	eorcs	r0, r0, ip, lsl r0

000091f0 <gpio_set_off>:
    91f0:	e350001f 	cmp	r0, #31
    91f4:	812fff1e 	bxhi	lr
    91f8:	e92d4010 	push	{r4, lr}
    91fc:	e3a01001 	mov	r1, #1
    9200:	e1a01011 	lsl	r1, r1, r0
    9204:	e59f0004 	ldr	r0, [pc, #4]	; 9210 <gpio_set_off+0x20>
    9208:	ebffff68 	bl	8fb0 <PUT32>
    920c:	e8bd8010 	pop	{r4, pc}
    9210:	20200028 	eorcs	r0, r0, r8, lsr #32

00009214 <gpio_set_input>:
    9214:	e92d4010 	push	{r4, lr}
    9218:	e3a01000 	mov	r1, #0
    921c:	ebffffcc 	bl	9154 <gpio_set_function>
    9220:	e8bd8010 	pop	{r4, pc}

00009224 <gpio_write>:
    9224:	e92d4010 	push	{r4, lr}
    9228:	e3510000 	cmp	r1, #0
    922c:	1a000001 	bne	9238 <gpio_write+0x14>
    9230:	ebffffee 	bl	91f0 <gpio_set_off>
    9234:	e8bd8010 	pop	{r4, pc}
    9238:	ebffffe3 	bl	91cc <gpio_set_on>
    923c:	e8bd8010 	pop	{r4, pc}

00009240 <gpio_read>:
    9240:	e350001f 	cmp	r0, #31
    9244:	8a000007 	bhi	9268 <gpio_read+0x28>
    9248:	e92d4010 	push	{r4, lr}
    924c:	e200401f 	and	r4, r0, #31
    9250:	e59f3018 	ldr	r3, [pc, #24]	; 9270 <gpio_read+0x30>
    9254:	e08302a0 	add	r0, r3, r0, lsr #5
    9258:	ebffff60 	bl	8fe0 <GET32>
    925c:	e1a00430 	lsr	r0, r0, r4
    9260:	e2000001 	and	r0, r0, #1
    9264:	e8bd8010 	pop	{r4, pc}
    9268:	e3e00000 	mvn	r0, #0
    926c:	e12fff1e 	bx	lr
    9270:	20200034 	eorcs	r0, r0, r4, lsr r0

00009274 <cb_new>:
    9274:	e92d4010 	push	{r4, lr}
    9278:	e3a02004 	mov	r2, #4
    927c:	e3a01000 	mov	r1, #0
    9280:	e3a00409 	mov	r0, #150994944	; 0x9000000
    9284:	eb00000e 	bl	92c4 <memset>
    9288:	e3a00409 	mov	r0, #150994944	; 0x9000000
    928c:	e59f3004 	ldr	r3, [pc, #4]	; 9298 <cb_new+0x24>
    9290:	e5803000 	str	r3, [r0]
    9294:	e8bd8010 	pop	{r4, pc}
    9298:	12345678 	eorsne	r5, r4, #120, 12	; 0x7800000

0000929c <cb_get_block>:
    929c:	e3a03409 	mov	r3, #150994944	; 0x9000000
    92a0:	e5932000 	ldr	r2, [r3]
    92a4:	e59f3014 	ldr	r3, [pc, #20]	; 92c0 <cb_get_block+0x24>
    92a8:	e1520003 	cmp	r2, r3
    92ac:	1a000001 	bne	92b8 <cb_get_block+0x1c>
    92b0:	e3a00409 	mov	r0, #150994944	; 0x9000000
    92b4:	e12fff1e 	bx	lr
    92b8:	e3a00000 	mov	r0, #0
    92bc:	e12fff1e 	bx	lr
    92c0:	12345678 	eorsne	r5, r4, #120, 12	; 0x7800000

000092c4 <memset>:
    92c4:	e0802002 	add	r2, r0, r2
    92c8:	e1a03000 	mov	r3, r0
    92cc:	ea000001 	b	92d8 <memset+0x14>
    92d0:	e5c31000 	strb	r1, [r3]
    92d4:	e2833001 	add	r3, r3, #1
    92d8:	e1530002 	cmp	r3, r2
    92dc:	3afffffb 	bcc	92d0 <memset+0xc>
    92e0:	e12fff1e 	bx	lr

Disassembly of section .data:

000092e4 <putk>:
    92e4:	00008d84 	andeq	r8, r0, r4, lsl #27

000092e8 <rpi_putchar>:
    92e8:	00008db8 			; <UNDEFINED> instruction: 0x00008db8

Disassembly of section .rodata:

000092ec <__FUNCTION__.4248>:
    92ec:	6d746f6e 	ldclvs	15, cr6, [r4, #-440]!	; 0xfffffe48
    92f0:	006e6961 	rsbeq	r6, lr, r1, ror #18
    92f4:	74696e69 	strbtvc	r6, [r9], #-3689	; 0xfffff197
    92f8:	3a6c6169 	bcc	1b218a4 <__bss_end__+0x1b17d2c>
    92fc:	6e6f6320 	cdpvs	3, 6, cr6, cr15, cr0, {1}
    9300:	20676966 	rsbcs	r6, r7, r6, ror #18
    9304:	20676572 	rsbcs	r6, r7, r2, ror r5
    9308:	253d203d 	ldrcs	r2, [sp, #-61]!	; 0xffffffc3
    930c:	6c282078 	stcvs	0, cr2, [r8], #-480	; 0xfffffe20
    9310:	62253d6f 	eorvs	r3, r5, #7104	; 0x1bc0
    9314:	3d69682c 	stclcc	8, cr6, [r9, #-176]!	; 0xffffff50
    9318:	0a296225 	beq	a61bb4 <__bss_end__+0xa5803c>
    931c:	00000000 	andeq	r0, r0, r0
    9320:	31636461 	cmncc	r3, r1, ror #8
    9324:	2e353131 	mrccs	1, 1, r3, cr5, cr1, {1}
    9328:	00000063 	andeq	r0, r0, r3, rrx
    932c:	494e4150 	stmdbmi	lr, {r4, r6, r8, lr}^
    9330:	73253a43 			; <UNDEFINED> instruction: 0x73253a43
    9334:	3a73253a 	bcc	1cd2824 <__bss_end__+0x1cc8cac>
    9338:	4d3a6425 	cfldrsmi	mvf6, [sl, #-148]!	; 0xffffff6c
    933c:	5f45444f 	svcpl	0x0045444f
    9340:	29632856 	stmdbcs	r3!, {r1, r2, r4, r6, fp, sp}^
    9344:	203d3d20 	eorscs	r3, sp, r0, lsr #26
    9348:	00000a31 	andeq	r0, r0, r1, lsr sl
    934c:	494e4150 	stmdbmi	lr, {r4, r6, r8, lr}^
    9350:	73253a43 			; <UNDEFINED> instruction: 0x73253a43
    9354:	3a73253a 	bcc	1cd2844 <__bss_end__+0x1cc8ccc>
    9358:	443a6425 	ldrtmi	r6, [sl], #-1061	; 0xfffffbdb
    935c:	28565f52 	ldmdacs	r6, {r1, r4, r6, r8, r9, sl, fp, ip, lr}^
    9360:	3d202963 			; <UNDEFINED> instruction: 0x3d202963
    9364:	6230203d 	eorsvs	r2, r0, #61	; 0x3d
    9368:	0a303031 	beq	c15434 <__bss_end__+0xc0b8bc>
    936c:	00000000 	andeq	r0, r0, r0
    9370:	494e4150 	stmdbmi	lr, {r4, r6, r8, lr}^
    9374:	73253a43 			; <UNDEFINED> instruction: 0x73253a43
    9378:	3a73253a 	bcc	1cd2868 <__bss_end__+0x1cc8cf0>
    937c:	503a6425 	eorspl	r6, sl, r5, lsr #8
    9380:	565f4147 	ldrbpl	r4, [pc], -r7, asr #2
    9384:	20296328 	eorcs	r6, r9, r8, lsr #6
    9388:	30203d3d 	eorcc	r3, r0, sp, lsr sp
    938c:	30313062 	eorscc	r3, r1, r2, rrx
    9390:	0000000a 	andeq	r0, r0, sl
    9394:	494e4150 	stmdbmi	lr, {r4, r6, r8, lr}^
    9398:	73253a43 			; <UNDEFINED> instruction: 0x73253a43
    939c:	3a73253a 	bcc	1cd288c <__bss_end__+0x1cc8d14>
    93a0:	4d3a6425 	cfldrsmi	mvf6, [sl, #-148]!	; 0xffffff6c
    93a4:	5f45444f 	svcpl	0x0045444f
    93a8:	29632856 	stmdbcs	r3!, {r1, r2, r4, r6, fp, sp}^
    93ac:	203d3d20 	eorscs	r3, sp, r0, lsr #26
    93b0:	00000a30 	andeq	r0, r0, r0, lsr sl
    93b4:	494e4150 	stmdbmi	lr, {r4, r6, r8, lr}^
    93b8:	73253a43 			; <UNDEFINED> instruction: 0x73253a43
    93bc:	3a73253a 	bcc	1cd28ac <__bss_end__+0x1cc8d34>
    93c0:	443a6425 	ldrtmi	r6, [sl], #-1061	; 0xfffffbdb
    93c4:	28565f52 	ldmdacs	r6, {r1, r4, r6, r8, r9, sl, fp, ip, lr}^
    93c8:	3d202963 			; <UNDEFINED> instruction: 0x3d202963
    93cc:	6230203d 	eorsvs	r2, r0, #61	; 0x3d
    93d0:	0a313131 	beq	c5589c <__bss_end__+0xc4bd24>
    93d4:	00000000 	andeq	r0, r0, r0
    93d8:	494e4150 	stmdbmi	lr, {r4, r6, r8, lr}^
    93dc:	73253a43 			; <UNDEFINED> instruction: 0x73253a43
    93e0:	3a73253a 	bcc	1cd28d0 <__bss_end__+0x1cc8d58>
    93e4:	503a6425 	eorspl	r6, sl, r5, lsr #8
    93e8:	565f4147 	ldrbpl	r4, [pc], -r7, asr #2
    93ec:	20296328 	eorcs	r6, r9, r8, lsr #6
    93f0:	30203d3d 	eorcc	r3, r0, sp, lsr sp
    93f4:	000a3162 	andeq	r3, sl, r2, ror #2
    93f8:	3d74756f 	cfldr64cc	mvdx7, [r4, #-444]!	; 0xfffffe44
    93fc:	000a6425 	andeq	r6, sl, r5, lsr #8

00009400 <__FUNCTION__.4436>:
    9400:	63656863 	cmnvs	r5, #6488064	; 0x630000
    9404:	616c5f6b 	cmnvs	ip, fp, ror #30
    9408:	74756f79 	ldrbtvc	r6, [r5], #-3961	; 0xfffff087
    940c:	00000000 	andeq	r0, r0, r0

00009410 <__FUNCTION__.4342>:
    9410:	72656678 	rsbvc	r6, r5, #120, 12	; 0x7800000
    9414:	646e655f 	strbtvs	r6, [lr], #-1375	; 0xfffffaa1
    9418:	00000000 	andeq	r0, r0, r0

0000941c <__FUNCTION__.4321>:
    941c:	72656678 	rsbvc	r6, r5, #120, 12	; 0x7800000
    9420:	6174735f 	cmnvs	r4, pc, asr r3
    9424:	00007472 	andeq	r7, r0, r2, ror r4

00009428 <__FUNCTION__.4352>:
    9428:	5f633269 	svcpl	0x00633269
    942c:	74697277 	strbtvc	r7, [r9], #-631	; 0xfffffd89
    9430:	00000065 	andeq	r0, r0, r5, rrx

00009434 <__FUNCTION__.4365>:
    9434:	5f633269 	svcpl	0x00633269
    9438:	64616572 	strbtvs	r6, [r1], #-1394	; 0xfffffa8e
    943c:	00000000 	andeq	r0, r0, r0

00009440 <__FUNCTION__.4407>:
    9440:	5f633269 	svcpl	0x00633269
    9444:	74696e69 	strbtvc	r6, [r9], #-3689	; 0xfffff197
    9448:	00000000 	andeq	r0, r0, r0
    944c:	2e633269 	cdpcs	2, 6, cr3, cr3, cr9, {3}
    9450:	00000063 	andeq	r0, r0, r3, rrx
    9454:	494e4150 	stmdbmi	lr, {r4, r6, r8, lr}^
    9458:	73253a43 			; <UNDEFINED> instruction: 0x73253a43
    945c:	3a73253a 	bcc	1cd294c <__bss_end__+0x1cc8dd4>
    9460:	6f3a6425 	svcvs	0x003a6425
    9464:	65736666 	ldrbvs	r6, [r3, #-1638]!	; 0xfffff99a
    9468:	72772074 	rsbsvc	r2, r7, #116	; 0x74
    946c:	3a676e6f 	bcc	19e4e30 <__bss_end__+0x19db2b8>
    9470:	70786520 	rsbsvc	r6, r8, r0, lsr #10
    9474:	20746365 	rsbscs	r6, r4, r5, ror #6
    9478:	67207825 	strvs	r7, [r0, -r5, lsr #16]!
    947c:	2520746f 	strcs	r7, [r0, #-1135]!	; 0xfffffb91
    9480:	73252078 			; <UNDEFINED> instruction: 0x73252078
    9484:	666f5b20 	strbtvs	r5, [pc], -r0, lsr #22
    9488:	64253d66 	strtvs	r3, [r5], #-3430	; 0xfffff29a
    948c:	69626e2c 	stmdbvs	r2!, {r2, r3, r5, r9, sl, fp, sp, lr}^
    9490:	253d7374 	ldrcs	r7, [sp, #-884]!	; 0xfffffc8c
    9494:	0a0a5d64 	beq	2a0a2c <__bss_end__+0x296eb4>
    9498:	00000000 	andeq	r0, r0, r0
    949c:	64616572 	strbtvs	r6, [r1], #-1394	; 0xfffffa8e
    94a0:	00000000 	andeq	r0, r0, r0
    94a4:	61656c63 	cmnvs	r5, r3, ror #24
    94a8:	00000072 	andeq	r0, r0, r2, ror r0
    94ac:	494e4150 	stmdbmi	lr, {r4, r6, r8, lr}^
    94b0:	73253a43 			; <UNDEFINED> instruction: 0x73253a43
    94b4:	3a73253a 	bcc	1cd29a4 <__bss_end__+0x1cc8e2c>
    94b8:	773a6425 	ldrvc	r6, [sl, -r5, lsr #8]!
    94bc:	68746469 	ldmdavs	r4!, {r0, r3, r5, r6, sl, sp, lr}^
    94c0:	6f727720 	svcvs	0x00727720
    94c4:	203a676e 	eorscs	r6, sl, lr, ror #14
    94c8:	65707865 	ldrbvs	r7, [r0, #-2149]!	; 0xfffff79b
    94cc:	25207463 	strcs	r7, [r0, #-1123]!	; 0xfffffb9d
    94d0:	6f672078 	svcvs	0x00672078
    94d4:	78252074 	stmdavc	r5!, {r2, r4, r5, r6, sp}
    94d8:	20732520 	rsbscs	r2, r3, r0, lsr #10
    94dc:	66666f5b 	uqsaxvs	r6, r6, fp
    94e0:	2c64253d 	cfstr64cs	mvdx2, [r4], #-244	; 0xffffff0c
    94e4:	7469626e 	strbtvc	r6, [r9], #-622	; 0xfffffd92
    94e8:	64253d73 	strtvs	r3, [r5], #-3443	; 0xfffff28d
    94ec:	000a0a5d 	andeq	r0, sl, sp, asr sl
    94f0:	00007473 	andeq	r7, r0, r3, ror r4
    94f4:	64746e69 	ldrbtvs	r6, [r4], #-3689	; 0xfffff197
    94f8:	00000000 	andeq	r0, r0, r0
    94fc:	74746e69 	ldrbtvc	r6, [r4], #-3689	; 0xfffff197
    9500:	00000000 	andeq	r0, r0, r0
    9504:	72746e69 	rsbsvc	r6, r4, #1680	; 0x690
    9508:	00000000 	andeq	r0, r0, r0
    950c:	65633269 	strbvs	r3, [r3, #-617]!	; 0xfffffd97
    9510:	0000006e 	andeq	r0, r0, lr, rrx
    9514:	00006174 	andeq	r6, r0, r4, ror r1
    9518:	656e6f64 	strbvs	r6, [lr, #-3940]!	; 0xfffff09c
    951c:	00000000 	andeq	r0, r0, r0
    9520:	00777874 	rsbseq	r7, r7, r4, ror r8
    9524:	00727872 	rsbseq	r7, r2, r2, ror r8
    9528:	00647874 	rsbeq	r7, r4, r4, ror r8
    952c:	00647872 	rsbeq	r7, r4, r2, ror r8
    9530:	00657874 	rsbeq	r7, r5, r4, ror r8
    9534:	00667872 	rsbeq	r7, r6, r2, ror r8
    9538:	00727265 	rsbseq	r7, r2, r5, ror #4
    953c:	746b6c63 	strbtvc	r6, [fp], #-3171	; 0xfffff39d
    9540:	0000006b 	andeq	r0, r0, fp, rrx
    9544:	494e4150 	stmdbmi	lr, {r4, r6, r8, lr}^
    9548:	73253a43 			; <UNDEFINED> instruction: 0x73253a43
    954c:	3a73253a 	bcc	1cd2a3c <__bss_end__+0x1cc8ec4>
    9550:	693a6425 	ldmdbvs	sl!, {r0, r2, r5, sl, sp, lr}
    9554:	73206332 			; <UNDEFINED> instruction: 0x73206332
    9558:	6576616c 	ldrbvs	r6, [r6, #-364]!	; 0xfffffe94
    955c:	6b636120 	blvs	18e19e4 <__bss_end__+0x18d7e6c>
    9560:	72726520 	rsbsvc	r6, r2, #32, 10	; 0x8000000
    9564:	000a726f 	andeq	r7, sl, pc, ror #4
    9568:	494e4150 	stmdbmi	lr, {r4, r6, r8, lr}^
    956c:	73253a43 			; <UNDEFINED> instruction: 0x73253a43
    9570:	3a73253a 	bcc	1cd2a60 <__bss_end__+0x1cc8ee8>
    9574:	693a6425 	ldmdbvs	sl!, {r0, r2, r5, sl, sp, lr}
    9578:	73206332 			; <UNDEFINED> instruction: 0x73206332
    957c:	6576616c 	ldrbvs	r6, [r6, #-364]!	; 0xfffffe94
    9580:	6c656820 	stclvs	8, cr6, [r5], #-128	; 0xffffff80
    9584:	696c2064 	stmdbvs	ip!, {r2, r5, r6, sp}^
    9588:	7420656e 	strtvc	r6, [r0], #-1390	; 0xfffffa92
    958c:	6c206f6f 	stcvs	15, cr6, [r0], #-444	; 0xfffffe44
    9590:	0a676e6f 	beq	19e4f54 <__bss_end__+0x19db3dc>
    9594:	00000000 	andeq	r0, r0, r0
    9598:	494e4150 	stmdbmi	lr, {r4, r6, r8, lr}^
    959c:	73253a43 			; <UNDEFINED> instruction: 0x73253a43
    95a0:	3a73253a 	bcc	1cd2a90 <__bss_end__+0x1cc8f18>
    95a4:	693a6425 	ldmdbvs	sl!, {r0, r2, r5, sl, sp, lr}
    95a8:	3e2d6332 	mcrcc	3, 1, r6, cr13, cr2, {1}
    95ac:	74617473 	strbtvc	r7, [r1], #-1139	; 0xfffffb8d
    95b0:	742e7375 	strtvc	r7, [lr], #-885	; 0xfffffc8b
    95b4:	3d3d2061 	ldccc	0, cr2, [sp, #-388]!	; 0xfffffe7c
    95b8:	000a3020 	andeq	r3, sl, r0, lsr #32
    95bc:	494e4150 	stmdbmi	lr, {r4, r6, r8, lr}^
    95c0:	73253a43 			; <UNDEFINED> instruction: 0x73253a43
    95c4:	3a73253a 	bcc	1cd2ab4 <__bss_end__+0x1cc8f3c>
    95c8:	213a6425 	teqcs	sl, r5, lsr #8
    95cc:	2d633269 	sfmcs	f3, 2, [r3, #-420]!	; 0xfffffe5c
    95d0:	6174733e 	cmnvs	r4, lr, lsr r3
    95d4:	2e737574 	mrccs	5, 3, r7, cr3, cr4, {3}
    95d8:	0a727265 	beq	1ca5f74 <__bss_end__+0x1c9c3fc>
    95dc:	00000000 	andeq	r0, r0, r0
    95e0:	494e4150 	stmdbmi	lr, {r4, r6, r8, lr}^
    95e4:	73253a43 			; <UNDEFINED> instruction: 0x73253a43
    95e8:	3a73253a 	bcc	1cd2ad8 <__bss_end__+0x1cc8f60>
    95ec:	693a6425 	ldmdbvs	sl!, {r0, r2, r5, sl, sp, lr}
    95f0:	3e2d6332 	mcrcc	3, 1, r6, cr13, cr2, {1}
    95f4:	74617473 	strbtvc	r7, [r1], #-1139	; 0xfffffb8d
    95f8:	742e7375 	strtvc	r7, [lr], #-885	; 0xfffffc8b
    95fc:	3d206578 	cfstr32cc	mvfx6, [r0, #-480]!	; 0xfffffe20
    9600:	0a31203d 	beq	c516fc <__bss_end__+0xc47b84>
    9604:	00000000 	andeq	r0, r0, r0
    9608:	494e4150 	stmdbmi	lr, {r4, r6, r8, lr}^
    960c:	73253a43 			; <UNDEFINED> instruction: 0x73253a43
    9610:	3a73253a 	bcc	1cd2b00 <__bss_end__+0x1cc8f88>
    9614:	283a6425 	ldmdacs	sl!, {r0, r2, r5, sl, sp, lr}
    9618:	64646128 	strbtvs	r6, [r4], #-296	; 0xfffffed8
    961c:	3e202972 			; <UNDEFINED> instruction: 0x3e202972
    9620:	2937203e 	ldmdbcs	r7!, {r1, r2, r3, r4, r5, sp}
    9624:	203d3d20 	eorscs	r3, sp, r0, lsr #26
    9628:	00000a30 	andeq	r0, r0, r0, lsr sl
    962c:	494e4150 	stmdbmi	lr, {r4, r6, r8, lr}^
    9630:	73253a43 			; <UNDEFINED> instruction: 0x73253a43
    9634:	3a73253a 	bcc	1cd2b24 <__bss_end__+0x1cc8fac>
    9638:	283a6425 	ldmdacs	sl!, {r0, r2, r5, sl, sp, lr}
    963c:	79626e28 	stmdbvc	r2!, {r3, r5, r9, sl, fp, sp, lr}^
    9640:	29736574 	ldmdbcs	r3!, {r2, r4, r5, r6, r8, sl, sp, lr}^
    9644:	203e3e20 	eorscs	r3, lr, r0, lsr #28
    9648:	20293631 	eorcs	r3, r9, r1, lsr r6
    964c:	30203d3d 	eorcc	r3, r0, sp, lsr sp
    9650:	0000000a 	andeq	r0, r0, sl

00009654 <__FUNCTION__.4273>:
    9654:	74696d65 	strbtvc	r6, [r9], #-3429	; 0xfffff29b
    9658:	00000000 	andeq	r0, r0, r0

0000965c <__FUNCTION__.4221>:
    965c:	5f697072 	svcpl	0x00697072
    9660:	5f746573 	svcpl	0x00746573
    9664:	7074756f 	rsbsvc	r7, r4, pc, ror #10
    9668:	00007475 	andeq	r7, r0, r5, ror r4

0000966c <__FUNCTION__.4295>:
    966c:	705f6176 	subsvc	r6, pc, r6, ror r1	; <UNPREDICTABLE>
    9670:	746e6972 	strbtvc	r6, [lr], #-2418	; 0xfffff68e
    9674:	0000006b 	andeq	r0, r0, fp, rrx
    9678:	6362696c 	cmnvs	r2, #108, 18	; 0x1b0000
    967c:	2d61762f 	stclcs	6, cr7, [r1, #-188]!	; 0xffffff44
    9680:	6e697270 	mcrvs	2, 3, r7, cr9, cr0, {3}
    9684:	632e6b74 			; <UNDEFINED> instruction: 0x632e6b74
    9688:	00000000 	andeq	r0, r0, r0
    968c:	494e4150 	stmdbmi	lr, {r4, r6, r8, lr}^
    9690:	73253a43 			; <UNDEFINED> instruction: 0x73253a43
    9694:	3a73253a 	bcc	1cd2b84 <__bss_end__+0x1cc900c>
    9698:	303a6425 	eorscc	r6, sl, r5, lsr #8
    969c:	0000000a 	andeq	r0, r0, sl
    96a0:	33323130 	teqcc	r2, #48, 2
    96a4:	37363534 			; <UNDEFINED> instruction: 0x37363534
    96a8:	00003938 	andeq	r3, r0, r8, lsr r9
    96ac:	33323130 	teqcc	r2, #48, 2
    96b0:	37363534 			; <UNDEFINED> instruction: 0x37363534
    96b4:	62613938 	rsbvs	r3, r1, #56, 18	; 0xe0000
    96b8:	66656463 	strbtvs	r6, [r5], -r3, ror #8
    96bc:	00000000 	andeq	r0, r0, r0
    96c0:	00003130 	andeq	r3, r0, r0, lsr r1
    96c4:	494e4150 	stmdbmi	lr, {r4, r6, r8, lr}^
    96c8:	73253a43 			; <UNDEFINED> instruction: 0x73253a43
    96cc:	3a73253a 	bcc	1cd2bbc <__bss_end__+0x1cc9044>
    96d0:	703a6425 	eorsvc	r6, sl, r5, lsr #8
    96d4:	5f637475 	svcpl	0x00637475
    96d8:	000a7066 	andeq	r7, sl, r6, rrx
    96dc:	494e4150 	stmdbmi	lr, {r4, r6, r8, lr}^
    96e0:	73253a43 			; <UNDEFINED> instruction: 0x73253a43
    96e4:	3a73253a 	bcc	1cd2bd4 <__bss_end__+0x1cc905c>
    96e8:	773a6425 	ldrvc	r6, [sl, -r5, lsr #8]!
    96ec:	68746469 	ldmdavs	r4!, {r0, r3, r5, r6, sl, sp, lr}^
    96f0:	33203c20 			; <UNDEFINED> instruction: 0x33203c20
    96f4:	00000a32 	andeq	r0, r0, r2, lsr sl
    96f8:	494e4150 	stmdbmi	lr, {r4, r6, r8, lr}^
    96fc:	73253a43 			; <UNDEFINED> instruction: 0x73253a43
    9700:	3a73253a 	bcc	1cd2bf0 <__bss_end__+0x1cc9078>
    9704:	663a6425 	ldrtvs	r6, [sl], -r5, lsr #8
    9708:	74616f6c 	strbtvc	r6, [r1], #-3948	; 0xfffff094
    970c:	746f6e20 	strbtvc	r6, [pc], #-3616	; 9714 <__FUNCTION__.4295+0xa8>
    9710:	616e6520 	cmnvs	lr, r0, lsr #10
    9714:	64656c62 	strbtvs	r6, [r5], #-3170	; 0xfffff39e
    9718:	0a212121 	beq	851ba4 <__bss_end__+0x84802c>
    971c:	00000000 	andeq	r0, r0, r0
    9720:	494e4150 	stmdbmi	lr, {r4, r6, r8, lr}^
    9724:	73253a43 			; <UNDEFINED> instruction: 0x73253a43
    9728:	3a73253a 	bcc	1cd2c18 <__bss_end__+0x1cc90a0>
    972c:	703a6425 	eorsvc	r6, sl, r5, lsr #8
    9730:	746e6972 	strbtvc	r6, [lr], #-2418	; 0xfffff68e
    9734:	6e203a6b 	vnmulvs.f32	s6, s0, s23
    9738:	6820746f 	stmdavs	r0!, {r0, r1, r2, r3, r5, r6, sl, ip, sp, lr}
    973c:	6c646e61 	stclvs	14, cr6, [r4], #-388	; 0xfffffe7c
    9740:	20676e69 	rsbcs	r6, r7, r9, ror #28
    9744:	63657073 	cmnvs	r5, #115	; 0x73
    9748:	65696669 	strbvs	r6, [r9, #-1641]!	; 0xfffff997
    974c:	25272072 	strcs	r2, [r7, #-114]!	; 0xffffff8e
    9750:	0a0a2763 	beq	2934e4 <__bss_end__+0x28996c>
    9754:	00000000 	andeq	r0, r0, r0
    9758:	63637573 	cmnvs	r3, #482344960	; 0x1cc00000
    975c:	21737365 	cmncs	r3, r5, ror #6
    9760:	0000000a 	andeq	r0, r0, sl
    9764:	454e4f44 	strbmi	r4, [lr, #-3908]	; 0xfffff0bc
    9768:	0a212121 	beq	851bf4 <__bss_end__+0x84807c>
    976c:	00000000 	andeq	r0, r0, r0

Disassembly of section .bss:

00009770 <__bss_start__>:
    9770:	00000000 	andeq	r0, r0, r0

00009774 <buf.4221>:
	...

Disassembly of section .ARM.attributes:

00000000 <.ARM.attributes>:
   0:	00002a41 	andeq	r2, r0, r1, asr #20
   4:	61656100 	cmnvs	r5, r0, lsl #2
   8:	01006962 	tsteq	r0, r2, ror #18
   c:	00000020 	andeq	r0, r0, r0, lsr #32
  10:	4b5a3605 	blmi	168d82c <__bss_end__+0x1683cb4>
  14:	08070600 	stmdaeq	r7, {r9, sl}
  18:	12010901 	andne	r0, r1, #16384	; 0x4000
  1c:	15011404 	strne	r1, [r1, #-1028]	; 0xfffffbfc
  20:	18031701 	stmdane	r3, {r0, r8, r9, sl, ip}
  24:	22011a01 	andcs	r1, r1, #4096	; 0x1000
  28:	Address 0x0000000000000028 is out of bounds.


Disassembly of section .comment:

00000000 <.comment>:
   0:	3a434347 	bcc	10d0d24 <__bss_end__+0x10c71ac>
   4:	35312820 	ldrcc	r2, [r1, #-2080]!	; 0xfffff7e0
   8:	332e363a 			; <UNDEFINED> instruction: 0x332e363a
   c:	732b312e 			; <UNDEFINED> instruction: 0x732b312e
  10:	35326e76 	ldrcc	r6, [r2, #-3702]!	; 0xfffff18a
  14:	39333033 	ldmdbcc	r3!, {r0, r1, r4, r5, ip, sp}
  18:	7562312d 	strbvc	r3, [r2, #-301]!	; 0xfffffed3
  1c:	31646c69 	cmncc	r4, r9, ror #24
  20:	2e362029 	cdpcs	0, 3, cr2, cr6, cr9, {1}
  24:	20312e33 	eorscs	r2, r1, r3, lsr lr
  28:	37313032 			; <UNDEFINED> instruction: 0x37313032
  2c:	30323630 	eorscc	r3, r2, r0, lsr r6
  30:	43434700 	movtmi	r4, #14080	; 0x3700
  34:	4728203a 			; <UNDEFINED> instruction: 0x4728203a
  38:	5420554e 	strtpl	r5, [r0], #-1358	; 0xfffffab2
  3c:	736c6f6f 	cmnvc	ip, #444	; 0x1bc
  40:	726f6620 	rsbvc	r6, pc, #32, 12	; 0x2000000
  44:	6d724120 	ldfvse	f4, [r2, #-128]!	; 0xffffff80
  48:	626d4520 	rsbvs	r4, sp, #32, 10	; 0x8000000
  4c:	65646465 	strbvs	r6, [r4, #-1125]!	; 0xfffffb9b
  50:	72502064 	subsvc	r2, r0, #100	; 0x64
  54:	7365636f 	cmnvc	r5, #-1140850687	; 0xbc000001
  58:	73726f73 	cmnvc	r2, #460	; 0x1cc
  5c:	322d3720 	eorcc	r3, sp, #32, 14	; 0x800000
  60:	2d383130 	ldfcss	f3, [r8, #-192]!	; 0xffffff40
  64:	752d3371 	strvc	r3, [sp, #-881]!	; 0xfffffc8f
  68:	74616470 	strbtvc	r6, [r1], #-1136	; 0xfffffb90
  6c:	37202965 	strcc	r2, [r0, -r5, ror #18]!
  70:	312e332e 			; <UNDEFINED> instruction: 0x312e332e
  74:	31303220 	teqcc	r0, r0, lsr #4
  78:	32363038 	eorscc	r3, r6, #56	; 0x38
  7c:	72282032 	eorvc	r2, r8, #50	; 0x32
  80:	61656c65 	cmnvs	r5, r5, ror #24
  84:	20296573 	eorcs	r6, r9, r3, ror r5
  88:	4d52415b 	ldfmie	f4, [r2, #-364]	; 0xfffffe94
  8c:	626d652f 	rsbvs	r6, sp, #197132288	; 0xbc00000
  90:	65646465 	strbvs	r6, [r4, #-1125]!	; 0xfffffb9b
  94:	2d372d64 	ldccs	13, cr2, [r7, #-400]!	; 0xfffffe70
  98:	6e617262 	cdpvs	2, 6, cr7, cr1, cr2, {3}
  9c:	72206863 	eorvc	r6, r0, #6488064	; 0x630000
  a0:	73697665 	cmnvc	r9, #105906176	; 0x6500000
  a4:	206e6f69 	rsbcs	r6, lr, r9, ror #30
  a8:	39313632 	ldmdbcc	r1!, {r1, r4, r5, r9, sl, ip, sp}
  ac:	005d3730 	subseq	r3, sp, r0, lsr r7

Disassembly of section .debug_info:

00000000 <.debug_info>:
       0:	00000dcb 	andeq	r0, r0, fp, asr #27
       4:	00000004 	andeq	r0, r0, r4
       8:	01040000 	mrseq	r0, (UNDEF: 4)
       c:	0000000c 	andeq	r0, r0, ip
      10:	0002590c 	andeq	r5, r2, ip, lsl #18
      14:	0004d100 	andeq	sp, r4, r0, lsl #2
      18:	00801000 	addeq	r1, r0, r0
      1c:	00027800 	andeq	r7, r2, r0, lsl #16
      20:	00000000 	andeq	r0, r0, r0
      24:	05040200 	streq	r0, [r4, #-512]	; 0xfffffe00
      28:	00746e69 	rsbseq	r6, r4, r9, ror #28
      2c:	d7070403 	strle	r0, [r7, -r3, lsl #8]
      30:	03000000 	movweq	r0, #0
      34:	03540601 	cmpeq	r4, #1048576	; 0x100000
      38:	02030000 	andeq	r0, r3, #0
      3c:	00036905 	andeq	r6, r3, r5, lsl #18
      40:	05040300 	streq	r0, [r4, #-768]	; 0xfffffd00
      44:	00000118 	andeq	r0, r0, r8, lsl r1
      48:	13050803 	movwne	r0, #22531	; 0x5803
      4c:	04000001 	streq	r0, [r0], #-1
      50:	00000437 	andeq	r0, r0, r7, lsr r4
      54:	005a2e02 	subseq	r2, sl, r2, lsl #28
      58:	01030000 	mrseq	r0, (UNDEF: 3)
      5c:	00035208 	andeq	r5, r3, r8, lsl #4
      60:	01820400 	orreq	r0, r2, r0, lsl #8
      64:	31020000 	mrscc	r0, (UNDEF: 2)
      68:	0000006c 	andeq	r0, r0, ip, rrx
      6c:	63070203 	movwvs	r0, #29187	; 0x7203
      70:	03000002 	movweq	r0, #2
      74:	00d20704 	sbcseq	r0, r2, r4, lsl #14
      78:	08030000 	stmdaeq	r3, {}	; <UNPREDICTABLE>
      7c:	0000cd07 	andeq	ip, r0, r7, lsl #26
      80:	03400400 	movteq	r0, #1024	; 0x400
      84:	07030000 	streq	r0, [r3, -r0]
      88:	00000025 	andeq	r0, r0, r5, lsr #32
      8c:	00032f04 	andeq	r2, r3, r4, lsl #30
      90:	412c0400 			; <UNDEFINED> instruction: 0x412c0400
      94:	04000000 	streq	r0, [r0], #-0
      98:	0000041d 	andeq	r0, r0, sp, lsl r4
      9c:	00417204 	subeq	r7, r1, r4, lsl #4
      a0:	b0050000 	andlt	r0, r5, r0
      a4:	05000002 	streq	r0, [r0, #-2]
      a8:	002c0165 	eoreq	r0, ip, r5, ror #2
      ac:	04060000 	streq	r0, [r6], #-0
      b0:	00cda604 	sbceq	sl, sp, r4, lsl #12
      b4:	aa070000 	bge	1c00bc <__bss_end__+0x1b6544>
      b8:	04000002 	streq	r0, [r0], #-2
      bc:	0000a2a8 	andeq	sl, r0, r8, lsr #5
      c0:	02190700 	andseq	r0, r9, #0, 14
      c4:	a9040000 	stmdbge	r4, {}	; <UNPREDICTABLE>
      c8:	000000cd 	andeq	r0, r0, sp, asr #1
      cc:	005a0800 	subseq	r0, sl, r0, lsl #16
      d0:	00dd0000 	sbcseq	r0, sp, r0
      d4:	dd090000 	stcle	0, cr0, [r9, #-0]
      d8:	03000000 	movweq	r0, #0
      dc:	07040300 	streq	r0, [r4, -r0, lsl #6]
      e0:	000002f8 	strdeq	r0, [r0], -r8
      e4:	a304080a 	movwge	r0, #18442	; 0x480a
      e8:	00000105 	andeq	r0, r0, r5, lsl #2
      ec:	0004070b 	andeq	r0, r4, fp, lsl #14
      f0:	25a50400 	strcs	r0, [r5, #1024]!	; 0x400
      f4:	00000000 	andeq	r0, r0, r0
      f8:	00040f0b 	andeq	r0, r4, fp, lsl #30
      fc:	aeaa0400 	cdpge	4, 10, cr0, cr10, cr0, {0}
     100:	04000000 	streq	r0, [r0], #-0
     104:	03910400 	orrseq	r0, r1, #0, 8
     108:	ab040000 	blge	100110 <__bss_end__+0xf6598>
     10c:	000000e4 	andeq	r0, r0, r4, ror #1
     110:	0001cd04 	andeq	ip, r1, r4, lsl #26
     114:	81af0400 			; <UNDEFINED> instruction: 0x81af0400
     118:	0c000000 	stceq	0, cr0, [r0], {-0}
     11c:	23040d04 	movwcs	r0, #19716	; 0x4d04
     120:	03000001 	movweq	r0, #1
     124:	035b0801 	cmpeq	fp, #65536	; 0x10000
     128:	230e0000 	movwcs	r0, #57344	; 0xe000
     12c:	04000001 	streq	r0, [r0], #-1
     130:	0000046c 	andeq	r0, r0, ip, ror #8
     134:	00731606 	rsbseq	r1, r3, r6, lsl #12
     138:	de0f0000 	cdple	0, 0, cr0, cr15, cr0, {0}
     13c:	18000001 	stmdane	r0, {r0}
     140:	018d2d06 	orreq	r2, sp, r6, lsl #26
     144:	b20b0000 	andlt	r0, fp, #0
     148:	06000003 	streq	r0, [r0], -r3
     14c:	00018d2f 	andeq	r8, r1, pc, lsr #26
     150:	5f100000 	svcpl	0x00100000
     154:	3006006b 	andcc	r0, r6, fp, rrx
     158:	00000025 	andeq	r0, r0, r5, lsr #32
     15c:	03e90b04 	mvneq	r0, #4, 22	; 0x1000
     160:	30060000 	andcc	r0, r6, r0
     164:	00000025 	andeq	r0, r0, r5, lsr #32
     168:	01c70b08 	biceq	r0, r7, r8, lsl #22
     16c:	30060000 	andcc	r0, r6, r0
     170:	00000025 	andeq	r0, r0, r5, lsr #32
     174:	04bc0b0c 	ldrteq	r0, [ip], #2828	; 0xb0c
     178:	30060000 	andcc	r0, r6, r0
     17c:	00000025 	andeq	r0, r0, r5, lsr #32
     180:	785f1010 	ldmdavc	pc, {r4, ip}^	; <UNPREDICTABLE>
     184:	93310600 	teqls	r1, #0, 12
     188:	14000001 	strne	r0, [r0], #-1
     18c:	3a040d00 	bcc	103594 <__bss_end__+0xf9a1c>
     190:	08000001 	stmdaeq	r0, {r0}
     194:	0000012f 	andeq	r0, r0, pc, lsr #2
     198:	000001a3 	andeq	r0, r0, r3, lsr #3
     19c:	0000dd09 	andeq	sp, r0, r9, lsl #26
     1a0:	0f000000 	svceq	0x00000000
     1a4:	0000020b 	andeq	r0, r0, fp, lsl #4
     1a8:	1c350624 	ldcne	6, cr0, [r5], #-144	; 0xffffff70
     1ac:	0b000002 	bleq	1bc <_start-0x7e44>
     1b0:	0000010a 	andeq	r0, r0, sl, lsl #2
     1b4:	00253706 	eoreq	r3, r5, r6, lsl #14
     1b8:	0b000000 	bleq	1c0 <_start-0x7e40>
     1bc:	00000425 	andeq	r0, r0, r5, lsr #8
     1c0:	00253806 	eoreq	r3, r5, r6, lsl #16
     1c4:	0b040000 	bleq	1001cc <__bss_end__+0xf6654>
     1c8:	00000136 	andeq	r0, r0, r6, lsr r1
     1cc:	00253906 	eoreq	r3, r5, r6, lsl #18
     1d0:	0b080000 	bleq	2001d8 <__bss_end__+0x1f6660>
     1d4:	00000564 	andeq	r0, r0, r4, ror #10
     1d8:	00253a06 	eoreq	r3, r5, r6, lsl #20
     1dc:	0b0c0000 	bleq	3001e4 <__bss_end__+0x2f666c>
     1e0:	00000313 	andeq	r0, r0, r3, lsl r3
     1e4:	00253b06 	eoreq	r3, r5, r6, lsl #22
     1e8:	0b100000 	bleq	4001f0 <__bss_end__+0x3f6678>
     1ec:	000002d8 	ldrdeq	r0, [r0], -r8
     1f0:	00253c06 	eoreq	r3, r5, r6, lsl #24
     1f4:	0b140000 	bleq	5001fc <__bss_end__+0x4f6684>
     1f8:	000004c1 	andeq	r0, r0, r1, asr #9
     1fc:	00253d06 	eoreq	r3, r5, r6, lsl #26
     200:	0b180000 	bleq	600208 <__bss_end__+0x5f6690>
     204:	00000373 	andeq	r0, r0, r3, ror r3
     208:	00253e06 	eoreq	r3, r5, r6, lsl #28
     20c:	0b1c0000 	bleq	700214 <__bss_end__+0x6f669c>
     210:	0000052b 	andeq	r0, r0, fp, lsr #10
     214:	00253f06 	eoreq	r3, r5, r6, lsl #30
     218:	00200000 	eoreq	r0, r0, r0
     21c:	00014511 	andeq	r4, r1, r1, lsl r5
     220:	06010800 	streq	r0, [r1], -r0, lsl #16
     224:	00025c48 	andeq	r5, r2, r8, asr #24
     228:	01ba0b00 			; <UNDEFINED> instruction: 0x01ba0b00
     22c:	49060000 	stmdbmi	r6, {}	; <UNPREDICTABLE>
     230:	0000025c 	andeq	r0, r0, ip, asr r2
     234:	00000b00 	andeq	r0, r0, r0, lsl #22
     238:	4a060000 	bmi	180240 <__bss_end__+0x1766c8>
     23c:	0000025c 	andeq	r0, r0, ip, asr r2
     240:	045e1280 	ldrbeq	r1, [lr], #-640	; 0xfffffd80
     244:	4c060000 	stcmi	0, cr0, [r6], {-0}
     248:	0000012f 	andeq	r0, r0, pc, lsr #2
     24c:	6a120100 	bvs	480654 <__bss_end__+0x476adc>
     250:	06000001 	streq	r0, [r0], -r1
     254:	00012f4f 	andeq	r2, r1, pc, asr #30
     258:	00010400 	andeq	r0, r1, r0, lsl #8
     25c:	00011b08 	andeq	r1, r1, r8, lsl #22
     260:	00026c00 	andeq	r6, r2, r0, lsl #24
     264:	00dd0900 	sbcseq	r0, sp, r0, lsl #18
     268:	001f0000 	andseq	r0, pc, r0
     26c:	00031c11 	andeq	r1, r3, r1, lsl ip
     270:	06019000 	streq	r9, [r1], -r0
     274:	0002aa5b 	andeq	sl, r2, fp, asr sl
     278:	03b20b00 			; <UNDEFINED> instruction: 0x03b20b00
     27c:	5c060000 	stcpl	0, cr0, [r6], {-0}
     280:	000002aa 	andeq	r0, r0, sl, lsr #5
     284:	03ca0b00 	biceq	r0, sl, #0, 22
     288:	5d060000 	stcpl	0, cr0, [r6, #-0]
     28c:	00000025 	andeq	r0, r0, r5, lsr #32
     290:	01c20b04 	biceq	r0, r2, r4, lsl #22
     294:	5f060000 	svcpl	0x00060000
     298:	000002b0 			; <UNDEFINED> instruction: 0x000002b0
     29c:	01450b08 	cmpeq	r5, r8, lsl #22
     2a0:	60060000 	andvs	r0, r6, r0
     2a4:	0000021c 	andeq	r0, r0, ip, lsl r2
     2a8:	040d0088 	streq	r0, [sp], #-136	; 0xffffff78
     2ac:	0000026c 	andeq	r0, r0, ip, ror #4
     2b0:	0002c008 	andeq	ip, r2, r8
     2b4:	0002c000 	andeq	ip, r2, r0
     2b8:	00dd0900 	sbcseq	r0, sp, r0, lsl #18
     2bc:	001f0000 	andseq	r0, pc, r0
     2c0:	02c6040d 	sbceq	r0, r6, #218103808	; 0xd000000
     2c4:	0f130000 	svceq	0x00130000
     2c8:	0000037d 	andeq	r0, r0, sp, ror r3
     2cc:	ec730608 	ldcl	6, cr0, [r3], #-32	; 0xffffffe0
     2d0:	0b000002 	bleq	2e0 <_start-0x7d20>
     2d4:	00000130 	andeq	r0, r0, r0, lsr r1
     2d8:	02ec7406 	rsceq	r7, ip, #100663296	; 0x6000000
     2dc:	0b000000 	bleq	2e4 <_start-0x7d1c>
     2e0:	00000082 	andeq	r0, r0, r2, lsl #1
     2e4:	00257506 	eoreq	r7, r5, r6, lsl #10
     2e8:	00040000 	andeq	r0, r4, r0
     2ec:	005a040d 	subseq	r0, sl, sp, lsl #8
     2f0:	9c0f0000 	stcls	0, cr0, [pc], {-0}
     2f4:	68000003 	stmdavs	r0, {r0, r1}
     2f8:	041cb306 	ldreq	fp, [ip], #-774	; 0xfffffcfa
     2fc:	5f100000 	svcpl	0x00100000
     300:	b4060070 	strlt	r0, [r6], #-112	; 0xffffff90
     304:	000002ec 	andeq	r0, r0, ip, ror #5
     308:	725f1000 	subsvc	r1, pc, #0
     30c:	25b50600 	ldrcs	r0, [r5, #1536]!	; 0x600
     310:	04000000 	streq	r0, [r0], #-0
     314:	00775f10 	rsbseq	r5, r7, r0, lsl pc
     318:	0025b606 	eoreq	fp, r5, r6, lsl #12
     31c:	0b080000 	bleq	200324 <__bss_end__+0x1f67ac>
     320:	00000163 	andeq	r0, r0, r3, ror #2
     324:	003ab706 	eorseq	fp, sl, r6, lsl #14
     328:	0b0c0000 	bleq	300330 <__bss_end__+0x2f67b8>
     32c:	0000023f 	andeq	r0, r0, pc, lsr r2
     330:	003ab806 	eorseq	fp, sl, r6, lsl #16
     334:	100e0000 	andne	r0, lr, r0
     338:	0066625f 	rsbeq	r6, r6, pc, asr r2
     33c:	02c7b906 	sbceq	fp, r7, #98304	; 0x18000
     340:	0b100000 	bleq	400348 <__bss_end__+0x3f67d0>
     344:	000000e4 	andeq	r0, r0, r4, ror #1
     348:	0025ba06 	eoreq	fp, r5, r6, lsl #20
     34c:	0b180000 	bleq	600354 <__bss_end__+0x5f67dc>
     350:	00000153 	andeq	r0, r0, r3, asr r1
     354:	011bc106 	tsteq	fp, r6, lsl #2
     358:	0b1c0000 	bleq	700360 <__bss_end__+0x6f67e8>
     35c:	000004b6 			; <UNDEFINED> instruction: 0x000004b6
     360:	0577c306 	ldrbeq	ip, [r7, #-774]!	; 0xfffffcfa
     364:	0b200000 	bleq	80036c <__bss_end__+0x7f67f4>
     368:	0000029b 	muleq	r0, fp, r2
     36c:	05a1c506 	streq	ip, [r1, #1286]!	; 0x506
     370:	0b240000 	bleq	900378 <__bss_end__+0x8f6800>
     374:	00000417 	andeq	r0, r0, r7, lsl r4
     378:	05c5c806 	strbeq	ip, [r5, #2054]	; 0x806
     37c:	0b280000 	bleq	a00384 <__bss_end__+0x9f680c>
     380:	00000545 	andeq	r0, r0, r5, asr #10
     384:	05dfc906 	ldrbeq	ip, [pc, #2310]	; c92 <_start-0x736e>
     388:	102c0000 	eorne	r0, ip, r0
     38c:	0062755f 	rsbeq	r7, r2, pc, asr r5
     390:	02c7cc06 	sbceq	ip, r7, #1536	; 0x600
     394:	10300000 	eorsne	r0, r0, r0
     398:	0070755f 	rsbseq	r7, r0, pc, asr r5
     39c:	02eccd06 	rsceq	ip, ip, #384	; 0x180
     3a0:	10380000 	eorsne	r0, r8, r0
     3a4:	0072755f 	rsbseq	r7, r2, pc, asr r5
     3a8:	0025ce06 	eoreq	ip, r5, r6, lsl #28
     3ac:	0b3c0000 	bleq	f003b4 <__bss_end__+0xef683c>
     3b0:	0000012a 	andeq	r0, r0, sl, lsr #2
     3b4:	05e5d106 	strbeq	sp, [r5, #262]!	; 0x106
     3b8:	0b400000 	bleq	10003c0 <__bss_end__+0xff6848>
     3bc:	0000051d 	andeq	r0, r0, sp, lsl r5
     3c0:	05f5d206 	ldrbeq	sp, [r5, #518]!	; 0x206
     3c4:	10430000 	subne	r0, r3, r0
     3c8:	00626c5f 	rsbeq	r6, r2, pc, asr ip
     3cc:	02c7d506 	sbceq	sp, r7, #25165824	; 0x1800000
     3d0:	0b440000 	bleq	11003d8 <__bss_end__+0x10f6860>
     3d4:	00000179 	andeq	r0, r0, r9, ror r1
     3d8:	0025d806 	eoreq	sp, r5, r6, lsl #16
     3dc:	0b4c0000 	bleq	13003e4 <__bss_end__+0x12f686c>
     3e0:	00000193 	muleq	r0, r3, r1
     3e4:	008cd906 	addeq	sp, ip, r6, lsl #18
     3e8:	0b500000 	bleq	14003f0 <__bss_end__+0x13f6878>
     3ec:	00000c2f 	andeq	r0, r0, pc, lsr #24
     3f0:	043adc06 	ldrteq	sp, [sl], #-3078	; 0xfffff3fa
     3f4:	0b540000 	bleq	15003fc <__bss_end__+0x14f6884>
     3f8:	00000c03 	andeq	r0, r0, r3, lsl #24
     3fc:	0110e006 	tsteq	r0, r6
     400:	0b580000 	bleq	1600408 <__bss_end__+0x15f6890>
     404:	000003a4 	andeq	r0, r0, r4, lsr #7
     408:	0105e206 	tsteq	r5, r6, lsl #4
     40c:	0b5c0000 	bleq	1700414 <__bss_end__+0x16f689c>
     410:	000002c1 	andeq	r0, r0, r1, asr #5
     414:	0025e306 	eoreq	lr, r5, r6, lsl #6
     418:	00640000 	rsbeq	r0, r4, r0
     41c:	00002514 	andeq	r2, r0, r4, lsl r5
     420:	00043a00 	andeq	r3, r4, r0, lsl #20
     424:	043a1500 	ldrteq	r1, [sl], #-1280	; 0xfffffb00
     428:	1b150000 	blne	540430 <__bss_end__+0x5368b8>
     42c:	15000001 	strne	r0, [r0, #-1]
     430:	0000011d 	andeq	r0, r0, sp, lsl r1
     434:	00002515 	andeq	r2, r0, r5, lsl r5
     438:	040d0000 	streq	r0, [sp], #-0
     43c:	00000445 	andeq	r0, r0, r5, asr #8
     440:	00043a0e 	andeq	r3, r4, lr, lsl #20
     444:	03f11600 	mvnseq	r1, #0, 12
     448:	04280000 	strteq	r0, [r8], #-0
     44c:	77023806 	strvc	r3, [r2, -r6, lsl #16]
     450:	17000005 	strne	r0, [r0, -r5]
     454:	00000362 	andeq	r0, r0, r2, ror #6
     458:	25023a06 	strcs	r3, [r2, #-2566]	; 0xfffff5fa
     45c:	00000000 	andeq	r0, r0, r0
     460:	00017217 	andeq	r7, r1, r7, lsl r2
     464:	023f0600 	eorseq	r0, pc, #0, 12
     468:	0000064c 	andeq	r0, r0, ip, asr #12
     46c:	022f1704 	eoreq	r1, pc, #4, 14	; 0x100000
     470:	3f060000 	svccc	0x00060000
     474:	00064c02 	andeq	r4, r6, r2, lsl #24
     478:	d6170800 	ldrle	r0, [r7], -r0, lsl #16
     47c:	06000001 	streq	r0, [r0], -r1
     480:	064c023f 			; <UNDEFINED> instruction: 0x064c023f
     484:	170c0000 	strne	r0, [ip, -r0]
     488:	000003c5 	andeq	r0, r0, r5, asr #7
     48c:	25024106 	strcs	r4, [r2, #-262]	; 0xfffffefa
     490:	10000000 	andne	r0, r0, r0
     494:	00009017 	andeq	r9, r0, r7, lsl r0
     498:	02420600 	subeq	r0, r2, #0, 12
     49c:	0000082e 	andeq	r0, r0, lr, lsr #16
     4a0:	04941714 	ldreq	r1, [r4], #1812	; 0x714
     4a4:	44060000 	strmi	r0, [r6], #-0
     4a8:	00002502 	andeq	r2, r0, r2, lsl #10
     4ac:	cf173000 	svcgt	0x00173000
     4b0:	06000003 	streq	r0, [r0], -r3
     4b4:	059b0245 	ldreq	r0, [fp, #581]	; 0x245
     4b8:	17340000 	ldrne	r0, [r4, -r0]!
     4bc:	00000324 	andeq	r0, r0, r4, lsr #6
     4c0:	25024706 	strcs	r4, [r2, #-1798]	; 0xfffff8fa
     4c4:	38000000 	stmdacc	r0, {}	; <UNPREDICTABLE>
     4c8:	0003df17 	andeq	sp, r3, r7, lsl pc
     4cc:	02490600 	subeq	r0, r9, #0, 12
     4d0:	00000849 	andeq	r0, r0, r9, asr #16
     4d4:	02a2173c 	adceq	r1, r2, #60, 14	; 0xf00000
     4d8:	4c060000 	stcmi	0, cr0, [r6], {-0}
     4dc:	00018d02 	andeq	r8, r1, r2, lsl #26
     4e0:	f5174000 			; <UNDEFINED> instruction: 0xf5174000
     4e4:	06000001 	streq	r0, [r0], -r1
     4e8:	0025024d 	eoreq	r0, r5, sp, asr #4
     4ec:	17440000 	strbne	r0, [r4, -r0]
     4f0:	0000055f 	andeq	r0, r0, pc, asr r5
     4f4:	8d024e06 	stchi	14, cr4, [r2, #-24]	; 0xffffffe8
     4f8:	48000001 	stmdami	r0, {r0}
     4fc:	00033617 	andeq	r3, r3, r7, lsl r6
     500:	024f0600 	subeq	r0, pc, #0, 12
     504:	0000084f 	andeq	r0, r0, pc, asr #16
     508:	0237174c 	eorseq	r1, r7, #76, 14	; 0x1300000
     50c:	52060000 	andpl	r0, r6, #0
     510:	00002502 	andeq	r2, r0, r2, lsl #10
     514:	8b175000 	blhi	5d451c <__bss_end__+0x5ca9a4>
     518:	06000001 	streq	r0, [r0], -r1
     51c:	011d0253 	tsteq	sp, r3, asr r2
     520:	17540000 	ldrbne	r0, [r4, -r0]
     524:	00000cc5 	andeq	r0, r0, r5, asr #25
     528:	0c027606 	stceq	6, cr7, [r2], {6}
     52c:	58000008 	stmdapl	r0, {r3}
     530:	00031c18 	andeq	r1, r3, r8, lsl ip
     534:	027a0600 	rsbseq	r0, sl, #0, 12
     538:	000002aa 	andeq	r0, r0, sl, lsr #5
     53c:	76180148 	ldrvc	r0, [r8], -r8, asr #2
     540:	06000002 	streq	r0, [r0], -r2
     544:	026c027b 	rsbeq	r0, ip, #-1342177273	; 0xb0000007
     548:	014c0000 	mrseq	r0, (UNDEF: 76)
     54c:	00050818 	andeq	r0, r5, r8, lsl r8
     550:	027f0600 	rsbseq	r0, pc, #0, 12
     554:	00000860 	andeq	r0, r0, r0, ror #16
     558:	5b1802dc 	blpl	6010d0 <__bss_end__+0x5f7558>
     55c:	06000001 	streq	r0, [r0], -r1
     560:	06110284 	ldreq	r0, [r1], -r4, lsl #5
     564:	02e00000 	rsceq	r0, r0, #0
     568:	00014018 	andeq	r4, r1, r8, lsl r0
     56c:	02850600 	addeq	r0, r5, #0, 12
     570:	0000086c 	andeq	r0, r0, ip, ror #16
     574:	0d0002ec 	sfmeq	f0, 4, [r0, #-944]	; 0xfffffc50
     578:	00041c04 	andeq	r1, r4, r4, lsl #24
     57c:	00251400 	eoreq	r1, r5, r0, lsl #8
     580:	059b0000 	ldreq	r0, [fp]
     584:	3a150000 	bcc	54058c <__bss_end__+0x536a14>
     588:	15000004 	strne	r0, [r0, #-4]
     58c:	0000011b 	andeq	r0, r0, fp, lsl r1
     590:	00059b15 	andeq	r9, r5, r5, lsl fp
     594:	00251500 	eoreq	r1, r5, r0, lsl #10
     598:	0d000000 	stceq	0, cr0, [r0, #-0]
     59c:	00012a04 	andeq	r2, r1, r4, lsl #20
     5a0:	7d040d00 	stcvc	13, cr0, [r4, #-0]
     5a4:	14000005 	strne	r0, [r0], #-5
     5a8:	00000097 	muleq	r0, r7, r0
     5ac:	000005c5 	andeq	r0, r0, r5, asr #11
     5b0:	00043a15 	andeq	r3, r4, r5, lsl sl
     5b4:	011b1500 	tsteq	fp, r0, lsl #10
     5b8:	97150000 	ldrls	r0, [r5, -r0]
     5bc:	15000000 	strne	r0, [r0, #-0]
     5c0:	00000025 	andeq	r0, r0, r5, lsr #32
     5c4:	a7040d00 	strge	r0, [r4, -r0, lsl #26]
     5c8:	14000005 	strne	r0, [r0], #-5
     5cc:	00000025 	andeq	r0, r0, r5, lsr #32
     5d0:	000005df 	ldrdeq	r0, [r0], -pc	; <UNPREDICTABLE>
     5d4:	00043a15 	andeq	r3, r4, r5, lsl sl
     5d8:	011b1500 	tsteq	fp, r0, lsl #10
     5dc:	0d000000 	stceq	0, cr0, [r0, #-0]
     5e0:	0005cb04 	andeq	ip, r5, r4, lsl #22
     5e4:	005a0800 	subseq	r0, sl, r0, lsl #16
     5e8:	05f50000 	ldrbeq	r0, [r5, #0]!
     5ec:	dd090000 	stcle	0, cr0, [r9, #-0]
     5f0:	02000000 	andeq	r0, r0, #0
     5f4:	005a0800 	subseq	r0, sl, r0, lsl #16
     5f8:	06050000 	streq	r0, [r5], -r0
     5fc:	dd090000 	stcle	0, cr0, [r9, #-0]
     600:	00000000 	andeq	r0, r0, r0
     604:	038a0500 	orreq	r0, sl, #0, 10
     608:	1d060000 	stcne	0, cr0, [r6, #-0]
     60c:	0002f201 	andeq	pc, r2, r1, lsl #4
     610:	04cb1900 	strbeq	r1, [fp], #2304	; 0x900
     614:	060c0000 	streq	r0, [ip], -r0
     618:	06460121 	strbeq	r0, [r6], -r1, lsr #2
     61c:	b2170000 	andslt	r0, r7, #0
     620:	06000003 	streq	r0, [r0], -r3
     624:	06460123 	strbeq	r0, [r6], -r3, lsr #2
     628:	17000000 	strne	r0, [r0, -r0]
     62c:	00000252 	andeq	r0, r0, r2, asr r2
     630:	25012406 	strcs	r2, [r1, #-1030]	; 0xfffffbfa
     634:	04000000 	streq	r0, [r0], #-0
     638:	00038417 	andeq	r8, r3, r7, lsl r4
     63c:	01250600 			; <UNDEFINED> instruction: 0x01250600
     640:	0000064c 	andeq	r0, r0, ip, asr #12
     644:	040d0008 	streq	r0, [sp], #-8
     648:	00000611 	andeq	r0, r0, r1, lsl r6
     64c:	0605040d 	streq	r0, [r5], -sp, lsl #8
     650:	88190000 	ldmdahi	r9, {}	; <UNPREDICTABLE>
     654:	0e000000 	cdpeq	0, 0, cr0, cr0, cr0, {0}
     658:	87013d06 	strhi	r3, [r1, -r6, lsl #26]
     65c:	17000006 	strne	r0, [r0, -r6]
     660:	000003f8 	strdeq	r0, [r0], -r8
     664:	87013e06 	strhi	r3, [r1, -r6, lsl #28]
     668:	00000006 	andeq	r0, r0, r6
     66c:	00043f17 	andeq	r3, r4, r7, lsl pc
     670:	013f0600 	teqeq	pc, r0, lsl #12
     674:	00000687 	andeq	r0, r0, r7, lsl #13
     678:	04671706 	strbteq	r1, [r7], #-1798	; 0xfffff8fa
     67c:	40060000 	andmi	r0, r6, r0
     680:	00006c01 	andeq	r6, r0, r1, lsl #24
     684:	08000c00 	stmdaeq	r0, {sl, fp}
     688:	0000006c 	andeq	r0, r0, ip, rrx
     68c:	00000697 	muleq	r0, r7, r6
     690:	0000dd09 	andeq	sp, r0, r9, lsl #26
     694:	1a000200 	bne	e9c <_start-0x7164>
     698:	025706d0 	subseq	r0, r7, #208, 12	; 0xd000000
     69c:	00000798 	muleq	r0, r8, r7
     6a0:	0004a617 	andeq	sl, r4, r7, lsl r6
     6a4:	02590600 	subseq	r0, r9, #0, 12
     6a8:	0000002c 	andeq	r0, r0, ip, lsr #32
     6ac:	04511700 	ldrbeq	r1, [r1], #-1792	; 0xfffff900
     6b0:	5a060000 	bpl	1806b8 <__bss_end__+0x176b40>
     6b4:	00011d02 	andeq	r1, r1, r2, lsl #26
     6b8:	8b170400 	blhi	5c16c0 <__bss_end__+0x5b7b48>
     6bc:	06000002 	streq	r0, [r0], -r2
     6c0:	0798025b 			; <UNDEFINED> instruction: 0x0798025b
     6c4:	17080000 	strne	r0, [r8, -r0]
     6c8:	00000536 	andeq	r0, r0, r6, lsr r5
     6cc:	a3025c06 	movwge	r5, #11270	; 0x2c06
     6d0:	24000001 	strcs	r0, [r0], #-1
     6d4:	0001e617 	andeq	lr, r1, r7, lsl r6
     6d8:	025d0600 	subseq	r0, sp, #0, 12
     6dc:	00000025 	andeq	r0, r0, r5, lsr #32
     6e0:	03ad1748 			; <UNDEFINED> instruction: 0x03ad1748
     6e4:	5e060000 	cdppl	0, 0, cr0, cr6, cr0, {0}
     6e8:	00007a02 	andeq	r7, r0, r2, lsl #20
     6ec:	4c175000 	ldcmi	0, cr5, [r7], {-0}
     6f0:	06000005 	streq	r0, [r0], -r5
     6f4:	0652025f 			; <UNDEFINED> instruction: 0x0652025f
     6f8:	17580000 	ldrbne	r0, [r8, -r0]
     6fc:	000003b8 			; <UNDEFINED> instruction: 0x000003b8
     700:	05026006 	streq	r6, [r2, #-6]
     704:	68000001 	stmdavs	r0, {r0}
     708:	00055117 	andeq	r5, r5, r7, lsl r1
     70c:	02610600 	rsbeq	r0, r1, #0, 12
     710:	00000105 	andeq	r0, r0, r5, lsl #2
     714:	00fc1770 	rscseq	r1, ip, r0, ror r7
     718:	62060000 	andvs	r0, r6, #0
     71c:	00010502 	andeq	r0, r1, r2, lsl #10
     720:	fe177800 	cdp2	8, 1, cr7, cr7, cr0, {0}
     724:	06000004 	streq	r0, [r0], -r4
     728:	07a80263 	streq	r0, [r8, r3, ror #4]!
     72c:	17800000 	strne	r0, [r0, r0]
     730:	0000027f 	andeq	r0, r0, pc, ror r2
     734:	b8026406 	stmdalt	r2, {r1, r2, sl, sp, lr}
     738:	88000007 	stmdahi	r0, {r0, r1, r2}
     73c:	00047417 	andeq	r7, r4, r7, lsl r4
     740:	02650600 	rsbeq	r0, r5, #0, 12
     744:	00000025 	andeq	r0, r0, r5, lsr #32
     748:	01ac17a0 			; <UNDEFINED> instruction: 0x01ac17a0
     74c:	66060000 	strvs	r0, [r6], -r0
     750:	00010502 	andeq	r0, r1, r2, lsl #10
     754:	ed17a400 	cfldrs	mvf10, [r7, #-0]
     758:	06000000 	streq	r0, [r0], -r0
     75c:	01050267 	tsteq	r5, r7, ror #4
     760:	17ac0000 	strne	r0, [ip, r0]!
     764:	0000019b 	muleq	r0, fp, r1
     768:	05026806 	streq	r6, [r2, #-2054]	; 0xfffff7fa
     76c:	b4000001 	strlt	r0, [r0], #-1
     770:	0000ad17 	andeq	sl, r0, r7, lsl sp
     774:	02690600 	rsbeq	r0, r9, #0, 12
     778:	00000105 	andeq	r0, r0, r5, lsl #2
     77c:	00bc17bc 	ldrhteq	r1, [ip], ip
     780:	6a060000 	bvs	180788 <__bss_end__+0x176c10>
     784:	00010502 	andeq	r0, r1, r2, lsl #10
     788:	6017c400 	andsvs	ip, r7, r0, lsl #8
     78c:	06000003 	streq	r0, [r0], -r3
     790:	0025026b 	eoreq	r0, r5, fp, ror #4
     794:	00cc0000 	sbceq	r0, ip, r0
     798:	00012308 	andeq	r2, r1, r8, lsl #6
     79c:	0007a800 	andeq	sl, r7, r0, lsl #16
     7a0:	00dd0900 	sbcseq	r0, sp, r0, lsl #18
     7a4:	00190000 	andseq	r0, r9, r0
     7a8:	00012308 	andeq	r2, r1, r8, lsl #6
     7ac:	0007b800 	andeq	fp, r7, r0, lsl #16
     7b0:	00dd0900 	sbcseq	r0, sp, r0, lsl #18
     7b4:	00070000 	andeq	r0, r7, r0
     7b8:	00012308 	andeq	r2, r1, r8, lsl #6
     7bc:	0007c800 	andeq	ip, r7, r0, lsl #16
     7c0:	00dd0900 	sbcseq	r0, sp, r0, lsl #18
     7c4:	00170000 	andseq	r0, r7, r0
     7c8:	7006f01a 	andvc	pc, r6, sl, lsl r0	; <UNPREDICTABLE>
     7cc:	0007ec02 	andeq	lr, r7, r2, lsl #24
     7d0:	030c1700 	movweq	r1, #50944	; 0xc700
     7d4:	73060000 	movwvc	r0, #24576	; 0x6000
     7d8:	0007ec02 	andeq	lr, r7, r2, lsl #24
     7dc:	ef170000 	svc	0x00170000
     7e0:	06000002 	streq	r0, [r0], -r2
     7e4:	07fc0274 			; <UNDEFINED> instruction: 0x07fc0274
     7e8:	00780000 	rsbseq	r0, r8, r0
     7ec:	0002ec08 	andeq	lr, r2, r8, lsl #24
     7f0:	0007fc00 	andeq	pc, r7, r0, lsl #24
     7f4:	00dd0900 	sbcseq	r0, sp, r0, lsl #18
     7f8:	001d0000 	andseq	r0, sp, r0
     7fc:	00002c08 	andeq	r2, r0, r8, lsl #24
     800:	00080c00 	andeq	r0, r8, r0, lsl #24
     804:	00dd0900 	sbcseq	r0, sp, r0, lsl #18
     808:	001d0000 	andseq	r0, sp, r0
     80c:	5506f01b 	strpl	pc, [r6, #-27]	; 0xffffffe5
     810:	00082e02 	andeq	r2, r8, r2, lsl #28
     814:	03f11c00 	mvnseq	r1, #0, 24
     818:	6c060000 	stcvs	0, cr0, [r6], {-0}
     81c:	00069702 	andeq	r9, r6, r2, lsl #14
     820:	05231c00 	streq	r1, [r3, #-3072]!	; 0xfffff400
     824:	75060000 	strvc	r0, [r6, #-0]
     828:	0007c802 	andeq	ip, r7, r2, lsl #16
     82c:	23080000 	movwcs	r0, #32768	; 0x8000
     830:	3e000001 	cdpcc	0, 0, cr0, cr0, cr1, {0}
     834:	09000008 	stmdbeq	r0, {r3}
     838:	000000dd 	ldrdeq	r0, [r0], -sp
     83c:	491d0018 	ldmdbmi	sp, {r3, r4}
     840:	15000008 	strne	r0, [r0, #-8]
     844:	0000043a 	andeq	r0, r0, sl, lsr r4
     848:	3e040d00 	cdpcc	13, 0, cr0, cr4, cr0, {0}
     84c:	0d000008 	stceq	0, cr0, [r0, #-32]	; 0xffffffe0
     850:	00018d04 	andeq	r8, r1, r4, lsl #26
     854:	08601d00 	stmdaeq	r0!, {r8, sl, fp, ip}^
     858:	25150000 	ldrcs	r0, [r5, #-0]
     85c:	00000000 	andeq	r0, r0, r0
     860:	0866040d 	stmdaeq	r6!, {r0, r2, r3, sl}^
     864:	040d0000 	streq	r0, [sp], #-0
     868:	00000855 	andeq	r0, r0, r5, asr r8
     86c:	00060508 	andeq	r0, r6, r8, lsl #10
     870:	00087c00 	andeq	r7, r8, r0, lsl #24
     874:	00dd0900 	sbcseq	r0, sp, r0, lsl #18
     878:	00020000 	andeq	r0, r2, r0
     87c:	0004881e 	andeq	r8, r4, lr, lsl r8
     880:	02fd0600 	rscseq	r0, sp, #0, 12
     884:	0000043a 	andeq	r0, r0, sl, lsr r4
     888:	0004811e 	andeq	r8, r4, lr, lsl r1
     88c:	02fe0600 	rscseq	r0, lr, #0, 12
     890:	00000440 	andeq	r0, r0, r0, asr #8
     894:	00002514 	andeq	r2, r0, r4, lsl r5
     898:	0008a300 	andeq	sl, r8, r0, lsl #6
     89c:	00251500 	eoreq	r1, r5, r0, lsl #10
     8a0:	1f000000 	svcne	0x00000000
     8a4:	000001ff 	strdeq	r0, [r0], -pc	; <UNPREDICTABLE>
     8a8:	08ae1d07 	stmiaeq	lr!, {r0, r1, r2, r8, sl, fp, ip}
     8ac:	040d0000 	streq	r0, [sp], #-0
     8b0:	00000894 	muleq	r0, r4, r8
     8b4:	00002514 	andeq	r2, r0, r4, lsl r5
     8b8:	0008c300 	andeq	ip, r8, r0, lsl #6
     8bc:	059b1500 	ldreq	r1, [fp, #1280]	; 0x500
     8c0:	1f000000 	svcne	0x00000000
     8c4:	000008b2 			; <UNDEFINED> instruction: 0x000008b2
     8c8:	08ce2207 	stmiaeq	lr, {r0, r1, r2, r9, sp}^
     8cc:	040d0000 	streq	r0, [sp], #-0
     8d0:	000008b4 			; <UNDEFINED> instruction: 0x000008b4
     8d4:	00009b20 	andeq	r9, r0, r0, lsr #22
     8d8:	b8300100 	ldmdalt	r0!, {r8}
     8dc:	d0000080 	andle	r0, r0, r0, lsl #1
     8e0:	01000001 	tsteq	r0, r1
     8e4:	000c089c 	muleq	ip, ip, r8
     8e8:	5a012100 	bpl	48cf0 <__bss_end__+0x3f178>
     8ec:	01000000 	mrseq	r0, (UNDEF: 0)
     8f0:	0008fc39 	andeq	pc, r8, r9, lsr ip	; <UNPREDICTABLE>
     8f4:	01212200 			; <UNDEFINED> instruction: 0x01212200
     8f8:	00480000 	subeq	r0, r8, r0
     8fc:	005a0121 	subseq	r0, sl, r1, lsr #2
     900:	3b010000 	blcc	40908 <__bss_end__+0x36d90>
     904:	00000915 	andeq	r0, r0, r5, lsl r9
     908:	0002c922 	andeq	ip, r2, r2, lsr #18
     90c:	12220000 	eorne	r0, r2, #0
     910:	01000005 	tsteq	r0, r5
     914:	00632300 	rsbeq	r2, r3, r0, lsl #6
     918:	00614e01 	rsbeq	r4, r1, r1, lsl #28
     91c:	00000000 	andeq	r0, r0, r0
     920:	45240000 	strmi	r0, [r4, #-0]!
     924:	18000002 	stmdane	r0, {r1}
     928:	0500000c 	streq	r0, [r0, #-12]
     92c:	0092ec03 	addseq	lr, r2, r3, lsl #24
     930:	82282500 	eorhi	r2, r8, #0, 10
     934:	002c0000 	eoreq	r0, ip, r0
     938:	09a40000 	stmibeq	r4!, {}	; <UNPREDICTABLE>
     93c:	69230000 	stmdbvs	r3!, {}	; <UNPREDICTABLE>
     940:	257a0100 	ldrbcs	r0, [sl, #-256]!	; 0xffffff00
     944:	73000000 	movwvc	r0, #0
     948:	26000000 	strcs	r0, [r0], -r0
     94c:	00008228 	andeq	r8, r0, r8, lsr #4
     950:	00000020 	andeq	r0, r0, r0, lsr #32
     954:	01007623 	tsteq	r0, r3, lsr #12
     958:	00003a7b 	andeq	r3, r0, fp, ror sl
     95c:	00008600 	andeq	r8, r0, r0, lsl #12
     960:	82342700 	eorshi	r2, r4, #0, 14
     964:	0c1d0000 	ldceq	0, cr0, [sp], {-0}
     968:	097a0000 	ldmdbeq	sl!, {}^	; <UNPREDICTABLE>
     96c:	01280000 			; <UNDEFINED> instruction: 0x01280000
     970:	48080250 	stmdami	r8, {r4, r6, r9}
     974:	01510128 	cmpeq	r1, r8, lsr #2
     978:	40270030 	eormi	r0, r7, r0, lsr r0
     97c:	6b000082 	blvs	b8c <_start-0x7474>
     980:	9100000d 	tstls	r0, sp
     984:	28000009 	stmdacs	r0, {r0, r3}
     988:	03055001 	movweq	r5, #20481	; 0x5001
     98c:	000093f8 	strdeq	r9, [r0], -r8
     990:	82482900 	subhi	r2, r8, #0, 18
     994:	0d760000 	ldcleq	0, cr0, [r6, #-0]
     998:	01280000 			; <UNDEFINED> instruction: 0x01280000
     99c:	e80a0350 	stmda	sl, {r4, r6, r8, r9}
     9a0:	00000003 	andeq	r0, r0, r3
     9a4:	0080c02a 	addeq	ip, r0, sl, lsr #32
     9a8:	000d8100 	andeq	r8, sp, r0, lsl #2
     9ac:	80c82700 	sbchi	r2, r8, r0, lsl #14
     9b0:	0d760000 	ldcleq	0, cr0, [r6, #-0]
     9b4:	09c00000 	stmibeq	r0, {}^	; <UNPREDICTABLE>
     9b8:	01280000 			; <UNDEFINED> instruction: 0x01280000
     9bc:	004e0150 	subeq	r0, lr, r0, asr r1
     9c0:	0080cc2a 	addeq	ip, r0, sl, lsr #24
     9c4:	000d8c00 	andeq	r8, sp, r0, lsl #24
     9c8:	80d42700 	sbcshi	r2, r4, r0, lsl #14
     9cc:	0d760000 	ldcleq	0, cr0, [r6, #-0]
     9d0:	09dc0000 	ldmibeq	ip, {}^	; <UNPREDICTABLE>
     9d4:	01280000 			; <UNDEFINED> instruction: 0x01280000
     9d8:	004e0150 	subeq	r0, lr, r0, asr r1
     9dc:	0080d82a 	addeq	sp, r0, sl, lsr #16
     9e0:	000d2d00 	andeq	r2, sp, r0, lsl #26
     9e4:	80e02700 	rschi	r2, r0, r0, lsl #14
     9e8:	0d970000 	ldceq	0, cr0, [r7]
     9ec:	09f80000 	ldmibeq	r8!, {}^	; <UNPREDICTABLE>
     9f0:	01280000 			; <UNDEFINED> instruction: 0x01280000
     9f4:	00490150 	subeq	r0, r9, r0, asr r1
     9f8:	0080ec27 	addeq	lr, r0, r7, lsr #24
     9fc:	000c1d00 	andeq	r1, ip, r0, lsl #26
     a00:	000a1100 	andeq	r1, sl, r0, lsl #2
     a04:	50012800 	andpl	r2, r1, r0, lsl #16
     a08:	28480802 	stmdacs	r8, {r1, fp}^
     a0c:	31015101 	tstcc	r1, r1, lsl #2
     a10:	810c2700 	tsthi	ip, r0, lsl #14
     a14:	0d6b0000 	stcleq	0, cr0, [fp, #-0]
     a18:	0a340000 	beq	d00a20 <__bss_end__+0xcf6ea8>
     a1c:	01280000 			; <UNDEFINED> instruction: 0x01280000
     a20:	f4030550 	vst3.16	{d0,d2,d4}, [r3 :64], r0
     a24:	28000092 	stmdacs	r0, {r1, r4, r7}
     a28:	74025101 	strvc	r5, [r2], #-257	; 0xfffffeff
     a2c:	53012800 	movwpl	r2, #6144	; 0x1800
     a30:	00007502 	andeq	r7, r0, r2, lsl #10
     a34:	0081282a 	addeq	r2, r1, sl, lsr #16
     a38:	000da200 	andeq	sl, sp, r0, lsl #4
     a3c:	813c2700 	teqhi	ip, r0, lsl #14
     a40:	0d6b0000 	stcleq	0, cr0, [fp, #-0]
     a44:	0a6c0000 	beq	1b00a4c <__bss_end__+0x1af6ed4>
     a48:	01280000 			; <UNDEFINED> instruction: 0x01280000
     a4c:	4c030550 	cfstr32mi	mvfx0, [r3], {80}	; 0x50
     a50:	28000093 	stmdacs	r0, {r0, r1, r4, r7}
     a54:	03055101 	movweq	r5, #20737	; 0x5101
     a58:	00009320 	andeq	r9, r0, r0, lsr #6
     a5c:	05520128 	ldrbeq	r0, [r2, #-296]	; 0xfffffed8
     a60:	0092ec03 	addseq	lr, r2, r3, lsl #24
     a64:	53012800 	movwpl	r2, #6144	; 0x1800
     a68:	00550802 	subseq	r0, r5, r2, lsl #16
     a6c:	0081402a 	addeq	r4, r1, sl, lsr #32
     a70:	000dad00 	andeq	sl, sp, r0, lsl #26
     a74:	81442a00 	cmphi	r4, r0, lsl #20
     a78:	0da20000 	stceq	0, cr0, [r2]
     a7c:	58270000 	stmdapl	r7!, {}	; <UNPREDICTABLE>
     a80:	6b000081 	blvs	c8c <_start-0x7374>
     a84:	ad00000d 	stcge	0, cr0, [r0, #-52]	; 0xffffffcc
     a88:	2800000a 	stmdacs	r0, {r1, r3}
     a8c:	03055001 	movweq	r5, #20481	; 0x5001
     a90:	0000932c 	andeq	r9, r0, ip, lsr #6
     a94:	05510128 	ldrbeq	r0, [r1, #-296]	; 0xfffffed8
     a98:	00932003 	addseq	r2, r3, r3
     a9c:	52012800 	andpl	r2, r1, #0, 16
     aa0:	92ec0305 	rscls	r0, ip, #335544320	; 0x14000000
     aa4:	01280000 			; <UNDEFINED> instruction: 0x01280000
     aa8:	53080253 	movwpl	r0, #33363	; 0x8253
     aac:	815c2a00 	cmphi	ip, r0, lsl #20
     ab0:	0dad0000 	stceq	0, cr0, [sp]
     ab4:	702a0000 	eorvc	r0, sl, r0
     ab8:	a2000081 	andge	r0, r0, #129	; 0x81
     abc:	2700000d 	strcs	r0, [r0, -sp]
     ac0:	00008184 	andeq	r8, r0, r4, lsl #3
     ac4:	00000d6b 	andeq	r0, r0, fp, ror #26
     ac8:	00000aee 	andeq	r0, r0, lr, ror #21
     acc:	05500128 	ldrbeq	r0, [r0, #-296]	; 0xfffffed8
     ad0:	00937003 	addseq	r7, r3, r3
     ad4:	51012800 	tstpl	r1, r0, lsl #16
     ad8:	93200305 			; <UNDEFINED> instruction: 0x93200305
     adc:	01280000 			; <UNDEFINED> instruction: 0x01280000
     ae0:	ec030552 	cfstr32	mvfx0, [r3], {82}	; 0x52
     ae4:	28000092 	stmdacs	r0, {r1, r4, r7}
     ae8:	08025301 	stmdaeq	r2, {r0, r8, r9, ip, lr}
     aec:	882a0057 	stmdahi	sl!, {r0, r1, r2, r4, r6}
     af0:	ad000081 	stcge	0, cr0, [r0, #-516]	; 0xfffffdfc
     af4:	2700000d 	strcs	r0, [r0, -sp]
     af8:	000081a0 	andeq	r8, r0, r0, lsr #3
     afc:	00000cb9 			; <UNDEFINED> instruction: 0x00000cb9
     b00:	00000b22 	andeq	r0, r0, r2, lsr #22
     b04:	02500128 	subseq	r0, r0, #40, 2
     b08:	01284808 			; <UNDEFINED> instruction: 0x01284808
     b0c:	28310151 	ldmdacs	r1!, {r0, r4, r6, r8}
     b10:	740e5201 	strvc	r5, [lr], #-513	; 0xfffffdff
     b14:	f01f0b00 			; <UNDEFINED> instruction: 0xf01f0b00
     b18:	ffff0a1a 			; <UNDEFINED> instruction: 0xffff0a1a
     b1c:	02e00a1a 	rsceq	r0, r0, #106496	; 0x1a000
     b20:	ac270021 	stcge	0, cr0, [r7], #-132	; 0xffffff7c
     b24:	1d000081 	stcne	0, cr0, [r0, #-516]	; 0xfffffdfc
     b28:	3b00000c 	blcc	b60 <_start-0x74a0>
     b2c:	2800000b 	stmdacs	r0, {r0, r1, r3}
     b30:	08025001 	stmdaeq	r2, {r0, ip, lr}
     b34:	51012848 	tstpl	r1, r8, asr #16
     b38:	2a003101 	bcs	cf44 <__bss_end__+0x33cc>
     b3c:	000081c8 	andeq	r8, r0, r8, asr #3
     b40:	00000da2 	andeq	r0, r0, r2, lsr #27
     b44:	0081dc27 	addeq	sp, r1, r7, lsr #24
     b48:	000d6b00 	andeq	r6, sp, r0, lsl #22
     b4c:	000b7300 	andeq	r7, fp, r0, lsl #6
     b50:	50012800 	andpl	r2, r1, r0, lsl #16
     b54:	93b40305 			; <UNDEFINED> instruction: 0x93b40305
     b58:	01280000 			; <UNDEFINED> instruction: 0x01280000
     b5c:	20030551 	andcs	r0, r3, r1, asr r5
     b60:	28000093 	stmdacs	r0, {r0, r1, r4, r7}
     b64:	03055201 	movweq	r5, #20993	; 0x5201
     b68:	000092ec 	andeq	r9, r0, ip, ror #5
     b6c:	02530128 	subseq	r0, r3, #40, 2
     b70:	2a006e08 	bcs	1c398 <__bss_end__+0x12820>
     b74:	000081e0 	andeq	r8, r0, r0, ror #3
     b78:	00000dad 	andeq	r0, r0, sp, lsr #27
     b7c:	0081e42a 	addeq	lr, r1, sl, lsr #8
     b80:	000da200 	andeq	sl, sp, r0, lsl #4
     b84:	81f82700 	mvnshi	r2, r0, lsl #14
     b88:	0d6b0000 	stcleq	0, cr0, [fp, #-0]
     b8c:	0bb40000 	bleq	fed00b94 <__bss_end__+0xfecf701c>
     b90:	01280000 			; <UNDEFINED> instruction: 0x01280000
     b94:	94030550 	strls	r0, [r3], #-1360	; 0xfffffab0
     b98:	28000093 	stmdacs	r0, {r0, r1, r4, r7}
     b9c:	03055101 	movweq	r5, #20737	; 0x5101
     ba0:	00009320 	andeq	r9, r0, r0, lsr #6
     ba4:	05520128 	ldrbeq	r0, [r2, #-296]	; 0xfffffed8
     ba8:	0092ec03 	addseq	lr, r2, r3, lsl #24
     bac:	53012800 	movwpl	r2, #6144	; 0x1800
     bb0:	006c0802 	rsbeq	r0, ip, r2, lsl #16
     bb4:	0081fc2a 	addeq	pc, r1, sl, lsr #24
     bb8:	000dad00 	andeq	sl, sp, r0, lsl #26
     bbc:	82102a00 	andshi	r2, r0, #0, 20
     bc0:	0da20000 	stceq	0, cr0, [r2]
     bc4:	24270000 	strtcs	r0, [r7], #-0
     bc8:	6b000082 	blvs	dd8 <_start-0x7228>
     bcc:	f500000d 			; <UNDEFINED> instruction: 0xf500000d
     bd0:	2800000b 	stmdacs	r0, {r0, r1, r3}
     bd4:	03055001 	movweq	r5, #20481	; 0x5001
     bd8:	000093d8 	ldrdeq	r9, [r0], -r8
     bdc:	05510128 	ldrbeq	r0, [r1, #-296]	; 0xfffffed8
     be0:	00932003 	addseq	r2, r3, r3
     be4:	52012800 	andpl	r2, r1, #0, 16
     be8:	92ec0305 	rscls	r0, ip, #335544320	; 0x14000000
     bec:	01280000 			; <UNDEFINED> instruction: 0x01280000
     bf0:	70080253 	andvc	r0, r8, r3, asr r2
     bf4:	82282a00 	eorhi	r2, r8, #0, 20
     bf8:	0dad0000 	stceq	0, cr0, [sp]
     bfc:	582a0000 	stmdapl	sl!, {}	; <UNPREDICTABLE>
     c00:	ad000082 	stcge	0, cr0, [r0, #-520]	; 0xfffffdf8
     c04:	0000000d 	andeq	r0, r0, sp
     c08:	00012a08 	andeq	r2, r1, r8, lsl #20
     c0c:	000c1800 	andeq	r1, ip, r0, lsl #16
     c10:	00dd0900 	sbcseq	r0, sp, r0, lsl #18
     c14:	00070000 	andeq	r0, r7, r0
     c18:	000c080e 	andeq	r0, ip, lr, lsl #16
     c1c:	03012b00 	movweq	r2, #6912	; 0x1b00
     c20:	28010000 	stmdacs	r1, {}	; <UNPREDICTABLE>
     c24:	00000061 	andeq	r0, r0, r1, rrx
     c28:	00008040 	andeq	r8, r0, r0, asr #32
     c2c:	00000050 	andeq	r0, r0, r0, asr r0
     c30:	0ca99c01 	stceq	12, cr9, [r9], #4
     c34:	212c0000 			; <UNDEFINED> instruction: 0x212c0000
     c38:	01000001 	tsteq	r0, r1
     c3c:	00004f28 	andeq	r4, r0, r8, lsr #30
     c40:	0000a400 	andeq	sl, r0, r0, lsl #8
     c44:	65722d00 	ldrbvs	r2, [r2, #-3328]!	; 0xfffff300
     c48:	28010067 	stmdacs	r1, {r0, r1, r2, r5, r6}
     c4c:	0000004f 	andeq	r0, r0, pc, asr #32
     c50:	000000c5 	andeq	r0, r0, r5, asr #1
     c54:	000c302e 	andeq	r3, ip, lr, lsr #32
     c58:	a92a0100 	stmdbge	sl!, {r8}
     c5c:	0200000c 	andeq	r0, r0, #12
     c60:	722f7491 	eorvc	r7, pc, #-1862270976	; 0x91000000
     c64:	01007365 	tsteq	r0, r5, ror #6
     c68:	0000612c 	andeq	r6, r0, ip, lsr #2
     c6c:	60270000 	eorvs	r0, r7, r0
     c70:	b8000080 	stmdalt	r0, {r7}
     c74:	8d00000d 	stchi	0, cr0, [r0, #-52]	; 0xffffffcc
     c78:	2800000c 	stmdacs	r0, {r2, r3}
     c7c:	74025001 	strvc	r5, [r2], #-1
     c80:	51012800 	tstpl	r1, r0, lsl #16
     c84:	28679102 	stmdacs	r7!, {r1, r8, ip, pc}^
     c88:	31015201 	tstcc	r1, r1, lsl #4
     c8c:	80702900 	rsbshi	r2, r0, r0, lsl #18
     c90:	0dc30000 	stcleq	0, cr0, [r3]
     c94:	01280000 			; <UNDEFINED> instruction: 0x01280000
     c98:	00740250 	rsbseq	r0, r4, r0, asr r2
     c9c:	02510128 	subseq	r0, r1, #40, 2
     ca0:	01286c91 			; <UNDEFINED> instruction: 0x01286c91
     ca4:	00320152 	eorseq	r0, r2, r2, asr r1
     ca8:	004f0800 	subeq	r0, pc, r0, lsl #16
     cac:	0cb90000 	ldceq	0, cr0, [r9]
     cb0:	dd090000 	stcle	0, cr0, [r9, #-0]
     cb4:	01000000 	mrseq	r0, (UNDEF: 0)
     cb8:	04453000 	strbeq	r3, [r5], #-0
     cbc:	1f010000 	svcne	0x00010000
     cc0:	00008010 	andeq	r8, r0, r0, lsl r0
     cc4:	00000030 	andeq	r0, r0, r0, lsr r0
     cc8:	0d1d9c01 	ldceq	12, cr9, [sp, #-4]
     ccc:	212c0000 			; <UNDEFINED> instruction: 0x212c0000
     cd0:	01000001 	tsteq	r0, r1
     cd4:	00004f1f 	andeq	r4, r0, pc, lsl pc
     cd8:	0000e400 	andeq	lr, r0, r0, lsl #8
     cdc:	65722d00 	ldrbvs	r2, [r2, #-3328]!	; 0xfffff300
     ce0:	1f010067 	svcne	0x00010067
     ce4:	0000004f 	andeq	r0, r0, pc, asr #32
     ce8:	00000105 	andeq	r0, r0, r5, lsl #2
     cec:	0100762d 	tsteq	r0, sp, lsr #12
     cf0:	0000611f 	andeq	r6, r0, pc, lsl r1
     cf4:	00013200 	andeq	r3, r1, r0, lsl #4
     cf8:	0c302e00 	ldceq	14, cr2, [r0], #-0
     cfc:	20010000 	andcs	r0, r1, r0
     d00:	00000d1d 	andeq	r0, r0, sp, lsl sp
     d04:	29749102 	ldmdbcs	r4!, {r1, r8, ip, pc}^
     d08:	00008038 	andeq	r8, r0, r8, lsr r0
     d0c:	00000db8 			; <UNDEFINED> instruction: 0x00000db8
     d10:	02510128 	subseq	r0, r1, #40, 2
     d14:	01286c91 			; <UNDEFINED> instruction: 0x01286c91
     d18:	00330152 	eorseq	r0, r3, r2, asr r1
     d1c:	004f0800 	subeq	r0, pc, r0, lsl #16
     d20:	0d2d0000 	stceq	0, cr0, [sp, #-0]
     d24:	dd090000 	stcle	0, cr0, [r9, #-0]
     d28:	02000000 	andeq	r0, r0, #0
     d2c:	02b72000 	adcseq	r2, r7, #0
     d30:	16010000 	strne	r0, [r1], -r0
     d34:	00008090 	muleq	r0, r0, r0
     d38:	00000028 	andeq	r0, r0, r8, lsr #32
     d3c:	0d6b9c01 	stcleq	12, cr9, [fp, #-4]!
     d40:	72310000 	eorsvc	r0, r1, #0
     d44:	01007473 	tsteq	r0, r3, ror r4
     d48:	00004f17 	andeq	r4, r0, r7, lsl pc
     d4c:	77910200 	ldrvc	r0, [r1, r0, lsl #4]
     d50:	0080b029 	addeq	fp, r0, r9, lsr #32
     d54:	000db800 	andeq	fp, sp, r0, lsl #16
     d58:	50012800 	andpl	r2, r1, r0, lsl #16
     d5c:	01283001 			; <UNDEFINED> instruction: 0x01283001
     d60:	6f910251 	svcvs	0x00910251
     d64:	01520128 	cmpeq	r2, r8, lsr #2
     d68:	32000031 	andcc	r0, r0, #49	; 0x31
     d6c:	000007a8 	andeq	r0, r0, r8, lsr #15
     d70:	000007a8 	andeq	r0, r0, r8, lsr #15
     d74:	fe322907 	vselgt.f16	s4, s4, s14
     d78:	fe000003 	cdp2	0, 0, cr0, cr0, cr3, {0}
     d7c:	07000003 	streq	r0, [r0, -r3]
     d80:	00a3324f 	adceq	r3, r3, pc, asr #4
     d84:	00a30000 	adceq	r0, r3, r0
     d88:	3a070000 	bcc	1c0d90 <__bss_end__+0x1b7218>
     d8c:	00021032 	andeq	r1, r2, r2, lsr r0
     d90:	00021000 	andeq	r1, r2, r0
     d94:	32060800 	andcc	r0, r6, #0, 16
     d98:	0000042e 	andeq	r0, r0, lr, lsr #8
     d9c:	0000042e 	andeq	r0, r0, lr, lsr #8
     da0:	20324d07 	eorscs	r4, r2, r7, lsl #26
     da4:	20000002 	andcs	r0, r0, r2
     da8:	07000002 	streq	r0, [r0, -r2]
     dac:	02e2321e 	rsceq	r3, r2, #-536870911	; 0xe0000001
     db0:	02e20000 	rsceq	r0, r2, #0
     db4:	65070000 	strvs	r0, [r7, #-0]
     db8:	00029832 	andeq	r9, r2, r2, lsr r8
     dbc:	00029800 	andeq	r9, r2, r0, lsl #16
     dc0:	320c0800 	andcc	r0, ip, #0, 16
     dc4:	000004b3 			; <UNDEFINED> instruction: 0x000004b3
     dc8:	000004b3 			; <UNDEFINED> instruction: 0x000004b3
     dcc:	5f000e08 	svcpl	0x00000e08
     dd0:	0400001b 	streq	r0, [r0], #-27	; 0xffffffe5
     dd4:	0002a500 	andeq	sl, r2, r0, lsl #10
     dd8:	0c010400 	cfstrseq	mvf0, [r1], {-0}
     ddc:	0c000000 	stceq	0, cr0, [r0], {-0}
     de0:	0000061f 	andeq	r0, r0, pc, lsl r6
     de4:	00000633 	andeq	r0, r0, r3, lsr r6
     de8:	00008288 	andeq	r8, r0, r8, lsl #5
     dec:	00000574 	andeq	r0, r0, r4, ror r5
     df0:	00000151 	andeq	r0, r0, r1, asr r1
     df4:	69050402 	stmdbvs	r5, {r1, sl}
     df8:	0300746e 	movweq	r7, #1134	; 0x46e
     dfc:	00d70704 	sbcseq	r0, r7, r4, lsl #14
     e00:	2c040000 	stccs	0, cr0, [r4], {-0}
     e04:	03000000 	movweq	r0, #0
     e08:	03540601 	cmpeq	r4, #1048576	; 0x100000
     e0c:	02030000 	andeq	r0, r3, #0
     e10:	00036905 	andeq	r6, r3, r5, lsl #18
     e14:	05040300 	streq	r0, [r4, #-768]	; 0xfffffd00
     e18:	00000118 	andeq	r0, r0, r8, lsl r1
     e1c:	13050803 	movwne	r0, #22531	; 0x5803
     e20:	05000001 	streq	r0, [r0, #-1]
     e24:	00000437 	andeq	r0, r0, r7, lsr r4
     e28:	005f2e02 	subseq	r2, pc, r2, lsl #28
     e2c:	01030000 	mrseq	r0, (UNDEF: 3)
     e30:	00035208 	andeq	r5, r3, r8, lsl #4
     e34:	07020300 	streq	r0, [r2, -r0, lsl #6]
     e38:	00000263 	andeq	r0, r0, r3, ror #4
     e3c:	00070405 	andeq	r0, r7, r5, lsl #8
     e40:	78340200 	ldmdavc	r4!, {r9}
     e44:	03000000 	movweq	r0, #0
     e48:	00d20704 	sbcseq	r0, r2, r4, lsl #14
     e4c:	08030000 	stmdaeq	r3, {}	; <UNPREDICTABLE>
     e50:	0000cd07 	andeq	ip, r0, r7, lsl #26
     e54:	03400500 	movteq	r0, #1280	; 0x500
     e58:	07030000 	streq	r0, [r3, -r0]
     e5c:	00000025 	andeq	r0, r0, r5, lsr #32
     e60:	00032f05 	andeq	r2, r3, r5, lsl #30
     e64:	462c0400 	strtmi	r0, [ip], -r0, lsl #8
     e68:	05000000 	streq	r0, [r0, #-0]
     e6c:	0000041d 	andeq	r0, r0, sp, lsl r4
     e70:	00467204 	subeq	r7, r6, r4, lsl #4
     e74:	b0060000 	andlt	r0, r6, r0
     e78:	05000002 	streq	r0, [r0, #-2]
     e7c:	002c0165 	eoreq	r0, ip, r5, ror #2
     e80:	04070000 	streq	r0, [r7], #-0
     e84:	00d2a604 	sbcseq	sl, r2, r4, lsl #12
     e88:	aa080000 	bge	200e90 <__bss_end__+0x1f7318>
     e8c:	04000002 	streq	r0, [r0], #-2
     e90:	0000a7a8 	andeq	sl, r0, r8, lsr #15
     e94:	02190800 	andseq	r0, r9, #0, 16
     e98:	a9040000 	stmdbge	r4, {}	; <UNPREDICTABLE>
     e9c:	000000d2 	ldrdeq	r0, [r0], -r2
     ea0:	005f0900 	subseq	r0, pc, r0, lsl #18
     ea4:	00e20000 	rsceq	r0, r2, r0
     ea8:	e20a0000 	and	r0, sl, #0
     eac:	03000000 	movweq	r0, #0
     eb0:	07040300 	streq	r0, [r4, -r0, lsl #6]
     eb4:	000002f8 	strdeq	r0, [r0], -r8
     eb8:	a304080b 	movwge	r0, #18443	; 0x480b
     ebc:	0000010a 	andeq	r0, r0, sl, lsl #2
     ec0:	0004070c 	andeq	r0, r4, ip, lsl #14
     ec4:	25a50400 	strcs	r0, [r5, #1024]!	; 0x400
     ec8:	00000000 	andeq	r0, r0, r0
     ecc:	00040f0c 	andeq	r0, r4, ip, lsl #30
     ed0:	b3aa0400 			; <UNDEFINED> instruction: 0xb3aa0400
     ed4:	04000000 	streq	r0, [r0], #-0
     ed8:	03910500 	orrseq	r0, r1, #0, 10
     edc:	ab040000 	blge	100ee4 <__bss_end__+0xf736c>
     ee0:	000000e9 	andeq	r0, r0, r9, ror #1
     ee4:	0001cd05 	andeq	ip, r1, r5, lsl #26
     ee8:	86af0400 	strthi	r0, [pc], r0, lsl #8
     eec:	0d000000 	stceq	0, cr0, [r0, #-0]
     ef0:	28040e04 	stmdacs	r4, {r2, r9, sl, fp}
     ef4:	03000001 	movweq	r0, #1
     ef8:	035b0801 	cmpeq	fp, #65536	; 0x10000
     efc:	28040000 	stmdacs	r4, {}	; <UNPREDICTABLE>
     f00:	05000001 	streq	r0, [r0, #-1]
     f04:	0000046c 	andeq	r0, r0, ip, ror #8
     f08:	00781606 	rsbseq	r1, r8, r6, lsl #12
     f0c:	de0f0000 	cdple	0, 0, cr0, cr15, cr0, {0}
     f10:	18000001 	stmdane	r0, {r0}
     f14:	01922d06 	orrseq	r2, r2, r6, lsl #26
     f18:	b20c0000 	andlt	r0, ip, #0
     f1c:	06000003 	streq	r0, [r0], -r3
     f20:	0001922f 	andeq	r9, r1, pc, lsr #4
     f24:	5f100000 	svcpl	0x00100000
     f28:	3006006b 	andcc	r0, r6, fp, rrx
     f2c:	00000025 	andeq	r0, r0, r5, lsr #32
     f30:	03e90c04 	mvneq	r0, #4, 24	; 0x400
     f34:	30060000 	andcc	r0, r6, r0
     f38:	00000025 	andeq	r0, r0, r5, lsr #32
     f3c:	01c70c08 	biceq	r0, r7, r8, lsl #24
     f40:	30060000 	andcc	r0, r6, r0
     f44:	00000025 	andeq	r0, r0, r5, lsr #32
     f48:	04bc0c0c 	ldrteq	r0, [ip], #3084	; 0xc0c
     f4c:	30060000 	andcc	r0, r6, r0
     f50:	00000025 	andeq	r0, r0, r5, lsr #32
     f54:	785f1010 	ldmdavc	pc, {r4, ip}^	; <UNPREDICTABLE>
     f58:	98310600 	ldmdals	r1!, {r9, sl}
     f5c:	14000001 	strne	r0, [r0], #-1
     f60:	3f040e00 	svccc	0x00040e00
     f64:	09000001 	stmdbeq	r0, {r0}
     f68:	00000134 	andeq	r0, r0, r4, lsr r1
     f6c:	000001a8 	andeq	r0, r0, r8, lsr #3
     f70:	0000e20a 	andeq	lr, r0, sl, lsl #4
     f74:	0f000000 	svceq	0x00000000
     f78:	0000020b 	andeq	r0, r0, fp, lsl #4
     f7c:	21350624 	teqcs	r5, r4, lsr #12
     f80:	0c000002 	stceq	0, cr0, [r0], {2}
     f84:	0000010a 	andeq	r0, r0, sl, lsl #2
     f88:	00253706 	eoreq	r3, r5, r6, lsl #14
     f8c:	0c000000 	stceq	0, cr0, [r0], {-0}
     f90:	00000425 	andeq	r0, r0, r5, lsr #8
     f94:	00253806 	eoreq	r3, r5, r6, lsl #16
     f98:	0c040000 	stceq	0, cr0, [r4], {-0}
     f9c:	00000136 	andeq	r0, r0, r6, lsr r1
     fa0:	00253906 	eoreq	r3, r5, r6, lsl #18
     fa4:	0c080000 	stceq	0, cr0, [r8], {-0}
     fa8:	00000564 	andeq	r0, r0, r4, ror #10
     fac:	00253a06 	eoreq	r3, r5, r6, lsl #20
     fb0:	0c0c0000 	stceq	0, cr0, [ip], {-0}
     fb4:	00000313 	andeq	r0, r0, r3, lsl r3
     fb8:	00253b06 	eoreq	r3, r5, r6, lsl #22
     fbc:	0c100000 	ldceq	0, cr0, [r0], {-0}
     fc0:	000002d8 	ldrdeq	r0, [r0], -r8
     fc4:	00253c06 	eoreq	r3, r5, r6, lsl #24
     fc8:	0c140000 	ldceq	0, cr0, [r4], {-0}
     fcc:	000004c1 	andeq	r0, r0, r1, asr #9
     fd0:	00253d06 	eoreq	r3, r5, r6, lsl #26
     fd4:	0c180000 	ldceq	0, cr0, [r8], {-0}
     fd8:	00000373 	andeq	r0, r0, r3, ror r3
     fdc:	00253e06 	eoreq	r3, r5, r6, lsl #28
     fe0:	0c1c0000 	ldceq	0, cr0, [ip], {-0}
     fe4:	0000052b 	andeq	r0, r0, fp, lsr #10
     fe8:	00253f06 	eoreq	r3, r5, r6, lsl #30
     fec:	00200000 	eoreq	r0, r0, r0
     ff0:	00014511 	andeq	r4, r1, r1, lsl r5
     ff4:	06010800 	streq	r0, [r1], -r0, lsl #16
     ff8:	00026148 	andeq	r6, r2, r8, asr #2
     ffc:	01ba0c00 			; <UNDEFINED> instruction: 0x01ba0c00
    1000:	49060000 	stmdbmi	r6, {}	; <UNPREDICTABLE>
    1004:	00000261 	andeq	r0, r0, r1, ror #4
    1008:	00000c00 	andeq	r0, r0, r0, lsl #24
    100c:	4a060000 	bmi	181014 <__bss_end__+0x17749c>
    1010:	00000261 	andeq	r0, r0, r1, ror #4
    1014:	045e1280 	ldrbeq	r1, [lr], #-640	; 0xfffffd80
    1018:	4c060000 	stcmi	0, cr0, [r6], {-0}
    101c:	00000134 	andeq	r0, r0, r4, lsr r1
    1020:	6a120100 	bvs	481428 <__bss_end__+0x4778b0>
    1024:	06000001 	streq	r0, [r0], -r1
    1028:	0001344f 	andeq	r3, r1, pc, asr #8
    102c:	00010400 	andeq	r0, r1, r0, lsl #8
    1030:	00012009 	andeq	r2, r1, r9
    1034:	00027100 	andeq	r7, r2, r0, lsl #2
    1038:	00e20a00 	rsceq	r0, r2, r0, lsl #20
    103c:	001f0000 	andseq	r0, pc, r0
    1040:	00031c11 	andeq	r1, r3, r1, lsl ip
    1044:	06019000 	streq	r9, [r1], -r0
    1048:	0002af5b 	andeq	sl, r2, fp, asr pc
    104c:	03b20c00 			; <UNDEFINED> instruction: 0x03b20c00
    1050:	5c060000 	stcpl	0, cr0, [r6], {-0}
    1054:	000002af 	andeq	r0, r0, pc, lsr #5
    1058:	03ca0c00 	biceq	r0, sl, #0, 24
    105c:	5d060000 	stcpl	0, cr0, [r6, #-0]
    1060:	00000025 	andeq	r0, r0, r5, lsr #32
    1064:	01c20c04 	biceq	r0, r2, r4, lsl #24
    1068:	5f060000 	svcpl	0x00060000
    106c:	000002b5 			; <UNDEFINED> instruction: 0x000002b5
    1070:	01450c08 	cmpeq	r5, r8, lsl #24
    1074:	60060000 	andvs	r0, r6, r0
    1078:	00000221 	andeq	r0, r0, r1, lsr #4
    107c:	040e0088 	streq	r0, [lr], #-136	; 0xffffff78
    1080:	00000271 	andeq	r0, r0, r1, ror r2
    1084:	0002c509 	andeq	ip, r2, r9, lsl #10
    1088:	0002c500 	andeq	ip, r2, r0, lsl #10
    108c:	00e20a00 	rsceq	r0, r2, r0, lsl #20
    1090:	001f0000 	andseq	r0, pc, r0
    1094:	02cb040e 	sbceq	r0, fp, #234881024	; 0xe000000
    1098:	0f130000 	svceq	0x00130000
    109c:	0000037d 	andeq	r0, r0, sp, ror r3
    10a0:	f1730608 			; <UNDEFINED> instruction: 0xf1730608
    10a4:	0c000002 	stceq	0, cr0, [r0], {2}
    10a8:	00000130 	andeq	r0, r0, r0, lsr r1
    10ac:	02f17406 	rscseq	r7, r1, #100663296	; 0x6000000
    10b0:	0c000000 	stceq	0, cr0, [r0], {-0}
    10b4:	00000082 	andeq	r0, r0, r2, lsl #1
    10b8:	00257506 	eoreq	r7, r5, r6, lsl #10
    10bc:	00040000 	andeq	r0, r4, r0
    10c0:	005f040e 	subseq	r0, pc, lr, lsl #8
    10c4:	9c0f0000 	stcls	0, cr0, [pc], {-0}
    10c8:	68000003 	stmdavs	r0, {r0, r1}
    10cc:	0421b306 	strteq	fp, [r1], #-774	; 0xfffffcfa
    10d0:	5f100000 	svcpl	0x00100000
    10d4:	b4060070 	strlt	r0, [r6], #-112	; 0xffffff90
    10d8:	000002f1 	strdeq	r0, [r0], -r1
    10dc:	725f1000 	subsvc	r1, pc, #0
    10e0:	25b50600 	ldrcs	r0, [r5, #1536]!	; 0x600
    10e4:	04000000 	streq	r0, [r0], #-0
    10e8:	00775f10 	rsbseq	r5, r7, r0, lsl pc
    10ec:	0025b606 	eoreq	fp, r5, r6, lsl #12
    10f0:	0c080000 	stceq	0, cr0, [r8], {-0}
    10f4:	00000163 	andeq	r0, r0, r3, ror #2
    10f8:	003fb706 	eorseq	fp, pc, r6, lsl #14
    10fc:	0c0c0000 	stceq	0, cr0, [ip], {-0}
    1100:	0000023f 	andeq	r0, r0, pc, lsr r2
    1104:	003fb806 	eorseq	fp, pc, r6, lsl #16
    1108:	100e0000 	andne	r0, lr, r0
    110c:	0066625f 	rsbeq	r6, r6, pc, asr r2
    1110:	02ccb906 	sbceq	fp, ip, #98304	; 0x18000
    1114:	0c100000 	ldceq	0, cr0, [r0], {-0}
    1118:	000000e4 	andeq	r0, r0, r4, ror #1
    111c:	0025ba06 	eoreq	fp, r5, r6, lsl #20
    1120:	0c180000 	ldceq	0, cr0, [r8], {-0}
    1124:	00000153 	andeq	r0, r0, r3, asr r1
    1128:	0120c106 			; <UNDEFINED> instruction: 0x0120c106
    112c:	0c1c0000 	ldceq	0, cr0, [ip], {-0}
    1130:	000004b6 			; <UNDEFINED> instruction: 0x000004b6
    1134:	057cc306 	ldrbeq	ip, [ip, #-774]!	; 0xfffffcfa
    1138:	0c200000 	stceq	0, cr0, [r0], #-0
    113c:	0000029b 	muleq	r0, fp, r2
    1140:	05a6c506 	streq	ip, [r6, #1286]!	; 0x506
    1144:	0c240000 	stceq	0, cr0, [r4], #-0
    1148:	00000417 	andeq	r0, r0, r7, lsl r4
    114c:	05cac806 	strbeq	ip, [sl, #2054]	; 0x806
    1150:	0c280000 	stceq	0, cr0, [r8], #-0
    1154:	00000545 	andeq	r0, r0, r5, asr #10
    1158:	05e4c906 	strbeq	ip, [r4, #2310]!	; 0x906
    115c:	102c0000 	eorne	r0, ip, r0
    1160:	0062755f 	rsbeq	r7, r2, pc, asr r5
    1164:	02cccc06 	sbceq	ip, ip, #1536	; 0x600
    1168:	10300000 	eorsne	r0, r0, r0
    116c:	0070755f 	rsbseq	r7, r0, pc, asr r5
    1170:	02f1cd06 	rscseq	ip, r1, #384	; 0x180
    1174:	10380000 	eorsne	r0, r8, r0
    1178:	0072755f 	rsbseq	r7, r2, pc, asr r5
    117c:	0025ce06 	eoreq	ip, r5, r6, lsl #28
    1180:	0c3c0000 	ldceq	0, cr0, [ip], #-0
    1184:	0000012a 	andeq	r0, r0, sl, lsr #2
    1188:	05ead106 	strbeq	sp, [sl, #262]!	; 0x106
    118c:	0c400000 	mareq	acc0, r0, r0
    1190:	0000051d 	andeq	r0, r0, sp, lsl r5
    1194:	05fad206 	ldrbeq	sp, [sl, #518]!	; 0x206
    1198:	10430000 	subne	r0, r3, r0
    119c:	00626c5f 	rsbeq	r6, r2, pc, asr ip
    11a0:	02ccd506 	sbceq	sp, ip, #25165824	; 0x1800000
    11a4:	0c440000 	mareq	acc0, r0, r4
    11a8:	00000179 	andeq	r0, r0, r9, ror r1
    11ac:	0025d806 	eoreq	sp, r5, r6, lsl #16
    11b0:	0c4c0000 	mareq	acc0, r0, ip
    11b4:	00000193 	muleq	r0, r3, r1
    11b8:	0091d906 	addseq	sp, r1, r6, lsl #18
    11bc:	0c500000 	mraeq	r0, r0, acc0
    11c0:	00000c2f 	andeq	r0, r0, pc, lsr #24
    11c4:	043fdc06 	ldrteq	sp, [pc], #-3078	; 11cc <_start-0x6e34>
    11c8:	0c540000 	mraeq	r0, r4, acc0
    11cc:	00000c03 	andeq	r0, r0, r3, lsl #24
    11d0:	0115e006 	tsteq	r5, r6
    11d4:	0c580000 	mraeq	r0, r8, acc0
    11d8:	000003a4 	andeq	r0, r0, r4, lsr #7
    11dc:	010ae206 	tsteq	sl, r6, lsl #4
    11e0:	0c5c0000 	mraeq	r0, ip, acc0
    11e4:	000002c1 	andeq	r0, r0, r1, asr #5
    11e8:	0025e306 	eoreq	lr, r5, r6, lsl #6
    11ec:	00640000 	rsbeq	r0, r4, r0
    11f0:	00002514 	andeq	r2, r0, r4, lsl r5
    11f4:	00043f00 	andeq	r3, r4, r0, lsl #30
    11f8:	043f1500 	ldrteq	r1, [pc], #-1280	; 1200 <_start-0x6e00>
    11fc:	20150000 	andscs	r0, r5, r0
    1200:	15000001 	strne	r0, [r0, #-1]
    1204:	00000122 	andeq	r0, r0, r2, lsr #2
    1208:	00002515 	andeq	r2, r0, r5, lsl r5
    120c:	040e0000 	streq	r0, [lr], #-0
    1210:	0000044a 	andeq	r0, r0, sl, asr #8
    1214:	00043f04 	andeq	r3, r4, r4, lsl #30
    1218:	03f11600 	mvnseq	r1, #0, 12
    121c:	04280000 	strteq	r0, [r8], #-0
    1220:	7c023806 	stcvc	8, cr3, [r2], {6}
    1224:	17000005 	strne	r0, [r0, -r5]
    1228:	00000362 	andeq	r0, r0, r2, ror #6
    122c:	25023a06 	strcs	r3, [r2, #-2566]	; 0xfffff5fa
    1230:	00000000 	andeq	r0, r0, r0
    1234:	00017217 	andeq	r7, r1, r7, lsl r2
    1238:	023f0600 	eorseq	r0, pc, #0, 12
    123c:	00000651 	andeq	r0, r0, r1, asr r6
    1240:	022f1704 	eoreq	r1, pc, #4, 14	; 0x100000
    1244:	3f060000 	svccc	0x00060000
    1248:	00065102 	andeq	r5, r6, r2, lsl #2
    124c:	d6170800 	ldrle	r0, [r7], -r0, lsl #16
    1250:	06000001 	streq	r0, [r0], -r1
    1254:	0651023f 			; <UNDEFINED> instruction: 0x0651023f
    1258:	170c0000 	strne	r0, [ip, -r0]
    125c:	000003c5 	andeq	r0, r0, r5, asr #7
    1260:	25024106 	strcs	r4, [r2, #-262]	; 0xfffffefa
    1264:	10000000 	andne	r0, r0, r0
    1268:	00009017 	andeq	r9, r0, r7, lsl r0
    126c:	02420600 	subeq	r0, r2, #0, 12
    1270:	00000833 	andeq	r0, r0, r3, lsr r8
    1274:	04941714 	ldreq	r1, [r4], #1812	; 0x714
    1278:	44060000 	strmi	r0, [r6], #-0
    127c:	00002502 	andeq	r2, r0, r2, lsl #10
    1280:	cf173000 	svcgt	0x00173000
    1284:	06000003 	streq	r0, [r0], -r3
    1288:	05a00245 	streq	r0, [r0, #581]!	; 0x245
    128c:	17340000 	ldrne	r0, [r4, -r0]!
    1290:	00000324 	andeq	r0, r0, r4, lsr #6
    1294:	25024706 	strcs	r4, [r2, #-1798]	; 0xfffff8fa
    1298:	38000000 	stmdacc	r0, {}	; <UNPREDICTABLE>
    129c:	0003df17 	andeq	sp, r3, r7, lsl pc
    12a0:	02490600 	subeq	r0, r9, #0, 12
    12a4:	0000084e 	andeq	r0, r0, lr, asr #16
    12a8:	02a2173c 	adceq	r1, r2, #60, 14	; 0xf00000
    12ac:	4c060000 	stcmi	0, cr0, [r6], {-0}
    12b0:	00019202 	andeq	r9, r1, r2, lsl #4
    12b4:	f5174000 			; <UNDEFINED> instruction: 0xf5174000
    12b8:	06000001 	streq	r0, [r0], -r1
    12bc:	0025024d 	eoreq	r0, r5, sp, asr #4
    12c0:	17440000 	strbne	r0, [r4, -r0]
    12c4:	0000055f 	andeq	r0, r0, pc, asr r5
    12c8:	92024e06 	andls	r4, r2, #6, 28	; 0x60
    12cc:	48000001 	stmdami	r0, {r0}
    12d0:	00033617 	andeq	r3, r3, r7, lsl r6
    12d4:	024f0600 	subeq	r0, pc, #0, 12
    12d8:	00000854 	andeq	r0, r0, r4, asr r8
    12dc:	0237174c 	eorseq	r1, r7, #76, 14	; 0x1300000
    12e0:	52060000 	andpl	r0, r6, #0
    12e4:	00002502 	andeq	r2, r0, r2, lsl #10
    12e8:	8b175000 	blhi	5d52f0 <__bss_end__+0x5cb778>
    12ec:	06000001 	streq	r0, [r0], -r1
    12f0:	01220253 			; <UNDEFINED> instruction: 0x01220253
    12f4:	17540000 	ldrbne	r0, [r4, -r0]
    12f8:	00000cc5 	andeq	r0, r0, r5, asr #25
    12fc:	11027606 	tstne	r2, r6, lsl #12
    1300:	58000008 	stmdapl	r0, {r3}
    1304:	00031c18 	andeq	r1, r3, r8, lsl ip
    1308:	027a0600 	rsbseq	r0, sl, #0, 12
    130c:	000002af 	andeq	r0, r0, pc, lsr #5
    1310:	76180148 	ldrvc	r0, [r8], -r8, asr #2
    1314:	06000002 	streq	r0, [r0], -r2
    1318:	0271027b 	rsbseq	r0, r1, #-1342177273	; 0xb0000007
    131c:	014c0000 	mrseq	r0, (UNDEF: 76)
    1320:	00050818 	andeq	r0, r5, r8, lsl r8
    1324:	027f0600 	rsbseq	r0, pc, #0, 12
    1328:	00000865 	andeq	r0, r0, r5, ror #16
    132c:	5b1802dc 	blpl	601ea4 <__bss_end__+0x5f832c>
    1330:	06000001 	streq	r0, [r0], -r1
    1334:	06160284 	ldreq	r0, [r6], -r4, lsl #5
    1338:	02e00000 	rsceq	r0, r0, #0
    133c:	00014018 	andeq	r4, r1, r8, lsl r0
    1340:	02850600 	addeq	r0, r5, #0, 12
    1344:	00000871 	andeq	r0, r0, r1, ror r8
    1348:	0e0002ec 	cdpeq	2, 0, cr0, cr0, cr12, {7}
    134c:	00042104 	andeq	r2, r4, r4, lsl #2
    1350:	00251400 	eoreq	r1, r5, r0, lsl #8
    1354:	05a00000 	streq	r0, [r0, #0]!
    1358:	3f150000 	svccc	0x00150000
    135c:	15000004 	strne	r0, [r0, #-4]
    1360:	00000120 	andeq	r0, r0, r0, lsr #2
    1364:	0005a015 	andeq	sl, r5, r5, lsl r0
    1368:	00251500 	eoreq	r1, r5, r0, lsl #10
    136c:	0e000000 	cdpeq	0, 0, cr0, cr0, cr0, {0}
    1370:	00012f04 	andeq	r2, r1, r4, lsl #30
    1374:	82040e00 	andhi	r0, r4, #0, 28
    1378:	14000005 	strne	r0, [r0], #-5
    137c:	0000009c 	muleq	r0, ip, r0
    1380:	000005ca 	andeq	r0, r0, sl, asr #11
    1384:	00043f15 	andeq	r3, r4, r5, lsl pc
    1388:	01201500 			; <UNDEFINED> instruction: 0x01201500
    138c:	9c150000 	ldcls	0, cr0, [r5], {-0}
    1390:	15000000 	strne	r0, [r0, #-0]
    1394:	00000025 	andeq	r0, r0, r5, lsr #32
    1398:	ac040e00 	stcge	14, cr0, [r4], {-0}
    139c:	14000005 	strne	r0, [r0], #-5
    13a0:	00000025 	andeq	r0, r0, r5, lsr #32
    13a4:	000005e4 	andeq	r0, r0, r4, ror #11
    13a8:	00043f15 	andeq	r3, r4, r5, lsl pc
    13ac:	01201500 			; <UNDEFINED> instruction: 0x01201500
    13b0:	0e000000 	cdpeq	0, 0, cr0, cr0, cr0, {0}
    13b4:	0005d004 	andeq	sp, r5, r4
    13b8:	005f0900 	subseq	r0, pc, r0, lsl #18
    13bc:	05fa0000 	ldrbeq	r0, [sl, #0]!
    13c0:	e20a0000 	and	r0, sl, #0
    13c4:	02000000 	andeq	r0, r0, #0
    13c8:	005f0900 	subseq	r0, pc, r0, lsl #18
    13cc:	060a0000 	streq	r0, [sl], -r0
    13d0:	e20a0000 	and	r0, sl, #0
    13d4:	00000000 	andeq	r0, r0, r0
    13d8:	038a0600 	orreq	r0, sl, #0, 12
    13dc:	1d060000 	stcne	0, cr0, [r6, #-0]
    13e0:	0002f701 	andeq	pc, r2, r1, lsl #14
    13e4:	04cb1900 	strbeq	r1, [fp], #2304	; 0x900
    13e8:	060c0000 	streq	r0, [ip], -r0
    13ec:	064b0121 	strbeq	r0, [fp], -r1, lsr #2
    13f0:	b2170000 	andslt	r0, r7, #0
    13f4:	06000003 	streq	r0, [r0], -r3
    13f8:	064b0123 	strbeq	r0, [fp], -r3, lsr #2
    13fc:	17000000 	strne	r0, [r0, -r0]
    1400:	00000252 	andeq	r0, r0, r2, asr r2
    1404:	25012406 	strcs	r2, [r1, #-1030]	; 0xfffffbfa
    1408:	04000000 	streq	r0, [r0], #-0
    140c:	00038417 	andeq	r8, r3, r7, lsl r4
    1410:	01250600 			; <UNDEFINED> instruction: 0x01250600
    1414:	00000651 	andeq	r0, r0, r1, asr r6
    1418:	040e0008 	streq	r0, [lr], #-8
    141c:	00000616 	andeq	r0, r0, r6, lsl r6
    1420:	060a040e 	streq	r0, [sl], -lr, lsl #8
    1424:	88190000 	ldmdahi	r9, {}	; <UNPREDICTABLE>
    1428:	0e000000 	cdpeq	0, 0, cr0, cr0, cr0, {0}
    142c:	8c013d06 	stchi	13, cr3, [r1], {6}
    1430:	17000006 	strne	r0, [r0, -r6]
    1434:	000003f8 	strdeq	r0, [r0], -r8
    1438:	8c013e06 	stchi	14, cr3, [r1], {6}
    143c:	00000006 	andeq	r0, r0, r6
    1440:	00043f17 	andeq	r3, r4, r7, lsl pc
    1444:	013f0600 	teqeq	pc, r0, lsl #12
    1448:	0000068c 	andeq	r0, r0, ip, lsl #13
    144c:	04671706 	strbteq	r1, [r7], #-1798	; 0xfffff8fa
    1450:	40060000 	andmi	r0, r6, r0
    1454:	00006601 	andeq	r6, r0, r1, lsl #12
    1458:	09000c00 	stmdbeq	r0, {sl, fp}
    145c:	00000066 	andeq	r0, r0, r6, rrx
    1460:	0000069c 	muleq	r0, ip, r6
    1464:	0000e20a 	andeq	lr, r0, sl, lsl #4
    1468:	1a000200 	bne	1c70 <_start-0x6390>
    146c:	025706d0 	subseq	r0, r7, #208, 12	; 0xd000000
    1470:	0000079d 	muleq	r0, sp, r7
    1474:	0004a617 	andeq	sl, r4, r7, lsl r6
    1478:	02590600 	subseq	r0, r9, #0, 12
    147c:	0000002c 	andeq	r0, r0, ip, lsr #32
    1480:	04511700 	ldrbeq	r1, [r1], #-1792	; 0xfffff900
    1484:	5a060000 	bpl	18148c <__bss_end__+0x177914>
    1488:	00012202 	andeq	r2, r1, r2, lsl #4
    148c:	8b170400 	blhi	5c2494 <__bss_end__+0x5b891c>
    1490:	06000002 	streq	r0, [r0], -r2
    1494:	079d025b 			; <UNDEFINED> instruction: 0x079d025b
    1498:	17080000 	strne	r0, [r8, -r0]
    149c:	00000536 	andeq	r0, r0, r6, lsr r5
    14a0:	a8025c06 	stmdage	r2, {r1, r2, sl, fp, ip, lr}
    14a4:	24000001 	strcs	r0, [r0], #-1
    14a8:	0001e617 	andeq	lr, r1, r7, lsl r6
    14ac:	025d0600 	subseq	r0, sp, #0, 12
    14b0:	00000025 	andeq	r0, r0, r5, lsr #32
    14b4:	03ad1748 			; <UNDEFINED> instruction: 0x03ad1748
    14b8:	5e060000 	cdppl	0, 0, cr0, cr6, cr0, {0}
    14bc:	00007f02 	andeq	r7, r0, r2, lsl #30
    14c0:	4c175000 	ldcmi	0, cr5, [r7], {-0}
    14c4:	06000005 	streq	r0, [r0], -r5
    14c8:	0657025f 			; <UNDEFINED> instruction: 0x0657025f
    14cc:	17580000 	ldrbne	r0, [r8, -r0]
    14d0:	000003b8 			; <UNDEFINED> instruction: 0x000003b8
    14d4:	0a026006 	beq	994f4 <__bss_end__+0x8f97c>
    14d8:	68000001 	stmdavs	r0, {r0}
    14dc:	00055117 	andeq	r5, r5, r7, lsl r1
    14e0:	02610600 	rsbeq	r0, r1, #0, 12
    14e4:	0000010a 	andeq	r0, r0, sl, lsl #2
    14e8:	00fc1770 	rscseq	r1, ip, r0, ror r7
    14ec:	62060000 	andvs	r0, r6, #0
    14f0:	00010a02 	andeq	r0, r1, r2, lsl #20
    14f4:	fe177800 	cdp2	8, 1, cr7, cr7, cr0, {0}
    14f8:	06000004 	streq	r0, [r0], -r4
    14fc:	07ad0263 	streq	r0, [sp, r3, ror #4]!
    1500:	17800000 	strne	r0, [r0, r0]
    1504:	0000027f 	andeq	r0, r0, pc, ror r2
    1508:	bd026406 	cfstrslt	mvf6, [r2, #-24]	; 0xffffffe8
    150c:	88000007 	stmdahi	r0, {r0, r1, r2}
    1510:	00047417 	andeq	r7, r4, r7, lsl r4
    1514:	02650600 	rsbeq	r0, r5, #0, 12
    1518:	00000025 	andeq	r0, r0, r5, lsr #32
    151c:	01ac17a0 			; <UNDEFINED> instruction: 0x01ac17a0
    1520:	66060000 	strvs	r0, [r6], -r0
    1524:	00010a02 	andeq	r0, r1, r2, lsl #20
    1528:	ed17a400 	cfldrs	mvf10, [r7, #-0]
    152c:	06000000 	streq	r0, [r0], -r0
    1530:	010a0267 	tsteq	sl, r7, ror #4
    1534:	17ac0000 	strne	r0, [ip, r0]!
    1538:	0000019b 	muleq	r0, fp, r1
    153c:	0a026806 	beq	9b55c <__bss_end__+0x919e4>
    1540:	b4000001 	strlt	r0, [r0], #-1
    1544:	0000ad17 	andeq	sl, r0, r7, lsl sp
    1548:	02690600 	rsbeq	r0, r9, #0, 12
    154c:	0000010a 	andeq	r0, r0, sl, lsl #2
    1550:	00bc17bc 	ldrhteq	r1, [ip], ip
    1554:	6a060000 	bvs	18155c <__bss_end__+0x1779e4>
    1558:	00010a02 	andeq	r0, r1, r2, lsl #20
    155c:	6017c400 	andsvs	ip, r7, r0, lsl #8
    1560:	06000003 	streq	r0, [r0], -r3
    1564:	0025026b 	eoreq	r0, r5, fp, ror #4
    1568:	00cc0000 	sbceq	r0, ip, r0
    156c:	00012809 	andeq	r2, r1, r9, lsl #16
    1570:	0007ad00 	andeq	sl, r7, r0, lsl #26
    1574:	00e20a00 	rsceq	r0, r2, r0, lsl #20
    1578:	00190000 	andseq	r0, r9, r0
    157c:	00012809 	andeq	r2, r1, r9, lsl #16
    1580:	0007bd00 	andeq	fp, r7, r0, lsl #26
    1584:	00e20a00 	rsceq	r0, r2, r0, lsl #20
    1588:	00070000 	andeq	r0, r7, r0
    158c:	00012809 	andeq	r2, r1, r9, lsl #16
    1590:	0007cd00 	andeq	ip, r7, r0, lsl #26
    1594:	00e20a00 	rsceq	r0, r2, r0, lsl #20
    1598:	00170000 	andseq	r0, r7, r0
    159c:	7006f01a 	andvc	pc, r6, sl, lsl r0	; <UNPREDICTABLE>
    15a0:	0007f102 	andeq	pc, r7, r2, lsl #2
    15a4:	030c1700 	movweq	r1, #50944	; 0xc700
    15a8:	73060000 	movwvc	r0, #24576	; 0x6000
    15ac:	0007f102 	andeq	pc, r7, r2, lsl #2
    15b0:	ef170000 	svc	0x00170000
    15b4:	06000002 	streq	r0, [r0], -r2
    15b8:	08010274 	stmdaeq	r1, {r2, r4, r5, r6, r9}
    15bc:	00780000 	rsbseq	r0, r8, r0
    15c0:	0002f109 	andeq	pc, r2, r9, lsl #2
    15c4:	00080100 	andeq	r0, r8, r0, lsl #2
    15c8:	00e20a00 	rsceq	r0, r2, r0, lsl #20
    15cc:	001d0000 	andseq	r0, sp, r0
    15d0:	00002c09 	andeq	r2, r0, r9, lsl #24
    15d4:	00081100 	andeq	r1, r8, r0, lsl #2
    15d8:	00e20a00 	rsceq	r0, r2, r0, lsl #20
    15dc:	001d0000 	andseq	r0, sp, r0
    15e0:	5506f01b 	strpl	pc, [r6, #-27]	; 0xffffffe5
    15e4:	00083302 	andeq	r3, r8, r2, lsl #6
    15e8:	03f11c00 	mvnseq	r1, #0, 24
    15ec:	6c060000 	stcvs	0, cr0, [r6], {-0}
    15f0:	00069c02 	andeq	r9, r6, r2, lsl #24
    15f4:	05231c00 	streq	r1, [r3, #-3072]!	; 0xfffff400
    15f8:	75060000 	strvc	r0, [r6, #-0]
    15fc:	0007cd02 	andeq	ip, r7, r2, lsl #26
    1600:	28090000 	stmdacs	r9, {}	; <UNPREDICTABLE>
    1604:	43000001 	movwmi	r0, #1
    1608:	0a000008 	beq	1630 <_start-0x69d0>
    160c:	000000e2 	andeq	r0, r0, r2, ror #1
    1610:	4e1d0018 	mrcmi	0, 0, r0, cr13, cr8, {0}
    1614:	15000008 	strne	r0, [r0, #-8]
    1618:	0000043f 	andeq	r0, r0, pc, lsr r4
    161c:	43040e00 	movwmi	r0, #19968	; 0x4e00
    1620:	0e000008 	cdpeq	0, 0, cr0, cr0, cr8, {0}
    1624:	00019204 	andeq	r9, r1, r4, lsl #4
    1628:	08651d00 	stmdaeq	r5!, {r8, sl, fp, ip}^
    162c:	25150000 	ldrcs	r0, [r5, #-0]
    1630:	00000000 	andeq	r0, r0, r0
    1634:	086b040e 	stmdaeq	fp!, {r1, r2, r3, sl}^
    1638:	040e0000 	streq	r0, [lr], #-0
    163c:	0000085a 	andeq	r0, r0, sl, asr r8
    1640:	00060a09 	andeq	r0, r6, r9, lsl #20
    1644:	00088100 	andeq	r8, r8, r0, lsl #2
    1648:	00e20a00 	rsceq	r0, r2, r0, lsl #20
    164c:	00020000 	andeq	r0, r2, r0
    1650:	0004881e 	andeq	r8, r4, lr, lsl r8
    1654:	02fd0600 	rscseq	r0, sp, #0, 12
    1658:	0000043f 	andeq	r0, r0, pc, lsr r4
    165c:	0004811e 	andeq	r8, r4, lr, lsl r1
    1660:	02fe0600 	rscseq	r0, lr, #0, 12
    1664:	00000445 	andeq	r0, r0, r5, asr #8
    1668:	00002514 	andeq	r2, r0, r4, lsl r5
    166c:	0008a800 	andeq	sl, r8, r0, lsl #16
    1670:	00251500 	eoreq	r1, r5, r0, lsl #10
    1674:	1f000000 	svcne	0x00000000
    1678:	000001ff 	strdeq	r0, [r0], -pc	; <UNPREDICTABLE>
    167c:	08b31d07 	ldmeq	r3!, {r0, r1, r2, r8, sl, fp, ip}
    1680:	040e0000 	streq	r0, [lr], #-0
    1684:	00000899 	muleq	r0, r9, r8
    1688:	00002514 	andeq	r2, r0, r4, lsl r5
    168c:	0008c800 	andeq	ip, r8, r0, lsl #16
    1690:	05a01500 	streq	r1, [r0, #1280]!	; 0x500
    1694:	1f000000 	svcne	0x00000000
    1698:	000008b2 			; <UNDEFINED> instruction: 0x000008b2
    169c:	08d32207 	ldmeq	r3, {r0, r1, r2, r9, sp}^
    16a0:	040e0000 	streq	r0, [lr], #-0
    16a4:	000008b9 			; <UNDEFINED> instruction: 0x000008b9
    16a8:	005f0120 	subseq	r0, pc, r0, lsr #2
    16ac:	0c080000 	stceq	0, cr0, [r8], {-0}
    16b0:	00000916 	andeq	r0, r0, r6, lsl r9
    16b4:	00058b21 	andeq	r8, r5, r1, lsr #22
    16b8:	1e210000 	cdpne	0, 2, cr0, cr1, cr0, {0}
    16bc:	01000007 	tsteq	r0, r7
    16c0:	00074c21 	andeq	r4, r7, r1, lsr #24
    16c4:	ae210400 	cdpge	4, 2, cr0, cr1, cr0, {0}
    16c8:	05000005 	streq	r0, [r0, #-5]
    16cc:	0006ad21 	andeq	sl, r6, r1, lsr #26
    16d0:	5b210600 	blpl	842ed8 <__bss_end__+0x839360>
    16d4:	07000007 	streq	r0, [r0, -r7]
    16d8:	00076a21 	andeq	r6, r7, r1, lsr #20
    16dc:	79210300 	stmdbvc	r1!, {r8, r9}
    16e0:	02000007 	andeq	r0, r0, #7
    16e4:	01040b00 	tsteq	r4, r0, lsl #22
    16e8:	0009c359 	andeq	ip, r9, r9, asr r3
    16ec:	04b72200 	ldrteq	r2, [r7], #512	; 0x200
    16f0:	5a010000 	bpl	416f8 <__bss_end__+0x37b80>
    16f4:	0000006d 	andeq	r0, r0, sp, rrx
    16f8:	001f0104 	andseq	r0, pc, r4, lsl #2
    16fc:	0005ef22 	andeq	lr, r5, r2, lsr #30
    1700:	6d5c0100 	ldfvse	f0, [ip, #-0]
    1704:	04000000 	streq	r0, [r0], #-0
    1708:	22001c03 	andcs	r1, r0, #768	; 0x300
    170c:	000006c1 	andeq	r0, r0, r1, asr #13
    1710:	006d5d01 	rsbeq	r5, sp, r1, lsl #26
    1714:	02040000 	andeq	r0, r4, #0
    1718:	bd22001a 	stclt	0, cr0, [r2, #-104]!	; 0xffffff98
    171c:	01000005 	tsteq	r0, r5
    1720:	00006d63 	andeq	r6, r0, r3, ror #26
    1724:	19010400 	stmdbne	r1, {sl}
    1728:	74732300 	ldrbtvc	r2, [r3], #-768	; 0xfffffd00
    172c:	6d640100 	stfvse	f0, [r4, #-0]
    1730:	04000000 	streq	r0, [r0], #-0
    1734:	22001801 	andcs	r1, r0, #65536	; 0x10000
    1738:	000006bc 			; <UNDEFINED> instruction: 0x000006bc
    173c:	006d6801 	rsbeq	r6, sp, r1, lsl #16
    1740:	01040000 	mrseq	r0, (UNDEF: 4)
    1744:	cc220017 	stcgt	0, cr0, [r2], #-92	; 0xffffffa4
    1748:	01000006 	tsteq	r0, r6
    174c:	00006d6b 	andeq	r6, r0, fp, ror #26
    1750:	16010400 	strne	r0, [r1], -r0, lsl #8
    1754:	06c72200 	strbeq	r2, [r7], r0, lsl #4
    1758:	6e010000 	cdpvs	0, 0, cr0, cr1, cr0, {0}
    175c:	0000006d 	andeq	r0, r0, sp, rrx
    1760:	00150104 	andseq	r0, r5, r4, lsl #2
    1764:	0005f922 	andeq	pc, r5, r2, lsr #18
    1768:	6d710100 	ldfvse	f0, [r1, #-0]
    176c:	04000000 	streq	r0, [r0], #-0
    1770:	22001104 	andcs	r1, r0, #4, 2
    1774:	000006de 	ldrdeq	r0, [r0], -lr
    1778:	006d7201 	rsbeq	r7, sp, r1, lsl #4
    177c:	01040000 	mrseq	r0, (UNDEF: 4)
    1780:	0f220010 	svceq	0x00220010
    1784:	01000006 	tsteq	r0, r6
    1788:	00006d75 	andeq	r6, r0, r5, ror sp
    178c:	00100400 	andseq	r0, r0, r0, lsl #8
    1790:	90050000 	andls	r0, r5, r0
    1794:	01000007 	tsteq	r0, r7
    1798:	00091676 	andeq	r1, r9, r6, ror r6
    179c:	09c32400 	stmibeq	r3, {sl, sp}^
    17a0:	040b0000 	streq	r0, [fp], #-0
    17a4:	0a808401 	beq	fe0227b0 <__bss_end__+0xfe018c38>
    17a8:	74230000 	strtvc	r0, [r3], #-0
    17ac:	85010061 	strhi	r0, [r1, #-97]	; 0xffffff9f
    17b0:	0000002c 	andeq	r0, r0, ip, lsr #32
    17b4:	001f0104 	andseq	r0, pc, r4, lsl #2
    17b8:	00058122 	andeq	r8, r5, r2, lsr #2
    17bc:	2c880100 	stfcss	f0, [r8], {0}
    17c0:	04000000 	streq	r0, [r0], #-0
    17c4:	23001e01 	movwcs	r1, #3585	; 0xe01
    17c8:	00777874 	rsbseq	r7, r7, r4, ror r8
    17cc:	002c8c01 	eoreq	r8, ip, r1, lsl #24
    17d0:	01040000 	mrseq	r0, (UNDEF: 4)
    17d4:	7223001d 	eorvc	r0, r3, #29
    17d8:	01007278 	tsteq	r0, r8, ror r2
    17dc:	00002c92 	muleq	r0, r2, ip
    17e0:	1c010400 	cfstrsne	mvf0, [r1], {-0}
    17e4:	78742300 	ldmdavc	r4!, {r8, r9, sp}^
    17e8:	98010064 	stmdals	r1, {r2, r5, r6}
    17ec:	0000002c 	andeq	r0, r0, ip, lsr #32
    17f0:	001b0104 	andseq	r0, fp, r4, lsl #2
    17f4:	64787223 	ldrbtvs	r7, [r8], #-547	; 0xfffffddd
    17f8:	2c9b0100 	ldfcss	f0, [fp], {0}
    17fc:	04000000 	streq	r0, [r0], #-0
    1800:	23001a01 	movwcs	r1, #2561	; 0xa01
    1804:	00657874 	rsbeq	r7, r5, r4, ror r8
    1808:	002c9f01 	eoreq	r9, ip, r1, lsl #30
    180c:	01040000 	mrseq	r0, (UNDEF: 4)
    1810:	72230019 	eorvc	r0, r3, #25
    1814:	01006678 	tsteq	r0, r8, ror r6
    1818:	00002ca4 	andeq	r2, r0, r4, lsr #25
    181c:	18010400 	stmdane	r1, {sl}
    1820:	72652300 	rsbvc	r2, r5, #0, 6
    1824:	a7010072 	smlsdxge	r1, r2, r0, r0
    1828:	0000002c 	andeq	r0, r0, ip, lsr #32
    182c:	00170104 	andseq	r0, r7, r4, lsl #2
    1830:	00073e22 	andeq	r3, r7, r2, lsr #28
    1834:	2cab0100 	stfcss	f0, [fp]
    1838:	04000000 	streq	r0, [r0], #-0
    183c:	22001601 	andcs	r1, r0, #1048576	; 0x100000
    1840:	000005ef 	andeq	r0, r0, pc, ror #11
    1844:	002cb001 	eoreq	fp, ip, r1
    1848:	16040000 	strne	r0, [r4], -r0
    184c:	05000000 	streq	r0, [r0, #-0]
    1850:	0000056e 	andeq	r0, r0, lr, ror #10
    1854:	09d3b101 	ldmibeq	r3, {r0, r8, ip, sp, pc}^
    1858:	80240000 	eorhi	r0, r4, r0
    185c:	0f00000a 	svceq	0x0000000a
    1860:	00000579 	andeq	r0, r0, r9, ror r5
    1864:	fdbc0120 	ldc2	1, cr0, [ip, #128]!	; 0x80
    1868:	0c00000a 	stceq	0, cr0, [r0], {10}
    186c:	000006fc 	strdeq	r0, [r0], -ip
    1870:	09c3bd01 	stmibeq	r3, {r0, r8, sl, fp, ip, sp, pc}^
    1874:	0c000000 	stceq	0, cr0, [r0], {-0}
    1878:	00000698 	muleq	r0, r8, r6
    187c:	0a80be01 	beq	fe031088 <__bss_end__+0xfe027510>
    1880:	0c040000 	stceq	0, cr0, [r4], {-0}
    1884:	000006eb 	andeq	r0, r0, fp, ror #13
    1888:	006dc101 	rsbeq	ip, sp, r1, lsl #2
    188c:	0c080000 	stceq	0, cr0, [r8], {-0}
    1890:	00000121 	andeq	r0, r0, r1, lsr #2
    1894:	006dca01 	rsbeq	ip, sp, r1, lsl #20
    1898:	0c0c0000 	stceq	0, cr0, [ip], {-0}
    189c:	00000586 	andeq	r0, r0, r6, lsl #11
    18a0:	006dcc01 	rsbeq	ip, sp, r1, lsl #24
    18a4:	0c100000 	ldceq	0, cr0, [r0], {-0}
    18a8:	00000688 	andeq	r0, r0, r8, lsl #13
    18ac:	006dce01 	rsbeq	ip, sp, r1, lsl #28
    18b0:	0c140000 	ldceq	0, cr0, [r4], {-0}
    18b4:	000006f0 	strdeq	r0, [r0], -r0	; <UNPREDICTABLE>
    18b8:	006dd001 	rsbeq	sp, sp, r1
    18bc:	0c180000 	ldceq	0, cr0, [r8], {-0}
    18c0:	000005c7 	andeq	r0, r0, r7, asr #11
    18c4:	006dd201 	rsbeq	sp, sp, r1, lsl #4
    18c8:	001c0000 	andseq	r0, ip, r0
    18cc:	00057905 	andeq	r7, r5, r5, lsl #18
    18d0:	90d30100 	sbcsls	r0, r3, r0, lsl #2
    18d4:	2400000a 	strcs	r0, [r0], #-10
    18d8:	00000afd 	strdeq	r0, [r0], -sp
    18dc:	63326925 	teqvs	r2, #606208	; 0x94000
    18e0:	18d70100 	ldmne	r7, {r8}^
    18e4:	0e00000b 	cdpeq	0, 0, cr0, cr0, cr11, {0}
    18e8:	000b0804 	andeq	r0, fp, r4, lsl #16
    18ec:	06722600 	ldrbteq	r2, [r2], -r0, lsl #12
    18f0:	42010000 	andmi	r0, r1, #0
    18f4:	00002501 	andeq	r2, r0, r1, lsl #10
    18f8:	70030500 	andvc	r0, r3, r0, lsl #10
    18fc:	27000097 			; <UNDEFINED> instruction: 0x27000097
    1900:	000006d1 	ldrdeq	r0, [r0], -r1
    1904:	a8017501 	stmdage	r1, {r0, r8, sl, ip, sp, lr}
    1908:	08000082 	stmdaeq	r0, {r1, r7}
    190c:	01000000 	mrseq	r0, (UNDEF: 0)
    1910:	0011019c 	mulseq	r1, ip, r1
    1914:	02452800 	subeq	r2, r5, #0, 16
    1918:	11110000 	tstne	r1, r0
    191c:	03050000 	movweq	r0, #20480	; 0x5000
    1920:	00009400 	andeq	r9, r0, r0, lsl #8
    1924:	000baa29 	andeq	sl, fp, r9, lsr #20
    1928:	755f2a00 	ldrbvc	r2, [pc, #-2560]	; f30 <_start-0x70d0>
    192c:	80010400 	andhi	r0, r1, r0, lsl #8
    1930:	000b7b01 	andeq	r7, fp, r1, lsl #22
    1934:	00732b00 	rsbseq	r2, r3, r0, lsl #22
    1938:	c3018001 	movwgt	r8, #4097	; 0x1001
    193c:	2b000009 	blcs	1968 <_start-0x6698>
    1940:	80010075 	andhi	r0, r1, r5, ror r0
    1944:	00002c01 	andeq	r2, r0, r1, lsl #24
    1948:	782c0000 	stmdavc	ip!, {}	; <UNPREDICTABLE>
    194c:	01800100 	orreq	r0, r0, r0, lsl #2
    1950:	00000b5a 	andeq	r0, r0, sl, asr fp
    1954:	7078652c 	rsbsvc	r6, r8, ip, lsr #10
    1958:	01800100 	orreq	r0, r0, r0, lsl #2
    195c:	0000002c 	andeq	r0, r0, ip, lsr #32
    1960:	0006192d 	andeq	r1, r6, sp, lsr #18
    1964:	01800100 	orreq	r0, r0, r0, lsl #2
    1968:	0000002c 	andeq	r0, r0, ip, lsr #32
    196c:	0006802d 	andeq	r8, r6, sp, lsr #32
    1970:	01800100 	orreq	r0, r0, r0, lsl #2
    1974:	0000002c 	andeq	r0, r0, ip, lsr #32
    1978:	0bff2900 	bleq	fffcbd80 <__bss_end__+0xfffc2208>
    197c:	5f2a0000 	svcpl	0x002a0000
    1980:	01040075 	tsteq	r4, r5, ror r0
    1984:	0bd00181 	bleq	ff401f90 <__bss_end__+0xff3f8418>
    1988:	732b0000 			; <UNDEFINED> instruction: 0x732b0000
    198c:	01810100 	orreq	r0, r1, r0, lsl #2
    1990:	000009c3 	andeq	r0, r0, r3, asr #19
    1994:	0100752b 	tsteq	r0, fp, lsr #10
    1998:	002c0181 	eoreq	r0, ip, r1, lsl #3
    199c:	2c000000 	stccs	0, cr0, [r0], {-0}
    19a0:	81010078 	tsthi	r1, r8, ror r0
    19a4:	000baf01 	andeq	sl, fp, r1, lsl #30
    19a8:	78652c00 	stmdavc	r5!, {sl, fp, sp}^
    19ac:	81010070 	tsthi	r1, r0, ror r0
    19b0:	00002c01 	andeq	r2, r0, r1, lsl #24
    19b4:	06192d00 	ldreq	r2, [r9], -r0, lsl #26
    19b8:	81010000 	mrshi	r0, (UNDEF: 1)
    19bc:	00002c01 	andeq	r2, r0, r1, lsl #24
    19c0:	06802d00 	streq	r2, [r0], r0, lsl #26
    19c4:	81010000 	mrshi	r0, (UNDEF: 1)
    19c8:	00002c01 	andeq	r2, r0, r1, lsl #24
    19cc:	54290000 	strtpl	r0, [r9], #-0
    19d0:	2a00000c 	bcs	1a08 <_start-0x65f8>
    19d4:	0400755f 	streq	r7, [r0], #-1375	; 0xfffffaa1
    19d8:	25018201 	strcs	r8, [r1, #-513]	; 0xfffffdff
    19dc:	2b00000c 	blcs	1a14 <_start-0x65ec>
    19e0:	82010073 	andhi	r0, r1, #115	; 0x73
    19e4:	0009c301 	andeq	ip, r9, r1, lsl #6
    19e8:	00752b00 	rsbseq	r2, r5, r0, lsl #22
    19ec:	2c018201 	sfmcs	f0, 1, [r1], {1}
    19f0:	00000000 	andeq	r0, r0, r0
    19f4:	0100782c 	tsteq	r0, ip, lsr #16
    19f8:	0c040182 	stfeqs	f0, [r4], {130}	; 0x82
    19fc:	652c0000 	strvs	r0, [ip, #-0]!
    1a00:	01007078 	tsteq	r0, r8, ror r0
    1a04:	002c0182 	eoreq	r0, ip, r2, lsl #3
    1a08:	192d0000 	pushne	{}	; <UNPREDICTABLE>
    1a0c:	01000006 	tsteq	r0, r6
    1a10:	002c0182 	eoreq	r0, ip, r2, lsl #3
    1a14:	802d0000 	eorhi	r0, sp, r0
    1a18:	01000006 	tsteq	r0, r6
    1a1c:	002c0182 	eoreq	r0, ip, r2, lsl #3
    1a20:	29000000 	stmdbcs	r0, {}	; <UNPREDICTABLE>
    1a24:	00000ca9 	andeq	r0, r0, r9, lsr #25
    1a28:	00755f2a 	rsbseq	r5, r5, sl, lsr #30
    1a2c:	01830104 	orreq	r0, r3, r4, lsl #2
    1a30:	00000c7a 	andeq	r0, r0, sl, ror ip
    1a34:	0100732b 	tsteq	r0, fp, lsr #6
    1a38:	09c30183 	stmibeq	r3, {r0, r1, r7, r8}^
    1a3c:	752b0000 	strvc	r0, [fp, #-0]!
    1a40:	01830100 	orreq	r0, r3, r0, lsl #2
    1a44:	0000002c 	andeq	r0, r0, ip, lsr #32
    1a48:	00782c00 	rsbseq	r2, r8, r0, lsl #24
    1a4c:	59018301 	stmdbpl	r1, {r0, r8, r9, pc}
    1a50:	2c00000c 	stccs	0, cr0, [r0], {12}
    1a54:	00707865 	rsbseq	r7, r0, r5, ror #16
    1a58:	2c018301 	stccs	3, cr8, [r1], {1}
    1a5c:	2d000000 	stccs	0, cr0, [r0, #-0]
    1a60:	00000619 	andeq	r0, r0, r9, lsl r6
    1a64:	2c018301 	stccs	3, cr8, [r1], {1}
    1a68:	2d000000 	stccs	0, cr0, [r0, #-0]
    1a6c:	00000680 	andeq	r0, r0, r0, lsl #13
    1a70:	2c018301 	stccs	3, cr8, [r1], {1}
    1a74:	00000000 	andeq	r0, r0, r0
    1a78:	000cfe29 	andeq	pc, ip, r9, lsr #28
    1a7c:	755f2a00 	ldrbvc	r2, [pc, #-2560]	; 1084 <_start-0x6f7c>
    1a80:	84010400 	strhi	r0, [r1], #-1024	; 0xfffffc00
    1a84:	000ccf01 	andeq	ip, ip, r1, lsl #30
    1a88:	00732b00 	rsbseq	r2, r3, r0, lsl #22
    1a8c:	c3018401 	movwgt	r8, #5121	; 0x1401
    1a90:	2b000009 	blcs	1abc <_start-0x6544>
    1a94:	84010075 	strhi	r0, [r1], #-117	; 0xffffff8b
    1a98:	00002c01 	andeq	r2, r0, r1, lsl #24
    1a9c:	782c0000 	stmdavc	ip!, {}	; <UNPREDICTABLE>
    1aa0:	01840100 	orreq	r0, r4, r0, lsl #2
    1aa4:	00000cae 	andeq	r0, r0, lr, lsr #25
    1aa8:	7078652c 	rsbsvc	r6, r8, ip, lsr #10
    1aac:	01840100 	orreq	r0, r4, r0, lsl #2
    1ab0:	0000002c 	andeq	r0, r0, ip, lsr #32
    1ab4:	0006192d 	andeq	r1, r6, sp, lsr #18
    1ab8:	01840100 	orreq	r0, r4, r0, lsl #2
    1abc:	0000002c 	andeq	r0, r0, ip, lsr #32
    1ac0:	0006802d 	andeq	r8, r6, sp, lsr #32
    1ac4:	01840100 	orreq	r0, r4, r0, lsl #2
    1ac8:	0000002c 	andeq	r0, r0, ip, lsr #32
    1acc:	0d532900 	vldreq.16	s5, [r3, #-0]	; <UNPREDICTABLE>
    1ad0:	5f2a0000 	svcpl	0x002a0000
    1ad4:	01040075 	tsteq	r4, r5, ror r0
    1ad8:	0d240185 	stfeqs	f0, [r4, #-532]!	; 0xfffffdec
    1adc:	732b0000 			; <UNDEFINED> instruction: 0x732b0000
    1ae0:	01850100 	orreq	r0, r5, r0, lsl #2
    1ae4:	000009c3 	andeq	r0, r0, r3, asr #19
    1ae8:	0100752b 	tsteq	r0, fp, lsr #10
    1aec:	002c0185 	eoreq	r0, ip, r5, lsl #3
    1af0:	2c000000 	stccs	0, cr0, [r0], {-0}
    1af4:	85010078 	strhi	r0, [r1, #-120]	; 0xffffff88
    1af8:	000d0301 	andeq	r0, sp, r1, lsl #6
    1afc:	78652c00 	stmdavc	r5!, {sl, fp, sp}^
    1b00:	85010070 	strhi	r0, [r1, #-112]	; 0xffffff90
    1b04:	00002c01 	andeq	r2, r0, r1, lsl #24
    1b08:	06192d00 	ldreq	r2, [r9], -r0, lsl #26
    1b0c:	85010000 	strhi	r0, [r1, #-0]
    1b10:	00002c01 	andeq	r2, r0, r1, lsl #24
    1b14:	06802d00 	streq	r2, [r0], r0, lsl #26
    1b18:	85010000 	strhi	r0, [r1, #-0]
    1b1c:	00002c01 	andeq	r2, r0, r1, lsl #24
    1b20:	a8290000 	stmdage	r9!, {}	; <UNPREDICTABLE>
    1b24:	2a00000d 	bcs	1b60 <_start-0x64a0>
    1b28:	0400755f 	streq	r7, [r0], #-1375	; 0xfffffaa1
    1b2c:	79018601 	stmdbvc	r1, {r0, r9, sl, pc}
    1b30:	2b00000d 	blcs	1b6c <_start-0x6494>
    1b34:	86010073 			; <UNDEFINED> instruction: 0x86010073
    1b38:	0009c301 	andeq	ip, r9, r1, lsl #6
    1b3c:	00752b00 	rsbseq	r2, r5, r0, lsl #22
    1b40:	2c018601 	stccs	6, cr8, [r1], {1}
    1b44:	00000000 	andeq	r0, r0, r0
    1b48:	0100782c 	tsteq	r0, ip, lsr #16
    1b4c:	0d580186 	ldfeqe	f0, [r8, #-536]	; 0xfffffde8
    1b50:	652c0000 	strvs	r0, [ip, #-0]!
    1b54:	01007078 	tsteq	r0, r8, ror r0
    1b58:	002c0186 	eoreq	r0, ip, r6, lsl #3
    1b5c:	192d0000 	pushne	{}	; <UNPREDICTABLE>
    1b60:	01000006 	tsteq	r0, r6
    1b64:	002c0186 	eoreq	r0, ip, r6, lsl #3
    1b68:	802d0000 	eorhi	r0, sp, r0
    1b6c:	01000006 	tsteq	r0, r6
    1b70:	002c0186 	eoreq	r0, ip, r6, lsl #3
    1b74:	29000000 	stmdbcs	r0, {}	; <UNPREDICTABLE>
    1b78:	00000dfd 	strdeq	r0, [r0], -sp
    1b7c:	00755f2a 	rsbseq	r5, r5, sl, lsr #30
    1b80:	01890104 	orreq	r0, r9, r4, lsl #2
    1b84:	00000dce 	andeq	r0, r0, lr, asr #27
    1b88:	0100732b 	tsteq	r0, fp, lsr #6
    1b8c:	0a800189 	beq	fe0021b8 <__bss_end__+0xfdff8640>
    1b90:	752b0000 	strvc	r0, [fp, #-0]!
    1b94:	01890100 	orreq	r0, r9, r0, lsl #2
    1b98:	0000002c 	andeq	r0, r0, ip, lsr #32
    1b9c:	00782c00 	rsbseq	r2, r8, r0, lsl #24
    1ba0:	ad018901 	vstrge.16	s16, [r1, #-2]	; <UNPREDICTABLE>
    1ba4:	2c00000d 	stccs	0, cr0, [r0], {13}
    1ba8:	00707865 	rsbseq	r7, r0, r5, ror #16
    1bac:	2c018901 			; <UNDEFINED> instruction: 0x2c018901
    1bb0:	2d000000 	stccs	0, cr0, [r0, #-0]
    1bb4:	00000619 	andeq	r0, r0, r9, lsl r6
    1bb8:	2c018901 			; <UNDEFINED> instruction: 0x2c018901
    1bbc:	2d000000 	stccs	0, cr0, [r0, #-0]
    1bc0:	00000680 	andeq	r0, r0, r0, lsl #13
    1bc4:	2c018901 			; <UNDEFINED> instruction: 0x2c018901
    1bc8:	00000000 	andeq	r0, r0, r0
    1bcc:	000e5229 	andeq	r5, lr, r9, lsr #4
    1bd0:	755f2a00 	ldrbvc	r2, [pc, #-2560]	; 11d8 <_start-0x6e28>
    1bd4:	8a010400 	bhi	42bdc <__bss_end__+0x39064>
    1bd8:	000e2301 	andeq	r2, lr, r1, lsl #6
    1bdc:	00732b00 	rsbseq	r2, r3, r0, lsl #22
    1be0:	80018a01 	andhi	r8, r1, r1, lsl #20
    1be4:	2b00000a 	blcs	1c14 <_start-0x63ec>
    1be8:	8a010075 	bhi	41dc4 <__bss_end__+0x3824c>
    1bec:	00002c01 	andeq	r2, r0, r1, lsl #24
    1bf0:	782c0000 	stmdavc	ip!, {}	; <UNPREDICTABLE>
    1bf4:	018a0100 	orreq	r0, sl, r0, lsl #2
    1bf8:	00000e02 	andeq	r0, r0, r2, lsl #28
    1bfc:	7078652c 	rsbsvc	r6, r8, ip, lsr #10
    1c00:	018a0100 	orreq	r0, sl, r0, lsl #2
    1c04:	0000002c 	andeq	r0, r0, ip, lsr #32
    1c08:	0006192d 	andeq	r1, r6, sp, lsr #18
    1c0c:	018a0100 	orreq	r0, sl, r0, lsl #2
    1c10:	0000002c 	andeq	r0, r0, ip, lsr #32
    1c14:	0006802d 	andeq	r8, r6, sp, lsr #32
    1c18:	018a0100 	orreq	r0, sl, r0, lsl #2
    1c1c:	0000002c 	andeq	r0, r0, ip, lsr #32
    1c20:	0ea72900 	vfmaeq.f16	s4, s14, s0	; <UNPREDICTABLE>
    1c24:	5f2a0000 	svcpl	0x002a0000
    1c28:	01040075 	tsteq	r4, r5, ror r0
    1c2c:	0e78018b 	rpweq<illegal precision>	f0, f0, #3.0
    1c30:	732b0000 			; <UNDEFINED> instruction: 0x732b0000
    1c34:	018b0100 	orreq	r0, fp, r0, lsl #2
    1c38:	00000a80 	andeq	r0, r0, r0, lsl #21
    1c3c:	0100752b 	tsteq	r0, fp, lsr #10
    1c40:	002c018b 	eoreq	r0, ip, fp, lsl #3
    1c44:	2c000000 	stccs	0, cr0, [r0], {-0}
    1c48:	8b010078 	blhi	41e30 <__bss_end__+0x382b8>
    1c4c:	000e5701 	andeq	r5, lr, r1, lsl #14
    1c50:	78652c00 	stmdavc	r5!, {sl, fp, sp}^
    1c54:	8b010070 	blhi	41e1c <__bss_end__+0x382a4>
    1c58:	00002c01 	andeq	r2, r0, r1, lsl #24
    1c5c:	06192d00 	ldreq	r2, [r9], -r0, lsl #26
    1c60:	8b010000 	blhi	41c68 <__bss_end__+0x380f0>
    1c64:	00002c01 	andeq	r2, r0, r1, lsl #24
    1c68:	06802d00 	streq	r2, [r0], r0, lsl #26
    1c6c:	8b010000 	blhi	41c74 <__bss_end__+0x380fc>
    1c70:	00002c01 	andeq	r2, r0, r1, lsl #24
    1c74:	fc290000 	stc2	0, cr0, [r9], #-0
    1c78:	2a00000e 	bcs	1cb8 <_start-0x6348>
    1c7c:	0400755f 	streq	r7, [r0], #-1375	; 0xfffffaa1
    1c80:	cd018c01 	stcgt	12, cr8, [r1, #-4]
    1c84:	2b00000e 	blcs	1cc4 <_start-0x633c>
    1c88:	8c010073 	stchi	0, cr0, [r1], {115}	; 0x73
    1c8c:	000a8001 	andeq	r8, sl, r1
    1c90:	00752b00 	rsbseq	r2, r5, r0, lsl #22
    1c94:	2c018c01 	stccs	12, cr8, [r1], {1}
    1c98:	00000000 	andeq	r0, r0, r0
    1c9c:	0100782c 	tsteq	r0, ip, lsr #16
    1ca0:	0eac018c 	fdveq<illegal precision>	f0, f4, #4.0
    1ca4:	652c0000 	strvs	r0, [ip, #-0]!
    1ca8:	01007078 	tsteq	r0, r8, ror r0
    1cac:	002c018c 	eoreq	r0, ip, ip, lsl #3
    1cb0:	192d0000 	pushne	{}	; <UNPREDICTABLE>
    1cb4:	01000006 	tsteq	r0, r6
    1cb8:	002c018c 	eoreq	r0, ip, ip, lsl #3
    1cbc:	802d0000 	eorhi	r0, sp, r0
    1cc0:	01000006 	tsteq	r0, r6
    1cc4:	002c018c 	eoreq	r0, ip, ip, lsl #3
    1cc8:	29000000 	stmdbcs	r0, {}	; <UNPREDICTABLE>
    1ccc:	00000f51 	andeq	r0, r0, r1, asr pc
    1cd0:	00755f2a 	rsbseq	r5, r5, sl, lsr #30
    1cd4:	018d0104 	orreq	r0, sp, r4, lsl #2
    1cd8:	00000f22 	andeq	r0, r0, r2, lsr #30
    1cdc:	0100732b 	tsteq	r0, fp, lsr #6
    1ce0:	0a80018d 	beq	fe00231c <__bss_end__+0xfdff87a4>
    1ce4:	752b0000 	strvc	r0, [fp, #-0]!
    1ce8:	018d0100 	orreq	r0, sp, r0, lsl #2
    1cec:	0000002c 	andeq	r0, r0, ip, lsr #32
    1cf0:	00782c00 	rsbseq	r2, r8, r0, lsl #24
    1cf4:	01018d01 	tsteq	r1, r1, lsl #26
    1cf8:	2c00000f 	stccs	0, cr0, [r0], {15}
    1cfc:	00707865 	rsbseq	r7, r0, r5, ror #16
    1d00:	2c018d01 	stccs	13, cr8, [r1], {1}
    1d04:	2d000000 	stccs	0, cr0, [r0, #-0]
    1d08:	00000619 	andeq	r0, r0, r9, lsl r6
    1d0c:	2c018d01 	stccs	13, cr8, [r1], {1}
    1d10:	2d000000 	stccs	0, cr0, [r0, #-0]
    1d14:	00000680 	andeq	r0, r0, r0, lsl #13
    1d18:	2c018d01 	stccs	13, cr8, [r1], {1}
    1d1c:	00000000 	andeq	r0, r0, r0
    1d20:	000fa629 	andeq	sl, pc, r9, lsr #12
    1d24:	755f2a00 	ldrbvc	r2, [pc, #-2560]	; 132c <_start-0x6cd4>
    1d28:	8e010400 	cfcpyshi	mvf0, mvf1
    1d2c:	000f7701 	andeq	r7, pc, r1, lsl #14
    1d30:	00732b00 	rsbseq	r2, r3, r0, lsl #22
    1d34:	80018e01 	andhi	r8, r1, r1, lsl #28
    1d38:	2b00000a 	blcs	1d68 <_start-0x6298>
    1d3c:	8e010075 	mcrhi	0, 0, r0, cr1, cr5, {3}
    1d40:	00002c01 	andeq	r2, r0, r1, lsl #24
    1d44:	782c0000 	stmdavc	ip!, {}	; <UNPREDICTABLE>
    1d48:	018e0100 	orreq	r0, lr, r0, lsl #2
    1d4c:	00000f56 	andeq	r0, r0, r6, asr pc
    1d50:	7078652c 	rsbsvc	r6, r8, ip, lsr #10
    1d54:	018e0100 	orreq	r0, lr, r0, lsl #2
    1d58:	0000002c 	andeq	r0, r0, ip, lsr #32
    1d5c:	0006192d 	andeq	r1, r6, sp, lsr #18
    1d60:	018e0100 	orreq	r0, lr, r0, lsl #2
    1d64:	0000002c 	andeq	r0, r0, ip, lsr #32
    1d68:	0006802d 	andeq	r8, r6, sp, lsr #32
    1d6c:	018e0100 	orreq	r0, lr, r0, lsl #2
    1d70:	0000002c 	andeq	r0, r0, ip, lsr #32
    1d74:	0ffb2900 	svceq	0x00fb2900
    1d78:	5f2a0000 	svcpl	0x002a0000
    1d7c:	01040075 	tsteq	r4, r5, ror r0
    1d80:	0fcc018f 	svceq	0x00cc018f
    1d84:	732b0000 			; <UNDEFINED> instruction: 0x732b0000
    1d88:	018f0100 	orreq	r0, pc, r0, lsl #2
    1d8c:	00000a80 	andeq	r0, r0, r0, lsl #21
    1d90:	0100752b 	tsteq	r0, fp, lsr #10
    1d94:	002c018f 	eoreq	r0, ip, pc, lsl #3
    1d98:	2c000000 	stccs	0, cr0, [r0], {-0}
    1d9c:	8f010078 	svchi	0x00010078
    1da0:	000fab01 	andeq	sl, pc, r1, lsl #22
    1da4:	78652c00 	stmdavc	r5!, {sl, fp, sp}^
    1da8:	8f010070 	svchi	0x00010070
    1dac:	00002c01 	andeq	r2, r0, r1, lsl #24
    1db0:	06192d00 	ldreq	r2, [r9], -r0, lsl #26
    1db4:	8f010000 	svchi	0x00010000
    1db8:	00002c01 	andeq	r2, r0, r1, lsl #24
    1dbc:	06802d00 	streq	r2, [r0], r0, lsl #26
    1dc0:	8f010000 	svchi	0x00010000
    1dc4:	00002c01 	andeq	r2, r0, r1, lsl #24
    1dc8:	50290000 	eorpl	r0, r9, r0
    1dcc:	2a000010 	bcs	1e14 <_start-0x61ec>
    1dd0:	0400755f 	streq	r7, [r0], #-1375	; 0xfffffaa1
    1dd4:	21019001 	tstcs	r1, r1
    1dd8:	2b000010 	blcs	1e20 <_start-0x61e0>
    1ddc:	90010073 	andls	r0, r1, r3, ror r0
    1de0:	000a8001 	andeq	r8, sl, r1
    1de4:	00752b00 	rsbseq	r2, r5, r0, lsl #22
    1de8:	2c019001 	stccs	0, cr9, [r1], {1}
    1dec:	00000000 	andeq	r0, r0, r0
    1df0:	0100782c 	tsteq	r0, ip, lsr #16
    1df4:	10000190 	mulne	r0, r0, r1
    1df8:	652c0000 	strvs	r0, [ip, #-0]!
    1dfc:	01007078 	tsteq	r0, r8, ror r0
    1e00:	002c0190 	mlaeq	ip, r0, r1, r0
    1e04:	192d0000 	pushne	{}	; <UNPREDICTABLE>
    1e08:	01000006 	tsteq	r0, r6
    1e0c:	002c0190 	mlaeq	ip, r0, r1, r0
    1e10:	802d0000 	eorhi	r0, sp, r0
    1e14:	01000006 	tsteq	r0, r6
    1e18:	002c0190 	mlaeq	ip, r0, r1, r0
    1e1c:	29000000 	stmdbcs	r0, {}	; <UNPREDICTABLE>
    1e20:	000010a5 	andeq	r1, r0, r5, lsr #1
    1e24:	00755f2a 	rsbseq	r5, r5, sl, lsr #30
    1e28:	01910104 	orrseq	r0, r1, r4, lsl #2
    1e2c:	00001076 	andeq	r1, r0, r6, ror r0
    1e30:	0100732b 	tsteq	r0, fp, lsr #6
    1e34:	0a800191 	beq	fe002480 <__bss_end__+0xfdff8908>
    1e38:	752b0000 	strvc	r0, [fp, #-0]!
    1e3c:	01910100 	orrseq	r0, r1, r0, lsl #2
    1e40:	0000002c 	andeq	r0, r0, ip, lsr #32
    1e44:	00782c00 	rsbseq	r2, r8, r0, lsl #24
    1e48:	55019101 	strpl	r9, [r1, #-257]	; 0xfffffeff
    1e4c:	2c000010 	stccs	0, cr0, [r0], {16}
    1e50:	00707865 	rsbseq	r7, r0, r5, ror #16
    1e54:	2c019101 	stfcsd	f1, [r1], {1}
    1e58:	2d000000 	stccs	0, cr0, [r0, #-0]
    1e5c:	00000619 	andeq	r0, r0, r9, lsl r6
    1e60:	2c019101 	stfcsd	f1, [r1], {1}
    1e64:	2d000000 	stccs	0, cr0, [r0, #-0]
    1e68:	00000680 	andeq	r0, r0, r0, lsl #13
    1e6c:	2c019101 	stfcsd	f1, [r1], {1}
    1e70:	00000000 	andeq	r0, r0, r0
    1e74:	0082ac2e 	addeq	sl, r2, lr, lsr #24
    1e78:	00000400 	andeq	r0, r0, r0, lsl #8
    1e7c:	755f2a00 	ldrbvc	r2, [pc, #-2560]	; 1484 <_start-0x6b7c>
    1e80:	92010400 	andls	r0, r1, #0, 8
    1e84:	0010cf01 	andseq	ip, r0, r1, lsl #30
    1e88:	00732b00 	rsbseq	r2, r3, r0, lsl #22
    1e8c:	80019201 	andhi	r9, r1, r1, lsl #4
    1e90:	2b00000a 	blcs	1ec0 <_start-0x6140>
    1e94:	92010075 	andls	r0, r1, #117	; 0x75
    1e98:	00002c01 	andeq	r2, r0, r1, lsl #24
    1e9c:	782c0000 	stmdavc	ip!, {}	; <UNPREDICTABLE>
    1ea0:	01920100 	orrseq	r0, r2, r0, lsl #2
    1ea4:	000010ae 	andeq	r1, r0, lr, lsr #1
    1ea8:	7078652f 	rsbsvc	r6, r8, pc, lsr #10
    1eac:	01920100 	orrseq	r0, r2, r0, lsl #2
    1eb0:	0000002c 	andeq	r0, r0, ip, lsr #32
    1eb4:	192d0200 	stmfdne	sp!, {r9}
    1eb8:	01000006 	tsteq	r0, r6
    1ebc:	002c0192 	mlaeq	ip, r2, r1, r0
    1ec0:	802d0000 	eorhi	r0, sp, r0
    1ec4:	01000006 	tsteq	r0, r6
    1ec8:	002c0192 	mlaeq	ip, r2, r1, r0
    1ecc:	00000000 	andeq	r0, r0, r0
    1ed0:	00012f09 	andeq	r2, r1, r9, lsl #30
    1ed4:	00111100 	andseq	r1, r1, r0, lsl #2
    1ed8:	00e20a00 	rsceq	r0, r2, r0, lsl #20
    1edc:	000c0000 	andeq	r0, ip, r0
    1ee0:	00110104 	andseq	r0, r1, r4, lsl #2
    1ee4:	02103000 	andseq	r3, r0, #0
    1ee8:	51010000 	mrspl	r0, (UNDEF: 1)
    1eec:	00875001 	addeq	r5, r7, r1
    1ef0:	00009400 	andeq	r9, r0, r0, lsl #8
    1ef4:	879c0100 	ldrhi	r0, [ip, r0, lsl #2]
    1ef8:	31000012 	tstcc	r0, r2, lsl r0
    1efc:	00414453 	subeq	r4, r1, r3, asr r4
    1f00:	33015901 	movwcc	r5, #6401	; 0x1901
    1f04:	02000000 	andeq	r0, r0, #0
    1f08:	4c435331 	mcrrmi	3, 3, r5, r3, cr1
    1f0c:	015a0100 	cmpeq	sl, r0, lsl #2
    1f10:	00000033 	andeq	r0, r0, r3, lsr r0
    1f14:	00632c03 	rsbeq	r2, r3, r3, lsl #24
    1f18:	c3016301 	movwgt	r6, #4865	; 0x1301
    1f1c:	28000009 	stmdacs	r0, {r0, r3}
    1f20:	00000245 	andeq	r0, r0, r5, asr #4
    1f24:	00001297 	muleq	r0, r7, r2
    1f28:	94400305 	strbls	r0, [r0], #-773	; 0xfffffcfb
    1f2c:	90290000 	eorls	r0, r9, r0
    1f30:	2a000011 	bcs	1f7c <_start-0x6084>
    1f34:	0400755f 	streq	r7, [r0], #-1375	; 0xfffffaa1
    1f38:	85016301 	strhi	r6, [r1, #-769]	; 0xfffffcff
    1f3c:	2b000011 	blcs	1f88 <_start-0x6078>
    1f40:	63010076 	movwvs	r0, #4214	; 0x1076
    1f44:	0009c301 	andeq	ip, r9, r1, lsl #6
    1f48:	00752b00 	rsbseq	r2, r5, r0, lsl #22
    1f4c:	2c016301 	stccs	3, cr6, [r1], {1}
    1f50:	00000000 	andeq	r0, r0, r0
    1f54:	0100752c 	tsteq	r0, ip, lsr #10
    1f58:	11640163 	cmnne	r4, r3, ror #2
    1f5c:	29000000 	stmdbcs	r0, {}	; <UNPREDICTABLE>
    1f60:	000011c3 	andeq	r1, r0, r3, asr #3
    1f64:	00755f2a 	rsbseq	r5, r5, sl, lsr #30
    1f68:	01650104 	cmneq	r5, r4, lsl #2
    1f6c:	000011b8 			; <UNDEFINED> instruction: 0x000011b8
    1f70:	0076762b 	rsbseq	r7, r6, fp, lsr #12
    1f74:	c3016501 	movwgt	r6, #5377	; 0x1501
    1f78:	2b000009 	blcs	1fa4 <_start-0x605c>
    1f7c:	01007575 	tsteq	r0, r5, ror r5
    1f80:	006d0165 	rsbeq	r0, sp, r5, ror #2
    1f84:	2c000000 	stccs	0, cr0, [r0], {-0}
    1f88:	65010075 	strvs	r0, [r1, #-117]	; 0xffffff8b
    1f8c:	00119501 	andseq	r9, r1, r1, lsl #10
    1f90:	58320000 	ldmdapl	r2!, {}	; <UNPREDICTABLE>
    1f94:	30000087 	andcc	r0, r0, r7, lsl #1
    1f98:	3200000b 	andcc	r0, r0, #11
    1f9c:	0000875c 	andeq	r8, r0, ip, asr r7
    1fa0:	00001b15 	andeq	r1, r0, r5, lsl fp
    1fa4:	00876833 	addeq	r6, r7, r3, lsr r8
    1fa8:	001b2000 	andseq	r2, fp, r0
    1fac:	0011ed00 	andseq	lr, r1, r0, lsl #26
    1fb0:	50013400 	andpl	r3, r1, r0, lsl #8
    1fb4:	01343201 	teqeq	r4, r1, lsl #4
    1fb8:	00340151 	eorseq	r0, r4, r1, asr r1
    1fbc:	00877433 	addeq	r7, r7, r3, lsr r4
    1fc0:	001b2000 	andseq	r2, fp, r0
    1fc4:	00120500 	andseq	r0, r2, r0, lsl #10
    1fc8:	50013400 	andpl	r3, r1, r0, lsl #8
    1fcc:	01343301 	teqeq	r4, r1, lsl #6
    1fd0:	00340151 	eorseq	r0, r4, r1, asr r1
    1fd4:	00877832 	addeq	r7, r7, r2, lsr r8
    1fd8:	001b1500 	andseq	r1, fp, r0, lsl #10
    1fdc:	87883300 	strhi	r3, [r8, r0, lsl #6]
    1fe0:	1b2b0000 	blne	ac1fe8 <__bss_end__+0xab8470>
    1fe4:	12290000 	eorne	r0, r9, #0
    1fe8:	01340000 	teqeq	r4, r0
    1fec:	00740250 	rsbseq	r0, r4, r0, asr r2
    1ff0:	03510134 	cmpeq	r1, #52, 2
    1ff4:	0080000a 	addeq	r0, r0, sl
    1ff8:	00878c32 	addeq	r8, r7, r2, lsr ip
    1ffc:	001b1500 	andseq	r1, fp, r0, lsl #10
    2000:	87903200 	ldrhi	r3, [r0, r0, lsl #4]
    2004:	19590000 	ldmdbne	r9, {}^	; <UNPREDICTABLE>
    2008:	94320000 	ldrtls	r0, [r2], #-0
    200c:	15000087 	strne	r0, [r0, #-135]	; 0xffffff79
    2010:	3200001b 	andcc	r0, r0, #27
    2014:	000087b4 			; <UNDEFINED> instruction: 0x000087b4
    2018:	00001b36 	andeq	r1, r0, r6, lsr fp
    201c:	0087c833 	addeq	ip, r7, r3, lsr r8
    2020:	001b4100 	andseq	r4, fp, r0, lsl #2
    2024:	00127d00 	andseq	r7, r2, r0, lsl #26
    2028:	50013400 	andpl	r3, r1, r0, lsl #8
    202c:	95980305 	ldrls	r0, [r8, #773]	; 0x305
    2030:	01340000 	teqeq	r4, r0
    2034:	4c030551 	cfstr32mi	mvfx0, [r3], {81}	; 0x51
    2038:	34000094 	strcc	r0, [r0], #-148	; 0xffffff6c
    203c:	03055201 	movweq	r5, #20993	; 0x5201
    2040:	00009440 	andeq	r9, r0, r0, asr #8
    2044:	03530134 	cmpeq	r3, #52, 2
    2048:	00016e0a 	andeq	r6, r1, sl, lsl #28
    204c:	0087cc32 	addeq	ip, r7, r2, lsr ip
    2050:	001b4c00 	andseq	r4, fp, r0, lsl #24
    2054:	2f090000 	svccs	0x00090000
    2058:	97000001 	strls	r0, [r0, -r1]
    205c:	0a000012 	beq	20ac <_start-0x5f54>
    2060:	000000e2 	andeq	r0, r0, r2, ror #1
    2064:	87040008 	strhi	r0, [r4, -r8]
    2068:	30000012 	andcc	r0, r0, r2, lsl r0
    206c:	0000069f 	muleq	r0, pc, r6	; <UNPREDICTABLE>
    2070:	e4014701 	str	r4, [r1], #-1793	; 0xfffff8ff
    2074:	18000087 	stmdane	r0, {r0, r1, r2, r7}
    2078:	01000000 	mrseq	r0, (UNDEF: 0)
    207c:	0012c59c 	mulseq	r2, ip, r5
    2080:	87ec3200 	strbhi	r3, [ip, r0, lsl #4]!
    2084:	12c50000 	sbcne	r0, r5, #0
    2088:	f8320000 			; <UNDEFINED> instruction: 0xf8320000
    208c:	16000087 	strne	r0, [r0], -r7, lsl #1
    2090:	00000011 	andeq	r0, r0, r1, lsl r0
    2094:	00059b35 	andeq	r9, r5, r5, lsr fp
    2098:	01440100 	mrseq	r0, (UNDEF: 84)
    209c:	00000025 	andeq	r0, r0, r5, lsr #32
    20a0:	00008740 	andeq	r8, r0, r0, asr #14
    20a4:	00000010 	andeq	r0, r0, r0, lsl r0
    20a8:	b3369c01 	teqlt	r6, #256	; 0x100
    20ac:	01000004 	tsteq	r0, r4
    20b0:	00250131 	eoreq	r0, r5, r1, lsr r1
    20b4:	867c0000 	ldrbthi	r0, [ip], -r0
    20b8:	00c40000 	sbceq	r0, r4, r0
    20bc:	9c010000 	stcls	0, cr0, [r1], {-0}
    20c0:	000013fe 	strdeq	r1, [r0], -lr
    20c4:	00012537 	andeq	r2, r1, r7, lsr r5
    20c8:	01310100 	teqeq	r1, r0, lsl #2
    20cc:	0000002c 	andeq	r0, r0, ip, lsr #32
    20d0:	00000151 	andeq	r0, r0, r1, asr r1
    20d4:	000c3037 	andeq	r3, ip, r7, lsr r0
    20d8:	01310100 	teqeq	r1, r0, lsl #2
    20dc:	000013fe 	strdeq	r1, [r0], -lr
    20e0:	00000172 	andeq	r0, r0, r2, ror r1
    20e4:	0006e437 	andeq	lr, r6, r7, lsr r4
    20e8:	01310100 	teqeq	r1, r0, lsl #2
    20ec:	0000002c 	andeq	r0, r0, ip, lsr #32
    20f0:	00000190 	muleq	r0, r0, r1
    20f4:	00024528 	andeq	r4, r2, r8, lsr #10
    20f8:	00129700 	andseq	r9, r2, r0, lsl #14
    20fc:	34030500 	strcc	r0, [r3], #-1280	; 0xfffffb00
    2100:	38000094 	stmdacc	r0, {r2, r4, r7}
    2104:	00008694 	muleq	r0, r4, r6
    2108:	00000088 	andeq	r0, r0, r8, lsl #1
    210c:	000013d4 	ldrdeq	r1, [r0], -r4
    2110:	01006939 	tsteq	r0, r9, lsr r9
    2114:	002c0135 	eoreq	r0, ip, r5, lsr r1
    2118:	01ae0000 			; <UNDEFINED> instruction: 0x01ae0000
    211c:	a0320000 	eorsge	r0, r2, r0
    2120:	36000086 	strcc	r0, [r0], -r6, lsl #1
    2124:	3300001b 	movwcc	r0, #27
    2128:	000086b4 			; <UNDEFINED> instruction: 0x000086b4
    212c:	00001b41 	andeq	r1, r0, r1, asr #22
    2130:	00001388 	andeq	r1, r0, r8, lsl #7
    2134:	05500134 	ldrbeq	r0, [r0, #-308]	; 0xfffffecc
    2138:	00954403 	addseq	r4, r5, r3, lsl #8
    213c:	51013400 	tstpl	r1, r0, lsl #8
    2140:	944c0305 	strbls	r0, [ip], #-773	; 0xfffffcfb
    2144:	01340000 	teqeq	r4, r0
    2148:	34030552 	strcc	r0, [r3], #-1362	; 0xfffffaae
    214c:	34000094 	strcc	r0, [r0], #-148	; 0xffffff6c
    2150:	0a035301 	beq	d6d5c <__bss_end__+0xcd1e4>
    2154:	32000137 	andcc	r0, r0, #-1073741811	; 0xc000000d
    2158:	000086b8 			; <UNDEFINED> instruction: 0x000086b8
    215c:	00001b4c 	andeq	r1, r0, ip, asr #22
    2160:	00870432 	addeq	r0, r7, r2, lsr r4
    2164:	001b3600 	andseq	r3, fp, r0, lsl #12
    2168:	87183300 	ldrhi	r3, [r8, -r0, lsl #6]
    216c:	1b410000 	blne	1042174 <__bss_end__+0x10385fc>
    2170:	13ca0000 	bicne	r0, sl, #0
    2174:	01340000 	teqeq	r4, r0
    2178:	68030550 	stmdavs	r3, {r4, r6, r8, sl}
    217c:	34000095 	strcc	r0, [r0], #-149	; 0xffffff6b
    2180:	03055101 	movweq	r5, #20737	; 0x5101
    2184:	0000944c 	andeq	r9, r0, ip, asr #8
    2188:	05520134 	ldrbeq	r0, [r2, #-308]	; 0xfffffecc
    218c:	00943403 	addseq	r3, r4, r3, lsl #8
    2190:	53013400 	movwpl	r3, #5120	; 0x1400
    2194:	01370a03 	teqeq	r7, r3, lsl #20
    2198:	871c3200 	ldrhi	r3, [ip, -r0, lsl #4]
    219c:	1b4c0000 	blne	13021a4 <__bss_end__+0x12f862c>
    21a0:	33000000 	movwcc	r0, #0
    21a4:	00008694 	muleq	r0, r4, r6
    21a8:	00001673 	andeq	r1, r0, r3, ror r6
    21ac:	000013f4 	strdeq	r1, [r0], -r4
    21b0:	03500134 	cmpeq	r0, #52, 2
    21b4:	345001f3 	ldrbcc	r0, [r0], #-499	; 0xfffffe0d
    21b8:	74025101 	strvc	r5, [r2], #-257	; 0xfffffeff
    21bc:	52013400 	andpl	r3, r1, #0, 8
    21c0:	32003101 	andcc	r3, r0, #1073741824	; 0x40000000
    21c4:	00008720 	andeq	r8, r0, r0, lsr #14
    21c8:	0000153c 	andeq	r1, r0, ip, lsr r5
    21cc:	54040e00 	strpl	r0, [r4], #-3584	; 0xfffff200
    21d0:	36000000 	strcc	r0, [r0], -r0
    21d4:	00000298 	muleq	r0, r8, r2
    21d8:	25012101 	strcs	r2, [r1, #-257]	; 0xfffffeff
    21dc:	b8000000 	stmdalt	r0, {}	; <UNPREDICTABLE>
    21e0:	c4000085 	strgt	r0, [r0], #-133	; 0xffffff7b
    21e4:	01000000 	mrseq	r0, (UNDEF: 0)
    21e8:	0015279c 	mulseq	r5, ip, r7
    21ec:	01253700 			; <UNDEFINED> instruction: 0x01253700
    21f0:	21010000 	mrscs	r0, (UNDEF: 1)
    21f4:	00002c01 	andeq	r2, r0, r1, lsl #24
    21f8:	0001e300 	andeq	lr, r1, r0, lsl #6
    21fc:	0c303700 	ldceq	7, cr3, [r0], #-0
    2200:	21010000 	mrscs	r0, (UNDEF: 1)
    2204:	0013fe01 	andseq	pc, r3, r1, lsl #28
    2208:	00020400 	andeq	r0, r2, r0, lsl #8
    220c:	06e43700 	strbteq	r3, [r4], r0, lsl #14
    2210:	21010000 	mrscs	r0, (UNDEF: 1)
    2214:	00002c01 	andeq	r2, r0, r1, lsl #24
    2218:	00022200 	andeq	r2, r2, r0, lsl #4
    221c:	02452800 	subeq	r2, r5, #0, 16
    2220:	15370000 	ldrne	r0, [r7, #-0]!
    2224:	03050000 	movweq	r0, #20480	; 0x5000
    2228:	00009428 	andeq	r9, r0, r8, lsr #8
    222c:	0085d038 	addeq	sp, r5, r8, lsr r0
    2230:	00008800 	andeq	r8, r0, r0, lsl #16
    2234:	0014fd00 	andseq	pc, r4, r0, lsl #26
    2238:	00693900 	rsbeq	r3, r9, r0, lsl #18
    223c:	2c012401 	cfstrscs	mvf2, [r1], {1}
    2240:	40000000 	andmi	r0, r0, r0
    2244:	32000002 	andcc	r0, r0, #2
    2248:	000085dc 	ldrdeq	r8, [r0], -ip
    224c:	00001b36 	andeq	r1, r0, r6, lsr fp
    2250:	0085f033 	addeq	pc, r5, r3, lsr r0	; <UNPREDICTABLE>
    2254:	001b4100 	andseq	r4, fp, r0, lsl #2
    2258:	0014b100 	andseq	fp, r4, r0, lsl #2
    225c:	50013400 	andpl	r3, r1, r0, lsl #8
    2260:	95440305 	strbls	r0, [r4, #-773]	; 0xfffffcfb
    2264:	01340000 	teqeq	r4, r0
    2268:	4c030551 	cfstr32mi	mvfx0, [r3], {81}	; 0x51
    226c:	34000094 	strcc	r0, [r0], #-148	; 0xffffff6c
    2270:	03055201 	movweq	r5, #20993	; 0x5201
    2274:	00009428 	andeq	r9, r0, r8, lsr #8
    2278:	03530134 	cmpeq	r3, #52, 2
    227c:	0001260a 	andeq	r2, r1, sl, lsl #12
    2280:	0085f432 	addeq	pc, r5, r2, lsr r4	; <UNPREDICTABLE>
    2284:	001b4c00 	andseq	r4, fp, r0, lsl #24
    2288:	86403200 	strbhi	r3, [r0], -r0, lsl #4
    228c:	1b360000 	blne	d82294 <__bss_end__+0xd7871c>
    2290:	54330000 	ldrtpl	r0, [r3], #-0
    2294:	41000086 	smlabbmi	r0, r6, r0, r0
    2298:	f300001b 	vqadd.u8	d0, d0, d11
    229c:	34000014 	strcc	r0, [r0], #-20	; 0xffffffec
    22a0:	03055001 	movweq	r5, #20481	; 0x5001
    22a4:	00009568 	andeq	r9, r0, r8, ror #10
    22a8:	05510134 	ldrbeq	r0, [r1, #-308]	; 0xfffffecc
    22ac:	00944c03 	addseq	r4, r4, r3, lsl #24
    22b0:	52013400 	andpl	r3, r1, #0, 8
    22b4:	94280305 	strtls	r0, [r8], #-773	; 0xfffffcfb
    22b8:	01340000 	teqeq	r4, r0
    22bc:	260a0353 			; <UNDEFINED> instruction: 0x260a0353
    22c0:	58320001 	ldmdapl	r2!, {r0}
    22c4:	4c000086 	stcmi	0, cr0, [r0], {134}	; 0x86
    22c8:	0000001b 	andeq	r0, r0, fp, lsl r0
    22cc:	0085d033 	addeq	sp, r5, r3, lsr r0
    22d0:	00167300 	andseq	r7, r6, r0, lsl #6
    22d4:	00151d00 	andseq	r1, r5, r0, lsl #26
    22d8:	50013400 	andpl	r3, r1, r0, lsl #8
    22dc:	5001f303 	andpl	pc, r1, r3, lsl #6
    22e0:	02510134 	subseq	r0, r1, #52, 2
    22e4:	01340074 	teqeq	r4, r4, ror r0
    22e8:	00300152 	eorseq	r0, r0, r2, asr r1
    22ec:	00865c32 	addeq	r5, r6, r2, lsr ip
    22f0:	00153c00 	andseq	r3, r5, r0, lsl #24
    22f4:	2f090000 	svccs	0x00090000
    22f8:	37000001 	strcc	r0, [r0, -r1]
    22fc:	0a000015 	beq	2358 <_start-0x5ca8>
    2300:	000000e2 	andeq	r0, r0, r2, ror #1
    2304:	27040009 	strcs	r0, [r4, -r9]
    2308:	27000015 	smladcs	r0, r5, r0, r0
    230c:	00000735 	andeq	r0, r0, r5, lsr r7
    2310:	b0011401 	andlt	r1, r1, r1, lsl #8
    2314:	f4000082 	vst4.32	{d0-d3}, [r0], r2
    2318:	01000000 	mrseq	r0, (UNDEF: 0)
    231c:	0016739c 	mulseq	r6, ip, r3
    2320:	02452800 	subeq	r2, r5, #0, 16
    2324:	12970000 	addsne	r0, r7, #0
    2328:	03050000 	movweq	r0, #20480	; 0x5000
    232c:	00009410 	andeq	r9, r0, r0, lsl r4
    2330:	0082e832 	addeq	lr, r2, r2, lsr r8
    2334:	001b3600 	andseq	r3, fp, r0, lsl #12
    2338:	82fc3300 	rscshi	r3, ip, #0, 6
    233c:	1b410000 	blne	1042344 <__bss_end__+0x10387cc>
    2340:	159a0000 	ldrne	r0, [sl]
    2344:	01340000 	teqeq	r4, r0
    2348:	68030550 	stmdavs	r3, {r4, r6, r8, sl}
    234c:	34000095 	strcc	r0, [r0], #-149	; 0xffffff6b
    2350:	03055101 	movweq	r5, #20737	; 0x5101
    2354:	0000944c 	andeq	r9, r0, ip, asr #8
    2358:	05520134 	ldrbeq	r0, [r2, #-308]	; 0xfffffecc
    235c:	00941003 	addseq	r1, r4, r3
    2360:	53013400 	movwpl	r3, #5120	; 0x1400
    2364:	01160a03 	tsteq	r6, r3, lsl #20
    2368:	83003200 	movwhi	r3, #512	; 0x200
    236c:	1b4c0000 	blne	1302374 <__bss_end__+0x12f87fc>
    2370:	04320000 	ldrteq	r0, [r2], #-0
    2374:	36000083 	strcc	r0, [r0], -r3, lsl #1
    2378:	3300001b 	movwcc	r0, #27
    237c:	00008318 	andeq	r8, r0, r8, lsl r3
    2380:	00001b41 	andeq	r1, r0, r1, asr #22
    2384:	000015dc 	ldrdeq	r1, [r0], -ip
    2388:	05500134 	ldrbeq	r0, [r0, #-308]	; 0xfffffecc
    238c:	00954403 	addseq	r4, r5, r3, lsl #8
    2390:	51013400 	tstpl	r1, r0, lsl #8
    2394:	944c0305 	strbls	r0, [ip], #-773	; 0xfffffcfb
    2398:	01340000 	teqeq	r4, r0
    239c:	10030552 	andne	r0, r3, r2, asr r5
    23a0:	34000094 	strcc	r0, [r0], #-148	; 0xffffff6c
    23a4:	0a035301 	beq	d6fb0 <__bss_end__+0xcd438>
    23a8:	32000116 	andcc	r0, r0, #-2147483643	; 0x80000005
    23ac:	0000831c 	andeq	r8, r0, ip, lsl r3
    23b0:	00001b4c 	andeq	r1, r0, ip, asr #22
    23b4:	00834032 	addeq	r4, r3, r2, lsr r0
    23b8:	001b1500 	andseq	r1, fp, r0, lsl #10
    23bc:	83483200 	movthi	r3, #33280	; 0x8200
    23c0:	1b360000 	blne	d823c8 <__bss_end__+0xd78850>
    23c4:	5c330000 	ldcpl	0, cr0, [r3], #-0
    23c8:	41000083 	smlabbmi	r0, r3, r0, r0
    23cc:	2700001b 	smladcs	r0, fp, r0, r0
    23d0:	34000016 	strcc	r0, [r0], #-22	; 0xffffffea
    23d4:	03055001 	movweq	r5, #20481	; 0x5001
    23d8:	00009598 	muleq	r0, r8, r5
    23dc:	05510134 	ldrbeq	r0, [r1, #-308]	; 0xfffffecc
    23e0:	00944c03 	addseq	r4, r4, r3, lsl #24
    23e4:	52013400 	andpl	r3, r1, #0, 8
    23e8:	94100305 	ldrls	r0, [r0], #-773	; 0xfffffcfb
    23ec:	01340000 	teqeq	r4, r0
    23f0:	190a0353 	stmdbne	sl, {r0, r1, r4, r6, r8, r9}
    23f4:	60320001 	eorsvs	r0, r2, r1
    23f8:	4c000083 	stcmi	0, cr0, [r0], {131}	; 0x83
    23fc:	3200001b 	andcc	r0, r0, #27
    2400:	00008364 	andeq	r8, r0, r4, ror #6
    2404:	00001b36 	andeq	r1, r0, r6, lsr fp
    2408:	00837833 	addeq	r7, r3, r3, lsr r8
    240c:	001b4100 	andseq	r4, fp, r0, lsl #2
    2410:	00166900 	andseq	r6, r6, r0, lsl #18
    2414:	50013400 	andpl	r3, r1, r0, lsl #8
    2418:	95bc0305 	ldrls	r0, [ip, #773]!	; 0x305
    241c:	01340000 	teqeq	r4, r0
    2420:	4c030551 	cfstr32mi	mvfx0, [r3], {81}	; 0x51
    2424:	34000094 	strcc	r0, [r0], #-148	; 0xffffff6c
    2428:	03055201 	movweq	r5, #20993	; 0x5201
    242c:	00009410 	andeq	r9, r0, r0, lsl r4
    2430:	03530134 	cmpeq	r3, #52, 2
    2434:	00011b0a 	andeq	r1, r1, sl, lsl #22
    2438:	00837c32 	addeq	r7, r3, r2, lsr ip
    243c:	001b4c00 	andseq	r4, fp, r0, lsl #24
    2440:	133a0000 	teqne	sl, #0
    2444:	01000007 	tsteq	r0, r7
    2448:	0083ecf2 	strdeq	lr, [r3], r2
    244c:	0001cc00 	andeq	ip, r1, r0, lsl #24
    2450:	449c0100 	ldrmi	r0, [ip], #256	; 0x100
    2454:	3b000019 	blcc	24c0 <_start-0x5b40>
    2458:	00000125 	andeq	r0, r0, r5, lsr #2
    245c:	002cf201 	eoreq	pc, ip, r1, lsl #4
    2460:	02750000 	rsbseq	r0, r5, #0
    2464:	e43b0000 	ldrt	r0, [fp], #-0
    2468:	01000006 	tsteq	r0, r6
    246c:	00002cf2 	strdeq	r2, [r0], -r2	; <UNPREDICTABLE>
    2470:	00029300 	andeq	r9, r2, r0, lsl #6
    2474:	066b3b00 	strbteq	r3, [fp], -r0, lsl #22
    2478:	f2010000 	vhadd.s8	d0, d1, d0
    247c:	00000025 	andeq	r0, r0, r5, lsr #32
    2480:	000002d8 	ldrdeq	r0, [r0], -r8
    2484:	00024528 	andeq	r4, r2, r8, lsr #10
    2488:	00195400 	andseq	r5, r9, r0, lsl #8
    248c:	1c030500 	cfstr32ne	mvfx0, [r3], {-0}
    2490:	39000094 	stmdbcc	r0, {r2, r4, r7}
    2494:	05010063 	streq	r0, [r1, #-99]	; 0xffffff9d
    2498:	0009c301 	andeq	ip, r9, r1, lsl #6
    249c:	0002f600 	andeq	pc, r2, r0, lsl #12
    24a0:	17052900 	strne	r2, [r5, -r0, lsl #18]
    24a4:	5f2a0000 	svcpl	0x002a0000
    24a8:	01040075 	tsteq	r4, r5, ror r0
    24ac:	16fa0109 	ldrbtne	r0, [sl], r9, lsl #2
    24b0:	762b0000 	strtvc	r0, [fp], -r0
    24b4:	09010076 	stmdbeq	r1, {r1, r2, r4, r5, r6}
    24b8:	0009c301 	andeq	ip, r9, r1, lsl #6
    24bc:	75752b00 	ldrbvc	r2, [r5, #-2816]!	; 0xfffff500
    24c0:	01090100 	mrseq	r0, (UNDEF: 25)
    24c4:	0000006d 	andeq	r0, r0, sp, rrx
    24c8:	00752c00 	rsbseq	r2, r5, r0, lsl #24
    24cc:	d7010901 	strle	r0, [r1, -r1, lsl #18]
    24d0:	00000016 	andeq	r0, r0, r6, lsl r0
    24d4:	00840032 	addeq	r0, r4, r2, lsr r0
    24d8:	001b1500 	andseq	r1, fp, r0, lsl #10
    24dc:	84343200 	ldrthi	r3, [r4], #-512	; 0xfffffe00
    24e0:	1b360000 	blne	d824e8 <__bss_end__+0xd78970>
    24e4:	48330000 	ldmdami	r3!, {}	; <UNPREDICTABLE>
    24e8:	41000084 	smlabbmi	r0, r4, r0, r0
    24ec:	4600001b 			; <UNDEFINED> instruction: 0x4600001b
    24f0:	34000017 	strcc	r0, [r0], #-23	; 0xffffffe9
    24f4:	03055001 	movweq	r5, #20481	; 0x5001
    24f8:	00009568 	andeq	r9, r0, r8, ror #10
    24fc:	05510134 	ldrbeq	r0, [r1, #-308]	; 0xfffffecc
    2500:	00944c03 	addseq	r4, r4, r3, lsl #24
    2504:	52013400 	andpl	r3, r1, #0, 8
    2508:	941c0305 	ldrls	r0, [ip], #-773	; 0xfffffcfb
    250c:	01340000 	teqeq	r4, r0
    2510:	f6080253 			; <UNDEFINED> instruction: 0xf6080253
    2514:	844c3200 	strbhi	r3, [ip], #-512	; 0xfffffe00
    2518:	1b4c0000 	blne	1302520 <__bss_end__+0x12f89a8>
    251c:	50320000 	eorspl	r0, r2, r0
    2520:	36000084 	strcc	r0, [r0], -r4, lsl #1
    2524:	3300001b 	movwcc	r0, #27
    2528:	00008464 	andeq	r8, r0, r4, ror #8
    252c:	00001b41 	andeq	r1, r0, r1, asr #22
    2530:	00001787 	andeq	r1, r0, r7, lsl #15
    2534:	05500134 	ldrbeq	r0, [r0, #-308]	; 0xfffffecc
    2538:	00954403 	addseq	r4, r5, r3, lsl #8
    253c:	51013400 	tstpl	r1, r0, lsl #8
    2540:	944c0305 	strbls	r0, [ip], #-773	; 0xfffffcfb
    2544:	01340000 	teqeq	r4, r0
    2548:	1c030552 	cfstr32ne	mvfx0, [r3], {82}	; 0x52
    254c:	34000094 	strcc	r0, [r0], #-148	; 0xffffff6c
    2550:	08025301 	stmdaeq	r2, {r0, r8, r9, ip, lr}
    2554:	683200f6 	ldmdavs	r2!, {r1, r2, r4, r5, r6, r7}
    2558:	4c000084 	stcmi	0, cr0, [r0], {132}	; 0x84
    255c:	3200001b 	andcc	r0, r0, #27
    2560:	0000847c 	andeq	r8, r0, ip, ror r4
    2564:	00001959 	andeq	r1, r0, r9, asr r9
    2568:	00849033 	addeq	r9, r4, r3, lsr r0
    256c:	001b2b00 	andseq	r2, fp, r0, lsl #22
    2570:	0017b600 	andseq	fp, r7, r0, lsl #12
    2574:	50013400 	andpl	r3, r1, r0, lsl #8
    2578:	400c0c05 	andmi	r0, ip, r5, lsl #24
    257c:	01342080 	teqeq	r4, r0, lsl #1
    2580:	00760251 	rsbseq	r0, r6, r1, asr r2
    2584:	84a43300 	strthi	r3, [r4], #768	; 0x300
    2588:	1b2b0000 	blne	ac2590 <__bss_end__+0xab8a18>
    258c:	17d30000 	ldrbne	r0, [r3, r0]
    2590:	01340000 	teqeq	r4, r0
    2594:	080c0550 	stmdaeq	ip, {r4, r6, r8, sl}
    2598:	34208040 	strtcc	r8, [r0], #-64	; 0xffffffc0
    259c:	75025101 	strvc	r5, [r2, #-257]	; 0xfffffeff
    25a0:	b0330000 	eorslt	r0, r3, r0
    25a4:	72000084 	andvc	r0, r0, #132	; 0x84
    25a8:	e700001a 	smlad	r0, sl, r0, r0
    25ac:	34000017 	strcc	r0, [r0], #-23	; 0xffffffe9
    25b0:	75025001 	strvc	r5, [r2, #-1]
    25b4:	c8330000 	ldmdagt	r3!, {}	; <UNPREDICTABLE>
    25b8:	2b000084 	blcs	27d0 <_start-0x5830>
    25bc:	fb00001b 	blx	2632 <_start-0x59ce>
    25c0:	34000017 	strcc	r0, [r0], #-23	; 0xffffffe9
    25c4:	75025001 	strvc	r5, [r2, #-1]
    25c8:	fc320000 	ldc2	0, cr0, [r2], #-0
    25cc:	36000084 	strcc	r0, [r0], -r4, lsl #1
    25d0:	3300001b 	movwcc	r0, #27
    25d4:	00008510 	andeq	r8, r0, r0, lsl r5
    25d8:	00001b41 	andeq	r1, r0, r1, asr #22
    25dc:	00001834 	andeq	r1, r0, r4, lsr r8
    25e0:	05500134 	ldrbeq	r0, [r0, #-308]	; 0xfffffecc
    25e4:	00956803 	addseq	r6, r5, r3, lsl #16
    25e8:	51013400 	tstpl	r1, r0, lsl #8
    25ec:	944c0305 	strbls	r0, [ip], #-773	; 0xfffffcfb
    25f0:	01340000 	teqeq	r4, r0
    25f4:	1c030552 	cfstr32ne	mvfx0, [r3], {82}	; 0x52
    25f8:	34000094 	strcc	r0, [r0], #-148	; 0xffffff6c
    25fc:	0a035301 	beq	d7208 <__bss_end__+0xcd690>
    2600:	32000111 	andcc	r0, r0, #1073741828	; 0x40000004
    2604:	00008514 	andeq	r8, r0, r4, lsl r5
    2608:	00001b4c 	andeq	r1, r0, ip, asr #22
    260c:	00851832 	addeq	r1, r5, r2, lsr r8
    2610:	001b3600 	andseq	r3, fp, r0, lsl #12
    2614:	852c3300 	strhi	r3, [ip, #-768]!	; 0xfffffd00
    2618:	1b410000 	blne	1042620 <__bss_end__+0x1038aa8>
    261c:	18750000 	ldmdane	r5!, {}^	; <UNPREDICTABLE>
    2620:	01340000 	teqeq	r4, r0
    2624:	e0030550 	and	r0, r3, r0, asr r5
    2628:	34000095 	strcc	r0, [r0], #-149	; 0xffffff6b
    262c:	03055101 	movweq	r5, #20737	; 0x5101
    2630:	0000944c 	andeq	r9, r0, ip, asr #8
    2634:	05520134 	ldrbeq	r0, [r2, #-308]	; 0xfffffecc
    2638:	00941c03 	addseq	r1, r4, r3, lsl #24
    263c:	53013400 	movwpl	r3, #5120	; 0x1400
    2640:	00f90802 	rscseq	r0, r9, r2, lsl #16
    2644:	00853032 	addeq	r3, r5, r2, lsr r0
    2648:	001b4c00 	andseq	r4, fp, r0, lsl #24
    264c:	85343200 	ldrhi	r3, [r4, #-512]!	; 0xfffffe00
    2650:	1b360000 	blne	d82658 <__bss_end__+0xd78ae0>
    2654:	48330000 	ldmdami	r3!, {}	; <UNPREDICTABLE>
    2658:	41000085 	smlabbmi	r0, r5, r0, r0
    265c:	b600001b 			; <UNDEFINED> instruction: 0xb600001b
    2660:	34000018 	strcc	r0, [r0], #-24	; 0xffffffe8
    2664:	03055001 	movweq	r5, #20481	; 0x5001
    2668:	00009608 	andeq	r9, r0, r8, lsl #12
    266c:	05510134 	ldrbeq	r0, [r1, #-308]	; 0xfffffecc
    2670:	00944c03 	addseq	r4, r4, r3, lsl #24
    2674:	52013400 	andpl	r3, r1, #0, 8
    2678:	941c0305 	ldrls	r0, [ip], #-773	; 0xfffffcfb
    267c:	01340000 	teqeq	r4, r0
    2680:	fe080253 	mcr2	2, 0, r0, cr8, cr3, {2}
    2684:	854c3200 	strbhi	r3, [ip, #-512]	; 0xfffffe00
    2688:	1b4c0000 	blne	1302690 <__bss_end__+0x12f8b18>
    268c:	50320000 	eorspl	r0, r2, r0
    2690:	36000085 	strcc	r0, [r0], -r5, lsl #1
    2694:	3300001b 	movwcc	r0, #27
    2698:	00008564 	andeq	r8, r0, r4, ror #10
    269c:	00001b41 	andeq	r1, r0, r1, asr #22
    26a0:	000018f8 	strdeq	r1, [r0], -r8
    26a4:	05500134 	ldrbeq	r0, [r0, #-308]	; 0xfffffecc
    26a8:	00962c03 	addseq	r2, r6, r3, lsl #24
    26ac:	51013400 	tstpl	r1, r0, lsl #8
    26b0:	944c0305 	strbls	r0, [ip], #-773	; 0xfffffcfb
    26b4:	01340000 	teqeq	r4, r0
    26b8:	1c030552 	cfstr32ne	mvfx0, [r3], {82}	; 0x52
    26bc:	34000094 	strcc	r0, [r0], #-148	; 0xffffff6c
    26c0:	0a035301 	beq	d72cc <__bss_end__+0xcd754>
    26c4:	32000102 	andcc	r0, r0, #-2147483648	; 0x80000000
    26c8:	00008568 	andeq	r8, r0, r8, ror #10
    26cc:	00001b4c 	andeq	r1, r0, ip, asr #22
    26d0:	00856c32 	addeq	r6, r5, r2, lsr ip
    26d4:	001b3600 	andseq	r3, fp, r0, lsl #12
    26d8:	85803300 	strhi	r3, [r0, #768]	; 0x300
    26dc:	1b410000 	blne	10426e4 <__bss_end__+0x1038b6c>
    26e0:	193a0000 	ldmdbne	sl!, {}	; <UNPREDICTABLE>
    26e4:	01340000 	teqeq	r4, r0
    26e8:	44030550 	strmi	r0, [r3], #-1360	; 0xfffffab0
    26ec:	34000095 	strcc	r0, [r0], #-149	; 0xffffff6b
    26f0:	03055101 	movweq	r5, #20737	; 0x5101
    26f4:	0000944c 	andeq	r9, r0, ip, asr #8
    26f8:	05520134 	ldrbeq	r0, [r2, #-308]	; 0xfffffecc
    26fc:	00941c03 	addseq	r1, r4, r3, lsl #24
    2700:	53013400 	movwpl	r3, #5120	; 0x1400
    2704:	01110a03 	tsteq	r1, r3, lsl #20
    2708:	85843200 	strhi	r3, [r4, #512]	; 0x200
    270c:	1b4c0000 	blne	1302714 <__bss_end__+0x12f8b9c>
    2710:	09000000 	stmdbeq	r0, {}	; <UNPREDICTABLE>
    2714:	0000012f 	andeq	r0, r0, pc, lsr #2
    2718:	00001954 	andeq	r1, r0, r4, asr r9
    271c:	0000e20a 	andeq	lr, r0, sl, lsl #4
    2720:	04000a00 	streq	r0, [r0], #-2560	; 0xfffff600
    2724:	00001944 	andeq	r1, r0, r4, asr #18
    2728:	0006923a 	andeq	r9, r6, sl, lsr r2
    272c:	b4e70100 	strbtlt	r0, [r7], #256	; 0x100
    2730:	28000083 	stmdacs	r0, {r0, r1, r7}
    2734:	01000000 	mrseq	r0, (UNDEF: 0)
    2738:	0019cf9c 	mulseq	r9, ip, pc	; <UNPREDICTABLE>
    273c:	00733c00 	rsbseq	r3, r3, r0, lsl #24
    2740:	0a80e801 	beq	fe03c74c <__bss_end__+0xfe032bd4>
    2744:	03090000 	movweq	r0, #36864	; 0x9000
    2748:	aa290000 	bge	a42750 <__bss_end__+0xa38bd8>
    274c:	3d000019 	stccc	0, cr0, [r0, #-100]	; 0xffffff9c
    2750:	0400755f 	streq	r7, [r0], #-1375	; 0xfffffaa1
    2754:	19a0ef01 	stmibne	r0!, {r0, r8, r9, sl, fp, sp, lr, pc}
    2758:	763e0000 	ldrtvc	r0, [lr], -r0
    275c:	ef010076 	svc	0x00010076
    2760:	00000a80 	andeq	r0, r0, r0, lsl #21
    2764:	0075753e 	rsbseq	r7, r5, lr, lsr r5
    2768:	006def01 	rsbeq	lr, sp, r1, lsl #30
    276c:	25000000 	strcs	r0, [r0, #-0]
    2770:	ef010075 	svc	0x00010075
    2774:	00001980 	andeq	r1, r0, r0, lsl #19
    2778:	83c43300 	bichi	r3, r4, #0, 6
    277c:	19cf0000 	stmibne	pc, {}^	; <UNPREDICTABLE>
    2780:	19be0000 	ldmibne	lr!, {}	; <UNPREDICTABLE>
    2784:	01340000 	teqeq	r4, r0
    2788:	00740250 	rsbseq	r0, r4, r0, asr r2
    278c:	83d43f00 	bicshi	r3, r4, #0, 30
    2790:	1b2b0000 	blne	ac2798 <__bss_end__+0xab8c20>
    2794:	01340000 	teqeq	r4, r0
    2798:	00740250 	rsbseq	r0, r4, r0, asr r2
    279c:	2c400000 	marcs	acc0, r0, r0
    27a0:	01000006 	tsteq	r0, r6
    27a4:	000a80b8 	strheq	r8, [sl], -r8	; <UNPREDICTABLE>
    27a8:	0083a400 	addeq	sl, r3, r0, lsl #8
    27ac:	00001000 	andeq	r1, r0, r0
    27b0:	459c0100 	ldrmi	r0, [ip, #256]	; 0x100
    27b4:	4100001a 	tstmi	r0, sl, lsl r0
    27b8:	b8010073 	stmdalt	r1, {r0, r1, r4, r5, r6}
    27bc:	00001a45 	andeq	r1, r0, r5, asr #20
    27c0:	0000031c 	andeq	r0, r0, ip, lsl r3
    27c4:	0083a838 	addeq	sl, r3, r8, lsr r8
    27c8:	00000400 	andeq	r0, r0, r0, lsl #8
    27cc:	001a3b00 	andseq	r3, sl, r0, lsl #22
    27d0:	755f3d00 	ldrbvc	r3, [pc, #-3328]	; 1ad8 <_start-0x6528>
    27d4:	b9010400 	stmdblt	r1, {sl}
    27d8:	00001a20 	andeq	r1, r0, r0, lsr #20
    27dc:	0100763e 	tsteq	r0, lr, lsr r6
    27e0:	000a8bb9 			; <UNDEFINED> instruction: 0x000a8bb9
    27e4:	00753e00 	rsbseq	r3, r5, r0, lsl #28
    27e8:	002cb901 	eoreq	fp, ip, r1, lsl #18
    27ec:	25000000 	strcs	r0, [r0, #-0]
    27f0:	b9010075 	stmdblt	r1, {r0, r2, r4, r5, r6}
    27f4:	00001a02 	andeq	r1, r0, r2, lsl #20
    27f8:	0083ac3f 	addeq	sl, r3, pc, lsr ip
    27fc:	001b5700 	andseq	r5, fp, r0, lsl #14
    2800:	50013400 	andpl	r3, r1, r0, lsl #8
    2804:	5001f303 	andpl	pc, r1, r3, lsl #6
    2808:	b0320000 	eorslt	r0, r2, r0
    280c:	4b000083 	blmi	2a20 <_start-0x55e0>
    2810:	0000001a 	andeq	r0, r0, sl, lsl r0
    2814:	0a8b040e 	beq	fe2c3854 <__bss_end__+0xfe2b9cdc>
    2818:	88400000 	stmdahi	r0, {}^	; <UNPREDICTABLE>
    281c:	01000007 	tsteq	r0, r7
    2820:	000a80b4 	strheq	r8, [sl], -r4
    2824:	00829c00 	addeq	r9, r2, r0, lsl #24
    2828:	00000c00 	andeq	r0, r0, r0, lsl #24
    282c:	729c0100 	addsvc	r0, ip, #0, 2
    2830:	4100001a 	tstmi	r0, sl, lsl r0
    2834:	b4010073 	strlt	r0, [r1], #-115	; 0xffffff8d
    2838:	00000a80 	andeq	r0, r0, r0, lsl #21
    283c:	0000033d 	andeq	r0, r0, sp, lsr r3
    2840:	06254000 	strteq	r4, [r5], -r0
    2844:	7e010000 	cdpvc	0, 0, cr0, cr1, cr0, {0}
    2848:	000009c3 	andeq	r0, r0, r3, asr #19
    284c:	000083dc 	ldrdeq	r8, [r0], -ip
    2850:	00000010 	andeq	r0, r0, r0, lsl r0
    2854:	1ae89c01 	bne	ffa29860 <__bss_end__+0xffa1fce8>
    2858:	63410000 	movtvs	r0, #4096	; 0x1000
    285c:	e87e0100 	ldmda	lr!, {r8}^
    2860:	5000001a 	andpl	r0, r0, sl, lsl r0
    2864:	38000003 	stmdacc	r0, {r0, r1}
    2868:	000083e0 	andeq	r8, r0, r0, ror #7
    286c:	00000004 	andeq	r0, r0, r4
    2870:	00001ade 	ldrdeq	r1, [r0], -lr
    2874:	00755f3d 	rsbseq	r5, r5, sp, lsr pc
    2878:	c37f0104 	cmngt	pc, #4, 2
    287c:	3e00001a 	mcrcc	0, 0, r0, cr0, cr10, {0}
    2880:	7f010076 	svcvc	0x00010076
    2884:	000009ce 	andeq	r0, r0, lr, asr #19
    2888:	0100753e 	tsteq	r0, lr, lsr r5
    288c:	00002c7f 	andeq	r2, r0, pc, ror ip
    2890:	75250000 	strvc	r0, [r5, #-0]!
    2894:	a57f0100 	ldrbge	r0, [pc, #-256]!	; 279c <_start-0x5864>
    2898:	3f00001a 	svccc	0x0000001a
    289c:	000083e4 	andeq	r8, r0, r4, ror #7
    28a0:	00001b57 	andeq	r1, r0, r7, asr fp
    28a4:	03500134 	cmpeq	r0, #52, 2
    28a8:	005001f3 	ldrsheq	r0, [r0], #-19	; 0xffffffed
    28ac:	83e83200 	mvnhi	r3, #0, 4
    28b0:	1aee0000 	bne	ffb828b8 <__bss_end__+0xffb78d40>
    28b4:	0e000000 	cdpeq	0, 0, cr0, cr0, cr0, {0}
    28b8:	0009ce04 	andeq	ip, r9, r4, lsl #28
    28bc:	07444000 	strbeq	r4, [r4, -r0]
    28c0:	77010000 	strvc	r0, [r1, -r0]
    28c4:	000009c3 	andeq	r0, r0, r3, asr #19
    28c8:	00008288 	andeq	r8, r0, r8, lsl #5
    28cc:	00000014 	andeq	r0, r0, r4, lsl r0
    28d0:	1b159c01 	blne	5698dc <__bss_end__+0x55fd64>
    28d4:	63410000 	movtvs	r0, #4096	; 0x1000
    28d8:	c3770100 	cmngt	r7, #0, 2
    28dc:	71000009 	tstvc	r0, r9
    28e0:	00000003 	andeq	r0, r0, r3
    28e4:	00060342 	andeq	r0, r6, r2, asr #6
    28e8:	00060300 	andeq	r0, r6, r0, lsl #6
    28ec:	42890700 	addmi	r0, r9, #0, 14
    28f0:	000005dd 	ldrdeq	r0, [r0], -sp
    28f4:	000005dd 	ldrdeq	r0, [r0], -sp
    28f8:	0d421908 	vstreq.16	s3, [r2, #-16]	; <UNPREDICTABLE>
    28fc:	0d000007 	stceq	0, cr0, [r0, #-28]	; 0xffffffe4
    2900:	07000007 	streq	r0, [r0, -r7]
    2904:	0220429c 	eoreq	r4, r0, #156, 4	; 0xc0000009
    2908:	02200000 	eoreq	r0, r0, #0
    290c:	1e070000 	cdpne	0, 0, cr0, cr7, cr0, {0}
    2910:	0007a842 	andeq	sl, r7, r2, asr #16
    2914:	0007a800 	andeq	sl, r7, r0, lsl #16
    2918:	42290700 	eormi	r0, r9, #0, 14
    291c:	000002e2 	andeq	r0, r0, r2, ror #5
    2920:	000002e2 	andeq	r0, r0, r2, ror #5
    2924:	2f426507 	svccs	0x00426507
    2928:	2f000007 	svccs	0x00000007
    292c:	07000007 	streq	r0, [r0, -r7]
    2930:	098e00a8 	stmibeq	lr, {r3, r5, r7}
    2934:	00040000 	andeq	r0, r4, r0
    2938:	0000064d 	andeq	r0, r0, sp, asr #12
    293c:	07be0104 	ldreq	r0, [lr, r4, lsl #2]!
    2940:	410c0000 	mrsmi	r0, (UNDEF: 12)
    2944:	25000008 	strcs	r0, [r0, #-8]
    2948:	fc000008 	stc2	0, cr0, [r0], {8}
    294c:	58000087 	stmdapl	r0, {r0, r1, r2, r7}
    2950:	99000000 	stmdbls	r0, {}	; <UNPREDICTABLE>
    2954:	02000003 	andeq	r0, r0, #3
    2958:	000007af 	andeq	r0, r0, pc, lsr #15
    295c:	00302802 	eorseq	r2, r0, r2, lsl #16
    2960:	9b030000 	blls	c2968 <__bss_end__+0xb8df0>
    2964:	04000007 	streq	r0, [r0], #-7
    2968:	00470007 	subeq	r0, r7, r7
    296c:	20040000 	andcs	r0, r4, r0
    2970:	47000008 	strmi	r0, [r0, -r8]
    2974:	00000000 	andeq	r0, r0, r0
    2978:	02040500 	andeq	r0, r4, #0, 10
    297c:	0000079d 	muleq	r0, sp, r7
    2980:	00256302 	eoreq	r6, r5, r2, lsl #6
    2984:	04060000 	streq	r0, [r6], #-0
    2988:	746e6905 	strbtvc	r6, [lr], #-2309	; 0xfffff6fb
    298c:	07040700 	streq	r0, [r4, -r0, lsl #14]
    2990:	000000d7 	ldrdeq	r0, [r0], -r7
    2994:	54060107 	strpl	r0, [r6], #-263	; 0xfffffef9
    2998:	07000003 	streq	r0, [r0, -r3]
    299c:	03690502 	cmneq	r9, #8388608	; 0x800000
    29a0:	04070000 	streq	r0, [r7], #-0
    29a4:	00011805 	andeq	r1, r1, r5, lsl #16
    29a8:	05080700 	streq	r0, [r8, #-1792]	; 0xfffff900
    29ac:	00000113 	andeq	r0, r0, r3, lsl r1
    29b0:	52080107 	andpl	r0, r8, #-1073741823	; 0xc0000001
    29b4:	07000003 	streq	r0, [r0, -r3]
    29b8:	02630702 	rsbeq	r0, r3, #524288	; 0x80000
    29bc:	04070000 	streq	r0, [r7], #-0
    29c0:	0000d207 	andeq	sp, r0, r7, lsl #4
    29c4:	07080700 	streq	r0, [r8, -r0, lsl #14]
    29c8:	000000cd 	andeq	r0, r0, sp, asr #1
    29cc:	00034002 	andeq	r4, r3, r2
    29d0:	54070300 	strpl	r0, [r7], #-768	; 0xfffffd00
    29d4:	02000000 	andeq	r0, r0, #0
    29d8:	0000032f 	andeq	r0, r0, pc, lsr #6
    29dc:	00702c04 	rsbseq	r2, r0, r4, lsl #24
    29e0:	1d020000 	stcne	0, cr0, [r2, #-0]
    29e4:	04000004 	streq	r0, [r0], #-4
    29e8:	00007072 	andeq	r7, r0, r2, ror r0
    29ec:	02b00800 	adcseq	r0, r0, #0, 16
    29f0:	65050000 	strvs	r0, [r5, #-0]
    29f4:	00005b01 	andeq	r5, r0, r1, lsl #22
    29f8:	04040900 	streq	r0, [r4], #-2304	; 0xfffff700
    29fc:	0000e6a6 	andeq	lr, r0, r6, lsr #13
    2a00:	02aa0a00 	adceq	r0, sl, #0, 20
    2a04:	a8040000 	stmdage	r4, {}	; <UNPREDICTABLE>
    2a08:	000000bb 	strheq	r0, [r0], -fp
    2a0c:	0002190a 	andeq	r1, r2, sl, lsl #18
    2a10:	e6a90400 	strt	r0, [r9], r0, lsl #8
    2a14:	00000000 	andeq	r0, r0, r0
    2a18:	00007e0b 	andeq	r7, r0, fp, lsl #28
    2a1c:	0000f600 	andeq	pc, r0, r0, lsl #12
    2a20:	00f60c00 	rscseq	r0, r6, r0, lsl #24
    2a24:	00030000 	andeq	r0, r3, r0
    2a28:	f8070407 			; <UNDEFINED> instruction: 0xf8070407
    2a2c:	0d000002 	stceq	0, cr0, [r0, #-8]
    2a30:	1ea30408 	cdpne	4, 10, cr0, cr3, cr8, {0}
    2a34:	0e000001 	cdpeq	0, 0, cr0, cr0, cr1, {0}
    2a38:	00000407 	andeq	r0, r0, r7, lsl #8
    2a3c:	0054a504 	subseq	sl, r4, r4, lsl #10
    2a40:	0e000000 	cdpeq	0, 0, cr0, cr0, cr0, {0}
    2a44:	0000040f 	andeq	r0, r0, pc, lsl #8
    2a48:	00c7aa04 	sbceq	sl, r7, r4, lsl #20
    2a4c:	00040000 	andeq	r0, r4, r0
    2a50:	00039102 	andeq	r9, r3, r2, lsl #2
    2a54:	fdab0400 	stc2	4, cr0, [fp]
    2a58:	02000000 	andeq	r0, r0, #0
    2a5c:	000001cd 	andeq	r0, r0, sp, asr #3
    2a60:	009aaf04 	addseq	sl, sl, r4, lsl #30
    2a64:	040f0000 	streq	r0, [pc], #-0	; 2a6c <_start-0x5594>
    2a68:	0000013a 	andeq	r0, r0, sl, lsr r1
    2a6c:	5b080107 	blpl	202e90 <__bss_end__+0x1f9318>
    2a70:	10000003 	andne	r0, r0, r3
    2a74:	0000013a 	andeq	r0, r0, sl, lsr r1
    2a78:	00046c02 	andeq	r6, r4, r2, lsl #24
    2a7c:	8c160600 	ldchi	6, cr0, [r6], {-0}
    2a80:	03000000 	movweq	r0, #0
    2a84:	000001de 	ldrdeq	r0, [r0], -lr
    2a88:	a42d0618 	strtge	r0, [sp], #-1560	; 0xfffff9e8
    2a8c:	0e000001 	cdpeq	0, 0, cr0, cr0, cr1, {0}
    2a90:	000003b2 			; <UNDEFINED> instruction: 0x000003b2
    2a94:	01a42f06 			; <UNDEFINED> instruction: 0x01a42f06
    2a98:	11000000 	mrsne	r0, (UNDEF: 0)
    2a9c:	06006b5f 			; <UNDEFINED> instruction: 0x06006b5f
    2aa0:	00005430 	andeq	r5, r0, r0, lsr r4
    2aa4:	e90e0400 	stmdb	lr, {sl}
    2aa8:	06000003 	streq	r0, [r0], -r3
    2aac:	00005430 	andeq	r5, r0, r0, lsr r4
    2ab0:	c70e0800 	strgt	r0, [lr, -r0, lsl #16]
    2ab4:	06000001 	streq	r0, [r0], -r1
    2ab8:	00005430 	andeq	r5, r0, r0, lsr r4
    2abc:	bc0e0c00 	stclt	12, cr0, [lr], {-0}
    2ac0:	06000004 	streq	r0, [r0], -r4
    2ac4:	00005430 	andeq	r5, r0, r0, lsr r4
    2ac8:	5f111000 	svcpl	0x00111000
    2acc:	31060078 	tstcc	r6, r8, ror r0
    2ad0:	000001aa 	andeq	r0, r0, sl, lsr #3
    2ad4:	040f0014 	streq	r0, [pc], #-20	; 2adc <_start-0x5524>
    2ad8:	00000151 	andeq	r0, r0, r1, asr r1
    2adc:	0001460b 	andeq	r4, r1, fp, lsl #12
    2ae0:	0001ba00 	andeq	fp, r1, r0, lsl #20
    2ae4:	00f60c00 	rscseq	r0, r6, r0, lsl #24
    2ae8:	00000000 	andeq	r0, r0, r0
    2aec:	00020b03 	andeq	r0, r2, r3, lsl #22
    2af0:	35062400 	strcc	r2, [r6, #-1024]	; 0xfffffc00
    2af4:	00000233 	andeq	r0, r0, r3, lsr r2
    2af8:	00010a0e 	andeq	r0, r1, lr, lsl #20
    2afc:	54370600 	ldrtpl	r0, [r7], #-1536	; 0xfffffa00
    2b00:	00000000 	andeq	r0, r0, r0
    2b04:	0004250e 	andeq	r2, r4, lr, lsl #10
    2b08:	54380600 	ldrtpl	r0, [r8], #-1536	; 0xfffffa00
    2b0c:	04000000 	streq	r0, [r0], #-0
    2b10:	0001360e 	andeq	r3, r1, lr, lsl #12
    2b14:	54390600 	ldrtpl	r0, [r9], #-1536	; 0xfffffa00
    2b18:	08000000 	stmdaeq	r0, {}	; <UNPREDICTABLE>
    2b1c:	0005640e 	andeq	r6, r5, lr, lsl #8
    2b20:	543a0600 	ldrtpl	r0, [sl], #-1536	; 0xfffffa00
    2b24:	0c000000 	stceq	0, cr0, [r0], {-0}
    2b28:	0003130e 	andeq	r1, r3, lr, lsl #6
    2b2c:	543b0600 	ldrtpl	r0, [fp], #-1536	; 0xfffffa00
    2b30:	10000000 	andne	r0, r0, r0
    2b34:	0002d80e 	andeq	sp, r2, lr, lsl #16
    2b38:	543c0600 	ldrtpl	r0, [ip], #-1536	; 0xfffffa00
    2b3c:	14000000 	strne	r0, [r0], #-0
    2b40:	0004c10e 	andeq	ip, r4, lr, lsl #2
    2b44:	543d0600 	ldrtpl	r0, [sp], #-1536	; 0xfffffa00
    2b48:	18000000 	stmdane	r0, {}	; <UNPREDICTABLE>
    2b4c:	0003730e 	andeq	r7, r3, lr, lsl #6
    2b50:	543e0600 	ldrtpl	r0, [lr], #-1536	; 0xfffffa00
    2b54:	1c000000 	stcne	0, cr0, [r0], {-0}
    2b58:	00052b0e 	andeq	r2, r5, lr, lsl #22
    2b5c:	543f0600 	ldrtpl	r0, [pc], #-1536	; 2b64 <_start-0x549c>
    2b60:	20000000 	andcs	r0, r0, r0
    2b64:	01451200 	mrseq	r1, (UNDEF: 101)
    2b68:	01080000 	mrseq	r0, (UNDEF: 8)
    2b6c:	02734806 	rsbseq	r4, r3, #393216	; 0x60000
    2b70:	ba0e0000 	blt	382b78 <__bss_end__+0x379000>
    2b74:	06000001 	streq	r0, [r0], -r1
    2b78:	00027349 	andeq	r7, r2, r9, asr #6
    2b7c:	000e0000 	andeq	r0, lr, r0
    2b80:	06000000 	streq	r0, [r0], -r0
    2b84:	0002734a 	andeq	r7, r2, sl, asr #6
    2b88:	5e138000 	cdppl	0, 1, cr8, cr3, cr0, {0}
    2b8c:	06000004 	streq	r0, [r0], -r4
    2b90:	0001464c 	andeq	r4, r1, ip, asr #12
    2b94:	13010000 	movwne	r0, #4096	; 0x1000
    2b98:	0000016a 	andeq	r0, r0, sl, ror #2
    2b9c:	01464f06 	cmpeq	r6, r6, lsl #30
    2ba0:	01040000 	mrseq	r0, (UNDEF: 4)
    2ba4:	00470b00 	subeq	r0, r7, r0, lsl #22
    2ba8:	02830000 	addeq	r0, r3, #0
    2bac:	f60c0000 			; <UNDEFINED> instruction: 0xf60c0000
    2bb0:	1f000000 	svcne	0x00000000
    2bb4:	031c1200 	tsteq	ip, #0, 4
    2bb8:	01900000 	orrseq	r0, r0, r0
    2bbc:	02c15b06 	sbceq	r5, r1, #6144	; 0x1800
    2bc0:	b20e0000 	andlt	r0, lr, #0
    2bc4:	06000003 	streq	r0, [r0], -r3
    2bc8:	0002c15c 	andeq	ip, r2, ip, asr r1
    2bcc:	ca0e0000 	bgt	382bd4 <__bss_end__+0x37905c>
    2bd0:	06000003 	streq	r0, [r0], -r3
    2bd4:	0000545d 	andeq	r5, r0, sp, asr r4
    2bd8:	c20e0400 	andgt	r0, lr, #0, 8
    2bdc:	06000001 	streq	r0, [r0], -r1
    2be0:	0002c75f 	andeq	ip, r2, pc, asr r7
    2be4:	450e0800 	strmi	r0, [lr, #-2048]	; 0xfffff800
    2be8:	06000001 	streq	r0, [r0], -r1
    2bec:	00023360 	andeq	r3, r2, r0, ror #6
    2bf0:	0f008800 	svceq	0x00008800
    2bf4:	00028304 	andeq	r8, r2, r4, lsl #6
    2bf8:	02d70b00 	sbcseq	r0, r7, #0, 22
    2bfc:	02d70000 	sbcseq	r0, r7, #0
    2c00:	f60c0000 			; <UNDEFINED> instruction: 0xf60c0000
    2c04:	1f000000 	svcne	0x00000000
    2c08:	dd040f00 	stcle	15, cr0, [r4, #-0]
    2c0c:	14000002 	strne	r0, [r0], #-2
    2c10:	00037d03 	andeq	r7, r3, r3, lsl #26
    2c14:	73060800 	movwvc	r0, #26624	; 0x6800
    2c18:	00000303 	andeq	r0, r0, r3, lsl #6
    2c1c:	0001300e 	andeq	r3, r1, lr
    2c20:	03740600 	cmneq	r4, #0, 12
    2c24:	00000003 	andeq	r0, r0, r3
    2c28:	0000820e 	andeq	r8, r0, lr, lsl #4
    2c2c:	54750600 	ldrbtpl	r0, [r5], #-1536	; 0xfffffa00
    2c30:	04000000 	streq	r0, [r0], #-0
    2c34:	7e040f00 	cdpvc	15, 0, cr0, cr4, cr0, {0}
    2c38:	03000000 	movweq	r0, #0
    2c3c:	0000039c 	muleq	r0, ip, r3
    2c40:	33b30668 			; <UNDEFINED> instruction: 0x33b30668
    2c44:	11000004 	tstne	r0, r4
    2c48:	0600705f 			; <UNDEFINED> instruction: 0x0600705f
    2c4c:	000303b4 			; <UNDEFINED> instruction: 0x000303b4
    2c50:	5f110000 	svcpl	0x00110000
    2c54:	b5060072 	strlt	r0, [r6, #-114]	; 0xffffff8e
    2c58:	00000054 	andeq	r0, r0, r4, asr r0
    2c5c:	775f1104 	ldrbvc	r1, [pc, -r4, lsl #2]
    2c60:	54b60600 	ldrtpl	r0, [r6], #1536	; 0x600
    2c64:	08000000 	stmdaeq	r0, {}	; <UNPREDICTABLE>
    2c68:	0001630e 	andeq	r6, r1, lr, lsl #6
    2c6c:	69b70600 	ldmibvs	r7!, {r9, sl}
    2c70:	0c000000 	stceq	0, cr0, [r0], {-0}
    2c74:	00023f0e 	andeq	r3, r2, lr, lsl #30
    2c78:	69b80600 	ldmibvs	r8!, {r9, sl}
    2c7c:	0e000000 	cdpeq	0, 0, cr0, cr0, cr0, {0}
    2c80:	66625f11 	uqadd16vs	r5, r2, r1
    2c84:	deb90600 	cdple	6, 11, cr0, cr9, cr0, {0}
    2c88:	10000002 	andne	r0, r0, r2
    2c8c:	0000e40e 	andeq	lr, r0, lr, lsl #8
    2c90:	54ba0600 	ldrtpl	r0, [sl], #1536	; 0x600
    2c94:	18000000 	stmdane	r0, {}	; <UNPREDICTABLE>
    2c98:	0001530e 	andeq	r5, r1, lr, lsl #6
    2c9c:	47c10600 	strbmi	r0, [r1, r0, lsl #12]
    2ca0:	1c000000 	stcne	0, cr0, [r0], {-0}
    2ca4:	0004b60e 	andeq	fp, r4, lr, lsl #12
    2ca8:	8ec30600 	cdphi	6, 12, cr0, cr3, cr0, {0}
    2cac:	20000005 	andcs	r0, r0, r5
    2cb0:	00029b0e 	andeq	r9, r2, lr, lsl #22
    2cb4:	b8c50600 	stmialt	r5, {r9, sl}^
    2cb8:	24000005 	strcs	r0, [r0], #-5
    2cbc:	0004170e 	andeq	r1, r4, lr, lsl #14
    2cc0:	dcc80600 	stclle	6, cr0, [r8], {0}
    2cc4:	28000005 	stmdacs	r0, {r0, r2}
    2cc8:	0005450e 	andeq	r4, r5, lr, lsl #10
    2ccc:	f6c90600 			; <UNDEFINED> instruction: 0xf6c90600
    2cd0:	2c000005 	stccs	0, cr0, [r0], {5}
    2cd4:	62755f11 	rsbsvs	r5, r5, #17, 30	; 0x44
    2cd8:	decc0600 	cdple	6, 12, cr0, cr12, cr0, {0}
    2cdc:	30000002 	andcc	r0, r0, r2
    2ce0:	70755f11 	rsbsvc	r5, r5, r1, lsl pc
    2ce4:	03cd0600 	biceq	r0, sp, #0, 12
    2ce8:	38000003 	stmdacc	r0, {r0, r1}
    2cec:	72755f11 	rsbsvc	r5, r5, #17, 30	; 0x44
    2cf0:	54ce0600 	strbpl	r0, [lr], #1536	; 0x600
    2cf4:	3c000000 	stccc	0, cr0, [r0], {-0}
    2cf8:	00012a0e 	andeq	r2, r1, lr, lsl #20
    2cfc:	fcd10600 	ldc2l	6, cr0, [r1], {0}
    2d00:	40000005 	andmi	r0, r0, r5
    2d04:	00051d0e 	andeq	r1, r5, lr, lsl #26
    2d08:	0cd20600 	ldcleq	6, cr0, [r2], {0}
    2d0c:	43000006 	movwmi	r0, #6
    2d10:	626c5f11 	rsbvs	r5, ip, #17, 30	; 0x44
    2d14:	ded50600 	cdple	6, 13, cr0, cr5, cr0, {0}
    2d18:	44000002 	strmi	r0, [r0], #-2
    2d1c:	0001790e 	andeq	r7, r1, lr, lsl #18
    2d20:	54d80600 	ldrbpl	r0, [r8], #1536	; 0x600
    2d24:	4c000000 	stcmi	0, cr0, [r0], {-0}
    2d28:	0001930e 	andeq	r9, r1, lr, lsl #6
    2d2c:	a5d90600 	ldrbge	r0, [r9, #1536]	; 0x600
    2d30:	50000000 	andpl	r0, r0, r0
    2d34:	000c2f0e 	andeq	r2, ip, lr, lsl #30
    2d38:	51dc0600 	bicspl	r0, ip, r0, lsl #12
    2d3c:	54000004 	strpl	r0, [r0], #-4
    2d40:	000c030e 	andeq	r0, ip, lr, lsl #6
    2d44:	29e00600 	stmibcs	r0!, {r9, sl}^
    2d48:	58000001 	stmdapl	r0, {r0}
    2d4c:	0003a40e 	andeq	sl, r3, lr, lsl #8
    2d50:	1ee20600 	cdpne	6, 14, cr0, cr2, cr0, {0}
    2d54:	5c000001 	stcpl	0, cr0, [r0], {1}
    2d58:	0002c10e 	andeq	ip, r2, lr, lsl #2
    2d5c:	54e30600 	strbtpl	r0, [r3], #1536	; 0x600
    2d60:	64000000 	strvs	r0, [r0], #-0
    2d64:	00541500 	subseq	r1, r4, r0, lsl #10
    2d68:	04510000 	ldrbeq	r0, [r1], #-0
    2d6c:	51160000 	tstpl	r6, r0
    2d70:	16000004 	strne	r0, [r0], -r4
    2d74:	00000047 	andeq	r0, r0, r7, asr #32
    2d78:	00013416 	andeq	r3, r1, r6, lsl r4
    2d7c:	00541600 	subseq	r1, r4, r0, lsl #12
    2d80:	0f000000 	svceq	0x00000000
    2d84:	00045c04 	andeq	r5, r4, r4, lsl #24
    2d88:	04511000 	ldrbeq	r1, [r1], #-0
    2d8c:	f1170000 			; <UNDEFINED> instruction: 0xf1170000
    2d90:	28000003 	stmdacs	r0, {r0, r1}
    2d94:	02380604 	eorseq	r0, r8, #4, 12	; 0x400000
    2d98:	0000058e 	andeq	r0, r0, lr, lsl #11
    2d9c:	00036218 	andeq	r6, r3, r8, lsl r2
    2da0:	023a0600 	eorseq	r0, sl, #0, 12
    2da4:	00000054 	andeq	r0, r0, r4, asr r0
    2da8:	01721800 	cmneq	r2, r0, lsl #16
    2dac:	3f060000 	svccc	0x00060000
    2db0:	00066302 	andeq	r6, r6, r2, lsl #6
    2db4:	2f180400 	svccs	0x00180400
    2db8:	06000002 	streq	r0, [r0], -r2
    2dbc:	0663023f 			; <UNDEFINED> instruction: 0x0663023f
    2dc0:	18080000 	stmdane	r8, {}	; <UNPREDICTABLE>
    2dc4:	000001d6 	ldrdeq	r0, [r0], -r6
    2dc8:	63023f06 	movwvs	r3, #12038	; 0x2f06
    2dcc:	0c000006 	stceq	0, cr0, [r0], {6}
    2dd0:	0003c518 	andeq	ip, r3, r8, lsl r5
    2dd4:	02410600 	subeq	r0, r1, #0, 12
    2dd8:	00000054 	andeq	r0, r0, r4, asr r0
    2ddc:	00901810 	addseq	r1, r0, r0, lsl r8
    2de0:	42060000 	andmi	r0, r6, #0
    2de4:	00084502 	andeq	r4, r8, r2, lsl #10
    2de8:	94181400 	ldrls	r1, [r8], #-1024	; 0xfffffc00
    2dec:	06000004 	streq	r0, [r0], -r4
    2df0:	00540244 	subseq	r0, r4, r4, asr #4
    2df4:	18300000 	ldmdane	r0!, {}	; <UNPREDICTABLE>
    2df8:	000003cf 	andeq	r0, r0, pc, asr #7
    2dfc:	b2024506 	andlt	r4, r2, #25165824	; 0x1800000
    2e00:	34000005 	strcc	r0, [r0], #-5
    2e04:	00032418 	andeq	r2, r3, r8, lsl r4
    2e08:	02470600 	subeq	r0, r7, #0, 12
    2e0c:	00000054 	andeq	r0, r0, r4, asr r0
    2e10:	03df1838 	bicseq	r1, pc, #56, 16	; 0x380000
    2e14:	49060000 	stmdbmi	r6, {}	; <UNPREDICTABLE>
    2e18:	00086002 	andeq	r6, r8, r2
    2e1c:	a2183c00 	andsge	r3, r8, #0, 24
    2e20:	06000002 	streq	r0, [r0], -r2
    2e24:	01a4024c 			; <UNDEFINED> instruction: 0x01a4024c
    2e28:	18400000 	stmdane	r0, {}^	; <UNPREDICTABLE>
    2e2c:	000001f5 	strdeq	r0, [r0], -r5
    2e30:	54024d06 	strpl	r4, [r2], #-3334	; 0xfffff2fa
    2e34:	44000000 	strmi	r0, [r0], #-0
    2e38:	00055f18 	andeq	r5, r5, r8, lsl pc
    2e3c:	024e0600 	subeq	r0, lr, #0, 12
    2e40:	000001a4 	andeq	r0, r0, r4, lsr #3
    2e44:	03361848 	teqeq	r6, #72, 16	; 0x480000
    2e48:	4f060000 	svcmi	0x00060000
    2e4c:	00086602 	andeq	r6, r8, r2, lsl #12
    2e50:	37184c00 	ldrcc	r4, [r8, -r0, lsl #24]
    2e54:	06000002 	streq	r0, [r0], -r2
    2e58:	00540252 	subseq	r0, r4, r2, asr r2
    2e5c:	18500000 	ldmdane	r0, {}^	; <UNPREDICTABLE>
    2e60:	0000018b 	andeq	r0, r0, fp, lsl #3
    2e64:	34025306 	strcc	r5, [r2], #-774	; 0xfffffcfa
    2e68:	54000001 	strpl	r0, [r0], #-1
    2e6c:	000cc518 	andeq	ip, ip, r8, lsl r5
    2e70:	02760600 	rsbseq	r0, r6, #0, 12
    2e74:	00000823 	andeq	r0, r0, r3, lsr #16
    2e78:	031c1958 	tsteq	ip, #88, 18	; 0x160000
    2e7c:	7a060000 	bvc	182e84 <__bss_end__+0x17930c>
    2e80:	0002c102 	andeq	ip, r2, r2, lsl #2
    2e84:	19014800 	stmdbne	r1, {fp, lr}
    2e88:	00000276 	andeq	r0, r0, r6, ror r2
    2e8c:	83027b06 	movwhi	r7, #11014	; 0x2b06
    2e90:	4c000002 	stcmi	0, cr0, [r0], {2}
    2e94:	05081901 	streq	r1, [r8, #-2305]	; 0xfffff6ff
    2e98:	7f060000 	svcvc	0x00060000
    2e9c:	00087702 	andeq	r7, r8, r2, lsl #14
    2ea0:	1902dc00 	stmdbne	r2, {sl, fp, ip, lr, pc}
    2ea4:	0000015b 	andeq	r0, r0, fp, asr r1
    2ea8:	28028406 	stmdacs	r2, {r1, r2, sl, pc}
    2eac:	e0000006 	and	r0, r0, r6
    2eb0:	01401902 	cmpeq	r0, r2, lsl #18
    2eb4:	85060000 	strhi	r0, [r6, #-0]
    2eb8:	00088302 	andeq	r8, r8, r2, lsl #6
    2ebc:	0002ec00 	andeq	lr, r2, r0, lsl #24
    2ec0:	0433040f 	ldrteq	r0, [r3], #-1039	; 0xfffffbf1
    2ec4:	54150000 	ldrpl	r0, [r5], #-0
    2ec8:	b2000000 	andlt	r0, r0, #0
    2ecc:	16000005 	strne	r0, [r0], -r5
    2ed0:	00000451 	andeq	r0, r0, r1, asr r4
    2ed4:	00004716 	andeq	r4, r0, r6, lsl r7
    2ed8:	05b21600 	ldreq	r1, [r2, #1536]!	; 0x600
    2edc:	54160000 	ldrpl	r0, [r6], #-0
    2ee0:	00000000 	andeq	r0, r0, r0
    2ee4:	0141040f 	cmpeq	r1, pc, lsl #8
    2ee8:	040f0000 	streq	r0, [pc], #-0	; 2ef0 <_start-0x5110>
    2eec:	00000594 	muleq	r0, r4, r5
    2ef0:	0000b015 	andeq	fp, r0, r5, lsl r0
    2ef4:	0005dc00 	andeq	sp, r5, r0, lsl #24
    2ef8:	04511600 	ldrbeq	r1, [r1], #-1536	; 0xfffffa00
    2efc:	47160000 	ldrmi	r0, [r6, -r0]
    2f00:	16000000 	strne	r0, [r0], -r0
    2f04:	000000b0 	strheq	r0, [r0], -r0	; <UNPREDICTABLE>
    2f08:	00005416 	andeq	r5, r0, r6, lsl r4
    2f0c:	040f0000 	streq	r0, [pc], #-0	; 2f14 <_start-0x50ec>
    2f10:	000005be 			; <UNDEFINED> instruction: 0x000005be
    2f14:	00005415 	andeq	r5, r0, r5, lsl r4
    2f18:	0005f600 	andeq	pc, r5, r0, lsl #12
    2f1c:	04511600 	ldrbeq	r1, [r1], #-1536	; 0xfffffa00
    2f20:	47160000 	ldrmi	r0, [r6, -r0]
    2f24:	00000000 	andeq	r0, r0, r0
    2f28:	05e2040f 	strbeq	r0, [r2, #1039]!	; 0x40f
    2f2c:	7e0b0000 	cdpvc	0, 0, cr0, cr11, cr0, {0}
    2f30:	0c000000 	stceq	0, cr0, [r0], {-0}
    2f34:	0c000006 	stceq	0, cr0, [r0], {6}
    2f38:	000000f6 	strdeq	r0, [r0], -r6
    2f3c:	7e0b0002 	cdpvc	0, 0, cr0, cr11, cr2, {0}
    2f40:	1c000000 	stcne	0, cr0, [r0], {-0}
    2f44:	0c000006 	stceq	0, cr0, [r0], {6}
    2f48:	000000f6 	strdeq	r0, [r0], -r6
    2f4c:	8a080000 	bhi	202f54 <__bss_end__+0x1f93dc>
    2f50:	06000003 	streq	r0, [r0], -r3
    2f54:	0309011d 	movweq	r0, #37149	; 0x911d
    2f58:	cb1a0000 	blgt	682f60 <__bss_end__+0x6793e8>
    2f5c:	0c000004 	stceq	0, cr0, [r0], {4}
    2f60:	5d012106 	stfpls	f2, [r1, #-24]	; 0xffffffe8
    2f64:	18000006 	stmdane	r0, {r1, r2}
    2f68:	000003b2 			; <UNDEFINED> instruction: 0x000003b2
    2f6c:	5d012306 	stcpl	3, cr2, [r1, #-24]	; 0xffffffe8
    2f70:	00000006 	andeq	r0, r0, r6
    2f74:	00025218 	andeq	r5, r2, r8, lsl r2
    2f78:	01240600 			; <UNDEFINED> instruction: 0x01240600
    2f7c:	00000054 	andeq	r0, r0, r4, asr r0
    2f80:	03841804 	orreq	r1, r4, #4, 16	; 0x40000
    2f84:	25060000 	strcs	r0, [r6, #-0]
    2f88:	00066301 	andeq	r6, r6, r1, lsl #6
    2f8c:	0f000800 	svceq	0x00000800
    2f90:	00062804 	andeq	r2, r6, r4, lsl #16
    2f94:	1c040f00 	stcne	15, cr0, [r4], {-0}
    2f98:	1a000006 	bne	2fb8 <_start-0x5048>
    2f9c:	00000088 	andeq	r0, r0, r8, lsl #1
    2fa0:	013d060e 	teqeq	sp, lr, lsl #12
    2fa4:	0000069e 	muleq	r0, lr, r6
    2fa8:	0003f818 	andeq	pc, r3, r8, lsl r8	; <UNPREDICTABLE>
    2fac:	013e0600 	teqeq	lr, r0, lsl #12
    2fb0:	0000069e 	muleq	r0, lr, r6
    2fb4:	043f1800 	ldrteq	r1, [pc], #-2048	; 2fbc <_start-0x5044>
    2fb8:	3f060000 	svccc	0x00060000
    2fbc:	00069e01 	andeq	r9, r6, r1, lsl #28
    2fc0:	67180600 	ldrvs	r0, [r8, -r0, lsl #12]
    2fc4:	06000004 	streq	r0, [r0], -r4
    2fc8:	00850140 	addeq	r0, r5, r0, asr #2
    2fcc:	000c0000 	andeq	r0, ip, r0
    2fd0:	0000850b 	andeq	r8, r0, fp, lsl #10
    2fd4:	0006ae00 	andeq	sl, r6, r0, lsl #28
    2fd8:	00f60c00 	rscseq	r0, r6, r0, lsl #24
    2fdc:	00020000 	andeq	r0, r2, r0
    2fe0:	5706d01b 	smladpl	r6, fp, r0, sp
    2fe4:	0007af02 	andeq	sl, r7, r2, lsl #30
    2fe8:	04a61800 	strteq	r1, [r6], #2048	; 0x800
    2fec:	59060000 	stmdbpl	r6, {}	; <UNPREDICTABLE>
    2ff0:	00005b02 	andeq	r5, r0, r2, lsl #22
    2ff4:	51180000 	tstpl	r8, r0
    2ff8:	06000004 	streq	r0, [r0], -r4
    2ffc:	0134025a 	teqeq	r4, sl, asr r2
    3000:	18040000 	stmdane	r4, {}	; <UNPREDICTABLE>
    3004:	0000028b 	andeq	r0, r0, fp, lsl #5
    3008:	af025b06 	svcge	0x00025b06
    300c:	08000007 	stmdaeq	r0, {r0, r1, r2}
    3010:	00053618 	andeq	r3, r5, r8, lsl r6
    3014:	025c0600 	subseq	r0, ip, #0, 12
    3018:	000001ba 			; <UNDEFINED> instruction: 0x000001ba
    301c:	01e61824 	mvneq	r1, r4, lsr #16
    3020:	5d060000 	stcpl	0, cr0, [r6, #-0]
    3024:	00005402 	andeq	r5, r0, r2, lsl #8
    3028:	ad184800 	ldcge	8, cr4, [r8, #-0]
    302c:	06000003 	streq	r0, [r0], -r3
    3030:	0093025e 	addseq	r0, r3, lr, asr r2
    3034:	18500000 	ldmdane	r0, {}^	; <UNPREDICTABLE>
    3038:	0000054c 	andeq	r0, r0, ip, asr #10
    303c:	69025f06 	stmdbvs	r2, {r1, r2, r8, r9, sl, fp, ip, lr}
    3040:	58000006 	stmdapl	r0, {r1, r2}
    3044:	0003b818 	andeq	fp, r3, r8, lsl r8
    3048:	02600600 	rsbeq	r0, r0, #0, 12
    304c:	0000011e 	andeq	r0, r0, lr, lsl r1
    3050:	05511868 	ldrbeq	r1, [r1, #-2152]	; 0xfffff798
    3054:	61060000 	mrsvs	r0, (UNDEF: 6)
    3058:	00011e02 	andeq	r1, r1, r2, lsl #28
    305c:	fc187000 	ldc2	0, cr7, [r8], {-0}
    3060:	06000000 	streq	r0, [r0], -r0
    3064:	011e0262 	tsteq	lr, r2, ror #4
    3068:	18780000 	ldmdane	r8!, {}^	; <UNPREDICTABLE>
    306c:	000004fe 	strdeq	r0, [r0], -lr
    3070:	bf026306 	svclt	0x00026306
    3074:	80000007 	andhi	r0, r0, r7
    3078:	00027f18 	andeq	r7, r2, r8, lsl pc
    307c:	02640600 	rsbeq	r0, r4, #0, 12
    3080:	000007cf 	andeq	r0, r0, pc, asr #15
    3084:	04741888 	ldrbteq	r1, [r4], #-2184	; 0xfffff778
    3088:	65060000 	strvs	r0, [r6, #-0]
    308c:	00005402 	andeq	r5, r0, r2, lsl #8
    3090:	ac18a000 	ldcge	0, cr10, [r8], {-0}
    3094:	06000001 	streq	r0, [r0], -r1
    3098:	011e0266 	tsteq	lr, r6, ror #4
    309c:	18a40000 	stmiane	r4!, {}	; <UNPREDICTABLE>
    30a0:	000000ed 	andeq	r0, r0, sp, ror #1
    30a4:	1e026706 	cdpne	7, 0, cr6, cr2, cr6, {0}
    30a8:	ac000001 	stcge	0, cr0, [r0], {1}
    30ac:	00019b18 	andeq	r9, r1, r8, lsl fp
    30b0:	02680600 	rsbeq	r0, r8, #0, 12
    30b4:	0000011e 	andeq	r0, r0, lr, lsl r1
    30b8:	00ad18b4 	strhteq	r1, [sp], r4
    30bc:	69060000 	stmdbvs	r6, {}	; <UNPREDICTABLE>
    30c0:	00011e02 	andeq	r1, r1, r2, lsl #28
    30c4:	bc18bc00 	ldclt	12, cr11, [r8], {-0}
    30c8:	06000000 	streq	r0, [r0], -r0
    30cc:	011e026a 	tsteq	lr, sl, ror #4
    30d0:	18c40000 	stmiane	r4, {}^	; <UNPREDICTABLE>
    30d4:	00000360 	andeq	r0, r0, r0, ror #6
    30d8:	54026b06 	strpl	r6, [r2], #-2822	; 0xfffff4fa
    30dc:	cc000000 	stcgt	0, cr0, [r0], {-0}
    30e0:	013a0b00 	teqeq	sl, r0, lsl #22
    30e4:	07bf0000 	ldreq	r0, [pc, r0]!
    30e8:	f60c0000 			; <UNDEFINED> instruction: 0xf60c0000
    30ec:	19000000 	stmdbne	r0, {}	; <UNPREDICTABLE>
    30f0:	013a0b00 	teqeq	sl, r0, lsl #22
    30f4:	07cf0000 	strbeq	r0, [pc, r0]
    30f8:	f60c0000 			; <UNDEFINED> instruction: 0xf60c0000
    30fc:	07000000 	streq	r0, [r0, -r0]
    3100:	013a0b00 	teqeq	sl, r0, lsl #22
    3104:	07df0000 	ldrbeq	r0, [pc, r0]
    3108:	f60c0000 			; <UNDEFINED> instruction: 0xf60c0000
    310c:	17000000 	strne	r0, [r0, -r0]
    3110:	06f01b00 	ldrbteq	r1, [r0], r0, lsl #22
    3114:	08030270 	stmdaeq	r3, {r4, r5, r6, r9}
    3118:	0c180000 	ldceq	0, cr0, [r8], {-0}
    311c:	06000003 	streq	r0, [r0], -r3
    3120:	08030273 	stmdaeq	r3, {r0, r1, r4, r5, r6, r9}
    3124:	18000000 	stmdane	r0, {}	; <UNPREDICTABLE>
    3128:	000002ef 	andeq	r0, r0, pc, ror #5
    312c:	13027406 	movwne	r7, #9222	; 0x2406
    3130:	78000008 	stmdavc	r0, {r3}
    3134:	03030b00 	movweq	r0, #15104	; 0x3b00
    3138:	08130000 	ldmdaeq	r3, {}	; <UNPREDICTABLE>
    313c:	f60c0000 			; <UNDEFINED> instruction: 0xf60c0000
    3140:	1d000000 	stcne	0, cr0, [r0, #-0]
    3144:	005b0b00 	subseq	r0, fp, r0, lsl #22
    3148:	08230000 	stmdaeq	r3!, {}	; <UNPREDICTABLE>
    314c:	f60c0000 			; <UNDEFINED> instruction: 0xf60c0000
    3150:	1d000000 	stcne	0, cr0, [r0, #-0]
    3154:	06f01c00 	ldrbteq	r1, [r0], r0, lsl #24
    3158:	08450255 	stmdaeq	r5, {r0, r2, r4, r6, r9}^
    315c:	f11d0000 			; <UNDEFINED> instruction: 0xf11d0000
    3160:	06000003 	streq	r0, [r0], -r3
    3164:	06ae026c 	strteq	r0, [lr], ip, ror #4
    3168:	231d0000 	tstcs	sp, #0
    316c:	06000005 	streq	r0, [r0], -r5
    3170:	07df0275 			; <UNDEFINED> instruction: 0x07df0275
    3174:	0b000000 	bleq	317c <_start-0x4e84>
    3178:	0000013a 	andeq	r0, r0, sl, lsr r1
    317c:	00000855 	andeq	r0, r0, r5, asr r8
    3180:	0000f60c 	andeq	pc, r0, ip, lsl #12
    3184:	1e001800 	cdpne	8, 0, cr1, cr0, cr0, {0}
    3188:	00000860 	andeq	r0, r0, r0, ror #16
    318c:	00045116 	andeq	r5, r4, r6, lsl r1
    3190:	040f0000 	streq	r0, [pc], #-0	; 3198 <_start-0x4e68>
    3194:	00000855 	andeq	r0, r0, r5, asr r8
    3198:	01a4040f 			; <UNDEFINED> instruction: 0x01a4040f
    319c:	771e0000 	ldrvc	r0, [lr, -r0]
    31a0:	16000008 	strne	r0, [r0], -r8
    31a4:	00000054 	andeq	r0, r0, r4, asr r0
    31a8:	7d040f00 	stcvc	15, cr0, [r4, #-0]
    31ac:	0f000008 	svceq	0x00000008
    31b0:	00086c04 	andeq	r6, r8, r4, lsl #24
    31b4:	061c0b00 	ldreq	r0, [ip], -r0, lsl #22
    31b8:	08930000 	ldmeq	r3, {}	; <UNPREDICTABLE>
    31bc:	f60c0000 			; <UNDEFINED> instruction: 0xf60c0000
    31c0:	02000000 	andeq	r0, r0, #0
    31c4:	04881f00 	streq	r1, [r8], #3840	; 0xf00
    31c8:	fd060000 	stc2	0, cr0, [r6, #-0]
    31cc:	00045102 	andeq	r5, r4, r2, lsl #2
    31d0:	04811f00 	streq	r1, [r1], #3840	; 0xf00
    31d4:	fe060000 	cdp2	0, 0, cr0, cr6, cr0, {0}
    31d8:	00045702 	andeq	r5, r4, r2, lsl #14
    31dc:	00541500 	subseq	r1, r4, r0, lsl #10
    31e0:	08ba0000 	ldmeq	sl!, {}	; <UNPREDICTABLE>
    31e4:	54160000 	ldrpl	r0, [r6], #-0
    31e8:	00000000 	andeq	r0, r0, r0
    31ec:	0001ff20 	andeq	pc, r1, r0, lsr #30
    31f0:	c51d0800 	ldrgt	r0, [sp, #-2048]	; 0xfffff800
    31f4:	0f000008 	svceq	0x00000008
    31f8:	0008ab04 	andeq	sl, r8, r4, lsl #22
    31fc:	00541500 	subseq	r1, r4, r0, lsl #10
    3200:	08da0000 	ldmeq	sl, {}^	; <UNPREDICTABLE>
    3204:	b2160000 	andslt	r0, r6, #0
    3208:	00000005 	andeq	r0, r0, r5
    320c:	0008b220 	andeq	fp, r8, r0, lsr #4
    3210:	e5220800 	str	r0, [r2, #-2048]!	; 0xfffff800
    3214:	0f000008 	svceq	0x00000008
    3218:	0008cb04 	andeq	ip, r8, r4, lsl #22
    321c:	07a82100 	streq	r2, [r8, r0, lsl #2]!
    3220:	06010000 	streq	r0, [r1], -r0
    3224:	00000054 	andeq	r0, r0, r4, asr r0
    3228:	000087fc 	strdeq	r8, [r0], -ip
    322c:	00000058 	andeq	r0, r0, r8, asr r0
    3230:	09759c01 	ldmdbeq	r5!, {r0, sl, fp, ip, pc}^
    3234:	66220000 	strtvs	r0, [r2], -r0
    3238:	0100746d 	tsteq	r0, sp, ror #8
    323c:	0005b206 	andeq	fp, r5, r6, lsl #4
    3240:	70910200 	addsvc	r0, r1, r0, lsl #4
    3244:	75622423 	strbvc	r2, [r2, #-1059]!	; 0xfffffbdd
    3248:	08010066 	stmdaeq	r1, {r1, r2, r5, r6}
    324c:	00000975 	andeq	r0, r0, r5, ror r9
    3250:	97740305 	ldrbls	r0, [r4, -r5, lsl #6]!
    3254:	4e250000 	cdpmi	0, 2, cr0, cr5, cr0, {0}
    3258:	01000001 	tsteq	r0, r1
    325c:	00004909 	andeq	r4, r0, r9, lsl #18
    3260:	5c910200 	lfmpl	f0, 4, [r1], {0}
    3264:	007a7326 	rsbseq	r7, sl, r6, lsr #6
    3268:	00540c01 	subseq	r0, r4, r1, lsl #24
    326c:	038f0000 	orreq	r0, pc, #0
    3270:	24270000 	strtcs	r0, [r7], #-0
    3274:	86000088 	strhi	r0, [r0], -r8, lsl #1
    3278:	68000009 	stmdavs	r0, {r0, r3}
    327c:	28000009 	stmdacs	r0, {r0, r3}
    3280:	74025001 	strvc	r5, [r2], #-1
    3284:	51012800 	tstpl	r1, r0, lsl #16
    3288:	04000a03 	streq	r0, [r0], #-2563	; 0xfffff5fd
    328c:	03520128 	cmpeq	r2, #40, 2
    3290:	28064891 	stmdacs	r6, {r0, r4, r7, fp, lr}
    3294:	91025301 	tstls	r2, r1, lsl #6
    3298:	3829004c 	stmdacc	r9!, {r2, r3, r6}
    329c:	28000088 	stmdacs	r0, {r3, r7}
    32a0:	74025001 	strvc	r5, [r2], #-1
    32a4:	0b000000 	bleq	32ac <_start-0x4d54>
    32a8:	0000013a 	andeq	r0, r0, sl, lsr r1
    32ac:	00000986 	andeq	r0, r0, r6, lsl #19
    32b0:	0000f62a 	andeq	pc, r0, sl, lsr #12
    32b4:	0003ff00 	andeq	pc, r3, r0, lsl #30
    32b8:	0007a52b 	andeq	sl, r7, fp, lsr #10
    32bc:	0007a500 	andeq	sl, r7, r0, lsl #10
    32c0:	00020900 	andeq	r0, r2, r0, lsl #18
    32c4:	00000e70 	andeq	r0, r0, r0, ror lr
    32c8:	08790004 	ldmdaeq	r9!, {r2}^
    32cc:	01040000 	mrseq	r0, (UNDEF: 4)
    32d0:	000007be 			; <UNDEFINED> instruction: 0x000007be
    32d4:	00084f0c 	andeq	r4, r8, ip, lsl #30
    32d8:	00082500 	andeq	r2, r8, r0, lsl #10
    32dc:	00885400 	addeq	r5, r8, r0, lsl #8
    32e0:	00053000 	andeq	r3, r5, r0
    32e4:	00049400 	andeq	r9, r4, r0, lsl #8
    32e8:	05040200 	streq	r0, [r4, #-512]	; 0xfffffe00
    32ec:	00746e69 	rsbseq	r6, r4, r9, ror #28
    32f0:	d7070403 	strle	r0, [r7, -r3, lsl #8]
    32f4:	03000000 	movweq	r0, #0
    32f8:	03540601 	cmpeq	r4, #1048576	; 0x100000
    32fc:	02030000 	andeq	r0, r3, #0
    3300:	00036905 	andeq	r6, r3, r5, lsl #18
    3304:	05040300 	streq	r0, [r4, #-768]	; 0xfffffd00
    3308:	00000118 	andeq	r0, r0, r8, lsl r1
    330c:	13050803 	movwne	r0, #22531	; 0x5803
    3310:	03000001 	movweq	r0, #1
    3314:	03520801 	cmpeq	r2, #65536	; 0x10000
    3318:	02030000 	andeq	r0, r3, #0
    331c:	00026307 	andeq	r6, r2, r7, lsl #6
    3320:	07040300 	streq	r0, [r4, -r0, lsl #6]
    3324:	000000d2 	ldrdeq	r0, [r0], -r2
    3328:	cd070803 	stcgt	8, cr0, [r7, #-12]
    332c:	04000000 	streq	r0, [r0], #-0
    3330:	00000340 	andeq	r0, r0, r0, asr #6
    3334:	00250702 	eoreq	r0, r5, r2, lsl #14
    3338:	2f040000 	svccs	0x00040000
    333c:	03000003 	movweq	r0, #3
    3340:	0000412c 	andeq	r4, r0, ip, lsr #2
    3344:	041d0400 	ldreq	r0, [sp], #-1024	; 0xfffffc00
    3348:	72030000 	andvc	r0, r3, #0
    334c:	00000041 	andeq	r0, r0, r1, asr #32
    3350:	0002b005 	andeq	fp, r2, r5
    3354:	01650400 	cmneq	r5, r0, lsl #8
    3358:	0000002c 	andeq	r0, r0, ip, lsr #32
    335c:	a6030406 	strge	r0, [r3], -r6, lsl #8
    3360:	000000b7 	strheq	r0, [r0], -r7
    3364:	0002aa07 	andeq	sl, r2, r7, lsl #20
    3368:	8ca80300 	stchi	3, cr0, [r8]
    336c:	07000000 	streq	r0, [r0, -r0]
    3370:	00000219 	andeq	r0, r0, r9, lsl r2
    3374:	00b7a903 	adcseq	sl, r7, r3, lsl #18
    3378:	08000000 	stmdaeq	r0, {}	; <UNPREDICTABLE>
    337c:	0000004f 	andeq	r0, r0, pc, asr #32
    3380:	000000c7 	andeq	r0, r0, r7, asr #1
    3384:	0000c709 	andeq	ip, r0, r9, lsl #14
    3388:	03000300 	movweq	r0, #768	; 0x300
    338c:	02f80704 	rscseq	r0, r8, #4, 14	; 0x100000
    3390:	080a0000 	stmdaeq	sl, {}	; <UNPREDICTABLE>
    3394:	00efa303 	rsceq	sl, pc, r3, lsl #6
    3398:	070b0000 	streq	r0, [fp, -r0]
    339c:	03000004 	movweq	r0, #4
    33a0:	000025a5 	andeq	r2, r0, r5, lsr #11
    33a4:	0f0b0000 	svceq	0x000b0000
    33a8:	03000004 	movweq	r0, #4
    33ac:	000098aa 	andeq	r9, r0, sl, lsr #17
    33b0:	04000400 	streq	r0, [r0], #-1024	; 0xfffffc00
    33b4:	00000391 	muleq	r0, r1, r3
    33b8:	00ceab03 	sbceq	sl, lr, r3, lsl #22
    33bc:	cd040000 	stcgt	0, cr0, [r4, #-0]
    33c0:	03000001 	movweq	r0, #1
    33c4:	00006baf 	andeq	r6, r0, pc, lsr #23
    33c8:	0d040c00 	stceq	12, cr0, [r4, #-0]
    33cc:	00010d04 	andeq	r0, r1, r4, lsl #26
    33d0:	08010300 	stmdaeq	r1, {r8, r9}
    33d4:	0000035b 	andeq	r0, r0, fp, asr r3
    33d8:	00010d0e 	andeq	r0, r1, lr, lsl #26
    33dc:	046c0400 	strbteq	r0, [ip], #-1024	; 0xfffffc00
    33e0:	16050000 	strne	r0, [r5], -r0
    33e4:	0000005d 	andeq	r0, r0, sp, asr r0
    33e8:	0001de0f 	andeq	sp, r1, pc, lsl #28
    33ec:	2d051800 	stccs	8, cr1, [r5, #-0]
    33f0:	00000177 	andeq	r0, r0, r7, ror r1
    33f4:	0003b20b 	andeq	fp, r3, fp, lsl #4
    33f8:	772f0500 	strvc	r0, [pc, -r0, lsl #10]!
    33fc:	00000001 	andeq	r0, r0, r1
    3400:	006b5f10 	rsbeq	r5, fp, r0, lsl pc
    3404:	00253005 	eoreq	r3, r5, r5
    3408:	0b040000 	bleq	103410 <__bss_end__+0xf9898>
    340c:	000003e9 	andeq	r0, r0, r9, ror #7
    3410:	00253005 	eoreq	r3, r5, r5
    3414:	0b080000 	bleq	20341c <__bss_end__+0x1f98a4>
    3418:	000001c7 	andeq	r0, r0, r7, asr #3
    341c:	00253005 	eoreq	r3, r5, r5
    3420:	0b0c0000 	bleq	303428 <__bss_end__+0x2f98b0>
    3424:	000004bc 			; <UNDEFINED> instruction: 0x000004bc
    3428:	00253005 	eoreq	r3, r5, r5
    342c:	10100000 	andsne	r0, r0, r0
    3430:	0500785f 	streq	r7, [r0, #-2143]	; 0xfffff7a1
    3434:	00017d31 	andeq	r7, r1, r1, lsr sp
    3438:	0d001400 	cfstrseq	mvf1, [r0, #-0]
    343c:	00012404 	andeq	r2, r1, r4, lsl #8
    3440:	01190800 	tsteq	r9, r0, lsl #16
    3444:	018d0000 	orreq	r0, sp, r0
    3448:	c7090000 	strgt	r0, [r9, -r0]
    344c:	00000000 	andeq	r0, r0, r0
    3450:	020b0f00 	andeq	r0, fp, #0, 30
    3454:	05240000 	streq	r0, [r4, #-0]!
    3458:	00020635 	andeq	r0, r2, r5, lsr r6
    345c:	010a0b00 	tsteq	sl, r0, lsl #22
    3460:	37050000 	strcc	r0, [r5, -r0]
    3464:	00000025 	andeq	r0, r0, r5, lsr #32
    3468:	04250b00 	strteq	r0, [r5], #-2816	; 0xfffff500
    346c:	38050000 	stmdacc	r5, {}	; <UNPREDICTABLE>
    3470:	00000025 	andeq	r0, r0, r5, lsr #32
    3474:	01360b04 	teqeq	r6, r4, lsl #22
    3478:	39050000 	stmdbcc	r5, {}	; <UNPREDICTABLE>
    347c:	00000025 	andeq	r0, r0, r5, lsr #32
    3480:	05640b08 	strbeq	r0, [r4, #-2824]!	; 0xfffff4f8
    3484:	3a050000 	bcc	14348c <__bss_end__+0x139914>
    3488:	00000025 	andeq	r0, r0, r5, lsr #32
    348c:	03130b0c 	tsteq	r3, #12, 22	; 0x3000
    3490:	3b050000 	blcc	143498 <__bss_end__+0x139920>
    3494:	00000025 	andeq	r0, r0, r5, lsr #32
    3498:	02d80b10 	sbcseq	r0, r8, #16, 22	; 0x4000
    349c:	3c050000 	stccc	0, cr0, [r5], {-0}
    34a0:	00000025 	andeq	r0, r0, r5, lsr #32
    34a4:	04c10b14 	strbeq	r0, [r1], #2836	; 0xb14
    34a8:	3d050000 	stccc	0, cr0, [r5, #-0]
    34ac:	00000025 	andeq	r0, r0, r5, lsr #32
    34b0:	03730b18 	cmneq	r3, #24, 22	; 0x6000
    34b4:	3e050000 	cdpcc	0, 0, cr0, cr5, cr0, {0}
    34b8:	00000025 	andeq	r0, r0, r5, lsr #32
    34bc:	052b0b1c 	streq	r0, [fp, #-2844]!	; 0xfffff4e4
    34c0:	3f050000 	svccc	0x00050000
    34c4:	00000025 	andeq	r0, r0, r5, lsr #32
    34c8:	45110020 	ldrmi	r0, [r1, #-32]	; 0xffffffe0
    34cc:	08000001 	stmdaeq	r0, {r0}
    34d0:	46480501 	strbmi	r0, [r8], -r1, lsl #10
    34d4:	0b000002 	bleq	34e4 <_start-0x4b1c>
    34d8:	000001ba 			; <UNDEFINED> instruction: 0x000001ba
    34dc:	02464905 	subeq	r4, r6, #81920	; 0x14000
    34e0:	0b000000 	bleq	34e8 <_start-0x4b18>
    34e4:	00000000 	andeq	r0, r0, r0
    34e8:	02464a05 	subeq	r4, r6, #20480	; 0x5000
    34ec:	12800000 	addne	r0, r0, #0
    34f0:	0000045e 	andeq	r0, r0, lr, asr r4
    34f4:	01194c05 	tsteq	r9, r5, lsl #24
    34f8:	01000000 	mrseq	r0, (UNDEF: 0)
    34fc:	00016a12 	andeq	r6, r1, r2, lsl sl
    3500:	194f0500 	stmdbne	pc, {r8, sl}^	; <UNPREDICTABLE>
    3504:	04000001 	streq	r0, [r0], #-1
    3508:	05080001 	streq	r0, [r8, #-1]
    350c:	56000001 	strpl	r0, [r0], -r1
    3510:	09000002 	stmdbeq	r0, {r1}
    3514:	000000c7 	andeq	r0, r0, r7, asr #1
    3518:	1c11001f 	ldcne	0, cr0, [r1], {31}
    351c:	90000003 	andls	r0, r0, r3
    3520:	945b0501 	ldrbls	r0, [fp], #-1281	; 0xfffffaff
    3524:	0b000002 	bleq	3534 <_start-0x4acc>
    3528:	000003b2 			; <UNDEFINED> instruction: 0x000003b2
    352c:	02945c05 	addseq	r5, r4, #1280	; 0x500
    3530:	0b000000 	bleq	3538 <_start-0x4ac8>
    3534:	000003ca 	andeq	r0, r0, sl, asr #7
    3538:	00255d05 	eoreq	r5, r5, r5, lsl #26
    353c:	0b040000 	bleq	103544 <__bss_end__+0xf99cc>
    3540:	000001c2 	andeq	r0, r0, r2, asr #3
    3544:	029a5f05 	addseq	r5, sl, #5, 30
    3548:	0b080000 	bleq	203550 <__bss_end__+0x1f99d8>
    354c:	00000145 	andeq	r0, r0, r5, asr #2
    3550:	02066005 	andeq	r6, r6, #5
    3554:	00880000 	addeq	r0, r8, r0
    3558:	0256040d 	subseq	r0, r6, #218103808	; 0xd000000
    355c:	aa080000 	bge	203564 <__bss_end__+0x1f99ec>
    3560:	aa000002 	bge	3570 <_start-0x4a90>
    3564:	09000002 	stmdbeq	r0, {r1}
    3568:	000000c7 	andeq	r0, r0, r7, asr #1
    356c:	040d001f 	streq	r0, [sp], #-31	; 0xffffffe1
    3570:	000002b0 			; <UNDEFINED> instruction: 0x000002b0
    3574:	037d0f13 	cmneq	sp, #19, 30	; 0x4c
    3578:	05080000 	streq	r0, [r8, #-0]
    357c:	0002d673 	andeq	sp, r2, r3, ror r6
    3580:	01300b00 	teqeq	r0, r0, lsl #22
    3584:	74050000 	strvc	r0, [r5], #-0
    3588:	000002d6 	ldrdeq	r0, [r0], -r6
    358c:	00820b00 	addeq	r0, r2, r0, lsl #22
    3590:	75050000 	strvc	r0, [r5, #-0]
    3594:	00000025 	andeq	r0, r0, r5, lsr #32
    3598:	040d0004 	streq	r0, [sp], #-4
    359c:	0000004f 	andeq	r0, r0, pc, asr #32
    35a0:	00039c0f 	andeq	r9, r3, pc, lsl #24
    35a4:	b3056800 	movwlt	r6, #22528	; 0x5800
    35a8:	00000406 	andeq	r0, r0, r6, lsl #8
    35ac:	00705f10 	rsbseq	r5, r0, r0, lsl pc
    35b0:	02d6b405 	sbcseq	fp, r6, #83886080	; 0x5000000
    35b4:	10000000 	andne	r0, r0, r0
    35b8:	0500725f 	streq	r7, [r0, #-607]	; 0xfffffda1
    35bc:	000025b5 			; <UNDEFINED> instruction: 0x000025b5
    35c0:	5f100400 	svcpl	0x00100400
    35c4:	b6050077 			; <UNDEFINED> instruction: 0xb6050077
    35c8:	00000025 	andeq	r0, r0, r5, lsr #32
    35cc:	01630b08 	cmneq	r3, r8, lsl #22
    35d0:	b7050000 	strlt	r0, [r5, -r0]
    35d4:	0000003a 	andeq	r0, r0, sl, lsr r0
    35d8:	023f0b0c 	eorseq	r0, pc, #12, 22	; 0x3000
    35dc:	b8050000 	stmdalt	r5, {}	; <UNPREDICTABLE>
    35e0:	0000003a 	andeq	r0, r0, sl, lsr r0
    35e4:	625f100e 	subsvs	r1, pc, #14
    35e8:	b9050066 	stmdblt	r5, {r1, r2, r5, r6}
    35ec:	000002b1 			; <UNDEFINED> instruction: 0x000002b1
    35f0:	00e40b10 	rsceq	r0, r4, r0, lsl fp
    35f4:	ba050000 	blt	1435fc <__bss_end__+0x139a84>
    35f8:	00000025 	andeq	r0, r0, r5, lsr #32
    35fc:	01530b18 	cmpeq	r3, r8, lsl fp
    3600:	c1050000 	mrsgt	r0, (UNDEF: 5)
    3604:	00000105 	andeq	r0, r0, r5, lsl #2
    3608:	04b60b1c 	ldrteq	r0, [r6], #2844	; 0xb1c
    360c:	c3050000 	movwgt	r0, #20480	; 0x5000
    3610:	00000561 	andeq	r0, r0, r1, ror #10
    3614:	029b0b20 	addseq	r0, fp, #32, 22	; 0x8000
    3618:	c5050000 	strgt	r0, [r5, #-0]
    361c:	0000058b 	andeq	r0, r0, fp, lsl #11
    3620:	04170b24 	ldreq	r0, [r7], #-2852	; 0xfffff4dc
    3624:	c8050000 	stmdagt	r5, {}	; <UNPREDICTABLE>
    3628:	000005af 	andeq	r0, r0, pc, lsr #11
    362c:	05450b28 	strbeq	r0, [r5, #-2856]	; 0xfffff4d8
    3630:	c9050000 	stmdbgt	r5, {}	; <UNPREDICTABLE>
    3634:	000005c9 	andeq	r0, r0, r9, asr #11
    3638:	755f102c 	ldrbvc	r1, [pc, #-44]	; 3614 <_start-0x49ec>
    363c:	cc050062 	stcgt	0, cr0, [r5], {98}	; 0x62
    3640:	000002b1 			; <UNDEFINED> instruction: 0x000002b1
    3644:	755f1030 	ldrbvc	r1, [pc, #-48]	; 361c <_start-0x49e4>
    3648:	cd050070 	stcgt	0, cr0, [r5, #-448]	; 0xfffffe40
    364c:	000002d6 	ldrdeq	r0, [r0], -r6
    3650:	755f1038 	ldrbvc	r1, [pc, #-56]	; 3620 <_start-0x49e0>
    3654:	ce050072 	mcrgt	0, 0, r0, cr5, cr2, {3}
    3658:	00000025 	andeq	r0, r0, r5, lsr #32
    365c:	012a0b3c 			; <UNDEFINED> instruction: 0x012a0b3c
    3660:	d1050000 	mrsle	r0, (UNDEF: 5)
    3664:	000005cf 	andeq	r0, r0, pc, asr #11
    3668:	051d0b40 	ldreq	r0, [sp, #-2880]	; 0xfffff4c0
    366c:	d2050000 	andle	r0, r5, #0
    3670:	000005df 	ldrdeq	r0, [r0], -pc	; <UNPREDICTABLE>
    3674:	6c5f1043 	mrrcvs	0, 4, r1, pc, cr3	; <UNPREDICTABLE>
    3678:	d5050062 	strle	r0, [r5, #-98]	; 0xffffff9e
    367c:	000002b1 			; <UNDEFINED> instruction: 0x000002b1
    3680:	01790b44 	cmneq	r9, r4, asr #22
    3684:	d8050000 	stmdale	r5, {}	; <UNPREDICTABLE>
    3688:	00000025 	andeq	r0, r0, r5, lsr #32
    368c:	01930b4c 	orrseq	r0, r3, ip, asr #22
    3690:	d9050000 	stmdble	r5, {}	; <UNPREDICTABLE>
    3694:	00000076 	andeq	r0, r0, r6, ror r0
    3698:	0c2f0b50 			; <UNDEFINED> instruction: 0x0c2f0b50
    369c:	dc050000 	stcle	0, cr0, [r5], {-0}
    36a0:	00000424 	andeq	r0, r0, r4, lsr #8
    36a4:	0c030b54 			; <UNDEFINED> instruction: 0x0c030b54
    36a8:	e0050000 	and	r0, r5, r0
    36ac:	000000fa 	strdeq	r0, [r0], -sl
    36b0:	03a40b58 			; <UNDEFINED> instruction: 0x03a40b58
    36b4:	e2050000 	and	r0, r5, #0
    36b8:	000000ef 	andeq	r0, r0, pc, ror #1
    36bc:	02c10b5c 	sbceq	r0, r1, #92, 22	; 0x17000
    36c0:	e3050000 	movw	r0, #20480	; 0x5000
    36c4:	00000025 	andeq	r0, r0, r5, lsr #32
    36c8:	25140064 	ldrcs	r0, [r4, #-100]	; 0xffffff9c
    36cc:	24000000 	strcs	r0, [r0], #-0
    36d0:	15000004 	strne	r0, [r0, #-4]
    36d4:	00000424 	andeq	r0, r0, r4, lsr #8
    36d8:	00010515 	andeq	r0, r1, r5, lsl r5
    36dc:	01071500 	tsteq	r7, r0, lsl #10
    36e0:	25150000 	ldrcs	r0, [r5, #-0]
    36e4:	00000000 	andeq	r0, r0, r0
    36e8:	042f040d 	strteq	r0, [pc], #-1037	; 36f0 <_start-0x4910>
    36ec:	240e0000 	strcs	r0, [lr], #-0
    36f0:	16000004 	strne	r0, [r0], -r4
    36f4:	000003f1 	strdeq	r0, [r0], -r1
    36f8:	38050428 	stmdacc	r5, {r3, r5, sl}
    36fc:	00056102 	andeq	r6, r5, r2, lsl #2
    3700:	03621700 	cmneq	r2, #0, 14
    3704:	3a050000 	bcc	14370c <__bss_end__+0x139b94>
    3708:	00002502 	andeq	r2, r0, r2, lsl #10
    370c:	72170000 	andsvc	r0, r7, #0
    3710:	05000001 	streq	r0, [r0, #-1]
    3714:	0636023f 			; <UNDEFINED> instruction: 0x0636023f
    3718:	17040000 	strne	r0, [r4, -r0]
    371c:	0000022f 	andeq	r0, r0, pc, lsr #4
    3720:	36023f05 	strcc	r3, [r2], -r5, lsl #30
    3724:	08000006 	stmdaeq	r0, {r1, r2}
    3728:	0001d617 	andeq	sp, r1, r7, lsl r6
    372c:	023f0500 	eorseq	r0, pc, #0, 10
    3730:	00000636 	andeq	r0, r0, r6, lsr r6
    3734:	03c5170c 	biceq	r1, r5, #12, 14	; 0x300000
    3738:	41050000 	mrsmi	r0, (UNDEF: 5)
    373c:	00002502 	andeq	r2, r0, r2, lsl #10
    3740:	90171000 	andsls	r1, r7, r0
    3744:	05000000 	streq	r0, [r0, #-0]
    3748:	08180242 	ldmdaeq	r8, {r1, r6, r9}
    374c:	17140000 	ldrne	r0, [r4, -r0]
    3750:	00000494 	muleq	r0, r4, r4
    3754:	25024405 	strcs	r4, [r2, #-1029]	; 0xfffffbfb
    3758:	30000000 	andcc	r0, r0, r0
    375c:	0003cf17 	andeq	ip, r3, r7, lsl pc
    3760:	02450500 	subeq	r0, r5, #0, 10
    3764:	00000585 	andeq	r0, r0, r5, lsl #11
    3768:	03241734 			; <UNDEFINED> instruction: 0x03241734
    376c:	47050000 	strmi	r0, [r5, -r0]
    3770:	00002502 	andeq	r2, r0, r2, lsl #10
    3774:	df173800 	svcle	0x00173800
    3778:	05000003 	streq	r0, [r0, #-3]
    377c:	08330249 	ldmdaeq	r3!, {r0, r3, r6, r9}
    3780:	173c0000 	ldrne	r0, [ip, -r0]!
    3784:	000002a2 	andeq	r0, r0, r2, lsr #5
    3788:	77024c05 	strvc	r4, [r2, -r5, lsl #24]
    378c:	40000001 	andmi	r0, r0, r1
    3790:	0001f517 	andeq	pc, r1, r7, lsl r5	; <UNPREDICTABLE>
    3794:	024d0500 	subeq	r0, sp, #0, 10
    3798:	00000025 	andeq	r0, r0, r5, lsr #32
    379c:	055f1744 	ldrbeq	r1, [pc, #-1860]	; 3060 <_start-0x4fa0>
    37a0:	4e050000 	cdpmi	0, 0, cr0, cr5, cr0, {0}
    37a4:	00017702 	andeq	r7, r1, r2, lsl #14
    37a8:	36174800 	ldrcc	r4, [r7], -r0, lsl #16
    37ac:	05000003 	streq	r0, [r0, #-3]
    37b0:	0839024f 	ldmdaeq	r9!, {r0, r1, r2, r3, r6, r9}
    37b4:	174c0000 	strbne	r0, [ip, -r0]
    37b8:	00000237 	andeq	r0, r0, r7, lsr r2
    37bc:	25025205 	strcs	r5, [r2, #-517]	; 0xfffffdfb
    37c0:	50000000 	andpl	r0, r0, r0
    37c4:	00018b17 	andeq	r8, r1, r7, lsl fp
    37c8:	02530500 	subseq	r0, r3, #0, 10
    37cc:	00000107 	andeq	r0, r0, r7, lsl #2
    37d0:	0cc51754 	stcleq	7, cr1, [r5], {84}	; 0x54
    37d4:	76050000 	strvc	r0, [r5], -r0
    37d8:	0007f602 	andeq	pc, r7, r2, lsl #12
    37dc:	1c185800 	ldcne	8, cr5, [r8], {-0}
    37e0:	05000003 	streq	r0, [r0, #-3]
    37e4:	0294027a 	addseq	r0, r4, #-1610612729	; 0xa0000007
    37e8:	01480000 	mrseq	r0, (UNDEF: 72)
    37ec:	00027618 	andeq	r7, r2, r8, lsl r6
    37f0:	027b0500 	rsbseq	r0, fp, #0, 10
    37f4:	00000256 	andeq	r0, r0, r6, asr r2
    37f8:	0818014c 	ldmdaeq	r8, {r2, r3, r6, r8}
    37fc:	05000005 	streq	r0, [r0, #-5]
    3800:	084a027f 	stmdaeq	sl, {r0, r1, r2, r3, r4, r5, r6, r9}^
    3804:	02dc0000 	sbcseq	r0, ip, #0
    3808:	00015b18 	andeq	r5, r1, r8, lsl fp
    380c:	02840500 	addeq	r0, r4, #0, 10
    3810:	000005fb 	strdeq	r0, [r0], -fp
    3814:	401802e0 	andsmi	r0, r8, r0, ror #5
    3818:	05000001 	streq	r0, [r0, #-1]
    381c:	08560285 	ldmdaeq	r6, {r0, r2, r7, r9}^
    3820:	02ec0000 	rsceq	r0, ip, #0
    3824:	06040d00 	streq	r0, [r4], -r0, lsl #26
    3828:	14000004 	strne	r0, [r0], #-4
    382c:	00000025 	andeq	r0, r0, r5, lsr #32
    3830:	00000585 	andeq	r0, r0, r5, lsl #11
    3834:	00042415 	andeq	r2, r4, r5, lsl r4
    3838:	01051500 	tsteq	r5, r0, lsl #10
    383c:	85150000 	ldrhi	r0, [r5, #-0]
    3840:	15000005 	strne	r0, [r0, #-5]
    3844:	00000025 	andeq	r0, r0, r5, lsr #32
    3848:	14040d00 	strne	r0, [r4], #-3328	; 0xfffff300
    384c:	0d000001 	stceq	0, cr0, [r0, #-4]
    3850:	00056704 	andeq	r6, r5, r4, lsl #14
    3854:	00811400 	addeq	r1, r1, r0, lsl #8
    3858:	05af0000 	streq	r0, [pc, #0]!	; 3860 <_start-0x47a0>
    385c:	24150000 	ldrcs	r0, [r5], #-0
    3860:	15000004 	strne	r0, [r0, #-4]
    3864:	00000105 	andeq	r0, r0, r5, lsl #2
    3868:	00008115 	andeq	r8, r0, r5, lsl r1
    386c:	00251500 	eoreq	r1, r5, r0, lsl #10
    3870:	0d000000 	stceq	0, cr0, [r0, #-0]
    3874:	00059104 	andeq	r9, r5, r4, lsl #2
    3878:	00251400 	eoreq	r1, r5, r0, lsl #8
    387c:	05c90000 	strbeq	r0, [r9]
    3880:	24150000 	ldrcs	r0, [r5], #-0
    3884:	15000004 	strne	r0, [r0, #-4]
    3888:	00000105 	andeq	r0, r0, r5, lsl #2
    388c:	b5040d00 	strlt	r0, [r4, #-3328]	; 0xfffff300
    3890:	08000005 	stmdaeq	r0, {r0, r2}
    3894:	0000004f 	andeq	r0, r0, pc, asr #32
    3898:	000005df 	ldrdeq	r0, [r0], -pc	; <UNPREDICTABLE>
    389c:	0000c709 	andeq	ip, r0, r9, lsl #14
    38a0:	08000200 	stmdaeq	r0, {r9}
    38a4:	0000004f 	andeq	r0, r0, pc, asr #32
    38a8:	000005ef 	andeq	r0, r0, pc, ror #11
    38ac:	0000c709 	andeq	ip, r0, r9, lsl #14
    38b0:	05000000 	streq	r0, [r0, #-0]
    38b4:	0000038a 	andeq	r0, r0, sl, lsl #7
    38b8:	dc011d05 	stcle	13, cr1, [r1], {5}
    38bc:	19000002 	stmdbne	r0, {r1}
    38c0:	000004cb 	andeq	r0, r0, fp, asr #9
    38c4:	0121050c 			; <UNDEFINED> instruction: 0x0121050c
    38c8:	00000630 	andeq	r0, r0, r0, lsr r6
    38cc:	0003b217 	andeq	fp, r3, r7, lsl r2
    38d0:	01230500 			; <UNDEFINED> instruction: 0x01230500
    38d4:	00000630 	andeq	r0, r0, r0, lsr r6
    38d8:	02521700 	subseq	r1, r2, #0, 14
    38dc:	24050000 	strcs	r0, [r5], #-0
    38e0:	00002501 	andeq	r2, r0, r1, lsl #10
    38e4:	84170400 	ldrhi	r0, [r7], #-1024	; 0xfffffc00
    38e8:	05000003 	streq	r0, [r0, #-3]
    38ec:	06360125 	ldrteq	r0, [r6], -r5, lsr #2
    38f0:	00080000 	andeq	r0, r8, r0
    38f4:	05fb040d 	ldrbeq	r0, [fp, #1037]!	; 0x40d
    38f8:	040d0000 	streq	r0, [sp], #-0
    38fc:	000005ef 	andeq	r0, r0, pc, ror #11
    3900:	00008819 	andeq	r8, r0, r9, lsl r8
    3904:	3d050e00 	stccc	14, cr0, [r5, #-0]
    3908:	00067101 	andeq	r7, r6, r1, lsl #2
    390c:	03f81700 	mvnseq	r1, #0, 14
    3910:	3e050000 	cdpcc	0, 0, cr0, cr5, cr0, {0}
    3914:	00067101 	andeq	r7, r6, r1, lsl #2
    3918:	3f170000 	svccc	0x00170000
    391c:	05000004 	streq	r0, [r0, #-4]
    3920:	0671013f 			; <UNDEFINED> instruction: 0x0671013f
    3924:	17060000 	strne	r0, [r6, -r0]
    3928:	00000467 	andeq	r0, r0, r7, ror #8
    392c:	56014005 	strpl	r4, [r1], -r5
    3930:	0c000000 	stceq	0, cr0, [r0], {-0}
    3934:	00560800 	subseq	r0, r6, r0, lsl #16
    3938:	06810000 	streq	r0, [r1], r0
    393c:	c7090000 	strgt	r0, [r9, -r0]
    3940:	02000000 	andeq	r0, r0, #0
    3944:	05d01a00 	ldrbeq	r1, [r0, #2560]	; 0xa00
    3948:	07820257 			; <UNDEFINED> instruction: 0x07820257
    394c:	a6170000 	ldrge	r0, [r7], -r0
    3950:	05000004 	streq	r0, [r0, #-4]
    3954:	002c0259 	eoreq	r0, ip, r9, asr r2
    3958:	17000000 	strne	r0, [r0, -r0]
    395c:	00000451 	andeq	r0, r0, r1, asr r4
    3960:	07025a05 	streq	r5, [r2, -r5, lsl #20]
    3964:	04000001 	streq	r0, [r0], #-1
    3968:	00028b17 	andeq	r8, r2, r7, lsl fp
    396c:	025b0500 	subseq	r0, fp, #0, 10
    3970:	00000782 	andeq	r0, r0, r2, lsl #15
    3974:	05361708 	ldreq	r1, [r6, #-1800]!	; 0xfffff8f8
    3978:	5c050000 	stcpl	0, cr0, [r5], {-0}
    397c:	00018d02 	andeq	r8, r1, r2, lsl #26
    3980:	e6172400 	ldr	r2, [r7], -r0, lsl #8
    3984:	05000001 	streq	r0, [r0, #-1]
    3988:	0025025d 	eoreq	r0, r5, sp, asr r2
    398c:	17480000 	strbne	r0, [r8, -r0]
    3990:	000003ad 	andeq	r0, r0, sp, lsr #7
    3994:	64025e05 	strvs	r5, [r2], #-3589	; 0xfffff1fb
    3998:	50000000 	andpl	r0, r0, r0
    399c:	00054c17 	andeq	r4, r5, r7, lsl ip
    39a0:	025f0500 	subseq	r0, pc, #0, 10
    39a4:	0000063c 	andeq	r0, r0, ip, lsr r6
    39a8:	03b81758 			; <UNDEFINED> instruction: 0x03b81758
    39ac:	60050000 	andvs	r0, r5, r0
    39b0:	0000ef02 	andeq	lr, r0, r2, lsl #30
    39b4:	51176800 	tstpl	r7, r0, lsl #16
    39b8:	05000005 	streq	r0, [r0, #-5]
    39bc:	00ef0261 	rsceq	r0, pc, r1, ror #4
    39c0:	17700000 	ldrbne	r0, [r0, -r0]!
    39c4:	000000fc 	strdeq	r0, [r0], -ip
    39c8:	ef026205 	svc	0x00026205
    39cc:	78000000 	stmdavc	r0, {}	; <UNPREDICTABLE>
    39d0:	0004fe17 	andeq	pc, r4, r7, lsl lr	; <UNPREDICTABLE>
    39d4:	02630500 	rsbeq	r0, r3, #0, 10
    39d8:	00000792 	muleq	r0, r2, r7
    39dc:	027f1780 	rsbseq	r1, pc, #128, 14	; 0x2000000
    39e0:	64050000 	strvs	r0, [r5], #-0
    39e4:	0007a202 	andeq	sl, r7, r2, lsl #4
    39e8:	74178800 	ldrvc	r8, [r7], #-2048	; 0xfffff800
    39ec:	05000004 	streq	r0, [r0, #-4]
    39f0:	00250265 	eoreq	r0, r5, r5, ror #4
    39f4:	17a00000 	strne	r0, [r0, r0]!
    39f8:	000001ac 	andeq	r0, r0, ip, lsr #3
    39fc:	ef026605 	svc	0x00026605
    3a00:	a4000000 	strge	r0, [r0], #-0
    3a04:	0000ed17 	andeq	lr, r0, r7, lsl sp
    3a08:	02670500 	rsbeq	r0, r7, #0, 10
    3a0c:	000000ef 	andeq	r0, r0, pc, ror #1
    3a10:	019b17ac 	orrseq	r1, fp, ip, lsr #15
    3a14:	68050000 	stmdavs	r5, {}	; <UNPREDICTABLE>
    3a18:	0000ef02 	andeq	lr, r0, r2, lsl #30
    3a1c:	ad17b400 	cfldrsge	mvf11, [r7, #-0]
    3a20:	05000000 	streq	r0, [r0, #-0]
    3a24:	00ef0269 	rsceq	r0, pc, r9, ror #4
    3a28:	17bc0000 	ldrne	r0, [ip, r0]!
    3a2c:	000000bc 	strheq	r0, [r0], -ip
    3a30:	ef026a05 	svc	0x00026a05
    3a34:	c4000000 	strgt	r0, [r0], #-0
    3a38:	00036017 	andeq	r6, r3, r7, lsl r0
    3a3c:	026b0500 	rsbeq	r0, fp, #0, 10
    3a40:	00000025 	andeq	r0, r0, r5, lsr #32
    3a44:	0d0800cc 	stceq	0, cr0, [r8, #-816]	; 0xfffffcd0
    3a48:	92000001 	andls	r0, r0, #1
    3a4c:	09000007 	stmdbeq	r0, {r0, r1, r2}
    3a50:	000000c7 	andeq	r0, r0, r7, asr #1
    3a54:	0d080019 	stceq	0, cr0, [r8, #-100]	; 0xffffff9c
    3a58:	a2000001 	andge	r0, r0, #1
    3a5c:	09000007 	stmdbeq	r0, {r0, r1, r2}
    3a60:	000000c7 	andeq	r0, r0, r7, asr #1
    3a64:	0d080007 	stceq	0, cr0, [r8, #-28]	; 0xffffffe4
    3a68:	b2000001 	andlt	r0, r0, #1
    3a6c:	09000007 	stmdbeq	r0, {r0, r1, r2}
    3a70:	000000c7 	andeq	r0, r0, r7, asr #1
    3a74:	f01a0017 			; <UNDEFINED> instruction: 0xf01a0017
    3a78:	d6027005 	strle	r7, [r2], -r5
    3a7c:	17000007 	strne	r0, [r0, -r7]
    3a80:	0000030c 	andeq	r0, r0, ip, lsl #6
    3a84:	d6027305 	strle	r7, [r2], -r5, lsl #6
    3a88:	00000007 	andeq	r0, r0, r7
    3a8c:	0002ef17 	andeq	lr, r2, r7, lsl pc
    3a90:	02740500 	rsbseq	r0, r4, #0, 10
    3a94:	000007e6 	andeq	r0, r0, r6, ror #15
    3a98:	d6080078 			; <UNDEFINED> instruction: 0xd6080078
    3a9c:	e6000002 	str	r0, [r0], -r2
    3aa0:	09000007 	stmdbeq	r0, {r0, r1, r2}
    3aa4:	000000c7 	andeq	r0, r0, r7, asr #1
    3aa8:	2c08001d 	stccs	0, cr0, [r8], {29}
    3aac:	f6000000 			; <UNDEFINED> instruction: 0xf6000000
    3ab0:	09000007 	stmdbeq	r0, {r0, r1, r2}
    3ab4:	000000c7 	andeq	r0, r0, r7, asr #1
    3ab8:	f01b001d 			; <UNDEFINED> instruction: 0xf01b001d
    3abc:	18025505 	stmdane	r2, {r0, r2, r8, sl, ip, lr}
    3ac0:	1c000008 	stcne	0, cr0, [r0], {8}
    3ac4:	000003f1 	strdeq	r0, [r0], -r1
    3ac8:	81026c05 	tsthi	r2, r5, lsl #24
    3acc:	1c000006 	stcne	0, cr0, [r0], {6}
    3ad0:	00000523 	andeq	r0, r0, r3, lsr #10
    3ad4:	b2027505 	andlt	r7, r2, #20971520	; 0x1400000
    3ad8:	00000007 	andeq	r0, r0, r7
    3adc:	00010d08 	andeq	r0, r1, r8, lsl #26
    3ae0:	00082800 	andeq	r2, r8, r0, lsl #16
    3ae4:	00c70900 	sbceq	r0, r7, r0, lsl #18
    3ae8:	00180000 	andseq	r0, r8, r0
    3aec:	0008331d 	andeq	r3, r8, sp, lsl r3
    3af0:	04241500 	strteq	r1, [r4], #-1280	; 0xfffffb00
    3af4:	0d000000 	stceq	0, cr0, [r0, #-0]
    3af8:	00082804 	andeq	r2, r8, r4, lsl #16
    3afc:	77040d00 	strvc	r0, [r4, -r0, lsl #26]
    3b00:	1d000001 	stcne	0, cr0, [r0, #-4]
    3b04:	0000084a 	andeq	r0, r0, sl, asr #16
    3b08:	00002515 	andeq	r2, r0, r5, lsl r5
    3b0c:	040d0000 	streq	r0, [sp], #-0
    3b10:	00000850 	andeq	r0, r0, r0, asr r8
    3b14:	083f040d 	ldmdaeq	pc!, {r0, r2, r3, sl}	; <UNPREDICTABLE>
    3b18:	ef080000 	svc	0x00080000
    3b1c:	66000005 	strvs	r0, [r0], -r5
    3b20:	09000008 	stmdbeq	r0, {r3}
    3b24:	000000c7 	andeq	r0, r0, r7, asr #1
    3b28:	881e0002 	ldmdahi	lr, {r1}
    3b2c:	05000004 	streq	r0, [r0, #-4]
    3b30:	042402fd 	strteq	r0, [r4], #-765	; 0xfffffd03
    3b34:	811e0000 	tsthi	lr, r0
    3b38:	05000004 	streq	r0, [r0, #-4]
    3b3c:	042a02fe 	strteq	r0, [sl], #-766	; 0xfffffd02
    3b40:	25140000 	ldrcs	r0, [r4, #-0]
    3b44:	8d000000 	stchi	0, cr0, [r0, #-0]
    3b48:	15000008 	strne	r0, [r0, #-8]
    3b4c:	00000025 	andeq	r0, r0, r5, lsr #32
    3b50:	01ff1f00 	mvnseq	r1, r0, lsl #30
    3b54:	1d060000 	stcne	0, cr0, [r6, #-0]
    3b58:	00000898 	muleq	r0, r8, r8
    3b5c:	087e040d 	ldmdaeq	lr!, {r0, r2, r3, sl}^
    3b60:	25140000 	ldrcs	r0, [r4, #-0]
    3b64:	ad000000 	stcge	0, cr0, [r0, #-0]
    3b68:	15000008 	strne	r0, [r0, #-8]
    3b6c:	00000585 	andeq	r0, r0, r5, lsl #11
    3b70:	08b21f00 	ldmeq	r2!, {r8, r9, sl, fp, ip}
    3b74:	22060000 	andcs	r0, r6, #0
    3b78:	000008b8 			; <UNDEFINED> instruction: 0x000008b8
    3b7c:	089e040d 	ldmeq	lr, {r0, r2, r3, sl}
    3b80:	af040000 	svcge	0x00040000
    3b84:	07000007 	streq	r0, [r0, -r7]
    3b88:	0008c928 	andeq	ip, r8, r8, lsr #18
    3b8c:	079b0f00 	ldreq	r0, [fp, r0, lsl #30]
    3b90:	08040000 	stmdaeq	r4, {}	; <UNPREDICTABLE>
    3b94:	0008e000 	andeq	lr, r8, r0
    3b98:	08202000 	stmdaeq	r0!, {sp}
    3b9c:	01050000 	mrseq	r0, (UNDEF: 5)
    3ba0:	00000000 	andeq	r0, r0, r0
    3ba4:	00079d04 	andeq	r9, r7, r4, lsl #26
    3ba8:	be630700 	cdplt	7, 6, cr0, cr3, cr0, {0}
    3bac:	21000008 	tstcs	r0, r8
    3bb0:	000007a5 	andeq	r0, r0, r5, lsr #15
    3bb4:	00257d01 	eoreq	r7, r5, r1, lsl #26
    3bb8:	8ac40000 	bhi	ff103bc0 <__bss_end__+0xff0fa048>
    3bbc:	02c00000 	sbceq	r0, r0, #0
    3bc0:	9c010000 	stcls	0, cr0, [r1], {-0}
    3bc4:	00000b51 	andeq	r0, r0, r1, asr fp
    3bc8:	66756222 	ldrbtvs	r6, [r5], -r2, lsr #4
    3bcc:	077d0100 	ldrbeq	r0, [sp, -r0, lsl #2]!
    3bd0:	b8000001 	stmdalt	r0, {r0}
    3bd4:	22000003 	andcs	r0, r0, #3
    3bd8:	7d01006e 	stcvc	0, cr0, [r1, #-440]	; 0xfffffe48
    3bdc:	00000025 	andeq	r0, r0, r5, lsr #32
    3be0:	000003e4 	andeq	r0, r0, r4, ror #7
    3be4:	746d6622 	strbtvc	r6, [sp], #-1570	; 0xfffff9de
    3be8:	857d0100 	ldrbhi	r0, [sp, #-256]!	; 0xffffff00
    3bec:	12000005 	andne	r0, r0, #5
    3bf0:	23000004 	movwcs	r0, #4
    3bf4:	0000014e 	andeq	r0, r0, lr, asr #2
    3bf8:	08e07d01 	stmiaeq	r0!, {r0, r8, sl, fp, ip, sp, lr}^
    3bfc:	91030000 	mrsls	r0, (UNDEF: 3)
    3c00:	70247edc 	ldrdvc	r7, [r4], -ip	; <UNPREDICTABLE>
    3c04:	077e0100 	ldrbeq	r0, [lr, -r0, lsl #2]!
    3c08:	72000001 	andvc	r0, r0, #1
    3c0c:	24000004 	strcs	r0, [r0], #-4
    3c10:	7e010065 	cdpvc	0, 0, cr0, cr1, cr5, {3}
    3c14:	00000107 	andeq	r0, r0, r7, lsl #2
    3c18:	000004f0 	strdeq	r0, [r0], -r0	; <UNPREDICTABLE>
    3c1c:	00024525 	andeq	r4, r2, r5, lsr #10
    3c20:	000b6100 	andeq	r6, fp, r0, lsl #2
    3c24:	6c030500 	cfstr32vs	mvfx0, [r3], {-0}
    3c28:	26000096 			; <UNDEFINED> instruction: 0x26000096
    3c2c:	00000000 	andeq	r0, r0, r0
    3c30:	01007324 	tsteq	r0, r4, lsr #6
    3c34:	0001078b 	andeq	r0, r1, fp, lsl #15
    3c38:	00051700 	andeq	r1, r5, r0, lsl #14
    3c3c:	756e2700 	strbvc	r2, [lr, #-1792]!	; 0xfffff900
    3c40:	8b01006d 	blhi	43dfc <__bss_end__+0x3a284>
    3c44:	00000b66 	andeq	r0, r0, r6, ror #22
    3c48:	7ee09103 	urdvcs	f1, f3
    3c4c:	00088028 	andeq	r8, r8, r8, lsr #32
    3c50:	2c8c0100 	stfcss	f0, [ip], {0}
    3c54:	61000000 	mrsvs	r0, (UNDEF: 0)
    3c58:	29000005 	stmdbcs	r0, {r0, r2}
    3c5c:	00008b54 	andeq	r8, r0, r4, asr fp
    3c60:	00000d92 	muleq	r0, r2, sp
    3c64:	000009ab 	andeq	r0, r0, fp, lsr #19
    3c68:	0250012a 	subseq	r0, r0, #-2147483638	; 0x8000000a
    3c6c:	2b000077 	blcs	3e50 <_start-0x41b0>
    3c70:	00008bd4 	ldrdeq	r8, [r0], -r4
    3c74:	00000e52 	andeq	r0, r0, r2, asr lr
    3c78:	008be829 	addeq	lr, fp, r9, lsr #16
    3c7c:	000e5d00 	andeq	r5, lr, r0, lsl #26
    3c80:	0009e300 	andeq	lr, r9, r0, lsl #6
    3c84:	50012a00 	andpl	r2, r1, r0, lsl #20
    3c88:	96dc0305 	ldrbls	r0, [ip], r5, lsl #6
    3c8c:	012a0000 			; <UNDEFINED> instruction: 0x012a0000
    3c90:	78030551 	stmdavc	r3, {r0, r4, r6, r8, sl}
    3c94:	2a000096 	bcs	3ef4 <_start-0x410c>
    3c98:	03055201 	movweq	r5, #20993	; 0x5201
    3c9c:	0000966c 	andeq	r9, r0, ip, ror #12
    3ca0:	0253012a 	subseq	r0, r3, #-2147483638	; 0x8000000a
    3ca4:	2b009208 	blcs	284cc <__bss_end__+0x1e954>
    3ca8:	00008bec 	andeq	r8, r0, ip, ror #23
    3cac:	00000e68 	andeq	r0, r0, r8, ror #28
    3cb0:	008bf02b 	addeq	pc, fp, fp, lsr #32
    3cb4:	000e5200 	andeq	r5, lr, r0, lsl #4
    3cb8:	8c042900 			; <UNDEFINED> instruction: 0x8c042900
    3cbc:	0e5d0000 	cdpeq	0, 5, cr0, cr13, cr0, {0}
    3cc0:	0a240000 	beq	903cc8 <__bss_end__+0x8fa150>
    3cc4:	012a0000 			; <UNDEFINED> instruction: 0x012a0000
    3cc8:	f8030550 			; <UNDEFINED> instruction: 0xf8030550
    3ccc:	2a000096 	bcs	3f2c <_start-0x40d4>
    3cd0:	03055101 	movweq	r5, #20737	; 0x5101
    3cd4:	00009678 	andeq	r9, r0, r8, ror r6
    3cd8:	0552012a 	ldrbeq	r0, [r2, #-298]	; 0xfffffed6
    3cdc:	00966c03 	addseq	r6, r6, r3, lsl #24
    3ce0:	53012a00 	movwpl	r2, #6656	; 0x1a00
    3ce4:	00980802 	addseq	r0, r8, r2, lsl #16
    3ce8:	008c082b 	addeq	r0, ip, fp, lsr #16
    3cec:	000e6800 	andeq	r6, lr, r0, lsl #16
    3cf0:	8c342900 			; <UNDEFINED> instruction: 0x8c342900
    3cf4:	0b760000 	bleq	1d83cfc <__bss_end__+0x1d7a184>
    3cf8:	0a5a0000 	beq	1683d00 <__bss_end__+0x167a188>
    3cfc:	012a0000 			; <UNDEFINED> instruction: 0x012a0000
    3d00:	2a3a0150 	bcs	e84248 <__bss_end__+0xe7a6d0>
    3d04:	91035101 	tstls	r3, r1, lsl #2
    3d08:	012a7ed8 	ldrdeq	r7, [sl, -r8]!
    3d0c:	80080252 	andhi	r0, r8, r2, asr r2
    3d10:	007d022a 	rsbseq	r0, sp, sl, lsr #4
    3d14:	2a007402 	bcs	20d24 <__bss_end__+0x171ac>
    3d18:	01047d02 	tsteq	r4, r2, lsl #26
    3d1c:	68290031 	stmdavs	r9!, {r0, r4, r5}
    3d20:	7600008c 	strvc	r0, [r0], -ip, lsl #1
    3d24:	8700000b 	strhi	r0, [r0, -fp]
    3d28:	2a00000a 	bcs	3d58 <_start-0x42a8>
    3d2c:	3a015001 	bcc	57d38 <__bss_end__+0x4e1c0>
    3d30:	0351012a 	cmpeq	r1, #-2147483638	; 0x8000000a
    3d34:	2a7ed891 	bcs	1fb9f80 <__bss_end__+0x1fb0408>
    3d38:	08025201 	stmdaeq	r2, {r0, r9, ip, lr}
    3d3c:	7d022a80 	vstrvc	s4, [r2, #-512]	; 0xfffffe00
    3d40:	00740200 	rsbseq	r0, r4, r0, lsl #4
    3d44:	047d022a 	ldrbteq	r0, [sp], #-554	; 0xfffffdd6
    3d48:	29003001 	stmdbcs	r0, {r0, ip, sp}
    3d4c:	00008c98 	muleq	r0, r8, ip
    3d50:	00000b76 	andeq	r0, r0, r6, ror fp
    3d54:	00000ab4 			; <UNDEFINED> instruction: 0x00000ab4
    3d58:	0150012a 	cmpeq	r0, sl, lsr #2
    3d5c:	51012a40 	tstpl	r1, r0, asr #20
    3d60:	7ed89103 	atnvce	f1, f3
    3d64:	0252012a 	subseq	r0, r2, #-2147483638	; 0x8000000a
    3d68:	022a8008 	eoreq	r8, sl, #8
    3d6c:	7402007d 	strvc	r0, [r2], #-125	; 0xffffff83
    3d70:	7d022a00 	vstrvc	s4, [r2, #-0]
    3d74:	00300104 	eorseq	r0, r0, r4, lsl #2
    3d78:	008cc829 	addeq	ip, ip, r9, lsr #16
    3d7c:	000b7600 	andeq	r7, fp, r0, lsl #12
    3d80:	000ae100 	andeq	lr, sl, r0, lsl #2
    3d84:	50012a00 	andpl	r2, r1, r0, lsl #20
    3d88:	012a3201 			; <UNDEFINED> instruction: 0x012a3201
    3d8c:	d8910351 	ldmle	r1, {r0, r4, r6, r8, r9}
    3d90:	52012a7e 	andpl	r2, r1, #516096	; 0x7e000
    3d94:	2a800802 	bcs	fe005da4 <__bss_end__+0xfdffc22c>
    3d98:	02007d02 	andeq	r7, r0, #2, 26	; 0x80
    3d9c:	022a0074 	eoreq	r0, sl, #116	; 0x74
    3da0:	3001047d 	andcc	r0, r1, sp, ror r4
    3da4:	8d0c2900 	vstrhi.16	s4, [ip, #-0]	; <UNPREDICTABLE>
    3da8:	0b760000 	bleq	1d83db0 <__bss_end__+0x1d7a238>
    3dac:	0b0e0000 	bleq	383db4 <__bss_end__+0x37a23c>
    3db0:	012a0000 			; <UNDEFINED> instruction: 0x012a0000
    3db4:	2a380150 	bcs	e042fc <__bss_end__+0xdfa784>
    3db8:	91035101 	tstls	r3, r1, lsl #2
    3dbc:	012a7ed8 	ldrdeq	r7, [sl, -r8]!
    3dc0:	80080252 	andhi	r0, r8, r2, asr r2
    3dc4:	007d022a 	rsbseq	r0, sp, sl, lsr #4
    3dc8:	2a007402 	bcs	20dd8 <__bss_end__+0x17260>
    3dcc:	01047d02 	tsteq	r4, r2, lsl #26
    3dd0:	142b0030 	strtne	r0, [fp], #-48	; 0xffffffd0
    3dd4:	5200008d 	andpl	r0, r0, #141	; 0x8d
    3dd8:	2900000e 	stmdbcs	r0, {r1, r2, r3}
    3ddc:	00008d30 	andeq	r8, r0, r0, lsr sp
    3de0:	00000e5d 	andeq	r0, r0, sp, asr lr
    3de4:	00000b46 	andeq	r0, r0, r6, asr #22
    3de8:	0550012a 	ldrbeq	r0, [r0, #-298]	; 0xfffffed6
    3dec:	00972003 	addseq	r2, r7, r3
    3df0:	51012a00 	tstpl	r1, r0, lsl #20
    3df4:	96780305 	ldrbtls	r0, [r8], -r5, lsl #6
    3df8:	012a0000 			; <UNDEFINED> instruction: 0x012a0000
    3dfc:	6c030552 	cfstr32vs	mvfx0, [r3], {82}	; 0x52
    3e00:	2a000096 	bcs	4060 <_start-0x3fa0>
    3e04:	08025301 	stmdaeq	r2, {r0, r8, r9, ip, lr}
    3e08:	342b00b9 	strtcc	r0, [fp], #-185	; 0xffffff47
    3e0c:	6800008d 	stmdavs	r0, {r0, r2, r3, r7}
    3e10:	0000000e 	andeq	r0, r0, lr
    3e14:	01140800 	tsteq	r4, r0, lsl #16
    3e18:	0b610000 	bleq	1843e20 <__bss_end__+0x183a2a8>
    3e1c:	c7090000 	strgt	r0, [r9, -r0]
    3e20:	09000000 	stmdbeq	r0, {}	; <UNPREDICTABLE>
    3e24:	0b510e00 	bleq	144762c <__bss_end__+0x143dab4>
    3e28:	0d080000 	stceq	0, cr0, [r8, #-0]
    3e2c:	76000001 	strvc	r0, [r0], -r1
    3e30:	0900000b 	stmdbeq	r0, {r0, r1, r3}
    3e34:	000000c7 	andeq	r0, r0, r7, asr #1
    3e38:	a42c007f 	strtge	r0, [ip], #-127	; 0xffffff81
    3e3c:	01000008 	tsteq	r0, r8
    3e40:	00010747 	andeq	r0, r1, r7, asr #14
    3e44:	0088d400 	addeq	sp, r8, r0, lsl #8
    3e48:	00019c00 	andeq	r9, r1, r0, lsl #24
    3e4c:	b19c0100 	orrslt	r0, ip, r0, lsl #2
    3e50:	2d00000c 	stccs	0, cr0, [r0, #-48]	; 0xffffffd0
    3e54:	00000131 	andeq	r0, r0, r1, lsr r1
    3e58:	002c4701 	eoreq	r4, ip, r1, lsl #14
    3e5c:	058b0000 	streq	r0, [fp]
    3e60:	64220000 	strtvs	r0, [r2], #-0
    3e64:	01007473 	tsteq	r0, r3, ror r4
    3e68:	00010747 	andeq	r0, r1, r7, asr #14
    3e6c:	0005b900 	andeq	fp, r5, r0, lsl #18
    3e70:	006e2200 	rsbeq	r2, lr, r0, lsl #4
    3e74:	00254701 	eoreq	r4, r5, r1, lsl #14
    3e78:	05d70000 	ldrbeq	r0, [r7]
    3e7c:	76220000 	strtvc	r0, [r2], -r0
    3e80:	01006c61 	tsteq	r0, r1, ror #24
    3e84:	00002547 	andeq	r2, r0, r7, asr #10
    3e88:	0005f500 	andeq	pc, r5, r0, lsl #10
    3e8c:	08802d00 	stmeq	r0, {r8, sl, fp, sp}
    3e90:	47010000 	strmi	r0, [r1, -r0]
    3e94:	00000025 	andeq	r0, r0, r5, lsr #32
    3e98:	00000669 	andeq	r0, r0, r9, ror #12
    3e9c:	00086f23 	andeq	r6, r8, r3, lsr #30
    3ea0:	25470100 	strbcs	r0, [r7, #-256]	; 0xffffff00
    3ea4:	02000000 	andeq	r0, r0, #0
    3ea8:	62270491 	eorvs	r0, r7, #-1862270976	; 0x91000000
    3eac:	01006675 	tsteq	r0, r5, ror r6
    3eb0:	000cb14c 	andeq	fp, ip, ip, asr #2
    3eb4:	a8910300 	ldmge	r1, {r8, r9}
    3eb8:	0070247f 	rsbseq	r2, r0, pc, ror r4
    3ebc:	01074c01 	tsteq	r7, r1, lsl #24
    3ec0:	06930000 	ldreq	r0, [r3], r0
    3ec4:	75240000 	strvc	r0, [r4, #-0]!
    3ec8:	2c4d0100 	stfcse	f0, [sp], {-0}
    3ecc:	45000000 	strmi	r0, [r0, #-0]
    3ed0:	25000007 	strcs	r0, [r0, #-7]
    3ed4:	00000245 	andeq	r0, r0, r5, asr #4
    3ed8:	00000cd1 	ldrdeq	r0, [r0], -r1
    3edc:	96540305 	ldrbls	r0, [r4], -r5, lsl #6
    3ee0:	402e0000 	eormi	r0, lr, r0
    3ee4:	7c000089 	stcvc	0, cr0, [r0], {137}	; 0x89
    3ee8:	3b000000 	blcc	3ef0 <_start-0x4110>
    3eec:	2800000c 	stmdacs	r0, {r2, r3}
    3ef0:	0000088e 	andeq	r0, r0, lr, lsl #17
    3ef4:	002c5201 	eoreq	r5, ip, r1, lsl #4
    3ef8:	07b00000 	ldreq	r0, [r0, r0]!
    3efc:	29000000 	stmdbcs	r0, {}	; <UNPREDICTABLE>
    3f00:	000089e8 	andeq	r8, r0, r8, ror #19
    3f04:	00000d42 	andeq	r0, r0, r2, asr #26
    3f08:	00000c4f 	andeq	r0, r0, pc, asr #24
    3f0c:	0251012a 	subseq	r0, r1, #-2147483638	; 0x8000000a
    3f10:	2900007d 	stmdbcs	r0, {r0, r2, r3, r4, r5, r6}
    3f14:	000089fc 	strdeq	r8, [r0], -ip
    3f18:	00000cd6 	ldrdeq	r0, [r0], -r6
    3f1c:	00000c6f 	andeq	r0, r0, pc, ror #24
    3f20:	0250012a 	subseq	r0, r0, #-2147483638	; 0x8000000a
    3f24:	012a0075 			; <UNDEFINED> instruction: 0x012a0075
    3f28:	00740251 	rsbseq	r0, r4, r1, asr r2
    3f2c:	0253012a 	subseq	r0, r3, #-2147483638	; 0x8000000a
    3f30:	2b00007d 	blcs	412c <_start-0x3ed4>
    3f34:	00008a3c 	andeq	r8, r0, ip, lsr sl
    3f38:	00000e52 	andeq	r0, r0, r2, asr lr
    3f3c:	008a5029 	addeq	r5, sl, r9, lsr #32
    3f40:	000e5d00 	andeq	r5, lr, r0, lsl #26
    3f44:	000ca700 	andeq	sl, ip, r0, lsl #14
    3f48:	50012a00 	andpl	r2, r1, r0, lsl #20
    3f4c:	968c0305 	strls	r0, [ip], r5, lsl #6
    3f50:	012a0000 			; <UNDEFINED> instruction: 0x012a0000
    3f54:	78030551 	stmdavc	r3, {r0, r4, r6, r8, sl}
    3f58:	2a000096 	bcs	41b8 <_start-0x3e48>
    3f5c:	03055201 	movweq	r5, #20993	; 0x5201
    3f60:	00009654 	andeq	r9, r0, r4, asr r6
    3f64:	0253012a 	subseq	r0, r3, #-2147483638	; 0x8000000a
    3f68:	2b007508 	blcs	21390 <__bss_end__+0x17818>
    3f6c:	00008a54 	andeq	r8, r0, r4, asr sl
    3f70:	00000e68 	andeq	r0, r0, r8, ror #28
    3f74:	010d0800 	tsteq	sp, r0, lsl #16
    3f78:	0cc10000 	stcleq	0, cr0, [r1], {0}
    3f7c:	c7090000 	strgt	r0, [r9, -r0]
    3f80:	3f000000 	svccc	0x00000000
    3f84:	01140800 	tsteq	r4, r0, lsl #16
    3f88:	0cd10000 	ldcleq	0, cr0, [r1], {0}
    3f8c:	c7090000 	strgt	r0, [r9, -r0]
    3f90:	04000000 	streq	r0, [r0], #-0
    3f94:	0cc10e00 	stcleq	14, cr0, [r1], {0}
    3f98:	782c0000 	stmdavc	ip!, {}	; <UNPREDICTABLE>
    3f9c:	01000008 	tsteq	r0, r8
    3fa0:	00010737 	andeq	r0, r1, r7, lsr r7
    3fa4:	00889400 	addeq	r9, r8, r0, lsl #8
    3fa8:	00004000 	andeq	r4, r0, r0
    3fac:	429c0100 	addsmi	r0, ip, #0, 2
    3fb0:	2200000d 	andcs	r0, r0, #13
    3fb4:	00747364 	rsbseq	r7, r4, r4, ror #6
    3fb8:	01073701 	tsteq	r7, r1, lsl #14
    3fbc:	07e70000 	strbeq	r0, [r7, r0]!
    3fc0:	6e220000 	cdpvs	0, 2, cr0, cr2, cr0, {0}
    3fc4:	25370100 	ldrcs	r0, [r7, #-256]!	; 0xffffff00
    3fc8:	1f000000 	svcne	0x00000000
    3fcc:	22000008 	andcs	r0, r0, #8
    3fd0:	37010070 	smlsdxcc	r1, r0, r0, r0
    3fd4:	00000107 	andeq	r0, r0, r7, lsl #2
    3fd8:	00000840 	andeq	r0, r0, r0, asr #16
    3fdc:	0007182d 	andeq	r1, r7, sp, lsr #16
    3fe0:	07370100 	ldreq	r0, [r7, -r0, lsl #2]!
    3fe4:	76000001 	strvc	r0, [r0], -r1
    3fe8:	24000008 	strcs	r0, [r0], #-8
    3fec:	006e656c 	rsbeq	r6, lr, ip, ror #10
    3ff0:	00253901 	eoreq	r3, r5, r1, lsl #18
    3ff4:	08940000 	ldmeq	r4, {}	; <UNPREDICTABLE>
    3ff8:	73270000 			; <UNDEFINED> instruction: 0x73270000
    3ffc:	073d0100 	ldreq	r0, [sp, -r0, lsl #2]!
    4000:	01000001 	tsteq	r0, r1
    4004:	702f0050 	eorvc	r0, pc, r0, asr r0	; <UNPREDICTABLE>
    4008:	01006461 	tsteq	r0, r1, ror #8
    400c:	0001072e 	andeq	r0, r1, lr, lsr #14
    4010:	00886800 	addeq	r6, r8, r0, lsl #16
    4014:	00002c00 	andeq	r2, r0, r0, lsl #24
    4018:	929c0100 	addsls	r0, ip, #0, 2
    401c:	2200000d 	andcs	r0, r0, #13
    4020:	2e010070 	mcrcs	0, 0, r0, cr1, cr0, {3}
    4024:	00000107 	andeq	r0, r0, r7, lsl #2
    4028:	000008f3 	strdeq	r0, [r0], -r3
    402c:	0001312d 	andeq	r3, r1, sp, lsr #2
    4030:	072e0100 	streq	r0, [lr, -r0, lsl #2]!
    4034:	1e000001 	cdpne	0, 0, cr0, cr0, cr1, {0}
    4038:	23000009 	movwcs	r0, #9
    403c:	00000880 	andeq	r0, r0, r0, lsl #17
    4040:	00252e01 	eoreq	r2, r5, r1, lsl #28
    4044:	52010000 	andpl	r0, r1, #0
    4048:	6e656c27 	cdpvs	12, 6, cr6, cr5, cr7, {1}
    404c:	252f0100 	strcs	r0, [pc, #-256]!	; 3f54 <_start-0x40ac>
    4050:	01000000 	mrseq	r0, (UNDEF: 0)
    4054:	9c2c0051 	stcls	0, cr0, [ip], #-324	; 0xfffffebc
    4058:	01000008 	tsteq	r0, r8
    405c:	00002527 	andeq	r2, r0, r7, lsr #10
    4060:	00885400 	addeq	r5, r8, r0, lsl #8
    4064:	00001400 	andeq	r1, r0, r0, lsl #8
    4068:	b99c0100 	ldmiblt	ip, {r8}
    406c:	2200000d 	andcs	r0, r0, #13
    4070:	27010063 	strcs	r0, [r1, -r3, rrx]
    4074:	00000025 	andeq	r0, r0, r5, lsr #32
    4078:	0000093f 	andeq	r0, r0, pc, lsr r9
    407c:	08603000 	stmdaeq	r0!, {ip, sp}^
    4080:	1f010000 	svcne	0x00010000
    4084:	00008a70 	andeq	r8, r0, r0, ror sl
    4088:	00000054 	andeq	r0, r0, r4, asr r0
    408c:	0e3d9c01 	cdpeq	12, 3, cr9, cr13, cr1, {0}
    4090:	942d0000 	strtls	r0, [sp], #-0
    4094:	01000008 	tsteq	r0, r8
    4098:	0008981f 	andeq	r9, r8, pc, lsl r8
    409c:	00096d00 	andeq	r6, r9, r0, lsl #26
    40a0:	08862d00 	stmeq	r6, {r8, sl, fp, sp}
    40a4:	1f010000 	svcne	0x00010000
    40a8:	000008b8 			; <UNDEFINED> instruction: 0x000008b8
    40ac:	0000098e 	andeq	r0, r0, lr, lsl #19
    40b0:	00024525 	andeq	r4, r2, r5, lsr #10
    40b4:	000e4d00 	andeq	r4, lr, r0, lsl #26
    40b8:	5c030500 	cfstr32pl	mvfx0, [r3], {-0}
    40bc:	2b000096 	blcs	431c <_start-0x3ce4>
    40c0:	00008a98 	muleq	r0, r8, sl
    40c4:	00000e52 	andeq	r0, r0, r2, asr lr
    40c8:	008aac29 	addeq	sl, sl, r9, lsr #24
    40cc:	000e5d00 	andeq	r5, lr, r0, lsl #26
    40d0:	000e3300 	andeq	r3, lr, r0, lsl #6
    40d4:	50012a00 	andpl	r2, r1, r0, lsl #20
    40d8:	96c40305 	strbls	r0, [r4], r5, lsl #6
    40dc:	012a0000 			; <UNDEFINED> instruction: 0x012a0000
    40e0:	78030551 	stmdavc	r3, {r0, r4, r6, r8, sl}
    40e4:	2a000096 	bcs	4344 <_start-0x3cbc>
    40e8:	03055201 	movweq	r5, #20993	; 0x5201
    40ec:	0000965c 	andeq	r9, r0, ip, asr r6
    40f0:	0253012a 	subseq	r0, r3, #-2147483638	; 0x8000000a
    40f4:	2b002008 	blcs	c11c <__bss_end__+0x25a4>
    40f8:	00008ab0 			; <UNDEFINED> instruction: 0x00008ab0
    40fc:	00000e68 	andeq	r0, r0, r8, ror #28
    4100:	01140800 	tsteq	r4, r0, lsl #16
    4104:	0e4d0000 	cdpeq	0, 4, cr0, cr13, cr0, {0}
    4108:	c7090000 	strgt	r0, [r9, -r0]
    410c:	0e000000 	cdpeq	0, 0, cr0, cr0, cr0, {0}
    4110:	0e3d0e00 	cdpeq	14, 3, cr0, cr13, cr0, {0}
    4114:	20310000 	eorscs	r0, r1, r0
    4118:	20000002 	andcs	r0, r0, r2
    411c:	06000002 	streq	r0, [r0], -r2
    4120:	07a8311e 			; <UNDEFINED> instruction: 0x07a8311e
    4124:	07a80000 	streq	r0, [r8, r0]!
    4128:	29060000 	stmdbcs	r6, {}	; <UNPREDICTABLE>
    412c:	0002e231 	andeq	lr, r2, r1, lsr r2
    4130:	0002e200 	andeq	lr, r2, r0, lsl #4
    4134:	00650600 	rsbeq	r0, r5, r0, lsl #12
    4138:	000008eb 	andeq	r0, r0, fp, ror #17
    413c:	0b240004 	bleq	904154 <__bss_end__+0x8fa5dc>
    4140:	01040000 	mrseq	r0, (UNDEF: 4)
    4144:	000007be 			; <UNDEFINED> instruction: 0x000007be
    4148:	0008b70c 	andeq	fp, r8, ip, lsl #14
    414c:	00082500 	andeq	r2, r8, r0, lsl #10
    4150:	008d8400 	addeq	r8, sp, r0, lsl #8
    4154:	00003400 	andeq	r3, r0, r0, lsl #8
    4158:	00065b00 	andeq	r5, r6, r0, lsl #22
    415c:	05040200 	streq	r0, [r4, #-512]	; 0xfffffe00
    4160:	00746e69 	rsbseq	r6, r4, r9, ror #28
    4164:	d7070403 	strle	r0, [r7, -r3, lsl #8]
    4168:	03000000 	movweq	r0, #0
    416c:	03540601 	cmpeq	r4, #1048576	; 0x100000
    4170:	02030000 	andeq	r0, r3, #0
    4174:	00036905 	andeq	r6, r3, r5, lsl #18
    4178:	05040300 	streq	r0, [r4, #-768]	; 0xfffffd00
    417c:	00000118 	andeq	r0, r0, r8, lsl r1
    4180:	13050803 	movwne	r0, #22531	; 0x5803
    4184:	03000001 	movweq	r0, #1
    4188:	03520801 	cmpeq	r2, #65536	; 0x10000
    418c:	02030000 	andeq	r0, r3, #0
    4190:	00026307 	andeq	r6, r2, r7, lsl #6
    4194:	07040300 	streq	r0, [r4, -r0, lsl #6]
    4198:	000000d2 	ldrdeq	r0, [r0], -r2
    419c:	cd070803 	stcgt	8, cr0, [r7, #-12]
    41a0:	04000000 	streq	r0, [r0], #-0
    41a4:	00000340 	andeq	r0, r0, r0, asr #6
    41a8:	00250702 	eoreq	r0, r5, r2, lsl #14
    41ac:	2f040000 	svccs	0x00040000
    41b0:	03000003 	movweq	r0, #3
    41b4:	0000412c 	andeq	r4, r0, ip, lsr #2
    41b8:	041d0400 	ldreq	r0, [sp], #-1024	; 0xfffffc00
    41bc:	72030000 	andvc	r0, r3, #0
    41c0:	00000041 	andeq	r0, r0, r1, asr #32
    41c4:	0002b005 	andeq	fp, r2, r5
    41c8:	01650400 	cmneq	r5, r0, lsl #8
    41cc:	0000002c 	andeq	r0, r0, ip, lsr #32
    41d0:	a6030406 	strge	r0, [r3], -r6, lsl #8
    41d4:	000000b7 	strheq	r0, [r0], -r7
    41d8:	0002aa07 	andeq	sl, r2, r7, lsl #20
    41dc:	8ca80300 	stchi	3, cr0, [r8]
    41e0:	07000000 	streq	r0, [r0, -r0]
    41e4:	00000219 	andeq	r0, r0, r9, lsl r2
    41e8:	00b7a903 	adcseq	sl, r7, r3, lsl #18
    41ec:	08000000 	stmdaeq	r0, {}	; <UNPREDICTABLE>
    41f0:	0000004f 	andeq	r0, r0, pc, asr #32
    41f4:	000000c7 	andeq	r0, r0, r7, asr #1
    41f8:	0000c709 	andeq	ip, r0, r9, lsl #14
    41fc:	03000300 	movweq	r0, #768	; 0x300
    4200:	02f80704 	rscseq	r0, r8, #4, 14	; 0x100000
    4204:	080a0000 	stmdaeq	sl, {}	; <UNPREDICTABLE>
    4208:	00efa303 	rsceq	sl, pc, r3, lsl #6
    420c:	070b0000 	streq	r0, [fp, -r0]
    4210:	03000004 	movweq	r0, #4
    4214:	000025a5 	andeq	r2, r0, r5, lsr #11
    4218:	0f0b0000 	svceq	0x000b0000
    421c:	03000004 	movweq	r0, #4
    4220:	000098aa 	andeq	r9, r0, sl, lsr #17
    4224:	04000400 	streq	r0, [r0], #-1024	; 0xfffffc00
    4228:	00000391 	muleq	r0, r1, r3
    422c:	00ceab03 	sbceq	sl, lr, r3, lsl #22
    4230:	cd040000 	stcgt	0, cr0, [r4, #-0]
    4234:	03000001 	movweq	r0, #1
    4238:	00006baf 	andeq	r6, r0, pc, lsr #23
    423c:	0d040c00 	stceq	12, cr0, [r4, #-0]
    4240:	00010d04 	andeq	r0, r1, r4, lsl #26
    4244:	08010300 	stmdaeq	r1, {r8, r9}
    4248:	0000035b 	andeq	r0, r0, fp, asr r3
    424c:	00010d0e 	andeq	r0, r1, lr, lsl #26
    4250:	046c0400 	strbteq	r0, [ip], #-1024	; 0xfffffc00
    4254:	16050000 	strne	r0, [r5], -r0
    4258:	0000005d 	andeq	r0, r0, sp, asr r0
    425c:	0001de0f 	andeq	sp, r1, pc, lsl #28
    4260:	2d051800 	stccs	8, cr1, [r5, #-0]
    4264:	00000177 	andeq	r0, r0, r7, ror r1
    4268:	0003b20b 	andeq	fp, r3, fp, lsl #4
    426c:	772f0500 	strvc	r0, [pc, -r0, lsl #10]!
    4270:	00000001 	andeq	r0, r0, r1
    4274:	006b5f10 	rsbeq	r5, fp, r0, lsl pc
    4278:	00253005 	eoreq	r3, r5, r5
    427c:	0b040000 	bleq	104284 <__bss_end__+0xfa70c>
    4280:	000003e9 	andeq	r0, r0, r9, ror #7
    4284:	00253005 	eoreq	r3, r5, r5
    4288:	0b080000 	bleq	204290 <__bss_end__+0x1fa718>
    428c:	000001c7 	andeq	r0, r0, r7, asr #3
    4290:	00253005 	eoreq	r3, r5, r5
    4294:	0b0c0000 	bleq	30429c <__bss_end__+0x2fa724>
    4298:	000004bc 			; <UNDEFINED> instruction: 0x000004bc
    429c:	00253005 	eoreq	r3, r5, r5
    42a0:	10100000 	andsne	r0, r0, r0
    42a4:	0500785f 	streq	r7, [r0, #-2143]	; 0xfffff7a1
    42a8:	00017d31 	andeq	r7, r1, r1, lsr sp
    42ac:	0d001400 	cfstrseq	mvf1, [r0, #-0]
    42b0:	00012404 	andeq	r2, r1, r4, lsl #8
    42b4:	01190800 	tsteq	r9, r0, lsl #16
    42b8:	018d0000 	orreq	r0, sp, r0
    42bc:	c7090000 	strgt	r0, [r9, -r0]
    42c0:	00000000 	andeq	r0, r0, r0
    42c4:	020b0f00 	andeq	r0, fp, #0, 30
    42c8:	05240000 	streq	r0, [r4, #-0]!
    42cc:	00020635 	andeq	r0, r2, r5, lsr r6
    42d0:	010a0b00 	tsteq	sl, r0, lsl #22
    42d4:	37050000 	strcc	r0, [r5, -r0]
    42d8:	00000025 	andeq	r0, r0, r5, lsr #32
    42dc:	04250b00 	strteq	r0, [r5], #-2816	; 0xfffff500
    42e0:	38050000 	stmdacc	r5, {}	; <UNPREDICTABLE>
    42e4:	00000025 	andeq	r0, r0, r5, lsr #32
    42e8:	01360b04 	teqeq	r6, r4, lsl #22
    42ec:	39050000 	stmdbcc	r5, {}	; <UNPREDICTABLE>
    42f0:	00000025 	andeq	r0, r0, r5, lsr #32
    42f4:	05640b08 	strbeq	r0, [r4, #-2824]!	; 0xfffff4f8
    42f8:	3a050000 	bcc	144300 <__bss_end__+0x13a788>
    42fc:	00000025 	andeq	r0, r0, r5, lsr #32
    4300:	03130b0c 	tsteq	r3, #12, 22	; 0x3000
    4304:	3b050000 	blcc	14430c <__bss_end__+0x13a794>
    4308:	00000025 	andeq	r0, r0, r5, lsr #32
    430c:	02d80b10 	sbcseq	r0, r8, #16, 22	; 0x4000
    4310:	3c050000 	stccc	0, cr0, [r5], {-0}
    4314:	00000025 	andeq	r0, r0, r5, lsr #32
    4318:	04c10b14 	strbeq	r0, [r1], #2836	; 0xb14
    431c:	3d050000 	stccc	0, cr0, [r5, #-0]
    4320:	00000025 	andeq	r0, r0, r5, lsr #32
    4324:	03730b18 	cmneq	r3, #24, 22	; 0x6000
    4328:	3e050000 	cdpcc	0, 0, cr0, cr5, cr0, {0}
    432c:	00000025 	andeq	r0, r0, r5, lsr #32
    4330:	052b0b1c 	streq	r0, [fp, #-2844]!	; 0xfffff4e4
    4334:	3f050000 	svccc	0x00050000
    4338:	00000025 	andeq	r0, r0, r5, lsr #32
    433c:	45110020 	ldrmi	r0, [r1, #-32]	; 0xffffffe0
    4340:	08000001 	stmdaeq	r0, {r0}
    4344:	46480501 	strbmi	r0, [r8], -r1, lsl #10
    4348:	0b000002 	bleq	4358 <_start-0x3ca8>
    434c:	000001ba 			; <UNDEFINED> instruction: 0x000001ba
    4350:	02464905 	subeq	r4, r6, #81920	; 0x14000
    4354:	0b000000 	bleq	435c <_start-0x3ca4>
    4358:	00000000 	andeq	r0, r0, r0
    435c:	02464a05 	subeq	r4, r6, #20480	; 0x5000
    4360:	12800000 	addne	r0, r0, #0
    4364:	0000045e 	andeq	r0, r0, lr, asr r4
    4368:	01194c05 	tsteq	r9, r5, lsl #24
    436c:	01000000 	mrseq	r0, (UNDEF: 0)
    4370:	00016a12 	andeq	r6, r1, r2, lsl sl
    4374:	194f0500 	stmdbne	pc, {r8, sl}^	; <UNPREDICTABLE>
    4378:	04000001 	streq	r0, [r0], #-1
    437c:	05080001 	streq	r0, [r8, #-1]
    4380:	56000001 	strpl	r0, [r0], -r1
    4384:	09000002 	stmdbeq	r0, {r1}
    4388:	000000c7 	andeq	r0, r0, r7, asr #1
    438c:	1c11001f 	ldcne	0, cr0, [r1], {31}
    4390:	90000003 	andls	r0, r0, r3
    4394:	945b0501 	ldrbls	r0, [fp], #-1281	; 0xfffffaff
    4398:	0b000002 	bleq	43a8 <_start-0x3c58>
    439c:	000003b2 			; <UNDEFINED> instruction: 0x000003b2
    43a0:	02945c05 	addseq	r5, r4, #1280	; 0x500
    43a4:	0b000000 	bleq	43ac <_start-0x3c54>
    43a8:	000003ca 	andeq	r0, r0, sl, asr #7
    43ac:	00255d05 	eoreq	r5, r5, r5, lsl #26
    43b0:	0b040000 	bleq	1043b8 <__bss_end__+0xfa840>
    43b4:	000001c2 	andeq	r0, r0, r2, asr #3
    43b8:	029a5f05 	addseq	r5, sl, #5, 30
    43bc:	0b080000 	bleq	2043c4 <__bss_end__+0x1fa84c>
    43c0:	00000145 	andeq	r0, r0, r5, asr #2
    43c4:	02066005 	andeq	r6, r6, #5
    43c8:	00880000 	addeq	r0, r8, r0
    43cc:	0256040d 	subseq	r0, r6, #218103808	; 0xd000000
    43d0:	aa080000 	bge	2043d8 <__bss_end__+0x1fa860>
    43d4:	aa000002 	bge	43e4 <_start-0x3c1c>
    43d8:	09000002 	stmdbeq	r0, {r1}
    43dc:	000000c7 	andeq	r0, r0, r7, asr #1
    43e0:	040d001f 	streq	r0, [sp], #-31	; 0xffffffe1
    43e4:	000002b0 			; <UNDEFINED> instruction: 0x000002b0
    43e8:	037d0f13 	cmneq	sp, #19, 30	; 0x4c
    43ec:	05080000 	streq	r0, [r8, #-0]
    43f0:	0002d673 	andeq	sp, r2, r3, ror r6
    43f4:	01300b00 	teqeq	r0, r0, lsl #22
    43f8:	74050000 	strvc	r0, [r5], #-0
    43fc:	000002d6 	ldrdeq	r0, [r0], -r6
    4400:	00820b00 	addeq	r0, r2, r0, lsl #22
    4404:	75050000 	strvc	r0, [r5, #-0]
    4408:	00000025 	andeq	r0, r0, r5, lsr #32
    440c:	040d0004 	streq	r0, [sp], #-4
    4410:	0000004f 	andeq	r0, r0, pc, asr #32
    4414:	00039c0f 	andeq	r9, r3, pc, lsl #24
    4418:	b3056800 	movwlt	r6, #22528	; 0x5800
    441c:	00000406 	andeq	r0, r0, r6, lsl #8
    4420:	00705f10 	rsbseq	r5, r0, r0, lsl pc
    4424:	02d6b405 	sbcseq	fp, r6, #83886080	; 0x5000000
    4428:	10000000 	andne	r0, r0, r0
    442c:	0500725f 	streq	r7, [r0, #-607]	; 0xfffffda1
    4430:	000025b5 			; <UNDEFINED> instruction: 0x000025b5
    4434:	5f100400 	svcpl	0x00100400
    4438:	b6050077 			; <UNDEFINED> instruction: 0xb6050077
    443c:	00000025 	andeq	r0, r0, r5, lsr #32
    4440:	01630b08 	cmneq	r3, r8, lsl #22
    4444:	b7050000 	strlt	r0, [r5, -r0]
    4448:	0000003a 	andeq	r0, r0, sl, lsr r0
    444c:	023f0b0c 	eorseq	r0, pc, #12, 22	; 0x3000
    4450:	b8050000 	stmdalt	r5, {}	; <UNPREDICTABLE>
    4454:	0000003a 	andeq	r0, r0, sl, lsr r0
    4458:	625f100e 	subsvs	r1, pc, #14
    445c:	b9050066 	stmdblt	r5, {r1, r2, r5, r6}
    4460:	000002b1 			; <UNDEFINED> instruction: 0x000002b1
    4464:	00e40b10 	rsceq	r0, r4, r0, lsl fp
    4468:	ba050000 	blt	144470 <__bss_end__+0x13a8f8>
    446c:	00000025 	andeq	r0, r0, r5, lsr #32
    4470:	01530b18 	cmpeq	r3, r8, lsl fp
    4474:	c1050000 	mrsgt	r0, (UNDEF: 5)
    4478:	00000105 	andeq	r0, r0, r5, lsl #2
    447c:	04b60b1c 	ldrteq	r0, [r6], #2844	; 0xb1c
    4480:	c3050000 	movwgt	r0, #20480	; 0x5000
    4484:	00000561 	andeq	r0, r0, r1, ror #10
    4488:	029b0b20 	addseq	r0, fp, #32, 22	; 0x8000
    448c:	c5050000 	strgt	r0, [r5, #-0]
    4490:	0000058b 	andeq	r0, r0, fp, lsl #11
    4494:	04170b24 	ldreq	r0, [r7], #-2852	; 0xfffff4dc
    4498:	c8050000 	stmdagt	r5, {}	; <UNPREDICTABLE>
    449c:	000005af 	andeq	r0, r0, pc, lsr #11
    44a0:	05450b28 	strbeq	r0, [r5, #-2856]	; 0xfffff4d8
    44a4:	c9050000 	stmdbgt	r5, {}	; <UNPREDICTABLE>
    44a8:	000005c9 	andeq	r0, r0, r9, asr #11
    44ac:	755f102c 	ldrbvc	r1, [pc, #-44]	; 4488 <_start-0x3b78>
    44b0:	cc050062 	stcgt	0, cr0, [r5], {98}	; 0x62
    44b4:	000002b1 			; <UNDEFINED> instruction: 0x000002b1
    44b8:	755f1030 	ldrbvc	r1, [pc, #-48]	; 4490 <_start-0x3b70>
    44bc:	cd050070 	stcgt	0, cr0, [r5, #-448]	; 0xfffffe40
    44c0:	000002d6 	ldrdeq	r0, [r0], -r6
    44c4:	755f1038 	ldrbvc	r1, [pc, #-56]	; 4494 <_start-0x3b6c>
    44c8:	ce050072 	mcrgt	0, 0, r0, cr5, cr2, {3}
    44cc:	00000025 	andeq	r0, r0, r5, lsr #32
    44d0:	012a0b3c 			; <UNDEFINED> instruction: 0x012a0b3c
    44d4:	d1050000 	mrsle	r0, (UNDEF: 5)
    44d8:	000005cf 	andeq	r0, r0, pc, asr #11
    44dc:	051d0b40 	ldreq	r0, [sp, #-2880]	; 0xfffff4c0
    44e0:	d2050000 	andle	r0, r5, #0
    44e4:	000005df 	ldrdeq	r0, [r0], -pc	; <UNPREDICTABLE>
    44e8:	6c5f1043 	mrrcvs	0, 4, r1, pc, cr3	; <UNPREDICTABLE>
    44ec:	d5050062 	strle	r0, [r5, #-98]	; 0xffffff9e
    44f0:	000002b1 			; <UNDEFINED> instruction: 0x000002b1
    44f4:	01790b44 	cmneq	r9, r4, asr #22
    44f8:	d8050000 	stmdale	r5, {}	; <UNPREDICTABLE>
    44fc:	00000025 	andeq	r0, r0, r5, lsr #32
    4500:	01930b4c 	orrseq	r0, r3, ip, asr #22
    4504:	d9050000 	stmdble	r5, {}	; <UNPREDICTABLE>
    4508:	00000076 	andeq	r0, r0, r6, ror r0
    450c:	0c2f0b50 			; <UNDEFINED> instruction: 0x0c2f0b50
    4510:	dc050000 	stcle	0, cr0, [r5], {-0}
    4514:	00000424 	andeq	r0, r0, r4, lsr #8
    4518:	0c030b54 			; <UNDEFINED> instruction: 0x0c030b54
    451c:	e0050000 	and	r0, r5, r0
    4520:	000000fa 	strdeq	r0, [r0], -sl
    4524:	03a40b58 			; <UNDEFINED> instruction: 0x03a40b58
    4528:	e2050000 	and	r0, r5, #0
    452c:	000000ef 	andeq	r0, r0, pc, ror #1
    4530:	02c10b5c 	sbceq	r0, r1, #92, 22	; 0x17000
    4534:	e3050000 	movw	r0, #20480	; 0x5000
    4538:	00000025 	andeq	r0, r0, r5, lsr #32
    453c:	25140064 	ldrcs	r0, [r4, #-100]	; 0xffffff9c
    4540:	24000000 	strcs	r0, [r0], #-0
    4544:	15000004 	strne	r0, [r0, #-4]
    4548:	00000424 	andeq	r0, r0, r4, lsr #8
    454c:	00010515 	andeq	r0, r1, r5, lsl r5
    4550:	01071500 	tsteq	r7, r0, lsl #10
    4554:	25150000 	ldrcs	r0, [r5, #-0]
    4558:	00000000 	andeq	r0, r0, r0
    455c:	042f040d 	strteq	r0, [pc], #-1037	; 4564 <_start-0x3a9c>
    4560:	240e0000 	strcs	r0, [lr], #-0
    4564:	16000004 	strne	r0, [r0], -r4
    4568:	000003f1 	strdeq	r0, [r0], -r1
    456c:	38050428 	stmdacc	r5, {r3, r5, sl}
    4570:	00056102 	andeq	r6, r5, r2, lsl #2
    4574:	03621700 	cmneq	r2, #0, 14
    4578:	3a050000 	bcc	144580 <__bss_end__+0x13aa08>
    457c:	00002502 	andeq	r2, r0, r2, lsl #10
    4580:	72170000 	andsvc	r0, r7, #0
    4584:	05000001 	streq	r0, [r0, #-1]
    4588:	0636023f 			; <UNDEFINED> instruction: 0x0636023f
    458c:	17040000 	strne	r0, [r4, -r0]
    4590:	0000022f 	andeq	r0, r0, pc, lsr #4
    4594:	36023f05 	strcc	r3, [r2], -r5, lsl #30
    4598:	08000006 	stmdaeq	r0, {r1, r2}
    459c:	0001d617 	andeq	sp, r1, r7, lsl r6
    45a0:	023f0500 	eorseq	r0, pc, #0, 10
    45a4:	00000636 	andeq	r0, r0, r6, lsr r6
    45a8:	03c5170c 	biceq	r1, r5, #12, 14	; 0x300000
    45ac:	41050000 	mrsmi	r0, (UNDEF: 5)
    45b0:	00002502 	andeq	r2, r0, r2, lsl #10
    45b4:	90171000 	andsls	r1, r7, r0
    45b8:	05000000 	streq	r0, [r0, #-0]
    45bc:	08180242 	ldmdaeq	r8, {r1, r6, r9}
    45c0:	17140000 	ldrne	r0, [r4, -r0]
    45c4:	00000494 	muleq	r0, r4, r4
    45c8:	25024405 	strcs	r4, [r2, #-1029]	; 0xfffffbfb
    45cc:	30000000 	andcc	r0, r0, r0
    45d0:	0003cf17 	andeq	ip, r3, r7, lsl pc
    45d4:	02450500 	subeq	r0, r5, #0, 10
    45d8:	00000585 	andeq	r0, r0, r5, lsl #11
    45dc:	03241734 			; <UNDEFINED> instruction: 0x03241734
    45e0:	47050000 	strmi	r0, [r5, -r0]
    45e4:	00002502 	andeq	r2, r0, r2, lsl #10
    45e8:	df173800 	svcle	0x00173800
    45ec:	05000003 	streq	r0, [r0, #-3]
    45f0:	08330249 	ldmdaeq	r3!, {r0, r3, r6, r9}
    45f4:	173c0000 	ldrne	r0, [ip, -r0]!
    45f8:	000002a2 	andeq	r0, r0, r2, lsr #5
    45fc:	77024c05 	strvc	r4, [r2, -r5, lsl #24]
    4600:	40000001 	andmi	r0, r0, r1
    4604:	0001f517 	andeq	pc, r1, r7, lsl r5	; <UNPREDICTABLE>
    4608:	024d0500 	subeq	r0, sp, #0, 10
    460c:	00000025 	andeq	r0, r0, r5, lsr #32
    4610:	055f1744 	ldrbeq	r1, [pc, #-1860]	; 3ed4 <_start-0x412c>
    4614:	4e050000 	cdpmi	0, 0, cr0, cr5, cr0, {0}
    4618:	00017702 	andeq	r7, r1, r2, lsl #14
    461c:	36174800 	ldrcc	r4, [r7], -r0, lsl #16
    4620:	05000003 	streq	r0, [r0, #-3]
    4624:	0839024f 	ldmdaeq	r9!, {r0, r1, r2, r3, r6, r9}
    4628:	174c0000 	strbne	r0, [ip, -r0]
    462c:	00000237 	andeq	r0, r0, r7, lsr r2
    4630:	25025205 	strcs	r5, [r2, #-517]	; 0xfffffdfb
    4634:	50000000 	andpl	r0, r0, r0
    4638:	00018b17 	andeq	r8, r1, r7, lsl fp
    463c:	02530500 	subseq	r0, r3, #0, 10
    4640:	00000107 	andeq	r0, r0, r7, lsl #2
    4644:	0cc51754 	stcleq	7, cr1, [r5], {84}	; 0x54
    4648:	76050000 	strvc	r0, [r5], -r0
    464c:	0007f602 	andeq	pc, r7, r2, lsl #12
    4650:	1c185800 	ldcne	8, cr5, [r8], {-0}
    4654:	05000003 	streq	r0, [r0, #-3]
    4658:	0294027a 	addseq	r0, r4, #-1610612729	; 0xa0000007
    465c:	01480000 	mrseq	r0, (UNDEF: 72)
    4660:	00027618 	andeq	r7, r2, r8, lsl r6
    4664:	027b0500 	rsbseq	r0, fp, #0, 10
    4668:	00000256 	andeq	r0, r0, r6, asr r2
    466c:	0818014c 	ldmdaeq	r8, {r2, r3, r6, r8}
    4670:	05000005 	streq	r0, [r0, #-5]
    4674:	084a027f 	stmdaeq	sl, {r0, r1, r2, r3, r4, r5, r6, r9}^
    4678:	02dc0000 	sbcseq	r0, ip, #0
    467c:	00015b18 	andeq	r5, r1, r8, lsl fp
    4680:	02840500 	addeq	r0, r4, #0, 10
    4684:	000005fb 	strdeq	r0, [r0], -fp
    4688:	401802e0 	andsmi	r0, r8, r0, ror #5
    468c:	05000001 	streq	r0, [r0, #-1]
    4690:	08560285 	ldmdaeq	r6, {r0, r2, r7, r9}^
    4694:	02ec0000 	rsceq	r0, ip, #0
    4698:	06040d00 	streq	r0, [r4], -r0, lsl #26
    469c:	14000004 	strne	r0, [r0], #-4
    46a0:	00000025 	andeq	r0, r0, r5, lsr #32
    46a4:	00000585 	andeq	r0, r0, r5, lsl #11
    46a8:	00042415 	andeq	r2, r4, r5, lsl r4
    46ac:	01051500 	tsteq	r5, r0, lsl #10
    46b0:	85150000 	ldrhi	r0, [r5, #-0]
    46b4:	15000005 	strne	r0, [r0, #-5]
    46b8:	00000025 	andeq	r0, r0, r5, lsr #32
    46bc:	14040d00 	strne	r0, [r4], #-3328	; 0xfffff300
    46c0:	0d000001 	stceq	0, cr0, [r0, #-4]
    46c4:	00056704 	andeq	r6, r5, r4, lsl #14
    46c8:	00811400 	addeq	r1, r1, r0, lsl #8
    46cc:	05af0000 	streq	r0, [pc, #0]!	; 46d4 <_start-0x392c>
    46d0:	24150000 	ldrcs	r0, [r5], #-0
    46d4:	15000004 	strne	r0, [r0, #-4]
    46d8:	00000105 	andeq	r0, r0, r5, lsl #2
    46dc:	00008115 	andeq	r8, r0, r5, lsl r1
    46e0:	00251500 	eoreq	r1, r5, r0, lsl #10
    46e4:	0d000000 	stceq	0, cr0, [r0, #-0]
    46e8:	00059104 	andeq	r9, r5, r4, lsl #2
    46ec:	00251400 	eoreq	r1, r5, r0, lsl #8
    46f0:	05c90000 	strbeq	r0, [r9]
    46f4:	24150000 	ldrcs	r0, [r5], #-0
    46f8:	15000004 	strne	r0, [r0, #-4]
    46fc:	00000105 	andeq	r0, r0, r5, lsl #2
    4700:	b5040d00 	strlt	r0, [r4, #-3328]	; 0xfffff300
    4704:	08000005 	stmdaeq	r0, {r0, r2}
    4708:	0000004f 	andeq	r0, r0, pc, asr #32
    470c:	000005df 	ldrdeq	r0, [r0], -pc	; <UNPREDICTABLE>
    4710:	0000c709 	andeq	ip, r0, r9, lsl #14
    4714:	08000200 	stmdaeq	r0, {r9}
    4718:	0000004f 	andeq	r0, r0, pc, asr #32
    471c:	000005ef 	andeq	r0, r0, pc, ror #11
    4720:	0000c709 	andeq	ip, r0, r9, lsl #14
    4724:	05000000 	streq	r0, [r0, #-0]
    4728:	0000038a 	andeq	r0, r0, sl, lsl #7
    472c:	dc011d05 	stcle	13, cr1, [r1], {5}
    4730:	19000002 	stmdbne	r0, {r1}
    4734:	000004cb 	andeq	r0, r0, fp, asr #9
    4738:	0121050c 			; <UNDEFINED> instruction: 0x0121050c
    473c:	00000630 	andeq	r0, r0, r0, lsr r6
    4740:	0003b217 	andeq	fp, r3, r7, lsl r2
    4744:	01230500 			; <UNDEFINED> instruction: 0x01230500
    4748:	00000630 	andeq	r0, r0, r0, lsr r6
    474c:	02521700 	subseq	r1, r2, #0, 14
    4750:	24050000 	strcs	r0, [r5], #-0
    4754:	00002501 	andeq	r2, r0, r1, lsl #10
    4758:	84170400 	ldrhi	r0, [r7], #-1024	; 0xfffffc00
    475c:	05000003 	streq	r0, [r0, #-3]
    4760:	06360125 	ldrteq	r0, [r6], -r5, lsr #2
    4764:	00080000 	andeq	r0, r8, r0
    4768:	05fb040d 	ldrbeq	r0, [fp, #1037]!	; 0x40d
    476c:	040d0000 	streq	r0, [sp], #-0
    4770:	000005ef 	andeq	r0, r0, pc, ror #11
    4774:	00008819 	andeq	r8, r0, r9, lsl r8
    4778:	3d050e00 	stccc	14, cr0, [r5, #-0]
    477c:	00067101 	andeq	r7, r6, r1, lsl #2
    4780:	03f81700 	mvnseq	r1, #0, 14
    4784:	3e050000 	cdpcc	0, 0, cr0, cr5, cr0, {0}
    4788:	00067101 	andeq	r7, r6, r1, lsl #2
    478c:	3f170000 	svccc	0x00170000
    4790:	05000004 	streq	r0, [r0, #-4]
    4794:	0671013f 			; <UNDEFINED> instruction: 0x0671013f
    4798:	17060000 	strne	r0, [r6, -r0]
    479c:	00000467 	andeq	r0, r0, r7, ror #8
    47a0:	56014005 	strpl	r4, [r1], -r5
    47a4:	0c000000 	stceq	0, cr0, [r0], {-0}
    47a8:	00560800 	subseq	r0, r6, r0, lsl #16
    47ac:	06810000 	streq	r0, [r1], r0
    47b0:	c7090000 	strgt	r0, [r9, -r0]
    47b4:	02000000 	andeq	r0, r0, #0
    47b8:	05d01a00 	ldrbeq	r1, [r0, #2560]	; 0xa00
    47bc:	07820257 			; <UNDEFINED> instruction: 0x07820257
    47c0:	a6170000 	ldrge	r0, [r7], -r0
    47c4:	05000004 	streq	r0, [r0, #-4]
    47c8:	002c0259 	eoreq	r0, ip, r9, asr r2
    47cc:	17000000 	strne	r0, [r0, -r0]
    47d0:	00000451 	andeq	r0, r0, r1, asr r4
    47d4:	07025a05 	streq	r5, [r2, -r5, lsl #20]
    47d8:	04000001 	streq	r0, [r0], #-1
    47dc:	00028b17 	andeq	r8, r2, r7, lsl fp
    47e0:	025b0500 	subseq	r0, fp, #0, 10
    47e4:	00000782 	andeq	r0, r0, r2, lsl #15
    47e8:	05361708 	ldreq	r1, [r6, #-1800]!	; 0xfffff8f8
    47ec:	5c050000 	stcpl	0, cr0, [r5], {-0}
    47f0:	00018d02 	andeq	r8, r1, r2, lsl #26
    47f4:	e6172400 	ldr	r2, [r7], -r0, lsl #8
    47f8:	05000001 	streq	r0, [r0, #-1]
    47fc:	0025025d 	eoreq	r0, r5, sp, asr r2
    4800:	17480000 	strbne	r0, [r8, -r0]
    4804:	000003ad 	andeq	r0, r0, sp, lsr #7
    4808:	64025e05 	strvs	r5, [r2], #-3589	; 0xfffff1fb
    480c:	50000000 	andpl	r0, r0, r0
    4810:	00054c17 	andeq	r4, r5, r7, lsl ip
    4814:	025f0500 	subseq	r0, pc, #0, 10
    4818:	0000063c 	andeq	r0, r0, ip, lsr r6
    481c:	03b81758 			; <UNDEFINED> instruction: 0x03b81758
    4820:	60050000 	andvs	r0, r5, r0
    4824:	0000ef02 	andeq	lr, r0, r2, lsl #30
    4828:	51176800 	tstpl	r7, r0, lsl #16
    482c:	05000005 	streq	r0, [r0, #-5]
    4830:	00ef0261 	rsceq	r0, pc, r1, ror #4
    4834:	17700000 	ldrbne	r0, [r0, -r0]!
    4838:	000000fc 	strdeq	r0, [r0], -ip
    483c:	ef026205 	svc	0x00026205
    4840:	78000000 	stmdavc	r0, {}	; <UNPREDICTABLE>
    4844:	0004fe17 	andeq	pc, r4, r7, lsl lr	; <UNPREDICTABLE>
    4848:	02630500 	rsbeq	r0, r3, #0, 10
    484c:	00000792 	muleq	r0, r2, r7
    4850:	027f1780 	rsbseq	r1, pc, #128, 14	; 0x2000000
    4854:	64050000 	strvs	r0, [r5], #-0
    4858:	0007a202 	andeq	sl, r7, r2, lsl #4
    485c:	74178800 	ldrvc	r8, [r7], #-2048	; 0xfffff800
    4860:	05000004 	streq	r0, [r0, #-4]
    4864:	00250265 	eoreq	r0, r5, r5, ror #4
    4868:	17a00000 	strne	r0, [r0, r0]!
    486c:	000001ac 	andeq	r0, r0, ip, lsr #3
    4870:	ef026605 	svc	0x00026605
    4874:	a4000000 	strge	r0, [r0], #-0
    4878:	0000ed17 	andeq	lr, r0, r7, lsl sp
    487c:	02670500 	rsbeq	r0, r7, #0, 10
    4880:	000000ef 	andeq	r0, r0, pc, ror #1
    4884:	019b17ac 	orrseq	r1, fp, ip, lsr #15
    4888:	68050000 	stmdavs	r5, {}	; <UNPREDICTABLE>
    488c:	0000ef02 	andeq	lr, r0, r2, lsl #30
    4890:	ad17b400 	cfldrsge	mvf11, [r7, #-0]
    4894:	05000000 	streq	r0, [r0, #-0]
    4898:	00ef0269 	rsceq	r0, pc, r9, ror #4
    489c:	17bc0000 	ldrne	r0, [ip, r0]!
    48a0:	000000bc 	strheq	r0, [r0], -ip
    48a4:	ef026a05 	svc	0x00026a05
    48a8:	c4000000 	strgt	r0, [r0], #-0
    48ac:	00036017 	andeq	r6, r3, r7, lsl r0
    48b0:	026b0500 	rsbeq	r0, fp, #0, 10
    48b4:	00000025 	andeq	r0, r0, r5, lsr #32
    48b8:	0d0800cc 	stceq	0, cr0, [r8, #-816]	; 0xfffffcd0
    48bc:	92000001 	andls	r0, r0, #1
    48c0:	09000007 	stmdbeq	r0, {r0, r1, r2}
    48c4:	000000c7 	andeq	r0, r0, r7, asr #1
    48c8:	0d080019 	stceq	0, cr0, [r8, #-100]	; 0xffffff9c
    48cc:	a2000001 	andge	r0, r0, #1
    48d0:	09000007 	stmdbeq	r0, {r0, r1, r2}
    48d4:	000000c7 	andeq	r0, r0, r7, asr #1
    48d8:	0d080007 	stceq	0, cr0, [r8, #-28]	; 0xffffffe4
    48dc:	b2000001 	andlt	r0, r0, #1
    48e0:	09000007 	stmdbeq	r0, {r0, r1, r2}
    48e4:	000000c7 	andeq	r0, r0, r7, asr #1
    48e8:	f01a0017 			; <UNDEFINED> instruction: 0xf01a0017
    48ec:	d6027005 	strle	r7, [r2], -r5
    48f0:	17000007 	strne	r0, [r0, -r7]
    48f4:	0000030c 	andeq	r0, r0, ip, lsl #6
    48f8:	d6027305 	strle	r7, [r2], -r5, lsl #6
    48fc:	00000007 	andeq	r0, r0, r7
    4900:	0002ef17 	andeq	lr, r2, r7, lsl pc
    4904:	02740500 	rsbseq	r0, r4, #0, 10
    4908:	000007e6 	andeq	r0, r0, r6, ror #15
    490c:	d6080078 			; <UNDEFINED> instruction: 0xd6080078
    4910:	e6000002 	str	r0, [r0], -r2
    4914:	09000007 	stmdbeq	r0, {r0, r1, r2}
    4918:	000000c7 	andeq	r0, r0, r7, asr #1
    491c:	2c08001d 	stccs	0, cr0, [r8], {29}
    4920:	f6000000 			; <UNDEFINED> instruction: 0xf6000000
    4924:	09000007 	stmdbeq	r0, {r0, r1, r2}
    4928:	000000c7 	andeq	r0, r0, r7, asr #1
    492c:	f01b001d 			; <UNDEFINED> instruction: 0xf01b001d
    4930:	18025505 	stmdane	r2, {r0, r2, r8, sl, ip, lr}
    4934:	1c000008 	stcne	0, cr0, [r0], {8}
    4938:	000003f1 	strdeq	r0, [r0], -r1
    493c:	81026c05 	tsthi	r2, r5, lsl #24
    4940:	1c000006 	stcne	0, cr0, [r0], {6}
    4944:	00000523 	andeq	r0, r0, r3, lsr #10
    4948:	b2027505 	andlt	r7, r2, #20971520	; 0x1400000
    494c:	00000007 	andeq	r0, r0, r7
    4950:	00010d08 	andeq	r0, r1, r8, lsl #26
    4954:	00082800 	andeq	r2, r8, r0, lsl #16
    4958:	00c70900 	sbceq	r0, r7, r0, lsl #18
    495c:	00180000 	andseq	r0, r8, r0
    4960:	0008331d 	andeq	r3, r8, sp, lsl r3
    4964:	04241500 	strteq	r1, [r4], #-1280	; 0xfffffb00
    4968:	0d000000 	stceq	0, cr0, [r0, #-0]
    496c:	00082804 	andeq	r2, r8, r4, lsl #16
    4970:	77040d00 	strvc	r0, [r4, -r0, lsl #26]
    4974:	1d000001 	stcne	0, cr0, [r0, #-4]
    4978:	0000084a 	andeq	r0, r0, sl, asr #16
    497c:	00002515 	andeq	r2, r0, r5, lsl r5
    4980:	040d0000 	streq	r0, [sp], #-0
    4984:	00000850 	andeq	r0, r0, r0, asr r8
    4988:	083f040d 	ldmdaeq	pc!, {r0, r2, r3, sl}	; <UNPREDICTABLE>
    498c:	ef080000 	svc	0x00080000
    4990:	66000005 	strvs	r0, [r0], -r5
    4994:	09000008 	stmdbeq	r0, {r3}
    4998:	000000c7 	andeq	r0, r0, r7, asr #1
    499c:	881e0002 	ldmdahi	lr, {r1}
    49a0:	05000004 	streq	r0, [r0, #-4]
    49a4:	042402fd 	strteq	r0, [r4], #-765	; 0xfffffd03
    49a8:	811e0000 	tsthi	lr, r0
    49ac:	05000004 	streq	r0, [r0, #-4]
    49b0:	042a02fe 	strteq	r0, [sl], #-766	; 0xfffffd02
    49b4:	25140000 	ldrcs	r0, [r4, #-0]
    49b8:	8d000000 	stchi	0, cr0, [r0, #-0]
    49bc:	15000008 	strne	r0, [r0, #-8]
    49c0:	00000025 	andeq	r0, r0, r5, lsr #32
    49c4:	01ff1f00 	mvnseq	r1, r0, lsl #30
    49c8:	1d060000 	stcne	0, cr0, [r6, #-0]
    49cc:	00000898 	muleq	r0, r8, r8
    49d0:	087e040d 	ldmdaeq	lr!, {r0, r2, r3, sl}^
    49d4:	25140000 	ldrcs	r0, [r4, #-0]
    49d8:	ad000000 	stcge	0, cr0, [r0, #-0]
    49dc:	15000008 	strne	r0, [r0, #-8]
    49e0:	00000585 	andeq	r0, r0, r5, lsl #11
    49e4:	08b21f00 	ldmeq	r2!, {r8, r9, sl, fp, ip}
    49e8:	22060000 	andcs	r0, r6, #0
    49ec:	000008b8 			; <UNDEFINED> instruction: 0x000008b8
    49f0:	089e040d 	ldmeq	lr, {r0, r2, r3, sl}
    49f4:	ad200000 	stcge	0, cr0, [r0, #-0]
    49f8:	01000008 	tsteq	r0, r8
    49fc:	e403050c 	str	r0, [r3], #-1292	; 0xfffffaf4
    4a00:	21000092 	swpcs	r0, r2, [r0]	; <UNPREDICTABLE>
    4a04:	000008a9 	andeq	r0, r0, r9, lsr #17
    4a08:	00250401 	eoreq	r0, r5, r1, lsl #8
    4a0c:	8d840000 	stchi	0, cr0, [r4]
    4a10:	00340000 	eorseq	r0, r4, r0
    4a14:	9c010000 	stcls	0, cr0, [r1], {-0}
    4a18:	01007022 	tsteq	r0, r2, lsr #32
    4a1c:	00058504 	andeq	r8, r5, r4, lsl #10
    4a20:	0009af00 	andeq	sl, r9, r0, lsl #30
    4a24:	3d000000 	stccc	0, cr0, [r0, #-0]
    4a28:	04000009 	streq	r0, [r0], #-9
    4a2c:	000ce000 	andeq	lr, ip, r0
    4a30:	be010400 	cfcpyslt	mvf0, mvf1
    4a34:	0c000007 	stceq	0, cr0, [r0], {7}
    4a38:	000008eb 	andeq	r0, r0, fp, ror #17
    4a3c:	00000825 	andeq	r0, r0, r5, lsr #16
    4a40:	00008db8 			; <UNDEFINED> instruction: 0x00008db8
    4a44:	0000003c 	andeq	r0, r0, ip, lsr r0
    4a48:	0000073a 	andeq	r0, r0, sl, lsr r7
    4a4c:	69050402 	stmdbvs	r5, {r1, sl}
    4a50:	0300746e 	movweq	r7, #1134	; 0x46e
    4a54:	00d70704 	sbcseq	r0, r7, r4, lsl #14
    4a58:	01030000 	mrseq	r0, (UNDEF: 3)
    4a5c:	00035406 	andeq	r5, r3, r6, lsl #8
    4a60:	05020300 	streq	r0, [r2, #-768]	; 0xfffffd00
    4a64:	00000369 	andeq	r0, r0, r9, ror #6
    4a68:	18050403 	stmdane	r5, {r0, r1, sl}
    4a6c:	03000001 	movweq	r0, #1
    4a70:	01130508 	tsteq	r3, r8, lsl #10
    4a74:	01030000 	mrseq	r0, (UNDEF: 3)
    4a78:	00035208 	andeq	r5, r3, r8, lsl #4
    4a7c:	07020300 	streq	r0, [r2, -r0, lsl #6]
    4a80:	00000263 	andeq	r0, r0, r3, ror #4
    4a84:	d2070403 	andle	r0, r7, #50331648	; 0x3000000
    4a88:	03000000 	movweq	r0, #0
    4a8c:	00cd0708 	sbceq	r0, sp, r8, lsl #14
    4a90:	40040000 	andmi	r0, r4, r0
    4a94:	02000003 	andeq	r0, r0, #3
    4a98:	00002507 	andeq	r2, r0, r7, lsl #10
    4a9c:	032f0400 			; <UNDEFINED> instruction: 0x032f0400
    4aa0:	2c030000 	stccs	0, cr0, [r3], {-0}
    4aa4:	00000041 	andeq	r0, r0, r1, asr #32
    4aa8:	00041d04 	andeq	r1, r4, r4, lsl #26
    4aac:	41720300 	cmnmi	r2, r0, lsl #6
    4ab0:	05000000 	streq	r0, [r0, #-0]
    4ab4:	000002b0 			; <UNDEFINED> instruction: 0x000002b0
    4ab8:	2c016504 	cfstr32cs	mvfx6, [r1], {4}
    4abc:	06000000 	streq	r0, [r0], -r0
    4ac0:	b7a60304 	strlt	r0, [r6, r4, lsl #6]!
    4ac4:	07000000 	streq	r0, [r0, -r0]
    4ac8:	000002aa 	andeq	r0, r0, sl, lsr #5
    4acc:	008ca803 	addeq	sl, ip, r3, lsl #16
    4ad0:	19070000 	stmdbne	r7, {}	; <UNPREDICTABLE>
    4ad4:	03000002 	movweq	r0, #2
    4ad8:	0000b7a9 	andeq	fp, r0, r9, lsr #15
    4adc:	4f080000 	svcmi	0x00080000
    4ae0:	c7000000 	strgt	r0, [r0, -r0]
    4ae4:	09000000 	stmdbeq	r0, {}	; <UNPREDICTABLE>
    4ae8:	000000c7 	andeq	r0, r0, r7, asr #1
    4aec:	04030003 	streq	r0, [r3], #-3
    4af0:	0002f807 	andeq	pc, r2, r7, lsl #16
    4af4:	03080a00 	movweq	r0, #35328	; 0x8a00
    4af8:	0000efa3 	andeq	lr, r0, r3, lsr #31
    4afc:	04070b00 	streq	r0, [r7], #-2816	; 0xfffff500
    4b00:	a5030000 	strge	r0, [r3, #-0]
    4b04:	00000025 	andeq	r0, r0, r5, lsr #32
    4b08:	040f0b00 	streq	r0, [pc], #-2816	; 4b10 <_start-0x34f0>
    4b0c:	aa030000 	bge	c4b14 <__bss_end__+0xbaf9c>
    4b10:	00000098 	muleq	r0, r8, r0
    4b14:	91040004 	tstls	r4, r4
    4b18:	03000003 	movweq	r0, #3
    4b1c:	0000ceab 	andeq	ip, r0, fp, lsr #29
    4b20:	01cd0400 	biceq	r0, sp, r0, lsl #8
    4b24:	af030000 	svcge	0x00030000
    4b28:	0000006b 	andeq	r0, r0, fp, rrx
    4b2c:	040d040c 	streq	r0, [sp], #-1036	; 0xfffffbf4
    4b30:	0000010d 	andeq	r0, r0, sp, lsl #2
    4b34:	5b080103 	blpl	204f48 <__bss_end__+0x1fb3d0>
    4b38:	0e000003 	cdpeq	0, 0, cr0, cr0, cr3, {0}
    4b3c:	0000010d 	andeq	r0, r0, sp, lsl #2
    4b40:	00046c04 	andeq	r6, r4, r4, lsl #24
    4b44:	5d160500 	cfldr32pl	mvfx0, [r6, #-0]
    4b48:	0f000000 	svceq	0x00000000
    4b4c:	000001de 	ldrdeq	r0, [r0], -lr
    4b50:	772d0518 			; <UNDEFINED> instruction: 0x772d0518
    4b54:	0b000001 	bleq	4b60 <_start-0x34a0>
    4b58:	000003b2 			; <UNDEFINED> instruction: 0x000003b2
    4b5c:	01772f05 	cmneq	r7, r5, lsl #30
    4b60:	10000000 	andne	r0, r0, r0
    4b64:	05006b5f 	streq	r6, [r0, #-2911]	; 0xfffff4a1
    4b68:	00002530 	andeq	r2, r0, r0, lsr r5
    4b6c:	e90b0400 	stmdb	fp, {sl}
    4b70:	05000003 	streq	r0, [r0, #-3]
    4b74:	00002530 	andeq	r2, r0, r0, lsr r5
    4b78:	c70b0800 	strgt	r0, [fp, -r0, lsl #16]
    4b7c:	05000001 	streq	r0, [r0, #-1]
    4b80:	00002530 	andeq	r2, r0, r0, lsr r5
    4b84:	bc0b0c00 	stclt	12, cr0, [fp], {-0}
    4b88:	05000004 	streq	r0, [r0, #-4]
    4b8c:	00002530 	andeq	r2, r0, r0, lsr r5
    4b90:	5f101000 	svcpl	0x00101000
    4b94:	31050078 	tstcc	r5, r8, ror r0
    4b98:	0000017d 	andeq	r0, r0, sp, ror r1
    4b9c:	040d0014 	streq	r0, [sp], #-20	; 0xffffffec
    4ba0:	00000124 	andeq	r0, r0, r4, lsr #2
    4ba4:	00011908 	andeq	r1, r1, r8, lsl #18
    4ba8:	00018d00 	andeq	r8, r1, r0, lsl #26
    4bac:	00c70900 	sbceq	r0, r7, r0, lsl #18
    4bb0:	00000000 	andeq	r0, r0, r0
    4bb4:	00020b0f 	andeq	r0, r2, pc, lsl #22
    4bb8:	35052400 	strcc	r2, [r5, #-1024]	; 0xfffffc00
    4bbc:	00000206 	andeq	r0, r0, r6, lsl #4
    4bc0:	00010a0b 	andeq	r0, r1, fp, lsl #20
    4bc4:	25370500 	ldrcs	r0, [r7, #-1280]!	; 0xfffffb00
    4bc8:	00000000 	andeq	r0, r0, r0
    4bcc:	0004250b 	andeq	r2, r4, fp, lsl #10
    4bd0:	25380500 	ldrcs	r0, [r8, #-1280]!	; 0xfffffb00
    4bd4:	04000000 	streq	r0, [r0], #-0
    4bd8:	0001360b 	andeq	r3, r1, fp, lsl #12
    4bdc:	25390500 	ldrcs	r0, [r9, #-1280]!	; 0xfffffb00
    4be0:	08000000 	stmdaeq	r0, {}	; <UNPREDICTABLE>
    4be4:	0005640b 	andeq	r6, r5, fp, lsl #8
    4be8:	253a0500 	ldrcs	r0, [sl, #-1280]!	; 0xfffffb00
    4bec:	0c000000 	stceq	0, cr0, [r0], {-0}
    4bf0:	0003130b 	andeq	r1, r3, fp, lsl #6
    4bf4:	253b0500 	ldrcs	r0, [fp, #-1280]!	; 0xfffffb00
    4bf8:	10000000 	andne	r0, r0, r0
    4bfc:	0002d80b 	andeq	sp, r2, fp, lsl #16
    4c00:	253c0500 	ldrcs	r0, [ip, #-1280]!	; 0xfffffb00
    4c04:	14000000 	strne	r0, [r0], #-0
    4c08:	0004c10b 	andeq	ip, r4, fp, lsl #2
    4c0c:	253d0500 	ldrcs	r0, [sp, #-1280]!	; 0xfffffb00
    4c10:	18000000 	stmdane	r0, {}	; <UNPREDICTABLE>
    4c14:	0003730b 	andeq	r7, r3, fp, lsl #6
    4c18:	253e0500 	ldrcs	r0, [lr, #-1280]!	; 0xfffffb00
    4c1c:	1c000000 	stcne	0, cr0, [r0], {-0}
    4c20:	00052b0b 	andeq	r2, r5, fp, lsl #22
    4c24:	253f0500 	ldrcs	r0, [pc, #-1280]!	; 472c <_start-0x38d4>
    4c28:	20000000 	andcs	r0, r0, r0
    4c2c:	01451100 	mrseq	r1, (UNDEF: 85)
    4c30:	01080000 	mrseq	r0, (UNDEF: 8)
    4c34:	02464805 	subeq	r4, r6, #327680	; 0x50000
    4c38:	ba0b0000 	blt	2c4c40 <__bss_end__+0x2bb0c8>
    4c3c:	05000001 	streq	r0, [r0, #-1]
    4c40:	00024649 	andeq	r4, r2, r9, asr #12
    4c44:	000b0000 	andeq	r0, fp, r0
    4c48:	05000000 	streq	r0, [r0, #-0]
    4c4c:	0002464a 	andeq	r4, r2, sl, asr #12
    4c50:	5e128000 	cdppl	0, 1, cr8, cr2, cr0, {0}
    4c54:	05000004 	streq	r0, [r0, #-4]
    4c58:	0001194c 	andeq	r1, r1, ip, asr #18
    4c5c:	12010000 	andne	r0, r1, #0
    4c60:	0000016a 	andeq	r0, r0, sl, ror #2
    4c64:	01194f05 	tsteq	r9, r5, lsl #30
    4c68:	01040000 	mrseq	r0, (UNDEF: 4)
    4c6c:	01050800 	tsteq	r5, r0, lsl #16
    4c70:	02560000 	subseq	r0, r6, #0
    4c74:	c7090000 	strgt	r0, [r9, -r0]
    4c78:	1f000000 	svcne	0x00000000
    4c7c:	031c1100 	tsteq	ip, #0, 2
    4c80:	01900000 	orrseq	r0, r0, r0
    4c84:	02945b05 	addseq	r5, r4, #5120	; 0x1400
    4c88:	b20b0000 	andlt	r0, fp, #0
    4c8c:	05000003 	streq	r0, [r0, #-3]
    4c90:	0002945c 	andeq	r9, r2, ip, asr r4
    4c94:	ca0b0000 	bgt	2c4c9c <__bss_end__+0x2bb124>
    4c98:	05000003 	streq	r0, [r0, #-3]
    4c9c:	0000255d 	andeq	r2, r0, sp, asr r5
    4ca0:	c20b0400 	andgt	r0, fp, #0, 8
    4ca4:	05000001 	streq	r0, [r0, #-1]
    4ca8:	00029a5f 	andeq	r9, r2, pc, asr sl
    4cac:	450b0800 	strmi	r0, [fp, #-2048]	; 0xfffff800
    4cb0:	05000001 	streq	r0, [r0, #-1]
    4cb4:	00020660 	andeq	r0, r2, r0, ror #12
    4cb8:	0d008800 	stceq	8, cr8, [r0, #-0]
    4cbc:	00025604 	andeq	r5, r2, r4, lsl #12
    4cc0:	02aa0800 	adceq	r0, sl, #0, 16
    4cc4:	02aa0000 	adceq	r0, sl, #0
    4cc8:	c7090000 	strgt	r0, [r9, -r0]
    4ccc:	1f000000 	svcne	0x00000000
    4cd0:	b0040d00 	andlt	r0, r4, r0, lsl #26
    4cd4:	13000002 	movwne	r0, #2
    4cd8:	00037d0f 	andeq	r7, r3, pc, lsl #26
    4cdc:	73050800 	movwvc	r0, #22528	; 0x5800
    4ce0:	000002d6 	ldrdeq	r0, [r0], -r6
    4ce4:	0001300b 	andeq	r3, r1, fp
    4ce8:	d6740500 	ldrbtle	r0, [r4], -r0, lsl #10
    4cec:	00000002 	andeq	r0, r0, r2
    4cf0:	0000820b 	andeq	r8, r0, fp, lsl #4
    4cf4:	25750500 	ldrbcs	r0, [r5, #-1280]!	; 0xfffffb00
    4cf8:	04000000 	streq	r0, [r0], #-0
    4cfc:	4f040d00 	svcmi	0x00040d00
    4d00:	0f000000 	svceq	0x00000000
    4d04:	0000039c 	muleq	r0, ip, r3
    4d08:	06b30568 	ldrteq	r0, [r3], r8, ror #10
    4d0c:	10000004 	andne	r0, r0, r4
    4d10:	0500705f 	streq	r7, [r0, #-95]	; 0xffffffa1
    4d14:	0002d6b4 			; <UNDEFINED> instruction: 0x0002d6b4
    4d18:	5f100000 	svcpl	0x00100000
    4d1c:	b5050072 	strlt	r0, [r5, #-114]	; 0xffffff8e
    4d20:	00000025 	andeq	r0, r0, r5, lsr #32
    4d24:	775f1004 	ldrbvc	r1, [pc, -r4]
    4d28:	25b60500 	ldrcs	r0, [r6, #1280]!	; 0x500
    4d2c:	08000000 	stmdaeq	r0, {}	; <UNPREDICTABLE>
    4d30:	0001630b 	andeq	r6, r1, fp, lsl #6
    4d34:	3ab70500 	bcc	fedc613c <__bss_end__+0xfedbc5c4>
    4d38:	0c000000 	stceq	0, cr0, [r0], {-0}
    4d3c:	00023f0b 	andeq	r3, r2, fp, lsl #30
    4d40:	3ab80500 	bcc	fee06148 <__bss_end__+0xfedfc5d0>
    4d44:	0e000000 	cdpeq	0, 0, cr0, cr0, cr0, {0}
    4d48:	66625f10 	uqadd16vs	r5, r2, r0
    4d4c:	b1b90500 			; <UNDEFINED> instruction: 0xb1b90500
    4d50:	10000002 	andne	r0, r0, r2
    4d54:	0000e40b 	andeq	lr, r0, fp, lsl #8
    4d58:	25ba0500 	ldrcs	r0, [sl, #1280]!	; 0x500
    4d5c:	18000000 	stmdane	r0, {}	; <UNPREDICTABLE>
    4d60:	0001530b 	andeq	r5, r1, fp, lsl #6
    4d64:	05c10500 	strbeq	r0, [r1, #1280]	; 0x500
    4d68:	1c000001 	stcne	0, cr0, [r0], {1}
    4d6c:	0004b60b 	andeq	fp, r4, fp, lsl #12
    4d70:	61c30500 	bicvs	r0, r3, r0, lsl #10
    4d74:	20000005 	andcs	r0, r0, r5
    4d78:	00029b0b 	andeq	r9, r2, fp, lsl #22
    4d7c:	8bc50500 	blhi	ff146184 <__bss_end__+0xff13c60c>
    4d80:	24000005 	strcs	r0, [r0], #-5
    4d84:	0004170b 	andeq	r1, r4, fp, lsl #14
    4d88:	afc80500 	svcge	0x00c80500
    4d8c:	28000005 	stmdacs	r0, {r0, r2}
    4d90:	0005450b 	andeq	r4, r5, fp, lsl #10
    4d94:	c9c90500 	stmibgt	r9, {r8, sl}^
    4d98:	2c000005 	stccs	0, cr0, [r0], {5}
    4d9c:	62755f10 	rsbsvs	r5, r5, #16, 30	; 0x40
    4da0:	b1cc0500 	biclt	r0, ip, r0, lsl #10
    4da4:	30000002 	andcc	r0, r0, r2
    4da8:	70755f10 	rsbsvc	r5, r5, r0, lsl pc
    4dac:	d6cd0500 	strble	r0, [sp], r0, lsl #10
    4db0:	38000002 	stmdacc	r0, {r1}
    4db4:	72755f10 	rsbsvc	r5, r5, #16, 30	; 0x40
    4db8:	25ce0500 	strbcs	r0, [lr, #1280]	; 0x500
    4dbc:	3c000000 	stccc	0, cr0, [r0], {-0}
    4dc0:	00012a0b 	andeq	r2, r1, fp, lsl #20
    4dc4:	cfd10500 	svcgt	0x00d10500
    4dc8:	40000005 	andmi	r0, r0, r5
    4dcc:	00051d0b 	andeq	r1, r5, fp, lsl #26
    4dd0:	dfd20500 	svcle	0x00d20500
    4dd4:	43000005 	movwmi	r0, #5
    4dd8:	626c5f10 	rsbvs	r5, ip, #16, 30	; 0x40
    4ddc:	b1d50500 	bicslt	r0, r5, r0, lsl #10
    4de0:	44000002 	strmi	r0, [r0], #-2
    4de4:	0001790b 	andeq	r7, r1, fp, lsl #18
    4de8:	25d80500 	ldrbcs	r0, [r8, #1280]	; 0x500
    4dec:	4c000000 	stcmi	0, cr0, [r0], {-0}
    4df0:	0001930b 	andeq	r9, r1, fp, lsl #6
    4df4:	76d90500 	ldrbvc	r0, [r9], r0, lsl #10
    4df8:	50000000 	andpl	r0, r0, r0
    4dfc:	000c2f0b 	andeq	r2, ip, fp, lsl #30
    4e00:	24dc0500 	ldrbcs	r0, [ip], #1280	; 0x500
    4e04:	54000004 	strpl	r0, [r0], #-4
    4e08:	000c030b 	andeq	r0, ip, fp, lsl #6
    4e0c:	fae00500 	blx	ff806214 <__bss_end__+0xff7fc69c>
    4e10:	58000000 	stmdapl	r0, {}	; <UNPREDICTABLE>
    4e14:	0003a40b 	andeq	sl, r3, fp, lsl #8
    4e18:	efe20500 	svc	0x00e20500
    4e1c:	5c000000 	stcpl	0, cr0, [r0], {-0}
    4e20:	0002c10b 	andeq	ip, r2, fp, lsl #2
    4e24:	25e30500 	strbcs	r0, [r3, #1280]!	; 0x500
    4e28:	64000000 	strvs	r0, [r0], #-0
    4e2c:	00251400 	eoreq	r1, r5, r0, lsl #8
    4e30:	04240000 	strteq	r0, [r4], #-0
    4e34:	24150000 	ldrcs	r0, [r5], #-0
    4e38:	15000004 	strne	r0, [r0, #-4]
    4e3c:	00000105 	andeq	r0, r0, r5, lsl #2
    4e40:	00010715 	andeq	r0, r1, r5, lsl r7
    4e44:	00251500 	eoreq	r1, r5, r0, lsl #10
    4e48:	0d000000 	stceq	0, cr0, [r0, #-0]
    4e4c:	00042f04 	andeq	r2, r4, r4, lsl #30
    4e50:	04240e00 	strteq	r0, [r4], #-3584	; 0xfffff200
    4e54:	f1160000 			; <UNDEFINED> instruction: 0xf1160000
    4e58:	28000003 	stmdacs	r0, {r0, r1}
    4e5c:	02380504 	eorseq	r0, r8, #4, 10	; 0x1000000
    4e60:	00000561 	andeq	r0, r0, r1, ror #10
    4e64:	00036217 	andeq	r6, r3, r7, lsl r2
    4e68:	023a0500 	eorseq	r0, sl, #0, 10
    4e6c:	00000025 	andeq	r0, r0, r5, lsr #32
    4e70:	01721700 	cmneq	r2, r0, lsl #14
    4e74:	3f050000 	svccc	0x00050000
    4e78:	00063602 	andeq	r3, r6, r2, lsl #12
    4e7c:	2f170400 	svccs	0x00170400
    4e80:	05000002 	streq	r0, [r0, #-2]
    4e84:	0636023f 			; <UNDEFINED> instruction: 0x0636023f
    4e88:	17080000 	strne	r0, [r8, -r0]
    4e8c:	000001d6 	ldrdeq	r0, [r0], -r6
    4e90:	36023f05 	strcc	r3, [r2], -r5, lsl #30
    4e94:	0c000006 	stceq	0, cr0, [r0], {6}
    4e98:	0003c517 	andeq	ip, r3, r7, lsl r5
    4e9c:	02410500 	subeq	r0, r1, #0, 10
    4ea0:	00000025 	andeq	r0, r0, r5, lsr #32
    4ea4:	00901710 	addseq	r1, r0, r0, lsl r7
    4ea8:	42050000 	andmi	r0, r5, #0
    4eac:	00081802 	andeq	r1, r8, r2, lsl #16
    4eb0:	94171400 	ldrls	r1, [r7], #-1024	; 0xfffffc00
    4eb4:	05000004 	streq	r0, [r0, #-4]
    4eb8:	00250244 	eoreq	r0, r5, r4, asr #4
    4ebc:	17300000 	ldrne	r0, [r0, -r0]!
    4ec0:	000003cf 	andeq	r0, r0, pc, asr #7
    4ec4:	85024505 	strhi	r4, [r2, #-1285]	; 0xfffffafb
    4ec8:	34000005 	strcc	r0, [r0], #-5
    4ecc:	00032417 	andeq	r2, r3, r7, lsl r4
    4ed0:	02470500 	subeq	r0, r7, #0, 10
    4ed4:	00000025 	andeq	r0, r0, r5, lsr #32
    4ed8:	03df1738 	bicseq	r1, pc, #56, 14	; 0xe00000
    4edc:	49050000 	stmdbmi	r5, {}	; <UNPREDICTABLE>
    4ee0:	00083302 	andeq	r3, r8, r2, lsl #6
    4ee4:	a2173c00 	andsge	r3, r7, #0, 24
    4ee8:	05000002 	streq	r0, [r0, #-2]
    4eec:	0177024c 	cmneq	r7, ip, asr #4
    4ef0:	17400000 	strbne	r0, [r0, -r0]
    4ef4:	000001f5 	strdeq	r0, [r0], -r5
    4ef8:	25024d05 	strcs	r4, [r2, #-3333]	; 0xfffff2fb
    4efc:	44000000 	strmi	r0, [r0], #-0
    4f00:	00055f17 	andeq	r5, r5, r7, lsl pc
    4f04:	024e0500 	subeq	r0, lr, #0, 10
    4f08:	00000177 	andeq	r0, r0, r7, ror r1
    4f0c:	03361748 	teqeq	r6, #72, 14	; 0x1200000
    4f10:	4f050000 	svcmi	0x00050000
    4f14:	00083902 	andeq	r3, r8, r2, lsl #18
    4f18:	37174c00 	ldrcc	r4, [r7, -r0, lsl #24]
    4f1c:	05000002 	streq	r0, [r0, #-2]
    4f20:	00250252 	eoreq	r0, r5, r2, asr r2
    4f24:	17500000 	ldrbne	r0, [r0, -r0]
    4f28:	0000018b 	andeq	r0, r0, fp, lsl #3
    4f2c:	07025305 	streq	r5, [r2, -r5, lsl #6]
    4f30:	54000001 	strpl	r0, [r0], #-1
    4f34:	000cc517 	andeq	ip, ip, r7, lsl r5
    4f38:	02760500 	rsbseq	r0, r6, #0, 10
    4f3c:	000007f6 	strdeq	r0, [r0], -r6
    4f40:	031c1858 	tsteq	ip, #88, 16	; 0x580000
    4f44:	7a050000 	bvc	144f4c <__bss_end__+0x13b3d4>
    4f48:	00029402 	andeq	r9, r2, r2, lsl #8
    4f4c:	18014800 	stmdane	r1, {fp, lr}
    4f50:	00000276 	andeq	r0, r0, r6, ror r2
    4f54:	56027b05 	strpl	r7, [r2], -r5, lsl #22
    4f58:	4c000002 	stcmi	0, cr0, [r0], {2}
    4f5c:	05081801 	streq	r1, [r8, #-2049]	; 0xfffff7ff
    4f60:	7f050000 	svcvc	0x00050000
    4f64:	00084a02 	andeq	r4, r8, r2, lsl #20
    4f68:	1802dc00 	stmdane	r2, {sl, fp, ip, lr, pc}
    4f6c:	0000015b 	andeq	r0, r0, fp, asr r1
    4f70:	fb028405 	blx	a5f8e <__bss_end__+0x9c416>
    4f74:	e0000005 	and	r0, r0, r5
    4f78:	01401802 	cmpeq	r0, r2, lsl #16
    4f7c:	85050000 	strhi	r0, [r5, #-0]
    4f80:	00085602 	andeq	r5, r8, r2, lsl #12
    4f84:	0002ec00 	andeq	lr, r2, r0, lsl #24
    4f88:	0406040d 	streq	r0, [r6], #-1037	; 0xfffffbf3
    4f8c:	25140000 	ldrcs	r0, [r4, #-0]
    4f90:	85000000 	strhi	r0, [r0, #-0]
    4f94:	15000005 	strne	r0, [r0, #-5]
    4f98:	00000424 	andeq	r0, r0, r4, lsr #8
    4f9c:	00010515 	andeq	r0, r1, r5, lsl r5
    4fa0:	05851500 	streq	r1, [r5, #1280]	; 0x500
    4fa4:	25150000 	ldrcs	r0, [r5, #-0]
    4fa8:	00000000 	andeq	r0, r0, r0
    4fac:	0114040d 	tsteq	r4, sp, lsl #8
    4fb0:	040d0000 	streq	r0, [sp], #-0
    4fb4:	00000567 	andeq	r0, r0, r7, ror #10
    4fb8:	00008114 	andeq	r8, r0, r4, lsl r1
    4fbc:	0005af00 	andeq	sl, r5, r0, lsl #30
    4fc0:	04241500 	strteq	r1, [r4], #-1280	; 0xfffffb00
    4fc4:	05150000 	ldreq	r0, [r5, #-0]
    4fc8:	15000001 	strne	r0, [r0, #-1]
    4fcc:	00000081 	andeq	r0, r0, r1, lsl #1
    4fd0:	00002515 	andeq	r2, r0, r5, lsl r5
    4fd4:	040d0000 	streq	r0, [sp], #-0
    4fd8:	00000591 	muleq	r0, r1, r5
    4fdc:	00002514 	andeq	r2, r0, r4, lsl r5
    4fe0:	0005c900 	andeq	ip, r5, r0, lsl #18
    4fe4:	04241500 	strteq	r1, [r4], #-1280	; 0xfffffb00
    4fe8:	05150000 	ldreq	r0, [r5, #-0]
    4fec:	00000001 	andeq	r0, r0, r1
    4ff0:	05b5040d 	ldreq	r0, [r5, #1037]!	; 0x40d
    4ff4:	4f080000 	svcmi	0x00080000
    4ff8:	df000000 	svcle	0x00000000
    4ffc:	09000005 	stmdbeq	r0, {r0, r2}
    5000:	000000c7 	andeq	r0, r0, r7, asr #1
    5004:	4f080002 	svcmi	0x00080002
    5008:	ef000000 	svc	0x00000000
    500c:	09000005 	stmdbeq	r0, {r0, r2}
    5010:	000000c7 	andeq	r0, r0, r7, asr #1
    5014:	8a050000 	bhi	14501c <__bss_end__+0x13b4a4>
    5018:	05000003 	streq	r0, [r0, #-3]
    501c:	02dc011d 	sbcseq	r0, ip, #1073741831	; 0x40000007
    5020:	cb190000 	blgt	645028 <__bss_end__+0x63b4b0>
    5024:	0c000004 	stceq	0, cr0, [r0], {4}
    5028:	30012105 	andcc	r2, r1, r5, lsl #2
    502c:	17000006 	strne	r0, [r0, -r6]
    5030:	000003b2 			; <UNDEFINED> instruction: 0x000003b2
    5034:	30012305 	andcc	r2, r1, r5, lsl #6
    5038:	00000006 	andeq	r0, r0, r6
    503c:	00025217 	andeq	r5, r2, r7, lsl r2
    5040:	01240500 			; <UNDEFINED> instruction: 0x01240500
    5044:	00000025 	andeq	r0, r0, r5, lsr #32
    5048:	03841704 	orreq	r1, r4, #4, 14	; 0x100000
    504c:	25050000 	strcs	r0, [r5, #-0]
    5050:	00063601 	andeq	r3, r6, r1, lsl #12
    5054:	0d000800 	stceq	8, cr0, [r0, #-0]
    5058:	0005fb04 	andeq	pc, r5, r4, lsl #22
    505c:	ef040d00 	svc	0x00040d00
    5060:	19000005 	stmdbne	r0, {r0, r2}
    5064:	00000088 	andeq	r0, r0, r8, lsl #1
    5068:	013d050e 	teqeq	sp, lr, lsl #10
    506c:	00000671 	andeq	r0, r0, r1, ror r6
    5070:	0003f817 	andeq	pc, r3, r7, lsl r8	; <UNPREDICTABLE>
    5074:	013e0500 	teqeq	lr, r0, lsl #10
    5078:	00000671 	andeq	r0, r0, r1, ror r6
    507c:	043f1700 	ldrteq	r1, [pc], #-1792	; 5084 <_start-0x2f7c>
    5080:	3f050000 	svccc	0x00050000
    5084:	00067101 	andeq	r7, r6, r1, lsl #2
    5088:	67170600 	ldrvs	r0, [r7, -r0, lsl #12]
    508c:	05000004 	streq	r0, [r0, #-4]
    5090:	00560140 	subseq	r0, r6, r0, asr #2
    5094:	000c0000 	andeq	r0, ip, r0
    5098:	00005608 	andeq	r5, r0, r8, lsl #12
    509c:	00068100 	andeq	r8, r6, r0, lsl #2
    50a0:	00c70900 	sbceq	r0, r7, r0, lsl #18
    50a4:	00020000 	andeq	r0, r2, r0
    50a8:	5705d01a 	smladpl	r5, sl, r0, sp
    50ac:	00078202 	andeq	r8, r7, r2, lsl #4
    50b0:	04a61700 	strteq	r1, [r6], #1792	; 0x700
    50b4:	59050000 	stmdbpl	r5, {}	; <UNPREDICTABLE>
    50b8:	00002c02 	andeq	r2, r0, r2, lsl #24
    50bc:	51170000 	tstpl	r7, r0
    50c0:	05000004 	streq	r0, [r0, #-4]
    50c4:	0107025a 	tsteq	r7, sl, asr r2
    50c8:	17040000 	strne	r0, [r4, -r0]
    50cc:	0000028b 	andeq	r0, r0, fp, lsl #5
    50d0:	82025b05 	andhi	r5, r2, #5120	; 0x1400
    50d4:	08000007 	stmdaeq	r0, {r0, r1, r2}
    50d8:	00053617 	andeq	r3, r5, r7, lsl r6
    50dc:	025c0500 	subseq	r0, ip, #0, 10
    50e0:	0000018d 	andeq	r0, r0, sp, lsl #3
    50e4:	01e61724 	mvneq	r1, r4, lsr #14
    50e8:	5d050000 	stcpl	0, cr0, [r5, #-0]
    50ec:	00002502 	andeq	r2, r0, r2, lsl #10
    50f0:	ad174800 	ldcge	8, cr4, [r7, #-0]
    50f4:	05000003 	streq	r0, [r0, #-3]
    50f8:	0064025e 	rsbeq	r0, r4, lr, asr r2
    50fc:	17500000 	ldrbne	r0, [r0, -r0]
    5100:	0000054c 	andeq	r0, r0, ip, asr #10
    5104:	3c025f05 	stccc	15, cr5, [r2], {5}
    5108:	58000006 	stmdapl	r0, {r1, r2}
    510c:	0003b817 	andeq	fp, r3, r7, lsl r8
    5110:	02600500 	rsbeq	r0, r0, #0, 10
    5114:	000000ef 	andeq	r0, r0, pc, ror #1
    5118:	05511768 	ldrbeq	r1, [r1, #-1896]	; 0xfffff898
    511c:	61050000 	mrsvs	r0, (UNDEF: 5)
    5120:	0000ef02 	andeq	lr, r0, r2, lsl #30
    5124:	fc177000 	ldc2	0, cr7, [r7], {-0}
    5128:	05000000 	streq	r0, [r0, #-0]
    512c:	00ef0262 	rsceq	r0, pc, r2, ror #4
    5130:	17780000 	ldrbne	r0, [r8, -r0]!
    5134:	000004fe 	strdeq	r0, [r0], -lr
    5138:	92026305 	andls	r6, r2, #335544320	; 0x14000000
    513c:	80000007 	andhi	r0, r0, r7
    5140:	00027f17 	andeq	r7, r2, r7, lsl pc
    5144:	02640500 	rsbeq	r0, r4, #0, 10
    5148:	000007a2 	andeq	r0, r0, r2, lsr #15
    514c:	04741788 	ldrbteq	r1, [r4], #-1928	; 0xfffff878
    5150:	65050000 	strvs	r0, [r5, #-0]
    5154:	00002502 	andeq	r2, r0, r2, lsl #10
    5158:	ac17a000 	ldcge	0, cr10, [r7], {-0}
    515c:	05000001 	streq	r0, [r0, #-1]
    5160:	00ef0266 	rsceq	r0, pc, r6, ror #4
    5164:	17a40000 	strne	r0, [r4, r0]!
    5168:	000000ed 	andeq	r0, r0, sp, ror #1
    516c:	ef026705 	svc	0x00026705
    5170:	ac000000 	stcge	0, cr0, [r0], {-0}
    5174:	00019b17 	andeq	r9, r1, r7, lsl fp
    5178:	02680500 	rsbeq	r0, r8, #0, 10
    517c:	000000ef 	andeq	r0, r0, pc, ror #1
    5180:	00ad17b4 	strhteq	r1, [sp], r4
    5184:	69050000 	stmdbvs	r5, {}	; <UNPREDICTABLE>
    5188:	0000ef02 	andeq	lr, r0, r2, lsl #30
    518c:	bc17bc00 	ldclt	12, cr11, [r7], {-0}
    5190:	05000000 	streq	r0, [r0, #-0]
    5194:	00ef026a 	rsceq	r0, pc, sl, ror #4
    5198:	17c40000 	strbne	r0, [r4, r0]
    519c:	00000360 	andeq	r0, r0, r0, ror #6
    51a0:	25026b05 	strcs	r6, [r2, #-2821]	; 0xfffff4fb
    51a4:	cc000000 	stcgt	0, cr0, [r0], {-0}
    51a8:	010d0800 	tsteq	sp, r0, lsl #16
    51ac:	07920000 	ldreq	r0, [r2, r0]
    51b0:	c7090000 	strgt	r0, [r9, -r0]
    51b4:	19000000 	stmdbne	r0, {}	; <UNPREDICTABLE>
    51b8:	010d0800 	tsteq	sp, r0, lsl #16
    51bc:	07a20000 	streq	r0, [r2, r0]!
    51c0:	c7090000 	strgt	r0, [r9, -r0]
    51c4:	07000000 	streq	r0, [r0, -r0]
    51c8:	010d0800 	tsteq	sp, r0, lsl #16
    51cc:	07b20000 	ldreq	r0, [r2, r0]!
    51d0:	c7090000 	strgt	r0, [r9, -r0]
    51d4:	17000000 	strne	r0, [r0, -r0]
    51d8:	05f01a00 	ldrbeq	r1, [r0, #2560]!	; 0xa00
    51dc:	07d60270 			; <UNDEFINED> instruction: 0x07d60270
    51e0:	0c170000 	ldceq	0, cr0, [r7], {-0}
    51e4:	05000003 	streq	r0, [r0, #-3]
    51e8:	07d60273 			; <UNDEFINED> instruction: 0x07d60273
    51ec:	17000000 	strne	r0, [r0, -r0]
    51f0:	000002ef 	andeq	r0, r0, pc, ror #5
    51f4:	e6027405 	str	r7, [r2], -r5, lsl #8
    51f8:	78000007 	stmdavc	r0, {r0, r1, r2}
    51fc:	02d60800 	sbcseq	r0, r6, #0, 16
    5200:	07e60000 	strbeq	r0, [r6, r0]!
    5204:	c7090000 	strgt	r0, [r9, -r0]
    5208:	1d000000 	stcne	0, cr0, [r0, #-0]
    520c:	002c0800 	eoreq	r0, ip, r0, lsl #16
    5210:	07f60000 	ldrbeq	r0, [r6, r0]!
    5214:	c7090000 	strgt	r0, [r9, -r0]
    5218:	1d000000 	stcne	0, cr0, [r0, #-0]
    521c:	05f01b00 	ldrbeq	r1, [r0, #2816]!	; 0xb00
    5220:	08180255 	ldmdaeq	r8, {r0, r2, r4, r6, r9}
    5224:	f11c0000 			; <UNDEFINED> instruction: 0xf11c0000
    5228:	05000003 	streq	r0, [r0, #-3]
    522c:	0681026c 	streq	r0, [r1], ip, ror #4
    5230:	231c0000 	tstcs	ip, #0
    5234:	05000005 	streq	r0, [r0, #-5]
    5238:	07b20275 			; <UNDEFINED> instruction: 0x07b20275
    523c:	08000000 	stmdaeq	r0, {}	; <UNPREDICTABLE>
    5240:	0000010d 	andeq	r0, r0, sp, lsl #2
    5244:	00000828 	andeq	r0, r0, r8, lsr #16
    5248:	0000c709 	andeq	ip, r0, r9, lsl #14
    524c:	1d001800 	stcne	8, cr1, [r0, #-0]
    5250:	00000833 	andeq	r0, r0, r3, lsr r8
    5254:	00042415 	andeq	r2, r4, r5, lsl r4
    5258:	040d0000 	streq	r0, [sp], #-0
    525c:	00000828 	andeq	r0, r0, r8, lsr #16
    5260:	0177040d 	cmneq	r7, sp, lsl #8
    5264:	4a1d0000 	bmi	74526c <__bss_end__+0x73b6f4>
    5268:	15000008 	strne	r0, [r0, #-8]
    526c:	00000025 	andeq	r0, r0, r5, lsr #32
    5270:	50040d00 	andpl	r0, r4, r0, lsl #26
    5274:	0d000008 	stceq	0, cr0, [r0, #-32]	; 0xffffffe0
    5278:	00083f04 	andeq	r3, r8, r4, lsl #30
    527c:	05ef0800 	strbeq	r0, [pc, #2048]!	; 5a84 <_start-0x257c>
    5280:	08660000 	stmdaeq	r6!, {}^	; <UNPREDICTABLE>
    5284:	c7090000 	strgt	r0, [r9, -r0]
    5288:	02000000 	andeq	r0, r0, #0
    528c:	04881e00 	streq	r1, [r8], #3584	; 0xe00
    5290:	fd050000 	stc2	0, cr0, [r5, #-0]
    5294:	00042402 	andeq	r2, r4, r2, lsl #8
    5298:	04811e00 	streq	r1, [r1], #3584	; 0xe00
    529c:	fe050000 	cdp2	0, 0, cr0, cr5, cr0, {0}
    52a0:	00042a02 	andeq	r2, r4, r2, lsl #20
    52a4:	00251400 	eoreq	r1, r5, r0, lsl #8
    52a8:	088d0000 	stmeq	sp, {}	; <UNPREDICTABLE>
    52ac:	25150000 	ldrcs	r0, [r5, #-0]
    52b0:	00000000 	andeq	r0, r0, r0
    52b4:	0001ff1f 	andeq	pc, r1, pc, lsl pc	; <UNPREDICTABLE>
    52b8:	981d0600 	ldmdals	sp, {r9, sl}
    52bc:	0d000008 	stceq	0, cr0, [r0, #-32]	; 0xffffffe0
    52c0:	00087e04 	andeq	r7, r8, r4, lsl #28
    52c4:	00251400 	eoreq	r1, r5, r0, lsl #8
    52c8:	08ad0000 	stmiaeq	sp!, {}	; <UNPREDICTABLE>
    52cc:	85150000 	ldrhi	r0, [r5, #-0]
    52d0:	00000005 	andeq	r0, r0, r5
    52d4:	0008b21f 	andeq	fp, r8, pc, lsl r2
    52d8:	b8220600 	stmdalt	r2!, {r9, sl}
    52dc:	0d000008 	stceq	0, cr0, [r0, #-32]	; 0xffffffe0
    52e0:	00089e04 	andeq	r9, r8, r4, lsl #28
    52e4:	088d2000 	stmeq	sp, {sp}
    52e8:	06010000 	streq	r0, [r1], -r0
    52ec:	92e80305 	rscls	r0, r8, #335544320	; 0x14000000
    52f0:	c3210000 			; <UNDEFINED> instruction: 0xc3210000
    52f4:	01000008 	tsteq	r0, r8
    52f8:	008de40b 	addeq	lr, sp, fp, lsl #8
    52fc:	00001000 	andeq	r1, r0, r0
    5300:	ed9c0100 	ldfs	f0, [ip]
    5304:	22000008 	andcs	r0, r0, #8
    5308:	01007066 	tsteq	r0, r6, rrx
    530c:	0008980b 	andeq	r9, r8, fp, lsl #16
    5310:	00500100 	subseq	r0, r0, r0, lsl #2
    5314:	00022023 	andeq	r2, r2, r3, lsr #32
    5318:	cc080100 	stfgts	f0, [r8], {-0}
    531c:	1800008d 	stmdane	r0, {r0, r2, r3, r7}
    5320:	01000000 	mrseq	r0, (UNDEF: 0)
    5324:	08da249c 	ldmeq	sl, {r2, r3, r4, r7, sl, sp}^
    5328:	03010000 	movweq	r0, #4096	; 0x1000
    532c:	00000025 	andeq	r0, r0, r5, lsr #32
    5330:	00008db8 			; <UNDEFINED> instruction: 0x00008db8
    5334:	00000014 	andeq	r0, r0, r4, lsl r0
    5338:	09359c01 	ldmdbeq	r5!, {r0, sl, fp, ip, pc}
    533c:	63250000 			; <UNDEFINED> instruction: 0x63250000
    5340:	25030100 	strcs	r0, [r3, #-256]	; 0xffffff00
    5344:	cd000000 	stcgt	0, cr0, [r0, #-0]
    5348:	26000009 	strcs	r0, [r0], -r9
    534c:	00008dc4 	andeq	r8, r0, r4, asr #27
    5350:	00000935 	andeq	r0, r0, r5, lsr r9
    5354:	02500127 	subseq	r0, r0, #-1073741815	; 0xc0000009
    5358:	00000074 	andeq	r0, r0, r4, ror r0
    535c:	0008d028 	andeq	sp, r8, r8, lsr #32
    5360:	0008d000 	andeq	sp, r8, r0
    5364:	003c0600 	eorseq	r0, ip, r0, lsl #12
    5368:	00000a66 	andeq	r0, r0, r6, ror #20
    536c:	0f050004 	svceq	0x00050004
    5370:	01040000 	mrseq	r0, (UNDEF: 4)
    5374:	000007be 			; <UNDEFINED> instruction: 0x000007be
    5378:	0009ba0c 	andeq	fp, r9, ip, lsl #20
    537c:	00082500 	andeq	r2, r8, r0, lsl #10
    5380:	008df400 	addeq	pc, sp, r0, lsl #8
    5384:	00007400 	andeq	r7, r0, r0, lsl #8
    5388:	00080e00 	andeq	r0, r8, r0, lsl #28
    538c:	05040200 	streq	r0, [r4, #-512]	; 0xfffffe00
    5390:	00746e69 	rsbseq	r6, r4, r9, ror #28
    5394:	d7070403 	strle	r0, [r7, -r3, lsl #8]
    5398:	03000000 	movweq	r0, #0
    539c:	03540601 	cmpeq	r4, #1048576	; 0x100000
    53a0:	02030000 	andeq	r0, r3, #0
    53a4:	00036905 	andeq	r6, r3, r5, lsl #18
    53a8:	05040300 	streq	r0, [r4, #-768]	; 0xfffffd00
    53ac:	00000118 	andeq	r0, r0, r8, lsl r1
    53b0:	13050803 	movwne	r0, #22531	; 0x5803
    53b4:	04000001 	streq	r0, [r0], #-1
    53b8:	00000437 	andeq	r0, r0, r7, lsr r4
    53bc:	005a2e02 	subseq	r2, sl, r2, lsl #28
    53c0:	01030000 	mrseq	r0, (UNDEF: 3)
    53c4:	00035208 	andeq	r5, r3, r8, lsl #4
    53c8:	07020300 	streq	r0, [r2, -r0, lsl #6]
    53cc:	00000263 	andeq	r0, r0, r3, ror #4
    53d0:	00070404 	andeq	r0, r7, r4, lsl #8
    53d4:	73340200 	teqvc	r4, #0, 4
    53d8:	03000000 	movweq	r0, #0
    53dc:	00d20704 	sbcseq	r0, r2, r4, lsl #14
    53e0:	08030000 	stmdaeq	r3, {}	; <UNPREDICTABLE>
    53e4:	0000cd07 	andeq	ip, r0, r7, lsl #26
    53e8:	03400400 	movteq	r0, #1024	; 0x400
    53ec:	07030000 	streq	r0, [r3, -r0]
    53f0:	00000025 	andeq	r0, r0, r5, lsr #32
    53f4:	00032f04 	andeq	r2, r3, r4, lsl #30
    53f8:	412c0400 			; <UNDEFINED> instruction: 0x412c0400
    53fc:	04000000 	streq	r0, [r0], #-0
    5400:	0000041d 	andeq	r0, r0, sp, lsl r4
    5404:	00417204 	subeq	r7, r1, r4, lsl #4
    5408:	b0050000 	andlt	r0, r5, r0
    540c:	05000002 	streq	r0, [r0, #-2]
    5410:	002c0165 	eoreq	r0, ip, r5, ror #2
    5414:	04060000 	streq	r0, [r6], #-0
    5418:	00cda604 	sbceq	sl, sp, r4, lsl #12
    541c:	aa070000 	bge	1c5424 <__bss_end__+0x1bb8ac>
    5420:	04000002 	streq	r0, [r0], #-2
    5424:	0000a2a8 	andeq	sl, r0, r8, lsr #5
    5428:	02190700 	andseq	r0, r9, #0, 14
    542c:	a9040000 	stmdbge	r4, {}	; <UNPREDICTABLE>
    5430:	000000cd 	andeq	r0, r0, sp, asr #1
    5434:	005a0800 	subseq	r0, sl, r0, lsl #16
    5438:	00dd0000 	sbcseq	r0, sp, r0
    543c:	dd090000 	stcle	0, cr0, [r9, #-0]
    5440:	03000000 	movweq	r0, #0
    5444:	07040300 	streq	r0, [r4, -r0, lsl #6]
    5448:	000002f8 	strdeq	r0, [r0], -r8
    544c:	a304080a 	movwge	r0, #18442	; 0x480a
    5450:	00000105 	andeq	r0, r0, r5, lsl #2
    5454:	0004070b 	andeq	r0, r4, fp, lsl #14
    5458:	25a50400 	strcs	r0, [r5, #1024]!	; 0x400
    545c:	00000000 	andeq	r0, r0, r0
    5460:	00040f0b 	andeq	r0, r4, fp, lsl #30
    5464:	aeaa0400 	cdpge	4, 10, cr0, cr10, cr0, {0}
    5468:	04000000 	streq	r0, [r0], #-0
    546c:	03910400 	orrseq	r0, r1, #0, 8
    5470:	ab040000 	blge	105478 <__bss_end__+0xfb900>
    5474:	000000e4 	andeq	r0, r0, r4, ror #1
    5478:	0001cd04 	andeq	ip, r1, r4, lsl #26
    547c:	81af0400 			; <UNDEFINED> instruction: 0x81af0400
    5480:	0c000000 	stceq	0, cr0, [r0], {-0}
    5484:	23040d04 	movwcs	r0, #19716	; 0x4d04
    5488:	03000001 	movweq	r0, #1
    548c:	035b0801 	cmpeq	fp, #65536	; 0x10000
    5490:	230e0000 	movwcs	r0, #57344	; 0xe000
    5494:	04000001 	streq	r0, [r0], #-1
    5498:	0000046c 	andeq	r0, r0, ip, ror #8
    549c:	00731606 	rsbseq	r1, r3, r6, lsl #12
    54a0:	de0f0000 	cdple	0, 0, cr0, cr15, cr0, {0}
    54a4:	18000001 	stmdane	r0, {r0}
    54a8:	018d2d06 	orreq	r2, sp, r6, lsl #26
    54ac:	b20b0000 	andlt	r0, fp, #0
    54b0:	06000003 	streq	r0, [r0], -r3
    54b4:	00018d2f 	andeq	r8, r1, pc, lsr #26
    54b8:	5f100000 	svcpl	0x00100000
    54bc:	3006006b 	andcc	r0, r6, fp, rrx
    54c0:	00000025 	andeq	r0, r0, r5, lsr #32
    54c4:	03e90b04 	mvneq	r0, #4, 22	; 0x1000
    54c8:	30060000 	andcc	r0, r6, r0
    54cc:	00000025 	andeq	r0, r0, r5, lsr #32
    54d0:	01c70b08 	biceq	r0, r7, r8, lsl #22
    54d4:	30060000 	andcc	r0, r6, r0
    54d8:	00000025 	andeq	r0, r0, r5, lsr #32
    54dc:	04bc0b0c 	ldrteq	r0, [ip], #2828	; 0xb0c
    54e0:	30060000 	andcc	r0, r6, r0
    54e4:	00000025 	andeq	r0, r0, r5, lsr #32
    54e8:	785f1010 	ldmdavc	pc, {r4, ip}^	; <UNPREDICTABLE>
    54ec:	93310600 	teqls	r1, #0, 12
    54f0:	14000001 	strne	r0, [r0], #-1
    54f4:	3a040d00 	bcc	1088fc <__bss_end__+0xfed84>
    54f8:	08000001 	stmdaeq	r0, {r0}
    54fc:	0000012f 	andeq	r0, r0, pc, lsr #2
    5500:	000001a3 	andeq	r0, r0, r3, lsr #3
    5504:	0000dd09 	andeq	sp, r0, r9, lsl #26
    5508:	0f000000 	svceq	0x00000000
    550c:	0000020b 	andeq	r0, r0, fp, lsl #4
    5510:	1c350624 	ldcne	6, cr0, [r5], #-144	; 0xffffff70
    5514:	0b000002 	bleq	5524 <_start-0x2adc>
    5518:	0000010a 	andeq	r0, r0, sl, lsl #2
    551c:	00253706 	eoreq	r3, r5, r6, lsl #14
    5520:	0b000000 	bleq	5528 <_start-0x2ad8>
    5524:	00000425 	andeq	r0, r0, r5, lsr #8
    5528:	00253806 	eoreq	r3, r5, r6, lsl #16
    552c:	0b040000 	bleq	105534 <__bss_end__+0xfb9bc>
    5530:	00000136 	andeq	r0, r0, r6, lsr r1
    5534:	00253906 	eoreq	r3, r5, r6, lsl #18
    5538:	0b080000 	bleq	205540 <__bss_end__+0x1fb9c8>
    553c:	00000564 	andeq	r0, r0, r4, ror #10
    5540:	00253a06 	eoreq	r3, r5, r6, lsl #20
    5544:	0b0c0000 	bleq	30554c <__bss_end__+0x2fb9d4>
    5548:	00000313 	andeq	r0, r0, r3, lsl r3
    554c:	00253b06 	eoreq	r3, r5, r6, lsl #22
    5550:	0b100000 	bleq	405558 <__bss_end__+0x3fb9e0>
    5554:	000002d8 	ldrdeq	r0, [r0], -r8
    5558:	00253c06 	eoreq	r3, r5, r6, lsl #24
    555c:	0b140000 	bleq	505564 <__bss_end__+0x4fb9ec>
    5560:	000004c1 	andeq	r0, r0, r1, asr #9
    5564:	00253d06 	eoreq	r3, r5, r6, lsl #26
    5568:	0b180000 	bleq	605570 <__bss_end__+0x5fb9f8>
    556c:	00000373 	andeq	r0, r0, r3, ror r3
    5570:	00253e06 	eoreq	r3, r5, r6, lsl #28
    5574:	0b1c0000 	bleq	70557c <__bss_end__+0x6fba04>
    5578:	0000052b 	andeq	r0, r0, fp, lsr #10
    557c:	00253f06 	eoreq	r3, r5, r6, lsl #30
    5580:	00200000 	eoreq	r0, r0, r0
    5584:	00014511 	andeq	r4, r1, r1, lsl r5
    5588:	06010800 	streq	r0, [r1], -r0, lsl #16
    558c:	00025c48 	andeq	r5, r2, r8, asr #24
    5590:	01ba0b00 			; <UNDEFINED> instruction: 0x01ba0b00
    5594:	49060000 	stmdbmi	r6, {}	; <UNPREDICTABLE>
    5598:	0000025c 	andeq	r0, r0, ip, asr r2
    559c:	00000b00 	andeq	r0, r0, r0, lsl #22
    55a0:	4a060000 	bmi	1855a8 <__bss_end__+0x17ba30>
    55a4:	0000025c 	andeq	r0, r0, ip, asr r2
    55a8:	045e1280 	ldrbeq	r1, [lr], #-640	; 0xfffffd80
    55ac:	4c060000 	stcmi	0, cr0, [r6], {-0}
    55b0:	0000012f 	andeq	r0, r0, pc, lsr #2
    55b4:	6a120100 	bvs	4859bc <__bss_end__+0x47be44>
    55b8:	06000001 	streq	r0, [r0], -r1
    55bc:	00012f4f 	andeq	r2, r1, pc, asr #30
    55c0:	00010400 	andeq	r0, r1, r0, lsl #8
    55c4:	00011b08 	andeq	r1, r1, r8, lsl #22
    55c8:	00026c00 	andeq	r6, r2, r0, lsl #24
    55cc:	00dd0900 	sbcseq	r0, sp, r0, lsl #18
    55d0:	001f0000 	andseq	r0, pc, r0
    55d4:	00031c11 	andeq	r1, r3, r1, lsl ip
    55d8:	06019000 	streq	r9, [r1], -r0
    55dc:	0002aa5b 	andeq	sl, r2, fp, asr sl
    55e0:	03b20b00 			; <UNDEFINED> instruction: 0x03b20b00
    55e4:	5c060000 	stcpl	0, cr0, [r6], {-0}
    55e8:	000002aa 	andeq	r0, r0, sl, lsr #5
    55ec:	03ca0b00 	biceq	r0, sl, #0, 22
    55f0:	5d060000 	stcpl	0, cr0, [r6, #-0]
    55f4:	00000025 	andeq	r0, r0, r5, lsr #32
    55f8:	01c20b04 	biceq	r0, r2, r4, lsl #22
    55fc:	5f060000 	svcpl	0x00060000
    5600:	000002b0 			; <UNDEFINED> instruction: 0x000002b0
    5604:	01450b08 	cmpeq	r5, r8, lsl #22
    5608:	60060000 	andvs	r0, r6, r0
    560c:	0000021c 	andeq	r0, r0, ip, lsl r2
    5610:	040d0088 	streq	r0, [sp], #-136	; 0xffffff78
    5614:	0000026c 	andeq	r0, r0, ip, ror #4
    5618:	0002c008 	andeq	ip, r2, r8
    561c:	0002c000 	andeq	ip, r2, r0
    5620:	00dd0900 	sbcseq	r0, sp, r0, lsl #18
    5624:	001f0000 	andseq	r0, pc, r0
    5628:	02c6040d 	sbceq	r0, r6, #218103808	; 0xd000000
    562c:	0f130000 	svceq	0x00130000
    5630:	0000037d 	andeq	r0, r0, sp, ror r3
    5634:	ec730608 	ldcl	6, cr0, [r3], #-32	; 0xffffffe0
    5638:	0b000002 	bleq	5648 <_start-0x29b8>
    563c:	00000130 	andeq	r0, r0, r0, lsr r1
    5640:	02ec7406 	rsceq	r7, ip, #100663296	; 0x6000000
    5644:	0b000000 	bleq	564c <_start-0x29b4>
    5648:	00000082 	andeq	r0, r0, r2, lsl #1
    564c:	00257506 	eoreq	r7, r5, r6, lsl #10
    5650:	00040000 	andeq	r0, r4, r0
    5654:	005a040d 	subseq	r0, sl, sp, lsl #8
    5658:	9c0f0000 	stcls	0, cr0, [pc], {-0}
    565c:	68000003 	stmdavs	r0, {r0, r1}
    5660:	041cb306 	ldreq	fp, [ip], #-774	; 0xfffffcfa
    5664:	5f100000 	svcpl	0x00100000
    5668:	b4060070 	strlt	r0, [r6], #-112	; 0xffffff90
    566c:	000002ec 	andeq	r0, r0, ip, ror #5
    5670:	725f1000 	subsvc	r1, pc, #0
    5674:	25b50600 	ldrcs	r0, [r5, #1536]!	; 0x600
    5678:	04000000 	streq	r0, [r0], #-0
    567c:	00775f10 	rsbseq	r5, r7, r0, lsl pc
    5680:	0025b606 	eoreq	fp, r5, r6, lsl #12
    5684:	0b080000 	bleq	20568c <__bss_end__+0x1fbb14>
    5688:	00000163 	andeq	r0, r0, r3, ror #2
    568c:	003ab706 	eorseq	fp, sl, r6, lsl #14
    5690:	0b0c0000 	bleq	305698 <__bss_end__+0x2fbb20>
    5694:	0000023f 	andeq	r0, r0, pc, lsr r2
    5698:	003ab806 	eorseq	fp, sl, r6, lsl #16
    569c:	100e0000 	andne	r0, lr, r0
    56a0:	0066625f 	rsbeq	r6, r6, pc, asr r2
    56a4:	02c7b906 	sbceq	fp, r7, #98304	; 0x18000
    56a8:	0b100000 	bleq	4056b0 <__bss_end__+0x3fbb38>
    56ac:	000000e4 	andeq	r0, r0, r4, ror #1
    56b0:	0025ba06 	eoreq	fp, r5, r6, lsl #20
    56b4:	0b180000 	bleq	6056bc <__bss_end__+0x5fbb44>
    56b8:	00000153 	andeq	r0, r0, r3, asr r1
    56bc:	011bc106 	tsteq	fp, r6, lsl #2
    56c0:	0b1c0000 	bleq	7056c8 <__bss_end__+0x6fbb50>
    56c4:	000004b6 			; <UNDEFINED> instruction: 0x000004b6
    56c8:	0577c306 	ldrbeq	ip, [r7, #-774]!	; 0xfffffcfa
    56cc:	0b200000 	bleq	8056d4 <__bss_end__+0x7fbb5c>
    56d0:	0000029b 	muleq	r0, fp, r2
    56d4:	05a1c506 	streq	ip, [r1, #1286]!	; 0x506
    56d8:	0b240000 	bleq	9056e0 <__bss_end__+0x8fbb68>
    56dc:	00000417 	andeq	r0, r0, r7, lsl r4
    56e0:	05c5c806 	strbeq	ip, [r5, #2054]	; 0x806
    56e4:	0b280000 	bleq	a056ec <__bss_end__+0x9fbb74>
    56e8:	00000545 	andeq	r0, r0, r5, asr #10
    56ec:	05dfc906 	ldrbeq	ip, [pc, #2310]	; 5ffa <_start-0x2006>
    56f0:	102c0000 	eorne	r0, ip, r0
    56f4:	0062755f 	rsbeq	r7, r2, pc, asr r5
    56f8:	02c7cc06 	sbceq	ip, r7, #1536	; 0x600
    56fc:	10300000 	eorsne	r0, r0, r0
    5700:	0070755f 	rsbseq	r7, r0, pc, asr r5
    5704:	02eccd06 	rsceq	ip, ip, #384	; 0x180
    5708:	10380000 	eorsne	r0, r8, r0
    570c:	0072755f 	rsbseq	r7, r2, pc, asr r5
    5710:	0025ce06 	eoreq	ip, r5, r6, lsl #28
    5714:	0b3c0000 	bleq	f0571c <__bss_end__+0xefbba4>
    5718:	0000012a 	andeq	r0, r0, sl, lsr #2
    571c:	05e5d106 	strbeq	sp, [r5, #262]!	; 0x106
    5720:	0b400000 	bleq	1005728 <__bss_end__+0xffbbb0>
    5724:	0000051d 	andeq	r0, r0, sp, lsl r5
    5728:	05f5d206 	ldrbeq	sp, [r5, #518]!	; 0x206
    572c:	10430000 	subne	r0, r3, r0
    5730:	00626c5f 	rsbeq	r6, r2, pc, asr ip
    5734:	02c7d506 	sbceq	sp, r7, #25165824	; 0x1800000
    5738:	0b440000 	bleq	1105740 <__bss_end__+0x10fbbc8>
    573c:	00000179 	andeq	r0, r0, r9, ror r1
    5740:	0025d806 	eoreq	sp, r5, r6, lsl #16
    5744:	0b4c0000 	bleq	130574c <__bss_end__+0x12fbbd4>
    5748:	00000193 	muleq	r0, r3, r1
    574c:	008cd906 	addeq	sp, ip, r6, lsl #18
    5750:	0b500000 	bleq	1405758 <__bss_end__+0x13fbbe0>
    5754:	00000c2f 	andeq	r0, r0, pc, lsr #24
    5758:	043adc06 	ldrteq	sp, [sl], #-3078	; 0xfffff3fa
    575c:	0b540000 	bleq	1505764 <__bss_end__+0x14fbbec>
    5760:	00000c03 	andeq	r0, r0, r3, lsl #24
    5764:	0110e006 	tsteq	r0, r6
    5768:	0b580000 	bleq	1605770 <__bss_end__+0x15fbbf8>
    576c:	000003a4 	andeq	r0, r0, r4, lsr #7
    5770:	0105e206 	tsteq	r5, r6, lsl #4
    5774:	0b5c0000 	bleq	170577c <__bss_end__+0x16fbc04>
    5778:	000002c1 	andeq	r0, r0, r1, asr #5
    577c:	0025e306 	eoreq	lr, r5, r6, lsl #6
    5780:	00640000 	rsbeq	r0, r4, r0
    5784:	00002514 	andeq	r2, r0, r4, lsl r5
    5788:	00043a00 	andeq	r3, r4, r0, lsl #20
    578c:	043a1500 	ldrteq	r1, [sl], #-1280	; 0xfffffb00
    5790:	1b150000 	blne	545798 <__bss_end__+0x53bc20>
    5794:	15000001 	strne	r0, [r0, #-1]
    5798:	0000011d 	andeq	r0, r0, sp, lsl r1
    579c:	00002515 	andeq	r2, r0, r5, lsl r5
    57a0:	040d0000 	streq	r0, [sp], #-0
    57a4:	00000445 	andeq	r0, r0, r5, asr #8
    57a8:	00043a0e 	andeq	r3, r4, lr, lsl #20
    57ac:	03f11600 	mvnseq	r1, #0, 12
    57b0:	04280000 	strteq	r0, [r8], #-0
    57b4:	77023806 	strvc	r3, [r2, -r6, lsl #16]
    57b8:	17000005 	strne	r0, [r0, -r5]
    57bc:	00000362 	andeq	r0, r0, r2, ror #6
    57c0:	25023a06 	strcs	r3, [r2, #-2566]	; 0xfffff5fa
    57c4:	00000000 	andeq	r0, r0, r0
    57c8:	00017217 	andeq	r7, r1, r7, lsl r2
    57cc:	023f0600 	eorseq	r0, pc, #0, 12
    57d0:	0000064c 	andeq	r0, r0, ip, asr #12
    57d4:	022f1704 	eoreq	r1, pc, #4, 14	; 0x100000
    57d8:	3f060000 	svccc	0x00060000
    57dc:	00064c02 	andeq	r4, r6, r2, lsl #24
    57e0:	d6170800 	ldrle	r0, [r7], -r0, lsl #16
    57e4:	06000001 	streq	r0, [r0], -r1
    57e8:	064c023f 			; <UNDEFINED> instruction: 0x064c023f
    57ec:	170c0000 	strne	r0, [ip, -r0]
    57f0:	000003c5 	andeq	r0, r0, r5, asr #7
    57f4:	25024106 	strcs	r4, [r2, #-262]	; 0xfffffefa
    57f8:	10000000 	andne	r0, r0, r0
    57fc:	00009017 	andeq	r9, r0, r7, lsl r0
    5800:	02420600 	subeq	r0, r2, #0, 12
    5804:	0000082e 	andeq	r0, r0, lr, lsr #16
    5808:	04941714 	ldreq	r1, [r4], #1812	; 0x714
    580c:	44060000 	strmi	r0, [r6], #-0
    5810:	00002502 	andeq	r2, r0, r2, lsl #10
    5814:	cf173000 	svcgt	0x00173000
    5818:	06000003 	streq	r0, [r0], -r3
    581c:	059b0245 	ldreq	r0, [fp, #581]	; 0x245
    5820:	17340000 	ldrne	r0, [r4, -r0]!
    5824:	00000324 	andeq	r0, r0, r4, lsr #6
    5828:	25024706 	strcs	r4, [r2, #-1798]	; 0xfffff8fa
    582c:	38000000 	stmdacc	r0, {}	; <UNPREDICTABLE>
    5830:	0003df17 	andeq	sp, r3, r7, lsl pc
    5834:	02490600 	subeq	r0, r9, #0, 12
    5838:	00000849 	andeq	r0, r0, r9, asr #16
    583c:	02a2173c 	adceq	r1, r2, #60, 14	; 0xf00000
    5840:	4c060000 	stcmi	0, cr0, [r6], {-0}
    5844:	00018d02 	andeq	r8, r1, r2, lsl #26
    5848:	f5174000 			; <UNDEFINED> instruction: 0xf5174000
    584c:	06000001 	streq	r0, [r0], -r1
    5850:	0025024d 	eoreq	r0, r5, sp, asr #4
    5854:	17440000 	strbne	r0, [r4, -r0]
    5858:	0000055f 	andeq	r0, r0, pc, asr r5
    585c:	8d024e06 	stchi	14, cr4, [r2, #-24]	; 0xffffffe8
    5860:	48000001 	stmdami	r0, {r0}
    5864:	00033617 	andeq	r3, r3, r7, lsl r6
    5868:	024f0600 	subeq	r0, pc, #0, 12
    586c:	0000084f 	andeq	r0, r0, pc, asr #16
    5870:	0237174c 	eorseq	r1, r7, #76, 14	; 0x1300000
    5874:	52060000 	andpl	r0, r6, #0
    5878:	00002502 	andeq	r2, r0, r2, lsl #10
    587c:	8b175000 	blhi	5d9884 <__bss_end__+0x5cfd0c>
    5880:	06000001 	streq	r0, [r0], -r1
    5884:	011d0253 	tsteq	sp, r3, asr r2
    5888:	17540000 	ldrbne	r0, [r4, -r0]
    588c:	00000cc5 	andeq	r0, r0, r5, asr #25
    5890:	0c027606 	stceq	6, cr7, [r2], {6}
    5894:	58000008 	stmdapl	r0, {r3}
    5898:	00031c18 	andeq	r1, r3, r8, lsl ip
    589c:	027a0600 	rsbseq	r0, sl, #0, 12
    58a0:	000002aa 	andeq	r0, r0, sl, lsr #5
    58a4:	76180148 	ldrvc	r0, [r8], -r8, asr #2
    58a8:	06000002 	streq	r0, [r0], -r2
    58ac:	026c027b 	rsbeq	r0, ip, #-1342177273	; 0xb0000007
    58b0:	014c0000 	mrseq	r0, (UNDEF: 76)
    58b4:	00050818 	andeq	r0, r5, r8, lsl r8
    58b8:	027f0600 	rsbseq	r0, pc, #0, 12
    58bc:	00000860 	andeq	r0, r0, r0, ror #16
    58c0:	5b1802dc 	blpl	606438 <__bss_end__+0x5fc8c0>
    58c4:	06000001 	streq	r0, [r0], -r1
    58c8:	06110284 	ldreq	r0, [r1], -r4, lsl #5
    58cc:	02e00000 	rsceq	r0, r0, #0
    58d0:	00014018 	andeq	r4, r1, r8, lsl r0
    58d4:	02850600 	addeq	r0, r5, #0, 12
    58d8:	0000086c 	andeq	r0, r0, ip, ror #16
    58dc:	0d0002ec 	sfmeq	f0, 4, [r0, #-944]	; 0xfffffc50
    58e0:	00041c04 	andeq	r1, r4, r4, lsl #24
    58e4:	00251400 	eoreq	r1, r5, r0, lsl #8
    58e8:	059b0000 	ldreq	r0, [fp]
    58ec:	3a150000 	bcc	5458f4 <__bss_end__+0x53bd7c>
    58f0:	15000004 	strne	r0, [r0, #-4]
    58f4:	0000011b 	andeq	r0, r0, fp, lsl r1
    58f8:	00059b15 	andeq	r9, r5, r5, lsl fp
    58fc:	00251500 	eoreq	r1, r5, r0, lsl #10
    5900:	0d000000 	stceq	0, cr0, [r0, #-0]
    5904:	00012a04 	andeq	r2, r1, r4, lsl #20
    5908:	7d040d00 	stcvc	13, cr0, [r4, #-0]
    590c:	14000005 	strne	r0, [r0], #-5
    5910:	00000097 	muleq	r0, r7, r0
    5914:	000005c5 	andeq	r0, r0, r5, asr #11
    5918:	00043a15 	andeq	r3, r4, r5, lsl sl
    591c:	011b1500 	tsteq	fp, r0, lsl #10
    5920:	97150000 	ldrls	r0, [r5, -r0]
    5924:	15000000 	strne	r0, [r0, #-0]
    5928:	00000025 	andeq	r0, r0, r5, lsr #32
    592c:	a7040d00 	strge	r0, [r4, -r0, lsl #26]
    5930:	14000005 	strne	r0, [r0], #-5
    5934:	00000025 	andeq	r0, r0, r5, lsr #32
    5938:	000005df 	ldrdeq	r0, [r0], -pc	; <UNPREDICTABLE>
    593c:	00043a15 	andeq	r3, r4, r5, lsl sl
    5940:	011b1500 	tsteq	fp, r0, lsl #10
    5944:	0d000000 	stceq	0, cr0, [r0, #-0]
    5948:	0005cb04 	andeq	ip, r5, r4, lsl #22
    594c:	005a0800 	subseq	r0, sl, r0, lsl #16
    5950:	05f50000 	ldrbeq	r0, [r5, #0]!
    5954:	dd090000 	stcle	0, cr0, [r9, #-0]
    5958:	02000000 	andeq	r0, r0, #0
    595c:	005a0800 	subseq	r0, sl, r0, lsl #16
    5960:	06050000 	streq	r0, [r5], -r0
    5964:	dd090000 	stcle	0, cr0, [r9, #-0]
    5968:	00000000 	andeq	r0, r0, r0
    596c:	038a0500 	orreq	r0, sl, #0, 10
    5970:	1d060000 	stcne	0, cr0, [r6, #-0]
    5974:	0002f201 	andeq	pc, r2, r1, lsl #4
    5978:	04cb1900 	strbeq	r1, [fp], #2304	; 0x900
    597c:	060c0000 	streq	r0, [ip], -r0
    5980:	06460121 	strbeq	r0, [r6], -r1, lsr #2
    5984:	b2170000 	andslt	r0, r7, #0
    5988:	06000003 	streq	r0, [r0], -r3
    598c:	06460123 	strbeq	r0, [r6], -r3, lsr #2
    5990:	17000000 	strne	r0, [r0, -r0]
    5994:	00000252 	andeq	r0, r0, r2, asr r2
    5998:	25012406 	strcs	r2, [r1, #-1030]	; 0xfffffbfa
    599c:	04000000 	streq	r0, [r0], #-0
    59a0:	00038417 	andeq	r8, r3, r7, lsl r4
    59a4:	01250600 			; <UNDEFINED> instruction: 0x01250600
    59a8:	0000064c 	andeq	r0, r0, ip, asr #12
    59ac:	040d0008 	streq	r0, [sp], #-8
    59b0:	00000611 	andeq	r0, r0, r1, lsl r6
    59b4:	0605040d 	streq	r0, [r5], -sp, lsl #8
    59b8:	88190000 	ldmdahi	r9, {}	; <UNPREDICTABLE>
    59bc:	0e000000 	cdpeq	0, 0, cr0, cr0, cr0, {0}
    59c0:	87013d06 	strhi	r3, [r1, -r6, lsl #26]
    59c4:	17000006 	strne	r0, [r0, -r6]
    59c8:	000003f8 	strdeq	r0, [r0], -r8
    59cc:	87013e06 	strhi	r3, [r1, -r6, lsl #28]
    59d0:	00000006 	andeq	r0, r0, r6
    59d4:	00043f17 	andeq	r3, r4, r7, lsl pc
    59d8:	013f0600 	teqeq	pc, r0, lsl #12
    59dc:	00000687 	andeq	r0, r0, r7, lsl #13
    59e0:	04671706 	strbteq	r1, [r7], #-1798	; 0xfffff8fa
    59e4:	40060000 	andmi	r0, r6, r0
    59e8:	00006101 	andeq	r6, r0, r1, lsl #2
    59ec:	08000c00 	stmdaeq	r0, {sl, fp}
    59f0:	00000061 	andeq	r0, r0, r1, rrx
    59f4:	00000697 	muleq	r0, r7, r6
    59f8:	0000dd09 	andeq	sp, r0, r9, lsl #26
    59fc:	1a000200 	bne	6204 <_start-0x1dfc>
    5a00:	025706d0 	subseq	r0, r7, #208, 12	; 0xd000000
    5a04:	00000798 	muleq	r0, r8, r7
    5a08:	0004a617 	andeq	sl, r4, r7, lsl r6
    5a0c:	02590600 	subseq	r0, r9, #0, 12
    5a10:	0000002c 	andeq	r0, r0, ip, lsr #32
    5a14:	04511700 	ldrbeq	r1, [r1], #-1792	; 0xfffff900
    5a18:	5a060000 	bpl	185a20 <__bss_end__+0x17bea8>
    5a1c:	00011d02 	andeq	r1, r1, r2, lsl #26
    5a20:	8b170400 	blhi	5c6a28 <__bss_end__+0x5bceb0>
    5a24:	06000002 	streq	r0, [r0], -r2
    5a28:	0798025b 			; <UNDEFINED> instruction: 0x0798025b
    5a2c:	17080000 	strne	r0, [r8, -r0]
    5a30:	00000536 	andeq	r0, r0, r6, lsr r5
    5a34:	a3025c06 	movwge	r5, #11270	; 0x2c06
    5a38:	24000001 	strcs	r0, [r0], #-1
    5a3c:	0001e617 	andeq	lr, r1, r7, lsl r6
    5a40:	025d0600 	subseq	r0, sp, #0, 12
    5a44:	00000025 	andeq	r0, r0, r5, lsr #32
    5a48:	03ad1748 			; <UNDEFINED> instruction: 0x03ad1748
    5a4c:	5e060000 	cdppl	0, 0, cr0, cr6, cr0, {0}
    5a50:	00007a02 	andeq	r7, r0, r2, lsl #20
    5a54:	4c175000 	ldcmi	0, cr5, [r7], {-0}
    5a58:	06000005 	streq	r0, [r0], -r5
    5a5c:	0652025f 			; <UNDEFINED> instruction: 0x0652025f
    5a60:	17580000 	ldrbne	r0, [r8, -r0]
    5a64:	000003b8 			; <UNDEFINED> instruction: 0x000003b8
    5a68:	05026006 	streq	r6, [r2, #-6]
    5a6c:	68000001 	stmdavs	r0, {r0}
    5a70:	00055117 	andeq	r5, r5, r7, lsl r1
    5a74:	02610600 	rsbeq	r0, r1, #0, 12
    5a78:	00000105 	andeq	r0, r0, r5, lsl #2
    5a7c:	00fc1770 	rscseq	r1, ip, r0, ror r7
    5a80:	62060000 	andvs	r0, r6, #0
    5a84:	00010502 	andeq	r0, r1, r2, lsl #10
    5a88:	fe177800 	cdp2	8, 1, cr7, cr7, cr0, {0}
    5a8c:	06000004 	streq	r0, [r0], -r4
    5a90:	07a80263 	streq	r0, [r8, r3, ror #4]!
    5a94:	17800000 	strne	r0, [r0, r0]
    5a98:	0000027f 	andeq	r0, r0, pc, ror r2
    5a9c:	b8026406 	stmdalt	r2, {r1, r2, sl, sp, lr}
    5aa0:	88000007 	stmdahi	r0, {r0, r1, r2}
    5aa4:	00047417 	andeq	r7, r4, r7, lsl r4
    5aa8:	02650600 	rsbeq	r0, r5, #0, 12
    5aac:	00000025 	andeq	r0, r0, r5, lsr #32
    5ab0:	01ac17a0 			; <UNDEFINED> instruction: 0x01ac17a0
    5ab4:	66060000 	strvs	r0, [r6], -r0
    5ab8:	00010502 	andeq	r0, r1, r2, lsl #10
    5abc:	ed17a400 	cfldrs	mvf10, [r7, #-0]
    5ac0:	06000000 	streq	r0, [r0], -r0
    5ac4:	01050267 	tsteq	r5, r7, ror #4
    5ac8:	17ac0000 	strne	r0, [ip, r0]!
    5acc:	0000019b 	muleq	r0, fp, r1
    5ad0:	05026806 	streq	r6, [r2, #-2054]	; 0xfffff7fa
    5ad4:	b4000001 	strlt	r0, [r0], #-1
    5ad8:	0000ad17 	andeq	sl, r0, r7, lsl sp
    5adc:	02690600 	rsbeq	r0, r9, #0, 12
    5ae0:	00000105 	andeq	r0, r0, r5, lsl #2
    5ae4:	00bc17bc 	ldrhteq	r1, [ip], ip
    5ae8:	6a060000 	bvs	185af0 <__bss_end__+0x17bf78>
    5aec:	00010502 	andeq	r0, r1, r2, lsl #10
    5af0:	6017c400 	andsvs	ip, r7, r0, lsl #8
    5af4:	06000003 	streq	r0, [r0], -r3
    5af8:	0025026b 	eoreq	r0, r5, fp, ror #4
    5afc:	00cc0000 	sbceq	r0, ip, r0
    5b00:	00012308 	andeq	r2, r1, r8, lsl #6
    5b04:	0007a800 	andeq	sl, r7, r0, lsl #16
    5b08:	00dd0900 	sbcseq	r0, sp, r0, lsl #18
    5b0c:	00190000 	andseq	r0, r9, r0
    5b10:	00012308 	andeq	r2, r1, r8, lsl #6
    5b14:	0007b800 	andeq	fp, r7, r0, lsl #16
    5b18:	00dd0900 	sbcseq	r0, sp, r0, lsl #18
    5b1c:	00070000 	andeq	r0, r7, r0
    5b20:	00012308 	andeq	r2, r1, r8, lsl #6
    5b24:	0007c800 	andeq	ip, r7, r0, lsl #16
    5b28:	00dd0900 	sbcseq	r0, sp, r0, lsl #18
    5b2c:	00170000 	andseq	r0, r7, r0
    5b30:	7006f01a 	andvc	pc, r6, sl, lsl r0	; <UNPREDICTABLE>
    5b34:	0007ec02 	andeq	lr, r7, r2, lsl #24
    5b38:	030c1700 	movweq	r1, #50944	; 0xc700
    5b3c:	73060000 	movwvc	r0, #24576	; 0x6000
    5b40:	0007ec02 	andeq	lr, r7, r2, lsl #24
    5b44:	ef170000 	svc	0x00170000
    5b48:	06000002 	streq	r0, [r0], -r2
    5b4c:	07fc0274 			; <UNDEFINED> instruction: 0x07fc0274
    5b50:	00780000 	rsbseq	r0, r8, r0
    5b54:	0002ec08 	andeq	lr, r2, r8, lsl #24
    5b58:	0007fc00 	andeq	pc, r7, r0, lsl #24
    5b5c:	00dd0900 	sbcseq	r0, sp, r0, lsl #18
    5b60:	001d0000 	andseq	r0, sp, r0
    5b64:	00002c08 	andeq	r2, r0, r8, lsl #24
    5b68:	00080c00 	andeq	r0, r8, r0, lsl #24
    5b6c:	00dd0900 	sbcseq	r0, sp, r0, lsl #18
    5b70:	001d0000 	andseq	r0, sp, r0
    5b74:	5506f01b 	strpl	pc, [r6, #-27]	; 0xffffffe5
    5b78:	00082e02 	andeq	r2, r8, r2, lsl #28
    5b7c:	03f11c00 	mvnseq	r1, #0, 24
    5b80:	6c060000 	stcvs	0, cr0, [r6], {-0}
    5b84:	00069702 	andeq	r9, r6, r2, lsl #14
    5b88:	05231c00 	streq	r1, [r3, #-3072]!	; 0xfffff400
    5b8c:	75060000 	strvc	r0, [r6, #-0]
    5b90:	0007c802 	andeq	ip, r7, r2, lsl #16
    5b94:	23080000 	movwcs	r0, #32768	; 0x8000
    5b98:	3e000001 	cdpcc	0, 0, cr0, cr0, cr1, {0}
    5b9c:	09000008 	stmdbeq	r0, {r3}
    5ba0:	000000dd 	ldrdeq	r0, [r0], -sp
    5ba4:	491d0018 	ldmdbmi	sp, {r3, r4}
    5ba8:	15000008 	strne	r0, [r0, #-8]
    5bac:	0000043a 	andeq	r0, r0, sl, lsr r4
    5bb0:	3e040d00 	cdpcc	13, 0, cr0, cr4, cr0, {0}
    5bb4:	0d000008 	stceq	0, cr0, [r0, #-32]	; 0xffffffe0
    5bb8:	00018d04 	andeq	r8, r1, r4, lsl #26
    5bbc:	08601d00 	stmdaeq	r0!, {r8, sl, fp, ip}^
    5bc0:	25150000 	ldrcs	r0, [r5, #-0]
    5bc4:	00000000 	andeq	r0, r0, r0
    5bc8:	0866040d 	stmdaeq	r6!, {r0, r2, r3, sl}^
    5bcc:	040d0000 	streq	r0, [sp], #-0
    5bd0:	00000855 	andeq	r0, r0, r5, asr r8
    5bd4:	00060508 	andeq	r0, r6, r8, lsl #10
    5bd8:	00087c00 	andeq	r7, r8, r0, lsl #24
    5bdc:	00dd0900 	sbcseq	r0, sp, r0, lsl #18
    5be0:	00020000 	andeq	r0, r2, r0
    5be4:	0004881e 	andeq	r8, r4, lr, lsl r8
    5be8:	02fd0600 	rscseq	r0, sp, #0, 12
    5bec:	0000043a 	andeq	r0, r0, sl, lsr r4
    5bf0:	0004811e 	andeq	r8, r4, lr, lsl r1
    5bf4:	02fe0600 	rscseq	r0, lr, #0, 12
    5bf8:	00000440 	andeq	r0, r0, r0, asr #8
    5bfc:	00002514 	andeq	r2, r0, r4, lsl r5
    5c00:	0008a300 	andeq	sl, r8, r0, lsl #6
    5c04:	00251500 	eoreq	r1, r5, r0, lsl #10
    5c08:	1f000000 	svcne	0x00000000
    5c0c:	000001ff 	strdeq	r0, [r0], -pc	; <UNPREDICTABLE>
    5c10:	08ae1d07 	stmiaeq	lr!, {r0, r1, r2, r8, sl, fp, ip}
    5c14:	040d0000 	streq	r0, [sp], #-0
    5c18:	00000894 	muleq	r0, r4, r8
    5c1c:	00002514 	andeq	r2, r0, r4, lsl r5
    5c20:	0008c300 	andeq	ip, r8, r0, lsl #6
    5c24:	059b1500 	ldreq	r1, [fp, #1280]	; 0x500
    5c28:	1f000000 	svcne	0x00000000
    5c2c:	000008b2 			; <UNDEFINED> instruction: 0x000008b2
    5c30:	08ce2207 	stmiaeq	lr, {r0, r1, r2, r9, sp}^
    5c34:	040d0000 	streq	r0, [sp], #-0
    5c38:	000008b4 			; <UNDEFINED> instruction: 0x000008b4
    5c3c:	0e080c0a 	cdpeq	12, 0, cr0, cr8, cr10, {0}
    5c40:	0000090b 	andeq	r0, r0, fp, lsl #18
    5c44:	00787410 	rsbseq	r7, r8, r0, lsl r4
    5c48:	004f0f08 	subeq	r0, pc, r8, lsl #30
    5c4c:	10000000 	andne	r0, r0, r0
    5c50:	08007872 	stmdaeq	r0, {r1, r4, r5, r6, fp, ip, sp, lr}
    5c54:	00004f0f 	andeq	r4, r0, pc, lsl #30
    5c58:	a80b0100 	stmdage	fp, {r8}
    5c5c:	08000009 	stmdaeq	r0, {r0, r3}
    5c60:	00006810 	andeq	r6, r0, r0, lsl r8
    5c64:	db0b0400 	blle	2c6c6c <__bss_end__+0x2bd0f4>
    5c68:	08000009 	stmdaeq	r0, {r0, r3}
    5c6c:	00006811 	andeq	r6, r0, r1, lsl r8
    5c70:	04000800 	streq	r0, [r0], #-2048	; 0xfffff800
    5c74:	00000971 	andeq	r0, r0, r1, ror r9
    5c78:	08d41208 	ldmeq	r4, {r3, r9, ip}^
    5c7c:	01200000 			; <UNDEFINED> instruction: 0x01200000
    5c80:	0000005a 	andeq	r0, r0, sl, asr r0
    5c84:	09351009 	ldmdbeq	r5!, {r0, r3, ip}
    5c88:	31210000 			; <UNDEFINED> instruction: 0x31210000
    5c8c:	01000009 	tsteq	r0, r9
    5c90:	0009ce21 	andeq	ip, r9, r1, lsr #28
    5c94:	fa210200 	blx	84649c <__bss_end__+0x83c924>
    5c98:	03000008 	movweq	r0, #8
    5c9c:	09080400 	stmdbeq	r8, {sl}
    5ca0:	10090000 	andne	r0, r9, r0
    5ca4:	00000916 	andeq	r0, r0, r6, lsl r9
    5ca8:	1409140a 	strne	r1, [r9], #-1034	; 0xfffffbf6
    5cac:	0000096d 	andeq	r0, r0, sp, ror #18
    5cb0:	00097b0b 	andeq	r7, r9, fp, lsl #22
    5cb4:	2c150900 			; <UNDEFINED> instruction: 0x2c150900
    5cb8:	00000000 	andeq	r0, r0, r0
    5cbc:	00093e0b 	andeq	r3, r9, fp, lsl #28
    5cc0:	35180900 	ldrcc	r0, [r8, #-2304]	; 0xfffff700
    5cc4:	04000009 	streq	r0, [r0], #-9
    5cc8:	00091b0b 	andeq	r1, r9, fp, lsl #22
    5ccc:	0b1b0900 	bleq	6c80d4 <__bss_end__+0x6be55c>
    5cd0:	08000009 	stmdaeq	r0, {r0, r3}
    5cd4:	09230400 	stmdbeq	r3!, {sl}
    5cd8:	20090000 	andcs	r0, r9, r0
    5cdc:	00000940 	andeq	r0, r0, r0, asr #18
    5ce0:	00094a22 	andeq	r4, r9, r2, lsr #20
    5ce4:	0b050100 	bleq	1460ec <__bss_end__+0x13c574>
    5ce8:	23000009 	movwcs	r0, #9
    5cec:	00000913 	andeq	r0, r0, r3, lsl r9
    5cf0:	8df80b01 			; <UNDEFINED> instruction: 0x8df80b01
    5cf4:	00700000 	rsbseq	r0, r0, r0
    5cf8:	9c010000 	stcls	0, cr0, [r1], {-0}
    5cfc:	00000a0c 	andeq	r0, r0, ip, lsl #20
    5d00:	0009571f 	andeq	r5, r9, pc, lsl r7
    5d04:	250c0100 	strcs	r0, [ip, #-256]	; 0xffffff00
    5d08:	1f000000 	svcne	0x00000000
    5d0c:	00000965 	andeq	r0, r0, r5, ror #18
    5d10:	00250c01 	eoreq	r0, r5, r1, lsl #24
    5d14:	9b240000 	blls	905d1c <__bss_end__+0x8fc1a4>
    5d18:	01000000 	mrseq	r0, (UNDEF: 0)
    5d1c:	7362250d 	cmnvc	r2, #54525952	; 0x3400000
    5d20:	0f010073 	svceq	0x00010073
    5d24:	00000a0c 	andeq	r0, r0, ip, lsl #20
    5d28:	000009eb 	andeq	r0, r0, fp, ror #19
    5d2c:	00098122 	andeq	r8, r9, r2, lsr #2
    5d30:	0c100100 	ldfeqs	f0, [r0], {-0}
    5d34:	2500000a 	strcs	r0, [r0, #-10]
    5d38:	01006263 	tsteq	r0, r3, ror #4
    5d3c:	000a1217 	andeq	r1, sl, r7, lsl r2
    5d40:	000a0b00 	andeq	r0, sl, r0, lsl #22
    5d44:	8e202600 	cfmadda32hi	mvax0, mvax2, mvfx0, mvfx0
    5d48:	0a3d0000 	beq	f45d50 <__bss_end__+0xf3c1d8>
    5d4c:	38260000 	stmdacc	r6!, {}	; <UNPREDICTABLE>
    5d50:	4800008e 	stmdami	r0, {r1, r2, r3, r7}
    5d54:	2600000a 	strcs	r0, [r0], -sl
    5d58:	00008e3c 	andeq	r8, r0, ip, lsr lr
    5d5c:	00000a53 	andeq	r0, r0, r3, asr sl
    5d60:	008e5027 	addeq	r5, lr, r7, lsr #32
    5d64:	000a5e00 	andeq	r5, sl, r0, lsl #28
    5d68:	50012800 	andpl	r2, r1, r0, lsl #16
    5d6c:	97580305 	ldrbls	r0, [r8, -r5, lsl #6]
    5d70:	00000000 	andeq	r0, r0, r0
    5d74:	0025040d 	eoreq	r0, r5, sp, lsl #8
    5d78:	040d0000 	streq	r0, [sp], #-0
    5d7c:	0000096d 	andeq	r0, r0, sp, ror #18
    5d80:	00098929 	andeq	r8, r9, r9, lsr #18
    5d84:	25060100 	strcs	r0, [r6, #-256]	; 0xffffff00
    5d88:	f4000000 	vst4.8	{d0-d3}, [r0], r0
    5d8c:	0400008d 	streq	r0, [r0], #-141	; 0xffffff73
    5d90:	01000000 	mrseq	r0, (UNDEF: 0)
    5d94:	000a3d9c 	muleq	sl, ip, sp
    5d98:	00632a00 	rsbeq	r2, r3, r0, lsl #20
    5d9c:	00250601 	eoreq	r0, r5, r1, lsl #12
    5da0:	50010000 	andpl	r0, r1, r0
    5da4:	09ad2b00 	stmibeq	sp!, {r8, r9, fp, sp}
    5da8:	09ad0000 	stmibeq	sp!, {}	; <UNPREDICTABLE>
    5dac:	2a090000 	bcs	245db4 <__bss_end__+0x23c23c>
    5db0:	00009b2b 	andeq	r9, r0, fp, lsr #22
    5db4:	00009b00 	andeq	r9, r0, r0, lsl #22
    5db8:	2bd00700 	blcs	ff4079c0 <__bss_end__+0xff3fde48>
    5dbc:	0000099d 	muleq	r0, sp, r9
    5dc0:	0000099d 	muleq	r0, sp, r9
    5dc4:	a82b6207 	stmdage	fp!, {r0, r1, r2, r9, sp, lr}
    5dc8:	a8000007 	stmdage	r0, {r0, r1, r2}
    5dcc:	07000007 	streq	r0, [r0, -r7]
    5dd0:	09e60029 	stmibeq	r6!, {r0, r3, r5}^
    5dd4:	00040000 	andeq	r0, r4, r0
    5dd8:	00001144 	andeq	r1, r0, r4, asr #2
    5ddc:	07be0104 	ldreq	r0, [lr, r4, lsl #2]!
    5de0:	290c0000 	stmdbcs	ip, {}	; <UNPREDICTABLE>
    5de4:	2500000a 	strcs	r0, [r0, #-10]
    5de8:	18000008 	stmdane	r0, {r3}
    5dec:	00000000 	andeq	r0, r0, r0
    5df0:	21000000 	mrscs	r0, (UNDEF: 0)
    5df4:	02000009 	andeq	r0, r0, #9
    5df8:	6e690504 	cdpvs	5, 6, cr0, cr9, cr4, {0}
    5dfc:	25030074 	strcs	r0, [r3, #-116]	; 0xffffff8c
    5e00:	04000000 	streq	r0, [r0], #-0
    5e04:	00d70704 	sbcseq	r0, r7, r4, lsl #14
    5e08:	01040000 	mrseq	r0, (UNDEF: 4)
    5e0c:	00035406 	andeq	r5, r3, r6, lsl #8
    5e10:	05020400 	streq	r0, [r2, #-1024]	; 0xfffffc00
    5e14:	00000369 	andeq	r0, r0, r9, ror #6
    5e18:	18050404 	stmdane	r5, {r2, sl}
    5e1c:	04000001 	streq	r0, [r0], #-1
    5e20:	01130508 	tsteq	r3, r8, lsl #10
    5e24:	01040000 	mrseq	r0, (UNDEF: 4)
    5e28:	00035208 	andeq	r5, r3, r8, lsl #4
    5e2c:	07020400 	streq	r0, [r2, -r0, lsl #8]
    5e30:	00000263 	andeq	r0, r0, r3, ror #4
    5e34:	d2070404 	andle	r0, r7, #4, 8	; 0x4000000
    5e38:	04000000 	streq	r0, [r0], #-0
    5e3c:	00cd0708 	sbceq	r0, sp, r8, lsl #14
    5e40:	40050000 	andmi	r0, r5, r0
    5e44:	02000003 	andeq	r0, r0, #3
    5e48:	00002507 	andeq	r2, r0, r7, lsl #10
    5e4c:	032f0500 			; <UNDEFINED> instruction: 0x032f0500
    5e50:	2c030000 	stccs	0, cr0, [r3], {-0}
    5e54:	00000046 	andeq	r0, r0, r6, asr #32
    5e58:	00041d05 	andeq	r1, r4, r5, lsl #26
    5e5c:	46720300 	ldrbtmi	r0, [r2], -r0, lsl #6
    5e60:	06000000 	streq	r0, [r0], -r0
    5e64:	000002b0 			; <UNDEFINED> instruction: 0x000002b0
    5e68:	31016504 	tstcc	r1, r4, lsl #10
    5e6c:	07000000 	streq	r0, [r0, -r0]
    5e70:	bca60304 	stclt	3, cr0, [r6], #16
    5e74:	08000000 	stmdaeq	r0, {}	; <UNPREDICTABLE>
    5e78:	000002aa 	andeq	r0, r0, sl, lsr #5
    5e7c:	0091a803 	addseq	sl, r1, r3, lsl #16
    5e80:	19080000 	stmdbne	r8, {}	; <UNPREDICTABLE>
    5e84:	03000002 	movweq	r0, #2
    5e88:	0000bca9 	andeq	fp, r0, r9, lsr #25
    5e8c:	54090000 	strpl	r0, [r9], #-0
    5e90:	cc000000 	stcgt	0, cr0, [r0], {-0}
    5e94:	0a000000 	beq	5e9c <_start-0x2164>
    5e98:	000000cc 	andeq	r0, r0, ip, asr #1
    5e9c:	04040003 	streq	r0, [r4], #-3
    5ea0:	0002f807 	andeq	pc, r2, r7, lsl #16
    5ea4:	03080b00 	movweq	r0, #35584	; 0x8b00
    5ea8:	0000f4a3 	andeq	pc, r0, r3, lsr #9
    5eac:	04070c00 	streq	r0, [r7], #-3072	; 0xfffff400
    5eb0:	a5030000 	strge	r0, [r3, #-0]
    5eb4:	00000025 	andeq	r0, r0, r5, lsr #32
    5eb8:	040f0c00 	streq	r0, [pc], #-3072	; 5ec0 <_start-0x2140>
    5ebc:	aa030000 	bge	c5ec4 <__bss_end__+0xbc34c>
    5ec0:	0000009d 	muleq	r0, sp, r0
    5ec4:	91050004 	tstls	r5, r4
    5ec8:	03000003 	movweq	r0, #3
    5ecc:	0000d3ab 	andeq	sp, r0, fp, lsr #7
    5ed0:	01cd0500 	biceq	r0, sp, r0, lsl #10
    5ed4:	af030000 	svcge	0x00030000
    5ed8:	00000070 	andeq	r0, r0, r0, ror r0
    5edc:	040e040d 	streq	r0, [lr], #-1037	; 0xfffffbf3
    5ee0:	00000112 	andeq	r0, r0, r2, lsl r1
    5ee4:	5b080104 	blpl	2062fc <__bss_end__+0x1fc784>
    5ee8:	03000003 	movweq	r0, #3
    5eec:	00000112 	andeq	r0, r0, r2, lsl r1
    5ef0:	00046c05 	andeq	r6, r4, r5, lsl #24
    5ef4:	62160500 	andsvs	r0, r6, #0, 10
    5ef8:	0f000000 	svceq	0x00000000
    5efc:	000001de 	ldrdeq	r0, [r0], -lr
    5f00:	7c2d0518 	cfstr32vc	mvfx0, [sp], #-96	; 0xffffffa0
    5f04:	0c000001 	stceq	0, cr0, [r0], {1}
    5f08:	000003b2 			; <UNDEFINED> instruction: 0x000003b2
    5f0c:	017c2f05 	cmneq	ip, r5, lsl #30
    5f10:	10000000 	andne	r0, r0, r0
    5f14:	05006b5f 	streq	r6, [r0, #-2911]	; 0xfffff4a1
    5f18:	00002530 	andeq	r2, r0, r0, lsr r5
    5f1c:	e90c0400 	stmdb	ip, {sl}
    5f20:	05000003 	streq	r0, [r0, #-3]
    5f24:	00002530 	andeq	r2, r0, r0, lsr r5
    5f28:	c70c0800 	strgt	r0, [ip, -r0, lsl #16]
    5f2c:	05000001 	streq	r0, [r0, #-1]
    5f30:	00002530 	andeq	r2, r0, r0, lsr r5
    5f34:	bc0c0c00 	stclt	12, cr0, [ip], {-0}
    5f38:	05000004 	streq	r0, [r0, #-4]
    5f3c:	00002530 	andeq	r2, r0, r0, lsr r5
    5f40:	5f101000 	svcpl	0x00101000
    5f44:	31050078 	tstcc	r5, r8, ror r0
    5f48:	00000182 	andeq	r0, r0, r2, lsl #3
    5f4c:	040e0014 	streq	r0, [lr], #-20	; 0xffffffec
    5f50:	00000129 	andeq	r0, r0, r9, lsr #2
    5f54:	00011e09 	andeq	r1, r1, r9, lsl #28
    5f58:	00019200 	andeq	r9, r1, r0, lsl #4
    5f5c:	00cc0a00 	sbceq	r0, ip, r0, lsl #20
    5f60:	00000000 	andeq	r0, r0, r0
    5f64:	00020b0f 	andeq	r0, r2, pc, lsl #22
    5f68:	35052400 	strcc	r2, [r5, #-1024]	; 0xfffffc00
    5f6c:	0000020b 	andeq	r0, r0, fp, lsl #4
    5f70:	00010a0c 	andeq	r0, r1, ip, lsl #20
    5f74:	25370500 	ldrcs	r0, [r7, #-1280]!	; 0xfffffb00
    5f78:	00000000 	andeq	r0, r0, r0
    5f7c:	0004250c 	andeq	r2, r4, ip, lsl #10
    5f80:	25380500 	ldrcs	r0, [r8, #-1280]!	; 0xfffffb00
    5f84:	04000000 	streq	r0, [r0], #-0
    5f88:	0001360c 	andeq	r3, r1, ip, lsl #12
    5f8c:	25390500 	ldrcs	r0, [r9, #-1280]!	; 0xfffffb00
    5f90:	08000000 	stmdaeq	r0, {}	; <UNPREDICTABLE>
    5f94:	0005640c 	andeq	r6, r5, ip, lsl #8
    5f98:	253a0500 	ldrcs	r0, [sl, #-1280]!	; 0xfffffb00
    5f9c:	0c000000 	stceq	0, cr0, [r0], {-0}
    5fa0:	0003130c 	andeq	r1, r3, ip, lsl #6
    5fa4:	253b0500 	ldrcs	r0, [fp, #-1280]!	; 0xfffffb00
    5fa8:	10000000 	andne	r0, r0, r0
    5fac:	0002d80c 	andeq	sp, r2, ip, lsl #16
    5fb0:	253c0500 	ldrcs	r0, [ip, #-1280]!	; 0xfffffb00
    5fb4:	14000000 	strne	r0, [r0], #-0
    5fb8:	0004c10c 	andeq	ip, r4, ip, lsl #2
    5fbc:	253d0500 	ldrcs	r0, [sp, #-1280]!	; 0xfffffb00
    5fc0:	18000000 	stmdane	r0, {}	; <UNPREDICTABLE>
    5fc4:	0003730c 	andeq	r7, r3, ip, lsl #6
    5fc8:	253e0500 	ldrcs	r0, [lr, #-1280]!	; 0xfffffb00
    5fcc:	1c000000 	stcne	0, cr0, [r0], {-0}
    5fd0:	00052b0c 	andeq	r2, r5, ip, lsl #22
    5fd4:	253f0500 	ldrcs	r0, [pc, #-1280]!	; 5adc <_start-0x2524>
    5fd8:	20000000 	andcs	r0, r0, r0
    5fdc:	01451100 	mrseq	r1, (UNDEF: 85)
    5fe0:	01080000 	mrseq	r0, (UNDEF: 8)
    5fe4:	024b4805 	subeq	r4, fp, #327680	; 0x50000
    5fe8:	ba0c0000 	blt	305ff0 <__bss_end__+0x2fc478>
    5fec:	05000001 	streq	r0, [r0, #-1]
    5ff0:	00024b49 	andeq	r4, r2, r9, asr #22
    5ff4:	000c0000 	andeq	r0, ip, r0
    5ff8:	05000000 	streq	r0, [r0, #-0]
    5ffc:	00024b4a 	andeq	r4, r2, sl, asr #22
    6000:	5e128000 	cdppl	0, 1, cr8, cr2, cr0, {0}
    6004:	05000004 	streq	r0, [r0, #-4]
    6008:	00011e4c 	andeq	r1, r1, ip, asr #28
    600c:	12010000 	andne	r0, r1, #0
    6010:	0000016a 	andeq	r0, r0, sl, ror #2
    6014:	011e4f05 	tsteq	lr, r5, lsl #30
    6018:	01040000 	mrseq	r0, (UNDEF: 4)
    601c:	010a0900 	tsteq	sl, r0, lsl #18
    6020:	025b0000 	subseq	r0, fp, #0
    6024:	cc0a0000 	stcgt	0, cr0, [sl], {-0}
    6028:	1f000000 	svcne	0x00000000
    602c:	031c1100 	tsteq	ip, #0, 2
    6030:	01900000 	orrseq	r0, r0, r0
    6034:	02995b05 	addseq	r5, r9, #5120	; 0x1400
    6038:	b20c0000 	andlt	r0, ip, #0
    603c:	05000003 	streq	r0, [r0, #-3]
    6040:	0002995c 	andeq	r9, r2, ip, asr r9
    6044:	ca0c0000 	bgt	30604c <__bss_end__+0x2fc4d4>
    6048:	05000003 	streq	r0, [r0, #-3]
    604c:	0000255d 	andeq	r2, r0, sp, asr r5
    6050:	c20c0400 	andgt	r0, ip, #0, 8
    6054:	05000001 	streq	r0, [r0, #-1]
    6058:	00029f5f 	andeq	r9, r2, pc, asr pc
    605c:	450c0800 	strmi	r0, [ip, #-2048]	; 0xfffff800
    6060:	05000001 	streq	r0, [r0, #-1]
    6064:	00020b60 	andeq	r0, r2, r0, ror #22
    6068:	0e008800 	cdpeq	8, 0, cr8, cr0, cr0, {0}
    606c:	00025b04 	andeq	r5, r2, r4, lsl #22
    6070:	02af0900 	adceq	r0, pc, #0, 18
    6074:	02af0000 	adceq	r0, pc, #0
    6078:	cc0a0000 	stcgt	0, cr0, [sl], {-0}
    607c:	1f000000 	svcne	0x00000000
    6080:	b5040e00 	strlt	r0, [r4, #-3584]	; 0xfffff200
    6084:	13000002 	movwne	r0, #2
    6088:	00037d0f 	andeq	r7, r3, pc, lsl #26
    608c:	73050800 	movwvc	r0, #22528	; 0x5800
    6090:	000002db 	ldrdeq	r0, [r0], -fp
    6094:	0001300c 	andeq	r3, r1, ip
    6098:	db740500 	blle	1d074a0 <__bss_end__+0x1cfd928>
    609c:	00000002 	andeq	r0, r0, r2
    60a0:	0000820c 	andeq	r8, r0, ip, lsl #4
    60a4:	25750500 	ldrbcs	r0, [r5, #-1280]!	; 0xfffffb00
    60a8:	04000000 	streq	r0, [r0], #-0
    60ac:	54040e00 	strpl	r0, [r4], #-3584	; 0xfffff200
    60b0:	0f000000 	svceq	0x00000000
    60b4:	0000039c 	muleq	r0, ip, r3
    60b8:	0bb30568 	bleq	fecc7660 <__bss_end__+0xfecbdae8>
    60bc:	10000004 	andne	r0, r0, r4
    60c0:	0500705f 	streq	r7, [r0, #-95]	; 0xffffffa1
    60c4:	0002dbb4 			; <UNDEFINED> instruction: 0x0002dbb4
    60c8:	5f100000 	svcpl	0x00100000
    60cc:	b5050072 	strlt	r0, [r5, #-114]	; 0xffffff8e
    60d0:	00000025 	andeq	r0, r0, r5, lsr #32
    60d4:	775f1004 	ldrbvc	r1, [pc, -r4]
    60d8:	25b60500 	ldrcs	r0, [r6, #1280]!	; 0x500
    60dc:	08000000 	stmdaeq	r0, {}	; <UNPREDICTABLE>
    60e0:	0001630c 	andeq	r6, r1, ip, lsl #6
    60e4:	3fb70500 	svccc	0x00b70500
    60e8:	0c000000 	stceq	0, cr0, [r0], {-0}
    60ec:	00023f0c 	andeq	r3, r2, ip, lsl #30
    60f0:	3fb80500 	svccc	0x00b80500
    60f4:	0e000000 	cdpeq	0, 0, cr0, cr0, cr0, {0}
    60f8:	66625f10 	uqadd16vs	r5, r2, r0
    60fc:	b6b90500 	ldrtlt	r0, [r9], r0, lsl #10
    6100:	10000002 	andne	r0, r0, r2
    6104:	0000e40c 	andeq	lr, r0, ip, lsl #8
    6108:	25ba0500 	ldrcs	r0, [sl, #1280]!	; 0x500
    610c:	18000000 	stmdane	r0, {}	; <UNPREDICTABLE>
    6110:	0001530c 	andeq	r5, r1, ip, lsl #6
    6114:	0ac10500 	beq	ff04751c <__bss_end__+0xff03d9a4>
    6118:	1c000001 	stcne	0, cr0, [r0], {1}
    611c:	0004b60c 	andeq	fp, r4, ip, lsl #12
    6120:	66c30500 	strbvs	r0, [r3], r0, lsl #10
    6124:	20000005 	andcs	r0, r0, r5
    6128:	00029b0c 	andeq	r9, r2, ip, lsl #22
    612c:	90c50500 	sbcls	r0, r5, r0, lsl #10
    6130:	24000005 	strcs	r0, [r0], #-5
    6134:	0004170c 	andeq	r1, r4, ip, lsl #14
    6138:	b4c80500 	strblt	r0, [r8], #1280	; 0x500
    613c:	28000005 	stmdacs	r0, {r0, r2}
    6140:	0005450c 	andeq	r4, r5, ip, lsl #10
    6144:	cec90500 	cdpgt	5, 12, cr0, cr9, cr0, {0}
    6148:	2c000005 	stccs	0, cr0, [r0], {5}
    614c:	62755f10 	rsbsvs	r5, r5, #16, 30	; 0x40
    6150:	b6cc0500 	strblt	r0, [ip], r0, lsl #10
    6154:	30000002 	andcc	r0, r0, r2
    6158:	70755f10 	rsbsvc	r5, r5, r0, lsl pc
    615c:	dbcd0500 	blle	ff347564 <__bss_end__+0xff33d9ec>
    6160:	38000002 	stmdacc	r0, {r1}
    6164:	72755f10 	rsbsvc	r5, r5, #16, 30	; 0x40
    6168:	25ce0500 	strbcs	r0, [lr, #1280]	; 0x500
    616c:	3c000000 	stccc	0, cr0, [r0], {-0}
    6170:	00012a0c 	andeq	r2, r1, ip, lsl #20
    6174:	d4d10500 	ldrble	r0, [r1], #1280	; 0x500
    6178:	40000005 	andmi	r0, r0, r5
    617c:	00051d0c 	andeq	r1, r5, ip, lsl #26
    6180:	e4d20500 	ldrb	r0, [r2], #1280	; 0x500
    6184:	43000005 	movwmi	r0, #5
    6188:	626c5f10 	rsbvs	r5, ip, #16, 30	; 0x40
    618c:	b6d50500 	ldrblt	r0, [r5], r0, lsl #10
    6190:	44000002 	strmi	r0, [r0], #-2
    6194:	0001790c 	andeq	r7, r1, ip, lsl #18
    6198:	25d80500 	ldrbcs	r0, [r8, #1280]	; 0x500
    619c:	4c000000 	stcmi	0, cr0, [r0], {-0}
    61a0:	0001930c 	andeq	r9, r1, ip, lsl #6
    61a4:	7bd90500 	blvc	ff6475ac <__bss_end__+0xff63da34>
    61a8:	50000000 	andpl	r0, r0, r0
    61ac:	000c2f0c 	andeq	r2, ip, ip, lsl #30
    61b0:	29dc0500 	ldmibcs	ip, {r8, sl}^
    61b4:	54000004 	strpl	r0, [r0], #-4
    61b8:	000c030c 	andeq	r0, ip, ip, lsl #6
    61bc:	ffe00500 			; <UNDEFINED> instruction: 0xffe00500
    61c0:	58000000 	stmdapl	r0, {}	; <UNPREDICTABLE>
    61c4:	0003a40c 	andeq	sl, r3, ip, lsl #8
    61c8:	f4e20500 	vld2.16	{d16[0],d17[0]}, [r2], r0
    61cc:	5c000000 	stcpl	0, cr0, [r0], {-0}
    61d0:	0002c10c 	andeq	ip, r2, ip, lsl #2
    61d4:	25e30500 	strbcs	r0, [r3, #1280]!	; 0x500
    61d8:	64000000 	strvs	r0, [r0], #-0
    61dc:	00251400 	eoreq	r1, r5, r0, lsl #8
    61e0:	04290000 	strteq	r0, [r9], #-0
    61e4:	29150000 	ldmdbcs	r5, {}	; <UNPREDICTABLE>
    61e8:	15000004 	strne	r0, [r0, #-4]
    61ec:	0000010a 	andeq	r0, r0, sl, lsl #2
    61f0:	00010c15 	andeq	r0, r1, r5, lsl ip
    61f4:	00251500 	eoreq	r1, r5, r0, lsl #10
    61f8:	0e000000 	cdpeq	0, 0, cr0, cr0, cr0, {0}
    61fc:	00043404 	andeq	r3, r4, r4, lsl #8
    6200:	04290300 	strteq	r0, [r9], #-768	; 0xfffffd00
    6204:	f1160000 			; <UNDEFINED> instruction: 0xf1160000
    6208:	28000003 	stmdacs	r0, {r0, r1}
    620c:	02380504 	eorseq	r0, r8, #4, 10	; 0x1000000
    6210:	00000566 	andeq	r0, r0, r6, ror #10
    6214:	00036217 	andeq	r6, r3, r7, lsl r2
    6218:	023a0500 	eorseq	r0, sl, #0, 10
    621c:	00000025 	andeq	r0, r0, r5, lsr #32
    6220:	01721700 	cmneq	r2, r0, lsl #14
    6224:	3f050000 	svccc	0x00050000
    6228:	00063b02 	andeq	r3, r6, r2, lsl #22
    622c:	2f170400 	svccs	0x00170400
    6230:	05000002 	streq	r0, [r0, #-2]
    6234:	063b023f 			; <UNDEFINED> instruction: 0x063b023f
    6238:	17080000 	strne	r0, [r8, -r0]
    623c:	000001d6 	ldrdeq	r0, [r0], -r6
    6240:	3b023f05 	blcc	95e5c <__bss_end__+0x8c2e4>
    6244:	0c000006 	stceq	0, cr0, [r0], {6}
    6248:	0003c517 	andeq	ip, r3, r7, lsl r5
    624c:	02410500 	subeq	r0, r1, #0, 10
    6250:	00000025 	andeq	r0, r0, r5, lsr #32
    6254:	00901710 	addseq	r1, r0, r0, lsl r7
    6258:	42050000 	andmi	r0, r5, #0
    625c:	00081d02 	andeq	r1, r8, r2, lsl #26
    6260:	94171400 	ldrls	r1, [r7], #-1024	; 0xfffffc00
    6264:	05000004 	streq	r0, [r0, #-4]
    6268:	00250244 	eoreq	r0, r5, r4, asr #4
    626c:	17300000 	ldrne	r0, [r0, -r0]!
    6270:	000003cf 	andeq	r0, r0, pc, asr #7
    6274:	8a024505 	bhi	97690 <__bss_end__+0x8db18>
    6278:	34000005 	strcc	r0, [r0], #-5
    627c:	00032417 	andeq	r2, r3, r7, lsl r4
    6280:	02470500 	subeq	r0, r7, #0, 10
    6284:	00000025 	andeq	r0, r0, r5, lsr #32
    6288:	03df1738 	bicseq	r1, pc, #56, 14	; 0xe00000
    628c:	49050000 	stmdbmi	r5, {}	; <UNPREDICTABLE>
    6290:	00083802 	andeq	r3, r8, r2, lsl #16
    6294:	a2173c00 	andsge	r3, r7, #0, 24
    6298:	05000002 	streq	r0, [r0, #-2]
    629c:	017c024c 	cmneq	ip, ip, asr #4
    62a0:	17400000 	strbne	r0, [r0, -r0]
    62a4:	000001f5 	strdeq	r0, [r0], -r5
    62a8:	25024d05 	strcs	r4, [r2, #-3333]	; 0xfffff2fb
    62ac:	44000000 	strmi	r0, [r0], #-0
    62b0:	00055f17 	andeq	r5, r5, r7, lsl pc
    62b4:	024e0500 	subeq	r0, lr, #0, 10
    62b8:	0000017c 	andeq	r0, r0, ip, ror r1
    62bc:	03361748 	teqeq	r6, #72, 14	; 0x1200000
    62c0:	4f050000 	svcmi	0x00050000
    62c4:	00083e02 	andeq	r3, r8, r2, lsl #28
    62c8:	37174c00 	ldrcc	r4, [r7, -r0, lsl #24]
    62cc:	05000002 	streq	r0, [r0, #-2]
    62d0:	00250252 	eoreq	r0, r5, r2, asr r2
    62d4:	17500000 	ldrbne	r0, [r0, -r0]
    62d8:	0000018b 	andeq	r0, r0, fp, lsl #3
    62dc:	0c025305 	stceq	3, cr5, [r2], {5}
    62e0:	54000001 	strpl	r0, [r0], #-1
    62e4:	000cc517 	andeq	ip, ip, r7, lsl r5
    62e8:	02760500 	rsbseq	r0, r6, #0, 10
    62ec:	000007fb 	strdeq	r0, [r0], -fp
    62f0:	031c1858 	tsteq	ip, #88, 16	; 0x580000
    62f4:	7a050000 	bvc	1462fc <__bss_end__+0x13c784>
    62f8:	00029902 	andeq	r9, r2, r2, lsl #18
    62fc:	18014800 	stmdane	r1, {fp, lr}
    6300:	00000276 	andeq	r0, r0, r6, ror r2
    6304:	5b027b05 	blpl	a4f20 <__bss_end__+0x9b3a8>
    6308:	4c000002 	stcmi	0, cr0, [r0], {2}
    630c:	05081801 	streq	r1, [r8, #-2049]	; 0xfffff7ff
    6310:	7f050000 	svcvc	0x00050000
    6314:	00084f02 	andeq	r4, r8, r2, lsl #30
    6318:	1802dc00 	stmdane	r2, {sl, fp, ip, lr, pc}
    631c:	0000015b 	andeq	r0, r0, fp, asr r1
    6320:	00028405 	andeq	r8, r2, r5, lsl #8
    6324:	e0000006 	and	r0, r0, r6
    6328:	01401802 	cmpeq	r0, r2, lsl #16
    632c:	85050000 	strhi	r0, [r5, #-0]
    6330:	00085b02 	andeq	r5, r8, r2, lsl #22
    6334:	0002ec00 	andeq	lr, r2, r0, lsl #24
    6338:	040b040e 	streq	r0, [fp], #-1038	; 0xfffffbf2
    633c:	25140000 	ldrcs	r0, [r4, #-0]
    6340:	8a000000 	bhi	6348 <_start-0x1cb8>
    6344:	15000005 	strne	r0, [r0, #-5]
    6348:	00000429 	andeq	r0, r0, r9, lsr #8
    634c:	00010a15 	andeq	r0, r1, r5, lsl sl
    6350:	058a1500 	streq	r1, [sl, #1280]	; 0x500
    6354:	25150000 	ldrcs	r0, [r5, #-0]
    6358:	00000000 	andeq	r0, r0, r0
    635c:	0119040e 	tsteq	r9, lr, lsl #8
    6360:	040e0000 	streq	r0, [lr], #-0
    6364:	0000056c 	andeq	r0, r0, ip, ror #10
    6368:	00008614 	andeq	r8, r0, r4, lsl r6
    636c:	0005b400 	andeq	fp, r5, r0, lsl #8
    6370:	04291500 	strteq	r1, [r9], #-1280	; 0xfffffb00
    6374:	0a150000 	beq	54637c <__bss_end__+0x53c804>
    6378:	15000001 	strne	r0, [r0, #-1]
    637c:	00000086 	andeq	r0, r0, r6, lsl #1
    6380:	00002515 	andeq	r2, r0, r5, lsl r5
    6384:	040e0000 	streq	r0, [lr], #-0
    6388:	00000596 	muleq	r0, r6, r5
    638c:	00002514 	andeq	r2, r0, r4, lsl r5
    6390:	0005ce00 	andeq	ip, r5, r0, lsl #28
    6394:	04291500 	strteq	r1, [r9], #-1280	; 0xfffffb00
    6398:	0a150000 	beq	5463a0 <__bss_end__+0x53c828>
    639c:	00000001 	andeq	r0, r0, r1
    63a0:	05ba040e 	ldreq	r0, [sl, #1038]!	; 0x40e
    63a4:	54090000 	strpl	r0, [r9], #-0
    63a8:	e4000000 	str	r0, [r0], #-0
    63ac:	0a000005 	beq	63c8 <_start-0x1c38>
    63b0:	000000cc 	andeq	r0, r0, ip, asr #1
    63b4:	54090002 	strpl	r0, [r9], #-2
    63b8:	f4000000 	vst4.8	{d0-d3}, [r0], r0
    63bc:	0a000005 	beq	63d8 <_start-0x1c28>
    63c0:	000000cc 	andeq	r0, r0, ip, asr #1
    63c4:	8a060000 	bhi	1863cc <__bss_end__+0x17c854>
    63c8:	05000003 	streq	r0, [r0, #-3]
    63cc:	02e1011d 	rsceq	r0, r1, #1073741831	; 0x40000007
    63d0:	cb190000 	blgt	6463d8 <__bss_end__+0x63c860>
    63d4:	0c000004 	stceq	0, cr0, [r0], {4}
    63d8:	35012105 	strcc	r2, [r1, #-261]	; 0xfffffefb
    63dc:	17000006 	strne	r0, [r0, -r6]
    63e0:	000003b2 			; <UNDEFINED> instruction: 0x000003b2
    63e4:	35012305 	strcc	r2, [r1, #-773]	; 0xfffffcfb
    63e8:	00000006 	andeq	r0, r0, r6
    63ec:	00025217 	andeq	r5, r2, r7, lsl r2
    63f0:	01240500 			; <UNDEFINED> instruction: 0x01240500
    63f4:	00000025 	andeq	r0, r0, r5, lsr #32
    63f8:	03841704 	orreq	r1, r4, #4, 14	; 0x100000
    63fc:	25050000 	strcs	r0, [r5, #-0]
    6400:	00063b01 	andeq	r3, r6, r1, lsl #22
    6404:	0e000800 	cdpeq	8, 0, cr0, cr0, cr0, {0}
    6408:	00060004 	andeq	r0, r6, r4
    640c:	f4040e00 			; <UNDEFINED> instruction: 0xf4040e00
    6410:	19000005 	stmdbne	r0, {r0, r2}
    6414:	00000088 	andeq	r0, r0, r8, lsl #1
    6418:	013d050e 	teqeq	sp, lr, lsl #10
    641c:	00000676 	andeq	r0, r0, r6, ror r6
    6420:	0003f817 	andeq	pc, r3, r7, lsl r8	; <UNPREDICTABLE>
    6424:	013e0500 	teqeq	lr, r0, lsl #10
    6428:	00000676 	andeq	r0, r0, r6, ror r6
    642c:	043f1700 	ldrteq	r1, [pc], #-1792	; 6434 <_start-0x1bcc>
    6430:	3f050000 	svccc	0x00050000
    6434:	00067601 	andeq	r7, r6, r1, lsl #12
    6438:	67170600 	ldrvs	r0, [r7, -r0, lsl #12]
    643c:	05000004 	streq	r0, [r0, #-4]
    6440:	005b0140 	subseq	r0, fp, r0, asr #2
    6444:	000c0000 	andeq	r0, ip, r0
    6448:	00005b09 	andeq	r5, r0, r9, lsl #22
    644c:	00068600 	andeq	r8, r6, r0, lsl #12
    6450:	00cc0a00 	sbceq	r0, ip, r0, lsl #20
    6454:	00020000 	andeq	r0, r2, r0
    6458:	5705d01a 	smladpl	r5, sl, r0, sp
    645c:	00078702 	andeq	r8, r7, r2, lsl #14
    6460:	04a61700 	strteq	r1, [r6], #1792	; 0x700
    6464:	59050000 	stmdbpl	r5, {}	; <UNPREDICTABLE>
    6468:	00003102 	andeq	r3, r0, r2, lsl #2
    646c:	51170000 	tstpl	r7, r0
    6470:	05000004 	streq	r0, [r0, #-4]
    6474:	010c025a 	tsteq	ip, sl, asr r2
    6478:	17040000 	strne	r0, [r4, -r0]
    647c:	0000028b 	andeq	r0, r0, fp, lsl #5
    6480:	87025b05 	strhi	r5, [r2, -r5, lsl #22]
    6484:	08000007 	stmdaeq	r0, {r0, r1, r2}
    6488:	00053617 	andeq	r3, r5, r7, lsl r6
    648c:	025c0500 	subseq	r0, ip, #0, 10
    6490:	00000192 	muleq	r0, r2, r1
    6494:	01e61724 	mvneq	r1, r4, lsr #14
    6498:	5d050000 	stcpl	0, cr0, [r5, #-0]
    649c:	00002502 	andeq	r2, r0, r2, lsl #10
    64a0:	ad174800 	ldcge	8, cr4, [r7, #-0]
    64a4:	05000003 	streq	r0, [r0, #-3]
    64a8:	0069025e 	rsbeq	r0, r9, lr, asr r2
    64ac:	17500000 	ldrbne	r0, [r0, -r0]
    64b0:	0000054c 	andeq	r0, r0, ip, asr #10
    64b4:	41025f05 	tstmi	r2, r5, lsl #30
    64b8:	58000006 	stmdapl	r0, {r1, r2}
    64bc:	0003b817 	andeq	fp, r3, r7, lsl r8
    64c0:	02600500 	rsbeq	r0, r0, #0, 10
    64c4:	000000f4 	strdeq	r0, [r0], -r4
    64c8:	05511768 	ldrbeq	r1, [r1, #-1896]	; 0xfffff898
    64cc:	61050000 	mrsvs	r0, (UNDEF: 5)
    64d0:	0000f402 	andeq	pc, r0, r2, lsl #8
    64d4:	fc177000 	ldc2	0, cr7, [r7], {-0}
    64d8:	05000000 	streq	r0, [r0, #-0]
    64dc:	00f40262 	rscseq	r0, r4, r2, ror #4
    64e0:	17780000 	ldrbne	r0, [r8, -r0]!
    64e4:	000004fe 	strdeq	r0, [r0], -lr
    64e8:	97026305 	strls	r6, [r2, -r5, lsl #6]
    64ec:	80000007 	andhi	r0, r0, r7
    64f0:	00027f17 	andeq	r7, r2, r7, lsl pc
    64f4:	02640500 	rsbeq	r0, r4, #0, 10
    64f8:	000007a7 	andeq	r0, r0, r7, lsr #15
    64fc:	04741788 	ldrbteq	r1, [r4], #-1928	; 0xfffff878
    6500:	65050000 	strvs	r0, [r5, #-0]
    6504:	00002502 	andeq	r2, r0, r2, lsl #10
    6508:	ac17a000 	ldcge	0, cr10, [r7], {-0}
    650c:	05000001 	streq	r0, [r0, #-1]
    6510:	00f40266 	rscseq	r0, r4, r6, ror #4
    6514:	17a40000 	strne	r0, [r4, r0]!
    6518:	000000ed 	andeq	r0, r0, sp, ror #1
    651c:	f4026705 	vst1.8	{d6}, [r2], r5
    6520:	ac000000 	stcge	0, cr0, [r0], {-0}
    6524:	00019b17 	andeq	r9, r1, r7, lsl fp
    6528:	02680500 	rsbeq	r0, r8, #0, 10
    652c:	000000f4 	strdeq	r0, [r0], -r4
    6530:	00ad17b4 	strhteq	r1, [sp], r4
    6534:	69050000 	stmdbvs	r5, {}	; <UNPREDICTABLE>
    6538:	0000f402 	andeq	pc, r0, r2, lsl #8
    653c:	bc17bc00 	ldclt	12, cr11, [r7], {-0}
    6540:	05000000 	streq	r0, [r0, #-0]
    6544:	00f4026a 	rscseq	r0, r4, sl, ror #4
    6548:	17c40000 	strbne	r0, [r4, r0]
    654c:	00000360 	andeq	r0, r0, r0, ror #6
    6550:	25026b05 	strcs	r6, [r2, #-2821]	; 0xfffff4fb
    6554:	cc000000 	stcgt	0, cr0, [r0], {-0}
    6558:	01120900 	tsteq	r2, r0, lsl #18
    655c:	07970000 	ldreq	r0, [r7, r0]
    6560:	cc0a0000 	stcgt	0, cr0, [sl], {-0}
    6564:	19000000 	stmdbne	r0, {}	; <UNPREDICTABLE>
    6568:	01120900 	tsteq	r2, r0, lsl #18
    656c:	07a70000 	streq	r0, [r7, r0]!
    6570:	cc0a0000 	stcgt	0, cr0, [sl], {-0}
    6574:	07000000 	streq	r0, [r0, -r0]
    6578:	01120900 	tsteq	r2, r0, lsl #18
    657c:	07b70000 	ldreq	r0, [r7, r0]!
    6580:	cc0a0000 	stcgt	0, cr0, [sl], {-0}
    6584:	17000000 	strne	r0, [r0, -r0]
    6588:	05f01a00 	ldrbeq	r1, [r0, #2560]!	; 0xa00
    658c:	07db0270 			; <UNDEFINED> instruction: 0x07db0270
    6590:	0c170000 	ldceq	0, cr0, [r7], {-0}
    6594:	05000003 	streq	r0, [r0, #-3]
    6598:	07db0273 			; <UNDEFINED> instruction: 0x07db0273
    659c:	17000000 	strne	r0, [r0, -r0]
    65a0:	000002ef 	andeq	r0, r0, pc, ror #5
    65a4:	eb027405 	bl	a35c0 <__bss_end__+0x99a48>
    65a8:	78000007 	stmdavc	r0, {r0, r1, r2}
    65ac:	02db0900 	sbcseq	r0, fp, #0, 18
    65b0:	07eb0000 	strbeq	r0, [fp, r0]!
    65b4:	cc0a0000 	stcgt	0, cr0, [sl], {-0}
    65b8:	1d000000 	stcne	0, cr0, [r0, #-0]
    65bc:	00310900 	eorseq	r0, r1, r0, lsl #18
    65c0:	07fb0000 	ldrbeq	r0, [fp, r0]!
    65c4:	cc0a0000 	stcgt	0, cr0, [sl], {-0}
    65c8:	1d000000 	stcne	0, cr0, [r0, #-0]
    65cc:	05f01b00 	ldrbeq	r1, [r0, #2816]!	; 0xb00
    65d0:	081d0255 	ldmdaeq	sp, {r0, r2, r4, r6, r9}
    65d4:	f11c0000 			; <UNDEFINED> instruction: 0xf11c0000
    65d8:	05000003 	streq	r0, [r0, #-3]
    65dc:	0686026c 	streq	r0, [r6], ip, ror #4
    65e0:	231c0000 	tstcs	ip, #0
    65e4:	05000005 	streq	r0, [r0, #-5]
    65e8:	07b70275 			; <UNDEFINED> instruction: 0x07b70275
    65ec:	09000000 	stmdbeq	r0, {}	; <UNPREDICTABLE>
    65f0:	00000112 	andeq	r0, r0, r2, lsl r1
    65f4:	0000082d 	andeq	r0, r0, sp, lsr #16
    65f8:	0000cc0a 	andeq	ip, r0, sl, lsl #24
    65fc:	1d001800 	stcne	8, cr1, [r0, #-0]
    6600:	00000838 	andeq	r0, r0, r8, lsr r8
    6604:	00042915 	andeq	r2, r4, r5, lsl r9
    6608:	040e0000 	streq	r0, [lr], #-0
    660c:	0000082d 	andeq	r0, r0, sp, lsr #16
    6610:	017c040e 	cmneq	ip, lr, lsl #8
    6614:	4f1d0000 	svcmi	0x001d0000
    6618:	15000008 	strne	r0, [r0, #-8]
    661c:	00000025 	andeq	r0, r0, r5, lsr #32
    6620:	55040e00 	strpl	r0, [r4, #-3584]	; 0xfffff200
    6624:	0e000008 	cdpeq	0, 0, cr0, cr0, cr8, {0}
    6628:	00084404 	andeq	r4, r8, r4, lsl #8
    662c:	05f40900 	ldrbeq	r0, [r4, #2304]!	; 0x900
    6630:	086b0000 	stmdaeq	fp!, {}^	; <UNPREDICTABLE>
    6634:	cc0a0000 	stcgt	0, cr0, [sl], {-0}
    6638:	02000000 	andeq	r0, r0, #0
    663c:	04881e00 	streq	r1, [r8], #3584	; 0xe00
    6640:	fd050000 	stc2	0, cr0, [r5, #-0]
    6644:	00042902 	andeq	r2, r4, r2, lsl #18
    6648:	04811e00 	streq	r1, [r1], #3584	; 0xe00
    664c:	fe050000 	cdp2	0, 0, cr0, cr5, cr0, {0}
    6650:	00042f02 	andeq	r2, r4, r2, lsl #30
    6654:	00251400 	eoreq	r1, r5, r0, lsl #8
    6658:	08920000 	ldmeq	r2, {}	; <UNPREDICTABLE>
    665c:	25150000 	ldrcs	r0, [r5, #-0]
    6660:	00000000 	andeq	r0, r0, r0
    6664:	0001ff1f 	andeq	pc, r1, pc, lsl pc	; <UNPREDICTABLE>
    6668:	9d1d0600 	ldcls	6, cr0, [sp, #-0]
    666c:	0e000008 	cdpeq	0, 0, cr0, cr0, cr8, {0}
    6670:	00088304 	andeq	r8, r8, r4, lsl #6
    6674:	00251400 	eoreq	r1, r5, r0, lsl #8
    6678:	08b20000 	ldmeq	r2!, {}	; <UNPREDICTABLE>
    667c:	8a150000 	bhi	546684 <__bss_end__+0x53cb0c>
    6680:	00000005 	andeq	r0, r0, r5
    6684:	0008b21f 	andeq	fp, r8, pc, lsl r2
    6688:	bd220600 	stclt	6, cr0, [r2, #-0]
    668c:	0e000008 	cdpeq	0, 0, cr0, cr0, cr8, {0}
    6690:	0008a304 	andeq	sl, r8, r4, lsl #6
    6694:	0a4f2000 	beq	13ce69c <__bss_end__+0x13c4b24>
    6698:	0d010000 	stceq	0, cr0, [r1, #-0]
    669c:	00000031 	andeq	r0, r0, r1, lsr r0
    66a0:	00099d21 	andeq	r9, r9, r1, lsr #26
    66a4:	941f0100 	ldrls	r0, [pc], #-256	; 66ac <_start-0x1954>
    66a8:	4c00008e 	stcmi	0, cr0, [r0], {142}	; 0x8e
    66ac:	01000000 	mrseq	r0, (UNDEF: 0)
    66b0:	0009859c 	muleq	r9, ip, r5
    66b4:	09e92200 	stmibeq	r9!, {r9, sp}^
    66b8:	2a010000 	bcs	466c0 <__bss_end__+0x3cb48>
    66bc:	0000002c 	andeq	r0, r0, ip, lsr #32
    66c0:	00000a29 	andeq	r0, r0, r9, lsr #20
    66c4:	000a1022 	andeq	r1, sl, r2, lsr #32
    66c8:	2c2b0100 	stfcss	f0, [fp], #-0
    66cc:	41000000 	mrsmi	r0, (UNDEF: 0)
    66d0:	2200000a 	andcs	r0, r0, #10
    66d4:	00000a1d 	andeq	r0, r0, sp, lsl sl
    66d8:	002c2c01 	eoreq	r2, ip, r1, lsl #24
    66dc:	0a590000 	beq	16466e4 <__bss_end__+0x163cb6c>
    66e0:	f7220000 			; <UNDEFINED> instruction: 0xf7220000
    66e4:	01000009 	tsteq	r0, r9
    66e8:	00002c2d 	andeq	r2, r0, sp, lsr #24
    66ec:	000a7000 	andeq	r7, sl, r0
    66f0:	8e9c2300 	cdphi	3, 9, cr2, cr12, cr0, {0}
    66f4:	09aa0000 	stmibeq	sl!, {}	; <UNPREDICTABLE>
    66f8:	ac240000 	stcge	0, cr0, [r4], #-0
    66fc:	d300008e 	movwle	r0, #142	; 0x8e
    6700:	3b000009 	blcc	672c <_start-0x18d4>
    6704:	25000009 	strcs	r0, [r0, #-9]
    6708:	4e015001 	cdpmi	0, 0, cr5, cr1, cr1, {0}
    670c:	8eb82400 	cdphi	4, 11, cr2, cr8, cr0, {0}
    6710:	09de0000 	ldmibeq	lr, {}^	; <UNPREDICTABLE>
    6714:	095b0000 	ldmdbeq	fp, {}^	; <UNPREDICTABLE>
    6718:	01250000 			; <UNDEFINED> instruction: 0x01250000
    671c:	240c0550 	strcs	r0, [ip], #-1360	; 0xfffffab0
    6720:	25201000 	strcs	r1, [r0, #-0]!
    6724:	0c055101 	stfeqs	f5, [r5], {1}
    6728:	5a000001 	bpl	6734 <_start-0x18cc>
    672c:	8ec42400 	cdphi	4, 12, cr2, cr4, cr0, {0}
    6730:	09de0000 	ldmibeq	lr, {}^	; <UNPREDICTABLE>
    6734:	097b0000 	ldmdbeq	fp!, {}^	; <UNPREDICTABLE>
    6738:	01250000 			; <UNDEFINED> instruction: 0x01250000
    673c:	1c0c0550 	cfstr32ne	mvfx0, [ip], {80}	; 0x50
    6740:	25201000 	strcs	r1, [r0, #-0]!
    6744:	0c055101 	stfeqs	f5, [r5], {1}
    6748:	5a000020 	bpl	67d0 <_start-0x1830>
    674c:	8ecc2300 	cdphi	3, 12, cr2, cr12, cr0, {0}
    6750:	09850000 	stmibeq	r5, {}	; <UNPREDICTABLE>
    6754:	26000000 	strcs	r0, [r0], -r0
    6758:	00000a3d 	andeq	r0, r0, sp, lsr sl
    675c:	8e801701 	cdphi	7, 8, cr1, cr0, cr1, {0}
    6760:	00140000 	andseq	r0, r4, r0
    6764:	9c010000 	stcls	0, cr0, [r1], {-0}
    6768:	000009aa 	andeq	r0, r0, sl, lsr #19
    676c:	000a1822 	andeq	r1, sl, r2, lsr #16
    6770:	31180100 	tstcc	r8, r0, lsl #2
    6774:	85000000 	strhi	r0, [r0, #-0]
    6778:	0000000a 	andeq	r0, r0, sl
    677c:	000a4c27 	andeq	r4, sl, r7, lsr #24
    6780:	250e0100 	strcs	r0, [lr, #-256]	; 0xffffff00
    6784:	68000000 	stmdavs	r0, {}	; <UNPREDICTABLE>
    6788:	1800008e 	stmdane	r0, {r1, r2, r3, r7}
    678c:	01000000 	mrseq	r0, (UNDEF: 0)
    6790:	0009d39c 	muleq	r9, ip, r3
    6794:	0a182200 	beq	60ef9c <__bss_end__+0x605424>
    6798:	0f010000 	svceq	0x00010000
    679c:	00000031 	andeq	r0, r0, r1, lsr r0
    67a0:	00000aaf 	andeq	r0, r0, pc, lsr #21
    67a4:	03fe2800 	mvnseq	r2, #0, 16
    67a8:	03fe0000 	mvnseq	r0, #0
    67ac:	4f060000 	svcmi	0x00060000
    67b0:	0009f128 	andeq	pc, r9, r8, lsr #2
    67b4:	0009f100 	andeq	pc, r9, r0, lsl #2
    67b8:	009b0600 	addseq	r0, fp, r0, lsl #12
    67bc:	00000917 	andeq	r0, r0, r7, lsl r9
    67c0:	136e0004 	cmnne	lr, #4
    67c4:	01040000 	mrseq	r0, (UNDEF: 4)
    67c8:	000007be 			; <UNDEFINED> instruction: 0x000007be
    67cc:	000a5a0c 	andeq	r5, sl, ip, lsl #20
    67d0:	00082500 	andeq	r2, r8, r0, lsl #10
    67d4:	008ee000 	addeq	lr, lr, r0
    67d8:	00002800 	andeq	r2, r0, r0, lsl #16
    67dc:	000a0600 	andeq	r0, sl, r0, lsl #12
    67e0:	05040200 	streq	r0, [r4, #-512]	; 0xfffffe00
    67e4:	00746e69 	rsbseq	r6, r4, r9, ror #28
    67e8:	d7070403 	strle	r0, [r7, -r3, lsl #8]
    67ec:	03000000 	movweq	r0, #0
    67f0:	03540601 	cmpeq	r4, #1048576	; 0x100000
    67f4:	02030000 	andeq	r0, r3, #0
    67f8:	00036905 	andeq	r6, r3, r5, lsl #18
    67fc:	05040300 	streq	r0, [r4, #-768]	; 0xfffffd00
    6800:	00000118 	andeq	r0, r0, r8, lsl r1
    6804:	13050803 	movwne	r0, #22531	; 0x5803
    6808:	03000001 	movweq	r0, #1
    680c:	03520801 	cmpeq	r2, #65536	; 0x10000
    6810:	02030000 	andeq	r0, r3, #0
    6814:	00026307 	andeq	r6, r2, r7, lsl #6
    6818:	07040300 	streq	r0, [r4, -r0, lsl #6]
    681c:	000000d2 	ldrdeq	r0, [r0], -r2
    6820:	cd070803 	stcgt	8, cr0, [r7, #-12]
    6824:	04000000 	streq	r0, [r0], #-0
    6828:	00000340 	andeq	r0, r0, r0, asr #6
    682c:	00250702 	eoreq	r0, r5, r2, lsl #14
    6830:	2f040000 	svccs	0x00040000
    6834:	03000003 	movweq	r0, #3
    6838:	0000412c 	andeq	r4, r0, ip, lsr #2
    683c:	041d0400 	ldreq	r0, [sp], #-1024	; 0xfffffc00
    6840:	72030000 	andvc	r0, r3, #0
    6844:	00000041 	andeq	r0, r0, r1, asr #32
    6848:	0002b005 	andeq	fp, r2, r5
    684c:	01650400 	cmneq	r5, r0, lsl #8
    6850:	0000002c 	andeq	r0, r0, ip, lsr #32
    6854:	a6030406 	strge	r0, [r3], -r6, lsl #8
    6858:	000000b7 	strheq	r0, [r0], -r7
    685c:	0002aa07 	andeq	sl, r2, r7, lsl #20
    6860:	8ca80300 	stchi	3, cr0, [r8]
    6864:	07000000 	streq	r0, [r0, -r0]
    6868:	00000219 	andeq	r0, r0, r9, lsl r2
    686c:	00b7a903 	adcseq	sl, r7, r3, lsl #18
    6870:	08000000 	stmdaeq	r0, {}	; <UNPREDICTABLE>
    6874:	0000004f 	andeq	r0, r0, pc, asr #32
    6878:	000000c7 	andeq	r0, r0, r7, asr #1
    687c:	0000c709 	andeq	ip, r0, r9, lsl #14
    6880:	03000300 	movweq	r0, #768	; 0x300
    6884:	02f80704 	rscseq	r0, r8, #4, 14	; 0x100000
    6888:	080a0000 	stmdaeq	sl, {}	; <UNPREDICTABLE>
    688c:	00efa303 	rsceq	sl, pc, r3, lsl #6
    6890:	070b0000 	streq	r0, [fp, -r0]
    6894:	03000004 	movweq	r0, #4
    6898:	000025a5 	andeq	r2, r0, r5, lsr #11
    689c:	0f0b0000 	svceq	0x000b0000
    68a0:	03000004 	movweq	r0, #4
    68a4:	000098aa 	andeq	r9, r0, sl, lsr #17
    68a8:	04000400 	streq	r0, [r0], #-1024	; 0xfffffc00
    68ac:	00000391 	muleq	r0, r1, r3
    68b0:	00ceab03 	sbceq	sl, lr, r3, lsl #22
    68b4:	cd040000 	stcgt	0, cr0, [r4, #-0]
    68b8:	03000001 	movweq	r0, #1
    68bc:	00006baf 	andeq	r6, r0, pc, lsr #23
    68c0:	0d040c00 	stceq	12, cr0, [r4, #-0]
    68c4:	00010d04 	andeq	r0, r1, r4, lsl #26
    68c8:	08010300 	stmdaeq	r1, {r8, r9}
    68cc:	0000035b 	andeq	r0, r0, fp, asr r3
    68d0:	00010d0e 	andeq	r0, r1, lr, lsl #26
    68d4:	046c0400 	strbteq	r0, [ip], #-1024	; 0xfffffc00
    68d8:	16050000 	strne	r0, [r5], -r0
    68dc:	0000005d 	andeq	r0, r0, sp, asr r0
    68e0:	0001de0f 	andeq	sp, r1, pc, lsl #28
    68e4:	2d051800 	stccs	8, cr1, [r5, #-0]
    68e8:	00000177 	andeq	r0, r0, r7, ror r1
    68ec:	0003b20b 	andeq	fp, r3, fp, lsl #4
    68f0:	772f0500 	strvc	r0, [pc, -r0, lsl #10]!
    68f4:	00000001 	andeq	r0, r0, r1
    68f8:	006b5f10 	rsbeq	r5, fp, r0, lsl pc
    68fc:	00253005 	eoreq	r3, r5, r5
    6900:	0b040000 	bleq	106908 <__bss_end__+0xfcd90>
    6904:	000003e9 	andeq	r0, r0, r9, ror #7
    6908:	00253005 	eoreq	r3, r5, r5
    690c:	0b080000 	bleq	206914 <__bss_end__+0x1fcd9c>
    6910:	000001c7 	andeq	r0, r0, r7, asr #3
    6914:	00253005 	eoreq	r3, r5, r5
    6918:	0b0c0000 	bleq	306920 <__bss_end__+0x2fcda8>
    691c:	000004bc 			; <UNDEFINED> instruction: 0x000004bc
    6920:	00253005 	eoreq	r3, r5, r5
    6924:	10100000 	andsne	r0, r0, r0
    6928:	0500785f 	streq	r7, [r0, #-2143]	; 0xfffff7a1
    692c:	00017d31 	andeq	r7, r1, r1, lsr sp
    6930:	0d001400 	cfstrseq	mvf1, [r0, #-0]
    6934:	00012404 	andeq	r2, r1, r4, lsl #8
    6938:	01190800 	tsteq	r9, r0, lsl #16
    693c:	018d0000 	orreq	r0, sp, r0
    6940:	c7090000 	strgt	r0, [r9, -r0]
    6944:	00000000 	andeq	r0, r0, r0
    6948:	020b0f00 	andeq	r0, fp, #0, 30
    694c:	05240000 	streq	r0, [r4, #-0]!
    6950:	00020635 	andeq	r0, r2, r5, lsr r6
    6954:	010a0b00 	tsteq	sl, r0, lsl #22
    6958:	37050000 	strcc	r0, [r5, -r0]
    695c:	00000025 	andeq	r0, r0, r5, lsr #32
    6960:	04250b00 	strteq	r0, [r5], #-2816	; 0xfffff500
    6964:	38050000 	stmdacc	r5, {}	; <UNPREDICTABLE>
    6968:	00000025 	andeq	r0, r0, r5, lsr #32
    696c:	01360b04 	teqeq	r6, r4, lsl #22
    6970:	39050000 	stmdbcc	r5, {}	; <UNPREDICTABLE>
    6974:	00000025 	andeq	r0, r0, r5, lsr #32
    6978:	05640b08 	strbeq	r0, [r4, #-2824]!	; 0xfffff4f8
    697c:	3a050000 	bcc	146984 <__bss_end__+0x13ce0c>
    6980:	00000025 	andeq	r0, r0, r5, lsr #32
    6984:	03130b0c 	tsteq	r3, #12, 22	; 0x3000
    6988:	3b050000 	blcc	146990 <__bss_end__+0x13ce18>
    698c:	00000025 	andeq	r0, r0, r5, lsr #32
    6990:	02d80b10 	sbcseq	r0, r8, #16, 22	; 0x4000
    6994:	3c050000 	stccc	0, cr0, [r5], {-0}
    6998:	00000025 	andeq	r0, r0, r5, lsr #32
    699c:	04c10b14 	strbeq	r0, [r1], #2836	; 0xb14
    69a0:	3d050000 	stccc	0, cr0, [r5, #-0]
    69a4:	00000025 	andeq	r0, r0, r5, lsr #32
    69a8:	03730b18 	cmneq	r3, #24, 22	; 0x6000
    69ac:	3e050000 	cdpcc	0, 0, cr0, cr5, cr0, {0}
    69b0:	00000025 	andeq	r0, r0, r5, lsr #32
    69b4:	052b0b1c 	streq	r0, [fp, #-2844]!	; 0xfffff4e4
    69b8:	3f050000 	svccc	0x00050000
    69bc:	00000025 	andeq	r0, r0, r5, lsr #32
    69c0:	45110020 	ldrmi	r0, [r1, #-32]	; 0xffffffe0
    69c4:	08000001 	stmdaeq	r0, {r0}
    69c8:	46480501 	strbmi	r0, [r8], -r1, lsl #10
    69cc:	0b000002 	bleq	69dc <_start-0x1624>
    69d0:	000001ba 			; <UNDEFINED> instruction: 0x000001ba
    69d4:	02464905 	subeq	r4, r6, #81920	; 0x14000
    69d8:	0b000000 	bleq	69e0 <_start-0x1620>
    69dc:	00000000 	andeq	r0, r0, r0
    69e0:	02464a05 	subeq	r4, r6, #20480	; 0x5000
    69e4:	12800000 	addne	r0, r0, #0
    69e8:	0000045e 	andeq	r0, r0, lr, asr r4
    69ec:	01194c05 	tsteq	r9, r5, lsl #24
    69f0:	01000000 	mrseq	r0, (UNDEF: 0)
    69f4:	00016a12 	andeq	r6, r1, r2, lsl sl
    69f8:	194f0500 	stmdbne	pc, {r8, sl}^	; <UNPREDICTABLE>
    69fc:	04000001 	streq	r0, [r0], #-1
    6a00:	05080001 	streq	r0, [r8, #-1]
    6a04:	56000001 	strpl	r0, [r0], -r1
    6a08:	09000002 	stmdbeq	r0, {r1}
    6a0c:	000000c7 	andeq	r0, r0, r7, asr #1
    6a10:	1c11001f 	ldcne	0, cr0, [r1], {31}
    6a14:	90000003 	andls	r0, r0, r3
    6a18:	945b0501 	ldrbls	r0, [fp], #-1281	; 0xfffffaff
    6a1c:	0b000002 	bleq	6a2c <_start-0x15d4>
    6a20:	000003b2 			; <UNDEFINED> instruction: 0x000003b2
    6a24:	02945c05 	addseq	r5, r4, #1280	; 0x500
    6a28:	0b000000 	bleq	6a30 <_start-0x15d0>
    6a2c:	000003ca 	andeq	r0, r0, sl, asr #7
    6a30:	00255d05 	eoreq	r5, r5, r5, lsl #26
    6a34:	0b040000 	bleq	106a3c <__bss_end__+0xfcec4>
    6a38:	000001c2 	andeq	r0, r0, r2, asr #3
    6a3c:	029a5f05 	addseq	r5, sl, #5, 30
    6a40:	0b080000 	bleq	206a48 <__bss_end__+0x1fced0>
    6a44:	00000145 	andeq	r0, r0, r5, asr #2
    6a48:	02066005 	andeq	r6, r6, #5
    6a4c:	00880000 	addeq	r0, r8, r0
    6a50:	0256040d 	subseq	r0, r6, #218103808	; 0xd000000
    6a54:	aa080000 	bge	206a5c <__bss_end__+0x1fcee4>
    6a58:	aa000002 	bge	6a68 <_start-0x1598>
    6a5c:	09000002 	stmdbeq	r0, {r1}
    6a60:	000000c7 	andeq	r0, r0, r7, asr #1
    6a64:	040d001f 	streq	r0, [sp], #-31	; 0xffffffe1
    6a68:	000002b0 			; <UNDEFINED> instruction: 0x000002b0
    6a6c:	037d0f13 	cmneq	sp, #19, 30	; 0x4c
    6a70:	05080000 	streq	r0, [r8, #-0]
    6a74:	0002d673 	andeq	sp, r2, r3, ror r6
    6a78:	01300b00 	teqeq	r0, r0, lsl #22
    6a7c:	74050000 	strvc	r0, [r5], #-0
    6a80:	000002d6 	ldrdeq	r0, [r0], -r6
    6a84:	00820b00 	addeq	r0, r2, r0, lsl #22
    6a88:	75050000 	strvc	r0, [r5, #-0]
    6a8c:	00000025 	andeq	r0, r0, r5, lsr #32
    6a90:	040d0004 	streq	r0, [sp], #-4
    6a94:	0000004f 	andeq	r0, r0, pc, asr #32
    6a98:	00039c0f 	andeq	r9, r3, pc, lsl #24
    6a9c:	b3056800 	movwlt	r6, #22528	; 0x5800
    6aa0:	00000406 	andeq	r0, r0, r6, lsl #8
    6aa4:	00705f10 	rsbseq	r5, r0, r0, lsl pc
    6aa8:	02d6b405 	sbcseq	fp, r6, #83886080	; 0x5000000
    6aac:	10000000 	andne	r0, r0, r0
    6ab0:	0500725f 	streq	r7, [r0, #-607]	; 0xfffffda1
    6ab4:	000025b5 			; <UNDEFINED> instruction: 0x000025b5
    6ab8:	5f100400 	svcpl	0x00100400
    6abc:	b6050077 			; <UNDEFINED> instruction: 0xb6050077
    6ac0:	00000025 	andeq	r0, r0, r5, lsr #32
    6ac4:	01630b08 	cmneq	r3, r8, lsl #22
    6ac8:	b7050000 	strlt	r0, [r5, -r0]
    6acc:	0000003a 	andeq	r0, r0, sl, lsr r0
    6ad0:	023f0b0c 	eorseq	r0, pc, #12, 22	; 0x3000
    6ad4:	b8050000 	stmdalt	r5, {}	; <UNPREDICTABLE>
    6ad8:	0000003a 	andeq	r0, r0, sl, lsr r0
    6adc:	625f100e 	subsvs	r1, pc, #14
    6ae0:	b9050066 	stmdblt	r5, {r1, r2, r5, r6}
    6ae4:	000002b1 			; <UNDEFINED> instruction: 0x000002b1
    6ae8:	00e40b10 	rsceq	r0, r4, r0, lsl fp
    6aec:	ba050000 	blt	146af4 <__bss_end__+0x13cf7c>
    6af0:	00000025 	andeq	r0, r0, r5, lsr #32
    6af4:	01530b18 	cmpeq	r3, r8, lsl fp
    6af8:	c1050000 	mrsgt	r0, (UNDEF: 5)
    6afc:	00000105 	andeq	r0, r0, r5, lsl #2
    6b00:	04b60b1c 	ldrteq	r0, [r6], #2844	; 0xb1c
    6b04:	c3050000 	movwgt	r0, #20480	; 0x5000
    6b08:	00000561 	andeq	r0, r0, r1, ror #10
    6b0c:	029b0b20 	addseq	r0, fp, #32, 22	; 0x8000
    6b10:	c5050000 	strgt	r0, [r5, #-0]
    6b14:	0000058b 	andeq	r0, r0, fp, lsl #11
    6b18:	04170b24 	ldreq	r0, [r7], #-2852	; 0xfffff4dc
    6b1c:	c8050000 	stmdagt	r5, {}	; <UNPREDICTABLE>
    6b20:	000005af 	andeq	r0, r0, pc, lsr #11
    6b24:	05450b28 	strbeq	r0, [r5, #-2856]	; 0xfffff4d8
    6b28:	c9050000 	stmdbgt	r5, {}	; <UNPREDICTABLE>
    6b2c:	000005c9 	andeq	r0, r0, r9, asr #11
    6b30:	755f102c 	ldrbvc	r1, [pc, #-44]	; 6b0c <_start-0x14f4>
    6b34:	cc050062 	stcgt	0, cr0, [r5], {98}	; 0x62
    6b38:	000002b1 			; <UNDEFINED> instruction: 0x000002b1
    6b3c:	755f1030 	ldrbvc	r1, [pc, #-48]	; 6b14 <_start-0x14ec>
    6b40:	cd050070 	stcgt	0, cr0, [r5, #-448]	; 0xfffffe40
    6b44:	000002d6 	ldrdeq	r0, [r0], -r6
    6b48:	755f1038 	ldrbvc	r1, [pc, #-56]	; 6b18 <_start-0x14e8>
    6b4c:	ce050072 	mcrgt	0, 0, r0, cr5, cr2, {3}
    6b50:	00000025 	andeq	r0, r0, r5, lsr #32
    6b54:	012a0b3c 			; <UNDEFINED> instruction: 0x012a0b3c
    6b58:	d1050000 	mrsle	r0, (UNDEF: 5)
    6b5c:	000005cf 	andeq	r0, r0, pc, asr #11
    6b60:	051d0b40 	ldreq	r0, [sp, #-2880]	; 0xfffff4c0
    6b64:	d2050000 	andle	r0, r5, #0
    6b68:	000005df 	ldrdeq	r0, [r0], -pc	; <UNPREDICTABLE>
    6b6c:	6c5f1043 	mrrcvs	0, 4, r1, pc, cr3	; <UNPREDICTABLE>
    6b70:	d5050062 	strle	r0, [r5, #-98]	; 0xffffff9e
    6b74:	000002b1 			; <UNDEFINED> instruction: 0x000002b1
    6b78:	01790b44 	cmneq	r9, r4, asr #22
    6b7c:	d8050000 	stmdale	r5, {}	; <UNPREDICTABLE>
    6b80:	00000025 	andeq	r0, r0, r5, lsr #32
    6b84:	01930b4c 	orrseq	r0, r3, ip, asr #22
    6b88:	d9050000 	stmdble	r5, {}	; <UNPREDICTABLE>
    6b8c:	00000076 	andeq	r0, r0, r6, ror r0
    6b90:	0c2f0b50 			; <UNDEFINED> instruction: 0x0c2f0b50
    6b94:	dc050000 	stcle	0, cr0, [r5], {-0}
    6b98:	00000424 	andeq	r0, r0, r4, lsr #8
    6b9c:	0c030b54 			; <UNDEFINED> instruction: 0x0c030b54
    6ba0:	e0050000 	and	r0, r5, r0
    6ba4:	000000fa 	strdeq	r0, [r0], -sl
    6ba8:	03a40b58 			; <UNDEFINED> instruction: 0x03a40b58
    6bac:	e2050000 	and	r0, r5, #0
    6bb0:	000000ef 	andeq	r0, r0, pc, ror #1
    6bb4:	02c10b5c 	sbceq	r0, r1, #92, 22	; 0x17000
    6bb8:	e3050000 	movw	r0, #20480	; 0x5000
    6bbc:	00000025 	andeq	r0, r0, r5, lsr #32
    6bc0:	25140064 	ldrcs	r0, [r4, #-100]	; 0xffffff9c
    6bc4:	24000000 	strcs	r0, [r0], #-0
    6bc8:	15000004 	strne	r0, [r0, #-4]
    6bcc:	00000424 	andeq	r0, r0, r4, lsr #8
    6bd0:	00010515 	andeq	r0, r1, r5, lsl r5
    6bd4:	01071500 	tsteq	r7, r0, lsl #10
    6bd8:	25150000 	ldrcs	r0, [r5, #-0]
    6bdc:	00000000 	andeq	r0, r0, r0
    6be0:	042f040d 	strteq	r0, [pc], #-1037	; 6be8 <_start-0x1418>
    6be4:	240e0000 	strcs	r0, [lr], #-0
    6be8:	16000004 	strne	r0, [r0], -r4
    6bec:	000003f1 	strdeq	r0, [r0], -r1
    6bf0:	38050428 	stmdacc	r5, {r3, r5, sl}
    6bf4:	00056102 	andeq	r6, r5, r2, lsl #2
    6bf8:	03621700 	cmneq	r2, #0, 14
    6bfc:	3a050000 	bcc	146c04 <__bss_end__+0x13d08c>
    6c00:	00002502 	andeq	r2, r0, r2, lsl #10
    6c04:	72170000 	andsvc	r0, r7, #0
    6c08:	05000001 	streq	r0, [r0, #-1]
    6c0c:	0636023f 			; <UNDEFINED> instruction: 0x0636023f
    6c10:	17040000 	strne	r0, [r4, -r0]
    6c14:	0000022f 	andeq	r0, r0, pc, lsr #4
    6c18:	36023f05 	strcc	r3, [r2], -r5, lsl #30
    6c1c:	08000006 	stmdaeq	r0, {r1, r2}
    6c20:	0001d617 	andeq	sp, r1, r7, lsl r6
    6c24:	023f0500 	eorseq	r0, pc, #0, 10
    6c28:	00000636 	andeq	r0, r0, r6, lsr r6
    6c2c:	03c5170c 	biceq	r1, r5, #12, 14	; 0x300000
    6c30:	41050000 	mrsmi	r0, (UNDEF: 5)
    6c34:	00002502 	andeq	r2, r0, r2, lsl #10
    6c38:	90171000 	andsls	r1, r7, r0
    6c3c:	05000000 	streq	r0, [r0, #-0]
    6c40:	08180242 	ldmdaeq	r8, {r1, r6, r9}
    6c44:	17140000 	ldrne	r0, [r4, -r0]
    6c48:	00000494 	muleq	r0, r4, r4
    6c4c:	25024405 	strcs	r4, [r2, #-1029]	; 0xfffffbfb
    6c50:	30000000 	andcc	r0, r0, r0
    6c54:	0003cf17 	andeq	ip, r3, r7, lsl pc
    6c58:	02450500 	subeq	r0, r5, #0, 10
    6c5c:	00000585 	andeq	r0, r0, r5, lsl #11
    6c60:	03241734 			; <UNDEFINED> instruction: 0x03241734
    6c64:	47050000 	strmi	r0, [r5, -r0]
    6c68:	00002502 	andeq	r2, r0, r2, lsl #10
    6c6c:	df173800 	svcle	0x00173800
    6c70:	05000003 	streq	r0, [r0, #-3]
    6c74:	08330249 	ldmdaeq	r3!, {r0, r3, r6, r9}
    6c78:	173c0000 	ldrne	r0, [ip, -r0]!
    6c7c:	000002a2 	andeq	r0, r0, r2, lsr #5
    6c80:	77024c05 	strvc	r4, [r2, -r5, lsl #24]
    6c84:	40000001 	andmi	r0, r0, r1
    6c88:	0001f517 	andeq	pc, r1, r7, lsl r5	; <UNPREDICTABLE>
    6c8c:	024d0500 	subeq	r0, sp, #0, 10
    6c90:	00000025 	andeq	r0, r0, r5, lsr #32
    6c94:	055f1744 	ldrbeq	r1, [pc, #-1860]	; 6558 <_start-0x1aa8>
    6c98:	4e050000 	cdpmi	0, 0, cr0, cr5, cr0, {0}
    6c9c:	00017702 	andeq	r7, r1, r2, lsl #14
    6ca0:	36174800 	ldrcc	r4, [r7], -r0, lsl #16
    6ca4:	05000003 	streq	r0, [r0, #-3]
    6ca8:	0839024f 	ldmdaeq	r9!, {r0, r1, r2, r3, r6, r9}
    6cac:	174c0000 	strbne	r0, [ip, -r0]
    6cb0:	00000237 	andeq	r0, r0, r7, lsr r2
    6cb4:	25025205 	strcs	r5, [r2, #-517]	; 0xfffffdfb
    6cb8:	50000000 	andpl	r0, r0, r0
    6cbc:	00018b17 	andeq	r8, r1, r7, lsl fp
    6cc0:	02530500 	subseq	r0, r3, #0, 10
    6cc4:	00000107 	andeq	r0, r0, r7, lsl #2
    6cc8:	0cc51754 	stcleq	7, cr1, [r5], {84}	; 0x54
    6ccc:	76050000 	strvc	r0, [r5], -r0
    6cd0:	0007f602 	andeq	pc, r7, r2, lsl #12
    6cd4:	1c185800 	ldcne	8, cr5, [r8], {-0}
    6cd8:	05000003 	streq	r0, [r0, #-3]
    6cdc:	0294027a 	addseq	r0, r4, #-1610612729	; 0xa0000007
    6ce0:	01480000 	mrseq	r0, (UNDEF: 72)
    6ce4:	00027618 	andeq	r7, r2, r8, lsl r6
    6ce8:	027b0500 	rsbseq	r0, fp, #0, 10
    6cec:	00000256 	andeq	r0, r0, r6, asr r2
    6cf0:	0818014c 	ldmdaeq	r8, {r2, r3, r6, r8}
    6cf4:	05000005 	streq	r0, [r0, #-5]
    6cf8:	084a027f 	stmdaeq	sl, {r0, r1, r2, r3, r4, r5, r6, r9}^
    6cfc:	02dc0000 	sbcseq	r0, ip, #0
    6d00:	00015b18 	andeq	r5, r1, r8, lsl fp
    6d04:	02840500 	addeq	r0, r4, #0, 10
    6d08:	000005fb 	strdeq	r0, [r0], -fp
    6d0c:	401802e0 	andsmi	r0, r8, r0, ror #5
    6d10:	05000001 	streq	r0, [r0, #-1]
    6d14:	08560285 	ldmdaeq	r6, {r0, r2, r7, r9}^
    6d18:	02ec0000 	rsceq	r0, ip, #0
    6d1c:	06040d00 	streq	r0, [r4], -r0, lsl #26
    6d20:	14000004 	strne	r0, [r0], #-4
    6d24:	00000025 	andeq	r0, r0, r5, lsr #32
    6d28:	00000585 	andeq	r0, r0, r5, lsl #11
    6d2c:	00042415 	andeq	r2, r4, r5, lsl r4
    6d30:	01051500 	tsteq	r5, r0, lsl #10
    6d34:	85150000 	ldrhi	r0, [r5, #-0]
    6d38:	15000005 	strne	r0, [r0, #-5]
    6d3c:	00000025 	andeq	r0, r0, r5, lsr #32
    6d40:	14040d00 	strne	r0, [r4], #-3328	; 0xfffff300
    6d44:	0d000001 	stceq	0, cr0, [r0, #-4]
    6d48:	00056704 	andeq	r6, r5, r4, lsl #14
    6d4c:	00811400 	addeq	r1, r1, r0, lsl #8
    6d50:	05af0000 	streq	r0, [pc, #0]!	; 6d58 <_start-0x12a8>
    6d54:	24150000 	ldrcs	r0, [r5], #-0
    6d58:	15000004 	strne	r0, [r0, #-4]
    6d5c:	00000105 	andeq	r0, r0, r5, lsl #2
    6d60:	00008115 	andeq	r8, r0, r5, lsl r1
    6d64:	00251500 	eoreq	r1, r5, r0, lsl #10
    6d68:	0d000000 	stceq	0, cr0, [r0, #-0]
    6d6c:	00059104 	andeq	r9, r5, r4, lsl #2
    6d70:	00251400 	eoreq	r1, r5, r0, lsl #8
    6d74:	05c90000 	strbeq	r0, [r9]
    6d78:	24150000 	ldrcs	r0, [r5], #-0
    6d7c:	15000004 	strne	r0, [r0, #-4]
    6d80:	00000105 	andeq	r0, r0, r5, lsl #2
    6d84:	b5040d00 	strlt	r0, [r4, #-3328]	; 0xfffff300
    6d88:	08000005 	stmdaeq	r0, {r0, r2}
    6d8c:	0000004f 	andeq	r0, r0, pc, asr #32
    6d90:	000005df 	ldrdeq	r0, [r0], -pc	; <UNPREDICTABLE>
    6d94:	0000c709 	andeq	ip, r0, r9, lsl #14
    6d98:	08000200 	stmdaeq	r0, {r9}
    6d9c:	0000004f 	andeq	r0, r0, pc, asr #32
    6da0:	000005ef 	andeq	r0, r0, pc, ror #11
    6da4:	0000c709 	andeq	ip, r0, r9, lsl #14
    6da8:	05000000 	streq	r0, [r0, #-0]
    6dac:	0000038a 	andeq	r0, r0, sl, lsl #7
    6db0:	dc011d05 	stcle	13, cr1, [r1], {5}
    6db4:	19000002 	stmdbne	r0, {r1}
    6db8:	000004cb 	andeq	r0, r0, fp, asr #9
    6dbc:	0121050c 			; <UNDEFINED> instruction: 0x0121050c
    6dc0:	00000630 	andeq	r0, r0, r0, lsr r6
    6dc4:	0003b217 	andeq	fp, r3, r7, lsl r2
    6dc8:	01230500 			; <UNDEFINED> instruction: 0x01230500
    6dcc:	00000630 	andeq	r0, r0, r0, lsr r6
    6dd0:	02521700 	subseq	r1, r2, #0, 14
    6dd4:	24050000 	strcs	r0, [r5], #-0
    6dd8:	00002501 	andeq	r2, r0, r1, lsl #10
    6ddc:	84170400 	ldrhi	r0, [r7], #-1024	; 0xfffffc00
    6de0:	05000003 	streq	r0, [r0, #-3]
    6de4:	06360125 	ldrteq	r0, [r6], -r5, lsr #2
    6de8:	00080000 	andeq	r0, r8, r0
    6dec:	05fb040d 	ldrbeq	r0, [fp, #1037]!	; 0x40d
    6df0:	040d0000 	streq	r0, [sp], #-0
    6df4:	000005ef 	andeq	r0, r0, pc, ror #11
    6df8:	00008819 	andeq	r8, r0, r9, lsl r8
    6dfc:	3d050e00 	stccc	14, cr0, [r5, #-0]
    6e00:	00067101 	andeq	r7, r6, r1, lsl #2
    6e04:	03f81700 	mvnseq	r1, #0, 14
    6e08:	3e050000 	cdpcc	0, 0, cr0, cr5, cr0, {0}
    6e0c:	00067101 	andeq	r7, r6, r1, lsl #2
    6e10:	3f170000 	svccc	0x00170000
    6e14:	05000004 	streq	r0, [r0, #-4]
    6e18:	0671013f 			; <UNDEFINED> instruction: 0x0671013f
    6e1c:	17060000 	strne	r0, [r6, -r0]
    6e20:	00000467 	andeq	r0, r0, r7, ror #8
    6e24:	56014005 	strpl	r4, [r1], -r5
    6e28:	0c000000 	stceq	0, cr0, [r0], {-0}
    6e2c:	00560800 	subseq	r0, r6, r0, lsl #16
    6e30:	06810000 	streq	r0, [r1], r0
    6e34:	c7090000 	strgt	r0, [r9, -r0]
    6e38:	02000000 	andeq	r0, r0, #0
    6e3c:	05d01a00 	ldrbeq	r1, [r0, #2560]	; 0xa00
    6e40:	07820257 			; <UNDEFINED> instruction: 0x07820257
    6e44:	a6170000 	ldrge	r0, [r7], -r0
    6e48:	05000004 	streq	r0, [r0, #-4]
    6e4c:	002c0259 	eoreq	r0, ip, r9, asr r2
    6e50:	17000000 	strne	r0, [r0, -r0]
    6e54:	00000451 	andeq	r0, r0, r1, asr r4
    6e58:	07025a05 	streq	r5, [r2, -r5, lsl #20]
    6e5c:	04000001 	streq	r0, [r0], #-1
    6e60:	00028b17 	andeq	r8, r2, r7, lsl fp
    6e64:	025b0500 	subseq	r0, fp, #0, 10
    6e68:	00000782 	andeq	r0, r0, r2, lsl #15
    6e6c:	05361708 	ldreq	r1, [r6, #-1800]!	; 0xfffff8f8
    6e70:	5c050000 	stcpl	0, cr0, [r5], {-0}
    6e74:	00018d02 	andeq	r8, r1, r2, lsl #26
    6e78:	e6172400 	ldr	r2, [r7], -r0, lsl #8
    6e7c:	05000001 	streq	r0, [r0, #-1]
    6e80:	0025025d 	eoreq	r0, r5, sp, asr r2
    6e84:	17480000 	strbne	r0, [r8, -r0]
    6e88:	000003ad 	andeq	r0, r0, sp, lsr #7
    6e8c:	64025e05 	strvs	r5, [r2], #-3589	; 0xfffff1fb
    6e90:	50000000 	andpl	r0, r0, r0
    6e94:	00054c17 	andeq	r4, r5, r7, lsl ip
    6e98:	025f0500 	subseq	r0, pc, #0, 10
    6e9c:	0000063c 	andeq	r0, r0, ip, lsr r6
    6ea0:	03b81758 			; <UNDEFINED> instruction: 0x03b81758
    6ea4:	60050000 	andvs	r0, r5, r0
    6ea8:	0000ef02 	andeq	lr, r0, r2, lsl #30
    6eac:	51176800 	tstpl	r7, r0, lsl #16
    6eb0:	05000005 	streq	r0, [r0, #-5]
    6eb4:	00ef0261 	rsceq	r0, pc, r1, ror #4
    6eb8:	17700000 	ldrbne	r0, [r0, -r0]!
    6ebc:	000000fc 	strdeq	r0, [r0], -ip
    6ec0:	ef026205 	svc	0x00026205
    6ec4:	78000000 	stmdavc	r0, {}	; <UNPREDICTABLE>
    6ec8:	0004fe17 	andeq	pc, r4, r7, lsl lr	; <UNPREDICTABLE>
    6ecc:	02630500 	rsbeq	r0, r3, #0, 10
    6ed0:	00000792 	muleq	r0, r2, r7
    6ed4:	027f1780 	rsbseq	r1, pc, #128, 14	; 0x2000000
    6ed8:	64050000 	strvs	r0, [r5], #-0
    6edc:	0007a202 	andeq	sl, r7, r2, lsl #4
    6ee0:	74178800 	ldrvc	r8, [r7], #-2048	; 0xfffff800
    6ee4:	05000004 	streq	r0, [r0, #-4]
    6ee8:	00250265 	eoreq	r0, r5, r5, ror #4
    6eec:	17a00000 	strne	r0, [r0, r0]!
    6ef0:	000001ac 	andeq	r0, r0, ip, lsr #3
    6ef4:	ef026605 	svc	0x00026605
    6ef8:	a4000000 	strge	r0, [r0], #-0
    6efc:	0000ed17 	andeq	lr, r0, r7, lsl sp
    6f00:	02670500 	rsbeq	r0, r7, #0, 10
    6f04:	000000ef 	andeq	r0, r0, pc, ror #1
    6f08:	019b17ac 	orrseq	r1, fp, ip, lsr #15
    6f0c:	68050000 	stmdavs	r5, {}	; <UNPREDICTABLE>
    6f10:	0000ef02 	andeq	lr, r0, r2, lsl #30
    6f14:	ad17b400 	cfldrsge	mvf11, [r7, #-0]
    6f18:	05000000 	streq	r0, [r0, #-0]
    6f1c:	00ef0269 	rsceq	r0, pc, r9, ror #4
    6f20:	17bc0000 	ldrne	r0, [ip, r0]!
    6f24:	000000bc 	strheq	r0, [r0], -ip
    6f28:	ef026a05 	svc	0x00026a05
    6f2c:	c4000000 	strgt	r0, [r0], #-0
    6f30:	00036017 	andeq	r6, r3, r7, lsl r0
    6f34:	026b0500 	rsbeq	r0, fp, #0, 10
    6f38:	00000025 	andeq	r0, r0, r5, lsr #32
    6f3c:	0d0800cc 	stceq	0, cr0, [r8, #-816]	; 0xfffffcd0
    6f40:	92000001 	andls	r0, r0, #1
    6f44:	09000007 	stmdbeq	r0, {r0, r1, r2}
    6f48:	000000c7 	andeq	r0, r0, r7, asr #1
    6f4c:	0d080019 	stceq	0, cr0, [r8, #-100]	; 0xffffff9c
    6f50:	a2000001 	andge	r0, r0, #1
    6f54:	09000007 	stmdbeq	r0, {r0, r1, r2}
    6f58:	000000c7 	andeq	r0, r0, r7, asr #1
    6f5c:	0d080007 	stceq	0, cr0, [r8, #-28]	; 0xffffffe4
    6f60:	b2000001 	andlt	r0, r0, #1
    6f64:	09000007 	stmdbeq	r0, {r0, r1, r2}
    6f68:	000000c7 	andeq	r0, r0, r7, asr #1
    6f6c:	f01a0017 			; <UNDEFINED> instruction: 0xf01a0017
    6f70:	d6027005 	strle	r7, [r2], -r5
    6f74:	17000007 	strne	r0, [r0, -r7]
    6f78:	0000030c 	andeq	r0, r0, ip, lsl #6
    6f7c:	d6027305 	strle	r7, [r2], -r5, lsl #6
    6f80:	00000007 	andeq	r0, r0, r7
    6f84:	0002ef17 	andeq	lr, r2, r7, lsl pc
    6f88:	02740500 	rsbseq	r0, r4, #0, 10
    6f8c:	000007e6 	andeq	r0, r0, r6, ror #15
    6f90:	d6080078 			; <UNDEFINED> instruction: 0xd6080078
    6f94:	e6000002 	str	r0, [r0], -r2
    6f98:	09000007 	stmdbeq	r0, {r0, r1, r2}
    6f9c:	000000c7 	andeq	r0, r0, r7, asr #1
    6fa0:	2c08001d 	stccs	0, cr0, [r8], {29}
    6fa4:	f6000000 			; <UNDEFINED> instruction: 0xf6000000
    6fa8:	09000007 	stmdbeq	r0, {r0, r1, r2}
    6fac:	000000c7 	andeq	r0, r0, r7, asr #1
    6fb0:	f01b001d 			; <UNDEFINED> instruction: 0xf01b001d
    6fb4:	18025505 	stmdane	r2, {r0, r2, r8, sl, ip, lr}
    6fb8:	1c000008 	stcne	0, cr0, [r0], {8}
    6fbc:	000003f1 	strdeq	r0, [r0], -r1
    6fc0:	81026c05 	tsthi	r2, r5, lsl #24
    6fc4:	1c000006 	stcne	0, cr0, [r0], {6}
    6fc8:	00000523 	andeq	r0, r0, r3, lsr #10
    6fcc:	b2027505 	andlt	r7, r2, #20971520	; 0x1400000
    6fd0:	00000007 	andeq	r0, r0, r7
    6fd4:	00010d08 	andeq	r0, r1, r8, lsl #26
    6fd8:	00082800 	andeq	r2, r8, r0, lsl #16
    6fdc:	00c70900 	sbceq	r0, r7, r0, lsl #18
    6fe0:	00180000 	andseq	r0, r8, r0
    6fe4:	0008331d 	andeq	r3, r8, sp, lsl r3
    6fe8:	04241500 	strteq	r1, [r4], #-1280	; 0xfffffb00
    6fec:	0d000000 	stceq	0, cr0, [r0, #-0]
    6ff0:	00082804 	andeq	r2, r8, r4, lsl #16
    6ff4:	77040d00 	strvc	r0, [r4, -r0, lsl #26]
    6ff8:	1d000001 	stcne	0, cr0, [r0, #-4]
    6ffc:	0000084a 	andeq	r0, r0, sl, asr #16
    7000:	00002515 	andeq	r2, r0, r5, lsl r5
    7004:	040d0000 	streq	r0, [sp], #-0
    7008:	00000850 	andeq	r0, r0, r0, asr r8
    700c:	083f040d 	ldmdaeq	pc!, {r0, r2, r3, sl}	; <UNPREDICTABLE>
    7010:	ef080000 	svc	0x00080000
    7014:	66000005 	strvs	r0, [r0], -r5
    7018:	09000008 	stmdbeq	r0, {r3}
    701c:	000000c7 	andeq	r0, r0, r7, asr #1
    7020:	881e0002 	ldmdahi	lr, {r1}
    7024:	05000004 	streq	r0, [r0, #-4]
    7028:	042402fd 	strteq	r0, [r4], #-765	; 0xfffffd03
    702c:	811e0000 	tsthi	lr, r0
    7030:	05000004 	streq	r0, [r0, #-4]
    7034:	042a02fe 	strteq	r0, [sl], #-766	; 0xfffffd02
    7038:	25140000 	ldrcs	r0, [r4, #-0]
    703c:	8d000000 	stchi	0, cr0, [r0, #-0]
    7040:	15000008 	strne	r0, [r0, #-8]
    7044:	00000025 	andeq	r0, r0, r5, lsr #32
    7048:	01ff1f00 	mvnseq	r1, r0, lsl #30
    704c:	1d060000 	stcne	0, cr0, [r6, #-0]
    7050:	00000898 	muleq	r0, r8, r8
    7054:	087e040d 	ldmdaeq	lr!, {r0, r2, r3, sl}^
    7058:	25140000 	ldrcs	r0, [r4, #-0]
    705c:	ad000000 	stcge	0, cr0, [r0, #-0]
    7060:	15000008 	strne	r0, [r0, #-8]
    7064:	00000585 	andeq	r0, r0, r5, lsl #11
    7068:	08b21f00 	ldmeq	r2!, {r8, r9, sl, fp, ip}
    706c:	22060000 	andcs	r0, r6, #0
    7070:	000008b8 			; <UNDEFINED> instruction: 0x000008b8
    7074:	089e040d 	ldmeq	lr, {r0, r2, r3, sl}
    7078:	e2200000 	eor	r0, r0, #0
    707c:	01000002 	tsteq	r0, r2
    7080:	008ee004 	addeq	lr, lr, r4
    7084:	00002800 	andeq	r2, r0, r0, lsl #16
    7088:	049c0100 	ldreq	r0, [ip], #256	; 0x100
    708c:	21000009 	tstcs	r0, r9
    7090:	00008ef4 	strdeq	r8, [r0], -r4
    7094:	000008e6 	andeq	r0, r0, r6, ror #17
    7098:	05500122 	ldrbeq	r0, [r0, #-290]	; 0xfffffede
    709c:	00976403 	addseq	r6, r7, r3, lsl #8
    70a0:	fc230000 	stc2	0, cr0, [r3], #-0
    70a4:	0400008e 	streq	r0, [r0], #-142	; 0xffffff72
    70a8:	fa000009 	blx	70d4 <_start-0xf2c>
    70ac:	22000008 	andcs	r0, r0, #8
    70b0:	08025001 	stmdaeq	r2, {r0, ip, lr}
    70b4:	00240064 	eoreq	r0, r4, r4, rrx
    70b8:	0f00008f 	svceq	0x0000008f
    70bc:	00000009 	andeq	r0, r0, r9
    70c0:	0003fe25 	andeq	pc, r3, r5, lsr #28
    70c4:	0003fe00 	andeq	pc, r3, r0, lsl #28
    70c8:	254f0600 	strbcs	r0, [pc, #-1536]	; 6ad0 <_start-0x1530>
    70cc:	0000099d 	muleq	r0, sp, r9
    70d0:	0000099d 	muleq	r0, sp, r9
    70d4:	17006206 	strne	r6, [r0, -r6, lsl #4]
    70d8:	0400000a 	streq	r0, [r0], #-10
    70dc:	00155100 	andseq	r5, r5, r0, lsl #2
    70e0:	be010400 	cfcpyslt	mvf0, mvf1
    70e4:	0c000007 	stceq	0, cr0, [r0], {7}
    70e8:	00000a9a 	muleq	r0, sl, sl
    70ec:	00000825 	andeq	r0, r0, r5, lsr #16
    70f0:	00008f08 	andeq	r8, r0, r8, lsl #30
    70f4:	00000088 	andeq	r0, r0, r8, lsl #1
    70f8:	00000ae3 	andeq	r0, r0, r3, ror #21
    70fc:	69050402 	stmdbvs	r5, {r1, sl}
    7100:	0300746e 	movweq	r7, #1134	; 0x46e
    7104:	00d70704 	sbcseq	r0, r7, r4, lsl #14
    7108:	01030000 	mrseq	r0, (UNDEF: 3)
    710c:	00035406 	andeq	r5, r3, r6, lsl #8
    7110:	05020300 	streq	r0, [r2, #-768]	; 0xfffffd00
    7114:	00000369 	andeq	r0, r0, r9, ror #6
    7118:	18050403 	stmdane	r5, {r0, r1, sl}
    711c:	03000001 	movweq	r0, #1
    7120:	01130508 	tsteq	r3, r8, lsl #10
    7124:	01030000 	mrseq	r0, (UNDEF: 3)
    7128:	00035208 	andeq	r5, r3, r8, lsl #4
    712c:	07020300 	streq	r0, [r2, -r0, lsl #6]
    7130:	00000263 	andeq	r0, r0, r3, ror #4
    7134:	d2070403 	andle	r0, r7, #50331648	; 0x3000000
    7138:	03000000 	movweq	r0, #0
    713c:	00cd0708 	sbceq	r0, sp, r8, lsl #14
    7140:	40040000 	andmi	r0, r4, r0
    7144:	02000003 	andeq	r0, r0, #3
    7148:	00002507 	andeq	r2, r0, r7, lsl #10
    714c:	032f0400 			; <UNDEFINED> instruction: 0x032f0400
    7150:	2c030000 	stccs	0, cr0, [r3], {-0}
    7154:	00000041 	andeq	r0, r0, r1, asr #32
    7158:	00041d04 	andeq	r1, r4, r4, lsl #26
    715c:	41720300 	cmnmi	r2, r0, lsl #6
    7160:	05000000 	streq	r0, [r0, #-0]
    7164:	000002b0 			; <UNDEFINED> instruction: 0x000002b0
    7168:	2c016504 	cfstr32cs	mvfx6, [r1], {4}
    716c:	06000000 	streq	r0, [r0], -r0
    7170:	b7a60304 	strlt	r0, [r6, r4, lsl #6]!
    7174:	07000000 	streq	r0, [r0, -r0]
    7178:	000002aa 	andeq	r0, r0, sl, lsr #5
    717c:	008ca803 	addeq	sl, ip, r3, lsl #16
    7180:	19070000 	stmdbne	r7, {}	; <UNPREDICTABLE>
    7184:	03000002 	movweq	r0, #2
    7188:	0000b7a9 	andeq	fp, r0, r9, lsr #15
    718c:	4f080000 	svcmi	0x00080000
    7190:	c7000000 	strgt	r0, [r0, -r0]
    7194:	09000000 	stmdbeq	r0, {}	; <UNPREDICTABLE>
    7198:	000000c7 	andeq	r0, r0, r7, asr #1
    719c:	04030003 	streq	r0, [r3], #-3
    71a0:	0002f807 	andeq	pc, r2, r7, lsl #16
    71a4:	03080a00 	movweq	r0, #35328	; 0x8a00
    71a8:	0000efa3 	andeq	lr, r0, r3, lsr #31
    71ac:	04070b00 	streq	r0, [r7], #-2816	; 0xfffff500
    71b0:	a5030000 	strge	r0, [r3, #-0]
    71b4:	00000025 	andeq	r0, r0, r5, lsr #32
    71b8:	040f0b00 	streq	r0, [pc], #-2816	; 71c0 <_start-0xe40>
    71bc:	aa030000 	bge	c71c4 <__bss_end__+0xbd64c>
    71c0:	00000098 	muleq	r0, r8, r0
    71c4:	91040004 	tstls	r4, r4
    71c8:	03000003 	movweq	r0, #3
    71cc:	0000ceab 	andeq	ip, r0, fp, lsr #29
    71d0:	01cd0400 	biceq	r0, sp, r0, lsl #8
    71d4:	af030000 	svcge	0x00030000
    71d8:	0000006b 	andeq	r0, r0, fp, rrx
    71dc:	040d040c 	streq	r0, [sp], #-1036	; 0xfffffbf4
    71e0:	0000010d 	andeq	r0, r0, sp, lsl #2
    71e4:	5b080103 	blpl	2075f8 <__bss_end__+0x1fda80>
    71e8:	0e000003 	cdpeq	0, 0, cr0, cr0, cr3, {0}
    71ec:	0000010d 	andeq	r0, r0, sp, lsl #2
    71f0:	00046c04 	andeq	r6, r4, r4, lsl #24
    71f4:	5d160500 	cfldr32pl	mvfx0, [r6, #-0]
    71f8:	0f000000 	svceq	0x00000000
    71fc:	000001de 	ldrdeq	r0, [r0], -lr
    7200:	772d0518 			; <UNDEFINED> instruction: 0x772d0518
    7204:	0b000001 	bleq	7210 <_start-0xdf0>
    7208:	000003b2 			; <UNDEFINED> instruction: 0x000003b2
    720c:	01772f05 	cmneq	r7, r5, lsl #30
    7210:	10000000 	andne	r0, r0, r0
    7214:	05006b5f 	streq	r6, [r0, #-2911]	; 0xfffff4a1
    7218:	00002530 	andeq	r2, r0, r0, lsr r5
    721c:	e90b0400 	stmdb	fp, {sl}
    7220:	05000003 	streq	r0, [r0, #-3]
    7224:	00002530 	andeq	r2, r0, r0, lsr r5
    7228:	c70b0800 	strgt	r0, [fp, -r0, lsl #16]
    722c:	05000001 	streq	r0, [r0, #-1]
    7230:	00002530 	andeq	r2, r0, r0, lsr r5
    7234:	bc0b0c00 	stclt	12, cr0, [fp], {-0}
    7238:	05000004 	streq	r0, [r0, #-4]
    723c:	00002530 	andeq	r2, r0, r0, lsr r5
    7240:	5f101000 	svcpl	0x00101000
    7244:	31050078 	tstcc	r5, r8, ror r0
    7248:	0000017d 	andeq	r0, r0, sp, ror r1
    724c:	040d0014 	streq	r0, [sp], #-20	; 0xffffffec
    7250:	00000124 	andeq	r0, r0, r4, lsr #2
    7254:	00011908 	andeq	r1, r1, r8, lsl #18
    7258:	00018d00 	andeq	r8, r1, r0, lsl #26
    725c:	00c70900 	sbceq	r0, r7, r0, lsl #18
    7260:	00000000 	andeq	r0, r0, r0
    7264:	00020b0f 	andeq	r0, r2, pc, lsl #22
    7268:	35052400 	strcc	r2, [r5, #-1024]	; 0xfffffc00
    726c:	00000206 	andeq	r0, r0, r6, lsl #4
    7270:	00010a0b 	andeq	r0, r1, fp, lsl #20
    7274:	25370500 	ldrcs	r0, [r7, #-1280]!	; 0xfffffb00
    7278:	00000000 	andeq	r0, r0, r0
    727c:	0004250b 	andeq	r2, r4, fp, lsl #10
    7280:	25380500 	ldrcs	r0, [r8, #-1280]!	; 0xfffffb00
    7284:	04000000 	streq	r0, [r0], #-0
    7288:	0001360b 	andeq	r3, r1, fp, lsl #12
    728c:	25390500 	ldrcs	r0, [r9, #-1280]!	; 0xfffffb00
    7290:	08000000 	stmdaeq	r0, {}	; <UNPREDICTABLE>
    7294:	0005640b 	andeq	r6, r5, fp, lsl #8
    7298:	253a0500 	ldrcs	r0, [sl, #-1280]!	; 0xfffffb00
    729c:	0c000000 	stceq	0, cr0, [r0], {-0}
    72a0:	0003130b 	andeq	r1, r3, fp, lsl #6
    72a4:	253b0500 	ldrcs	r0, [fp, #-1280]!	; 0xfffffb00
    72a8:	10000000 	andne	r0, r0, r0
    72ac:	0002d80b 	andeq	sp, r2, fp, lsl #16
    72b0:	253c0500 	ldrcs	r0, [ip, #-1280]!	; 0xfffffb00
    72b4:	14000000 	strne	r0, [r0], #-0
    72b8:	0004c10b 	andeq	ip, r4, fp, lsl #2
    72bc:	253d0500 	ldrcs	r0, [sp, #-1280]!	; 0xfffffb00
    72c0:	18000000 	stmdane	r0, {}	; <UNPREDICTABLE>
    72c4:	0003730b 	andeq	r7, r3, fp, lsl #6
    72c8:	253e0500 	ldrcs	r0, [lr, #-1280]!	; 0xfffffb00
    72cc:	1c000000 	stcne	0, cr0, [r0], {-0}
    72d0:	00052b0b 	andeq	r2, r5, fp, lsl #22
    72d4:	253f0500 	ldrcs	r0, [pc, #-1280]!	; 6ddc <_start-0x1224>
    72d8:	20000000 	andcs	r0, r0, r0
    72dc:	01451100 	mrseq	r1, (UNDEF: 85)
    72e0:	01080000 	mrseq	r0, (UNDEF: 8)
    72e4:	02464805 	subeq	r4, r6, #327680	; 0x50000
    72e8:	ba0b0000 	blt	2c72f0 <__bss_end__+0x2bd778>
    72ec:	05000001 	streq	r0, [r0, #-1]
    72f0:	00024649 	andeq	r4, r2, r9, asr #12
    72f4:	000b0000 	andeq	r0, fp, r0
    72f8:	05000000 	streq	r0, [r0, #-0]
    72fc:	0002464a 	andeq	r4, r2, sl, asr #12
    7300:	5e128000 	cdppl	0, 1, cr8, cr2, cr0, {0}
    7304:	05000004 	streq	r0, [r0, #-4]
    7308:	0001194c 	andeq	r1, r1, ip, asr #18
    730c:	12010000 	andne	r0, r1, #0
    7310:	0000016a 	andeq	r0, r0, sl, ror #2
    7314:	01194f05 	tsteq	r9, r5, lsl #30
    7318:	01040000 	mrseq	r0, (UNDEF: 4)
    731c:	01050800 	tsteq	r5, r0, lsl #16
    7320:	02560000 	subseq	r0, r6, #0
    7324:	c7090000 	strgt	r0, [r9, -r0]
    7328:	1f000000 	svcne	0x00000000
    732c:	031c1100 	tsteq	ip, #0, 2
    7330:	01900000 	orrseq	r0, r0, r0
    7334:	02945b05 	addseq	r5, r4, #5120	; 0x1400
    7338:	b20b0000 	andlt	r0, fp, #0
    733c:	05000003 	streq	r0, [r0, #-3]
    7340:	0002945c 	andeq	r9, r2, ip, asr r4
    7344:	ca0b0000 	bgt	2c734c <__bss_end__+0x2bd7d4>
    7348:	05000003 	streq	r0, [r0, #-3]
    734c:	0000255d 	andeq	r2, r0, sp, asr r5
    7350:	c20b0400 	andgt	r0, fp, #0, 8
    7354:	05000001 	streq	r0, [r0, #-1]
    7358:	00029a5f 	andeq	r9, r2, pc, asr sl
    735c:	450b0800 	strmi	r0, [fp, #-2048]	; 0xfffff800
    7360:	05000001 	streq	r0, [r0, #-1]
    7364:	00020660 	andeq	r0, r2, r0, ror #12
    7368:	0d008800 	stceq	8, cr8, [r0, #-0]
    736c:	00025604 	andeq	r5, r2, r4, lsl #12
    7370:	02aa0800 	adceq	r0, sl, #0, 16
    7374:	02aa0000 	adceq	r0, sl, #0
    7378:	c7090000 	strgt	r0, [r9, -r0]
    737c:	1f000000 	svcne	0x00000000
    7380:	b0040d00 	andlt	r0, r4, r0, lsl #26
    7384:	13000002 	movwne	r0, #2
    7388:	00037d0f 	andeq	r7, r3, pc, lsl #26
    738c:	73050800 	movwvc	r0, #22528	; 0x5800
    7390:	000002d6 	ldrdeq	r0, [r0], -r6
    7394:	0001300b 	andeq	r3, r1, fp
    7398:	d6740500 	ldrbtle	r0, [r4], -r0, lsl #10
    739c:	00000002 	andeq	r0, r0, r2
    73a0:	0000820b 	andeq	r8, r0, fp, lsl #4
    73a4:	25750500 	ldrbcs	r0, [r5, #-1280]!	; 0xfffffb00
    73a8:	04000000 	streq	r0, [r0], #-0
    73ac:	4f040d00 	svcmi	0x00040d00
    73b0:	0f000000 	svceq	0x00000000
    73b4:	0000039c 	muleq	r0, ip, r3
    73b8:	06b30568 	ldrteq	r0, [r3], r8, ror #10
    73bc:	10000004 	andne	r0, r0, r4
    73c0:	0500705f 	streq	r7, [r0, #-95]	; 0xffffffa1
    73c4:	0002d6b4 			; <UNDEFINED> instruction: 0x0002d6b4
    73c8:	5f100000 	svcpl	0x00100000
    73cc:	b5050072 	strlt	r0, [r5, #-114]	; 0xffffff8e
    73d0:	00000025 	andeq	r0, r0, r5, lsr #32
    73d4:	775f1004 	ldrbvc	r1, [pc, -r4]
    73d8:	25b60500 	ldrcs	r0, [r6, #1280]!	; 0x500
    73dc:	08000000 	stmdaeq	r0, {}	; <UNPREDICTABLE>
    73e0:	0001630b 	andeq	r6, r1, fp, lsl #6
    73e4:	3ab70500 	bcc	fedc87ec <__bss_end__+0xfedbec74>
    73e8:	0c000000 	stceq	0, cr0, [r0], {-0}
    73ec:	00023f0b 	andeq	r3, r2, fp, lsl #30
    73f0:	3ab80500 	bcc	fee087f8 <__bss_end__+0xfedfec80>
    73f4:	0e000000 	cdpeq	0, 0, cr0, cr0, cr0, {0}
    73f8:	66625f10 	uqadd16vs	r5, r2, r0
    73fc:	b1b90500 			; <UNDEFINED> instruction: 0xb1b90500
    7400:	10000002 	andne	r0, r0, r2
    7404:	0000e40b 	andeq	lr, r0, fp, lsl #8
    7408:	25ba0500 	ldrcs	r0, [sl, #1280]!	; 0x500
    740c:	18000000 	stmdane	r0, {}	; <UNPREDICTABLE>
    7410:	0001530b 	andeq	r5, r1, fp, lsl #6
    7414:	05c10500 	strbeq	r0, [r1, #1280]	; 0x500
    7418:	1c000001 	stcne	0, cr0, [r0], {1}
    741c:	0004b60b 	andeq	fp, r4, fp, lsl #12
    7420:	61c30500 	bicvs	r0, r3, r0, lsl #10
    7424:	20000005 	andcs	r0, r0, r5
    7428:	00029b0b 	andeq	r9, r2, fp, lsl #22
    742c:	8bc50500 	blhi	ff148834 <__bss_end__+0xff13ecbc>
    7430:	24000005 	strcs	r0, [r0], #-5
    7434:	0004170b 	andeq	r1, r4, fp, lsl #14
    7438:	afc80500 	svcge	0x00c80500
    743c:	28000005 	stmdacs	r0, {r0, r2}
    7440:	0005450b 	andeq	r4, r5, fp, lsl #10
    7444:	c9c90500 	stmibgt	r9, {r8, sl}^
    7448:	2c000005 	stccs	0, cr0, [r0], {5}
    744c:	62755f10 	rsbsvs	r5, r5, #16, 30	; 0x40
    7450:	b1cc0500 	biclt	r0, ip, r0, lsl #10
    7454:	30000002 	andcc	r0, r0, r2
    7458:	70755f10 	rsbsvc	r5, r5, r0, lsl pc
    745c:	d6cd0500 	strble	r0, [sp], r0, lsl #10
    7460:	38000002 	stmdacc	r0, {r1}
    7464:	72755f10 	rsbsvc	r5, r5, #16, 30	; 0x40
    7468:	25ce0500 	strbcs	r0, [lr, #1280]	; 0x500
    746c:	3c000000 	stccc	0, cr0, [r0], {-0}
    7470:	00012a0b 	andeq	r2, r1, fp, lsl #20
    7474:	cfd10500 	svcgt	0x00d10500
    7478:	40000005 	andmi	r0, r0, r5
    747c:	00051d0b 	andeq	r1, r5, fp, lsl #26
    7480:	dfd20500 	svcle	0x00d20500
    7484:	43000005 	movwmi	r0, #5
    7488:	626c5f10 	rsbvs	r5, ip, #16, 30	; 0x40
    748c:	b1d50500 	bicslt	r0, r5, r0, lsl #10
    7490:	44000002 	strmi	r0, [r0], #-2
    7494:	0001790b 	andeq	r7, r1, fp, lsl #18
    7498:	25d80500 	ldrbcs	r0, [r8, #1280]	; 0x500
    749c:	4c000000 	stcmi	0, cr0, [r0], {-0}
    74a0:	0001930b 	andeq	r9, r1, fp, lsl #6
    74a4:	76d90500 	ldrbvc	r0, [r9], r0, lsl #10
    74a8:	50000000 	andpl	r0, r0, r0
    74ac:	000c2f0b 	andeq	r2, ip, fp, lsl #30
    74b0:	24dc0500 	ldrbcs	r0, [ip], #1280	; 0x500
    74b4:	54000004 	strpl	r0, [r0], #-4
    74b8:	000c030b 	andeq	r0, ip, fp, lsl #6
    74bc:	fae00500 	blx	ff8088c4 <__bss_end__+0xff7fed4c>
    74c0:	58000000 	stmdapl	r0, {}	; <UNPREDICTABLE>
    74c4:	0003a40b 	andeq	sl, r3, fp, lsl #8
    74c8:	efe20500 	svc	0x00e20500
    74cc:	5c000000 	stcpl	0, cr0, [r0], {-0}
    74d0:	0002c10b 	andeq	ip, r2, fp, lsl #2
    74d4:	25e30500 	strbcs	r0, [r3, #1280]!	; 0x500
    74d8:	64000000 	strvs	r0, [r0], #-0
    74dc:	00251400 	eoreq	r1, r5, r0, lsl #8
    74e0:	04240000 	strteq	r0, [r4], #-0
    74e4:	24150000 	ldrcs	r0, [r5], #-0
    74e8:	15000004 	strne	r0, [r0, #-4]
    74ec:	00000105 	andeq	r0, r0, r5, lsl #2
    74f0:	00010715 	andeq	r0, r1, r5, lsl r7
    74f4:	00251500 	eoreq	r1, r5, r0, lsl #10
    74f8:	0d000000 	stceq	0, cr0, [r0, #-0]
    74fc:	00042f04 	andeq	r2, r4, r4, lsl #30
    7500:	04240e00 	strteq	r0, [r4], #-3584	; 0xfffff200
    7504:	f1160000 			; <UNDEFINED> instruction: 0xf1160000
    7508:	28000003 	stmdacs	r0, {r0, r1}
    750c:	02380504 	eorseq	r0, r8, #4, 10	; 0x1000000
    7510:	00000561 	andeq	r0, r0, r1, ror #10
    7514:	00036217 	andeq	r6, r3, r7, lsl r2
    7518:	023a0500 	eorseq	r0, sl, #0, 10
    751c:	00000025 	andeq	r0, r0, r5, lsr #32
    7520:	01721700 	cmneq	r2, r0, lsl #14
    7524:	3f050000 	svccc	0x00050000
    7528:	00063602 	andeq	r3, r6, r2, lsl #12
    752c:	2f170400 	svccs	0x00170400
    7530:	05000002 	streq	r0, [r0, #-2]
    7534:	0636023f 			; <UNDEFINED> instruction: 0x0636023f
    7538:	17080000 	strne	r0, [r8, -r0]
    753c:	000001d6 	ldrdeq	r0, [r0], -r6
    7540:	36023f05 	strcc	r3, [r2], -r5, lsl #30
    7544:	0c000006 	stceq	0, cr0, [r0], {6}
    7548:	0003c517 	andeq	ip, r3, r7, lsl r5
    754c:	02410500 	subeq	r0, r1, #0, 10
    7550:	00000025 	andeq	r0, r0, r5, lsr #32
    7554:	00901710 	addseq	r1, r0, r0, lsl r7
    7558:	42050000 	andmi	r0, r5, #0
    755c:	00081802 	andeq	r1, r8, r2, lsl #16
    7560:	94171400 	ldrls	r1, [r7], #-1024	; 0xfffffc00
    7564:	05000004 	streq	r0, [r0, #-4]
    7568:	00250244 	eoreq	r0, r5, r4, asr #4
    756c:	17300000 	ldrne	r0, [r0, -r0]!
    7570:	000003cf 	andeq	r0, r0, pc, asr #7
    7574:	85024505 	strhi	r4, [r2, #-1285]	; 0xfffffafb
    7578:	34000005 	strcc	r0, [r0], #-5
    757c:	00032417 	andeq	r2, r3, r7, lsl r4
    7580:	02470500 	subeq	r0, r7, #0, 10
    7584:	00000025 	andeq	r0, r0, r5, lsr #32
    7588:	03df1738 	bicseq	r1, pc, #56, 14	; 0xe00000
    758c:	49050000 	stmdbmi	r5, {}	; <UNPREDICTABLE>
    7590:	00083302 	andeq	r3, r8, r2, lsl #6
    7594:	a2173c00 	andsge	r3, r7, #0, 24
    7598:	05000002 	streq	r0, [r0, #-2]
    759c:	0177024c 	cmneq	r7, ip, asr #4
    75a0:	17400000 	strbne	r0, [r0, -r0]
    75a4:	000001f5 	strdeq	r0, [r0], -r5
    75a8:	25024d05 	strcs	r4, [r2, #-3333]	; 0xfffff2fb
    75ac:	44000000 	strmi	r0, [r0], #-0
    75b0:	00055f17 	andeq	r5, r5, r7, lsl pc
    75b4:	024e0500 	subeq	r0, lr, #0, 10
    75b8:	00000177 	andeq	r0, r0, r7, ror r1
    75bc:	03361748 	teqeq	r6, #72, 14	; 0x1200000
    75c0:	4f050000 	svcmi	0x00050000
    75c4:	00083902 	andeq	r3, r8, r2, lsl #18
    75c8:	37174c00 	ldrcc	r4, [r7, -r0, lsl #24]
    75cc:	05000002 	streq	r0, [r0, #-2]
    75d0:	00250252 	eoreq	r0, r5, r2, asr r2
    75d4:	17500000 	ldrbne	r0, [r0, -r0]
    75d8:	0000018b 	andeq	r0, r0, fp, lsl #3
    75dc:	07025305 	streq	r5, [r2, -r5, lsl #6]
    75e0:	54000001 	strpl	r0, [r0], #-1
    75e4:	000cc517 	andeq	ip, ip, r7, lsl r5
    75e8:	02760500 	rsbseq	r0, r6, #0, 10
    75ec:	000007f6 	strdeq	r0, [r0], -r6
    75f0:	031c1858 	tsteq	ip, #88, 16	; 0x580000
    75f4:	7a050000 	bvc	1475fc <__bss_end__+0x13da84>
    75f8:	00029402 	andeq	r9, r2, r2, lsl #8
    75fc:	18014800 	stmdane	r1, {fp, lr}
    7600:	00000276 	andeq	r0, r0, r6, ror r2
    7604:	56027b05 	strpl	r7, [r2], -r5, lsl #22
    7608:	4c000002 	stcmi	0, cr0, [r0], {2}
    760c:	05081801 	streq	r1, [r8, #-2049]	; 0xfffff7ff
    7610:	7f050000 	svcvc	0x00050000
    7614:	00084a02 	andeq	r4, r8, r2, lsl #20
    7618:	1802dc00 	stmdane	r2, {sl, fp, ip, lr, pc}
    761c:	0000015b 	andeq	r0, r0, fp, asr r1
    7620:	fb028405 	blx	a863e <__bss_end__+0x9eac6>
    7624:	e0000005 	and	r0, r0, r5
    7628:	01401802 	cmpeq	r0, r2, lsl #16
    762c:	85050000 	strhi	r0, [r5, #-0]
    7630:	00085602 	andeq	r5, r8, r2, lsl #12
    7634:	0002ec00 	andeq	lr, r2, r0, lsl #24
    7638:	0406040d 	streq	r0, [r6], #-1037	; 0xfffffbf3
    763c:	25140000 	ldrcs	r0, [r4, #-0]
    7640:	85000000 	strhi	r0, [r0, #-0]
    7644:	15000005 	strne	r0, [r0, #-5]
    7648:	00000424 	andeq	r0, r0, r4, lsr #8
    764c:	00010515 	andeq	r0, r1, r5, lsl r5
    7650:	05851500 	streq	r1, [r5, #1280]	; 0x500
    7654:	25150000 	ldrcs	r0, [r5, #-0]
    7658:	00000000 	andeq	r0, r0, r0
    765c:	0114040d 	tsteq	r4, sp, lsl #8
    7660:	040d0000 	streq	r0, [sp], #-0
    7664:	00000567 	andeq	r0, r0, r7, ror #10
    7668:	00008114 	andeq	r8, r0, r4, lsl r1
    766c:	0005af00 	andeq	sl, r5, r0, lsl #30
    7670:	04241500 	strteq	r1, [r4], #-1280	; 0xfffffb00
    7674:	05150000 	ldreq	r0, [r5, #-0]
    7678:	15000001 	strne	r0, [r0, #-1]
    767c:	00000081 	andeq	r0, r0, r1, lsl #1
    7680:	00002515 	andeq	r2, r0, r5, lsl r5
    7684:	040d0000 	streq	r0, [sp], #-0
    7688:	00000591 	muleq	r0, r1, r5
    768c:	00002514 	andeq	r2, r0, r4, lsl r5
    7690:	0005c900 	andeq	ip, r5, r0, lsl #18
    7694:	04241500 	strteq	r1, [r4], #-1280	; 0xfffffb00
    7698:	05150000 	ldreq	r0, [r5, #-0]
    769c:	00000001 	andeq	r0, r0, r1
    76a0:	05b5040d 	ldreq	r0, [r5, #1037]!	; 0x40d
    76a4:	4f080000 	svcmi	0x00080000
    76a8:	df000000 	svcle	0x00000000
    76ac:	09000005 	stmdbeq	r0, {r0, r2}
    76b0:	000000c7 	andeq	r0, r0, r7, asr #1
    76b4:	4f080002 	svcmi	0x00080002
    76b8:	ef000000 	svc	0x00000000
    76bc:	09000005 	stmdbeq	r0, {r0, r2}
    76c0:	000000c7 	andeq	r0, r0, r7, asr #1
    76c4:	8a050000 	bhi	1476cc <__bss_end__+0x13db54>
    76c8:	05000003 	streq	r0, [r0, #-3]
    76cc:	02dc011d 	sbcseq	r0, ip, #1073741831	; 0x40000007
    76d0:	cb190000 	blgt	6476d8 <__bss_end__+0x63db60>
    76d4:	0c000004 	stceq	0, cr0, [r0], {4}
    76d8:	30012105 	andcc	r2, r1, r5, lsl #2
    76dc:	17000006 	strne	r0, [r0, -r6]
    76e0:	000003b2 			; <UNDEFINED> instruction: 0x000003b2
    76e4:	30012305 	andcc	r2, r1, r5, lsl #6
    76e8:	00000006 	andeq	r0, r0, r6
    76ec:	00025217 	andeq	r5, r2, r7, lsl r2
    76f0:	01240500 			; <UNDEFINED> instruction: 0x01240500
    76f4:	00000025 	andeq	r0, r0, r5, lsr #32
    76f8:	03841704 	orreq	r1, r4, #4, 14	; 0x100000
    76fc:	25050000 	strcs	r0, [r5, #-0]
    7700:	00063601 	andeq	r3, r6, r1, lsl #12
    7704:	0d000800 	stceq	8, cr0, [r0, #-0]
    7708:	0005fb04 	andeq	pc, r5, r4, lsl #22
    770c:	ef040d00 	svc	0x00040d00
    7710:	19000005 	stmdbne	r0, {r0, r2}
    7714:	00000088 	andeq	r0, r0, r8, lsl #1
    7718:	013d050e 	teqeq	sp, lr, lsl #10
    771c:	00000671 	andeq	r0, r0, r1, ror r6
    7720:	0003f817 	andeq	pc, r3, r7, lsl r8	; <UNPREDICTABLE>
    7724:	013e0500 	teqeq	lr, r0, lsl #10
    7728:	00000671 	andeq	r0, r0, r1, ror r6
    772c:	043f1700 	ldrteq	r1, [pc], #-1792	; 7734 <_start-0x8cc>
    7730:	3f050000 	svccc	0x00050000
    7734:	00067101 	andeq	r7, r6, r1, lsl #2
    7738:	67170600 	ldrvs	r0, [r7, -r0, lsl #12]
    773c:	05000004 	streq	r0, [r0, #-4]
    7740:	00560140 	subseq	r0, r6, r0, asr #2
    7744:	000c0000 	andeq	r0, ip, r0
    7748:	00005608 	andeq	r5, r0, r8, lsl #12
    774c:	00068100 	andeq	r8, r6, r0, lsl #2
    7750:	00c70900 	sbceq	r0, r7, r0, lsl #18
    7754:	00020000 	andeq	r0, r2, r0
    7758:	5705d01a 	smladpl	r5, sl, r0, sp
    775c:	00078202 	andeq	r8, r7, r2, lsl #4
    7760:	04a61700 	strteq	r1, [r6], #1792	; 0x700
    7764:	59050000 	stmdbpl	r5, {}	; <UNPREDICTABLE>
    7768:	00002c02 	andeq	r2, r0, r2, lsl #24
    776c:	51170000 	tstpl	r7, r0
    7770:	05000004 	streq	r0, [r0, #-4]
    7774:	0107025a 	tsteq	r7, sl, asr r2
    7778:	17040000 	strne	r0, [r4, -r0]
    777c:	0000028b 	andeq	r0, r0, fp, lsl #5
    7780:	82025b05 	andhi	r5, r2, #5120	; 0x1400
    7784:	08000007 	stmdaeq	r0, {r0, r1, r2}
    7788:	00053617 	andeq	r3, r5, r7, lsl r6
    778c:	025c0500 	subseq	r0, ip, #0, 10
    7790:	0000018d 	andeq	r0, r0, sp, lsl #3
    7794:	01e61724 	mvneq	r1, r4, lsr #14
    7798:	5d050000 	stcpl	0, cr0, [r5, #-0]
    779c:	00002502 	andeq	r2, r0, r2, lsl #10
    77a0:	ad174800 	ldcge	8, cr4, [r7, #-0]
    77a4:	05000003 	streq	r0, [r0, #-3]
    77a8:	0064025e 	rsbeq	r0, r4, lr, asr r2
    77ac:	17500000 	ldrbne	r0, [r0, -r0]
    77b0:	0000054c 	andeq	r0, r0, ip, asr #10
    77b4:	3c025f05 	stccc	15, cr5, [r2], {5}
    77b8:	58000006 	stmdapl	r0, {r1, r2}
    77bc:	0003b817 	andeq	fp, r3, r7, lsl r8
    77c0:	02600500 	rsbeq	r0, r0, #0, 10
    77c4:	000000ef 	andeq	r0, r0, pc, ror #1
    77c8:	05511768 	ldrbeq	r1, [r1, #-1896]	; 0xfffff898
    77cc:	61050000 	mrsvs	r0, (UNDEF: 5)
    77d0:	0000ef02 	andeq	lr, r0, r2, lsl #30
    77d4:	fc177000 	ldc2	0, cr7, [r7], {-0}
    77d8:	05000000 	streq	r0, [r0, #-0]
    77dc:	00ef0262 	rsceq	r0, pc, r2, ror #4
    77e0:	17780000 	ldrbne	r0, [r8, -r0]!
    77e4:	000004fe 	strdeq	r0, [r0], -lr
    77e8:	92026305 	andls	r6, r2, #335544320	; 0x14000000
    77ec:	80000007 	andhi	r0, r0, r7
    77f0:	00027f17 	andeq	r7, r2, r7, lsl pc
    77f4:	02640500 	rsbeq	r0, r4, #0, 10
    77f8:	000007a2 	andeq	r0, r0, r2, lsr #15
    77fc:	04741788 	ldrbteq	r1, [r4], #-1928	; 0xfffff878
    7800:	65050000 	strvs	r0, [r5, #-0]
    7804:	00002502 	andeq	r2, r0, r2, lsl #10
    7808:	ac17a000 	ldcge	0, cr10, [r7], {-0}
    780c:	05000001 	streq	r0, [r0, #-1]
    7810:	00ef0266 	rsceq	r0, pc, r6, ror #4
    7814:	17a40000 	strne	r0, [r4, r0]!
    7818:	000000ed 	andeq	r0, r0, sp, ror #1
    781c:	ef026705 	svc	0x00026705
    7820:	ac000000 	stcge	0, cr0, [r0], {-0}
    7824:	00019b17 	andeq	r9, r1, r7, lsl fp
    7828:	02680500 	rsbeq	r0, r8, #0, 10
    782c:	000000ef 	andeq	r0, r0, pc, ror #1
    7830:	00ad17b4 	strhteq	r1, [sp], r4
    7834:	69050000 	stmdbvs	r5, {}	; <UNPREDICTABLE>
    7838:	0000ef02 	andeq	lr, r0, r2, lsl #30
    783c:	bc17bc00 	ldclt	12, cr11, [r7], {-0}
    7840:	05000000 	streq	r0, [r0, #-0]
    7844:	00ef026a 	rsceq	r0, pc, sl, ror #4
    7848:	17c40000 	strbne	r0, [r4, r0]
    784c:	00000360 	andeq	r0, r0, r0, ror #6
    7850:	25026b05 	strcs	r6, [r2, #-2821]	; 0xfffff4fb
    7854:	cc000000 	stcgt	0, cr0, [r0], {-0}
    7858:	010d0800 	tsteq	sp, r0, lsl #16
    785c:	07920000 	ldreq	r0, [r2, r0]
    7860:	c7090000 	strgt	r0, [r9, -r0]
    7864:	19000000 	stmdbne	r0, {}	; <UNPREDICTABLE>
    7868:	010d0800 	tsteq	sp, r0, lsl #16
    786c:	07a20000 	streq	r0, [r2, r0]!
    7870:	c7090000 	strgt	r0, [r9, -r0]
    7874:	07000000 	streq	r0, [r0, -r0]
    7878:	010d0800 	tsteq	sp, r0, lsl #16
    787c:	07b20000 	ldreq	r0, [r2, r0]!
    7880:	c7090000 	strgt	r0, [r9, -r0]
    7884:	17000000 	strne	r0, [r0, -r0]
    7888:	05f01a00 	ldrbeq	r1, [r0, #2560]!	; 0xa00
    788c:	07d60270 			; <UNDEFINED> instruction: 0x07d60270
    7890:	0c170000 	ldceq	0, cr0, [r7], {-0}
    7894:	05000003 	streq	r0, [r0, #-3]
    7898:	07d60273 			; <UNDEFINED> instruction: 0x07d60273
    789c:	17000000 	strne	r0, [r0, -r0]
    78a0:	000002ef 	andeq	r0, r0, pc, ror #5
    78a4:	e6027405 	str	r7, [r2], -r5, lsl #8
    78a8:	78000007 	stmdavc	r0, {r0, r1, r2}
    78ac:	02d60800 	sbcseq	r0, r6, #0, 16
    78b0:	07e60000 	strbeq	r0, [r6, r0]!
    78b4:	c7090000 	strgt	r0, [r9, -r0]
    78b8:	1d000000 	stcne	0, cr0, [r0, #-0]
    78bc:	002c0800 	eoreq	r0, ip, r0, lsl #16
    78c0:	07f60000 	ldrbeq	r0, [r6, r0]!
    78c4:	c7090000 	strgt	r0, [r9, -r0]
    78c8:	1d000000 	stcne	0, cr0, [r0, #-0]
    78cc:	05f01b00 	ldrbeq	r1, [r0, #2816]!	; 0xb00
    78d0:	08180255 	ldmdaeq	r8, {r0, r2, r4, r6, r9}
    78d4:	f11c0000 			; <UNDEFINED> instruction: 0xf11c0000
    78d8:	05000003 	streq	r0, [r0, #-3]
    78dc:	0681026c 	streq	r0, [r1], ip, ror #4
    78e0:	231c0000 	tstcs	ip, #0
    78e4:	05000005 	streq	r0, [r0, #-5]
    78e8:	07b20275 			; <UNDEFINED> instruction: 0x07b20275
    78ec:	08000000 	stmdaeq	r0, {}	; <UNPREDICTABLE>
    78f0:	0000010d 	andeq	r0, r0, sp, lsl #2
    78f4:	00000828 	andeq	r0, r0, r8, lsr #16
    78f8:	0000c709 	andeq	ip, r0, r9, lsl #14
    78fc:	1d001800 	stcne	8, cr1, [r0, #-0]
    7900:	00000833 	andeq	r0, r0, r3, lsr r8
    7904:	00042415 	andeq	r2, r4, r5, lsl r4
    7908:	040d0000 	streq	r0, [sp], #-0
    790c:	00000828 	andeq	r0, r0, r8, lsr #16
    7910:	0177040d 	cmneq	r7, sp, lsl #8
    7914:	4a1d0000 	bmi	74791c <__bss_end__+0x73dda4>
    7918:	15000008 	strne	r0, [r0, #-8]
    791c:	00000025 	andeq	r0, r0, r5, lsr #32
    7920:	50040d00 	andpl	r0, r4, r0, lsl #26
    7924:	0d000008 	stceq	0, cr0, [r0, #-32]	; 0xffffffe0
    7928:	00083f04 	andeq	r3, r8, r4, lsl #30
    792c:	05ef0800 	strbeq	r0, [pc, #2048]!	; 8134 <notmain+0x7c>
    7930:	08660000 	stmdaeq	r6!, {}^	; <UNPREDICTABLE>
    7934:	c7090000 	strgt	r0, [r9, -r0]
    7938:	02000000 	andeq	r0, r0, #0
    793c:	04881e00 	streq	r1, [r8], #3584	; 0xe00
    7940:	fd050000 	stc2	0, cr0, [r5, #-0]
    7944:	00042402 	andeq	r2, r4, r2, lsl #8
    7948:	04811e00 	streq	r1, [r1], #3584	; 0xe00
    794c:	fe050000 	cdp2	0, 0, cr0, cr5, cr0, {0}
    7950:	00042a02 	andeq	r2, r4, r2, lsl #20
    7954:	00251400 	eoreq	r1, r5, r0, lsl #8
    7958:	088d0000 	stmeq	sp, {}	; <UNPREDICTABLE>
    795c:	25150000 	ldrcs	r0, [r5, #-0]
    7960:	00000000 	andeq	r0, r0, r0
    7964:	0001ff1f 	andeq	pc, r1, pc, lsl pc	; <UNPREDICTABLE>
    7968:	981d0600 	ldmdals	sp, {r9, sl}
    796c:	0d000008 	stceq	0, cr0, [r0, #-32]	; 0xffffffe0
    7970:	00087e04 	andeq	r7, r8, r4, lsl #28
    7974:	00251400 	eoreq	r1, r5, r0, lsl #8
    7978:	08ad0000 	stmiaeq	sp!, {}	; <UNPREDICTABLE>
    797c:	85150000 	ldrhi	r0, [r5, #-0]
    7980:	00000005 	andeq	r0, r0, r5
    7984:	0008b21f 	andeq	fp, r8, pc, lsl r2
    7988:	b8220600 	stmdalt	r2!, {r9, sl}
    798c:	0d000008 	stceq	0, cr0, [r0, #-32]	; 0xffffffe0
    7990:	00089e04 	andeq	r9, r8, r4, lsl #28
    7994:	0a832000 	beq	fe0cf99c <__bss_end__+0xfe0c5e24>
    7998:	25010000 	strcs	r0, [r1, #-0]
    799c:	00008f7c 	andeq	r8, r0, ip, ror pc
    79a0:	00000014 	andeq	r0, r0, r4, lsl r0
    79a4:	08f89c01 	ldmeq	r8!, {r0, sl, fp, ip, pc}^
    79a8:	73210000 			; <UNDEFINED> instruction: 0x73210000
    79ac:	01006365 	tsteq	r0, r5, ror #6
    79b0:	00002c25 	andeq	r2, r0, r5, lsr #24
    79b4:	000ace00 	andeq	ip, sl, r0, lsl #28
    79b8:	8f8c2200 	svchi	0x008c2200
    79bc:	08f80000 	ldmeq	r8!, {}^	; <UNPREDICTABLE>
    79c0:	01230000 			; <UNDEFINED> instruction: 0x01230000
    79c4:	01f30750 	mvnseq	r0, r0, asr r7
    79c8:	03e80a50 	mvneq	r0, #80, 20	; 0x50000
    79cc:	2000001e 	andcs	r0, r0, lr, lsl r0
    79d0:	000003fe 	strdeq	r0, [r0], -lr
    79d4:	8f682201 	svchi	0x00682201
    79d8:	00140000 	andseq	r0, r4, r0
    79dc:	9c010000 	stcls	0, cr0, [r1], {-0}
    79e0:	00000931 	andeq	r0, r0, r1, lsr r9
    79e4:	00736d21 	rsbseq	r6, r3, r1, lsr #26
    79e8:	002c2201 	eoreq	r2, ip, r1, lsl #4
    79ec:	0aef0000 	beq	ffbc79f4 <__bss_end__+0xffbbde7c>
    79f0:	78220000 	stmdavc	r2!, {}	; <UNPREDICTABLE>
    79f4:	3100008f 	smlabbcc	r0, pc, r0, r0	; <UNPREDICTABLE>
    79f8:	23000009 	movwcs	r0, #9
    79fc:	f3075001 	vhadd.u8	d5, d7, d1
    7a00:	e80a5001 	stmda	sl, {r0, ip, lr}
    7a04:	00001e03 	andeq	r1, r0, r3, lsl #28
    7a08:	00042e20 	andeq	r2, r4, r0, lsr #28
    7a0c:	44190100 	ldrmi	r0, [r9], #-256	; 0xffffff00
    7a10:	2400008f 	strcs	r0, [r0], #-143	; 0xffffff71
    7a14:	01000000 	mrseq	r0, (UNDEF: 0)
    7a18:	00098f9c 	muleq	r9, ip, pc	; <UNPREDICTABLE>
    7a1c:	73752100 	cmnvc	r5, #0, 2
    7a20:	2c190100 	ldfcss	f0, [r9], {-0}
    7a24:	10000000 	andne	r0, r0, r0
    7a28:	2400000b 	strcs	r0, [r0], #-11
    7a2c:	01006272 	tsteq	r0, r2, ror r2
    7a30:	00002c1a 	andeq	r2, r0, sl, lsl ip
    7a34:	25540100 	ldrbcs	r0, [r4, #-256]	; 0xffffff00
    7a38:	00008f54 	andeq	r8, r0, r4, asr pc
    7a3c:	00000010 	andeq	r0, r0, r0, lsl r0
    7a40:	00000985 	andeq	r0, r0, r5, lsl #19
    7a44:	00617226 	rsbeq	r7, r1, r6, lsr #4
    7a48:	002c1c01 	eoreq	r1, ip, r1, lsl #24
    7a4c:	0b2e0000 	bleq	b87a54 <__bss_end__+0xb7dedc>
    7a50:	58270000 	stmdapl	r7!, {}	; <UNPREDICTABLE>
    7a54:	8f00008f 	svchi	0x0000008f
    7a58:	00000009 	andeq	r0, r0, r9
    7a5c:	008f5027 	addeq	r5, pc, r7, lsr #32
    7a60:	00098f00 	andeq	r8, r9, r0, lsl #30
    7a64:	74280000 	strtvc	r0, [r8], #-0
    7a68:	0100000a 	tsteq	r0, sl
    7a6c:	00002c10 	andeq	r2, r0, r0, lsl ip
    7a70:	008f3800 	addeq	r3, pc, r0, lsl #16
    7a74:	00000c00 	andeq	r0, r0, r0, lsl #24
    7a78:	bd9c0100 	ldflts	f0, [ip]
    7a7c:	24000009 	strcs	r0, [r0], #-9
    7a80:	14010075 	strne	r0, [r1], #-117	; 0xffffff8b
    7a84:	0000002c 	andeq	r0, r0, ip, lsr #32
    7a88:	40275001 	eormi	r5, r7, r1
    7a8c:	bd00008f 	stclt	0, cr0, [r0, #-572]	; 0xfffffdc4
    7a90:	00000009 	andeq	r0, r0, r9
    7a94:	000ab928 	andeq	fp, sl, r8, lsr #18
    7a98:	2c0b0100 	stfcss	f0, [fp], {-0}
    7a9c:	24000000 	strcs	r0, [r0], #-0
    7aa0:	1400008f 	strne	r0, [r0], #-143	; 0xffffff71
    7aa4:	01000000 	mrseq	r0, (UNDEF: 0)
    7aa8:	0009ea9c 	muleq	r9, ip, sl
    7aac:	8f302200 	svchi	0x00302200
    7ab0:	0a0f0000 	beq	3c7ab8 <__bss_end__+0x3bdf40>
    7ab4:	01230000 			; <UNDEFINED> instruction: 0x01230000
    7ab8:	040c0550 	streq	r0, [ip], #-1360	; 0xfffffab0
    7abc:	00200030 	eoreq	r0, r0, r0, lsr r0
    7ac0:	0a8d2000 	beq	fe34fac8 <__bss_end__+0xfe345f50>
    7ac4:	05010000 	streq	r0, [r1, #-0]
    7ac8:	00008f08 	andeq	r8, r0, r8, lsl #30
    7acc:	0000001c 	andeq	r0, r0, ip, lsl r0
    7ad0:	0a0f9c01 	beq	3eeadc <__bss_end__+0x3e4f64>
    7ad4:	ad290000 	stcge	0, cr0, [r9, #-0]
    7ad8:	0100000a 	tsteq	r0, sl
    7adc:	00002c05 	andeq	r2, r0, r5, lsl #24
    7ae0:	000b4100 	andeq	r4, fp, r0, lsl #2
    7ae4:	b32a0000 			; <UNDEFINED> instruction: 0xb32a0000
    7ae8:	b300000a 	movwlt	r0, #10
    7aec:	0600000a 	streq	r0, [r0], -sl
    7af0:	0c9500a7 	ldceq	0, cr0, [r5], {167}	; 0xa7
    7af4:	00040000 	andeq	r0, r4, r0
    7af8:	00001787 	andeq	r1, r0, r7, lsl #15
    7afc:	0b200104 	bleq	807f14 <__bss_end__+0x7fe39c>
    7b00:	e10c0000 	mrs	r0, (UNDEF: 12)
    7b04:	b400000a 	strlt	r0, [r0], #-10
    7b08:	f400000b 	vst4.8	{d0-d3}, [r0], fp
    7b0c:	6000008f 	andvs	r0, r0, pc, lsl #1
    7b10:	c9000001 	stmdbgt	r0, {r0}
    7b14:	0200000b 	andeq	r0, r0, #11
    7b18:	6e690504 	cdpvs	5, 6, cr0, cr9, cr4, {0}
    7b1c:	04030074 	streq	r0, [r3], #-116	; 0xffffff8c
    7b20:	0000d707 	andeq	sp, r0, r7, lsl #14
    7b24:	002c0400 	eoreq	r0, ip, r0, lsl #8
    7b28:	01030000 	mrseq	r0, (UNDEF: 3)
    7b2c:	00035406 	andeq	r5, r3, r6, lsl #8
    7b30:	05020300 	streq	r0, [r2, #-768]	; 0xfffffd00
    7b34:	00000369 	andeq	r0, r0, r9, ror #6
    7b38:	18050403 	stmdane	r5, {r0, r1, sl}
    7b3c:	03000001 	movweq	r0, #1
    7b40:	01130508 	tsteq	r3, r8, lsl #10
    7b44:	01030000 	mrseq	r0, (UNDEF: 3)
    7b48:	00035208 	andeq	r5, r3, r8, lsl #4
    7b4c:	07020300 	streq	r0, [r2, -r0, lsl #6]
    7b50:	00000263 	andeq	r0, r0, r3, ror #4
    7b54:	d2070403 	andle	r0, r7, #50331648	; 0x3000000
    7b58:	03000000 	movweq	r0, #0
    7b5c:	00cd0708 	sbceq	r0, sp, r8, lsl #14
    7b60:	18050000 	stmdane	r5, {}	; <UNPREDICTABLE>
    7b64:	0200000b 	andeq	r0, r0, #11
    7b68:	00007b22 	andeq	r7, r0, r2, lsr #22
    7b6c:	81040600 	tsthi	r4, r0, lsl #12
    7b70:	07000000 	streq	r0, [r0, -r0]
    7b74:	00000c02 	andeq	r0, r0, r2, lsl #24
    7b78:	00032f05 	andeq	r2, r3, r5, lsl #30
    7b7c:	462c0300 	strtmi	r0, [ip], -r0, lsl #6
    7b80:	05000000 	streq	r0, [r0, #-0]
    7b84:	0000041d 	andeq	r0, r0, sp, lsl r4
    7b88:	00467203 	subeq	r7, r6, r3, lsl #4
    7b8c:	b0080000 	andlt	r0, r8, r0
    7b90:	04000002 	streq	r0, [r0], #-2
    7b94:	002c0165 	eoreq	r0, ip, r5, ror #2
    7b98:	04090000 	streq	r0, [r9], #-0
    7b9c:	00c7a603 	sbceq	sl, r7, r3, lsl #12
    7ba0:	aa0a0000 	bge	287ba8 <__bss_end__+0x27e030>
    7ba4:	03000002 	movweq	r0, #2
    7ba8:	00009ca8 	andeq	r9, r0, r8, lsr #25
    7bac:	02190a00 	andseq	r0, r9, #0, 20
    7bb0:	a9030000 	stmdbge	r3, {}	; <UNPREDICTABLE>
    7bb4:	000000c7 	andeq	r0, r0, r7, asr #1
    7bb8:	00540b00 	subseq	r0, r4, r0, lsl #22
    7bbc:	00d70000 	sbcseq	r0, r7, r0
    7bc0:	2c0c0000 	stccs	0, cr0, [ip], {-0}
    7bc4:	03000000 	movweq	r0, #0
    7bc8:	03080d00 	movweq	r0, #36096	; 0x8d00
    7bcc:	0000f8a3 	andeq	pc, r0, r3, lsr #17
    7bd0:	04070e00 	streq	r0, [r7], #-3584	; 0xfffff200
    7bd4:	a5030000 	strge	r0, [r3, #-0]
    7bd8:	00000025 	andeq	r0, r0, r5, lsr #32
    7bdc:	040f0e00 	streq	r0, [pc], #-3584	; 7be4 <_start-0x41c>
    7be0:	aa030000 	bge	c7be8 <__bss_end__+0xbe070>
    7be4:	000000a8 	andeq	r0, r0, r8, lsr #1
    7be8:	91050004 	tstls	r5, r4
    7bec:	03000003 	movweq	r0, #3
    7bf0:	0000d7ab 	andeq	sp, r0, fp, lsr #15
    7bf4:	01cd0500 	biceq	r0, sp, r0, lsl #10
    7bf8:	af030000 	svcge	0x00030000
    7bfc:	00000070 	andeq	r0, r0, r0, ror r0
    7c00:	0406040f 	streq	r0, [r6], #-1039	; 0xfffffbf1
    7c04:	00000116 	andeq	r0, r0, r6, lsl r1
    7c08:	5b080103 	blpl	20801c <__bss_end__+0x1fe4a4>
    7c0c:	10000003 	andne	r0, r0, r3
    7c10:	00000116 	andeq	r0, r0, r6, lsl r1
    7c14:	00046c05 	andeq	r6, r4, r5, lsl #24
    7c18:	62160500 	andsvs	r0, r6, #0, 10
    7c1c:	11000000 	mrsne	r0, (UNDEF: 0)
    7c20:	000001de 	ldrdeq	r0, [r0], -lr
    7c24:	802f0518 	eorhi	r0, pc, r8, lsl r5	; <UNPREDICTABLE>
    7c28:	0e000001 	cdpeq	0, 0, cr0, cr0, cr1, {0}
    7c2c:	000003b2 			; <UNDEFINED> instruction: 0x000003b2
    7c30:	01803105 	orreq	r3, r0, r5, lsl #2
    7c34:	12000000 	andne	r0, r0, #0
    7c38:	05006b5f 	streq	r6, [r0, #-2911]	; 0xfffff4a1
    7c3c:	00002532 	andeq	r2, r0, r2, lsr r5
    7c40:	e90e0400 	stmdb	lr, {sl}
    7c44:	05000003 	streq	r0, [r0, #-3]
    7c48:	00002532 	andeq	r2, r0, r2, lsr r5
    7c4c:	c70e0800 	strgt	r0, [lr, -r0, lsl #16]
    7c50:	05000001 	streq	r0, [r0, #-1]
    7c54:	00002532 	andeq	r2, r0, r2, lsr r5
    7c58:	bc0e0c00 	stclt	12, cr0, [lr], {-0}
    7c5c:	05000004 	streq	r0, [r0, #-4]
    7c60:	00002532 	andeq	r2, r0, r2, lsr r5
    7c64:	5f121000 	svcpl	0x00121000
    7c68:	33050078 	movwcc	r0, #20600	; 0x5078
    7c6c:	00000186 	andeq	r0, r0, r6, lsl #3
    7c70:	04060014 	streq	r0, [r6], #-20	; 0xffffffec
    7c74:	0000012d 	andeq	r0, r0, sp, lsr #2
    7c78:	0001220b 	andeq	r2, r1, fp, lsl #4
    7c7c:	00019600 	andeq	r9, r1, r0, lsl #12
    7c80:	002c0c00 	eoreq	r0, ip, r0, lsl #24
    7c84:	00000000 	andeq	r0, r0, r0
    7c88:	00020b11 	andeq	r0, r2, r1, lsl fp
    7c8c:	37052400 	strcc	r2, [r5, -r0, lsl #8]
    7c90:	0000020f 	andeq	r0, r0, pc, lsl #4
    7c94:	00010a0e 	andeq	r0, r1, lr, lsl #20
    7c98:	25390500 	ldrcs	r0, [r9, #-1280]!	; 0xfffffb00
    7c9c:	00000000 	andeq	r0, r0, r0
    7ca0:	0004250e 	andeq	r2, r4, lr, lsl #10
    7ca4:	253a0500 	ldrcs	r0, [sl, #-1280]!	; 0xfffffb00
    7ca8:	04000000 	streq	r0, [r0], #-0
    7cac:	0001360e 	andeq	r3, r1, lr, lsl #12
    7cb0:	253b0500 	ldrcs	r0, [fp, #-1280]!	; 0xfffffb00
    7cb4:	08000000 	stmdaeq	r0, {}	; <UNPREDICTABLE>
    7cb8:	0005640e 	andeq	r6, r5, lr, lsl #8
    7cbc:	253c0500 	ldrcs	r0, [ip, #-1280]!	; 0xfffffb00
    7cc0:	0c000000 	stceq	0, cr0, [r0], {-0}
    7cc4:	0003130e 	andeq	r1, r3, lr, lsl #6
    7cc8:	253d0500 	ldrcs	r0, [sp, #-1280]!	; 0xfffffb00
    7ccc:	10000000 	andne	r0, r0, r0
    7cd0:	0002d80e 	andeq	sp, r2, lr, lsl #16
    7cd4:	253e0500 	ldrcs	r0, [lr, #-1280]!	; 0xfffffb00
    7cd8:	14000000 	strne	r0, [r0], #-0
    7cdc:	0004c10e 	andeq	ip, r4, lr, lsl #2
    7ce0:	253f0500 	ldrcs	r0, [pc, #-1280]!	; 77e8 <_start-0x818>
    7ce4:	18000000 	stmdane	r0, {}	; <UNPREDICTABLE>
    7ce8:	0003730e 	andeq	r7, r3, lr, lsl #6
    7cec:	25400500 	strbcs	r0, [r0, #-1280]	; 0xfffffb00
    7cf0:	1c000000 	stcne	0, cr0, [r0], {-0}
    7cf4:	00052b0e 	andeq	r2, r5, lr, lsl #22
    7cf8:	25410500 	strbcs	r0, [r1, #-1280]	; 0xfffffb00
    7cfc:	20000000 	andcs	r0, r0, r0
    7d00:	01451300 	mrseq	r1, (UNDEF: 117)
    7d04:	01080000 	mrseq	r0, (UNDEF: 8)
    7d08:	024f4a05 	subeq	r4, pc, #20480	; 0x5000
    7d0c:	ba0e0000 	blt	387d14 <__bss_end__+0x37e19c>
    7d10:	05000001 	streq	r0, [r0, #-1]
    7d14:	00024f4b 	andeq	r4, r2, fp, asr #30
    7d18:	000e0000 	andeq	r0, lr, r0
    7d1c:	05000000 	streq	r0, [r0, #-0]
    7d20:	00024f4c 	andeq	r4, r2, ip, asr #30
    7d24:	5e148000 	cdppl	0, 1, cr8, cr4, cr0, {0}
    7d28:	05000004 	streq	r0, [r0, #-4]
    7d2c:	0001224e 	andeq	r2, r1, lr, asr #4
    7d30:	14010000 	strne	r0, [r1], #-0
    7d34:	0000016a 	andeq	r0, r0, sl, ror #2
    7d38:	01225105 			; <UNDEFINED> instruction: 0x01225105
    7d3c:	01040000 	mrseq	r0, (UNDEF: 4)
    7d40:	010e0b00 	tsteq	lr, r0, lsl #22
    7d44:	025f0000 	subseq	r0, pc, #0
    7d48:	2c0c0000 	stccs	0, cr0, [ip], {-0}
    7d4c:	1f000000 	svcne	0x00000000
    7d50:	031c1300 	tsteq	ip, #0, 6
    7d54:	01900000 	orrseq	r0, r0, r0
    7d58:	029d5d05 	addseq	r5, sp, #320	; 0x140
    7d5c:	b20e0000 	andlt	r0, lr, #0
    7d60:	05000003 	streq	r0, [r0, #-3]
    7d64:	00029d5e 	andeq	r9, r2, lr, asr sp
    7d68:	ca0e0000 	bgt	387d70 <__bss_end__+0x37e1f8>
    7d6c:	05000003 	streq	r0, [r0, #-3]
    7d70:	0000255f 	andeq	r2, r0, pc, asr r5
    7d74:	c20e0400 	andgt	r0, lr, #0, 8
    7d78:	05000001 	streq	r0, [r0, #-1]
    7d7c:	0002a361 	andeq	sl, r2, r1, ror #6
    7d80:	450e0800 	strmi	r0, [lr, #-2048]	; 0xfffff800
    7d84:	05000001 	streq	r0, [r0, #-1]
    7d88:	00020f62 	andeq	r0, r2, r2, ror #30
    7d8c:	06008800 	streq	r8, [r0], -r0, lsl #16
    7d90:	00025f04 	andeq	r5, r2, r4, lsl #30
    7d94:	02b30b00 	adcseq	r0, r3, #0, 22
    7d98:	02b30000 	adcseq	r0, r3, #0
    7d9c:	2c0c0000 	stccs	0, cr0, [ip], {-0}
    7da0:	1f000000 	svcne	0x00000000
    7da4:	b9040600 	stmdblt	r4, {r9, sl}
    7da8:	15000002 	strne	r0, [r0, #-2]
    7dac:	00037d11 	andeq	r7, r3, r1, lsl sp
    7db0:	75050800 	strvc	r0, [r5, #-2048]	; 0xfffff800
    7db4:	000002df 	ldrdeq	r0, [r0], -pc	; <UNPREDICTABLE>
    7db8:	0001300e 	andeq	r3, r1, lr
    7dbc:	df760500 	svcle	0x00760500
    7dc0:	00000002 	andeq	r0, r0, r2
    7dc4:	0000820e 	andeq	r8, r0, lr, lsl #4
    7dc8:	25770500 	ldrbcs	r0, [r7, #-1280]!	; 0xfffffb00
    7dcc:	04000000 	streq	r0, [r0], #-0
    7dd0:	54040600 	strpl	r0, [r4], #-1536	; 0xfffffa00
    7dd4:	11000000 	mrsne	r0, (UNDEF: 0)
    7dd8:	0000039c 	muleq	r0, ip, r3
    7ddc:	0fb50568 	svceq	0x00b50568
    7de0:	12000004 	andne	r0, r0, #4
    7de4:	0500705f 	streq	r7, [r0, #-95]	; 0xffffffa1
    7de8:	0002dfb6 			; <UNDEFINED> instruction: 0x0002dfb6
    7dec:	5f120000 	svcpl	0x00120000
    7df0:	b7050072 	smlsdxlt	r5, r2, r0, r0
    7df4:	00000025 	andeq	r0, r0, r5, lsr #32
    7df8:	775f1204 	ldrbvc	r1, [pc, -r4, lsl #4]
    7dfc:	25b80500 	ldrcs	r0, [r8, #1280]!	; 0x500
    7e00:	08000000 	stmdaeq	r0, {}	; <UNPREDICTABLE>
    7e04:	0001630e 	andeq	r6, r1, lr, lsl #6
    7e08:	3fb90500 	svccc	0x00b90500
    7e0c:	0c000000 	stceq	0, cr0, [r0], {-0}
    7e10:	00023f0e 	andeq	r3, r2, lr, lsl #30
    7e14:	3fba0500 	svccc	0x00ba0500
    7e18:	0e000000 	cdpeq	0, 0, cr0, cr0, cr0, {0}
    7e1c:	66625f12 	uqadd16vs	r5, r2, r2
    7e20:	babb0500 	blt	feec9228 <__bss_end__+0xfeebf6b0>
    7e24:	10000002 	andne	r0, r0, r2
    7e28:	0000e40e 	andeq	lr, r0, lr, lsl #8
    7e2c:	25bc0500 	ldrcs	r0, [ip, #1280]!	; 0x500
    7e30:	18000000 	stmdane	r0, {}	; <UNPREDICTABLE>
    7e34:	0001530e 	andeq	r5, r1, lr, lsl #6
    7e38:	0ec30500 	cdpeq	5, 12, cr0, cr3, cr0, {0}
    7e3c:	1c000001 	stcne	0, cr0, [r0], {1}
    7e40:	0004b60e 	andeq	fp, r4, lr, lsl #12
    7e44:	6ac50500 	bvs	ff14924c <__bss_end__+0xff13f6d4>
    7e48:	20000005 	andcs	r0, r0, r5
    7e4c:	00029b0e 	andeq	r9, r2, lr, lsl #22
    7e50:	94c70500 	strbls	r0, [r7], #1280	; 0x500
    7e54:	24000005 	strcs	r0, [r0], #-5
    7e58:	0004170e 	andeq	r1, r4, lr, lsl #14
    7e5c:	b8ca0500 	stmialt	sl, {r8, sl}^
    7e60:	28000005 	stmdacs	r0, {r0, r2}
    7e64:	0005450e 	andeq	r4, r5, lr, lsl #10
    7e68:	d2cb0500 	sbcle	r0, fp, #0, 10
    7e6c:	2c000005 	stccs	0, cr0, [r0], {5}
    7e70:	62755f12 	rsbsvs	r5, r5, #18, 30	; 0x48
    7e74:	bace0500 	blt	ff38927c <__bss_end__+0xff37f704>
    7e78:	30000002 	andcc	r0, r0, r2
    7e7c:	70755f12 	rsbsvc	r5, r5, r2, lsl pc
    7e80:	dfcf0500 	svcle	0x00cf0500
    7e84:	38000002 	stmdacc	r0, {r1}
    7e88:	72755f12 	rsbsvc	r5, r5, #18, 30	; 0x48
    7e8c:	25d00500 	ldrbcs	r0, [r0, #1280]	; 0x500
    7e90:	3c000000 	stccc	0, cr0, [r0], {-0}
    7e94:	00012a0e 	andeq	r2, r1, lr, lsl #20
    7e98:	d8d30500 	ldmle	r3, {r8, sl}^
    7e9c:	40000005 	andmi	r0, r0, r5
    7ea0:	00051d0e 	andeq	r1, r5, lr, lsl #26
    7ea4:	e8d40500 	ldm	r4, {r8, sl}^
    7ea8:	43000005 	movwmi	r0, #5
    7eac:	626c5f12 	rsbvs	r5, ip, #18, 30	; 0x48
    7eb0:	bad70500 	blt	ff5c92b8 <__bss_end__+0xff5bf740>
    7eb4:	44000002 	strmi	r0, [r0], #-2
    7eb8:	0001790e 	andeq	r7, r1, lr, lsl #18
    7ebc:	25da0500 	ldrbcs	r0, [sl, #1280]	; 0x500
    7ec0:	4c000000 	stcmi	0, cr0, [r0], {-0}
    7ec4:	0001930e 	andeq	r9, r1, lr, lsl #6
    7ec8:	86db0500 	ldrbhi	r0, [fp], r0, lsl #10
    7ecc:	50000000 	andpl	r0, r0, r0
    7ed0:	000c2f0e 	andeq	r2, ip, lr, lsl #30
    7ed4:	2dde0500 	cfldr64cs	mvdx0, [lr]
    7ed8:	54000004 	strpl	r0, [r0], #-4
    7edc:	000c030e 	andeq	r0, ip, lr, lsl #6
    7ee0:	03e20500 	mvneq	r0, #0, 10
    7ee4:	58000001 	stmdapl	r0, {r0}
    7ee8:	0003a40e 	andeq	sl, r3, lr, lsl #8
    7eec:	f8e40500 			; <UNDEFINED> instruction: 0xf8e40500
    7ef0:	5c000000 	stcpl	0, cr0, [r0], {-0}
    7ef4:	0002c10e 	andeq	ip, r2, lr, lsl #2
    7ef8:	25e50500 	strbcs	r0, [r5, #1280]!	; 0x500
    7efc:	64000000 	strvs	r0, [r0], #-0
    7f00:	00251600 	eoreq	r1, r5, r0, lsl #12
    7f04:	042d0000 	strteq	r0, [sp], #-0
    7f08:	2d170000 	ldccs	0, cr0, [r7, #-0]
    7f0c:	17000004 	strne	r0, [r0, -r4]
    7f10:	0000010e 	andeq	r0, r0, lr, lsl #2
    7f14:	00011017 	andeq	r1, r1, r7, lsl r0
    7f18:	00251700 	eoreq	r1, r5, r0, lsl #14
    7f1c:	06000000 	streq	r0, [r0], -r0
    7f20:	00043804 	andeq	r3, r4, r4, lsl #16
    7f24:	042d1000 	strteq	r1, [sp], #-0
    7f28:	f1180000 			; <UNDEFINED> instruction: 0xf1180000
    7f2c:	28000003 	stmdacs	r0, {r0, r1}
    7f30:	02600504 	rsbeq	r0, r0, #4, 10	; 0x1000000
    7f34:	0000056a 	andeq	r0, r0, sl, ror #10
    7f38:	00036219 	andeq	r6, r3, r9, lsl r2
    7f3c:	02620500 	rsbeq	r0, r2, #0, 10
    7f40:	00000025 	andeq	r0, r0, r5, lsr #32
    7f44:	01721900 	cmneq	r2, r0, lsl #18
    7f48:	67050000 	strvs	r0, [r5, -r0]
    7f4c:	00063f02 	andeq	r3, r6, r2, lsl #30
    7f50:	2f190400 	svccs	0x00190400
    7f54:	05000002 	streq	r0, [r0, #-2]
    7f58:	063f0267 	ldrteq	r0, [pc], -r7, ror #4
    7f5c:	19080000 	stmdbne	r8, {}	; <UNPREDICTABLE>
    7f60:	000001d6 	ldrdeq	r0, [r0], -r6
    7f64:	3f026705 	svccc	0x00026705
    7f68:	0c000006 	stceq	0, cr0, [r0], {6}
    7f6c:	0003c519 	andeq	ip, r3, r9, lsl r5
    7f70:	02690500 	rsbeq	r0, r9, #0, 10
    7f74:	00000025 	andeq	r0, r0, r5, lsr #32
    7f78:	00901910 	addseq	r1, r0, r0, lsl r9
    7f7c:	6a050000 	bvs	147f84 <__bss_end__+0x13e40c>
    7f80:	00082102 	andeq	r2, r8, r2, lsl #2
    7f84:	e9191400 	ldmdb	r9, {sl, ip}
    7f88:	0500000b 	streq	r0, [r0, #-11]
    7f8c:	0025026d 	eoreq	r0, r5, sp, ror #4
    7f90:	19300000 	ldmdbne	r0!, {}	; <UNPREDICTABLE>
    7f94:	000003d7 	ldrdeq	r0, [r0], -r7
    7f98:	36026e05 	strcc	r6, [r2], -r5, lsl #28
    7f9c:	34000008 	strcc	r0, [r0], #-8
    7fa0:	00032419 	andeq	r2, r3, r9, lsl r4
    7fa4:	02700500 	rsbseq	r0, r0, #0, 10
    7fa8:	00000025 	andeq	r0, r0, r5, lsr #32
    7fac:	03df1938 	bicseq	r1, pc, #56, 18	; 0xe0000
    7fb0:	72050000 	andvc	r0, r5, #0
    7fb4:	00084702 	andeq	r4, r8, r2, lsl #14
    7fb8:	a2193c00 	andsge	r3, r9, #0, 24
    7fbc:	05000002 	streq	r0, [r0, #-2]
    7fc0:	01800275 	orreq	r0, r0, r5, ror r2
    7fc4:	19400000 	stmdbne	r0, {}^	; <UNPREDICTABLE>
    7fc8:	000001f5 	strdeq	r0, [r0], -r5
    7fcc:	25027605 	strcs	r7, [r2, #-1541]	; 0xfffff9fb
    7fd0:	44000000 	strmi	r0, [r0], #-0
    7fd4:	00055f19 	andeq	r5, r5, r9, lsl pc
    7fd8:	02770500 	rsbseq	r0, r7, #0, 10
    7fdc:	00000180 	andeq	r0, r0, r0, lsl #3
    7fe0:	03361948 	teqeq	r6, #72, 18	; 0x120000
    7fe4:	78050000 	stmdavc	r5, {}	; <UNPREDICTABLE>
    7fe8:	00084d02 	andeq	r4, r8, r2, lsl #26
    7fec:	37194c00 	ldrcc	r4, [r9, -r0, lsl #24]
    7ff0:	05000002 	streq	r0, [r0, #-2]
    7ff4:	0025027b 	eoreq	r0, r5, fp, ror r2
    7ff8:	19500000 	ldmdbne	r0, {}^	; <UNPREDICTABLE>
    7ffc:	0000018b 	andeq	r0, r0, fp, lsl #3
    8000:	10027c05 	andne	r7, r2, r5, lsl #24
    8004:	54000001 	strpl	r0, [r0], #-1
    8008:	000cc519 	andeq	ip, ip, r9, lsl r5
    800c:	029f0500 	addseq	r0, pc, #0, 10
    8010:	000007ff 	strdeq	r0, [r0], -pc	; <UNPREDICTABLE>
    8014:	031c1a58 	tsteq	ip, #88, 20	; 0x58000
    8018:	a3050000 	movwge	r0, #20480	; 0x5000
    801c:	00029d02 	andeq	r9, r2, r2, lsl #26
    8020:	1a014800 	bne	5a028 <__bss_end__+0x504b0>
    8024:	00000276 	andeq	r0, r0, r6, ror r2
    8028:	5f02a405 	svcpl	0x0002a405
    802c:	4c000002 	stcmi	0, cr0, [r0], {2}
    8030:	05081a01 	streq	r1, [r8, #-2561]	; 0xfffff5ff
    8034:	a8050000 	stmdage	r5, {}	; <UNPREDICTABLE>
    8038:	00085e02 	andeq	r5, r8, r2, lsl #28
    803c:	1a02dc00 	bne	bf044 <__bss_end__+0xb54cc>
    8040:	0000015b 	andeq	r0, r0, fp, asr r1
    8044:	0402ad05 	streq	sl, [r2], #-3333	; 0xfffff2fb
    8048:	e0000006 	and	r0, r0, r6
    804c:	01401a02 	cmpeq	r0, r2, lsl #20
    8050:	af050000 	svcge	0x00050000
    8054:	00086a02 	andeq	r6, r8, r2, lsl #20
    8058:	0002ec00 	andeq	lr, r2, r0, lsl #24
    805c:	040f0406 	streq	r0, [pc], #-1030	; 8064 <adc_read16+0x24>
    8060:	25160000 	ldrcs	r0, [r6, #-0]
    8064:	8e000000 	cdphi	0, 0, cr0, cr0, cr0, {0}
    8068:	17000005 	strne	r0, [r0, -r5]
    806c:	0000042d 	andeq	r0, r0, sp, lsr #8
    8070:	00010e17 	andeq	r0, r1, r7, lsl lr
    8074:	058e1700 	streq	r1, [lr, #1792]	; 0x700
    8078:	25170000 	ldrcs	r0, [r7, #-0]
    807c:	00000000 	andeq	r0, r0, r0
    8080:	011d0406 	tsteq	sp, r6, lsl #8
    8084:	04060000 	streq	r0, [r6], #-0
    8088:	00000570 	andeq	r0, r0, r0, ror r5
    808c:	00009116 	andeq	r9, r0, r6, lsl r1
    8090:	0005b800 	andeq	fp, r5, r0, lsl #16
    8094:	042d1700 	strteq	r1, [sp], #-1792	; 0xfffff900
    8098:	0e170000 	cdpeq	0, 1, cr0, cr7, cr0, {0}
    809c:	17000001 	strne	r0, [r0, -r1]
    80a0:	00000091 	muleq	r0, r1, r0
    80a4:	00002517 	andeq	r2, r0, r7, lsl r5
    80a8:	04060000 	streq	r0, [r6], #-0
    80ac:	0000059a 	muleq	r0, sl, r5
    80b0:	00002516 	andeq	r2, r0, r6, lsl r5
    80b4:	0005d200 	andeq	sp, r5, r0, lsl #4
    80b8:	042d1700 	strteq	r1, [sp], #-1792	; 0xfffff900
    80bc:	0e170000 	cdpeq	0, 1, cr0, cr7, cr0, {0}
    80c0:	00000001 	andeq	r0, r0, r1
    80c4:	05be0406 	ldreq	r0, [lr, #1030]!	; 0x406
    80c8:	540b0000 	strpl	r0, [fp], #-0
    80cc:	e8000000 	stmda	r0, {}	; <UNPREDICTABLE>
    80d0:	0c000005 	stceq	0, cr0, [r0], {5}
    80d4:	0000002c 	andeq	r0, r0, ip, lsr #32
    80d8:	540b0002 	strpl	r0, [fp], #-2
    80dc:	f8000000 			; <UNDEFINED> instruction: 0xf8000000
    80e0:	0c000005 	stceq	0, cr0, [r0], {5}
    80e4:	0000002c 	andeq	r0, r0, ip, lsr #32
    80e8:	8a080000 	bhi	2080f0 <__bss_end__+0x1fe578>
    80ec:	05000003 	streq	r0, [r0, #-3]
    80f0:	02e5011f 	rsceq	r0, r5, #-1073741817	; 0xc0000007
    80f4:	cb1b0000 	blgt	6c80fc <__bss_end__+0x6be584>
    80f8:	0c000004 	stceq	0, cr0, [r0], {4}
    80fc:	39012305 	stmdbcc	r1, {r0, r2, r8, r9, sp}
    8100:	19000006 	stmdbne	r0, {r1, r2}
    8104:	000003b2 			; <UNDEFINED> instruction: 0x000003b2
    8108:	39012505 	stmdbcc	r1, {r0, r2, r8, sl, sp}
    810c:	00000006 	andeq	r0, r0, r6
    8110:	00025219 	andeq	r5, r2, r9, lsl r2
    8114:	01260500 			; <UNDEFINED> instruction: 0x01260500
    8118:	00000025 	andeq	r0, r0, r5, lsr #32
    811c:	03841904 	orreq	r1, r4, #4, 18	; 0x10000
    8120:	27050000 	strcs	r0, [r5, -r0]
    8124:	00063f01 	andeq	r3, r6, r1, lsl #30
    8128:	06000800 	streq	r0, [r0], -r0, lsl #16
    812c:	00060404 	andeq	r0, r6, r4, lsl #8
    8130:	f8040600 			; <UNDEFINED> instruction: 0xf8040600
    8134:	1b000005 	blne	8150 <notmain+0x98>
    8138:	00000088 	andeq	r0, r0, r8, lsl #1
    813c:	013f050e 	teqeq	pc, lr, lsl #10
    8140:	0000067a 	andeq	r0, r0, sl, ror r6
    8144:	0003f819 	andeq	pc, r3, r9, lsl r8	; <UNPREDICTABLE>
    8148:	01400500 	cmpeq	r0, r0, lsl #10
    814c:	0000067a 	andeq	r0, r0, sl, ror r6
    8150:	043f1900 	ldrteq	r1, [pc], #-2304	; 8158 <notmain+0xa0>
    8154:	41050000 	mrsmi	r0, (UNDEF: 5)
    8158:	00067a01 	andeq	r7, r6, r1, lsl #20
    815c:	67190600 	ldrvs	r0, [r9, -r0, lsl #12]
    8160:	05000004 	streq	r0, [r0, #-4]
    8164:	005b0142 	subseq	r0, fp, r2, asr #2
    8168:	000c0000 	andeq	r0, ip, r0
    816c:	00005b0b 	andeq	r5, r0, fp, lsl #22
    8170:	00068a00 	andeq	r8, r6, r0, lsl #20
    8174:	002c0c00 	eoreq	r0, ip, r0, lsl #24
    8178:	00020000 	andeq	r0, r2, r0
    817c:	8005d01c 	andhi	sp, r5, ip, lsl r0
    8180:	00078b02 	andeq	r8, r7, r2, lsl #22
    8184:	04a61900 	strteq	r1, [r6], #2304	; 0x900
    8188:	82050000 	andhi	r0, r5, #0
    818c:	00002c02 	andeq	r2, r0, r2, lsl #24
    8190:	51190000 	tstpl	r9, r0
    8194:	05000004 	streq	r0, [r0, #-4]
    8198:	01100283 	tsteq	r0, r3, lsl #5
    819c:	19040000 	stmdbne	r4, {}	; <UNPREDICTABLE>
    81a0:	0000028b 	andeq	r0, r0, fp, lsl #5
    81a4:	8b028405 	blhi	a91c0 <__bss_end__+0x9f648>
    81a8:	08000007 	stmdaeq	r0, {r0, r1, r2}
    81ac:	00053619 	andeq	r3, r5, r9, lsl r6
    81b0:	02850500 	addeq	r0, r5, #0, 10
    81b4:	00000196 	muleq	r0, r6, r1
    81b8:	01e61924 	mvneq	r1, r4, lsr #18
    81bc:	86050000 	strhi	r0, [r5], -r0
    81c0:	00002502 	andeq	r2, r0, r2, lsl #10
    81c4:	ad194800 	ldcge	8, cr4, [r9, #-0]
    81c8:	05000003 	streq	r0, [r0, #-3]
    81cc:	00690287 	rsbeq	r0, r9, r7, lsl #5
    81d0:	19500000 	ldmdbne	r0, {}^	; <UNPREDICTABLE>
    81d4:	0000054c 	andeq	r0, r0, ip, asr #10
    81d8:	45028805 	strmi	r8, [r2, #-2053]	; 0xfffff7fb
    81dc:	58000006 	stmdapl	r0, {r1, r2}
    81e0:	0003b819 	andeq	fp, r3, r9, lsl r8
    81e4:	02890500 	addeq	r0, r9, #0, 10
    81e8:	000000f8 	strdeq	r0, [r0], -r8
    81ec:	05511968 	ldrbeq	r1, [r1, #-2408]	; 0xfffff698
    81f0:	8a050000 	bhi	1481f8 <__bss_end__+0x13e680>
    81f4:	0000f802 	andeq	pc, r0, r2, lsl #16
    81f8:	fc197000 	ldc2	0, cr7, [r9], {-0}
    81fc:	05000000 	streq	r0, [r0, #-0]
    8200:	00f8028b 	rscseq	r0, r8, fp, lsl #5
    8204:	19780000 	ldmdbne	r8!, {}^	; <UNPREDICTABLE>
    8208:	000004fe 	strdeq	r0, [r0], -lr
    820c:	9b028c05 	blls	ab228 <__bss_end__+0xa16b0>
    8210:	80000007 	andhi	r0, r0, r7
    8214:	00027f19 	andeq	r7, r2, r9, lsl pc
    8218:	028d0500 	addeq	r0, sp, #0, 10
    821c:	000007ab 	andeq	r0, r0, fp, lsr #15
    8220:	04741988 	ldrbteq	r1, [r4], #-2440	; 0xfffff678
    8224:	8e050000 	cdphi	0, 0, cr0, cr5, cr0, {0}
    8228:	00002502 	andeq	r2, r0, r2, lsl #10
    822c:	ac19a000 	ldcge	0, cr10, [r9], {-0}
    8230:	05000001 	streq	r0, [r0, #-1]
    8234:	00f8028f 	rscseq	r0, r8, pc, lsl #5
    8238:	19a40000 	stmibne	r4!, {}	; <UNPREDICTABLE>
    823c:	000000ed 	andeq	r0, r0, sp, ror #1
    8240:	f8029005 			; <UNDEFINED> instruction: 0xf8029005
    8244:	ac000000 	stcge	0, cr0, [r0], {-0}
    8248:	00019b19 	andeq	r9, r1, r9, lsl fp
    824c:	02910500 	addseq	r0, r1, #0, 10
    8250:	000000f8 	strdeq	r0, [r0], -r8
    8254:	00ad19b4 	strhteq	r1, [sp], r4
    8258:	92050000 	andls	r0, r5, #0
    825c:	0000f802 	andeq	pc, r0, r2, lsl #16
    8260:	bc19bc00 	ldclt	12, cr11, [r9], {-0}
    8264:	05000000 	streq	r0, [r0, #-0]
    8268:	00f80293 	smlalseq	r0, r8, r3, r2
    826c:	19c40000 	stmibne	r4, {}^	; <UNPREDICTABLE>
    8270:	00000360 	andeq	r0, r0, r0, ror #6
    8274:	25029405 	strcs	r9, [r2, #-1029]	; 0xfffffbfb
    8278:	cc000000 	stcgt	0, cr0, [r0], {-0}
    827c:	01160b00 	tsteq	r6, r0, lsl #22
    8280:	079b0000 	ldreq	r0, [fp, r0]
    8284:	2c0c0000 	stccs	0, cr0, [ip], {-0}
    8288:	19000000 	stmdbne	r0, {}	; <UNPREDICTABLE>
    828c:	01160b00 	tsteq	r6, r0, lsl #22
    8290:	07ab0000 	streq	r0, [fp, r0]!
    8294:	2c0c0000 	stccs	0, cr0, [ip], {-0}
    8298:	07000000 	streq	r0, [r0, -r0]
    829c:	01160b00 	tsteq	r6, r0, lsl #22
    82a0:	07bb0000 	ldreq	r0, [fp, r0]!
    82a4:	2c0c0000 	stccs	0, cr0, [ip], {-0}
    82a8:	17000000 	strne	r0, [r0, -r0]
    82ac:	05f01c00 	ldrbeq	r1, [r0, #3072]!	; 0xc00
    82b0:	07df0299 	bfieq	r0, r9, #5, #27
    82b4:	0c190000 	ldceq	0, cr0, [r9], {-0}
    82b8:	05000003 	streq	r0, [r0, #-3]
    82bc:	07df029c 	bfieq	r0, ip, #5, #27
    82c0:	19000000 	stmdbne	r0, {}	; <UNPREDICTABLE>
    82c4:	000002ef 	andeq	r0, r0, pc, ror #5
    82c8:	ef029d05 	svc	0x00029d05
    82cc:	78000007 	stmdavc	r0, {r0, r1, r2}
    82d0:	02df0b00 	sbcseq	r0, pc, #0, 22
    82d4:	07ef0000 	strbeq	r0, [pc, r0]!
    82d8:	2c0c0000 	stccs	0, cr0, [ip], {-0}
    82dc:	1d000000 	stcne	0, cr0, [r0, #-0]
    82e0:	002c0b00 	eoreq	r0, ip, r0, lsl #22
    82e4:	07ff0000 	ldrbeq	r0, [pc, r0]!
    82e8:	2c0c0000 	stccs	0, cr0, [ip], {-0}
    82ec:	1d000000 	stcne	0, cr0, [r0, #-0]
    82f0:	05f01d00 	ldrbeq	r1, [r0, #3328]!	; 0xd00
    82f4:	0821027e 	stmdaeq	r1!, {r1, r2, r3, r4, r5, r6, r9}
    82f8:	f11e0000 			; <UNDEFINED> instruction: 0xf11e0000
    82fc:	05000003 	streq	r0, [r0, #-3]
    8300:	068a0295 	pkhbteq	r0, sl, r5, lsl #5
    8304:	231e0000 	tstcs	lr, #0
    8308:	05000005 	streq	r0, [r0, #-5]
    830c:	07bb029e 			; <UNDEFINED> instruction: 0x07bb029e
    8310:	0b000000 	bleq	8318 <xfer_end+0x68>
    8314:	00000116 	andeq	r0, r0, r6, lsl r1
    8318:	00000831 	andeq	r0, r0, r1, lsr r8
    831c:	00002c0c 	andeq	r2, r0, ip, lsl #24
    8320:	07001800 	streq	r1, [r0, -r0, lsl #16]
    8324:	00000acc 	andeq	r0, r0, ip, asr #21
    8328:	08310406 	ldmdaeq	r1!, {r1, r2, sl}
    832c:	471f0000 	ldrmi	r0, [pc, -r0]
    8330:	17000008 	strne	r0, [r0, -r8]
    8334:	0000042d 	andeq	r0, r0, sp, lsr #8
    8338:	3c040600 	stccc	6, cr0, [r4], {-0}
    833c:	06000008 	streq	r0, [r0], -r8
    8340:	00018004 	andeq	r8, r1, r4
    8344:	085e1f00 	ldmdaeq	lr, {r8, r9, sl, fp, ip}^
    8348:	25170000 	ldrcs	r0, [r7, #-0]
    834c:	00000000 	andeq	r0, r0, r0
    8350:	08640406 	stmdaeq	r4!, {r1, r2, sl}^
    8354:	04060000 	streq	r0, [r6], #-0
    8358:	00000853 	andeq	r0, r0, r3, asr r8
    835c:	0005f80b 	andeq	pc, r5, fp, lsl #16
    8360:	00087a00 	andeq	r7, r8, r0, lsl #20
    8364:	002c0c00 	eoreq	r0, ip, r0, lsl #24
    8368:	00020000 	andeq	r0, r2, r0
    836c:	00048820 	andeq	r8, r4, r0, lsr #16
    8370:	032e0500 			; <UNDEFINED> instruction: 0x032e0500
    8374:	0000042d 	andeq	r0, r0, sp, lsr #8
    8378:	00048120 	andeq	r8, r4, r0, lsr #2
    837c:	032f0500 			; <UNDEFINED> instruction: 0x032f0500
    8380:	00000433 	andeq	r0, r0, r3, lsr r4
    8384:	00002516 	andeq	r2, r0, r6, lsl r5
    8388:	0008a100 	andeq	sl, r8, r0, lsl #2
    838c:	00251700 	eoreq	r1, r5, r0, lsl #14
    8390:	21000000 	mrscs	r0, (UNDEF: 0)
    8394:	000001ff 	strdeq	r0, [r0], -pc	; <UNPREDICTABLE>
    8398:	08ac1d06 	stmiaeq	ip!, {r1, r2, r8, sl, fp, ip}
    839c:	04060000 	streq	r0, [r6], #-0
    83a0:	00000892 	muleq	r0, r2, r8
    83a4:	00002516 	andeq	r2, r0, r6, lsl r5
    83a8:	0008c100 	andeq	ip, r8, r0, lsl #2
    83ac:	058e1700 	streq	r1, [lr, #1792]	; 0x700
    83b0:	21000000 	mrscs	r0, (UNDEF: 0)
    83b4:	000008b2 			; <UNDEFINED> instruction: 0x000008b2
    83b8:	08cc2206 	stmiaeq	ip, {r1, r2, r9, sp}^
    83bc:	04060000 	streq	r0, [r6], #-0
    83c0:	000008b2 			; <UNDEFINED> instruction: 0x000008b2
    83c4:	54010722 	strpl	r0, [r1], #-1826	; 0xfffff8de
    83c8:	08000000 	stmdaeq	r0, {}	; <UNPREDICTABLE>
    83cc:	0009100c 	andeq	r1, r9, ip
    83d0:	058b2300 	streq	r2, [fp, #768]	; 0x300
    83d4:	23000000 	movwcs	r0, #0
    83d8:	0000071e 	andeq	r0, r0, lr, lsl r7
    83dc:	074c2301 	strbeq	r2, [ip, -r1, lsl #6]
    83e0:	23040000 	movwcs	r0, #16384	; 0x4000
    83e4:	000005ae 	andeq	r0, r0, lr, lsr #11
    83e8:	06ad2305 	strteq	r2, [sp], r5, lsl #6
    83ec:	23060000 	movwcs	r0, #24576	; 0x6000
    83f0:	0000075b 	andeq	r0, r0, fp, asr r7
    83f4:	076a2307 	strbeq	r2, [sl, -r7, lsl #6]!
    83f8:	23030000 	movwcs	r0, #12288	; 0x3000
    83fc:	00000779 	andeq	r0, r0, r9, ror r7
    8400:	e8110002 	ldmda	r1, {r1}
    8404:	2c00000a 	stccs	0, cr0, [r0], {10}
    8408:	09a00607 	stmibeq	r0!, {r0, r1, r2, r9, sl}
    840c:	69120000 	ldmdbvs	r2, {}	; <UNPREDICTABLE>
    8410:	0907006f 	stmdbeq	r7, {r0, r1, r2, r3, r5, r6}
    8414:	00000033 	andeq	r0, r0, r3, lsr r0
    8418:	65691200 	strbvs	r1, [r9, #-512]!	; 0xfffffe00
    841c:	0a070072 	beq	1c85ec <__bss_end__+0x1bea74>
    8420:	00000033 	andeq	r0, r0, r3, lsr r0
    8424:	69691204 	stmdbvs	r9!, {r2, r9, ip}^
    8428:	11070072 	tstne	r7, r2, ror r0
    842c:	00000033 	andeq	r0, r0, r3, lsr r0
    8430:	636c1208 	cmnvs	ip, #8, 4	; 0x80000000
    8434:	13070072 	movwne	r0, #28786	; 0x7072
    8438:	00000033 	andeq	r0, r0, r3, lsr r0
    843c:	636d120c 	cmnvs	sp, #12, 4	; 0xc0000000
    8440:	14070072 	strne	r0, [r7], #-114	; 0xffffff8e
    8444:	00000033 	andeq	r0, r0, r3, lsr r0
    8448:	736c1210 	cmnvc	ip, #16, 4
    844c:	15070072 	strne	r0, [r7, #-114]	; 0xffffff8e
    8450:	00000033 	andeq	r0, r0, r3, lsr r0
    8454:	736d1214 	cmnvc	sp, #20, 4	; 0x40000001
    8458:	16070072 			; <UNDEFINED> instruction: 0x16070072
    845c:	00000033 	andeq	r0, r0, r3, lsr r0
    8460:	0c090e18 	stceq	14, cr0, [r9], {24}
    8464:	17070000 	strne	r0, [r7, -r0]
    8468:	00000033 	andeq	r0, r0, r3, lsr r0
    846c:	0adc0e1c 	beq	ff70bce4 <__bss_end__+0xff70216c>
    8470:	1b070000 	blne	1c8478 <__bss_end__+0x1be900>
    8474:	00000033 	andeq	r0, r0, r3, lsr r0
    8478:	0ad70e20 	beq	ff5cbd00 <__bss_end__+0xff5c2188>
    847c:	1d070000 	stcne	0, cr0, [r7, #-0]
    8480:	00000033 	andeq	r0, r0, r3, lsr r0
    8484:	09a80e24 	stmibeq	r8!, {r2, r5, r9, sl, fp}
    8488:	1e070000 	cdpne	0, 0, cr0, cr7, cr0, {0}
    848c:	00000033 	andeq	r0, r0, r3, lsr r0
    8490:	f4240028 	vld4.8	{d0-d3}, [r4 :128], r8
    8494:	0100000a 	tsteq	r0, sl
    8498:	0009b508 	andeq	fp, r9, r8, lsl #10
    849c:	21500400 	cmpcs	r0, r0, lsl #8
    84a0:	33040620 	movwcc	r0, #17952	; 0x4620
    84a4:	10000000 	andne	r0, r0, r0
    84a8:	000009af 	andeq	r0, r0, pc, lsr #19
    84ac:	00095224 	andeq	r5, r9, r4, lsr #4
    84b0:	cf290100 	svcgt	0x00290100
    84b4:	40000009 	andmi	r0, r0, r9
    84b8:	06202150 			; <UNDEFINED> instruction: 0x06202150
    84bc:	00091004 	andeq	r1, r9, r4
    84c0:	09c91000 	stmibeq	r9, {ip}^
    84c4:	27250000 	strcs	r0, [r5, -r0]!
    84c8:	0100000c 	tsteq	r0, ip
    84cc:	000025a3 	andeq	r2, r0, r3, lsr #11
    84d0:	00914800 	addseq	r4, r1, r0, lsl #16
    84d4:	00000c00 	andeq	r0, r0, r0, lsl #24
    84d8:	f79c0100 			; <UNDEFINED> instruction: 0xf79c0100
    84dc:	26000009 	strcs	r0, [r0], -r9
    84e0:	00009150 	andeq	r9, r0, r0, asr r1
    84e4:	00000aa2 	andeq	r0, r0, r2, lsr #21
    84e8:	08d02700 	ldmeq	r0, {r8, r9, sl, sp}^
    84ec:	9d010000 	stcls	0, cr0, [r1, #-0]
    84f0:	00009120 	andeq	r9, r0, r0, lsr #2
    84f4:	00000028 	andeq	r0, r0, r8, lsr #32
    84f8:	0a3f9c01 	beq	fef504 <__bss_end__+0xfe598c>
    84fc:	63280000 			; <UNDEFINED> instruction: 0x63280000
    8500:	2c9d0100 	ldfcss	f0, [sp], {0}
    8504:	75000000 	strvc	r0, [r0, #-0]
    8508:	2600000b 	strcs	r0, [r0], -fp
    850c:	0000912c 	andeq	r9, r0, ip, lsr #2
    8510:	00000a75 	andeq	r0, r0, r5, ror sl
    8514:	00914029 	addseq	r4, r1, r9, lsr #32
    8518:	000c6c00 	andeq	r6, ip, r0, lsl #24
    851c:	50012a00 	andpl	r2, r1, r0, lsl #20
    8520:	50400c05 	subpl	r0, r0, r5, lsl #24
    8524:	012a2021 			; <UNDEFINED> instruction: 0x012a2021
    8528:	00740551 	rsbseq	r0, r4, r1, asr r5
    852c:	001aff08 	andseq	pc, sl, r8, lsl #30
    8530:	0b0e2500 	bleq	391938 <__bss_end__+0x387dc0>
    8534:	98010000 	stmdals	r1, {}	; <UNPREDICTABLE>
    8538:	00000025 	andeq	r0, r0, r5, lsr #32
    853c:	000090fc 	strdeq	r9, [r0], -ip
    8540:	00000024 	andeq	r0, r0, r4, lsr #32
    8544:	0a759c01 	beq	1d6f550 <__bss_end__+0x1d659d8>
    8548:	04260000 	strteq	r0, [r6], #-0
    854c:	a2000091 	andge	r0, r0, #145	; 0x91
    8550:	2900000a 	stmdbcs	r0, {r1, r3}
    8554:	00009114 	andeq	r9, r0, r4, lsl r1
    8558:	00000c77 	andeq	r0, r0, r7, ror ip
    855c:	0550012a 	ldrbeq	r0, [r0, #-298]	; 0xfffffed6
    8560:	2150400c 	cmpcs	r0, ip
    8564:	25000020 	strcs	r0, [r0, #-32]	; 0xffffffe0
    8568:	00000b00 	andeq	r0, r0, r0, lsl #22
    856c:	00258901 	eoreq	r8, r5, r1, lsl #18
    8570:	90dc0000 	sbcsls	r0, ip, r0
    8574:	00200000 	eoreq	r0, r0, r0
    8578:	9c010000 	stcls	0, cr0, [r1], {-0}
    857c:	00000aa2 	andeq	r0, r0, r2, lsr #21
    8580:	0090e829 	addseq	lr, r0, r9, lsr #16
    8584:	000c7700 	andeq	r7, ip, r0, lsl #14
    8588:	50012a00 	andpl	r2, r1, r0, lsl #20
    858c:	50640c05 	rsbpl	r0, r4, r5, lsl #24
    8590:	00002021 	andeq	r2, r0, r1, lsr #32
    8594:	000c1125 	andeq	r1, ip, r5, lsr #2
    8598:	25800100 	strcs	r0, [r0, #256]	; 0x100
    859c:	c4000000 	strgt	r0, [r0], #-0
    85a0:	18000090 	stmdane	r0, {r4, r7}
    85a4:	01000000 	mrseq	r0, (UNDEF: 0)
    85a8:	000acf9c 	muleq	sl, ip, pc	; <UNPREDICTABLE>
    85ac:	90d02900 	sbcsls	r2, r0, r0, lsl #18
    85b0:	0c770000 	ldcleq	0, cr0, [r7], #-0
    85b4:	012a0000 			; <UNDEFINED> instruction: 0x012a0000
    85b8:	640c0550 	strvs	r0, [ip], #-1360	; 0xfffffab0
    85bc:	00202150 	eoreq	r2, r0, r0, asr r1
    85c0:	00a32700 	adceq	r2, r3, r0, lsl #14
    85c4:	3b010000 	blcc	485cc <__bss_end__+0x3ea54>
    85c8:	00009014 	andeq	r9, r0, r4, lsl r0
    85cc:	000000b0 	strheq	r0, [r0], -r0	; <UNPREDICTABLE>
    85d0:	0c0d9c01 	stceq	12, cr9, [sp], {1}
    85d4:	242b0000 	strtcs	r0, [fp], #-0
    85d8:	82000090 	andhi	r0, r0, #144	; 0x90
    85dc:	fc00000c 	stc2	0, cr0, [r0], {12}
    85e0:	2a00000a 	bcs	8610 <i2c_write+0x58>
    85e4:	3e015001 	cdpcc	0, 0, cr5, cr1, cr1, {0}
    85e8:	0151012a 	cmpeq	r1, sl, lsr #2
    85ec:	302b0032 	eorcc	r0, fp, r2, lsr r0
    85f0:	82000090 	andhi	r0, r0, #144	; 0x90
    85f4:	1400000c 	strne	r0, [r0], #-12
    85f8:	2a00000b 	bcs	862c <i2c_write+0x74>
    85fc:	3f015001 	svccc	0x00015001
    8600:	0151012a 	cmpeq	r1, sl, lsr #2
    8604:	34260032 	strtcc	r0, [r6], #-50	; 0xffffffce
    8608:	8d000090 	stchi	0, cr0, [r0, #-576]	; 0xfffffdc0
    860c:	2b00000c 	blcs	8644 <i2c_write+0x8c>
    8610:	00009040 	andeq	r9, r0, r0, asr #32
    8614:	00000c0d 	andeq	r0, r0, sp, lsl #24
    8618:	00000b39 	andeq	r0, r0, r9, lsr fp
    861c:	0550012a 	ldrbeq	r0, [r0, #-298]	; 0xfffffed6
    8620:	2150040c 	cmpcs	r0, ip, lsl #8
    8624:	51012a20 	tstpl	r1, r0, lsr #20
    8628:	26003101 	strcs	r3, [r0], -r1, lsl #2
    862c:	00009044 	andeq	r9, r0, r4, asr #32
    8630:	00000c8d 	andeq	r0, r0, sp, lsl #25
    8634:	0090542b 	addseq	r5, r0, fp, lsr #8
    8638:	000c6c00 	andeq	r6, ip, r0, lsl #24
    863c:	000b5b00 	andeq	r5, fp, r0, lsl #22
    8640:	50012a00 	andpl	r2, r1, r0, lsl #20
    8644:	2a007402 	bcs	25654 <__bss_end__+0x1badc>
    8648:	30015101 	andcc	r5, r1, r1, lsl #2
    864c:	90602b00 	rsbls	r2, r0, r0, lsl #22
    8650:	0c6c0000 	stcleq	0, cr0, [ip], #-0
    8654:	0b770000 	bleq	1dc865c <__bss_end__+0x1dbeae4>
    8658:	012a0000 			; <UNDEFINED> instruction: 0x012a0000
    865c:	440c0550 	strmi	r0, [ip], #-1360	; 0xfffffab0
    8660:	2a202150 	bcs	810ba8 <__bss_end__+0x807030>
    8664:	30015101 	andcc	r5, r1, r1, lsl #2
    8668:	906c2b00 	rsbls	r2, ip, r0, lsl #22
    866c:	0c6c0000 	stcleq	0, cr0, [ip], #-0
    8670:	0b930000 	bleq	fe4c8678 <__bss_end__+0xfe4beb00>
    8674:	012a0000 			; <UNDEFINED> instruction: 0x012a0000
    8678:	4c0c0550 	cfstr32mi	mvfx0, [ip], {80}	; 0x50
    867c:	2a202150 	bcs	810bc4 <__bss_end__+0x80704c>
    8680:	33015101 	movwcc	r5, #4353	; 0x1101
    8684:	90782b00 	rsbsls	r2, r8, r0, lsl #22
    8688:	0c6c0000 	stcleq	0, cr0, [ip], #-0
    868c:	0baf0000 	bleq	febc8694 <__bss_end__+0xfebbeb1c>
    8690:	012a0000 			; <UNDEFINED> instruction: 0x012a0000
    8694:	500c0550 	andpl	r0, ip, r0, asr r5
    8698:	2a202150 	bcs	810be0 <__bss_end__+0x807068>
    869c:	30015101 	andcc	r5, r1, r1, lsl #2
    86a0:	90842b00 	addls	r2, r4, r0, lsl #22
    86a4:	0c6c0000 	stcleq	0, cr0, [ip], #-0
    86a8:	0bcc0000 	bleq	ff3086b0 <__bss_end__+0xff2feb38>
    86ac:	012a0000 			; <UNDEFINED> instruction: 0x012a0000
    86b0:	480c0550 	stmdami	ip, {r4, r6, r8, sl}
    86b4:	2a202150 	bcs	810bfc <__bss_end__+0x807084>
    86b8:	08025101 	stmdaeq	r2, {r0, r8, ip, lr}
    86bc:	902b00c7 	eorls	r0, fp, r7, asr #1
    86c0:	6c000090 	stcvs	0, cr0, [r0], {144}	; 0x90
    86c4:	ea00000c 	b	86fc <i2c_read+0x80>
    86c8:	2a00000b 	bcs	86fc <i2c_read+0x80>
    86cc:	0c055001 	stceq	0, cr5, [r5], {1}
    86d0:	20215068 	eorcs	r5, r1, r8, rrx
    86d4:	0351012a 	cmpeq	r1, #-2147483638	; 0x8000000a
    86d8:	00010e0a 	andeq	r0, r1, sl, lsl #28
    86dc:	00909c2b 	addseq	r9, r0, fp, lsr #24
    86e0:	000c6c00 	andeq	r6, ip, r0, lsl #24
    86e4:	000c0300 	andeq	r0, ip, r0, lsl #6
    86e8:	50012a00 	andpl	r2, r1, r0, lsl #20
    86ec:	2a007402 	bcs	256fc <__bss_end__+0x1bb84>
    86f0:	33015101 	movwcc	r5, #4353	; 0x1101
    86f4:	90a02600 	adcls	r2, r0, r0, lsl #12
    86f8:	0c8d0000 	stceq	0, cr0, [sp], {0}
    86fc:	2c000000 	stccs	0, cr0, [r0], {-0}
    8700:	00000c1f 	andeq	r0, r0, pc, lsl ip
    8704:	8ff42e01 	svchi	0x00f42e01
    8708:	00200000 	eoreq	r0, r0, r0
    870c:	9c010000 	stcls	0, cr0, [r1], {-0}
    8710:	00000c65 	andeq	r0, r0, r5, ror #24
    8714:	0001252d 	andeq	r2, r1, sp, lsr #10
    8718:	652e0100 	strvs	r0, [lr, #-256]!	; 0xffffff00
    871c:	9300000c 	movwls	r0, #12
    8720:	2800000b 	stmdacs	r0, {r0, r1, r3}
    8724:	006c6176 	rsbeq	r6, ip, r6, ror r1
    8728:	002c2e01 	eoreq	r2, ip, r1, lsl #28
    872c:	0bb10000 	bleq	fec48734 <__bss_end__+0xfec3ebbc>
    8730:	042b0000 	strteq	r0, [fp], #-0
    8734:	77000090 			; <UNDEFINED> instruction: 0x77000090
    8738:	5400000c 	strpl	r0, [r0], #-12
    873c:	2a00000c 	bcs	8774 <i2c_init+0x24>
    8740:	74025001 	strvc	r5, [r2], #-1
    8744:	10290000 	eorne	r0, r9, r0
    8748:	6c000090 	stcvs	0, cr0, [r0], {144}	; 0x90
    874c:	2a00000c 	bcs	8784 <i2c_init+0x34>
    8750:	74025001 	strvc	r5, [r2], #-1
    8754:	06000000 	streq	r0, [r0], -r0
    8758:	000c6b04 	andeq	r6, ip, r4, lsl #22
    875c:	0d2f2e00 	stceq	14, cr2, [pc, #-0]	; 8764 <i2c_init+0x14>
    8760:	0d000007 	stceq	0, cr0, [r0, #-28]	; 0xffffffe4
    8764:	06000007 	streq	r0, [r0], -r7
    8768:	072f2f9c 			; <UNDEFINED> instruction: 0x072f2f9c
    876c:	072f0000 	streq	r0, [pc, -r0]!
    8770:	a8060000 	stmdage	r6, {}	; <UNPREDICTABLE>
    8774:	0005dd2f 	andeq	sp, r5, pc, lsr #26
    8778:	0005dd00 	andeq	sp, r5, r0, lsl #26
    877c:	2f190800 	svccs	0x00190800
    8780:	00000603 	andeq	r0, r0, r3, lsl #12
    8784:	00000603 	andeq	r0, r0, r3, lsl #12
    8788:	9a008906 	bls	2aba8 <__bss_end__+0x21030>
    878c:	0400000b 	streq	r0, [r0], #-11
    8790:	0019f700 	andseq	pc, r9, r0, lsl #14
    8794:	20010400 	andcs	r0, r1, r0, lsl #8
    8798:	0c00000b 	stceq	0, cr0, [r0], {11}
    879c:	00000c47 	andeq	r0, r0, r7, asr #24
    87a0:	00000bb4 			; <UNDEFINED> instruction: 0x00000bb4
    87a4:	00009154 	andeq	r9, r0, r4, asr r1
    87a8:	00000120 	andeq	r0, r0, r0, lsr #2
    87ac:	00000d18 	andeq	r0, r0, r8, lsl sp
    87b0:	69050402 	stmdbvs	r5, {r1, sl}
    87b4:	0300746e 	movweq	r7, #1134	; 0x46e
    87b8:	00d70704 	sbcseq	r0, r7, r4, lsl #14
    87bc:	2c040000 	stccs	0, cr0, [r4], {-0}
    87c0:	05000000 	streq	r0, [r0, #-0]
    87c4:	0000002c 	andeq	r0, r0, ip, lsr #32
    87c8:	54060103 	strpl	r0, [r6], #-259	; 0xfffffefd
    87cc:	03000003 	movweq	r0, #3
    87d0:	03690502 	cmneq	r9, #8388608	; 0x800000
    87d4:	04030000 	streq	r0, [r3], #-0
    87d8:	00011805 	andeq	r1, r1, r5, lsl #16
    87dc:	05080300 	streq	r0, [r8, #-768]	; 0xfffffd00
    87e0:	00000113 	andeq	r0, r0, r3, lsl r1
    87e4:	52080103 	andpl	r0, r8, #-1073741824	; 0xc0000000
    87e8:	03000003 	movweq	r0, #3
    87ec:	02630702 	rsbeq	r0, r3, #524288	; 0x80000
    87f0:	04030000 	streq	r0, [r3], #-0
    87f4:	0000d207 	andeq	sp, r0, r7, lsl #4
    87f8:	07080300 	streq	r0, [r8, -r0, lsl #6]
    87fc:	000000cd 	andeq	r0, r0, sp, asr #1
    8800:	000b1806 	andeq	r1, fp, r6, lsl #16
    8804:	80220200 	eorhi	r0, r2, r0, lsl #4
    8808:	07000000 	streq	r0, [r0, -r0]
    880c:	00008604 	andeq	r8, r0, r4, lsl #12
    8810:	0c020800 	stceq	8, cr0, [r2], {-0}
    8814:	2f060000 	svccs	0x00060000
    8818:	03000003 	movweq	r0, #3
    881c:	00004b2c 	andeq	r4, r0, ip, lsr #22
    8820:	041d0600 	ldreq	r0, [sp], #-1536	; 0xfffffa00
    8824:	72030000 	andvc	r0, r3, #0
    8828:	0000004b 	andeq	r0, r0, fp, asr #32
    882c:	0002b009 	andeq	fp, r2, r9
    8830:	01650400 	cmneq	r5, r0, lsl #8
    8834:	0000002c 	andeq	r0, r0, ip, lsr #32
    8838:	a603040a 	strge	r0, [r3], -sl, lsl #8
    883c:	000000cc 	andeq	r0, r0, ip, asr #1
    8840:	0002aa0b 	andeq	sl, r2, fp, lsl #20
    8844:	a1a80300 			; <UNDEFINED> instruction: 0xa1a80300
    8848:	0b000000 	bleq	8850 <printk+0x54>
    884c:	00000219 	andeq	r0, r0, r9, lsl r2
    8850:	00cca903 	sbceq	sl, ip, r3, lsl #18
    8854:	0c000000 	stceq	0, cr0, [r0], {-0}
    8858:	00000059 	andeq	r0, r0, r9, asr r0
    885c:	000000dc 	ldrdeq	r0, [r0], -ip
    8860:	00002c0d 	andeq	r2, r0, sp, lsl #24
    8864:	0e000300 	cdpeq	3, 0, cr0, cr0, cr0, {0}
    8868:	fda30308 	stc2	3, cr0, [r3, #32]!
    886c:	0f000000 	svceq	0x00000000
    8870:	00000407 	andeq	r0, r0, r7, lsl #8
    8874:	0025a503 	eoreq	sl, r5, r3, lsl #10
    8878:	0f000000 	svceq	0x00000000
    887c:	0000040f 	andeq	r0, r0, pc, lsl #8
    8880:	00adaa03 	adceq	sl, sp, r3, lsl #20
    8884:	00040000 	andeq	r0, r4, r0
    8888:	00039106 	andeq	r9, r3, r6, lsl #2
    888c:	dcab0300 	stcle	3, cr0, [fp]
    8890:	06000000 	streq	r0, [r0], -r0
    8894:	000001cd 	andeq	r0, r0, sp, asr #3
    8898:	0075af03 	rsbseq	sl, r5, r3, lsl #30
    889c:	04100000 	ldreq	r0, [r0], #-0
    88a0:	011b0407 	tsteq	fp, r7, lsl #8
    88a4:	01030000 	mrseq	r0, (UNDEF: 3)
    88a8:	00035b08 	andeq	r5, r3, r8, lsl #22
    88ac:	011b0500 	tsteq	fp, r0, lsl #10
    88b0:	6c060000 	stcvs	0, cr0, [r6], {-0}
    88b4:	05000004 	streq	r0, [r0, #-4]
    88b8:	00006716 	andeq	r6, r0, r6, lsl r7
    88bc:	01de1100 	bicseq	r1, lr, r0, lsl #2
    88c0:	05180000 	ldreq	r0, [r8, #-0]
    88c4:	0001852f 	andeq	r8, r1, pc, lsr #10
    88c8:	03b20f00 			; <UNDEFINED> instruction: 0x03b20f00
    88cc:	31050000 	mrscc	r0, (UNDEF: 5)
    88d0:	00000185 	andeq	r0, r0, r5, lsl #3
    88d4:	6b5f1200 	blvs	17cd0dc <__bss_end__+0x17c3564>
    88d8:	25320500 	ldrcs	r0, [r2, #-1280]!	; 0xfffffb00
    88dc:	04000000 	streq	r0, [r0], #-0
    88e0:	0003e90f 	andeq	lr, r3, pc, lsl #18
    88e4:	25320500 	ldrcs	r0, [r2, #-1280]!	; 0xfffffb00
    88e8:	08000000 	stmdaeq	r0, {}	; <UNPREDICTABLE>
    88ec:	0001c70f 	andeq	ip, r1, pc, lsl #14
    88f0:	25320500 	ldrcs	r0, [r2, #-1280]!	; 0xfffffb00
    88f4:	0c000000 	stceq	0, cr0, [r0], {-0}
    88f8:	0004bc0f 	andeq	fp, r4, pc, lsl #24
    88fc:	25320500 	ldrcs	r0, [r2, #-1280]!	; 0xfffffb00
    8900:	10000000 	andne	r0, r0, r0
    8904:	00785f12 	rsbseq	r5, r8, r2, lsl pc
    8908:	018b3305 	orreq	r3, fp, r5, lsl #6
    890c:	00140000 	andseq	r0, r4, r0
    8910:	01320407 	teqeq	r2, r7, lsl #8
    8914:	270c0000 	strcs	r0, [ip, -r0]
    8918:	9b000001 	blls	8924 <emit+0x50>
    891c:	0d000001 	stceq	0, cr0, [r0, #-4]
    8920:	0000002c 	andeq	r0, r0, ip, lsr #32
    8924:	0b110000 	bleq	44892c <__bss_end__+0x43edb4>
    8928:	24000002 	strcs	r0, [r0], #-2
    892c:	02143705 	andseq	r3, r4, #1310720	; 0x140000
    8930:	0a0f0000 	beq	3c8938 <__bss_end__+0x3bedc0>
    8934:	05000001 	streq	r0, [r0, #-1]
    8938:	00002539 	andeq	r2, r0, r9, lsr r5
    893c:	250f0000 	strcs	r0, [pc, #-0]	; 8944 <emit+0x70>
    8940:	05000004 	streq	r0, [r0, #-4]
    8944:	0000253a 	andeq	r2, r0, sl, lsr r5
    8948:	360f0400 	strcc	r0, [pc], -r0, lsl #8
    894c:	05000001 	streq	r0, [r0, #-1]
    8950:	0000253b 	andeq	r2, r0, fp, lsr r5
    8954:	640f0800 	strvs	r0, [pc], #-2048	; 895c <emit+0x88>
    8958:	05000005 	streq	r0, [r0, #-5]
    895c:	0000253c 	andeq	r2, r0, ip, lsr r5
    8960:	130f0c00 	movwne	r0, #64512	; 0xfc00
    8964:	05000003 	streq	r0, [r0, #-3]
    8968:	0000253d 	andeq	r2, r0, sp, lsr r5
    896c:	d80f1000 	stmdale	pc, {ip}	; <UNPREDICTABLE>
    8970:	05000002 	streq	r0, [r0, #-2]
    8974:	0000253e 	andeq	r2, r0, lr, lsr r5
    8978:	c10f1400 	tstgt	pc, r0, lsl #8
    897c:	05000004 	streq	r0, [r0, #-4]
    8980:	0000253f 	andeq	r2, r0, pc, lsr r5
    8984:	730f1800 	movwvc	r1, #63488	; 0xf800
    8988:	05000003 	streq	r0, [r0, #-3]
    898c:	00002540 	andeq	r2, r0, r0, asr #10
    8990:	2b0f1c00 	blcs	3cf998 <__bss_end__+0x3c5e20>
    8994:	05000005 	streq	r0, [r0, #-5]
    8998:	00002541 	andeq	r2, r0, r1, asr #10
    899c:	13002000 	movwne	r2, #0
    89a0:	00000145 	andeq	r0, r0, r5, asr #2
    89a4:	4a050108 	bmi	148dcc <__bss_end__+0x13f254>
    89a8:	00000254 	andeq	r0, r0, r4, asr r2
    89ac:	0001ba0f 	andeq	fp, r1, pc, lsl #20
    89b0:	544b0500 	strbpl	r0, [fp], #-1280	; 0xfffffb00
    89b4:	00000002 	andeq	r0, r0, r2
    89b8:	0000000f 	andeq	r0, r0, pc
    89bc:	544c0500 	strbpl	r0, [ip], #-1280	; 0xfffffb00
    89c0:	80000002 	andhi	r0, r0, r2
    89c4:	00045e14 	andeq	r5, r4, r4, lsl lr
    89c8:	274e0500 	strbcs	r0, [lr, -r0, lsl #10]
    89cc:	00000001 	andeq	r0, r0, r1
    89d0:	016a1401 	cmneq	sl, r1, lsl #8
    89d4:	51050000 	mrspl	r0, (UNDEF: 5)
    89d8:	00000127 	andeq	r0, r0, r7, lsr #2
    89dc:	0c000104 	stfeqs	f0, [r0], {4}
    89e0:	00000113 	andeq	r0, r0, r3, lsl r1
    89e4:	00000264 	andeq	r0, r0, r4, ror #4
    89e8:	00002c0d 	andeq	r2, r0, sp, lsl #24
    89ec:	13001f00 	movwne	r1, #3840	; 0xf00
    89f0:	0000031c 	andeq	r0, r0, ip, lsl r3
    89f4:	5d050190 	stfpls	f0, [r5, #-576]	; 0xfffffdc0
    89f8:	000002a2 	andeq	r0, r0, r2, lsr #5
    89fc:	0003b20f 	andeq	fp, r3, pc, lsl #4
    8a00:	a25e0500 	subsge	r0, lr, #0, 10
    8a04:	00000002 	andeq	r0, r0, r2
    8a08:	0003ca0f 	andeq	ip, r3, pc, lsl #20
    8a0c:	255f0500 	ldrbcs	r0, [pc, #-1280]	; 8514 <xfer_start+0x128>
    8a10:	04000000 	streq	r0, [r0], #-0
    8a14:	0001c20f 	andeq	ip, r1, pc, lsl #4
    8a18:	a8610500 	stmdage	r1!, {r8, sl}^
    8a1c:	08000002 	stmdaeq	r0, {r1}
    8a20:	0001450f 	andeq	r4, r1, pc, lsl #10
    8a24:	14620500 	strbtne	r0, [r2], #-1280	; 0xfffffb00
    8a28:	88000002 	stmdahi	r0, {r1}
    8a2c:	64040700 	strvs	r0, [r4], #-1792	; 0xfffff900
    8a30:	0c000002 	stceq	0, cr0, [r0], {2}
    8a34:	000002b8 			; <UNDEFINED> instruction: 0x000002b8
    8a38:	000002b8 			; <UNDEFINED> instruction: 0x000002b8
    8a3c:	00002c0d 	andeq	r2, r0, sp, lsl #24
    8a40:	07001f00 	streq	r1, [r0, -r0, lsl #30]
    8a44:	0002be04 	andeq	fp, r2, r4, lsl #28
    8a48:	7d111500 	cfldr32vc	mvfx1, [r1, #-0]
    8a4c:	08000003 	stmdaeq	r0, {r0, r1}
    8a50:	02e47505 	rsceq	r7, r4, #20971520	; 0x1400000
    8a54:	300f0000 	andcc	r0, pc, r0
    8a58:	05000001 	streq	r0, [r0, #-1]
    8a5c:	0002e476 	andeq	lr, r2, r6, ror r4
    8a60:	820f0000 	andhi	r0, pc, #0
    8a64:	05000000 	streq	r0, [r0, #-0]
    8a68:	00002577 	andeq	r2, r0, r7, ror r5
    8a6c:	07000400 	streq	r0, [r0, -r0, lsl #8]
    8a70:	00005904 	andeq	r5, r0, r4, lsl #18
    8a74:	039c1100 	orrseq	r1, ip, #0, 2
    8a78:	05680000 	strbeq	r0, [r8, #-0]!
    8a7c:	000414b5 			; <UNDEFINED> instruction: 0x000414b5
    8a80:	705f1200 	subsvc	r1, pc, r0, lsl #4
    8a84:	e4b60500 	ldrt	r0, [r6], #1280	; 0x500
    8a88:	00000002 	andeq	r0, r0, r2
    8a8c:	00725f12 	rsbseq	r5, r2, r2, lsl pc
    8a90:	0025b705 	eoreq	fp, r5, r5, lsl #14
    8a94:	12040000 	andne	r0, r4, #0
    8a98:	0500775f 	streq	r7, [r0, #-1887]	; 0xfffff8a1
    8a9c:	000025b8 			; <UNDEFINED> instruction: 0x000025b8
    8aa0:	630f0800 	movwvs	r0, #63488	; 0xf800
    8aa4:	05000001 	streq	r0, [r0, #-1]
    8aa8:	000044b9 			; <UNDEFINED> instruction: 0x000044b9
    8aac:	3f0f0c00 	svccc	0x000f0c00
    8ab0:	05000002 	streq	r0, [r0, #-2]
    8ab4:	000044ba 			; <UNDEFINED> instruction: 0x000044ba
    8ab8:	5f120e00 	svcpl	0x00120e00
    8abc:	05006662 	streq	r6, [r0, #-1634]	; 0xfffff99e
    8ac0:	0002bfbb 			; <UNDEFINED> instruction: 0x0002bfbb
    8ac4:	e40f1000 	str	r1, [pc], #-0	; 8acc <va_printk+0x8>
    8ac8:	05000000 	streq	r0, [r0, #-0]
    8acc:	000025bc 			; <UNDEFINED> instruction: 0x000025bc
    8ad0:	530f1800 	movwpl	r1, #63488	; 0xf800
    8ad4:	05000001 	streq	r0, [r0, #-1]
    8ad8:	000113c3 	andeq	r1, r1, r3, asr #7
    8adc:	b60f1c00 	strlt	r1, [pc], -r0, lsl #24
    8ae0:	05000004 	streq	r0, [r0, #-4]
    8ae4:	00056fc5 	andeq	r6, r5, r5, asr #31
    8ae8:	9b0f2000 	blls	3d0af0 <__bss_end__+0x3c6f78>
    8aec:	05000002 	streq	r0, [r0, #-2]
    8af0:	000599c7 	andeq	r9, r5, r7, asr #19
    8af4:	170f2400 	strne	r2, [pc, -r0, lsl #8]
    8af8:	05000004 	streq	r0, [r0, #-4]
    8afc:	0005bdca 	andeq	fp, r5, sl, asr #27
    8b00:	450f2800 	strmi	r2, [pc, #-2048]	; 8308 <xfer_end+0x58>
    8b04:	05000005 	streq	r0, [r0, #-5]
    8b08:	0005d7cb 	andeq	sp, r5, fp, asr #15
    8b0c:	5f122c00 	svcpl	0x00122c00
    8b10:	05006275 	streq	r6, [r0, #-629]	; 0xfffffd8b
    8b14:	0002bfce 	andeq	fp, r2, lr, asr #31
    8b18:	5f123000 	svcpl	0x00123000
    8b1c:	05007075 	streq	r7, [r0, #-117]	; 0xffffff8b
    8b20:	0002e4cf 	andeq	lr, r2, pc, asr #9
    8b24:	5f123800 	svcpl	0x00123800
    8b28:	05007275 	streq	r7, [r0, #-629]	; 0xfffffd8b
    8b2c:	000025d0 	ldrdeq	r2, [r0], -r0
    8b30:	2a0f3c00 	bcs	3d7b38 <__bss_end__+0x3cdfc0>
    8b34:	05000001 	streq	r0, [r0, #-1]
    8b38:	0005ddd3 	ldrdeq	sp, [r5], -r3
    8b3c:	1d0f4000 	stcne	0, cr4, [pc, #-0]	; 8b44 <va_printk+0x80>
    8b40:	05000005 	streq	r0, [r0, #-5]
    8b44:	0005edd4 	ldrdeq	lr, [r5], -r4
    8b48:	5f124300 	svcpl	0x00124300
    8b4c:	0500626c 	streq	r6, [r0, #-620]	; 0xfffffd94
    8b50:	0002bfd7 	ldrdeq	fp, [r2], -r7
    8b54:	790f4400 	stmdbvc	pc, {sl, lr}	; <UNPREDICTABLE>
    8b58:	05000001 	streq	r0, [r0, #-1]
    8b5c:	000025da 	ldrdeq	r2, [r0], -sl
    8b60:	930f4c00 	movwls	r4, #64512	; 0xfc00
    8b64:	05000001 	streq	r0, [r0, #-1]
    8b68:	00008bdb 	ldrdeq	r8, [r0], -fp
    8b6c:	2f0f5000 	svccs	0x000f5000
    8b70:	0500000c 	streq	r0, [r0, #-12]
    8b74:	000432de 	ldrdeq	r3, [r4], -lr
    8b78:	030f5400 	movweq	r5, #62464	; 0xf400
    8b7c:	0500000c 	streq	r0, [r0, #-12]
    8b80:	000108e2 	andeq	r0, r1, r2, ror #17
    8b84:	a40f5800 	strge	r5, [pc], #-2048	; 8b8c <va_printk+0xc8>
    8b88:	05000003 	streq	r0, [r0, #-3]
    8b8c:	0000fde4 	andeq	pc, r0, r4, ror #27
    8b90:	c10f5c00 	tstgt	pc, r0, lsl #24
    8b94:	05000002 	streq	r0, [r0, #-2]
    8b98:	000025e5 	andeq	r2, r0, r5, ror #11
    8b9c:	16006400 	strne	r6, [r0], -r0, lsl #8
    8ba0:	00000025 	andeq	r0, r0, r5, lsr #32
    8ba4:	00000432 	andeq	r0, r0, r2, lsr r4
    8ba8:	00043217 	andeq	r3, r4, r7, lsl r2
    8bac:	01131700 	tsteq	r3, r0, lsl #14
    8bb0:	15170000 	ldrne	r0, [r7, #-0]
    8bb4:	17000001 	strne	r0, [r0, -r1]
    8bb8:	00000025 	andeq	r0, r0, r5, lsr #32
    8bbc:	3d040700 	stccc	7, cr0, [r4, #-0]
    8bc0:	05000004 	streq	r0, [r0, #-4]
    8bc4:	00000432 	andeq	r0, r0, r2, lsr r4
    8bc8:	0003f118 	andeq	pc, r3, r8, lsl r1	; <UNPREDICTABLE>
    8bcc:	05042800 	streq	r2, [r4, #-2048]	; 0xfffff800
    8bd0:	056f0260 	strbeq	r0, [pc, #-608]!	; 8978 <emit+0xa4>
    8bd4:	62190000 	andsvs	r0, r9, #0
    8bd8:	05000003 	streq	r0, [r0, #-3]
    8bdc:	00250262 	eoreq	r0, r5, r2, ror #4
    8be0:	19000000 	stmdbne	r0, {}	; <UNPREDICTABLE>
    8be4:	00000172 	andeq	r0, r0, r2, ror r1
    8be8:	44026705 	strmi	r6, [r2], #-1797	; 0xfffff8fb
    8bec:	04000006 	streq	r0, [r0], #-6
    8bf0:	00022f19 	andeq	r2, r2, r9, lsl pc
    8bf4:	02670500 	rsbeq	r0, r7, #0, 10
    8bf8:	00000644 	andeq	r0, r0, r4, asr #12
    8bfc:	01d61908 	bicseq	r1, r6, r8, lsl #18
    8c00:	67050000 	strvs	r0, [r5, -r0]
    8c04:	00064402 	andeq	r4, r6, r2, lsl #8
    8c08:	c5190c00 	ldrgt	r0, [r9, #-3072]	; 0xfffff400
    8c0c:	05000003 	streq	r0, [r0, #-3]
    8c10:	00250269 	eoreq	r0, r5, r9, ror #4
    8c14:	19100000 	ldmdbne	r0, {}	; <UNPREDICTABLE>
    8c18:	00000090 	muleq	r0, r0, r0
    8c1c:	26026a05 	strcs	r6, [r2], -r5, lsl #20
    8c20:	14000008 	strne	r0, [r0], #-8
    8c24:	000be919 	andeq	lr, fp, r9, lsl r9
    8c28:	026d0500 	rsbeq	r0, sp, #0, 10
    8c2c:	00000025 	andeq	r0, r0, r5, lsr #32
    8c30:	03d71930 	bicseq	r1, r7, #48, 18	; 0xc0000
    8c34:	6e050000 	cdpvs	0, 0, cr0, cr5, cr0, {0}
    8c38:	00083b02 	andeq	r3, r8, r2, lsl #22
    8c3c:	24193400 	ldrcs	r3, [r9], #-1024	; 0xfffffc00
    8c40:	05000003 	streq	r0, [r0, #-3]
    8c44:	00250270 	eoreq	r0, r5, r0, ror r2
    8c48:	19380000 	ldmdbne	r8!, {}	; <UNPREDICTABLE>
    8c4c:	000003df 	ldrdeq	r0, [r0], -pc	; <UNPREDICTABLE>
    8c50:	4c027205 	sfmmi	f7, 4, [r2], {5}
    8c54:	3c000008 	stccc	0, cr0, [r0], {8}
    8c58:	0002a219 	andeq	sl, r2, r9, lsl r2
    8c5c:	02750500 	rsbseq	r0, r5, #0, 10
    8c60:	00000185 	andeq	r0, r0, r5, lsl #3
    8c64:	01f51940 	mvnseq	r1, r0, asr #18
    8c68:	76050000 	strvc	r0, [r5], -r0
    8c6c:	00002502 	andeq	r2, r0, r2, lsl #10
    8c70:	5f194400 	svcpl	0x00194400
    8c74:	05000005 	streq	r0, [r0, #-5]
    8c78:	01850277 	orreq	r0, r5, r7, ror r2
    8c7c:	19480000 	stmdbne	r8, {}^	; <UNPREDICTABLE>
    8c80:	00000336 	andeq	r0, r0, r6, lsr r3
    8c84:	52027805 	andpl	r7, r2, #327680	; 0x50000
    8c88:	4c000008 	stcmi	0, cr0, [r0], {8}
    8c8c:	00023719 	andeq	r3, r2, r9, lsl r7
    8c90:	027b0500 	rsbseq	r0, fp, #0, 10
    8c94:	00000025 	andeq	r0, r0, r5, lsr #32
    8c98:	018b1950 	orreq	r1, fp, r0, asr r9
    8c9c:	7c050000 	stcvc	0, cr0, [r5], {-0}
    8ca0:	00011502 	andeq	r1, r1, r2, lsl #10
    8ca4:	c5195400 	ldrgt	r5, [r9, #-1024]	; 0xfffffc00
    8ca8:	0500000c 	streq	r0, [r0, #-12]
    8cac:	0804029f 	stmdaeq	r4, {r0, r1, r2, r3, r4, r7, r9}
    8cb0:	1a580000 	bne	1608cb8 <__bss_end__+0x15ff140>
    8cb4:	0000031c 	andeq	r0, r0, ip, lsl r3
    8cb8:	a202a305 	andge	sl, r2, #335544320	; 0x14000000
    8cbc:	48000002 	stmdami	r0, {r1}
    8cc0:	02761a01 	rsbseq	r1, r6, #4096	; 0x1000
    8cc4:	a4050000 	strge	r0, [r5], #-0
    8cc8:	00026402 	andeq	r6, r2, r2, lsl #8
    8ccc:	1a014c00 	bne	5bcd4 <__bss_end__+0x5215c>
    8cd0:	00000508 	andeq	r0, r0, r8, lsl #10
    8cd4:	6302a805 	movwvs	sl, #10245	; 0x2805
    8cd8:	dc000008 	stcle	0, cr0, [r0], {8}
    8cdc:	015b1a02 	cmpeq	fp, r2, lsl #20
    8ce0:	ad050000 	stcge	0, cr0, [r5, #-0]
    8ce4:	00060902 	andeq	r0, r6, r2, lsl #18
    8ce8:	1a02e000 	bne	c0cf0 <__bss_end__+0xb7178>
    8cec:	00000140 	andeq	r0, r0, r0, asr #2
    8cf0:	6f02af05 	svcvs	0x0002af05
    8cf4:	ec000008 	stc	0, cr0, [r0], {8}
    8cf8:	04070002 	streq	r0, [r7], #-2
    8cfc:	00000414 	andeq	r0, r0, r4, lsl r4
    8d00:	00002516 	andeq	r2, r0, r6, lsl r5
    8d04:	00059300 	andeq	r9, r5, r0, lsl #6
    8d08:	04321700 	ldrteq	r1, [r2], #-1792	; 0xfffff900
    8d0c:	13170000 	tstne	r7, #0
    8d10:	17000001 	strne	r0, [r0, -r1]
    8d14:	00000593 	muleq	r0, r3, r5
    8d18:	00002517 	andeq	r2, r0, r7, lsl r5
    8d1c:	04070000 	streq	r0, [r7], #-0
    8d20:	00000122 	andeq	r0, r0, r2, lsr #2
    8d24:	05750407 	ldrbeq	r0, [r5, #-1031]!	; 0xfffffbf9
    8d28:	96160000 	ldrls	r0, [r6], -r0
    8d2c:	bd000000 	stclt	0, cr0, [r0, #-0]
    8d30:	17000005 	strne	r0, [r0, -r5]
    8d34:	00000432 	andeq	r0, r0, r2, lsr r4
    8d38:	00011317 	andeq	r1, r1, r7, lsl r3
    8d3c:	00961700 	addseq	r1, r6, r0, lsl #14
    8d40:	25170000 	ldrcs	r0, [r7, #-0]
    8d44:	00000000 	andeq	r0, r0, r0
    8d48:	059f0407 	ldreq	r0, [pc, #1031]	; 9157 <gpio_set_function+0x3>
    8d4c:	25160000 	ldrcs	r0, [r6, #-0]
    8d50:	d7000000 	strle	r0, [r0, -r0]
    8d54:	17000005 	strne	r0, [r0, -r5]
    8d58:	00000432 	andeq	r0, r0, r2, lsr r4
    8d5c:	00011317 	andeq	r1, r1, r7, lsl r3
    8d60:	04070000 	streq	r0, [r7], #-0
    8d64:	000005c3 	andeq	r0, r0, r3, asr #11
    8d68:	0000590c 	andeq	r5, r0, ip, lsl #18
    8d6c:	0005ed00 	andeq	lr, r5, r0, lsl #26
    8d70:	002c0d00 	eoreq	r0, ip, r0, lsl #26
    8d74:	00020000 	andeq	r0, r2, r0
    8d78:	0000590c 	andeq	r5, r0, ip, lsl #18
    8d7c:	0005fd00 	andeq	pc, r5, r0, lsl #26
    8d80:	002c0d00 	eoreq	r0, ip, r0, lsl #26
    8d84:	00000000 	andeq	r0, r0, r0
    8d88:	00038a09 	andeq	r8, r3, r9, lsl #20
    8d8c:	011f0500 	tsteq	pc, r0, lsl #10
    8d90:	000002ea 	andeq	r0, r0, sl, ror #5
    8d94:	0004cb1b 	andeq	ip, r4, fp, lsl fp
    8d98:	23050c00 	movwcs	r0, #23552	; 0x5c00
    8d9c:	00063e01 	andeq	r3, r6, r1, lsl #28
    8da0:	03b21900 			; <UNDEFINED> instruction: 0x03b21900
    8da4:	25050000 	strcs	r0, [r5, #-0]
    8da8:	00063e01 	andeq	r3, r6, r1, lsl #28
    8dac:	52190000 	andspl	r0, r9, #0
    8db0:	05000002 	streq	r0, [r0, #-2]
    8db4:	00250126 	eoreq	r0, r5, r6, lsr #2
    8db8:	19040000 	stmdbne	r4, {}	; <UNPREDICTABLE>
    8dbc:	00000384 	andeq	r0, r0, r4, lsl #7
    8dc0:	44012705 	strmi	r2, [r1], #-1797	; 0xfffff8fb
    8dc4:	08000006 	stmdaeq	r0, {r1, r2}
    8dc8:	09040700 	stmdbeq	r4, {r8, r9, sl}
    8dcc:	07000006 	streq	r0, [r0, -r6]
    8dd0:	0005fd04 	andeq	pc, r5, r4, lsl #26
    8dd4:	00881b00 	addeq	r1, r8, r0, lsl #22
    8dd8:	050e0000 	streq	r0, [lr, #-0]
    8ddc:	067f013f 			; <UNDEFINED> instruction: 0x067f013f
    8de0:	f8190000 			; <UNDEFINED> instruction: 0xf8190000
    8de4:	05000003 	streq	r0, [r0, #-3]
    8de8:	067f0140 	ldrbteq	r0, [pc], -r0, asr #2
    8dec:	19000000 	stmdbne	r0, {}	; <UNPREDICTABLE>
    8df0:	0000043f 	andeq	r0, r0, pc, lsr r4
    8df4:	7f014105 	svcvc	0x00014105
    8df8:	06000006 	streq	r0, [r0], -r6
    8dfc:	00046719 	andeq	r6, r4, r9, lsl r7
    8e00:	01420500 	cmpeq	r2, r0, lsl #10
    8e04:	00000060 	andeq	r0, r0, r0, rrx
    8e08:	600c000c 	andvs	r0, ip, ip
    8e0c:	8f000000 	svchi	0x00000000
    8e10:	0d000006 	stceq	0, cr0, [r0, #-24]	; 0xffffffe8
    8e14:	0000002c 	andeq	r0, r0, ip, lsr #32
    8e18:	d01c0002 	andsle	r0, ip, r2
    8e1c:	90028005 	andls	r8, r2, r5
    8e20:	19000007 	stmdbne	r0, {r0, r1, r2}
    8e24:	000004a6 	andeq	r0, r0, r6, lsr #9
    8e28:	2c028205 	sfmcs	f0, 1, [r2], {5}
    8e2c:	00000000 	andeq	r0, r0, r0
    8e30:	00045119 	andeq	r5, r4, r9, lsl r1
    8e34:	02830500 	addeq	r0, r3, #0, 10
    8e38:	00000115 	andeq	r0, r0, r5, lsl r1
    8e3c:	028b1904 	addeq	r1, fp, #4, 18	; 0x10000
    8e40:	84050000 	strhi	r0, [r5], #-0
    8e44:	00079002 	andeq	r9, r7, r2
    8e48:	36190800 	ldrcc	r0, [r9], -r0, lsl #16
    8e4c:	05000005 	streq	r0, [r0, #-5]
    8e50:	019b0285 	orrseq	r0, fp, r5, lsl #5
    8e54:	19240000 	stmdbne	r4!, {}	; <UNPREDICTABLE>
    8e58:	000001e6 	andeq	r0, r0, r6, ror #3
    8e5c:	25028605 	strcs	r8, [r2, #-1541]	; 0xfffff9fb
    8e60:	48000000 	stmdami	r0, {}	; <UNPREDICTABLE>
    8e64:	0003ad19 	andeq	sl, r3, r9, lsl sp
    8e68:	02870500 	addeq	r0, r7, #0, 10
    8e6c:	0000006e 	andeq	r0, r0, lr, rrx
    8e70:	054c1950 	strbeq	r1, [ip, #-2384]	; 0xfffff6b0
    8e74:	88050000 	stmdahi	r5, {}	; <UNPREDICTABLE>
    8e78:	00064a02 	andeq	r4, r6, r2, lsl #20
    8e7c:	b8195800 	ldmdalt	r9, {fp, ip, lr}
    8e80:	05000003 	streq	r0, [r0, #-3]
    8e84:	00fd0289 	rscseq	r0, sp, r9, lsl #5
    8e88:	19680000 	stmdbne	r8!, {}^	; <UNPREDICTABLE>
    8e8c:	00000551 	andeq	r0, r0, r1, asr r5
    8e90:	fd028a05 	stc2	10, cr8, [r2, #-20]	; 0xffffffec	; <UNPREDICTABLE>
    8e94:	70000000 	andvc	r0, r0, r0
    8e98:	0000fc19 	andeq	pc, r0, r9, lsl ip	; <UNPREDICTABLE>
    8e9c:	028b0500 	addeq	r0, fp, #0, 10
    8ea0:	000000fd 	strdeq	r0, [r0], -sp
    8ea4:	04fe1978 	ldrbteq	r1, [lr], #2424	; 0x978
    8ea8:	8c050000 	stchi	0, cr0, [r5], {-0}
    8eac:	0007a002 	andeq	sl, r7, r2
    8eb0:	7f198000 	svcvc	0x00198000
    8eb4:	05000002 	streq	r0, [r0, #-2]
    8eb8:	07b0028d 	ldreq	r0, [r0, sp, lsl #5]!
    8ebc:	19880000 	stmibne	r8, {}	; <UNPREDICTABLE>
    8ec0:	00000474 	andeq	r0, r0, r4, ror r4
    8ec4:	25028e05 	strcs	r8, [r2, #-3589]	; 0xfffff1fb
    8ec8:	a0000000 	andge	r0, r0, r0
    8ecc:	0001ac19 	andeq	sl, r1, r9, lsl ip
    8ed0:	028f0500 	addeq	r0, pc, #0, 10
    8ed4:	000000fd 	strdeq	r0, [r0], -sp
    8ed8:	00ed19a4 	rsceq	r1, sp, r4, lsr #19
    8edc:	90050000 	andls	r0, r5, r0
    8ee0:	0000fd02 	andeq	pc, r0, r2, lsl #26
    8ee4:	9b19ac00 	blls	673eec <__bss_end__+0x66a374>
    8ee8:	05000001 	streq	r0, [r0, #-1]
    8eec:	00fd0291 	smlalseq	r0, sp, r1, r2
    8ef0:	19b40000 	ldmibne	r4!, {}	; <UNPREDICTABLE>
    8ef4:	000000ad 	andeq	r0, r0, sp, lsr #1
    8ef8:	fd029205 	stc2	2, cr9, [r2, #-20]	; 0xffffffec
    8efc:	bc000000 	stclt	0, cr0, [r0], {-0}
    8f00:	0000bc19 	andeq	fp, r0, r9, lsl ip
    8f04:	02930500 	addseq	r0, r3, #0, 10
    8f08:	000000fd 	strdeq	r0, [r0], -sp
    8f0c:	036019c4 	cmneq	r0, #196, 18	; 0x310000
    8f10:	94050000 	strls	r0, [r5], #-0
    8f14:	00002502 	andeq	r2, r0, r2, lsl #10
    8f18:	0c00cc00 	stceq	12, cr12, [r0], {-0}
    8f1c:	0000011b 	andeq	r0, r0, fp, lsl r1
    8f20:	000007a0 	andeq	r0, r0, r0, lsr #15
    8f24:	00002c0d 	andeq	r2, r0, sp, lsl #24
    8f28:	0c001900 			; <UNDEFINED> instruction: 0x0c001900
    8f2c:	0000011b 	andeq	r0, r0, fp, lsl r1
    8f30:	000007b0 			; <UNDEFINED> instruction: 0x000007b0
    8f34:	00002c0d 	andeq	r2, r0, sp, lsl #24
    8f38:	0c000700 	stceq	7, cr0, [r0], {-0}
    8f3c:	0000011b 	andeq	r0, r0, fp, lsl r1
    8f40:	000007c0 	andeq	r0, r0, r0, asr #15
    8f44:	00002c0d 	andeq	r2, r0, sp, lsl #24
    8f48:	1c001700 	stcne	7, cr1, [r0], {-0}
    8f4c:	029905f0 	addseq	r0, r9, #240, 10	; 0x3c000000
    8f50:	000007e4 	andeq	r0, r0, r4, ror #15
    8f54:	00030c19 	andeq	r0, r3, r9, lsl ip
    8f58:	029c0500 	addseq	r0, ip, #0, 10
    8f5c:	000007e4 	andeq	r0, r0, r4, ror #15
    8f60:	02ef1900 	rsceq	r1, pc, #0, 18
    8f64:	9d050000 	stcls	0, cr0, [r5, #-0]
    8f68:	0007f402 	andeq	pc, r7, r2, lsl #8
    8f6c:	0c007800 	stceq	8, cr7, [r0], {-0}
    8f70:	000002e4 	andeq	r0, r0, r4, ror #5
    8f74:	000007f4 	strdeq	r0, [r0], -r4
    8f78:	00002c0d 	andeq	r2, r0, sp, lsl #24
    8f7c:	0c001d00 	stceq	13, cr1, [r0], {-0}
    8f80:	0000002c 	andeq	r0, r0, ip, lsr #32
    8f84:	00000804 	andeq	r0, r0, r4, lsl #16
    8f88:	00002c0d 	andeq	r2, r0, sp, lsl #24
    8f8c:	1d001d00 	stcne	13, cr1, [r0, #-0]
    8f90:	027e05f0 	rsbseq	r0, lr, #240, 10	; 0x3c000000
    8f94:	00000826 	andeq	r0, r0, r6, lsr #16
    8f98:	0003f11e 	andeq	pc, r3, lr, lsl r1	; <UNPREDICTABLE>
    8f9c:	02950500 	addseq	r0, r5, #0, 10
    8fa0:	0000068f 	andeq	r0, r0, pc, lsl #13
    8fa4:	0005231e 	andeq	r2, r5, lr, lsl r3
    8fa8:	029e0500 	addseq	r0, lr, #0, 10
    8fac:	000007c0 	andeq	r0, r0, r0, asr #15
    8fb0:	011b0c00 	tsteq	fp, r0, lsl #24
    8fb4:	08360000 	ldmdaeq	r6!, {}	; <UNPREDICTABLE>
    8fb8:	2c0d0000 	stccs	0, cr0, [sp], {-0}
    8fbc:	18000000 	stmdane	r0, {}	; <UNPREDICTABLE>
    8fc0:	0acc0800 	beq	ff30afc8 <__bss_end__+0xff301450>
    8fc4:	04070000 	streq	r0, [r7], #-0
    8fc8:	00000836 	andeq	r0, r0, r6, lsr r8
    8fcc:	00084c1f 	andeq	r4, r8, pc, lsl ip
    8fd0:	04321700 	ldrteq	r1, [r2], #-1792	; 0xfffff900
    8fd4:	07000000 	streq	r0, [r0, -r0]
    8fd8:	00084104 	andeq	r4, r8, r4, lsl #2
    8fdc:	85040700 	strhi	r0, [r4, #-1792]	; 0xfffff900
    8fe0:	1f000001 	svcne	0x00000001
    8fe4:	00000863 	andeq	r0, r0, r3, ror #16
    8fe8:	00002517 	andeq	r2, r0, r7, lsl r5
    8fec:	04070000 	streq	r0, [r7], #-0
    8ff0:	00000869 	andeq	r0, r0, r9, ror #16
    8ff4:	08580407 	ldmdaeq	r8, {r0, r1, r2, sl}^
    8ff8:	fd0c0000 	stc2	0, cr0, [ip, #-0]
    8ffc:	7f000005 	svcvc	0x00000005
    9000:	0d000008 	stceq	0, cr0, [r0, #-32]	; 0xffffffe0
    9004:	0000002c 	andeq	r0, r0, ip, lsr #32
    9008:	88200002 	stmdahi	r0!, {r1}
    900c:	05000004 	streq	r0, [r0, #-4]
    9010:	0432032e 	ldrteq	r0, [r2], #-814	; 0xfffffcd2
    9014:	81200000 			; <UNDEFINED> instruction: 0x81200000
    9018:	05000004 	streq	r0, [r0, #-4]
    901c:	0438032f 	ldrteq	r0, [r8], #-815	; 0xfffffcd1
    9020:	25160000 	ldrcs	r0, [r6, #-0]
    9024:	a6000000 	strge	r0, [r0], -r0
    9028:	17000008 	strne	r0, [r0, -r8]
    902c:	00000025 	andeq	r0, r0, r5, lsr #32
    9030:	01ff2100 	mvnseq	r2, r0, lsl #2
    9034:	1d060000 	stcne	0, cr0, [r6, #-0]
    9038:	000008b1 			; <UNDEFINED> instruction: 0x000008b1
    903c:	08970407 	ldmeq	r7, {r0, r1, r2, sl}
    9040:	25160000 	ldrcs	r0, [r6, #-0]
    9044:	c6000000 	strgt	r0, [r0], -r0
    9048:	17000008 	strne	r0, [r0, -r8]
    904c:	00000593 	muleq	r0, r3, r5
    9050:	08b22100 	ldmeq	r2!, {r8, sp}
    9054:	22060000 	andcs	r0, r6, #0
    9058:	000008d1 	ldrdeq	r0, [r0], -r1
    905c:	08b70407 	ldmeq	r7!, {r0, r1, r2, sl}
    9060:	07220000 	streq	r0, [r2, -r0]!
    9064:	00005901 	andeq	r5, r0, r1, lsl #18
    9068:	150c0700 	strne	r0, [ip, #-1792]	; 0xfffff900
    906c:	23000009 	movwcs	r0, #9
    9070:	0000058b 	andeq	r0, r0, fp, lsl #11
    9074:	071e2300 	ldreq	r2, [lr, -r0, lsl #6]
    9078:	23010000 	movwcs	r0, #4096	; 0x1000
    907c:	0000074c 	andeq	r0, r0, ip, asr #14
    9080:	05ae2304 	streq	r2, [lr, #772]!	; 0x304
    9084:	23050000 	movwcs	r0, #20480	; 0x5000
    9088:	000006ad 	andeq	r0, r0, sp, lsr #13
    908c:	075b2306 	ldrbeq	r2, [fp, -r6, lsl #6]
    9090:	23070000 	movwcs	r0, #28672	; 0x7000
    9094:	0000076a 	andeq	r0, r0, sl, ror #14
    9098:	07792303 	ldrbeq	r2, [r9, -r3, lsl #6]!
    909c:	00020000 	andeq	r0, r2, r0
    90a0:	000cad06 	andeq	sl, ip, r6, lsl #26
    90a4:	d7150700 	ldrle	r0, [r5, -r0, lsl #14]
    90a8:	24000008 	strcs	r0, [r0], #-8
    90ac:	00000c4e 	andeq	r0, r0, lr, asr #24
    90b0:	092f1b01 	stmdbeq	pc!, {r0, r8, r9, fp, ip}	; <UNPREDICTABLE>
    90b4:	00000000 	andeq	r0, r0, r0
    90b8:	04072020 	streq	r2, [r7], #-32	; 0xffffffe0
    90bc:	00000033 	andeq	r0, r0, r3, lsr r0
    90c0:	000c7e24 	andeq	r7, ip, r4, lsr #28
    90c4:	381d0100 	ldmdacc	sp, {r8}
    90c8:	1c000000 	stcne	0, cr0, [r0], {-0}
    90cc:	24202000 	strtcs	r2, [r0], #-0
    90d0:	00000cb9 			; <UNDEFINED> instruction: 0x00000cb9
    90d4:	00381e01 	eorseq	r1, r8, r1, lsl #28
    90d8:	00280000 	eoreq	r0, r8, r0
    90dc:	88242020 	stmdahi	r4!, {r5, sp}
    90e0:	0100000c 	tsteq	r0, ip
    90e4:	0000381f 	andeq	r3, r0, pc, lsl r8
    90e8:	20003400 	andcs	r3, r0, r0, lsl #8
    90ec:	0c592520 	cfldr64eq	mvdx2, [r9], {32}
    90f0:	56010000 	strpl	r0, [r1], -r0
    90f4:	00000025 	andeq	r0, r0, r5, lsr #32
    90f8:	00009240 	andeq	r9, r0, r0, asr #4
    90fc:	00000034 	andeq	r0, r0, r4, lsr r0
    9100:	09c29c01 	stmibeq	r2, {r0, sl, fp, ip, pc}^
    9104:	70260000 	eorvc	r0, r6, r0
    9108:	01006e69 	tsteq	r0, r9, ror #28
    910c:	00002c56 	andeq	r2, r0, r6, asr ip
    9110:	000bcf00 	andeq	ip, fp, r0, lsl #30
    9114:	0c422700 	mcrreq	7, 0, r2, r2, cr0
    9118:	59010000 	stmdbpl	r1, {}	; <UNPREDICTABLE>
    911c:	0000002c 	andeq	r0, r0, ip, lsr #32
    9120:	00000c09 	andeq	r0, r0, r9, lsl #24
    9124:	66666f28 	strbtvs	r6, [r6], -r8, lsr #30
    9128:	2c5a0100 	ldfcse	f0, [sl], {-0}
    912c:	47000000 	strmi	r0, [r0, -r0]
    9130:	2900000c 	stmdbcs	r0, {r2, r3}
    9134:	0000925c 	andeq	r9, r0, ip, asr r2
    9138:	00000b87 	andeq	r0, r0, r7, lsl #23
    913c:	0b50012a 	bleq	14095ec <__bss_end__+0x13ffa74>
    9140:	355001f3 	ldrbcc	r0, [r0, #-499]	; 0xfffffe0d
    9144:	80b42325 	adcshi	r2, r4, r5, lsr #6
    9148:	00028180 	andeq	r8, r2, r0, lsl #3
    914c:	0c732b00 			; <UNDEFINED> instruction: 0x0c732b00
    9150:	4f010000 	svcmi	0x00010000
    9154:	00009224 	andeq	r9, r0, r4, lsr #4
    9158:	0000001c 	andeq	r0, r0, ip, lsl r0
    915c:	0a129c01 	beq	4b0168 <__bss_end__+0x4a65f0>
    9160:	70260000 	eorvc	r0, r6, r0
    9164:	01006e69 	tsteq	r0, r9, ror #28
    9168:	00002c4f 	andeq	r2, r0, pc, asr #24
    916c:	000c5a00 	andeq	r5, ip, r0, lsl #20
    9170:	00762600 	rsbseq	r2, r6, r0, lsl #12
    9174:	002c4f01 	eoreq	r4, ip, r1, lsl #30
    9178:	0c940000 	ldceq	0, cr0, [r4], {0}
    917c:	342c0000 	strtcc	r0, [ip], #-0
    9180:	4d000092 	stcmi	0, cr0, [r0, #-584]	; 0xfffffdb8
    9184:	0800000a 	stmdaeq	r0, {r1, r3}
    9188:	2a00000a 	bcs	91b8 <gpio_set_function+0x64>
    918c:	f3035001 	vhadd.u8	d5, d3, d1
    9190:	2d005001 	stccs	0, cr5, [r0, #-4]
    9194:	0000923c 	andeq	r9, r0, ip, lsr r2
    9198:	00000a8e 	andeq	r0, r0, lr, lsl #21
    919c:	0c922b00 	vldmiaeq	r2, {d2-d1}
    91a0:	4a010000 	bmi	491a8 <__bss_end__+0x3f630>
    91a4:	00009214 	andeq	r9, r0, r4, lsl r2
    91a8:	00000010 	andeq	r0, r0, r0, lsl r0
    91ac:	0a4d9c01 	beq	13701b8 <__bss_end__+0x1366640>
    91b0:	70260000 	eorvc	r0, r6, r0
    91b4:	01006e69 	tsteq	r0, r9, ror #28
    91b8:	00002c4a 	andeq	r2, r0, sl, asr #24
    91bc:	000cce00 	andeq	ip, ip, r0, lsl #28
    91c0:	92202900 	eorls	r2, r0, #0, 18
    91c4:	0b0a0000 	bleq	2891cc <__bss_end__+0x27f654>
    91c8:	012a0000 			; <UNDEFINED> instruction: 0x012a0000
    91cc:	01f30350 	mvnseq	r0, r0, asr r3
    91d0:	51012a50 	tstpl	r1, r0, asr sl
    91d4:	00003001 	andeq	r3, r0, r1
    91d8:	000c352b 	andeq	r3, ip, fp, lsr #10
    91dc:	f0430100 			; <UNDEFINED> instruction: 0xf0430100
    91e0:	24000091 	strcs	r0, [r0], #-145	; 0xffffff6f
    91e4:	01000000 	mrseq	r0, (UNDEF: 0)
    91e8:	000a8e9c 	muleq	sl, ip, lr
    91ec:	69702600 	ldmdbvs	r0!, {r9, sl, sp}^
    91f0:	4301006e 	movwmi	r0, #4206	; 0x106e
    91f4:	0000002c 	andeq	r0, r0, ip, lsr #32
    91f8:	00000cef 	andeq	r0, r0, pc, ror #25
    91fc:	00920c29 	addseq	r0, r2, r9, lsr #24
    9200:	000b9200 	andeq	r9, fp, r0, lsl #4
    9204:	50012a00 	andpl	r2, r1, r0, lsl #20
    9208:	00280c05 	eoreq	r0, r8, r5, lsl #24
    920c:	012a2020 			; <UNDEFINED> instruction: 0x012a2020
    9210:	f3310551 	vqrshl.u64	q0, <illegal reg q0.5>, <illegal reg q0.5>
    9214:	00245001 	eoreq	r5, r4, r1
    9218:	0ca12b00 	vstmiaeq	r1!, {d2-d1}
    921c:	3c010000 	stccc	0, cr0, [r1], {-0}
    9220:	000091cc 	andeq	r9, r0, ip, asr #3
    9224:	00000024 	andeq	r0, r0, r4, lsr #32
    9228:	0acf9c01 	beq	ff3f0234 <__bss_end__+0xff3e66bc>
    922c:	70260000 	eorvc	r0, r6, r0
    9230:	01006e69 	tsteq	r0, r9, ror #28
    9234:	00002c3c 	andeq	r2, r0, ip, lsr ip
    9238:	000d1000 	andeq	r1, sp, r0
    923c:	91e82900 	mvnls	r2, r0, lsl #18
    9240:	0b920000 	bleq	fe489248 <__bss_end__+0xfe47f6d0>
    9244:	012a0000 			; <UNDEFINED> instruction: 0x012a0000
    9248:	1c0c0550 	cfstr32ne	mvfx0, [ip], {80}	; 0x50
    924c:	2a202000 	bcs	811254 <__bss_end__+0x8076dc>
    9250:	31055101 	tstcc	r5, r1, lsl #2
    9254:	245001f3 	ldrbcs	r0, [r0], #-499	; 0xfffffe0d
    9258:	632b0000 			; <UNDEFINED> instruction: 0x632b0000
    925c:	0100000c 	tsteq	r0, ip
    9260:	0091bc37 	addseq	fp, r1, r7, lsr ip
    9264:	00001000 	andeq	r1, r0, r0
    9268:	0a9c0100 	beq	fe709670 <__bss_end__+0xfe6ffaf8>
    926c:	2600000b 	strcs	r0, [r0], -fp
    9270:	006e6970 	rsbeq	r6, lr, r0, ror r9
    9274:	002c3701 	eoreq	r3, ip, r1, lsl #14
    9278:	0d310000 	ldceq	0, cr0, [r1, #-0]
    927c:	c8290000 	stmdagt	r9!, {}	; <UNPREDICTABLE>
    9280:	0a000091 	beq	94cc <__FUNCTION__.4407+0x8c>
    9284:	2a00000b 	bcs	92b8 <cb_get_block+0x1c>
    9288:	f3035001 	vhadd.u8	d5, d3, d1
    928c:	012a5001 			; <UNDEFINED> instruction: 0x012a5001
    9290:	00310151 	eorseq	r0, r1, r1, asr r1
    9294:	05dd2b00 	ldrbeq	r2, [sp, #2816]	; 0xb00
    9298:	28010000 	stmdacs	r1, {}	; <UNPREDICTABLE>
    929c:	00009154 	andeq	r9, r0, r4, asr r1
    92a0:	00000068 	andeq	r0, r0, r8, rrx
    92a4:	0b879c01 	bleq	fe1f02b0 <__bss_end__+0xfe1e6738>
    92a8:	70260000 	eorvc	r0, r6, r0
    92ac:	01006e69 	tsteq	r0, r9, ror #28
    92b0:	00002c28 	andeq	r2, r0, r8, lsr #24
    92b4:	000d5200 	andeq	r5, sp, r0, lsl #4
    92b8:	050d2e00 	streq	r2, [sp, #-3584]	; 0xfffff200
    92bc:	28010000 	stmdacs	r1, {}	; <UNPREDICTABLE>
    92c0:	00000915 	andeq	r0, r0, r5, lsl r9
    92c4:	00000d73 	andeq	r0, r0, r3, ror sp
    92c8:	66666f2f 	strbtvs	r6, [r6], -pc, lsr #30
    92cc:	2c2d0100 	stfcss	f0, [sp], #-0
    92d0:	01000000 	mrseq	r0, (UNDEF: 0)
    92d4:	00672f55 	rsbeq	r2, r7, r5, asr pc
    92d8:	002c2f01 	eoreq	r2, ip, r1, lsl #30
    92dc:	56010000 	strpl	r0, [r1], -r0
    92e0:	01007628 	tsteq	r0, r8, lsr #12
    92e4:	00002c31 	andeq	r2, r0, r1, lsr ip
    92e8:	000d9400 	andeq	r9, sp, r0, lsl #8
    92ec:	91a02c00 	lslls	r2, r0, #24
    92f0:	0b870000 	bleq	fe1c92f8 <__bss_end__+0xfe1bf780>
    92f4:	0b760000 	bleq	1d892fc <__bss_end__+0x1d7f784>
    92f8:	012a0000 			; <UNDEFINED> instruction: 0x012a0000
    92fc:	00760250 	rsbseq	r0, r6, r0, asr r2
    9300:	91b42900 			; <UNDEFINED> instruction: 0x91b42900
    9304:	0b920000 	bleq	fe48930c <__bss_end__+0xfe47f794>
    9308:	012a0000 			; <UNDEFINED> instruction: 0x012a0000
    930c:	00760250 	rsbseq	r0, r6, r0, asr r2
    9310:	b3300000 	teqlt	r0, #0
    9314:	b300000a 	movwlt	r0, #10
    9318:	0600000a 	streq	r0, [r0], -sl
    931c:	09f130a7 	ldmibeq	r1!, {r0, r1, r2, r5, r7, ip, sp}^
    9320:	09f10000 	ldmibeq	r1!, {}^	; <UNPREDICTABLE>
    9324:	9b060000 	blls	18932c <__bss_end__+0x17f7b4>
    9328:	0009ef00 	andeq	lr, r9, r0, lsl #30
    932c:	77000400 	strvc	r0, [r0, -r0, lsl #8]
    9330:	0400001c 	streq	r0, [r0], #-28	; 0xffffffe4
    9334:	0007be01 	andeq	fp, r7, r1, lsl #28
    9338:	0cca0c00 	stcleq	12, cr0, [sl], {0}
    933c:	08250000 	stmdaeq	r5!, {}	; <UNPREDICTABLE>
    9340:	92740000 	rsbsls	r0, r4, #0
    9344:	00500000 	subseq	r0, r0, r0
    9348:	0e530000 	cdpeq	0, 5, cr0, cr3, cr0, {0}
    934c:	04020000 	streq	r0, [r2], #-0
    9350:	746e6905 	strbtvc	r6, [lr], #-2309	; 0xfffff6fb
    9354:	07040300 	streq	r0, [r4, -r0, lsl #6]
    9358:	000000d7 	ldrdeq	r0, [r0], -r7
    935c:	54060103 	strpl	r0, [r6], #-259	; 0xfffffefd
    9360:	03000003 	movweq	r0, #3
    9364:	03690502 	cmneq	r9, #8388608	; 0x800000
    9368:	04030000 	streq	r0, [r3], #-0
    936c:	00011805 	andeq	r1, r1, r5, lsl #16
    9370:	05080300 	streq	r0, [r8, #-768]	; 0xfffffd00
    9374:	00000113 	andeq	r0, r0, r3, lsl r1
    9378:	00043704 	andeq	r3, r4, r4, lsl #14
    937c:	5a2e0200 	bpl	b89b84 <__bss_end__+0xb8000c>
    9380:	03000000 	movweq	r0, #0
    9384:	03520801 	cmpeq	r2, #65536	; 0x10000
    9388:	02030000 	andeq	r0, r3, #0
    938c:	00026307 	andeq	r6, r2, r7, lsl #6
    9390:	07040400 	streq	r0, [r4, -r0, lsl #8]
    9394:	34020000 	strcc	r0, [r2], #-0
    9398:	00000073 	andeq	r0, r0, r3, ror r0
    939c:	d2070403 	andle	r0, r7, #50331648	; 0x3000000
    93a0:	03000000 	movweq	r0, #0
    93a4:	00cd0708 	sbceq	r0, sp, r8, lsl #14
    93a8:	40040000 	andmi	r0, r4, r0
    93ac:	03000003 	movweq	r0, #3
    93b0:	00002507 	andeq	r2, r0, r7, lsl #10
    93b4:	032f0400 			; <UNDEFINED> instruction: 0x032f0400
    93b8:	2c040000 	stccs	0, cr0, [r4], {-0}
    93bc:	00000041 	andeq	r0, r0, r1, asr #32
    93c0:	00041d04 	andeq	r1, r4, r4, lsl #26
    93c4:	41720400 	cmnmi	r2, r0, lsl #8
    93c8:	05000000 	streq	r0, [r0, #-0]
    93cc:	000002b0 			; <UNDEFINED> instruction: 0x000002b0
    93d0:	2c016505 	cfstr32cs	mvfx6, [r1], {5}
    93d4:	06000000 	streq	r0, [r0], -r0
    93d8:	cda60404 	cfstrsgt	mvf0, [r6, #16]!
    93dc:	07000000 	streq	r0, [r0, -r0]
    93e0:	000002aa 	andeq	r0, r0, sl, lsr #5
    93e4:	00a2a804 	adceq	sl, r2, r4, lsl #16
    93e8:	19070000 	stmdbne	r7, {}	; <UNPREDICTABLE>
    93ec:	04000002 	streq	r0, [r0], #-2
    93f0:	0000cda9 	andeq	ip, r0, r9, lsr #27
    93f4:	5a080000 	bpl	2093fc <__bss_end__+0x1ff884>
    93f8:	dd000000 	stcle	0, cr0, [r0, #-0]
    93fc:	09000000 	stmdbeq	r0, {}	; <UNPREDICTABLE>
    9400:	000000dd 	ldrdeq	r0, [r0], -sp
    9404:	04030003 	streq	r0, [r3], #-3
    9408:	0002f807 	andeq	pc, r2, r7, lsl #16
    940c:	04080a00 	streq	r0, [r8], #-2560	; 0xfffff600
    9410:	000105a3 	andeq	r0, r1, r3, lsr #11
    9414:	04070b00 	streq	r0, [r7], #-2816	; 0xfffff500
    9418:	a5040000 	strge	r0, [r4, #-0]
    941c:	00000025 	andeq	r0, r0, r5, lsr #32
    9420:	040f0b00 	streq	r0, [pc], #-2816	; 9428 <__FUNCTION__.4352>
    9424:	aa040000 	bge	10942c <__bss_end__+0xff8b4>
    9428:	000000ae 	andeq	r0, r0, lr, lsr #1
    942c:	91040004 	tstls	r4, r4
    9430:	04000003 	streq	r0, [r0], #-3
    9434:	0000e4ab 	andeq	lr, r0, fp, lsr #9
    9438:	01cd0400 	biceq	r0, sp, r0, lsl #8
    943c:	af040000 	svcge	0x00040000
    9440:	00000081 	andeq	r0, r0, r1, lsl #1
    9444:	040d040c 	streq	r0, [sp], #-1036	; 0xfffffbf4
    9448:	00000123 	andeq	r0, r0, r3, lsr #2
    944c:	5b080103 	blpl	209860 <__bss_end__+0x1ffce8>
    9450:	0e000003 	cdpeq	0, 0, cr0, cr0, cr3, {0}
    9454:	00000123 	andeq	r0, r0, r3, lsr #2
    9458:	00046c04 	andeq	r6, r4, r4, lsl #24
    945c:	73160600 	tstvc	r6, #0, 12
    9460:	0f000000 	svceq	0x00000000
    9464:	000001de 	ldrdeq	r0, [r0], -lr
    9468:	8d2d0618 	stchi	6, cr0, [sp, #-96]!	; 0xffffffa0
    946c:	0b000001 	bleq	9478 <__FUNCTION__.4407+0x38>
    9470:	000003b2 			; <UNDEFINED> instruction: 0x000003b2
    9474:	018d2f06 	orreq	r2, sp, r6, lsl #30
    9478:	10000000 	andne	r0, r0, r0
    947c:	06006b5f 			; <UNDEFINED> instruction: 0x06006b5f
    9480:	00002530 	andeq	r2, r0, r0, lsr r5
    9484:	e90b0400 	stmdb	fp, {sl}
    9488:	06000003 	streq	r0, [r0], -r3
    948c:	00002530 	andeq	r2, r0, r0, lsr r5
    9490:	c70b0800 	strgt	r0, [fp, -r0, lsl #16]
    9494:	06000001 	streq	r0, [r0], -r1
    9498:	00002530 	andeq	r2, r0, r0, lsr r5
    949c:	bc0b0c00 	stclt	12, cr0, [fp], {-0}
    94a0:	06000004 	streq	r0, [r0], -r4
    94a4:	00002530 	andeq	r2, r0, r0, lsr r5
    94a8:	5f101000 	svcpl	0x00101000
    94ac:	31060078 	tstcc	r6, r8, ror r0
    94b0:	00000193 	muleq	r0, r3, r1
    94b4:	040d0014 	streq	r0, [sp], #-20	; 0xffffffec
    94b8:	0000013a 	andeq	r0, r0, sl, lsr r1
    94bc:	00012f08 	andeq	r2, r1, r8, lsl #30
    94c0:	0001a300 	andeq	sl, r1, r0, lsl #6
    94c4:	00dd0900 	sbcseq	r0, sp, r0, lsl #18
    94c8:	00000000 	andeq	r0, r0, r0
    94cc:	00020b0f 	andeq	r0, r2, pc, lsl #22
    94d0:	35062400 	strcc	r2, [r6, #-1024]	; 0xfffffc00
    94d4:	0000021c 	andeq	r0, r0, ip, lsl r2
    94d8:	00010a0b 	andeq	r0, r1, fp, lsl #20
    94dc:	25370600 	ldrcs	r0, [r7, #-1536]!	; 0xfffffa00
    94e0:	00000000 	andeq	r0, r0, r0
    94e4:	0004250b 	andeq	r2, r4, fp, lsl #10
    94e8:	25380600 	ldrcs	r0, [r8, #-1536]!	; 0xfffffa00
    94ec:	04000000 	streq	r0, [r0], #-0
    94f0:	0001360b 	andeq	r3, r1, fp, lsl #12
    94f4:	25390600 	ldrcs	r0, [r9, #-1536]!	; 0xfffffa00
    94f8:	08000000 	stmdaeq	r0, {}	; <UNPREDICTABLE>
    94fc:	0005640b 	andeq	r6, r5, fp, lsl #8
    9500:	253a0600 	ldrcs	r0, [sl, #-1536]!	; 0xfffffa00
    9504:	0c000000 	stceq	0, cr0, [r0], {-0}
    9508:	0003130b 	andeq	r1, r3, fp, lsl #6
    950c:	253b0600 	ldrcs	r0, [fp, #-1536]!	; 0xfffffa00
    9510:	10000000 	andne	r0, r0, r0
    9514:	0002d80b 	andeq	sp, r2, fp, lsl #16
    9518:	253c0600 	ldrcs	r0, [ip, #-1536]!	; 0xfffffa00
    951c:	14000000 	strne	r0, [r0], #-0
    9520:	0004c10b 	andeq	ip, r4, fp, lsl #2
    9524:	253d0600 	ldrcs	r0, [sp, #-1536]!	; 0xfffffa00
    9528:	18000000 	stmdane	r0, {}	; <UNPREDICTABLE>
    952c:	0003730b 	andeq	r7, r3, fp, lsl #6
    9530:	253e0600 	ldrcs	r0, [lr, #-1536]!	; 0xfffffa00
    9534:	1c000000 	stcne	0, cr0, [r0], {-0}
    9538:	00052b0b 	andeq	r2, r5, fp, lsl #22
    953c:	253f0600 	ldrcs	r0, [pc, #-1536]!	; 8f44 <delay_us>
    9540:	20000000 	andcs	r0, r0, r0
    9544:	01451100 	mrseq	r1, (UNDEF: 85)
    9548:	01080000 	mrseq	r0, (UNDEF: 8)
    954c:	025c4806 	subseq	r4, ip, #393216	; 0x60000
    9550:	ba0b0000 	blt	2c9558 <__bss_end__+0x2bf9e0>
    9554:	06000001 	streq	r0, [r0], -r1
    9558:	00025c49 	andeq	r5, r2, r9, asr #24
    955c:	000b0000 	andeq	r0, fp, r0
    9560:	06000000 	streq	r0, [r0], -r0
    9564:	00025c4a 	andeq	r5, r2, sl, asr #24
    9568:	5e128000 	cdppl	0, 1, cr8, cr2, cr0, {0}
    956c:	06000004 	streq	r0, [r0], -r4
    9570:	00012f4c 	andeq	r2, r1, ip, asr #30
    9574:	12010000 	andne	r0, r1, #0
    9578:	0000016a 	andeq	r0, r0, sl, ror #2
    957c:	012f4f06 			; <UNDEFINED> instruction: 0x012f4f06
    9580:	01040000 	mrseq	r0, (UNDEF: 4)
    9584:	011b0800 	tsteq	fp, r0, lsl #16
    9588:	026c0000 	rsbeq	r0, ip, #0
    958c:	dd090000 	stcle	0, cr0, [r9, #-0]
    9590:	1f000000 	svcne	0x00000000
    9594:	031c1100 	tsteq	ip, #0, 2
    9598:	01900000 	orrseq	r0, r0, r0
    959c:	02aa5b06 	adceq	r5, sl, #6144	; 0x1800
    95a0:	b20b0000 	andlt	r0, fp, #0
    95a4:	06000003 	streq	r0, [r0], -r3
    95a8:	0002aa5c 	andeq	sl, r2, ip, asr sl
    95ac:	ca0b0000 	bgt	2c95b4 <__bss_end__+0x2bfa3c>
    95b0:	06000003 	streq	r0, [r0], -r3
    95b4:	0000255d 	andeq	r2, r0, sp, asr r5
    95b8:	c20b0400 	andgt	r0, fp, #0, 8
    95bc:	06000001 	streq	r0, [r0], -r1
    95c0:	0002b05f 	andeq	fp, r2, pc, asr r0
    95c4:	450b0800 	strmi	r0, [fp, #-2048]	; 0xfffff800
    95c8:	06000001 	streq	r0, [r0], -r1
    95cc:	00021c60 	andeq	r1, r2, r0, ror #24
    95d0:	0d008800 	stceq	8, cr8, [r0, #-0]
    95d4:	00026c04 	andeq	r6, r2, r4, lsl #24
    95d8:	02c00800 	sbceq	r0, r0, #0, 16
    95dc:	02c00000 	sbceq	r0, r0, #0
    95e0:	dd090000 	stcle	0, cr0, [r9, #-0]
    95e4:	1f000000 	svcne	0x00000000
    95e8:	c6040d00 	strgt	r0, [r4], -r0, lsl #26
    95ec:	13000002 	movwne	r0, #2
    95f0:	00037d0f 	andeq	r7, r3, pc, lsl #26
    95f4:	73060800 	movwvc	r0, #26624	; 0x6800
    95f8:	000002ec 	andeq	r0, r0, ip, ror #5
    95fc:	0001300b 	andeq	r3, r1, fp
    9600:	ec740600 	ldcl	6, cr0, [r4], #-0
    9604:	00000002 	andeq	r0, r0, r2
    9608:	0000820b 	andeq	r8, r0, fp, lsl #4
    960c:	25750600 	ldrbcs	r0, [r5, #-1536]!	; 0xfffffa00
    9610:	04000000 	streq	r0, [r0], #-0
    9614:	5a040d00 	bpl	10ca1c <__bss_end__+0x102ea4>
    9618:	0f000000 	svceq	0x00000000
    961c:	0000039c 	muleq	r0, ip, r3
    9620:	1cb30668 	ldcne	6, cr0, [r3], #416	; 0x1a0
    9624:	10000004 	andne	r0, r0, r4
    9628:	0600705f 			; <UNDEFINED> instruction: 0x0600705f
    962c:	0002ecb4 			; <UNDEFINED> instruction: 0x0002ecb4
    9630:	5f100000 	svcpl	0x00100000
    9634:	b5060072 	strlt	r0, [r6, #-114]	; 0xffffff8e
    9638:	00000025 	andeq	r0, r0, r5, lsr #32
    963c:	775f1004 	ldrbvc	r1, [pc, -r4]
    9640:	25b60600 	ldrcs	r0, [r6, #1536]!	; 0x600
    9644:	08000000 	stmdaeq	r0, {}	; <UNPREDICTABLE>
    9648:	0001630b 	andeq	r6, r1, fp, lsl #6
    964c:	3ab70600 	bcc	fedcae54 <__bss_end__+0xfedc12dc>
    9650:	0c000000 	stceq	0, cr0, [r0], {-0}
    9654:	00023f0b 	andeq	r3, r2, fp, lsl #30
    9658:	3ab80600 	bcc	fee0ae60 <__bss_end__+0xfee012e8>
    965c:	0e000000 	cdpeq	0, 0, cr0, cr0, cr0, {0}
    9660:	66625f10 	uqadd16vs	r5, r2, r0
    9664:	c7b90600 	ldrgt	r0, [r9, r0, lsl #12]!
    9668:	10000002 	andne	r0, r0, r2
    966c:	0000e40b 	andeq	lr, r0, fp, lsl #8
    9670:	25ba0600 	ldrcs	r0, [sl, #1536]!	; 0x600
    9674:	18000000 	stmdane	r0, {}	; <UNPREDICTABLE>
    9678:	0001530b 	andeq	r5, r1, fp, lsl #6
    967c:	1bc10600 	blne	ff04ae84 <__bss_end__+0xff04130c>
    9680:	1c000001 	stcne	0, cr0, [r0], {1}
    9684:	0004b60b 	andeq	fp, r4, fp, lsl #12
    9688:	77c30600 	strbvc	r0, [r3, r0, lsl #12]
    968c:	20000005 	andcs	r0, r0, r5
    9690:	00029b0b 	andeq	r9, r2, fp, lsl #22
    9694:	a1c50600 	bicge	r0, r5, r0, lsl #12
    9698:	24000005 	strcs	r0, [r0], #-5
    969c:	0004170b 	andeq	r1, r4, fp, lsl #14
    96a0:	c5c80600 	strbgt	r0, [r8, #1536]	; 0x600
    96a4:	28000005 	stmdacs	r0, {r0, r2}
    96a8:	0005450b 	andeq	r4, r5, fp, lsl #10
    96ac:	dfc90600 	svcle	0x00c90600
    96b0:	2c000005 	stccs	0, cr0, [r0], {5}
    96b4:	62755f10 	rsbsvs	r5, r5, #16, 30	; 0x40
    96b8:	c7cc0600 	strbgt	r0, [ip, r0, lsl #12]
    96bc:	30000002 	andcc	r0, r0, r2
    96c0:	70755f10 	rsbsvc	r5, r5, r0, lsl pc
    96c4:	eccd0600 	stcl	6, cr0, [sp], {0}
    96c8:	38000002 	stmdacc	r0, {r1}
    96cc:	72755f10 	rsbsvc	r5, r5, #16, 30	; 0x40
    96d0:	25ce0600 	strbcs	r0, [lr, #1536]	; 0x600
    96d4:	3c000000 	stccc	0, cr0, [r0], {-0}
    96d8:	00012a0b 	andeq	r2, r1, fp, lsl #20
    96dc:	e5d10600 	ldrb	r0, [r1, #1536]	; 0x600
    96e0:	40000005 	andmi	r0, r0, r5
    96e4:	00051d0b 	andeq	r1, r5, fp, lsl #26
    96e8:	f5d20600 			; <UNDEFINED> instruction: 0xf5d20600
    96ec:	43000005 	movwmi	r0, #5
    96f0:	626c5f10 	rsbvs	r5, ip, #16, 30	; 0x40
    96f4:	c7d50600 	ldrbgt	r0, [r5, r0, lsl #12]
    96f8:	44000002 	strmi	r0, [r0], #-2
    96fc:	0001790b 	andeq	r7, r1, fp, lsl #18
    9700:	25d80600 	ldrbcs	r0, [r8, #1536]	; 0x600
    9704:	4c000000 	stcmi	0, cr0, [r0], {-0}
    9708:	0001930b 	andeq	r9, r1, fp, lsl #6
    970c:	8cd90600 	ldclhi	6, cr0, [r9], {0}
    9710:	50000000 	andpl	r0, r0, r0
    9714:	000c2f0b 	andeq	r2, ip, fp, lsl #30
    9718:	3adc0600 	bcc	ff70af20 <__bss_end__+0xff7013a8>
    971c:	54000004 	strpl	r0, [r0], #-4
    9720:	000c030b 	andeq	r0, ip, fp, lsl #6
    9724:	10e00600 	rscne	r0, r0, r0, lsl #12
    9728:	58000001 	stmdapl	r0, {r0}
    972c:	0003a40b 	andeq	sl, r3, fp, lsl #8
    9730:	05e20600 	strbeq	r0, [r2, #1536]!	; 0x600
    9734:	5c000001 	stcpl	0, cr0, [r0], {1}
    9738:	0002c10b 	andeq	ip, r2, fp, lsl #2
    973c:	25e30600 	strbcs	r0, [r3, #1536]!	; 0x600
    9740:	64000000 	strvs	r0, [r0], #-0
    9744:	00251400 	eoreq	r1, r5, r0, lsl #8
    9748:	043a0000 	ldrteq	r0, [sl], #-0
    974c:	3a150000 	bcc	549754 <__bss_end__+0x53fbdc>
    9750:	15000004 	strne	r0, [r0, #-4]
    9754:	0000011b 	andeq	r0, r0, fp, lsl r1
    9758:	00011d15 	andeq	r1, r1, r5, lsl sp
    975c:	00251500 	eoreq	r1, r5, r0, lsl #10
    9760:	0d000000 	stceq	0, cr0, [r0, #-0]
    9764:	00044504 	andeq	r4, r4, r4, lsl #10
    9768:	043a0e00 	ldrteq	r0, [sl], #-3584	; 0xfffff200
    976c:	f1160000 			; <UNDEFINED> instruction: 0xf1160000
    9770:	28000003 	stmdacs	r0, {r0, r1}
    9774:	02380604 	eorseq	r0, r8, #4, 12	; 0x400000
    9778:	00000577 	andeq	r0, r0, r7, ror r5
    977c:	00036217 	andeq	r6, r3, r7, lsl r2
    9780:	023a0600 	eorseq	r0, sl, #0, 12
    9784:	00000025 	andeq	r0, r0, r5, lsr #32
    9788:	01721700 	cmneq	r2, r0, lsl #14
    978c:	3f060000 	svccc	0x00060000
    9790:	00064c02 	andeq	r4, r6, r2, lsl #24
    9794:	2f170400 	svccs	0x00170400
    9798:	06000002 	streq	r0, [r0], -r2
    979c:	064c023f 			; <UNDEFINED> instruction: 0x064c023f
    97a0:	17080000 	strne	r0, [r8, -r0]
    97a4:	000001d6 	ldrdeq	r0, [r0], -r6
    97a8:	4c023f06 	stcmi	15, cr3, [r2], {6}
    97ac:	0c000006 	stceq	0, cr0, [r0], {6}
    97b0:	0003c517 	andeq	ip, r3, r7, lsl r5
    97b4:	02410600 	subeq	r0, r1, #0, 12
    97b8:	00000025 	andeq	r0, r0, r5, lsr #32
    97bc:	00901710 	addseq	r1, r0, r0, lsl r7
    97c0:	42060000 	andmi	r0, r6, #0
    97c4:	00082e02 	andeq	r2, r8, r2, lsl #28
    97c8:	94171400 	ldrls	r1, [r7], #-1024	; 0xfffffc00
    97cc:	06000004 	streq	r0, [r0], -r4
    97d0:	00250244 	eoreq	r0, r5, r4, asr #4
    97d4:	17300000 	ldrne	r0, [r0, -r0]!
    97d8:	000003cf 	andeq	r0, r0, pc, asr #7
    97dc:	9b024506 	blls	9abfc <__bss_end__+0x91084>
    97e0:	34000005 	strcc	r0, [r0], #-5
    97e4:	00032417 	andeq	r2, r3, r7, lsl r4
    97e8:	02470600 	subeq	r0, r7, #0, 12
    97ec:	00000025 	andeq	r0, r0, r5, lsr #32
    97f0:	03df1738 	bicseq	r1, pc, #56, 14	; 0xe00000
    97f4:	49060000 	stmdbmi	r6, {}	; <UNPREDICTABLE>
    97f8:	00084902 	andeq	r4, r8, r2, lsl #18
    97fc:	a2173c00 	andsge	r3, r7, #0, 24
    9800:	06000002 	streq	r0, [r0], -r2
    9804:	018d024c 	orreq	r0, sp, ip, asr #4
    9808:	17400000 	strbne	r0, [r0, -r0]
    980c:	000001f5 	strdeq	r0, [r0], -r5
    9810:	25024d06 	strcs	r4, [r2, #-3334]	; 0xfffff2fa
    9814:	44000000 	strmi	r0, [r0], #-0
    9818:	00055f17 	andeq	r5, r5, r7, lsl pc
    981c:	024e0600 	subeq	r0, lr, #0, 12
    9820:	0000018d 	andeq	r0, r0, sp, lsl #3
    9824:	03361748 	teqeq	r6, #72, 14	; 0x1200000
    9828:	4f060000 	svcmi	0x00060000
    982c:	00084f02 	andeq	r4, r8, r2, lsl #30
    9830:	37174c00 	ldrcc	r4, [r7, -r0, lsl #24]
    9834:	06000002 	streq	r0, [r0], -r2
    9838:	00250252 	eoreq	r0, r5, r2, asr r2
    983c:	17500000 	ldrbne	r0, [r0, -r0]
    9840:	0000018b 	andeq	r0, r0, fp, lsl #3
    9844:	1d025306 	stcne	3, cr5, [r2, #-24]	; 0xffffffe8
    9848:	54000001 	strpl	r0, [r0], #-1
    984c:	000cc517 	andeq	ip, ip, r7, lsl r5
    9850:	02760600 	rsbseq	r0, r6, #0, 12
    9854:	0000080c 	andeq	r0, r0, ip, lsl #16
    9858:	031c1858 	tsteq	ip, #88, 16	; 0x580000
    985c:	7a060000 	bvc	189864 <__bss_end__+0x17fcec>
    9860:	0002aa02 	andeq	sl, r2, r2, lsl #20
    9864:	18014800 	stmdane	r1, {fp, lr}
    9868:	00000276 	andeq	r0, r0, r6, ror r2
    986c:	6c027b06 			; <UNDEFINED> instruction: 0x6c027b06
    9870:	4c000002 	stcmi	0, cr0, [r0], {2}
    9874:	05081801 	streq	r1, [r8, #-2049]	; 0xfffff7ff
    9878:	7f060000 	svcvc	0x00060000
    987c:	00086002 	andeq	r6, r8, r2
    9880:	1802dc00 	stmdane	r2, {sl, fp, ip, lr, pc}
    9884:	0000015b 	andeq	r0, r0, fp, asr r1
    9888:	11028406 	tstne	r2, r6, lsl #8
    988c:	e0000006 	and	r0, r0, r6
    9890:	01401802 	cmpeq	r0, r2, lsl #16
    9894:	85060000 	strhi	r0, [r6, #-0]
    9898:	00086c02 	andeq	r6, r8, r2, lsl #24
    989c:	0002ec00 	andeq	lr, r2, r0, lsl #24
    98a0:	041c040d 	ldreq	r0, [ip], #-1037	; 0xfffffbf3
    98a4:	25140000 	ldrcs	r0, [r4, #-0]
    98a8:	9b000000 	blls	98b0 <buf.4221+0x13c>
    98ac:	15000005 	strne	r0, [r0, #-5]
    98b0:	0000043a 	andeq	r0, r0, sl, lsr r4
    98b4:	00011b15 	andeq	r1, r1, r5, lsl fp
    98b8:	059b1500 	ldreq	r1, [fp, #1280]	; 0x500
    98bc:	25150000 	ldrcs	r0, [r5, #-0]
    98c0:	00000000 	andeq	r0, r0, r0
    98c4:	012a040d 			; <UNDEFINED> instruction: 0x012a040d
    98c8:	040d0000 	streq	r0, [sp], #-0
    98cc:	0000057d 	andeq	r0, r0, sp, ror r5
    98d0:	00009714 	andeq	r9, r0, r4, lsl r7
    98d4:	0005c500 	andeq	ip, r5, r0, lsl #10
    98d8:	043a1500 	ldrteq	r1, [sl], #-1280	; 0xfffffb00
    98dc:	1b150000 	blne	5498e4 <__bss_end__+0x53fd6c>
    98e0:	15000001 	strne	r0, [r0, #-1]
    98e4:	00000097 	muleq	r0, r7, r0
    98e8:	00002515 	andeq	r2, r0, r5, lsl r5
    98ec:	040d0000 	streq	r0, [sp], #-0
    98f0:	000005a7 	andeq	r0, r0, r7, lsr #11
    98f4:	00002514 	andeq	r2, r0, r4, lsl r5
    98f8:	0005df00 	andeq	sp, r5, r0, lsl #30
    98fc:	043a1500 	ldrteq	r1, [sl], #-1280	; 0xfffffb00
    9900:	1b150000 	blne	549908 <__bss_end__+0x53fd90>
    9904:	00000001 	andeq	r0, r0, r1
    9908:	05cb040d 	strbeq	r0, [fp, #1037]	; 0x40d
    990c:	5a080000 	bpl	209914 <__bss_end__+0x1ffd9c>
    9910:	f5000000 			; <UNDEFINED> instruction: 0xf5000000
    9914:	09000005 	stmdbeq	r0, {r0, r2}
    9918:	000000dd 	ldrdeq	r0, [r0], -sp
    991c:	5a080002 	bpl	20992c <__bss_end__+0x1ffdb4>
    9920:	05000000 	streq	r0, [r0, #-0]
    9924:	09000006 	stmdbeq	r0, {r1, r2}
    9928:	000000dd 	ldrdeq	r0, [r0], -sp
    992c:	8a050000 	bhi	149934 <__bss_end__+0x13fdbc>
    9930:	06000003 	streq	r0, [r0], -r3
    9934:	02f2011d 	rscseq	r0, r2, #1073741831	; 0x40000007
    9938:	cb190000 	blgt	649940 <__bss_end__+0x63fdc8>
    993c:	0c000004 	stceq	0, cr0, [r0], {4}
    9940:	46012106 	strmi	r2, [r1], -r6, lsl #2
    9944:	17000006 	strne	r0, [r0, -r6]
    9948:	000003b2 			; <UNDEFINED> instruction: 0x000003b2
    994c:	46012306 	strmi	r2, [r1], -r6, lsl #6
    9950:	00000006 	andeq	r0, r0, r6
    9954:	00025217 	andeq	r5, r2, r7, lsl r2
    9958:	01240600 			; <UNDEFINED> instruction: 0x01240600
    995c:	00000025 	andeq	r0, r0, r5, lsr #32
    9960:	03841704 	orreq	r1, r4, #4, 14	; 0x100000
    9964:	25060000 	strcs	r0, [r6, #-0]
    9968:	00064c01 	andeq	r4, r6, r1, lsl #24
    996c:	0d000800 	stceq	8, cr0, [r0, #-0]
    9970:	00061104 	andeq	r1, r6, r4, lsl #2
    9974:	05040d00 	streq	r0, [r4, #-3328]	; 0xfffff300
    9978:	19000006 	stmdbne	r0, {r1, r2}
    997c:	00000088 	andeq	r0, r0, r8, lsl #1
    9980:	013d060e 	teqeq	sp, lr, lsl #12
    9984:	00000687 	andeq	r0, r0, r7, lsl #13
    9988:	0003f817 	andeq	pc, r3, r7, lsl r8	; <UNPREDICTABLE>
    998c:	013e0600 	teqeq	lr, r0, lsl #12
    9990:	00000687 	andeq	r0, r0, r7, lsl #13
    9994:	043f1700 	ldrteq	r1, [pc], #-1792	; 999c <buf.4221+0x228>
    9998:	3f060000 	svccc	0x00060000
    999c:	00068701 	andeq	r8, r6, r1, lsl #14
    99a0:	67170600 	ldrvs	r0, [r7, -r0, lsl #12]
    99a4:	06000004 	streq	r0, [r0], -r4
    99a8:	00610140 	rsbeq	r0, r1, r0, asr #2
    99ac:	000c0000 	andeq	r0, ip, r0
    99b0:	00006108 	andeq	r6, r0, r8, lsl #2
    99b4:	00069700 	andeq	r9, r6, r0, lsl #14
    99b8:	00dd0900 	sbcseq	r0, sp, r0, lsl #18
    99bc:	00020000 	andeq	r0, r2, r0
    99c0:	5706d01a 	smladpl	r6, sl, r0, sp
    99c4:	00079802 	andeq	r9, r7, r2, lsl #16
    99c8:	04a61700 	strteq	r1, [r6], #1792	; 0x700
    99cc:	59060000 	stmdbpl	r6, {}	; <UNPREDICTABLE>
    99d0:	00002c02 	andeq	r2, r0, r2, lsl #24
    99d4:	51170000 	tstpl	r7, r0
    99d8:	06000004 	streq	r0, [r0], -r4
    99dc:	011d025a 	tsteq	sp, sl, asr r2
    99e0:	17040000 	strne	r0, [r4, -r0]
    99e4:	0000028b 	andeq	r0, r0, fp, lsl #5
    99e8:	98025b06 	stmdals	r2, {r1, r2, r8, r9, fp, ip, lr}
    99ec:	08000007 	stmdaeq	r0, {r0, r1, r2}
    99f0:	00053617 	andeq	r3, r5, r7, lsl r6
    99f4:	025c0600 	subseq	r0, ip, #0, 12
    99f8:	000001a3 	andeq	r0, r0, r3, lsr #3
    99fc:	01e61724 	mvneq	r1, r4, lsr #14
    9a00:	5d060000 	stcpl	0, cr0, [r6, #-0]
    9a04:	00002502 	andeq	r2, r0, r2, lsl #10
    9a08:	ad174800 	ldcge	8, cr4, [r7, #-0]
    9a0c:	06000003 	streq	r0, [r0], -r3
    9a10:	007a025e 	rsbseq	r0, sl, lr, asr r2
    9a14:	17500000 	ldrbne	r0, [r0, -r0]
    9a18:	0000054c 	andeq	r0, r0, ip, asr #10
    9a1c:	52025f06 	andpl	r5, r2, #6, 30
    9a20:	58000006 	stmdapl	r0, {r1, r2}
    9a24:	0003b817 	andeq	fp, r3, r7, lsl r8
    9a28:	02600600 	rsbeq	r0, r0, #0, 12
    9a2c:	00000105 	andeq	r0, r0, r5, lsl #2
    9a30:	05511768 	ldrbeq	r1, [r1, #-1896]	; 0xfffff898
    9a34:	61060000 	mrsvs	r0, (UNDEF: 6)
    9a38:	00010502 	andeq	r0, r1, r2, lsl #10
    9a3c:	fc177000 	ldc2	0, cr7, [r7], {-0}
    9a40:	06000000 	streq	r0, [r0], -r0
    9a44:	01050262 	tsteq	r5, r2, ror #4
    9a48:	17780000 	ldrbne	r0, [r8, -r0]!
    9a4c:	000004fe 	strdeq	r0, [r0], -lr
    9a50:	a8026306 	stmdage	r2, {r1, r2, r8, r9, sp, lr}
    9a54:	80000007 	andhi	r0, r0, r7
    9a58:	00027f17 	andeq	r7, r2, r7, lsl pc
    9a5c:	02640600 	rsbeq	r0, r4, #0, 12
    9a60:	000007b8 			; <UNDEFINED> instruction: 0x000007b8
    9a64:	04741788 	ldrbteq	r1, [r4], #-1928	; 0xfffff878
    9a68:	65060000 	strvs	r0, [r6, #-0]
    9a6c:	00002502 	andeq	r2, r0, r2, lsl #10
    9a70:	ac17a000 	ldcge	0, cr10, [r7], {-0}
    9a74:	06000001 	streq	r0, [r0], -r1
    9a78:	01050266 	tsteq	r5, r6, ror #4
    9a7c:	17a40000 	strne	r0, [r4, r0]!
    9a80:	000000ed 	andeq	r0, r0, sp, ror #1
    9a84:	05026706 	streq	r6, [r2, #-1798]	; 0xfffff8fa
    9a88:	ac000001 	stcge	0, cr0, [r0], {1}
    9a8c:	00019b17 	andeq	r9, r1, r7, lsl fp
    9a90:	02680600 	rsbeq	r0, r8, #0, 12
    9a94:	00000105 	andeq	r0, r0, r5, lsl #2
    9a98:	00ad17b4 	strhteq	r1, [sp], r4
    9a9c:	69060000 	stmdbvs	r6, {}	; <UNPREDICTABLE>
    9aa0:	00010502 	andeq	r0, r1, r2, lsl #10
    9aa4:	bc17bc00 	ldclt	12, cr11, [r7], {-0}
    9aa8:	06000000 	streq	r0, [r0], -r0
    9aac:	0105026a 	tsteq	r5, sl, ror #4
    9ab0:	17c40000 	strbne	r0, [r4, r0]
    9ab4:	00000360 	andeq	r0, r0, r0, ror #6
    9ab8:	25026b06 	strcs	r6, [r2, #-2822]	; 0xfffff4fa
    9abc:	cc000000 	stcgt	0, cr0, [r0], {-0}
    9ac0:	01230800 			; <UNDEFINED> instruction: 0x01230800
    9ac4:	07a80000 	streq	r0, [r8, r0]!
    9ac8:	dd090000 	stcle	0, cr0, [r9, #-0]
    9acc:	19000000 	stmdbne	r0, {}	; <UNPREDICTABLE>
    9ad0:	01230800 			; <UNDEFINED> instruction: 0x01230800
    9ad4:	07b80000 	ldreq	r0, [r8, r0]!
    9ad8:	dd090000 	stcle	0, cr0, [r9, #-0]
    9adc:	07000000 	streq	r0, [r0, -r0]
    9ae0:	01230800 			; <UNDEFINED> instruction: 0x01230800
    9ae4:	07c80000 	strbeq	r0, [r8, r0]
    9ae8:	dd090000 	stcle	0, cr0, [r9, #-0]
    9aec:	17000000 	strne	r0, [r0, -r0]
    9af0:	06f01a00 	ldrbteq	r1, [r0], r0, lsl #20
    9af4:	07ec0270 			; <UNDEFINED> instruction: 0x07ec0270
    9af8:	0c170000 	ldceq	0, cr0, [r7], {-0}
    9afc:	06000003 	streq	r0, [r0], -r3
    9b00:	07ec0273 			; <UNDEFINED> instruction: 0x07ec0273
    9b04:	17000000 	strne	r0, [r0, -r0]
    9b08:	000002ef 	andeq	r0, r0, pc, ror #5
    9b0c:	fc027406 	stc2	4, cr7, [r2], {6}
    9b10:	78000007 	stmdavc	r0, {r0, r1, r2}
    9b14:	02ec0800 	rsceq	r0, ip, #0, 16
    9b18:	07fc0000 	ldrbeq	r0, [ip, r0]!
    9b1c:	dd090000 	stcle	0, cr0, [r9, #-0]
    9b20:	1d000000 	stcne	0, cr0, [r0, #-0]
    9b24:	002c0800 	eoreq	r0, ip, r0, lsl #16
    9b28:	080c0000 	stmdaeq	ip, {}	; <UNPREDICTABLE>
    9b2c:	dd090000 	stcle	0, cr0, [r9, #-0]
    9b30:	1d000000 	stcne	0, cr0, [r0, #-0]
    9b34:	06f01b00 	ldrbteq	r1, [r0], r0, lsl #22
    9b38:	082e0255 	stmdaeq	lr!, {r0, r2, r4, r6, r9}
    9b3c:	f11c0000 			; <UNDEFINED> instruction: 0xf11c0000
    9b40:	06000003 	streq	r0, [r0], -r3
    9b44:	0697026c 	ldreq	r0, [r7], ip, ror #4
    9b48:	231c0000 	tstcs	ip, #0
    9b4c:	06000005 	streq	r0, [r0], -r5
    9b50:	07c80275 			; <UNDEFINED> instruction: 0x07c80275
    9b54:	08000000 	stmdaeq	r0, {}	; <UNPREDICTABLE>
    9b58:	00000123 	andeq	r0, r0, r3, lsr #2
    9b5c:	0000083e 	andeq	r0, r0, lr, lsr r8
    9b60:	0000dd09 	andeq	sp, r0, r9, lsl #26
    9b64:	1d001800 	stcne	8, cr1, [r0, #-0]
    9b68:	00000849 	andeq	r0, r0, r9, asr #16
    9b6c:	00043a15 	andeq	r3, r4, r5, lsl sl
    9b70:	040d0000 	streq	r0, [sp], #-0
    9b74:	0000083e 	andeq	r0, r0, lr, lsr r8
    9b78:	018d040d 	orreq	r0, sp, sp, lsl #8
    9b7c:	601d0000 	andsvs	r0, sp, r0
    9b80:	15000008 	strne	r0, [r0, #-8]
    9b84:	00000025 	andeq	r0, r0, r5, lsr #32
    9b88:	66040d00 	strvs	r0, [r4], -r0, lsl #26
    9b8c:	0d000008 	stceq	0, cr0, [r0, #-32]	; 0xffffffe0
    9b90:	00085504 	andeq	r5, r8, r4, lsl #10
    9b94:	06050800 	streq	r0, [r5], -r0, lsl #16
    9b98:	087c0000 	ldmdaeq	ip!, {}^	; <UNPREDICTABLE>
    9b9c:	dd090000 	stcle	0, cr0, [r9, #-0]
    9ba0:	02000000 	andeq	r0, r0, #0
    9ba4:	04881e00 	streq	r1, [r8], #3584	; 0xe00
    9ba8:	fd060000 	stc2	0, cr0, [r6, #-0]
    9bac:	00043a02 	andeq	r3, r4, r2, lsl #20
    9bb0:	04811e00 	streq	r1, [r1], #3584	; 0xe00
    9bb4:	fe060000 	cdp2	0, 0, cr0, cr6, cr0, {0}
    9bb8:	00044002 	andeq	r4, r4, r2
    9bbc:	00251400 	eoreq	r1, r5, r0, lsl #8
    9bc0:	08a30000 	stmiaeq	r3!, {}	; <UNPREDICTABLE>
    9bc4:	25150000 	ldrcs	r0, [r5, #-0]
    9bc8:	00000000 	andeq	r0, r0, r0
    9bcc:	0001ff1f 	andeq	pc, r1, pc, lsl pc	; <UNPREDICTABLE>
    9bd0:	ae1d0700 	cdpge	7, 1, cr0, cr13, cr0, {0}
    9bd4:	0d000008 	stceq	0, cr0, [r0, #-32]	; 0xffffffe0
    9bd8:	00089404 	andeq	r9, r8, r4, lsl #8
    9bdc:	00251400 	eoreq	r1, r5, r0, lsl #8
    9be0:	08c30000 	stmiaeq	r3, {}^	; <UNPREDICTABLE>
    9be4:	9b150000 	blls	549bec <__bss_end__+0x540074>
    9be8:	00000005 	andeq	r0, r0, r5
    9bec:	0008b21f 	andeq	fp, r8, pc, lsl r2
    9bf0:	ce220700 	cdpgt	7, 2, cr0, cr2, cr0, {0}
    9bf4:	0d000008 	stceq	0, cr0, [r0, #-32]	; 0xffffffe0
    9bf8:	0008b404 	andeq	fp, r8, r4, lsl #8
    9bfc:	080c0a00 	stmdaeq	ip, {r9, fp}
    9c00:	00090b0e 	andeq	r0, r9, lr, lsl #22
    9c04:	78741000 	ldmdavc	r4!, {ip}^
    9c08:	4f0f0800 	svcmi	0x000f0800
    9c0c:	00000000 	andeq	r0, r0, r0
    9c10:	00787210 	rsbseq	r7, r8, r0, lsl r2
    9c14:	004f0f08 	subeq	r0, pc, r8, lsl #30
    9c18:	0b010000 	bleq	49c20 <__bss_end__+0x400a8>
    9c1c:	000009a8 	andeq	r0, r0, r8, lsr #19
    9c20:	00681008 	rsbeq	r1, r8, r8
    9c24:	0b040000 	bleq	109c2c <__bss_end__+0x1000b4>
    9c28:	000009db 	ldrdeq	r0, [r0], -fp
    9c2c:	00681108 	rsbeq	r1, r8, r8, lsl #2
    9c30:	00080000 	andeq	r0, r8, r0
    9c34:	00097104 	andeq	r7, r9, r4, lsl #2
    9c38:	d4120800 	ldrle	r0, [r2], #-2048	; 0xfffff800
    9c3c:	20000008 	andcs	r0, r0, r8
    9c40:	00005a01 	andeq	r5, r0, r1, lsl #20
    9c44:	35100900 	ldrcc	r0, [r0, #-2304]	; 0xfffff700
    9c48:	21000009 	tstcs	r0, r9
    9c4c:	00000931 	andeq	r0, r0, r1, lsr r9
    9c50:	09ce2101 	stmibeq	lr, {r0, r8, sp}^
    9c54:	21020000 	mrscs	r0, (UNDEF: 2)
    9c58:	000008fa 	strdeq	r0, [r0], -sl
    9c5c:	08040003 	stmdaeq	r4, {r0, r1}
    9c60:	09000009 	stmdbeq	r0, {r0, r3}
    9c64:	00091610 	andeq	r1, r9, r0, lsl r6
    9c68:	09140a00 	ldmdbeq	r4, {r9, fp}
    9c6c:	00096d14 	andeq	r6, r9, r4, lsl sp
    9c70:	097b0b00 	ldmdbeq	fp!, {r8, r9, fp}^
    9c74:	15090000 	strne	r0, [r9, #-0]
    9c78:	0000002c 	andeq	r0, r0, ip, lsr #32
    9c7c:	093e0b00 	ldmdbeq	lr!, {r8, r9, fp}
    9c80:	18090000 	stmdane	r9, {}	; <UNPREDICTABLE>
    9c84:	00000935 	andeq	r0, r0, r5, lsr r9
    9c88:	091b0b04 	ldmdbeq	fp, {r2, r8, r9, fp}
    9c8c:	1b090000 	blne	249c94 <__bss_end__+0x24011c>
    9c90:	0000090b 	andeq	r0, r0, fp, lsl #18
    9c94:	23040008 	movwcs	r0, #16392	; 0x4008
    9c98:	09000009 	stmdbeq	r0, {r0, r3}
    9c9c:	00094020 	andeq	r4, r9, r0, lsr #32
    9ca0:	09ad2200 	stmibeq	sp!, {r9, sp}
    9ca4:	0c010000 	stceq	0, cr0, [r1], {-0}
    9ca8:	0000099f 	muleq	r0, pc, r9	; <UNPREDICTABLE>
    9cac:	0000929c 	muleq	r0, ip, r2
    9cb0:	00000028 	andeq	r0, r0, r8, lsr #32
    9cb4:	099f9c01 	ldmibeq	pc, {r0, sl, fp, ip, pc}	; <UNPREDICTABLE>
    9cb8:	63230000 			; <UNDEFINED> instruction: 0x63230000
    9cbc:	9f0d0100 	svcls	0x000d0100
    9cc0:	00000009 	andeq	r0, r0, r9
    9cc4:	00090000 	andeq	r0, r9, r0
    9cc8:	096d040d 	stmdbeq	sp!, {r0, r2, r3, sl}^
    9ccc:	c3220000 			; <UNDEFINED> instruction: 0xc3220000
    9cd0:	0100000c 	tsteq	r0, ip
    9cd4:	00099f05 	andeq	r9, r9, r5, lsl #30
    9cd8:	00927400 	addseq	r7, r2, r0, lsl #8
    9cdc:	00002800 	andeq	r2, r0, r0, lsl #16
    9ce0:	e79c0100 	ldr	r0, [ip, r0, lsl #2]
    9ce4:	23000009 	movwcs	r0, #9
    9ce8:	06010063 	streq	r0, [r1], -r3, rrx
    9cec:	0000099f 	muleq	r0, pc, r9	; <UNPREDICTABLE>
    9cf0:	09000000 	stmdbeq	r0, {}	; <UNPREDICTABLE>
    9cf4:	00928824 	addseq	r8, r2, r4, lsr #16
    9cf8:	0009e700 	andeq	lr, r9, r0, lsl #14
    9cfc:	50012500 	andpl	r2, r1, r0, lsl #10
    9d00:	24474203 	strbcs	r4, [r7], #-515	; 0xfffffdfd
    9d04:	01510125 	cmpeq	r1, r5, lsr #2
    9d08:	52012530 	andpl	r2, r1, #48, 10	; 0xc000000
    9d0c:	00003401 	andeq	r3, r0, r1, lsl #8
    9d10:	000ce526 	andeq	lr, ip, r6, lsr #10
    9d14:	000ce500 	andeq	lr, ip, r0, lsl #10
    9d18:	00190a00 	andseq	r0, r9, r0, lsl #20
    9d1c:	000008d8 	ldrdeq	r0, [r0], -r8
    9d20:	1e680004 	cdpne	0, 6, cr0, cr8, cr4, {0}
    9d24:	01040000 	mrseq	r0, (UNDEF: 4)
    9d28:	000007be 			; <UNDEFINED> instruction: 0x000007be
    9d2c:	000cf30c 	andeq	pc, ip, ip, lsl #6
    9d30:	00082500 	andeq	r2, r8, r0, lsl #10
    9d34:	0092c400 	addseq	ip, r2, r0, lsl #8
    9d38:	00002000 	andeq	r2, r0, r0
    9d3c:	000f8600 	andeq	r8, pc, r0, lsl #12
    9d40:	05040200 	streq	r0, [r4, #-512]	; 0xfffffe00
    9d44:	00746e69 	rsbseq	r6, r4, r9, ror #28
    9d48:	000cec03 	andeq	lr, ip, r3, lsl #24
    9d4c:	37d80200 	ldrbcc	r0, [r8, r0, lsl #4]
    9d50:	04000000 	streq	r0, [r0], #-0
    9d54:	00d70704 	sbcseq	r0, r7, r4, lsl #14
    9d58:	01040000 	mrseq	r0, (UNDEF: 4)
    9d5c:	00035406 	andeq	r5, r3, r6, lsl #8
    9d60:	08010400 	stmdaeq	r1, {sl}
    9d64:	00000352 	andeq	r0, r0, r2, asr r3
    9d68:	69050204 	stmdbvs	r5, {r2, r9}
    9d6c:	04000003 	streq	r0, [r0], #-3
    9d70:	02630702 	rsbeq	r0, r3, #524288	; 0x80000
    9d74:	04040000 	streq	r0, [r4], #-0
    9d78:	00011805 	andeq	r1, r1, r5, lsl #16
    9d7c:	07040400 	streq	r0, [r4, -r0, lsl #8]
    9d80:	000000d2 	ldrdeq	r0, [r0], -r2
    9d84:	13050804 	movwne	r0, #22532	; 0x5804
    9d88:	04000001 	streq	r0, [r0], #-1
    9d8c:	00cd0708 	sbceq	r0, sp, r8, lsl #14
    9d90:	40030000 	andmi	r0, r3, r0
    9d94:	03000003 	movweq	r0, #3
    9d98:	00002507 	andeq	r2, r0, r7, lsl #10
    9d9c:	032f0300 			; <UNDEFINED> instruction: 0x032f0300
    9da0:	2c040000 	stccs	0, cr0, [r4], {-0}
    9da4:	0000005a 	andeq	r0, r0, sl, asr r0
    9da8:	00041d03 	andeq	r1, r4, r3, lsl #26
    9dac:	5a720400 	bpl	1c8adb4 <__bss_end__+0x1c8123c>
    9db0:	05000000 	streq	r0, [r0, #-0]
    9db4:	000002b0 			; <UNDEFINED> instruction: 0x000002b0
    9db8:	37016502 	strcc	r6, [r1, -r2, lsl #10]
    9dbc:	06000000 	streq	r0, [r0], -r0
    9dc0:	c2a60404 	adcgt	r0, r6, #4, 8	; 0x4000000
    9dc4:	07000000 	streq	r0, [r0, -r0]
    9dc8:	000002aa 	andeq	r0, r0, sl, lsr #5
    9dcc:	0097a804 	addseq	sl, r7, r4, lsl #16
    9dd0:	19070000 	stmdbne	r7, {}	; <UNPREDICTABLE>
    9dd4:	04000002 	streq	r0, [r0], #-2
    9dd8:	0000c2a9 	andeq	ip, r0, r9, lsr #5
    9ddc:	45080000 	strmi	r0, [r8, #-0]
    9de0:	d2000000 	andle	r0, r0, #0
    9de4:	09000000 	stmdbeq	r0, {}	; <UNPREDICTABLE>
    9de8:	000000d2 	ldrdeq	r0, [r0], -r2
    9dec:	04040003 	streq	r0, [r4], #-3
    9df0:	0002f807 	andeq	pc, r2, r7, lsl #16
    9df4:	04080a00 	streq	r0, [r8], #-2560	; 0xfffff600
    9df8:	0000faa3 	andeq	pc, r0, r3, lsr #21
    9dfc:	04070b00 	streq	r0, [r7], #-2816	; 0xfffff500
    9e00:	a5040000 	strge	r0, [r4, #-0]
    9e04:	00000025 	andeq	r0, r0, r5, lsr #32
    9e08:	040f0b00 	streq	r0, [pc], #-2816	; 9e10 <__bss_end__+0x298>
    9e0c:	aa040000 	bge	109e14 <__bss_end__+0x10029c>
    9e10:	000000a3 	andeq	r0, r0, r3, lsr #1
    9e14:	91030004 	tstls	r3, r4
    9e18:	04000003 	streq	r0, [r0], #-3
    9e1c:	0000d9ab 	andeq	sp, r0, fp, lsr #19
    9e20:	01cd0300 	biceq	r0, sp, r0, lsl #6
    9e24:	af040000 	svcge	0x00040000
    9e28:	00000076 	andeq	r0, r0, r6, ror r0
    9e2c:	040d040c 	streq	r0, [sp], #-1036	; 0xfffffbf4
    9e30:	00000118 	andeq	r0, r0, r8, lsl r1
    9e34:	5b080104 	blpl	20a24c <__bss_end__+0x2006d4>
    9e38:	0e000003 	cdpeq	0, 0, cr0, cr0, cr3, {0}
    9e3c:	00000118 	andeq	r0, r0, r8, lsl r1
    9e40:	00046c03 	andeq	r6, r4, r3, lsl #24
    9e44:	61160500 	tstvs	r6, r0, lsl #10
    9e48:	0f000000 	svceq	0x00000000
    9e4c:	000001de 	ldrdeq	r0, [r0], -lr
    9e50:	822d0518 	eorhi	r0, sp, #24, 10	; 0x6000000
    9e54:	0b000001 	bleq	9e60 <__bss_end__+0x2e8>
    9e58:	000003b2 			; <UNDEFINED> instruction: 0x000003b2
    9e5c:	01822f05 	orreq	r2, r2, r5, lsl #30
    9e60:	10000000 	andne	r0, r0, r0
    9e64:	05006b5f 	streq	r6, [r0, #-2911]	; 0xfffff4a1
    9e68:	00002530 	andeq	r2, r0, r0, lsr r5
    9e6c:	e90b0400 	stmdb	fp, {sl}
    9e70:	05000003 	streq	r0, [r0, #-3]
    9e74:	00002530 	andeq	r2, r0, r0, lsr r5
    9e78:	c70b0800 	strgt	r0, [fp, -r0, lsl #16]
    9e7c:	05000001 	streq	r0, [r0, #-1]
    9e80:	00002530 	andeq	r2, r0, r0, lsr r5
    9e84:	bc0b0c00 	stclt	12, cr0, [fp], {-0}
    9e88:	05000004 	streq	r0, [r0, #-4]
    9e8c:	00002530 	andeq	r2, r0, r0, lsr r5
    9e90:	5f101000 	svcpl	0x00101000
    9e94:	31050078 	tstcc	r5, r8, ror r0
    9e98:	00000188 	andeq	r0, r0, r8, lsl #3
    9e9c:	040d0014 	streq	r0, [sp], #-20	; 0xffffffec
    9ea0:	0000012f 	andeq	r0, r0, pc, lsr #2
    9ea4:	00012408 	andeq	r2, r1, r8, lsl #8
    9ea8:	00019800 	andeq	r9, r1, r0, lsl #16
    9eac:	00d20900 	sbcseq	r0, r2, r0, lsl #18
    9eb0:	00000000 	andeq	r0, r0, r0
    9eb4:	00020b0f 	andeq	r0, r2, pc, lsl #22
    9eb8:	35052400 	strcc	r2, [r5, #-1024]	; 0xfffffc00
    9ebc:	00000211 	andeq	r0, r0, r1, lsl r2
    9ec0:	00010a0b 	andeq	r0, r1, fp, lsl #20
    9ec4:	25370500 	ldrcs	r0, [r7, #-1280]!	; 0xfffffb00
    9ec8:	00000000 	andeq	r0, r0, r0
    9ecc:	0004250b 	andeq	r2, r4, fp, lsl #10
    9ed0:	25380500 	ldrcs	r0, [r8, #-1280]!	; 0xfffffb00
    9ed4:	04000000 	streq	r0, [r0], #-0
    9ed8:	0001360b 	andeq	r3, r1, fp, lsl #12
    9edc:	25390500 	ldrcs	r0, [r9, #-1280]!	; 0xfffffb00
    9ee0:	08000000 	stmdaeq	r0, {}	; <UNPREDICTABLE>
    9ee4:	0005640b 	andeq	r6, r5, fp, lsl #8
    9ee8:	253a0500 	ldrcs	r0, [sl, #-1280]!	; 0xfffffb00
    9eec:	0c000000 	stceq	0, cr0, [r0], {-0}
    9ef0:	0003130b 	andeq	r1, r3, fp, lsl #6
    9ef4:	253b0500 	ldrcs	r0, [fp, #-1280]!	; 0xfffffb00
    9ef8:	10000000 	andne	r0, r0, r0
    9efc:	0002d80b 	andeq	sp, r2, fp, lsl #16
    9f00:	253c0500 	ldrcs	r0, [ip, #-1280]!	; 0xfffffb00
    9f04:	14000000 	strne	r0, [r0], #-0
    9f08:	0004c10b 	andeq	ip, r4, fp, lsl #2
    9f0c:	253d0500 	ldrcs	r0, [sp, #-1280]!	; 0xfffffb00
    9f10:	18000000 	stmdane	r0, {}	; <UNPREDICTABLE>
    9f14:	0003730b 	andeq	r7, r3, fp, lsl #6
    9f18:	253e0500 	ldrcs	r0, [lr, #-1280]!	; 0xfffffb00
    9f1c:	1c000000 	stcne	0, cr0, [r0], {-0}
    9f20:	00052b0b 	andeq	r2, r5, fp, lsl #22
    9f24:	253f0500 	ldrcs	r0, [pc, #-1280]!	; 9a2c <buf.4221+0x2b8>
    9f28:	20000000 	andcs	r0, r0, r0
    9f2c:	01451100 	mrseq	r1, (UNDEF: 85)
    9f30:	01080000 	mrseq	r0, (UNDEF: 8)
    9f34:	02514805 	subseq	r4, r1, #327680	; 0x50000
    9f38:	ba0b0000 	blt	2c9f40 <__bss_end__+0x2c03c8>
    9f3c:	05000001 	streq	r0, [r0, #-1]
    9f40:	00025149 	andeq	r5, r2, r9, asr #2
    9f44:	000b0000 	andeq	r0, fp, r0
    9f48:	05000000 	streq	r0, [r0, #-0]
    9f4c:	0002514a 	andeq	r5, r2, sl, asr #2
    9f50:	5e128000 	cdppl	0, 1, cr8, cr2, cr0, {0}
    9f54:	05000004 	streq	r0, [r0, #-4]
    9f58:	0001244c 	andeq	r2, r1, ip, asr #8
    9f5c:	12010000 	andne	r0, r1, #0
    9f60:	0000016a 	andeq	r0, r0, sl, ror #2
    9f64:	01244f05 			; <UNDEFINED> instruction: 0x01244f05
    9f68:	01040000 	mrseq	r0, (UNDEF: 4)
    9f6c:	01100800 	tsteq	r0, r0, lsl #16
    9f70:	02610000 	rsbeq	r0, r1, #0
    9f74:	d2090000 	andle	r0, r9, #0
    9f78:	1f000000 	svcne	0x00000000
    9f7c:	031c1100 	tsteq	ip, #0, 2
    9f80:	01900000 	orrseq	r0, r0, r0
    9f84:	029f5b05 	addseq	r5, pc, #5120	; 0x1400
    9f88:	b20b0000 	andlt	r0, fp, #0
    9f8c:	05000003 	streq	r0, [r0, #-3]
    9f90:	00029f5c 	andeq	r9, r2, ip, asr pc
    9f94:	ca0b0000 	bgt	2c9f9c <__bss_end__+0x2c0424>
    9f98:	05000003 	streq	r0, [r0, #-3]
    9f9c:	0000255d 	andeq	r2, r0, sp, asr r5
    9fa0:	c20b0400 	andgt	r0, fp, #0, 8
    9fa4:	05000001 	streq	r0, [r0, #-1]
    9fa8:	0002a55f 	andeq	sl, r2, pc, asr r5
    9fac:	450b0800 	strmi	r0, [fp, #-2048]	; 0xfffff800
    9fb0:	05000001 	streq	r0, [r0, #-1]
    9fb4:	00021160 	andeq	r1, r2, r0, ror #2
    9fb8:	0d008800 	stceq	8, cr8, [r0, #-0]
    9fbc:	00026104 	andeq	r6, r2, r4, lsl #2
    9fc0:	02b50800 	adcseq	r0, r5, #0, 16
    9fc4:	02b50000 	adcseq	r0, r5, #0
    9fc8:	d2090000 	andle	r0, r9, #0
    9fcc:	1f000000 	svcne	0x00000000
    9fd0:	bb040d00 	bllt	10d3d8 <__bss_end__+0x103860>
    9fd4:	13000002 	movwne	r0, #2
    9fd8:	00037d0f 	andeq	r7, r3, pc, lsl #26
    9fdc:	73050800 	movwvc	r0, #22528	; 0x5800
    9fe0:	000002e1 	andeq	r0, r0, r1, ror #5
    9fe4:	0001300b 	andeq	r3, r1, fp
    9fe8:	e1740500 	cmn	r4, r0, lsl #10
    9fec:	00000002 	andeq	r0, r0, r2
    9ff0:	0000820b 	andeq	r8, r0, fp, lsl #4
    9ff4:	25750500 	ldrbcs	r0, [r5, #-1280]!	; 0xfffffb00
    9ff8:	04000000 	streq	r0, [r0], #-0
    9ffc:	45040d00 	strmi	r0, [r4, #-3328]	; 0xfffff300
    a000:	0f000000 	svceq	0x00000000
    a004:	0000039c 	muleq	r0, ip, r3
    a008:	11b30568 			; <UNDEFINED> instruction: 0x11b30568
    a00c:	10000004 	andne	r0, r0, r4
    a010:	0500705f 	streq	r7, [r0, #-95]	; 0xffffffa1
    a014:	0002e1b4 			; <UNDEFINED> instruction: 0x0002e1b4
    a018:	5f100000 	svcpl	0x00100000
    a01c:	b5050072 	strlt	r0, [r5, #-114]	; 0xffffff8e
    a020:	00000025 	andeq	r0, r0, r5, lsr #32
    a024:	775f1004 	ldrbvc	r1, [pc, -r4]
    a028:	25b60500 	ldrcs	r0, [r6, #1280]!	; 0x500
    a02c:	08000000 	stmdaeq	r0, {}	; <UNPREDICTABLE>
    a030:	0001630b 	andeq	r6, r1, fp, lsl #6
    a034:	4cb70500 	cfldr32mi	mvfx0, [r7]
    a038:	0c000000 	stceq	0, cr0, [r0], {-0}
    a03c:	00023f0b 	andeq	r3, r2, fp, lsl #30
    a040:	4cb80500 	cfldr32mi	mvfx0, [r8]
    a044:	0e000000 	cdpeq	0, 0, cr0, cr0, cr0, {0}
    a048:	66625f10 	uqadd16vs	r5, r2, r0
    a04c:	bcb90500 	cfldr32lt	mvfx0, [r9]
    a050:	10000002 	andne	r0, r0, r2
    a054:	0000e40b 	andeq	lr, r0, fp, lsl #8
    a058:	25ba0500 	ldrcs	r0, [sl, #1280]!	; 0x500
    a05c:	18000000 	stmdane	r0, {}	; <UNPREDICTABLE>
    a060:	0001530b 	andeq	r5, r1, fp, lsl #6
    a064:	10c10500 	sbcne	r0, r1, r0, lsl #10
    a068:	1c000001 	stcne	0, cr0, [r0], {1}
    a06c:	0004b60b 	andeq	fp, r4, fp, lsl #12
    a070:	6cc30500 	cfstr64vs	mvdx0, [r3], {0}
    a074:	20000005 	andcs	r0, r0, r5
    a078:	00029b0b 	andeq	r9, r2, fp, lsl #22
    a07c:	96c50500 	strbls	r0, [r5], r0, lsl #10
    a080:	24000005 	strcs	r0, [r0], #-5
    a084:	0004170b 	andeq	r1, r4, fp, lsl #14
    a088:	bac80500 	blt	ff20b490 <__bss_end__+0xff201918>
    a08c:	28000005 	stmdacs	r0, {r0, r2}
    a090:	0005450b 	andeq	r4, r5, fp, lsl #10
    a094:	d4c90500 	strble	r0, [r9], #1280	; 0x500
    a098:	2c000005 	stccs	0, cr0, [r0], {5}
    a09c:	62755f10 	rsbsvs	r5, r5, #16, 30	; 0x40
    a0a0:	bccc0500 	cfstr64lt	mvdx0, [ip], {0}
    a0a4:	30000002 	andcc	r0, r0, r2
    a0a8:	70755f10 	rsbsvc	r5, r5, r0, lsl pc
    a0ac:	e1cd0500 	bic	r0, sp, r0, lsl #10
    a0b0:	38000002 	stmdacc	r0, {r1}
    a0b4:	72755f10 	rsbsvc	r5, r5, #16, 30	; 0x40
    a0b8:	25ce0500 	strbcs	r0, [lr, #1280]	; 0x500
    a0bc:	3c000000 	stccc	0, cr0, [r0], {-0}
    a0c0:	00012a0b 	andeq	r2, r1, fp, lsl #20
    a0c4:	dad10500 	ble	ff44b4cc <__bss_end__+0xff441954>
    a0c8:	40000005 	andmi	r0, r0, r5
    a0cc:	00051d0b 	andeq	r1, r5, fp, lsl #26
    a0d0:	ead20500 	b	ff48b4d8 <__bss_end__+0xff481960>
    a0d4:	43000005 	movwmi	r0, #5
    a0d8:	626c5f10 	rsbvs	r5, ip, #16, 30	; 0x40
    a0dc:	bcd50500 	cfldr64lt	mvdx0, [r5], {0}
    a0e0:	44000002 	strmi	r0, [r0], #-2
    a0e4:	0001790b 	andeq	r7, r1, fp, lsl #18
    a0e8:	25d80500 	ldrbcs	r0, [r8, #1280]	; 0x500
    a0ec:	4c000000 	stcmi	0, cr0, [r0], {-0}
    a0f0:	0001930b 	andeq	r9, r1, fp, lsl #6
    a0f4:	81d90500 	bicshi	r0, r9, r0, lsl #10
    a0f8:	50000000 	andpl	r0, r0, r0
    a0fc:	000c2f0b 	andeq	r2, ip, fp, lsl #30
    a100:	2fdc0500 	svccs	0x00dc0500
    a104:	54000004 	strpl	r0, [r0], #-4
    a108:	000c030b 	andeq	r0, ip, fp, lsl #6
    a10c:	05e00500 	strbeq	r0, [r0, #1280]!	; 0x500
    a110:	58000001 	stmdapl	r0, {r0}
    a114:	0003a40b 	andeq	sl, r3, fp, lsl #8
    a118:	fae20500 	blx	ff88b520 <__bss_end__+0xff8819a8>
    a11c:	5c000000 	stcpl	0, cr0, [r0], {-0}
    a120:	0002c10b 	andeq	ip, r2, fp, lsl #2
    a124:	25e30500 	strbcs	r0, [r3, #1280]!	; 0x500
    a128:	64000000 	strvs	r0, [r0], #-0
    a12c:	00251400 	eoreq	r1, r5, r0, lsl #8
    a130:	042f0000 	strteq	r0, [pc], #-0	; a138 <__bss_end__+0x5c0>
    a134:	2f150000 	svccs	0x00150000
    a138:	15000004 	strne	r0, [r0, #-4]
    a13c:	00000110 	andeq	r0, r0, r0, lsl r1
    a140:	00011215 	andeq	r1, r1, r5, lsl r2
    a144:	00251500 	eoreq	r1, r5, r0, lsl #10
    a148:	0d000000 	stceq	0, cr0, [r0, #-0]
    a14c:	00043a04 	andeq	r3, r4, r4, lsl #20
    a150:	042f0e00 	strteq	r0, [pc], #-3584	; a158 <__bss_end__+0x5e0>
    a154:	f1160000 			; <UNDEFINED> instruction: 0xf1160000
    a158:	28000003 	stmdacs	r0, {r0, r1}
    a15c:	02380504 	eorseq	r0, r8, #4, 10	; 0x1000000
    a160:	0000056c 	andeq	r0, r0, ip, ror #10
    a164:	00036217 	andeq	r6, r3, r7, lsl r2
    a168:	023a0500 	eorseq	r0, sl, #0, 10
    a16c:	00000025 	andeq	r0, r0, r5, lsr #32
    a170:	01721700 	cmneq	r2, r0, lsl #14
    a174:	3f050000 	svccc	0x00050000
    a178:	00064102 	andeq	r4, r6, r2, lsl #2
    a17c:	2f170400 	svccs	0x00170400
    a180:	05000002 	streq	r0, [r0, #-2]
    a184:	0641023f 			; <UNDEFINED> instruction: 0x0641023f
    a188:	17080000 	strne	r0, [r8, -r0]
    a18c:	000001d6 	ldrdeq	r0, [r0], -r6
    a190:	41023f05 	tstmi	r2, r5, lsl #30
    a194:	0c000006 	stceq	0, cr0, [r0], {6}
    a198:	0003c517 	andeq	ip, r3, r7, lsl r5
    a19c:	02410500 	subeq	r0, r1, #0, 10
    a1a0:	00000025 	andeq	r0, r0, r5, lsr #32
    a1a4:	00901710 	addseq	r1, r0, r0, lsl r7
    a1a8:	42050000 	andmi	r0, r5, #0
    a1ac:	00082302 	andeq	r2, r8, r2, lsl #6
    a1b0:	94171400 	ldrls	r1, [r7], #-1024	; 0xfffffc00
    a1b4:	05000004 	streq	r0, [r0, #-4]
    a1b8:	00250244 	eoreq	r0, r5, r4, asr #4
    a1bc:	17300000 	ldrne	r0, [r0, -r0]!
    a1c0:	000003cf 	andeq	r0, r0, pc, asr #7
    a1c4:	90024505 	andls	r4, r2, r5, lsl #10
    a1c8:	34000005 	strcc	r0, [r0], #-5
    a1cc:	00032417 	andeq	r2, r3, r7, lsl r4
    a1d0:	02470500 	subeq	r0, r7, #0, 10
    a1d4:	00000025 	andeq	r0, r0, r5, lsr #32
    a1d8:	03df1738 	bicseq	r1, pc, #56, 14	; 0xe00000
    a1dc:	49050000 	stmdbmi	r5, {}	; <UNPREDICTABLE>
    a1e0:	00083e02 	andeq	r3, r8, r2, lsl #28
    a1e4:	a2173c00 	andsge	r3, r7, #0, 24
    a1e8:	05000002 	streq	r0, [r0, #-2]
    a1ec:	0182024c 	orreq	r0, r2, ip, asr #4
    a1f0:	17400000 	strbne	r0, [r0, -r0]
    a1f4:	000001f5 	strdeq	r0, [r0], -r5
    a1f8:	25024d05 	strcs	r4, [r2, #-3333]	; 0xfffff2fb
    a1fc:	44000000 	strmi	r0, [r0], #-0
    a200:	00055f17 	andeq	r5, r5, r7, lsl pc
    a204:	024e0500 	subeq	r0, lr, #0, 10
    a208:	00000182 	andeq	r0, r0, r2, lsl #3
    a20c:	03361748 	teqeq	r6, #72, 14	; 0x1200000
    a210:	4f050000 	svcmi	0x00050000
    a214:	00084402 	andeq	r4, r8, r2, lsl #8
    a218:	37174c00 	ldrcc	r4, [r7, -r0, lsl #24]
    a21c:	05000002 	streq	r0, [r0, #-2]
    a220:	00250252 	eoreq	r0, r5, r2, asr r2
    a224:	17500000 	ldrbne	r0, [r0, -r0]
    a228:	0000018b 	andeq	r0, r0, fp, lsl #3
    a22c:	12025305 	andne	r5, r2, #335544320	; 0x14000000
    a230:	54000001 	strpl	r0, [r0], #-1
    a234:	000cc517 	andeq	ip, ip, r7, lsl r5
    a238:	02760500 	rsbseq	r0, r6, #0, 10
    a23c:	00000801 	andeq	r0, r0, r1, lsl #16
    a240:	031c1858 	tsteq	ip, #88, 16	; 0x580000
    a244:	7a050000 	bvc	14a24c <__bss_end__+0x1406d4>
    a248:	00029f02 	andeq	r9, r2, r2, lsl #30
    a24c:	18014800 	stmdane	r1, {fp, lr}
    a250:	00000276 	andeq	r0, r0, r6, ror r2
    a254:	61027b05 	tstvs	r2, r5, lsl #22
    a258:	4c000002 	stcmi	0, cr0, [r0], {2}
    a25c:	05081801 	streq	r1, [r8, #-2049]	; 0xfffff7ff
    a260:	7f050000 	svcvc	0x00050000
    a264:	00085502 	andeq	r5, r8, r2, lsl #10
    a268:	1802dc00 	stmdane	r2, {sl, fp, ip, lr, pc}
    a26c:	0000015b 	andeq	r0, r0, fp, asr r1
    a270:	06028405 	streq	r8, [r2], -r5, lsl #8
    a274:	e0000006 	and	r0, r0, r6
    a278:	01401802 	cmpeq	r0, r2, lsl #16
    a27c:	85050000 	strhi	r0, [r5, #-0]
    a280:	00086102 	andeq	r6, r8, r2, lsl #2
    a284:	0002ec00 	andeq	lr, r2, r0, lsl #24
    a288:	0411040d 	ldreq	r0, [r1], #-1037	; 0xfffffbf3
    a28c:	25140000 	ldrcs	r0, [r4, #-0]
    a290:	90000000 	andls	r0, r0, r0
    a294:	15000005 	strne	r0, [r0, #-5]
    a298:	0000042f 	andeq	r0, r0, pc, lsr #8
    a29c:	00011015 	andeq	r1, r1, r5, lsl r0
    a2a0:	05901500 	ldreq	r1, [r0, #1280]	; 0x500
    a2a4:	25150000 	ldrcs	r0, [r5, #-0]
    a2a8:	00000000 	andeq	r0, r0, r0
    a2ac:	011f040d 	tsteq	pc, sp, lsl #8
    a2b0:	040d0000 	streq	r0, [sp], #-0
    a2b4:	00000572 	andeq	r0, r0, r2, ror r5
    a2b8:	00008c14 	andeq	r8, r0, r4, lsl ip
    a2bc:	0005ba00 	andeq	fp, r5, r0, lsl #20
    a2c0:	042f1500 	strteq	r1, [pc], #-1280	; a2c8 <__bss_end__+0x750>
    a2c4:	10150000 	andsne	r0, r5, r0
    a2c8:	15000001 	strne	r0, [r0, #-1]
    a2cc:	0000008c 	andeq	r0, r0, ip, lsl #1
    a2d0:	00002515 	andeq	r2, r0, r5, lsl r5
    a2d4:	040d0000 	streq	r0, [sp], #-0
    a2d8:	0000059c 	muleq	r0, ip, r5
    a2dc:	00002514 	andeq	r2, r0, r4, lsl r5
    a2e0:	0005d400 	andeq	sp, r5, r0, lsl #8
    a2e4:	042f1500 	strteq	r1, [pc], #-1280	; a2ec <__bss_end__+0x774>
    a2e8:	10150000 	andsne	r0, r5, r0
    a2ec:	00000001 	andeq	r0, r0, r1
    a2f0:	05c0040d 	strbeq	r0, [r0, #1037]	; 0x40d
    a2f4:	45080000 	strmi	r0, [r8, #-0]
    a2f8:	ea000000 	b	a300 <__bss_end__+0x788>
    a2fc:	09000005 	stmdbeq	r0, {r0, r2}
    a300:	000000d2 	ldrdeq	r0, [r0], -r2
    a304:	45080002 	strmi	r0, [r8, #-2]
    a308:	fa000000 	blx	a310 <__bss_end__+0x798>
    a30c:	09000005 	stmdbeq	r0, {r0, r2}
    a310:	000000d2 	ldrdeq	r0, [r0], -r2
    a314:	8a050000 	bhi	14a31c <__bss_end__+0x1407a4>
    a318:	05000003 	streq	r0, [r0, #-3]
    a31c:	02e7011d 	rsceq	r0, r7, #1073741831	; 0x40000007
    a320:	cb190000 	blgt	64a328 <__bss_end__+0x6407b0>
    a324:	0c000004 	stceq	0, cr0, [r0], {4}
    a328:	3b012105 	blcc	52744 <__bss_end__+0x48bcc>
    a32c:	17000006 	strne	r0, [r0, -r6]
    a330:	000003b2 			; <UNDEFINED> instruction: 0x000003b2
    a334:	3b012305 	blcc	52f50 <__bss_end__+0x493d8>
    a338:	00000006 	andeq	r0, r0, r6
    a33c:	00025217 	andeq	r5, r2, r7, lsl r2
    a340:	01240500 			; <UNDEFINED> instruction: 0x01240500
    a344:	00000025 	andeq	r0, r0, r5, lsr #32
    a348:	03841704 	orreq	r1, r4, #4, 14	; 0x100000
    a34c:	25050000 	strcs	r0, [r5, #-0]
    a350:	00064101 	andeq	r4, r6, r1, lsl #2
    a354:	0d000800 	stceq	8, cr0, [r0, #-0]
    a358:	00060604 	andeq	r0, r6, r4, lsl #12
    a35c:	fa040d00 	blx	10d764 <__bss_end__+0x103bec>
    a360:	19000005 	stmdbne	r0, {r0, r2}
    a364:	00000088 	andeq	r0, r0, r8, lsl #1
    a368:	013d050e 	teqeq	sp, lr, lsl #10
    a36c:	0000067c 	andeq	r0, r0, ip, ror r6
    a370:	0003f817 	andeq	pc, r3, r7, lsl r8	; <UNPREDICTABLE>
    a374:	013e0500 	teqeq	lr, r0, lsl #10
    a378:	0000067c 	andeq	r0, r0, ip, ror r6
    a37c:	043f1700 	ldrteq	r1, [pc], #-1792	; a384 <__bss_end__+0x80c>
    a380:	3f050000 	svccc	0x00050000
    a384:	00067c01 	andeq	r7, r6, r1, lsl #24
    a388:	67170600 	ldrvs	r0, [r7, -r0, lsl #12]
    a38c:	05000004 	streq	r0, [r0, #-4]
    a390:	00530140 	subseq	r0, r3, r0, asr #2
    a394:	000c0000 	andeq	r0, ip, r0
    a398:	00005308 	andeq	r5, r0, r8, lsl #6
    a39c:	00068c00 	andeq	r8, r6, r0, lsl #24
    a3a0:	00d20900 	sbcseq	r0, r2, r0, lsl #18
    a3a4:	00020000 	andeq	r0, r2, r0
    a3a8:	5705d01a 	smladpl	r5, sl, r0, sp
    a3ac:	00078d02 	andeq	r8, r7, r2, lsl #26
    a3b0:	04a61700 	strteq	r1, [r6], #1792	; 0x700
    a3b4:	59050000 	stmdbpl	r5, {}	; <UNPREDICTABLE>
    a3b8:	00003702 	andeq	r3, r0, r2, lsl #14
    a3bc:	51170000 	tstpl	r7, r0
    a3c0:	05000004 	streq	r0, [r0, #-4]
    a3c4:	0112025a 	tsteq	r2, sl, asr r2
    a3c8:	17040000 	strne	r0, [r4, -r0]
    a3cc:	0000028b 	andeq	r0, r0, fp, lsl #5
    a3d0:	8d025b05 	vstrhi	d5, [r2, #-20]	; 0xffffffec
    a3d4:	08000007 	stmdaeq	r0, {r0, r1, r2}
    a3d8:	00053617 	andeq	r3, r5, r7, lsl r6
    a3dc:	025c0500 	subseq	r0, ip, #0, 10
    a3e0:	00000198 	muleq	r0, r8, r1
    a3e4:	01e61724 	mvneq	r1, r4, lsr #14
    a3e8:	5d050000 	stcpl	0, cr0, [r5, #-0]
    a3ec:	00002502 	andeq	r2, r0, r2, lsl #10
    a3f0:	ad174800 	ldcge	8, cr4, [r7, #-0]
    a3f4:	05000003 	streq	r0, [r0, #-3]
    a3f8:	006f025e 	rsbeq	r0, pc, lr, asr r2	; <UNPREDICTABLE>
    a3fc:	17500000 	ldrbne	r0, [r0, -r0]
    a400:	0000054c 	andeq	r0, r0, ip, asr #10
    a404:	47025f05 	strmi	r5, [r2, -r5, lsl #30]
    a408:	58000006 	stmdapl	r0, {r1, r2}
    a40c:	0003b817 	andeq	fp, r3, r7, lsl r8
    a410:	02600500 	rsbeq	r0, r0, #0, 10
    a414:	000000fa 	strdeq	r0, [r0], -sl
    a418:	05511768 	ldrbeq	r1, [r1, #-1896]	; 0xfffff898
    a41c:	61050000 	mrsvs	r0, (UNDEF: 5)
    a420:	0000fa02 	andeq	pc, r0, r2, lsl #20
    a424:	fc177000 	ldc2	0, cr7, [r7], {-0}
    a428:	05000000 	streq	r0, [r0, #-0]
    a42c:	00fa0262 	rscseq	r0, sl, r2, ror #4
    a430:	17780000 	ldrbne	r0, [r8, -r0]!
    a434:	000004fe 	strdeq	r0, [r0], -lr
    a438:	9d026305 	stcls	3, cr6, [r2, #-20]	; 0xffffffec
    a43c:	80000007 	andhi	r0, r0, r7
    a440:	00027f17 	andeq	r7, r2, r7, lsl pc
    a444:	02640500 	rsbeq	r0, r4, #0, 10
    a448:	000007ad 	andeq	r0, r0, sp, lsr #15
    a44c:	04741788 	ldrbteq	r1, [r4], #-1928	; 0xfffff878
    a450:	65050000 	strvs	r0, [r5, #-0]
    a454:	00002502 	andeq	r2, r0, r2, lsl #10
    a458:	ac17a000 	ldcge	0, cr10, [r7], {-0}
    a45c:	05000001 	streq	r0, [r0, #-1]
    a460:	00fa0266 	rscseq	r0, sl, r6, ror #4
    a464:	17a40000 	strne	r0, [r4, r0]!
    a468:	000000ed 	andeq	r0, r0, sp, ror #1
    a46c:	fa026705 	blx	a4088 <__bss_end__+0x9a510>
    a470:	ac000000 	stcge	0, cr0, [r0], {-0}
    a474:	00019b17 	andeq	r9, r1, r7, lsl fp
    a478:	02680500 	rsbeq	r0, r8, #0, 10
    a47c:	000000fa 	strdeq	r0, [r0], -sl
    a480:	00ad17b4 	strhteq	r1, [sp], r4
    a484:	69050000 	stmdbvs	r5, {}	; <UNPREDICTABLE>
    a488:	0000fa02 	andeq	pc, r0, r2, lsl #20
    a48c:	bc17bc00 	ldclt	12, cr11, [r7], {-0}
    a490:	05000000 	streq	r0, [r0, #-0]
    a494:	00fa026a 	rscseq	r0, sl, sl, ror #4
    a498:	17c40000 	strbne	r0, [r4, r0]
    a49c:	00000360 	andeq	r0, r0, r0, ror #6
    a4a0:	25026b05 	strcs	r6, [r2, #-2821]	; 0xfffff4fb
    a4a4:	cc000000 	stcgt	0, cr0, [r0], {-0}
    a4a8:	01180800 	tsteq	r8, r0, lsl #16
    a4ac:	079d0000 	ldreq	r0, [sp, r0]
    a4b0:	d2090000 	andle	r0, r9, #0
    a4b4:	19000000 	stmdbne	r0, {}	; <UNPREDICTABLE>
    a4b8:	01180800 	tsteq	r8, r0, lsl #16
    a4bc:	07ad0000 	streq	r0, [sp, r0]!
    a4c0:	d2090000 	andle	r0, r9, #0
    a4c4:	07000000 	streq	r0, [r0, -r0]
    a4c8:	01180800 	tsteq	r8, r0, lsl #16
    a4cc:	07bd0000 	ldreq	r0, [sp, r0]!
    a4d0:	d2090000 	andle	r0, r9, #0
    a4d4:	17000000 	strne	r0, [r0, -r0]
    a4d8:	05f01a00 	ldrbeq	r1, [r0, #2560]!	; 0xa00
    a4dc:	07e10270 			; <UNDEFINED> instruction: 0x07e10270
    a4e0:	0c170000 	ldceq	0, cr0, [r7], {-0}
    a4e4:	05000003 	streq	r0, [r0, #-3]
    a4e8:	07e10273 			; <UNDEFINED> instruction: 0x07e10273
    a4ec:	17000000 	strne	r0, [r0, -r0]
    a4f0:	000002ef 	andeq	r0, r0, pc, ror #5
    a4f4:	f1027405 			; <UNDEFINED> instruction: 0xf1027405
    a4f8:	78000007 	stmdavc	r0, {r0, r1, r2}
    a4fc:	02e10800 	rsceq	r0, r1, #0, 16
    a500:	07f10000 	ldrbeq	r0, [r1, r0]!
    a504:	d2090000 	andle	r0, r9, #0
    a508:	1d000000 	stcne	0, cr0, [r0, #-0]
    a50c:	00370800 	eorseq	r0, r7, r0, lsl #16
    a510:	08010000 	stmdaeq	r1, {}	; <UNPREDICTABLE>
    a514:	d2090000 	andle	r0, r9, #0
    a518:	1d000000 	stcne	0, cr0, [r0, #-0]
    a51c:	05f01b00 	ldrbeq	r1, [r0, #2816]!	; 0xb00
    a520:	08230255 	stmdaeq	r3!, {r0, r2, r4, r6, r9}
    a524:	f11c0000 			; <UNDEFINED> instruction: 0xf11c0000
    a528:	05000003 	streq	r0, [r0, #-3]
    a52c:	068c026c 	streq	r0, [ip], ip, ror #4
    a530:	231c0000 	tstcs	ip, #0
    a534:	05000005 	streq	r0, [r0, #-5]
    a538:	07bd0275 			; <UNDEFINED> instruction: 0x07bd0275
    a53c:	08000000 	stmdaeq	r0, {}	; <UNPREDICTABLE>
    a540:	00000118 	andeq	r0, r0, r8, lsl r1
    a544:	00000833 	andeq	r0, r0, r3, lsr r8
    a548:	0000d209 	andeq	sp, r0, r9, lsl #4
    a54c:	1d001800 	stcne	8, cr1, [r0, #-0]
    a550:	0000083e 	andeq	r0, r0, lr, lsr r8
    a554:	00042f15 	andeq	r2, r4, r5, lsl pc
    a558:	040d0000 	streq	r0, [sp], #-0
    a55c:	00000833 	andeq	r0, r0, r3, lsr r8
    a560:	0182040d 	orreq	r0, r2, sp, lsl #8
    a564:	551d0000 	ldrpl	r0, [sp, #-0]
    a568:	15000008 	strne	r0, [r0, #-8]
    a56c:	00000025 	andeq	r0, r0, r5, lsr #32
    a570:	5b040d00 	blpl	10d978 <__bss_end__+0x103e00>
    a574:	0d000008 	stceq	0, cr0, [r0, #-32]	; 0xffffffe0
    a578:	00084a04 	andeq	r4, r8, r4, lsl #20
    a57c:	05fa0800 	ldrbeq	r0, [sl, #2048]!	; 0x800
    a580:	08710000 	ldmdaeq	r1!, {}^	; <UNPREDICTABLE>
    a584:	d2090000 	andle	r0, r9, #0
    a588:	02000000 	andeq	r0, r0, #0
    a58c:	04881e00 	streq	r1, [r8], #3584	; 0xe00
    a590:	fd050000 	stc2	0, cr0, [r5, #-0]
    a594:	00042f02 	andeq	r2, r4, r2, lsl #30
    a598:	04811e00 	streq	r1, [r1], #3584	; 0xe00
    a59c:	fe050000 	cdp2	0, 0, cr0, cr5, cr0, {0}
    a5a0:	00043502 	andeq	r3, r4, r2, lsl #10
    a5a4:	0ce51f00 	stcleq	15, cr1, [r5]
    a5a8:	19060000 	stmdbne	r6, {}	; <UNPREDICTABLE>
    a5ac:	00000110 	andeq	r0, r0, r0, lsl r1
    a5b0:	000092c4 	andeq	r9, r0, r4, asr #5
    a5b4:	00000020 	andeq	r0, r0, r0, lsr #32
    a5b8:	5f209c01 	svcpl	0x00209c01
    a5bc:	03010070 	movweq	r0, #4208	; 0x1070
    a5c0:	00000110 	andeq	r0, r0, r0, lsl r1
    a5c4:	63205001 			; <UNDEFINED> instruction: 0x63205001
    a5c8:	25030100 	strcs	r0, [r3, #-256]	; 0xffffff00
    a5cc:	01000000 	mrseq	r0, (UNDEF: 0)
    a5d0:	006e2151 	rsbeq	r2, lr, r1, asr r1
    a5d4:	002c0301 	eoreq	r0, ip, r1, lsl #6
    a5d8:	0dc50000 	stcleq	0, cr0, [r5]
    a5dc:	70220000 	eorvc	r0, r2, r0
    a5e0:	12040100 	andne	r0, r4, #0, 2
    a5e4:	e6000001 	str	r0, [r0], -r1
    a5e8:	2300000d 	movwcs	r0, #13
    a5ec:	04010065 	streq	r0, [r1], #-101	; 0xffffff9b
    a5f0:	00000112 	andeq	r0, r0, r2, lsl r1
    a5f4:	00005201 	andeq	r5, r0, r1, lsl #4

Disassembly of section .debug_abbrev:

00000000 <.debug_abbrev>:
       0:	25011101 	strcs	r1, [r1, #-257]	; 0xfffffeff
       4:	030b130e 	movweq	r1, #45838	; 0xb30e
       8:	110e1b0e 	tstne	lr, lr, lsl #22
       c:	10061201 	andne	r1, r6, r1, lsl #4
      10:	02000017 	andeq	r0, r0, #23
      14:	0b0b0024 	bleq	2c00ac <__bss_end__+0x2b6534>
      18:	08030b3e 	stmdaeq	r3, {r1, r2, r3, r4, r5, r8, r9, fp}
      1c:	24030000 	strcs	r0, [r3], #-0
      20:	3e0b0b00 	vmlacc.f64	d0, d11, d0
      24:	000e030b 	andeq	r0, lr, fp, lsl #6
      28:	00160400 	andseq	r0, r6, r0, lsl #8
      2c:	0b3a0e03 	bleq	e83840 <__bss_end__+0xe79cc8>
      30:	13490b3b 	movtne	r0, #39739	; 0x9b3b
      34:	16050000 	strne	r0, [r5], -r0
      38:	3a0e0300 	bcc	380c40 <__bss_end__+0x3770c8>
      3c:	49053b0b 	stmdbmi	r5, {r0, r1, r3, r8, r9, fp, ip, sp}
      40:	06000013 			; <UNDEFINED> instruction: 0x06000013
      44:	0b0b0117 	bleq	2c04a8 <__bss_end__+0x2b6930>
      48:	0b3b0b3a 	bleq	ec2d38 <__bss_end__+0xeb91c0>
      4c:	00001301 	andeq	r1, r0, r1, lsl #6
      50:	03000d07 	movweq	r0, #3335	; 0xd07
      54:	3b0b3a0e 	blcc	2ce894 <__bss_end__+0x2c4d1c>
      58:	0013490b 	andseq	r4, r3, fp, lsl #18
      5c:	01010800 	tsteq	r1, r0, lsl #16
      60:	13011349 	movwne	r1, #4937	; 0x1349
      64:	21090000 	mrscs	r0, (UNDEF: 9)
      68:	2f134900 	svccs	0x00134900
      6c:	0a00000b 	beq	a0 <_start-0x7f60>
      70:	0b0b0113 	bleq	2c04c4 <__bss_end__+0x2b694c>
      74:	0b3b0b3a 	bleq	ec2d64 <__bss_end__+0xeb91ec>
      78:	00001301 	andeq	r1, r0, r1, lsl #6
      7c:	03000d0b 	movweq	r0, #3339	; 0xd0b
      80:	3b0b3a0e 	blcc	2ce8c0 <__bss_end__+0x2c4d48>
      84:	3813490b 	ldmdacc	r3, {r0, r1, r3, r8, fp, lr}
      88:	0c00000b 	stceq	0, cr0, [r0], {11}
      8c:	0b0b000f 	bleq	2c00d0 <__bss_end__+0x2b6558>
      90:	0f0d0000 	svceq	0x000d0000
      94:	490b0b00 	stmdbmi	fp, {r8, r9, fp}
      98:	0e000013 	mcreq	0, 0, r0, cr0, cr3, {0}
      9c:	13490026 	movtne	r0, #36902	; 0x9026
      a0:	130f0000 	movwne	r0, #61440	; 0xf000
      a4:	0b0e0301 	bleq	380cb0 <__bss_end__+0x377138>
      a8:	3b0b3a0b 	blcc	2ce8dc <__bss_end__+0x2c4d64>
      ac:	0013010b 	andseq	r0, r3, fp, lsl #2
      b0:	000d1000 	andeq	r1, sp, r0
      b4:	0b3a0803 	bleq	e820c8 <__bss_end__+0xe78550>
      b8:	13490b3b 	movtne	r0, #39739	; 0x9b3b
      bc:	00000b38 	andeq	r0, r0, r8, lsr fp
      c0:	03011311 	movweq	r1, #4881	; 0x1311
      c4:	3a050b0e 	bcc	142d04 <__bss_end__+0x13918c>
      c8:	010b3b0b 	tsteq	fp, fp, lsl #22
      cc:	12000013 	andne	r0, r0, #19
      d0:	0e03000d 	cdpeq	0, 0, cr0, cr3, cr13, {0}
      d4:	0b3b0b3a 	bleq	ec2dc4 <__bss_end__+0xeb924c>
      d8:	05381349 	ldreq	r1, [r8, #-841]!	; 0xfffffcb7
      dc:	15130000 	ldrne	r0, [r3, #-0]
      e0:	00192700 	andseq	r2, r9, r0, lsl #14
      e4:	01151400 	tsteq	r5, r0, lsl #8
      e8:	13491927 	movtne	r1, #39207	; 0x9927
      ec:	00001301 	andeq	r1, r0, r1, lsl #6
      f0:	49000515 	stmdbmi	r0, {r0, r2, r4, r8, sl}
      f4:	16000013 			; <UNDEFINED> instruction: 0x16000013
      f8:	0e030113 	mcreq	1, 0, r0, cr3, cr3, {0}
      fc:	0b3a050b 	bleq	e81530 <__bss_end__+0xe779b8>
     100:	1301053b 	movwne	r0, #5435	; 0x153b
     104:	0d170000 	ldceq	0, cr0, [r7, #-0]
     108:	3a0e0300 	bcc	380d10 <__bss_end__+0x377198>
     10c:	49053b0b 	stmdbmi	r5, {r0, r1, r3, r8, r9, fp, ip, sp}
     110:	000b3813 	andeq	r3, fp, r3, lsl r8
     114:	000d1800 	andeq	r1, sp, r0, lsl #16
     118:	0b3a0e03 	bleq	e8392c <__bss_end__+0xe79db4>
     11c:	1349053b 	movtne	r0, #38203	; 0x953b
     120:	00000538 	andeq	r0, r0, r8, lsr r5
     124:	03011319 	movweq	r1, #4889	; 0x1319
     128:	3a0b0b0e 	bcc	2c2d68 <__bss_end__+0x2b91f0>
     12c:	01053b0b 	tsteq	r5, fp, lsl #22
     130:	1a000013 	bne	184 <_start-0x7e7c>
     134:	0b0b0113 	bleq	2c0588 <__bss_end__+0x2b6a10>
     138:	053b0b3a 	ldreq	r0, [fp, #-2874]!	; 0xfffff4c6
     13c:	00001301 	andeq	r1, r0, r1, lsl #6
     140:	0b01171b 	bleq	45db4 <__bss_end__+0x3c23c>
     144:	3b0b3a0b 	blcc	2ce978 <__bss_end__+0x2c4e00>
     148:	00130105 	andseq	r0, r3, r5, lsl #2
     14c:	000d1c00 	andeq	r1, sp, r0, lsl #24
     150:	0b3a0e03 	bleq	e83964 <__bss_end__+0xe79dec>
     154:	1349053b 	movtne	r0, #38203	; 0x953b
     158:	151d0000 	ldrne	r0, [sp, #-0]
     15c:	01192701 	tsteq	r9, r1, lsl #14
     160:	1e000013 	mcrne	0, 0, r0, cr0, cr3, {0}
     164:	0e030034 	mcreq	0, 0, r0, cr3, cr4, {1}
     168:	053b0b3a 	ldreq	r0, [fp, #-2874]!	; 0xfffff4c6
     16c:	193f1349 	ldmdbne	pc!, {r0, r3, r6, r8, r9, ip}	; <UNPREDICTABLE>
     170:	0000193c 	andeq	r1, r0, ip, lsr r9
     174:	0300341f 	movweq	r3, #1055	; 0x41f
     178:	3b0b3a0e 	blcc	2ce9b8 <__bss_end__+0x2c4e40>
     17c:	3f13490b 	svccc	0x0013490b
     180:	00193c19 	andseq	r3, r9, r9, lsl ip
     184:	012e2000 			; <UNDEFINED> instruction: 0x012e2000
     188:	0e03193f 			; <UNDEFINED> instruction: 0x0e03193f
     18c:	0b3b0b3a 	bleq	ec2e7c <__bss_end__+0xeb9304>
     190:	01111927 	tsteq	r1, r7, lsr #18
     194:	18400612 	stmdane	r0, {r1, r4, r9, sl}^
     198:	01194297 			; <UNDEFINED> instruction: 0x01194297
     19c:	21000013 	tstcs	r0, r3, lsl r0
     1a0:	0b0b0104 	bleq	2c05b8 <__bss_end__+0x2b6a40>
     1a4:	0b3a1349 	bleq	e84ed0 <__bss_end__+0xe7b358>
     1a8:	13010b3b 	movwne	r0, #6971	; 0x1b3b
     1ac:	28220000 	stmdacs	r2!, {}	; <UNPREDICTABLE>
     1b0:	1c0e0300 	stcne	3, cr0, [lr], {-0}
     1b4:	2300000b 	movwcs	r0, #11
     1b8:	08030034 	stmdaeq	r3, {r2, r4, r5}
     1bc:	0b3b0b3a 	bleq	ec2eac <__bss_end__+0xeb9334>
     1c0:	17021349 	strne	r1, [r2, -r9, asr #6]
     1c4:	34240000 	strtcc	r0, [r4], #-0
     1c8:	490e0300 	stmdbmi	lr, {r8, r9}
     1cc:	02193413 	andseq	r3, r9, #318767104	; 0x13000000
     1d0:	25000018 	strcs	r0, [r0, #-24]	; 0xffffffe8
     1d4:	0111010b 	tsteq	r1, fp, lsl #2
     1d8:	13010612 	movwne	r0, #5650	; 0x1612
     1dc:	0b260000 	bleq	9801e4 <__bss_end__+0x97666c>
     1e0:	12011101 	andne	r1, r1, #1073741824	; 0x40000000
     1e4:	27000006 	strcs	r0, [r0, -r6]
     1e8:	01018289 	smlabbeq	r1, r9, r2, r8
     1ec:	13310111 	teqne	r1, #1073741828	; 0x40000004
     1f0:	00001301 	andeq	r1, r0, r1, lsl #6
     1f4:	01828a28 	orreq	r8, r2, r8, lsr #20
     1f8:	91180200 	tstls	r8, r0, lsl #4
     1fc:	00001842 	andeq	r1, r0, r2, asr #16
     200:	01828929 	orreq	r8, r2, r9, lsr #18
     204:	31011101 	tstcc	r1, r1, lsl #2
     208:	2a000013 	bcs	25c <_start-0x7da4>
     20c:	00018289 	andeq	r8, r1, r9, lsl #5
     210:	13310111 	teqne	r1, #1073741828	; 0x40000004
     214:	2e2b0000 	cdpcs	0, 2, cr0, cr11, cr0, {0}
     218:	3a0e0301 	bcc	380e24 <__bss_end__+0x3772ac>
     21c:	270b3b0b 	strcs	r3, [fp, -fp, lsl #22]
     220:	11134919 	tstne	r3, r9, lsl r9
     224:	40061201 	andmi	r1, r6, r1, lsl #4
     228:	19429718 	stmdbne	r2, {r3, r4, r8, r9, sl, ip, pc}^
     22c:	00001301 	andeq	r1, r0, r1, lsl #6
     230:	0300052c 	movweq	r0, #1324	; 0x52c
     234:	3b0b3a0e 	blcc	2cea74 <__bss_end__+0x2c4efc>
     238:	0213490b 	andseq	r4, r3, #180224	; 0x2c000
     23c:	2d000017 	stccs	0, cr0, [r0, #-92]	; 0xffffffa4
     240:	08030005 	stmdaeq	r3, {r0, r2}
     244:	0b3b0b3a 	bleq	ec2f34 <__bss_end__+0xeb93bc>
     248:	17021349 	strne	r1, [r2, -r9, asr #6]
     24c:	342e0000 	strtcc	r0, [lr], #-0
     250:	3a0e0300 	bcc	380e58 <__bss_end__+0x3772e0>
     254:	490b3b0b 	stmdbmi	fp, {r0, r1, r3, r8, r9, fp, ip, sp}
     258:	00180213 	andseq	r0, r8, r3, lsl r2
     25c:	00342f00 	eorseq	r2, r4, r0, lsl #30
     260:	0b3a0803 	bleq	e82274 <__bss_end__+0xe786fc>
     264:	13490b3b 	movtne	r0, #39739	; 0x9b3b
     268:	00000b1c 	andeq	r0, r0, ip, lsl fp
     26c:	03012e30 	movweq	r2, #7728	; 0x1e30
     270:	3b0b3a0e 	blcc	2ceab0 <__bss_end__+0x2c4f38>
     274:	1119270b 	tstne	r9, fp, lsl #14
     278:	40061201 	andmi	r1, r6, r1, lsl #4
     27c:	19429718 	stmdbne	r2, {r3, r4, r8, r9, sl, ip, pc}^
     280:	00001301 	andeq	r1, r0, r1, lsl #6
     284:	03003431 	movweq	r3, #1073	; 0x431
     288:	3b0b3a08 	blcc	2ceab0 <__bss_end__+0x2c4f38>
     28c:	0213490b 	andseq	r4, r3, #180224	; 0x2c000
     290:	32000018 	andcc	r0, r0, #24
     294:	193f002e 	ldmdbne	pc!, {r1, r2, r3, r5}	; <UNPREDICTABLE>
     298:	0e6e193c 			; <UNDEFINED> instruction: 0x0e6e193c
     29c:	0b3a0e03 	bleq	e83ab0 <__bss_end__+0xe79f38>
     2a0:	00000b3b 	andeq	r0, r0, fp, lsr fp
     2a4:	01110100 	tsteq	r1, r0, lsl #2
     2a8:	0b130e25 	bleq	4c3b44 <__bss_end__+0x4b9fcc>
     2ac:	0e1b0e03 	cdpeq	14, 1, cr0, cr11, cr3, {0}
     2b0:	06120111 			; <UNDEFINED> instruction: 0x06120111
     2b4:	00001710 	andeq	r1, r0, r0, lsl r7
     2b8:	0b002402 	bleq	92c8 <memset+0x4>
     2bc:	030b3e0b 	movweq	r3, #48651	; 0xbe0b
     2c0:	03000008 	movweq	r0, #8
     2c4:	0b0b0024 	bleq	2c035c <__bss_end__+0x2b67e4>
     2c8:	0e030b3e 	vmoveq.16	d3[0], r0
     2cc:	26040000 	strcs	r0, [r4], -r0
     2d0:	00134900 	andseq	r4, r3, r0, lsl #18
     2d4:	00160500 	andseq	r0, r6, r0, lsl #10
     2d8:	0b3a0e03 	bleq	e83aec <__bss_end__+0xe79f74>
     2dc:	13490b3b 	movtne	r0, #39739	; 0x9b3b
     2e0:	16060000 	strne	r0, [r6], -r0
     2e4:	3a0e0300 	bcc	380eec <__bss_end__+0x377374>
     2e8:	49053b0b 	stmdbmi	r5, {r0, r1, r3, r8, r9, fp, ip, sp}
     2ec:	07000013 	smladeq	r0, r3, r0, r0
     2f0:	0b0b0117 	bleq	2c0754 <__bss_end__+0x2b6bdc>
     2f4:	0b3b0b3a 	bleq	ec2fe4 <__bss_end__+0xeb946c>
     2f8:	00001301 	andeq	r1, r0, r1, lsl #6
     2fc:	03000d08 	movweq	r0, #3336	; 0xd08
     300:	3b0b3a0e 	blcc	2ceb40 <__bss_end__+0x2c4fc8>
     304:	0013490b 	andseq	r4, r3, fp, lsl #18
     308:	01010900 	tsteq	r1, r0, lsl #18
     30c:	13011349 	movwne	r1, #4937	; 0x1349
     310:	210a0000 	mrscs	r0, (UNDEF: 10)
     314:	2f134900 	svccs	0x00134900
     318:	0b00000b 	bleq	34c <_start-0x7cb4>
     31c:	0b0b0113 	bleq	2c0770 <__bss_end__+0x2b6bf8>
     320:	0b3b0b3a 	bleq	ec3010 <__bss_end__+0xeb9498>
     324:	00001301 	andeq	r1, r0, r1, lsl #6
     328:	03000d0c 	movweq	r0, #3340	; 0xd0c
     32c:	3b0b3a0e 	blcc	2ceb6c <__bss_end__+0x2c4ff4>
     330:	3813490b 	ldmdacc	r3, {r0, r1, r3, r8, fp, lr}
     334:	0d00000b 	stceq	0, cr0, [r0, #-44]	; 0xffffffd4
     338:	0b0b000f 	bleq	2c037c <__bss_end__+0x2b6804>
     33c:	0f0e0000 	svceq	0x000e0000
     340:	490b0b00 	stmdbmi	fp, {r8, r9, fp}
     344:	0f000013 	svceq	0x00000013
     348:	0e030113 	mcreq	1, 0, r0, cr3, cr3, {0}
     34c:	0b3a0b0b 	bleq	e82f80 <__bss_end__+0xe79408>
     350:	13010b3b 	movwne	r0, #6971	; 0x1b3b
     354:	0d100000 	ldceq	0, cr0, [r0, #-0]
     358:	3a080300 	bcc	200f60 <__bss_end__+0x1f73e8>
     35c:	490b3b0b 	stmdbmi	fp, {r0, r1, r3, r8, r9, fp, ip, sp}
     360:	000b3813 	andeq	r3, fp, r3, lsl r8
     364:	01131100 	tsteq	r3, r0, lsl #2
     368:	050b0e03 	streq	r0, [fp, #-3587]	; 0xfffff1fd
     36c:	0b3b0b3a 	bleq	ec305c <__bss_end__+0xeb94e4>
     370:	00001301 	andeq	r1, r0, r1, lsl #6
     374:	03000d12 	movweq	r0, #3346	; 0xd12
     378:	3b0b3a0e 	blcc	2cebb8 <__bss_end__+0x2c5040>
     37c:	3813490b 	ldmdacc	r3, {r0, r1, r3, r8, fp, lr}
     380:	13000005 	movwne	r0, #5
     384:	19270015 	stmdbne	r7!, {r0, r2, r4}
     388:	15140000 	ldrne	r0, [r4, #-0]
     38c:	49192701 	ldmdbmi	r9, {r0, r8, r9, sl, sp}
     390:	00130113 	andseq	r0, r3, r3, lsl r1
     394:	00051500 	andeq	r1, r5, r0, lsl #10
     398:	00001349 	andeq	r1, r0, r9, asr #6
     39c:	03011316 	movweq	r1, #4886	; 0x1316
     3a0:	3a050b0e 	bcc	142fe0 <__bss_end__+0x139468>
     3a4:	01053b0b 	tsteq	r5, fp, lsl #22
     3a8:	17000013 	smladne	r0, r3, r0, r0
     3ac:	0e03000d 	cdpeq	0, 0, cr0, cr3, cr13, {0}
     3b0:	053b0b3a 	ldreq	r0, [fp, #-2874]!	; 0xfffff4c6
     3b4:	0b381349 	bleq	e050e0 <__bss_end__+0xdfb568>
     3b8:	0d180000 	ldceq	0, cr0, [r8, #-0]
     3bc:	3a0e0300 	bcc	380fc4 <__bss_end__+0x37744c>
     3c0:	49053b0b 	stmdbmi	r5, {r0, r1, r3, r8, r9, fp, ip, sp}
     3c4:	00053813 	andeq	r3, r5, r3, lsl r8
     3c8:	01131900 	tsteq	r3, r0, lsl #18
     3cc:	0b0b0e03 	bleq	2c3be0 <__bss_end__+0x2ba068>
     3d0:	053b0b3a 	ldreq	r0, [fp, #-2874]!	; 0xfffff4c6
     3d4:	00001301 	andeq	r1, r0, r1, lsl #6
     3d8:	0b01131a 	bleq	45048 <__bss_end__+0x3b4d0>
     3dc:	3b0b3a0b 	blcc	2cec10 <__bss_end__+0x2c5098>
     3e0:	00130105 	andseq	r0, r3, r5, lsl #2
     3e4:	01171b00 	tsteq	r7, r0, lsl #22
     3e8:	0b3a0b0b 	bleq	e8301c <__bss_end__+0xe794a4>
     3ec:	1301053b 	movwne	r0, #5435	; 0x153b
     3f0:	0d1c0000 	ldceq	0, cr0, [ip, #-0]
     3f4:	3a0e0300 	bcc	380ffc <__bss_end__+0x377484>
     3f8:	49053b0b 	stmdbmi	r5, {r0, r1, r3, r8, r9, fp, ip, sp}
     3fc:	1d000013 	stcne	0, cr0, [r0, #-76]	; 0xffffffb4
     400:	19270115 	stmdbne	r7!, {r0, r2, r4, r8}
     404:	00001301 	andeq	r1, r0, r1, lsl #6
     408:	0300341e 	movweq	r3, #1054	; 0x41e
     40c:	3b0b3a0e 	blcc	2cec4c <__bss_end__+0x2c50d4>
     410:	3f134905 	svccc	0x00134905
     414:	00193c19 	andseq	r3, r9, r9, lsl ip
     418:	00341f00 	eorseq	r1, r4, r0, lsl #30
     41c:	0b3a0e03 	bleq	e83c30 <__bss_end__+0xe7a0b8>
     420:	13490b3b 	movtne	r0, #39739	; 0x9b3b
     424:	193c193f 	ldmdbne	ip!, {r0, r1, r2, r3, r4, r5, r8, fp, ip}
     428:	04200000 	strteq	r0, [r0], #-0
     42c:	490b0b01 	stmdbmi	fp, {r0, r8, r9, fp}
     430:	3b0b3a13 	blcc	2cec84 <__bss_end__+0x2c510c>
     434:	0013010b 	andseq	r0, r3, fp, lsl #2
     438:	00282100 	eoreq	r2, r8, r0, lsl #2
     43c:	0b1c0e03 	bleq	703c50 <__bss_end__+0x6fa0d8>
     440:	0d220000 	stceq	0, cr0, [r2, #-0]
     444:	3a0e0300 	bcc	38104c <__bss_end__+0x3774d4>
     448:	490b3b0b 	stmdbmi	fp, {r0, r1, r3, r8, r9, fp, ip, sp}
     44c:	0d0b0b13 	vstreq	d0, [fp, #-76]	; 0xffffffb4
     450:	380b0c0b 	stmdacc	fp, {r0, r1, r3, sl, fp}
     454:	2300000b 	movwcs	r0, #11
     458:	0803000d 	stmdaeq	r3, {r0, r2, r3}
     45c:	0b3b0b3a 	bleq	ec314c <__bss_end__+0xeb95d4>
     460:	0b0b1349 	bleq	2c518c <__bss_end__+0x2bb614>
     464:	0b0c0b0d 	bleq	3030a0 <__bss_end__+0x2f9528>
     468:	00000b38 	andeq	r0, r0, r8, lsr fp
     46c:	49003524 	stmdbmi	r0, {r2, r5, r8, sl, ip, sp}
     470:	25000013 	strcs	r0, [r0, #-19]	; 0xffffffed
     474:	08030034 	stmdaeq	r3, {r2, r4, r5}
     478:	0b3b0b3a 	bleq	ec3168 <__bss_end__+0xeb95f0>
     47c:	00001349 	andeq	r1, r0, r9, asr #6
     480:	03003426 	movweq	r3, #1062	; 0x426
     484:	3b0b3a0e 	blcc	2cecc4 <__bss_end__+0x2c514c>
     488:	02134905 	andseq	r4, r3, #81920	; 0x14000
     48c:	27000018 	smladcs	r0, r8, r0, r0
     490:	0e03012e 	adfeqsp	f0, f3, #0.5
     494:	053b0b3a 	ldreq	r0, [fp, #-2874]!	; 0xfffff4c6
     498:	01111927 	tsteq	r1, r7, lsr #18
     49c:	18400612 	stmdane	r0, {r1, r4, r9, sl}^
     4a0:	01194297 			; <UNDEFINED> instruction: 0x01194297
     4a4:	28000013 	stmdacs	r0, {r0, r1, r4}
     4a8:	0e030034 	mcreq	0, 0, r0, cr3, cr4, {1}
     4ac:	19341349 	ldmdbne	r4!, {r0, r3, r6, r8, r9, ip}
     4b0:	00001802 	andeq	r1, r0, r2, lsl #16
     4b4:	01010b29 	tsteq	r1, r9, lsr #22
     4b8:	2a000013 	bcs	50c <_start-0x7af4>
     4bc:	08030117 	stmdaeq	r3, {r0, r1, r2, r4, r8}
     4c0:	0b3a0b0b 	bleq	e830f4 <__bss_end__+0xe7957c>
     4c4:	1301053b 	movwne	r0, #5435	; 0x153b
     4c8:	0d2b0000 	stceq	0, cr0, [fp, #-0]
     4cc:	3a080300 	bcc	2010d4 <__bss_end__+0x1f755c>
     4d0:	49053b0b 	stmdbmi	r5, {r0, r1, r3, r8, r9, fp, ip, sp}
     4d4:	2c000013 	stccs	0, cr0, [r0], {19}
     4d8:	08030034 	stmdaeq	r3, {r2, r4, r5}
     4dc:	053b0b3a 	ldreq	r0, [fp, #-2874]!	; 0xfffff4c6
     4e0:	00001349 	andeq	r1, r0, r9, asr #6
     4e4:	0300342d 	movweq	r3, #1069	; 0x42d
     4e8:	3b0b3a0e 	blcc	2ced28 <__bss_end__+0x2c51b0>
     4ec:	00134905 	andseq	r4, r3, r5, lsl #18
     4f0:	010b2e00 	tsteq	fp, r0, lsl #28
     4f4:	06120111 			; <UNDEFINED> instruction: 0x06120111
     4f8:	342f0000 	strtcc	r0, [pc], #-0	; 500 <_start-0x7b00>
     4fc:	3a080300 	bcc	201104 <__bss_end__+0x1f758c>
     500:	49053b0b 	stmdbmi	r5, {r0, r1, r3, r8, r9, fp, ip, sp}
     504:	00051c13 	andeq	r1, r5, r3, lsl ip
     508:	012e3000 			; <UNDEFINED> instruction: 0x012e3000
     50c:	0e03193f 			; <UNDEFINED> instruction: 0x0e03193f
     510:	053b0b3a 	ldreq	r0, [fp, #-2874]!	; 0xfffff4c6
     514:	01111927 	tsteq	r1, r7, lsr #18
     518:	18400612 	stmdane	r0, {r1, r4, r9, sl}^
     51c:	01194297 			; <UNDEFINED> instruction: 0x01194297
     520:	31000013 	tstcc	r0, r3, lsl r0
     524:	08030034 	stmdaeq	r3, {r2, r4, r5}
     528:	053b0b3a 	ldreq	r0, [fp, #-2874]!	; 0xfffff4c6
     52c:	0b1c1349 	bleq	705258 <__bss_end__+0x6fb6e0>
     530:	89320000 	ldmdbhi	r2!, {}	; <UNPREDICTABLE>
     534:	11000182 	smlabbne	r0, r2, r1, r0
     538:	00133101 	andseq	r3, r3, r1, lsl #2
     53c:	82893300 	addhi	r3, r9, #0, 6
     540:	01110101 	tsteq	r1, r1, lsl #2
     544:	13011331 	movwne	r1, #4913	; 0x1331
     548:	8a340000 	bhi	d00550 <__bss_end__+0xcf69d8>
     54c:	02000182 	andeq	r0, r0, #-2147483616	; 0x80000020
     550:	18429118 	stmdane	r2, {r3, r4, r8, ip, pc}^
     554:	2e350000 	cdpcs	0, 3, cr0, cr5, cr0, {0}
     558:	03193f00 	tsteq	r9, #0, 30
     55c:	3b0b3a0e 	blcc	2ced9c <__bss_end__+0x2c5224>
     560:	49192705 	ldmdbmi	r9, {r0, r2, r8, r9, sl, sp}
     564:	12011113 	andne	r1, r1, #-1073741820	; 0xc0000004
     568:	97184006 	ldrls	r4, [r8, -r6]
     56c:	00001942 	andeq	r1, r0, r2, asr #18
     570:	3f012e36 	svccc	0x00012e36
     574:	3a0e0319 	bcc	3811e0 <__bss_end__+0x377668>
     578:	27053b0b 	strcs	r3, [r5, -fp, lsl #22]
     57c:	11134919 	tstne	r3, r9, lsl r9
     580:	40061201 	andmi	r1, r6, r1, lsl #4
     584:	19429718 	stmdbne	r2, {r3, r4, r8, r9, sl, ip, pc}^
     588:	00001301 	andeq	r1, r0, r1, lsl #6
     58c:	03000537 	movweq	r0, #1335	; 0x537
     590:	3b0b3a0e 	blcc	2cedd0 <__bss_end__+0x2c5258>
     594:	02134905 	andseq	r4, r3, #81920	; 0x14000
     598:	38000017 	stmdacc	r0, {r0, r1, r2, r4}
     59c:	0111010b 	tsteq	r1, fp, lsl #2
     5a0:	13010612 	movwne	r0, #5650	; 0x1612
     5a4:	34390000 	ldrtcc	r0, [r9], #-0
     5a8:	3a080300 	bcc	2011b0 <__bss_end__+0x1f7638>
     5ac:	49053b0b 	stmdbmi	r5, {r0, r1, r3, r8, r9, fp, ip, sp}
     5b0:	00170213 	andseq	r0, r7, r3, lsl r2
     5b4:	012e3a00 			; <UNDEFINED> instruction: 0x012e3a00
     5b8:	0b3a0e03 	bleq	e83dcc <__bss_end__+0xe7a254>
     5bc:	19270b3b 	stmdbne	r7!, {r0, r1, r3, r4, r5, r8, r9, fp}
     5c0:	06120111 			; <UNDEFINED> instruction: 0x06120111
     5c4:	42971840 	addsmi	r1, r7, #64, 16	; 0x400000
     5c8:	00130119 	andseq	r0, r3, r9, lsl r1
     5cc:	00053b00 	andeq	r3, r5, r0, lsl #22
     5d0:	0b3a0e03 	bleq	e83de4 <__bss_end__+0xe7a26c>
     5d4:	13490b3b 	movtne	r0, #39739	; 0x9b3b
     5d8:	00001702 	andeq	r1, r0, r2, lsl #14
     5dc:	0300343c 	movweq	r3, #1084	; 0x43c
     5e0:	3b0b3a08 	blcc	2cee08 <__bss_end__+0x2c5290>
     5e4:	0213490b 	andseq	r4, r3, #180224	; 0x2c000
     5e8:	3d000017 	stccc	0, cr0, [r0, #-92]	; 0xffffffa4
     5ec:	08030117 	stmdaeq	r3, {r0, r1, r2, r4, r8}
     5f0:	0b3a0b0b 	bleq	e83224 <__bss_end__+0xe796ac>
     5f4:	13010b3b 	movwne	r0, #6971	; 0x1b3b
     5f8:	0d3e0000 	ldceq	0, cr0, [lr, #-0]
     5fc:	3a080300 	bcc	201204 <__bss_end__+0x1f768c>
     600:	490b3b0b 	stmdbmi	fp, {r0, r1, r3, r8, r9, fp, ip, sp}
     604:	3f000013 	svccc	0x00000013
     608:	01018289 	smlabbeq	r1, r9, r2, r8
     60c:	13310111 	teqne	r1, #1073741828	; 0x40000004
     610:	2e400000 	cdpcs	0, 4, cr0, cr0, cr0, {0}
     614:	3a0e0301 	bcc	381220 <__bss_end__+0x3776a8>
     618:	270b3b0b 	strcs	r3, [fp, -fp, lsl #22]
     61c:	11134919 	tstne	r3, r9, lsl r9
     620:	40061201 	andmi	r1, r6, r1, lsl #4
     624:	19429718 	stmdbne	r2, {r3, r4, r8, r9, sl, ip, pc}^
     628:	00001301 	andeq	r1, r0, r1, lsl #6
     62c:	03000541 	movweq	r0, #1345	; 0x541
     630:	3b0b3a08 	blcc	2cee58 <__bss_end__+0x2c52e0>
     634:	0213490b 	andseq	r4, r3, #180224	; 0x2c000
     638:	42000017 	andmi	r0, r0, #23
     63c:	193f002e 	ldmdbne	pc!, {r1, r2, r3, r5}	; <UNPREDICTABLE>
     640:	0e6e193c 			; <UNDEFINED> instruction: 0x0e6e193c
     644:	0b3a0e03 	bleq	e83e58 <__bss_end__+0xe7a2e0>
     648:	00000b3b 	andeq	r0, r0, fp, lsr fp
     64c:	01110100 	tsteq	r1, r0, lsl #2
     650:	0b130e25 	bleq	4c3eec <__bss_end__+0x4ba374>
     654:	0e1b0e03 	cdpeq	14, 1, cr0, cr11, cr3, {0}
     658:	06120111 			; <UNDEFINED> instruction: 0x06120111
     65c:	00001710 	andeq	r1, r0, r0, lsl r7
     660:	03001602 	movweq	r1, #1538	; 0x602
     664:	3b0b3a0e 	blcc	2ceea4 <__bss_end__+0x2c532c>
     668:	0013490b 	andseq	r4, r3, fp, lsl #18
     66c:	01130300 	tsteq	r3, r0, lsl #6
     670:	0b0b0e03 	bleq	2c3e84 <__bss_end__+0x2ba30c>
     674:	0b3b0b3a 	bleq	ec3364 <__bss_end__+0xeb97ec>
     678:	00001301 	andeq	r1, r0, r1, lsl #6
     67c:	03000d04 	movweq	r0, #3332	; 0xd04
     680:	3813490e 	ldmdacc	r3, {r1, r2, r3, r8, fp, lr}
     684:	0019340b 	andseq	r3, r9, fp, lsl #8
     688:	000f0500 	andeq	r0, pc, r0, lsl #10
     68c:	00000b0b 	andeq	r0, r0, fp, lsl #22
     690:	0b002406 	bleq	96b0 <__FUNCTION__.4295+0x44>
     694:	030b3e0b 	movweq	r3, #48651	; 0xbe0b
     698:	07000008 	streq	r0, [r0, -r8]
     69c:	0b0b0024 	bleq	2c0734 <__bss_end__+0x2b6bbc>
     6a0:	0e030b3e 	vmoveq.16	d3[0], r0
     6a4:	16080000 	strne	r0, [r8], -r0
     6a8:	3a0e0300 	bcc	3812b0 <__bss_end__+0x377738>
     6ac:	49053b0b 	stmdbmi	r5, {r0, r1, r3, r8, r9, fp, ip, sp}
     6b0:	09000013 	stmdbeq	r0, {r0, r1, r4}
     6b4:	0b0b0117 	bleq	2c0b18 <__bss_end__+0x2b6fa0>
     6b8:	0b3b0b3a 	bleq	ec33a8 <__bss_end__+0xeb9830>
     6bc:	00001301 	andeq	r1, r0, r1, lsl #6
     6c0:	03000d0a 	movweq	r0, #3338	; 0xd0a
     6c4:	3b0b3a0e 	blcc	2cef04 <__bss_end__+0x2c538c>
     6c8:	0013490b 	andseq	r4, r3, fp, lsl #18
     6cc:	01010b00 	tsteq	r1, r0, lsl #22
     6d0:	13011349 	movwne	r1, #4937	; 0x1349
     6d4:	210c0000 	mrscs	r0, (UNDEF: 12)
     6d8:	2f134900 	svccs	0x00134900
     6dc:	0d00000b 	stceq	0, cr0, [r0, #-44]	; 0xffffffd4
     6e0:	0b0b0113 	bleq	2c0b34 <__bss_end__+0x2b6fbc>
     6e4:	0b3b0b3a 	bleq	ec33d4 <__bss_end__+0xeb985c>
     6e8:	00001301 	andeq	r1, r0, r1, lsl #6
     6ec:	03000d0e 	movweq	r0, #3342	; 0xd0e
     6f0:	3b0b3a0e 	blcc	2cef30 <__bss_end__+0x2c53b8>
     6f4:	3813490b 	ldmdacc	r3, {r0, r1, r3, r8, fp, lr}
     6f8:	0f00000b 	svceq	0x0000000b
     6fc:	0b0b000f 	bleq	2c0740 <__bss_end__+0x2b6bc8>
     700:	00001349 	andeq	r1, r0, r9, asr #6
     704:	49002610 	stmdbmi	r0, {r4, r9, sl, sp}
     708:	11000013 	tstne	r0, r3, lsl r0
     70c:	0803000d 	stmdaeq	r3, {r0, r2, r3}
     710:	0b3b0b3a 	bleq	ec3400 <__bss_end__+0xeb9888>
     714:	0b381349 	bleq	e05440 <__bss_end__+0xdfb8c8>
     718:	13120000 	tstne	r2, #0
     71c:	0b0e0301 	bleq	381328 <__bss_end__+0x3777b0>
     720:	3b0b3a05 	blcc	2cef3c <__bss_end__+0x2c53c4>
     724:	0013010b 	andseq	r0, r3, fp, lsl #2
     728:	000d1300 	andeq	r1, sp, r0, lsl #6
     72c:	0b3a0e03 	bleq	e83f40 <__bss_end__+0xe7a3c8>
     730:	13490b3b 	movtne	r0, #39739	; 0x9b3b
     734:	00000538 	andeq	r0, r0, r8, lsr r5
     738:	27001514 	smladcs	r0, r4, r5, r1
     73c:	15000019 	strne	r0, [r0, #-25]	; 0xffffffe7
     740:	19270115 	stmdbne	r7!, {r0, r2, r4, r8}
     744:	13011349 	movwne	r1, #4937	; 0x1349
     748:	05160000 	ldreq	r0, [r6, #-0]
     74c:	00134900 	andseq	r4, r3, r0, lsl #18
     750:	01131700 	tsteq	r3, r0, lsl #14
     754:	050b0e03 	streq	r0, [fp, #-3587]	; 0xfffff1fd
     758:	053b0b3a 	ldreq	r0, [fp, #-2874]!	; 0xfffff4c6
     75c:	00001301 	andeq	r1, r0, r1, lsl #6
     760:	03000d18 	movweq	r0, #3352	; 0xd18
     764:	3b0b3a0e 	blcc	2cefa4 <__bss_end__+0x2c542c>
     768:	38134905 	ldmdacc	r3, {r0, r2, r8, fp, lr}
     76c:	1900000b 	stmdbne	r0, {r0, r1, r3}
     770:	0e03000d 	cdpeq	0, 0, cr0, cr3, cr13, {0}
     774:	053b0b3a 	ldreq	r0, [fp, #-2874]!	; 0xfffff4c6
     778:	05381349 	ldreq	r1, [r8, #-841]!	; 0xfffffcb7
     77c:	131a0000 	tstne	sl, #0
     780:	0b0e0301 	bleq	38138c <__bss_end__+0x377814>
     784:	3b0b3a0b 	blcc	2cefb8 <__bss_end__+0x2c5440>
     788:	00130105 	andseq	r0, r3, r5, lsl #2
     78c:	01131b00 	tsteq	r3, r0, lsl #22
     790:	0b3a0b0b 	bleq	e833c4 <__bss_end__+0xe7984c>
     794:	1301053b 	movwne	r0, #5435	; 0x153b
     798:	171c0000 	ldrne	r0, [ip, -r0]
     79c:	3a0b0b01 	bcc	2c33a8 <__bss_end__+0x2b9830>
     7a0:	01053b0b 	tsteq	r5, fp, lsl #22
     7a4:	1d000013 	stcne	0, cr0, [r0, #-76]	; 0xffffffb4
     7a8:	0e03000d 	cdpeq	0, 0, cr0, cr3, cr13, {0}
     7ac:	053b0b3a 	ldreq	r0, [fp, #-2874]!	; 0xfffff4c6
     7b0:	00001349 	andeq	r1, r0, r9, asr #6
     7b4:	2701151e 	smladcs	r1, lr, r5, r1
     7b8:	00130119 	andseq	r0, r3, r9, lsl r1
     7bc:	00341f00 	eorseq	r1, r4, r0, lsl #30
     7c0:	0b3a0e03 	bleq	e83fd4 <__bss_end__+0xe7a45c>
     7c4:	1349053b 	movtne	r0, #38203	; 0x953b
     7c8:	193c193f 	ldmdbne	ip!, {r0, r1, r2, r3, r4, r5, r8, fp, ip}
     7cc:	34200000 	strtcc	r0, [r0], #-0
     7d0:	3a0e0300 	bcc	3813d8 <__bss_end__+0x377860>
     7d4:	490b3b0b 	stmdbmi	fp, {r0, r1, r3, r8, r9, fp, ip, sp}
     7d8:	3c193f13 	ldccc	15, cr3, [r9], {19}
     7dc:	21000019 	tstcs	r0, r9, lsl r0
     7e0:	193f012e 	ldmdbne	pc!, {r1, r2, r3, r5, r8}	; <UNPREDICTABLE>
     7e4:	0b3a0e03 	bleq	e83ff8 <__bss_end__+0xe7a480>
     7e8:	19270b3b 	stmdbne	r7!, {r0, r1, r3, r4, r5, r8, r9, fp}
     7ec:	01111349 	tsteq	r1, r9, asr #6
     7f0:	18400612 	stmdane	r0, {r1, r4, r9, sl}^
     7f4:	01194297 			; <UNDEFINED> instruction: 0x01194297
     7f8:	22000013 	andcs	r0, r0, #19
     7fc:	08030005 	stmdaeq	r3, {r0, r2}
     800:	0b3b0b3a 	bleq	ec34f0 <__bss_end__+0xeb9978>
     804:	18021349 	stmdane	r2, {r0, r3, r6, r8, r9, ip}
     808:	18230000 	stmdane	r3!, {}	; <UNPREDICTABLE>
     80c:	24000000 	strcs	r0, [r0], #-0
     810:	08030034 	stmdaeq	r3, {r2, r4, r5}
     814:	0b3b0b3a 	bleq	ec3504 <__bss_end__+0xeb998c>
     818:	18021349 	stmdane	r2, {r0, r3, r6, r8, r9, ip}
     81c:	34250000 	strtcc	r0, [r5], #-0
     820:	3a0e0300 	bcc	381428 <__bss_end__+0x3778b0>
     824:	490b3b0b 	stmdbmi	fp, {r0, r1, r3, r8, r9, fp, ip, sp}
     828:	00180213 	andseq	r0, r8, r3, lsl r2
     82c:	00342600 	eorseq	r2, r4, r0, lsl #12
     830:	0b3a0803 	bleq	e82844 <__bss_end__+0xe78ccc>
     834:	13490b3b 	movtne	r0, #39739	; 0x9b3b
     838:	00001702 	andeq	r1, r0, r2, lsl #14
     83c:	01828927 	orreq	r8, r2, r7, lsr #18
     840:	31011101 	tstcc	r1, r1, lsl #2
     844:	00130113 	andseq	r0, r3, r3, lsl r1
     848:	828a2800 	addhi	r2, sl, #0, 16
     84c:	18020001 	stmdane	r2, {r0}
     850:	00184291 	mulseq	r8, r1, r2
     854:	82892900 	addhi	r2, r9, #0, 18
     858:	01110101 	tsteq	r1, r1, lsl #2
     85c:	212a0000 			; <UNDEFINED> instruction: 0x212a0000
     860:	2f134900 	svccs	0x00134900
     864:	2b000005 	blcs	880 <_start-0x7780>
     868:	193f002e 	ldmdbne	pc!, {r1, r2, r3, r5}	; <UNPREDICTABLE>
     86c:	0e6e193c 			; <UNDEFINED> instruction: 0x0e6e193c
     870:	0b3a0e03 	bleq	e84084 <__bss_end__+0xe7a50c>
     874:	00000b3b 	andeq	r0, r0, fp, lsr fp
     878:	01110100 	tsteq	r1, r0, lsl #2
     87c:	0b130e25 	bleq	4c4118 <__bss_end__+0x4ba5a0>
     880:	0e1b0e03 	cdpeq	14, 1, cr0, cr11, cr3, {0}
     884:	06120111 			; <UNDEFINED> instruction: 0x06120111
     888:	00001710 	andeq	r1, r0, r0, lsl r7
     88c:	0b002402 	bleq	989c <buf.4221+0x128>
     890:	030b3e0b 	movweq	r3, #48651	; 0xbe0b
     894:	03000008 	movweq	r0, #8
     898:	0b0b0024 	bleq	2c0930 <__bss_end__+0x2b6db8>
     89c:	0e030b3e 	vmoveq.16	d3[0], r0
     8a0:	16040000 	strne	r0, [r4], -r0
     8a4:	3a0e0300 	bcc	3814ac <__bss_end__+0x377934>
     8a8:	490b3b0b 	stmdbmi	fp, {r0, r1, r3, r8, r9, fp, ip, sp}
     8ac:	05000013 	streq	r0, [r0, #-19]	; 0xffffffed
     8b0:	0e030016 	mcreq	0, 0, r0, cr3, cr6, {0}
     8b4:	053b0b3a 	ldreq	r0, [fp, #-2874]!	; 0xfffff4c6
     8b8:	00001349 	andeq	r1, r0, r9, asr #6
     8bc:	0b011706 	bleq	464dc <__bss_end__+0x3c964>
     8c0:	3b0b3a0b 	blcc	2cf0f4 <__bss_end__+0x2c557c>
     8c4:	0013010b 	andseq	r0, r3, fp, lsl #2
     8c8:	000d0700 	andeq	r0, sp, r0, lsl #14
     8cc:	0b3a0e03 	bleq	e840e0 <__bss_end__+0xe7a568>
     8d0:	13490b3b 	movtne	r0, #39739	; 0x9b3b
     8d4:	01080000 	mrseq	r0, (UNDEF: 8)
     8d8:	01134901 	tsteq	r3, r1, lsl #18
     8dc:	09000013 	stmdbeq	r0, {r0, r1, r4}
     8e0:	13490021 	movtne	r0, #36897	; 0x9021
     8e4:	00000b2f 	andeq	r0, r0, pc, lsr #22
     8e8:	0b01130a 	bleq	45518 <__bss_end__+0x3b9a0>
     8ec:	3b0b3a0b 	blcc	2cf120 <__bss_end__+0x2c55a8>
     8f0:	0013010b 	andseq	r0, r3, fp, lsl #2
     8f4:	000d0b00 	andeq	r0, sp, r0, lsl #22
     8f8:	0b3a0e03 	bleq	e8410c <__bss_end__+0xe7a594>
     8fc:	13490b3b 	movtne	r0, #39739	; 0x9b3b
     900:	00000b38 	andeq	r0, r0, r8, lsr fp
     904:	0b000f0c 	bleq	453c <_start-0x3ac4>
     908:	0d00000b 	stceq	0, cr0, [r0, #-44]	; 0xffffffd4
     90c:	0b0b000f 	bleq	2c0950 <__bss_end__+0x2b6dd8>
     910:	00001349 	andeq	r1, r0, r9, asr #6
     914:	4900260e 	stmdbmi	r0, {r1, r2, r3, r9, sl, sp}
     918:	0f000013 	svceq	0x00000013
     91c:	0e030113 	mcreq	1, 0, r0, cr3, cr3, {0}
     920:	0b3a0b0b 	bleq	e83554 <__bss_end__+0xe799dc>
     924:	13010b3b 	movwne	r0, #6971	; 0x1b3b
     928:	0d100000 	ldceq	0, cr0, [r0, #-0]
     92c:	3a080300 	bcc	201534 <__bss_end__+0x1f79bc>
     930:	490b3b0b 	stmdbmi	fp, {r0, r1, r3, r8, r9, fp, ip, sp}
     934:	000b3813 	andeq	r3, fp, r3, lsl r8
     938:	01131100 	tsteq	r3, r0, lsl #2
     93c:	050b0e03 	streq	r0, [fp, #-3587]	; 0xfffff1fd
     940:	0b3b0b3a 	bleq	ec3630 <__bss_end__+0xeb9ab8>
     944:	00001301 	andeq	r1, r0, r1, lsl #6
     948:	03000d12 	movweq	r0, #3346	; 0xd12
     94c:	3b0b3a0e 	blcc	2cf18c <__bss_end__+0x2c5614>
     950:	3813490b 	ldmdacc	r3, {r0, r1, r3, r8, fp, lr}
     954:	13000005 	movwne	r0, #5
     958:	19270015 	stmdbne	r7!, {r0, r2, r4}
     95c:	15140000 	ldrne	r0, [r4, #-0]
     960:	49192701 	ldmdbmi	r9, {r0, r8, r9, sl, sp}
     964:	00130113 	andseq	r0, r3, r3, lsl r1
     968:	00051500 	andeq	r1, r5, r0, lsl #10
     96c:	00001349 	andeq	r1, r0, r9, asr #6
     970:	03011316 	movweq	r1, #4886	; 0x1316
     974:	3a050b0e 	bcc	1435b4 <__bss_end__+0x139a3c>
     978:	01053b0b 	tsteq	r5, fp, lsl #22
     97c:	17000013 	smladne	r0, r3, r0, r0
     980:	0e03000d 	cdpeq	0, 0, cr0, cr3, cr13, {0}
     984:	053b0b3a 	ldreq	r0, [fp, #-2874]!	; 0xfffff4c6
     988:	0b381349 	bleq	e056b4 <__bss_end__+0xdfbb3c>
     98c:	0d180000 	ldceq	0, cr0, [r8, #-0]
     990:	3a0e0300 	bcc	381598 <__bss_end__+0x377a20>
     994:	49053b0b 	stmdbmi	r5, {r0, r1, r3, r8, r9, fp, ip, sp}
     998:	00053813 	andeq	r3, r5, r3, lsl r8
     99c:	01131900 	tsteq	r3, r0, lsl #18
     9a0:	0b0b0e03 	bleq	2c41b4 <__bss_end__+0x2ba63c>
     9a4:	053b0b3a 	ldreq	r0, [fp, #-2874]!	; 0xfffff4c6
     9a8:	00001301 	andeq	r1, r0, r1, lsl #6
     9ac:	0b01131a 	bleq	4561c <__bss_end__+0x3baa4>
     9b0:	3b0b3a0b 	blcc	2cf1e4 <__bss_end__+0x2c566c>
     9b4:	00130105 	andseq	r0, r3, r5, lsl #2
     9b8:	01171b00 	tsteq	r7, r0, lsl #22
     9bc:	0b3a0b0b 	bleq	e835f0 <__bss_end__+0xe79a78>
     9c0:	1301053b 	movwne	r0, #5435	; 0x153b
     9c4:	0d1c0000 	ldceq	0, cr0, [ip, #-0]
     9c8:	3a0e0300 	bcc	3815d0 <__bss_end__+0x377a58>
     9cc:	49053b0b 	stmdbmi	r5, {r0, r1, r3, r8, r9, fp, ip, sp}
     9d0:	1d000013 	stcne	0, cr0, [r0, #-76]	; 0xffffffb4
     9d4:	19270115 	stmdbne	r7!, {r0, r2, r4, r8}
     9d8:	00001301 	andeq	r1, r0, r1, lsl #6
     9dc:	0300341e 	movweq	r3, #1054	; 0x41e
     9e0:	3b0b3a0e 	blcc	2cf220 <__bss_end__+0x2c56a8>
     9e4:	3f134905 	svccc	0x00134905
     9e8:	00193c19 	andseq	r3, r9, r9, lsl ip
     9ec:	00341f00 	eorseq	r1, r4, r0, lsl #30
     9f0:	0b3a0e03 	bleq	e84204 <__bss_end__+0xe7a68c>
     9f4:	13490b3b 	movtne	r0, #39739	; 0x9b3b
     9f8:	193c193f 	ldmdbne	ip!, {r0, r1, r2, r3, r4, r5, r8, fp, ip}
     9fc:	0d200000 	stceq	0, cr0, [r0, #-0]
     a00:	490e0300 	stmdbmi	lr, {r8, r9}
     a04:	340b3813 	strcc	r3, [fp], #-2067	; 0xfffff7ed
     a08:	21000019 	tstcs	r0, r9, lsl r0
     a0c:	193f012e 	ldmdbne	pc!, {r1, r2, r3, r5, r8}	; <UNPREDICTABLE>
     a10:	0b3a0e03 	bleq	e84224 <__bss_end__+0xe7a6ac>
     a14:	19270b3b 	stmdbne	r7!, {r0, r1, r3, r4, r5, r8, r9, fp}
     a18:	01111349 	tsteq	r1, r9, asr #6
     a1c:	18400612 	stmdane	r0, {r1, r4, r9, sl}^
     a20:	01194297 			; <UNDEFINED> instruction: 0x01194297
     a24:	22000013 	andcs	r0, r0, #19
     a28:	08030005 	stmdaeq	r3, {r0, r2}
     a2c:	0b3b0b3a 	bleq	ec371c <__bss_end__+0xeb9ba4>
     a30:	17021349 	strne	r1, [r2, -r9, asr #6]
     a34:	05230000 	streq	r0, [r3, #-0]!
     a38:	3a0e0300 	bcc	381640 <__bss_end__+0x377ac8>
     a3c:	490b3b0b 	stmdbmi	fp, {r0, r1, r3, r8, r9, fp, ip, sp}
     a40:	00180213 	andseq	r0, r8, r3, lsl r2
     a44:	00342400 	eorseq	r2, r4, r0, lsl #8
     a48:	0b3a0803 	bleq	e82a5c <__bss_end__+0xe78ee4>
     a4c:	13490b3b 	movtne	r0, #39739	; 0x9b3b
     a50:	00001702 	andeq	r1, r0, r2, lsl #14
     a54:	03003425 	movweq	r3, #1061	; 0x425
     a58:	3413490e 	ldrcc	r4, [r3], #-2318	; 0xfffff6f2
     a5c:	00180219 	andseq	r0, r8, r9, lsl r2
     a60:	010b2600 	tsteq	fp, r0, lsl #12
     a64:	00001755 	andeq	r1, r0, r5, asr r7
     a68:	03003427 	movweq	r3, #1063	; 0x427
     a6c:	3b0b3a08 	blcc	2cf294 <__bss_end__+0x2c571c>
     a70:	0213490b 	andseq	r4, r3, #180224	; 0x2c000
     a74:	28000018 	stmdacs	r0, {r3, r4}
     a78:	0e030034 	mcreq	0, 0, r0, cr3, cr4, {1}
     a7c:	0b3b0b3a 	bleq	ec376c <__bss_end__+0xeb9bf4>
     a80:	17021349 	strne	r1, [r2, -r9, asr #6]
     a84:	89290000 	stmdbhi	r9!, {}	; <UNPREDICTABLE>
     a88:	11010182 	smlabbne	r1, r2, r1, r0
     a8c:	01133101 	tsteq	r3, r1, lsl #2
     a90:	2a000013 	bcs	ae4 <_start-0x751c>
     a94:	0001828a 	andeq	r8, r1, sl, lsl #5
     a98:	42911802 	addsmi	r1, r1, #131072	; 0x20000
     a9c:	2b000018 	blcs	b04 <_start-0x74fc>
     aa0:	00018289 	andeq	r8, r1, r9, lsl #5
     aa4:	13310111 	teqne	r1, #1073741828	; 0x40000004
     aa8:	2e2c0000 	cdpcs	0, 2, cr0, cr12, cr0, {0}
     aac:	3a0e0301 	bcc	3816b8 <__bss_end__+0x377b40>
     ab0:	270b3b0b 	strcs	r3, [fp, -fp, lsl #22]
     ab4:	11134919 	tstne	r3, r9, lsl r9
     ab8:	40061201 	andmi	r1, r6, r1, lsl #4
     abc:	19429718 	stmdbne	r2, {r3, r4, r8, r9, sl, ip, pc}^
     ac0:	00001301 	andeq	r1, r0, r1, lsl #6
     ac4:	0300052d 	movweq	r0, #1325	; 0x52d
     ac8:	3b0b3a0e 	blcc	2cf308 <__bss_end__+0x2c5790>
     acc:	0213490b 	andseq	r4, r3, #180224	; 0x2c000
     ad0:	2e000017 	mcrcs	0, 0, r0, cr0, cr7, {0}
     ad4:	0111010b 	tsteq	r1, fp, lsl #2
     ad8:	13010612 	movwne	r0, #5650	; 0x1612
     adc:	2e2f0000 	cdpcs	0, 2, cr0, cr15, cr0, {0}
     ae0:	3a080301 	bcc	2016ec <__bss_end__+0x1f7b74>
     ae4:	270b3b0b 	strcs	r3, [fp, -fp, lsl #22]
     ae8:	11134919 	tstne	r3, r9, lsl r9
     aec:	40061201 	andmi	r1, r6, r1, lsl #4
     af0:	19429718 	stmdbne	r2, {r3, r4, r8, r9, sl, ip, pc}^
     af4:	00001301 	andeq	r1, r0, r1, lsl #6
     af8:	3f012e30 	svccc	0x00012e30
     afc:	3a0e0319 	bcc	381768 <__bss_end__+0x377bf0>
     b00:	270b3b0b 	strcs	r3, [fp, -fp, lsl #22]
     b04:	12011119 	andne	r1, r1, #1073741830	; 0x40000006
     b08:	97184006 	ldrls	r4, [r8, -r6]
     b0c:	13011942 	movwne	r1, #6466	; 0x1942
     b10:	2e310000 	cdpcs	0, 3, cr0, cr1, cr0, {0}
     b14:	3c193f00 	ldccc	15, cr3, [r9], {-0}
     b18:	030e6e19 	movweq	r6, #60953	; 0xee19
     b1c:	3b0b3a0e 	blcc	2cf35c <__bss_end__+0x2c57e4>
     b20:	0000000b 	andeq	r0, r0, fp
     b24:	25011101 	strcs	r1, [r1, #-257]	; 0xfffffeff
     b28:	030b130e 	movweq	r1, #45838	; 0xb30e
     b2c:	110e1b0e 	tstne	lr, lr, lsl #22
     b30:	10061201 	andne	r1, r6, r1, lsl #4
     b34:	02000017 	andeq	r0, r0, #23
     b38:	0b0b0024 	bleq	2c0bd0 <__bss_end__+0x2b7058>
     b3c:	08030b3e 	stmdaeq	r3, {r1, r2, r3, r4, r5, r8, r9, fp}
     b40:	24030000 	strcs	r0, [r3], #-0
     b44:	3e0b0b00 	vmlacc.f64	d0, d11, d0
     b48:	000e030b 	andeq	r0, lr, fp, lsl #6
     b4c:	00160400 	andseq	r0, r6, r0, lsl #8
     b50:	0b3a0e03 	bleq	e84364 <__bss_end__+0xe7a7ec>
     b54:	13490b3b 	movtne	r0, #39739	; 0x9b3b
     b58:	16050000 	strne	r0, [r5], -r0
     b5c:	3a0e0300 	bcc	381764 <__bss_end__+0x377bec>
     b60:	49053b0b 	stmdbmi	r5, {r0, r1, r3, r8, r9, fp, ip, sp}
     b64:	06000013 			; <UNDEFINED> instruction: 0x06000013
     b68:	0b0b0117 	bleq	2c0fcc <__bss_end__+0x2b7454>
     b6c:	0b3b0b3a 	bleq	ec385c <__bss_end__+0xeb9ce4>
     b70:	00001301 	andeq	r1, r0, r1, lsl #6
     b74:	03000d07 	movweq	r0, #3335	; 0xd07
     b78:	3b0b3a0e 	blcc	2cf3b8 <__bss_end__+0x2c5840>
     b7c:	0013490b 	andseq	r4, r3, fp, lsl #18
     b80:	01010800 	tsteq	r1, r0, lsl #16
     b84:	13011349 	movwne	r1, #4937	; 0x1349
     b88:	21090000 	mrscs	r0, (UNDEF: 9)
     b8c:	2f134900 	svccs	0x00134900
     b90:	0a00000b 	beq	bc4 <_start-0x743c>
     b94:	0b0b0113 	bleq	2c0fe8 <__bss_end__+0x2b7470>
     b98:	0b3b0b3a 	bleq	ec3888 <__bss_end__+0xeb9d10>
     b9c:	00001301 	andeq	r1, r0, r1, lsl #6
     ba0:	03000d0b 	movweq	r0, #3339	; 0xd0b
     ba4:	3b0b3a0e 	blcc	2cf3e4 <__bss_end__+0x2c586c>
     ba8:	3813490b 	ldmdacc	r3, {r0, r1, r3, r8, fp, lr}
     bac:	0c00000b 	stceq	0, cr0, [r0], {11}
     bb0:	0b0b000f 	bleq	2c0bf4 <__bss_end__+0x2b707c>
     bb4:	0f0d0000 	svceq	0x000d0000
     bb8:	490b0b00 	stmdbmi	fp, {r8, r9, fp}
     bbc:	0e000013 	mcreq	0, 0, r0, cr0, cr3, {0}
     bc0:	13490026 	movtne	r0, #36902	; 0x9026
     bc4:	130f0000 	movwne	r0, #61440	; 0xf000
     bc8:	0b0e0301 	bleq	3817d4 <__bss_end__+0x377c5c>
     bcc:	3b0b3a0b 	blcc	2cf400 <__bss_end__+0x2c5888>
     bd0:	0013010b 	andseq	r0, r3, fp, lsl #2
     bd4:	000d1000 	andeq	r1, sp, r0
     bd8:	0b3a0803 	bleq	e82bec <__bss_end__+0xe79074>
     bdc:	13490b3b 	movtne	r0, #39739	; 0x9b3b
     be0:	00000b38 	andeq	r0, r0, r8, lsr fp
     be4:	03011311 	movweq	r1, #4881	; 0x1311
     be8:	3a050b0e 	bcc	143828 <__bss_end__+0x139cb0>
     bec:	010b3b0b 	tsteq	fp, fp, lsl #22
     bf0:	12000013 	andne	r0, r0, #19
     bf4:	0e03000d 	cdpeq	0, 0, cr0, cr3, cr13, {0}
     bf8:	0b3b0b3a 	bleq	ec38e8 <__bss_end__+0xeb9d70>
     bfc:	05381349 	ldreq	r1, [r8, #-841]!	; 0xfffffcb7
     c00:	15130000 	ldrne	r0, [r3, #-0]
     c04:	00192700 	andseq	r2, r9, r0, lsl #14
     c08:	01151400 	tsteq	r5, r0, lsl #8
     c0c:	13491927 	movtne	r1, #39207	; 0x9927
     c10:	00001301 	andeq	r1, r0, r1, lsl #6
     c14:	49000515 	stmdbmi	r0, {r0, r2, r4, r8, sl}
     c18:	16000013 			; <UNDEFINED> instruction: 0x16000013
     c1c:	0e030113 	mcreq	1, 0, r0, cr3, cr3, {0}
     c20:	0b3a050b 	bleq	e82054 <__bss_end__+0xe784dc>
     c24:	1301053b 	movwne	r0, #5435	; 0x153b
     c28:	0d170000 	ldceq	0, cr0, [r7, #-0]
     c2c:	3a0e0300 	bcc	381834 <__bss_end__+0x377cbc>
     c30:	49053b0b 	stmdbmi	r5, {r0, r1, r3, r8, r9, fp, ip, sp}
     c34:	000b3813 	andeq	r3, fp, r3, lsl r8
     c38:	000d1800 	andeq	r1, sp, r0, lsl #16
     c3c:	0b3a0e03 	bleq	e84450 <__bss_end__+0xe7a8d8>
     c40:	1349053b 	movtne	r0, #38203	; 0x953b
     c44:	00000538 	andeq	r0, r0, r8, lsr r5
     c48:	03011319 	movweq	r1, #4889	; 0x1319
     c4c:	3a0b0b0e 	bcc	2c388c <__bss_end__+0x2b9d14>
     c50:	01053b0b 	tsteq	r5, fp, lsl #22
     c54:	1a000013 	bne	ca8 <_start-0x7358>
     c58:	0b0b0113 	bleq	2c10ac <__bss_end__+0x2b7534>
     c5c:	053b0b3a 	ldreq	r0, [fp, #-2874]!	; 0xfffff4c6
     c60:	00001301 	andeq	r1, r0, r1, lsl #6
     c64:	0b01171b 	bleq	468d8 <__bss_end__+0x3cd60>
     c68:	3b0b3a0b 	blcc	2cf49c <__bss_end__+0x2c5924>
     c6c:	00130105 	andseq	r0, r3, r5, lsl #2
     c70:	000d1c00 	andeq	r1, sp, r0, lsl #24
     c74:	0b3a0e03 	bleq	e84488 <__bss_end__+0xe7a910>
     c78:	1349053b 	movtne	r0, #38203	; 0x953b
     c7c:	151d0000 	ldrne	r0, [sp, #-0]
     c80:	01192701 	tsteq	r9, r1, lsl #14
     c84:	1e000013 	mcrne	0, 0, r0, cr0, cr3, {0}
     c88:	0e030034 	mcreq	0, 0, r0, cr3, cr4, {1}
     c8c:	053b0b3a 	ldreq	r0, [fp, #-2874]!	; 0xfffff4c6
     c90:	193f1349 	ldmdbne	pc!, {r0, r3, r6, r8, r9, ip}	; <UNPREDICTABLE>
     c94:	0000193c 	andeq	r1, r0, ip, lsr r9
     c98:	0300341f 	movweq	r3, #1055	; 0x41f
     c9c:	3b0b3a0e 	blcc	2cf4dc <__bss_end__+0x2c5964>
     ca0:	3f13490b 	svccc	0x0013490b
     ca4:	00193c19 	andseq	r3, r9, r9, lsl ip
     ca8:	00342000 	eorseq	r2, r4, r0
     cac:	0b3a1347 	bleq	e859d0 <__bss_end__+0xe7be58>
     cb0:	18020b3b 	stmdane	r2, {r0, r1, r3, r4, r5, r8, r9, fp}
     cb4:	2e210000 	cdpcs	0, 2, cr0, cr1, cr0, {0}
     cb8:	03193f01 	tsteq	r9, #1, 30
     cbc:	3b0b3a0e 	blcc	2cf4fc <__bss_end__+0x2c5984>
     cc0:	4919270b 	ldmdbmi	r9, {r0, r1, r3, r8, r9, sl, sp}
     cc4:	12011113 	andne	r1, r1, #-1073741820	; 0xc0000004
     cc8:	96184006 	ldrls	r4, [r8], -r6
     ccc:	00001942 	andeq	r1, r0, r2, asr #18
     cd0:	03000522 	movweq	r0, #1314	; 0x522
     cd4:	3b0b3a08 	blcc	2cf4fc <__bss_end__+0x2c5984>
     cd8:	0213490b 	andseq	r4, r3, #180224	; 0x2c000
     cdc:	00000017 	andeq	r0, r0, r7, lsl r0
     ce0:	25011101 	strcs	r1, [r1, #-257]	; 0xfffffeff
     ce4:	030b130e 	movweq	r1, #45838	; 0xb30e
     ce8:	110e1b0e 	tstne	lr, lr, lsl #22
     cec:	10061201 	andne	r1, r6, r1, lsl #4
     cf0:	02000017 	andeq	r0, r0, #23
     cf4:	0b0b0024 	bleq	2c0d8c <__bss_end__+0x2b7214>
     cf8:	08030b3e 	stmdaeq	r3, {r1, r2, r3, r4, r5, r8, r9, fp}
     cfc:	24030000 	strcs	r0, [r3], #-0
     d00:	3e0b0b00 	vmlacc.f64	d0, d11, d0
     d04:	000e030b 	andeq	r0, lr, fp, lsl #6
     d08:	00160400 	andseq	r0, r6, r0, lsl #8
     d0c:	0b3a0e03 	bleq	e84520 <__bss_end__+0xe7a9a8>
     d10:	13490b3b 	movtne	r0, #39739	; 0x9b3b
     d14:	16050000 	strne	r0, [r5], -r0
     d18:	3a0e0300 	bcc	381920 <__bss_end__+0x377da8>
     d1c:	49053b0b 	stmdbmi	r5, {r0, r1, r3, r8, r9, fp, ip, sp}
     d20:	06000013 			; <UNDEFINED> instruction: 0x06000013
     d24:	0b0b0117 	bleq	2c1188 <__bss_end__+0x2b7610>
     d28:	0b3b0b3a 	bleq	ec3a18 <__bss_end__+0xeb9ea0>
     d2c:	00001301 	andeq	r1, r0, r1, lsl #6
     d30:	03000d07 	movweq	r0, #3335	; 0xd07
     d34:	3b0b3a0e 	blcc	2cf574 <__bss_end__+0x2c59fc>
     d38:	0013490b 	andseq	r4, r3, fp, lsl #18
     d3c:	01010800 	tsteq	r1, r0, lsl #16
     d40:	13011349 	movwne	r1, #4937	; 0x1349
     d44:	21090000 	mrscs	r0, (UNDEF: 9)
     d48:	2f134900 	svccs	0x00134900
     d4c:	0a00000b 	beq	d80 <_start-0x7280>
     d50:	0b0b0113 	bleq	2c11a4 <__bss_end__+0x2b762c>
     d54:	0b3b0b3a 	bleq	ec3a44 <__bss_end__+0xeb9ecc>
     d58:	00001301 	andeq	r1, r0, r1, lsl #6
     d5c:	03000d0b 	movweq	r0, #3339	; 0xd0b
     d60:	3b0b3a0e 	blcc	2cf5a0 <__bss_end__+0x2c5a28>
     d64:	3813490b 	ldmdacc	r3, {r0, r1, r3, r8, fp, lr}
     d68:	0c00000b 	stceq	0, cr0, [r0], {11}
     d6c:	0b0b000f 	bleq	2c0db0 <__bss_end__+0x2b7238>
     d70:	0f0d0000 	svceq	0x000d0000
     d74:	490b0b00 	stmdbmi	fp, {r8, r9, fp}
     d78:	0e000013 	mcreq	0, 0, r0, cr0, cr3, {0}
     d7c:	13490026 	movtne	r0, #36902	; 0x9026
     d80:	130f0000 	movwne	r0, #61440	; 0xf000
     d84:	0b0e0301 	bleq	381990 <__bss_end__+0x377e18>
     d88:	3b0b3a0b 	blcc	2cf5bc <__bss_end__+0x2c5a44>
     d8c:	0013010b 	andseq	r0, r3, fp, lsl #2
     d90:	000d1000 	andeq	r1, sp, r0
     d94:	0b3a0803 	bleq	e82da8 <__bss_end__+0xe79230>
     d98:	13490b3b 	movtne	r0, #39739	; 0x9b3b
     d9c:	00000b38 	andeq	r0, r0, r8, lsr fp
     da0:	03011311 	movweq	r1, #4881	; 0x1311
     da4:	3a050b0e 	bcc	1439e4 <__bss_end__+0x139e6c>
     da8:	010b3b0b 	tsteq	fp, fp, lsl #22
     dac:	12000013 	andne	r0, r0, #19
     db0:	0e03000d 	cdpeq	0, 0, cr0, cr3, cr13, {0}
     db4:	0b3b0b3a 	bleq	ec3aa4 <__bss_end__+0xeb9f2c>
     db8:	05381349 	ldreq	r1, [r8, #-841]!	; 0xfffffcb7
     dbc:	15130000 	ldrne	r0, [r3, #-0]
     dc0:	00192700 	andseq	r2, r9, r0, lsl #14
     dc4:	01151400 	tsteq	r5, r0, lsl #8
     dc8:	13491927 	movtne	r1, #39207	; 0x9927
     dcc:	00001301 	andeq	r1, r0, r1, lsl #6
     dd0:	49000515 	stmdbmi	r0, {r0, r2, r4, r8, sl}
     dd4:	16000013 			; <UNDEFINED> instruction: 0x16000013
     dd8:	0e030113 	mcreq	1, 0, r0, cr3, cr3, {0}
     ddc:	0b3a050b 	bleq	e82210 <__bss_end__+0xe78698>
     de0:	1301053b 	movwne	r0, #5435	; 0x153b
     de4:	0d170000 	ldceq	0, cr0, [r7, #-0]
     de8:	3a0e0300 	bcc	3819f0 <__bss_end__+0x377e78>
     dec:	49053b0b 	stmdbmi	r5, {r0, r1, r3, r8, r9, fp, ip, sp}
     df0:	000b3813 	andeq	r3, fp, r3, lsl r8
     df4:	000d1800 	andeq	r1, sp, r0, lsl #16
     df8:	0b3a0e03 	bleq	e8460c <__bss_end__+0xe7aa94>
     dfc:	1349053b 	movtne	r0, #38203	; 0x953b
     e00:	00000538 	andeq	r0, r0, r8, lsr r5
     e04:	03011319 	movweq	r1, #4889	; 0x1319
     e08:	3a0b0b0e 	bcc	2c3a48 <__bss_end__+0x2b9ed0>
     e0c:	01053b0b 	tsteq	r5, fp, lsl #22
     e10:	1a000013 	bne	e64 <_start-0x719c>
     e14:	0b0b0113 	bleq	2c1268 <__bss_end__+0x2b76f0>
     e18:	053b0b3a 	ldreq	r0, [fp, #-2874]!	; 0xfffff4c6
     e1c:	00001301 	andeq	r1, r0, r1, lsl #6
     e20:	0b01171b 	bleq	46a94 <__bss_end__+0x3cf1c>
     e24:	3b0b3a0b 	blcc	2cf658 <__bss_end__+0x2c5ae0>
     e28:	00130105 	andseq	r0, r3, r5, lsl #2
     e2c:	000d1c00 	andeq	r1, sp, r0, lsl #24
     e30:	0b3a0e03 	bleq	e84644 <__bss_end__+0xe7aacc>
     e34:	1349053b 	movtne	r0, #38203	; 0x953b
     e38:	151d0000 	ldrne	r0, [sp, #-0]
     e3c:	01192701 	tsteq	r9, r1, lsl #14
     e40:	1e000013 	mcrne	0, 0, r0, cr0, cr3, {0}
     e44:	0e030034 	mcreq	0, 0, r0, cr3, cr4, {1}
     e48:	053b0b3a 	ldreq	r0, [fp, #-2874]!	; 0xfffff4c6
     e4c:	193f1349 	ldmdbne	pc!, {r0, r3, r6, r8, r9, ip}	; <UNPREDICTABLE>
     e50:	0000193c 	andeq	r1, r0, ip, lsr r9
     e54:	0300341f 	movweq	r3, #1055	; 0x41f
     e58:	3b0b3a0e 	blcc	2cf698 <__bss_end__+0x2c5b20>
     e5c:	3f13490b 	svccc	0x0013490b
     e60:	00193c19 	andseq	r3, r9, r9, lsl ip
     e64:	00342000 	eorseq	r2, r4, r0
     e68:	0b3a1347 	bleq	e85b8c <__bss_end__+0xe7c014>
     e6c:	18020b3b 	stmdane	r2, {r0, r1, r3, r4, r5, r8, r9, fp}
     e70:	2e210000 	cdpcs	0, 2, cr0, cr1, cr0, {0}
     e74:	03193f01 	tsteq	r9, #1, 30
     e78:	3b0b3a0e 	blcc	2cf6b8 <__bss_end__+0x2c5b40>
     e7c:	1119270b 	tstne	r9, fp, lsl #14
     e80:	40061201 	andmi	r1, r6, r1, lsl #4
     e84:	19429718 	stmdbne	r2, {r3, r4, r8, r9, sl, ip, pc}^
     e88:	00001301 	andeq	r1, r0, r1, lsl #6
     e8c:	03000522 	movweq	r0, #1314	; 0x522
     e90:	3b0b3a08 	blcc	2cf6b8 <__bss_end__+0x2c5b40>
     e94:	0213490b 	andseq	r4, r3, #180224	; 0x2c000
     e98:	23000018 	movwcs	r0, #24
     e9c:	193f002e 	ldmdbne	pc!, {r1, r2, r3, r5}	; <UNPREDICTABLE>
     ea0:	0b3a0e03 	bleq	e846b4 <__bss_end__+0xe7ab3c>
     ea4:	19270b3b 	stmdbne	r7!, {r0, r1, r3, r4, r5, r8, r9, fp}
     ea8:	06120111 			; <UNDEFINED> instruction: 0x06120111
     eac:	42971840 	addsmi	r1, r7, #64, 16	; 0x400000
     eb0:	24000019 	strcs	r0, [r0], #-25	; 0xffffffe7
     eb4:	0e03012e 	adfeqsp	f0, f3, #0.5
     eb8:	0b3b0b3a 	bleq	ec3ba8 <__bss_end__+0xeba030>
     ebc:	13491927 	movtne	r1, #39207	; 0x9927
     ec0:	06120111 			; <UNDEFINED> instruction: 0x06120111
     ec4:	42971840 	addsmi	r1, r7, #64, 16	; 0x400000
     ec8:	00130119 	andseq	r0, r3, r9, lsl r1
     ecc:	00052500 	andeq	r2, r5, r0, lsl #10
     ed0:	0b3a0803 	bleq	e82ee4 <__bss_end__+0xe7936c>
     ed4:	13490b3b 	movtne	r0, #39739	; 0x9b3b
     ed8:	00001702 	andeq	r1, r0, r2, lsl #14
     edc:	01828926 	orreq	r8, r2, r6, lsr #18
     ee0:	31011101 	tstcc	r1, r1, lsl #2
     ee4:	27000013 	smladcs	r0, r3, r0, r0
     ee8:	0001828a 	andeq	r8, r1, sl, lsl #5
     eec:	42911802 	addsmi	r1, r1, #131072	; 0x20000
     ef0:	28000018 	stmdacs	r0, {r3, r4}
     ef4:	193f002e 	ldmdbne	pc!, {r1, r2, r3, r5}	; <UNPREDICTABLE>
     ef8:	0e6e193c 			; <UNDEFINED> instruction: 0x0e6e193c
     efc:	0b3a0e03 	bleq	e84710 <__bss_end__+0xe7ab98>
     f00:	00000b3b 	andeq	r0, r0, fp, lsr fp
     f04:	01110100 	tsteq	r1, r0, lsl #2
     f08:	0b130e25 	bleq	4c47a4 <__bss_end__+0x4bac2c>
     f0c:	0e1b0e03 	cdpeq	14, 1, cr0, cr11, cr3, {0}
     f10:	06120111 			; <UNDEFINED> instruction: 0x06120111
     f14:	00001710 	andeq	r1, r0, r0, lsl r7
     f18:	0b002402 	bleq	9f28 <__bss_end__+0x3b0>
     f1c:	030b3e0b 	movweq	r3, #48651	; 0xbe0b
     f20:	03000008 	movweq	r0, #8
     f24:	0b0b0024 	bleq	2c0fbc <__bss_end__+0x2b7444>
     f28:	0e030b3e 	vmoveq.16	d3[0], r0
     f2c:	16040000 	strne	r0, [r4], -r0
     f30:	3a0e0300 	bcc	381b38 <__bss_end__+0x377fc0>
     f34:	490b3b0b 	stmdbmi	fp, {r0, r1, r3, r8, r9, fp, ip, sp}
     f38:	05000013 	streq	r0, [r0, #-19]	; 0xffffffed
     f3c:	0e030016 	mcreq	0, 0, r0, cr3, cr6, {0}
     f40:	053b0b3a 	ldreq	r0, [fp, #-2874]!	; 0xfffff4c6
     f44:	00001349 	andeq	r1, r0, r9, asr #6
     f48:	0b011706 	bleq	46b68 <__bss_end__+0x3cff0>
     f4c:	3b0b3a0b 	blcc	2cf780 <__bss_end__+0x2c5c08>
     f50:	0013010b 	andseq	r0, r3, fp, lsl #2
     f54:	000d0700 	andeq	r0, sp, r0, lsl #14
     f58:	0b3a0e03 	bleq	e8476c <__bss_end__+0xe7abf4>
     f5c:	13490b3b 	movtne	r0, #39739	; 0x9b3b
     f60:	01080000 	mrseq	r0, (UNDEF: 8)
     f64:	01134901 	tsteq	r3, r1, lsl #18
     f68:	09000013 	stmdbeq	r0, {r0, r1, r4}
     f6c:	13490021 	movtne	r0, #36897	; 0x9021
     f70:	00000b2f 	andeq	r0, r0, pc, lsr #22
     f74:	0b01130a 	bleq	45ba4 <__bss_end__+0x3c02c>
     f78:	3b0b3a0b 	blcc	2cf7ac <__bss_end__+0x2c5c34>
     f7c:	0013010b 	andseq	r0, r3, fp, lsl #2
     f80:	000d0b00 	andeq	r0, sp, r0, lsl #22
     f84:	0b3a0e03 	bleq	e84798 <__bss_end__+0xe7ac20>
     f88:	13490b3b 	movtne	r0, #39739	; 0x9b3b
     f8c:	00000b38 	andeq	r0, r0, r8, lsr fp
     f90:	0b000f0c 	bleq	4bc8 <_start-0x3438>
     f94:	0d00000b 	stceq	0, cr0, [r0, #-44]	; 0xffffffd4
     f98:	0b0b000f 	bleq	2c0fdc <__bss_end__+0x2b7464>
     f9c:	00001349 	andeq	r1, r0, r9, asr #6
     fa0:	4900260e 	stmdbmi	r0, {r1, r2, r3, r9, sl, sp}
     fa4:	0f000013 	svceq	0x00000013
     fa8:	0e030113 	mcreq	1, 0, r0, cr3, cr3, {0}
     fac:	0b3a0b0b 	bleq	e83be0 <__bss_end__+0xe7a068>
     fb0:	13010b3b 	movwne	r0, #6971	; 0x1b3b
     fb4:	0d100000 	ldceq	0, cr0, [r0, #-0]
     fb8:	3a080300 	bcc	201bc0 <__bss_end__+0x1f8048>
     fbc:	490b3b0b 	stmdbmi	fp, {r0, r1, r3, r8, r9, fp, ip, sp}
     fc0:	000b3813 	andeq	r3, fp, r3, lsl r8
     fc4:	01131100 	tsteq	r3, r0, lsl #2
     fc8:	050b0e03 	streq	r0, [fp, #-3587]	; 0xfffff1fd
     fcc:	0b3b0b3a 	bleq	ec3cbc <__bss_end__+0xeba144>
     fd0:	00001301 	andeq	r1, r0, r1, lsl #6
     fd4:	03000d12 	movweq	r0, #3346	; 0xd12
     fd8:	3b0b3a0e 	blcc	2cf818 <__bss_end__+0x2c5ca0>
     fdc:	3813490b 	ldmdacc	r3, {r0, r1, r3, r8, fp, lr}
     fe0:	13000005 	movwne	r0, #5
     fe4:	19270015 	stmdbne	r7!, {r0, r2, r4}
     fe8:	15140000 	ldrne	r0, [r4, #-0]
     fec:	49192701 	ldmdbmi	r9, {r0, r8, r9, sl, sp}
     ff0:	00130113 	andseq	r0, r3, r3, lsl r1
     ff4:	00051500 	andeq	r1, r5, r0, lsl #10
     ff8:	00001349 	andeq	r1, r0, r9, asr #6
     ffc:	03011316 	movweq	r1, #4886	; 0x1316
    1000:	3a050b0e 	bcc	143c40 <__bss_end__+0x13a0c8>
    1004:	01053b0b 	tsteq	r5, fp, lsl #22
    1008:	17000013 	smladne	r0, r3, r0, r0
    100c:	0e03000d 	cdpeq	0, 0, cr0, cr3, cr13, {0}
    1010:	053b0b3a 	ldreq	r0, [fp, #-2874]!	; 0xfffff4c6
    1014:	0b381349 	bleq	e05d40 <__bss_end__+0xdfc1c8>
    1018:	0d180000 	ldceq	0, cr0, [r8, #-0]
    101c:	3a0e0300 	bcc	381c24 <__bss_end__+0x3780ac>
    1020:	49053b0b 	stmdbmi	r5, {r0, r1, r3, r8, r9, fp, ip, sp}
    1024:	00053813 	andeq	r3, r5, r3, lsl r8
    1028:	01131900 	tsteq	r3, r0, lsl #18
    102c:	0b0b0e03 	bleq	2c4840 <__bss_end__+0x2bacc8>
    1030:	053b0b3a 	ldreq	r0, [fp, #-2874]!	; 0xfffff4c6
    1034:	00001301 	andeq	r1, r0, r1, lsl #6
    1038:	0b01131a 	bleq	45ca8 <__bss_end__+0x3c130>
    103c:	3b0b3a0b 	blcc	2cf870 <__bss_end__+0x2c5cf8>
    1040:	00130105 	andseq	r0, r3, r5, lsl #2
    1044:	01171b00 	tsteq	r7, r0, lsl #22
    1048:	0b3a0b0b 	bleq	e83c7c <__bss_end__+0xe7a104>
    104c:	1301053b 	movwne	r0, #5435	; 0x153b
    1050:	0d1c0000 	ldceq	0, cr0, [ip, #-0]
    1054:	3a0e0300 	bcc	381c5c <__bss_end__+0x3780e4>
    1058:	49053b0b 	stmdbmi	r5, {r0, r1, r3, r8, r9, fp, ip, sp}
    105c:	1d000013 	stcne	0, cr0, [r0, #-76]	; 0xffffffb4
    1060:	19270115 	stmdbne	r7!, {r0, r2, r4, r8}
    1064:	00001301 	andeq	r1, r0, r1, lsl #6
    1068:	0300341e 	movweq	r3, #1054	; 0x41e
    106c:	3b0b3a0e 	blcc	2cf8ac <__bss_end__+0x2c5d34>
    1070:	3f134905 	svccc	0x00134905
    1074:	00193c19 	andseq	r3, r9, r9, lsl ip
    1078:	00341f00 	eorseq	r1, r4, r0, lsl #30
    107c:	0b3a0e03 	bleq	e84890 <__bss_end__+0xe7ad18>
    1080:	13490b3b 	movtne	r0, #39739	; 0x9b3b
    1084:	193c193f 	ldmdbne	ip!, {r0, r1, r2, r3, r4, r5, r8, fp, ip}
    1088:	04200000 	strteq	r0, [r0], #-0
    108c:	490b0b01 	stmdbmi	fp, {r0, r8, r9, fp}
    1090:	3b0b3a13 	blcc	2cf8e4 <__bss_end__+0x2c5d6c>
    1094:	0013010b 	andseq	r0, r3, fp, lsl #2
    1098:	00282100 	eoreq	r2, r8, r0, lsl #2
    109c:	0b1c0e03 	bleq	7048b0 <__bss_end__+0x6fad38>
    10a0:	34220000 	strtcc	r0, [r2], #-0
    10a4:	3a0e0300 	bcc	381cac <__bss_end__+0x378134>
    10a8:	490b3b0b 	stmdbmi	fp, {r0, r1, r3, r8, r9, fp, ip, sp}
    10ac:	23000013 	movwcs	r0, #19
    10b0:	193f012e 	ldmdbne	pc!, {r1, r2, r3, r5, r8}	; <UNPREDICTABLE>
    10b4:	0b3a0e03 	bleq	e848c8 <__bss_end__+0xe7ad50>
    10b8:	01110b3b 	tsteq	r1, fp, lsr fp
    10bc:	18400612 	stmdane	r0, {r1, r4, r9, sl}^
    10c0:	01194297 			; <UNDEFINED> instruction: 0x01194297
    10c4:	24000013 	strcs	r0, [r0], #-19	; 0xffffffed
    10c8:	193f002e 	ldmdbne	pc!, {r1, r2, r3, r5}	; <UNPREDICTABLE>
    10cc:	0b3a0e03 	bleq	e848e0 <__bss_end__+0xe7ad68>
    10d0:	19270b3b 	stmdbne	r7!, {r0, r1, r3, r4, r5, r8, r9, fp}
    10d4:	0000193c 	andeq	r1, r0, ip, lsr r9
    10d8:	03003425 	movweq	r3, #1061	; 0x425
    10dc:	3b0b3a08 	blcc	2cf904 <__bss_end__+0x2c5d8c>
    10e0:	0213490b 	andseq	r4, r3, #180224	; 0x2c000
    10e4:	26000017 			; <UNDEFINED> instruction: 0x26000017
    10e8:	00018289 	andeq	r8, r1, r9, lsl #5
    10ec:	13310111 	teqne	r1, #1073741828	; 0x40000004
    10f0:	89270000 	stmdbhi	r7!, {}	; <UNPREDICTABLE>
    10f4:	11010182 	smlabbne	r1, r2, r1, r0
    10f8:	00133101 	andseq	r3, r3, r1, lsl #2
    10fc:	828a2800 	addhi	r2, sl, #0, 16
    1100:	18020001 	stmdane	r2, {r0}
    1104:	00184291 	mulseq	r8, r1, r2
    1108:	012e2900 			; <UNDEFINED> instruction: 0x012e2900
    110c:	0b3a0e03 	bleq	e84920 <__bss_end__+0xe7ada8>
    1110:	19270b3b 	stmdbne	r7!, {r0, r1, r3, r4, r5, r8, r9, fp}
    1114:	01111349 	tsteq	r1, r9, asr #6
    1118:	18400612 	stmdane	r0, {r1, r4, r9, sl}^
    111c:	01194297 			; <UNDEFINED> instruction: 0x01194297
    1120:	2a000013 	bcs	1174 <_start-0x6e8c>
    1124:	08030005 	stmdaeq	r3, {r0, r2}
    1128:	0b3b0b3a 	bleq	ec3e18 <__bss_end__+0xeba2a0>
    112c:	18021349 	stmdane	r2, {r0, r3, r6, r8, r9, ip}
    1130:	2e2b0000 	cdpcs	0, 2, cr0, cr11, cr0, {0}
    1134:	3c193f00 	ldccc	15, cr3, [r9], {-0}
    1138:	030e6e19 	movweq	r6, #60953	; 0xee19
    113c:	3b0b3a0e 	blcc	2cf97c <__bss_end__+0x2c5e04>
    1140:	0000000b 	andeq	r0, r0, fp
    1144:	25011101 	strcs	r1, [r1, #-257]	; 0xfffffeff
    1148:	030b130e 	movweq	r1, #45838	; 0xb30e
    114c:	550e1b0e 	strpl	r1, [lr, #-2830]	; 0xfffff4f2
    1150:	10011117 	andne	r1, r1, r7, lsl r1
    1154:	02000017 	andeq	r0, r0, #23
    1158:	0b0b0024 	bleq	2c11f0 <__bss_end__+0x2b7678>
    115c:	08030b3e 	stmdaeq	r3, {r1, r2, r3, r4, r5, r8, r9, fp}
    1160:	26030000 	strcs	r0, [r3], -r0
    1164:	00134900 	andseq	r4, r3, r0, lsl #18
    1168:	00240400 	eoreq	r0, r4, r0, lsl #8
    116c:	0b3e0b0b 	bleq	f83da0 <__bss_end__+0xf7a228>
    1170:	00000e03 	andeq	r0, r0, r3, lsl #28
    1174:	03001605 	movweq	r1, #1541	; 0x605
    1178:	3b0b3a0e 	blcc	2cf9b8 <__bss_end__+0x2c5e40>
    117c:	0013490b 	andseq	r4, r3, fp, lsl #18
    1180:	00160600 	andseq	r0, r6, r0, lsl #12
    1184:	0b3a0e03 	bleq	e84998 <__bss_end__+0xe7ae20>
    1188:	1349053b 	movtne	r0, #38203	; 0x953b
    118c:	17070000 	strne	r0, [r7, -r0]
    1190:	3a0b0b01 	bcc	2c3d9c <__bss_end__+0x2ba224>
    1194:	010b3b0b 	tsteq	fp, fp, lsl #22
    1198:	08000013 	stmdaeq	r0, {r0, r1, r4}
    119c:	0e03000d 	cdpeq	0, 0, cr0, cr3, cr13, {0}
    11a0:	0b3b0b3a 	bleq	ec3e90 <__bss_end__+0xeba318>
    11a4:	00001349 	andeq	r1, r0, r9, asr #6
    11a8:	49010109 	stmdbmi	r1, {r0, r3, r8}
    11ac:	00130113 	andseq	r0, r3, r3, lsl r1
    11b0:	00210a00 	eoreq	r0, r1, r0, lsl #20
    11b4:	0b2f1349 	bleq	bc5ee0 <__bss_end__+0xbbc368>
    11b8:	130b0000 	movwne	r0, #45056	; 0xb000
    11bc:	3a0b0b01 	bcc	2c3dc8 <__bss_end__+0x2ba250>
    11c0:	010b3b0b 	tsteq	fp, fp, lsl #22
    11c4:	0c000013 	stceq	0, cr0, [r0], {19}
    11c8:	0e03000d 	cdpeq	0, 0, cr0, cr3, cr13, {0}
    11cc:	0b3b0b3a 	bleq	ec3ebc <__bss_end__+0xeba344>
    11d0:	0b381349 	bleq	e05efc <__bss_end__+0xdfc384>
    11d4:	0f0d0000 	svceq	0x000d0000
    11d8:	000b0b00 	andeq	r0, fp, r0, lsl #22
    11dc:	000f0e00 	andeq	r0, pc, r0, lsl #28
    11e0:	13490b0b 	movtne	r0, #39691	; 0x9b0b
    11e4:	130f0000 	movwne	r0, #61440	; 0xf000
    11e8:	0b0e0301 	bleq	381df4 <__bss_end__+0x37827c>
    11ec:	3b0b3a0b 	blcc	2cfa20 <__bss_end__+0x2c5ea8>
    11f0:	0013010b 	andseq	r0, r3, fp, lsl #2
    11f4:	000d1000 	andeq	r1, sp, r0
    11f8:	0b3a0803 	bleq	e8320c <__bss_end__+0xe79694>
    11fc:	13490b3b 	movtne	r0, #39739	; 0x9b3b
    1200:	00000b38 	andeq	r0, r0, r8, lsr fp
    1204:	03011311 	movweq	r1, #4881	; 0x1311
    1208:	3a050b0e 	bcc	143e48 <__bss_end__+0x13a2d0>
    120c:	010b3b0b 	tsteq	fp, fp, lsl #22
    1210:	12000013 	andne	r0, r0, #19
    1214:	0e03000d 	cdpeq	0, 0, cr0, cr3, cr13, {0}
    1218:	0b3b0b3a 	bleq	ec3f08 <__bss_end__+0xeba390>
    121c:	05381349 	ldreq	r1, [r8, #-841]!	; 0xfffffcb7
    1220:	15130000 	ldrne	r0, [r3, #-0]
    1224:	00192700 	andseq	r2, r9, r0, lsl #14
    1228:	01151400 	tsteq	r5, r0, lsl #8
    122c:	13491927 	movtne	r1, #39207	; 0x9927
    1230:	00001301 	andeq	r1, r0, r1, lsl #6
    1234:	49000515 	stmdbmi	r0, {r0, r2, r4, r8, sl}
    1238:	16000013 			; <UNDEFINED> instruction: 0x16000013
    123c:	0e030113 	mcreq	1, 0, r0, cr3, cr3, {0}
    1240:	0b3a050b 	bleq	e82674 <__bss_end__+0xe78afc>
    1244:	1301053b 	movwne	r0, #5435	; 0x153b
    1248:	0d170000 	ldceq	0, cr0, [r7, #-0]
    124c:	3a0e0300 	bcc	381e54 <__bss_end__+0x3782dc>
    1250:	49053b0b 	stmdbmi	r5, {r0, r1, r3, r8, r9, fp, ip, sp}
    1254:	000b3813 	andeq	r3, fp, r3, lsl r8
    1258:	000d1800 	andeq	r1, sp, r0, lsl #16
    125c:	0b3a0e03 	bleq	e84a70 <__bss_end__+0xe7aef8>
    1260:	1349053b 	movtne	r0, #38203	; 0x953b
    1264:	00000538 	andeq	r0, r0, r8, lsr r5
    1268:	03011319 	movweq	r1, #4889	; 0x1319
    126c:	3a0b0b0e 	bcc	2c3eac <__bss_end__+0x2ba334>
    1270:	01053b0b 	tsteq	r5, fp, lsl #22
    1274:	1a000013 	bne	12c8 <_start-0x6d38>
    1278:	0b0b0113 	bleq	2c16cc <__bss_end__+0x2b7b54>
    127c:	053b0b3a 	ldreq	r0, [fp, #-2874]!	; 0xfffff4c6
    1280:	00001301 	andeq	r1, r0, r1, lsl #6
    1284:	0b01171b 	bleq	46ef8 <__bss_end__+0x3d380>
    1288:	3b0b3a0b 	blcc	2cfabc <__bss_end__+0x2c5f44>
    128c:	00130105 	andseq	r0, r3, r5, lsl #2
    1290:	000d1c00 	andeq	r1, sp, r0, lsl #24
    1294:	0b3a0e03 	bleq	e84aa8 <__bss_end__+0xe7af30>
    1298:	1349053b 	movtne	r0, #38203	; 0x953b
    129c:	151d0000 	ldrne	r0, [sp, #-0]
    12a0:	01192701 	tsteq	r9, r1, lsl #14
    12a4:	1e000013 	mcrne	0, 0, r0, cr0, cr3, {0}
    12a8:	0e030034 	mcreq	0, 0, r0, cr3, cr4, {1}
    12ac:	053b0b3a 	ldreq	r0, [fp, #-2874]!	; 0xfffff4c6
    12b0:	193f1349 	ldmdbne	pc!, {r0, r3, r6, r8, r9, ip}	; <UNPREDICTABLE>
    12b4:	0000193c 	andeq	r1, r0, ip, lsr r9
    12b8:	0300341f 	movweq	r3, #1055	; 0x41f
    12bc:	3b0b3a0e 	blcc	2cfafc <__bss_end__+0x2c5f84>
    12c0:	3f13490b 	svccc	0x0013490b
    12c4:	00193c19 	andseq	r3, r9, r9, lsl ip
    12c8:	00342000 	eorseq	r2, r4, r0
    12cc:	0b3a0e03 	bleq	e84ae0 <__bss_end__+0xe7af68>
    12d0:	13490b3b 	movtne	r0, #39739	; 0x9b3b
    12d4:	2e210000 	cdpcs	0, 2, cr0, cr1, cr0, {0}
    12d8:	03193f01 	tsteq	r9, #1, 30
    12dc:	3b0b3a0e 	blcc	2cfb1c <__bss_end__+0x2c5fa4>
    12e0:	8719270b 	ldrhi	r2, [r9, -fp, lsl #14]
    12e4:	01111901 	tsteq	r1, r1, lsl #18
    12e8:	18400612 	stmdane	r0, {r1, r4, r9, sl}^
    12ec:	01194297 			; <UNDEFINED> instruction: 0x01194297
    12f0:	22000013 	andcs	r0, r0, #19
    12f4:	0e030034 	mcreq	0, 0, r0, cr3, cr4, {1}
    12f8:	0b3b0b3a 	bleq	ec3fe8 <__bss_end__+0xeba470>
    12fc:	17021349 	strne	r1, [r2, -r9, asr #6]
    1300:	89230000 	stmdbhi	r3!, {}	; <UNPREDICTABLE>
    1304:	11000182 	smlabbne	r0, r2, r1, r0
    1308:	00133101 	andseq	r3, r3, r1, lsl #2
    130c:	82892400 	addhi	r2, r9, #0, 8
    1310:	01110101 	tsteq	r1, r1, lsl #2
    1314:	13011331 	movwne	r1, #4913	; 0x1331
    1318:	8a250000 	bhi	941320 <__bss_end__+0x9377a8>
    131c:	02000182 	andeq	r0, r0, #-2147483616	; 0x80000020
    1320:	18429118 	stmdane	r2, {r3, r4, r8, ip, pc}^
    1324:	2e260000 	cdpcs	0, 2, cr0, cr6, cr0, {0}
    1328:	03193f01 	tsteq	r9, #1, 30
    132c:	3b0b3a0e 	blcc	2cfb6c <__bss_end__+0x2c5ff4>
    1330:	1119270b 	tstne	r9, fp, lsl #14
    1334:	40061201 	andmi	r1, r6, r1, lsl #4
    1338:	19429718 	stmdbne	r2, {r3, r4, r8, r9, sl, ip, pc}^
    133c:	00001301 	andeq	r1, r0, r1, lsl #6
    1340:	3f012e27 	svccc	0x00012e27
    1344:	3a0e0319 	bcc	381fb0 <__bss_end__+0x378438>
    1348:	270b3b0b 	strcs	r3, [fp, -fp, lsl #22]
    134c:	11134919 	tstne	r3, r9, lsl r9
    1350:	40061201 	andmi	r1, r6, r1, lsl #4
    1354:	19429718 	stmdbne	r2, {r3, r4, r8, r9, sl, ip, pc}^
    1358:	00001301 	andeq	r1, r0, r1, lsl #6
    135c:	3f002e28 	svccc	0x00002e28
    1360:	6e193c19 	mrcvs	12, 0, r3, cr9, cr9, {0}
    1364:	3a0e030e 	bcc	381fa4 <__bss_end__+0x37842c>
    1368:	000b3b0b 	andeq	r3, fp, fp, lsl #22
    136c:	11010000 	mrsne	r0, (UNDEF: 1)
    1370:	130e2501 	movwne	r2, #58625	; 0xe501
    1374:	1b0e030b 	blne	381fa8 <__bss_end__+0x378430>
    1378:	1201110e 	andne	r1, r1, #-2147483645	; 0x80000003
    137c:	00171006 	andseq	r1, r7, r6
    1380:	00240200 	eoreq	r0, r4, r0, lsl #4
    1384:	0b3e0b0b 	bleq	f83fb8 <__bss_end__+0xf7a440>
    1388:	00000803 	andeq	r0, r0, r3, lsl #16
    138c:	0b002403 	bleq	a3a0 <__bss_end__+0x828>
    1390:	030b3e0b 	movweq	r3, #48651	; 0xbe0b
    1394:	0400000e 	streq	r0, [r0], #-14
    1398:	0e030016 	mcreq	0, 0, r0, cr3, cr6, {0}
    139c:	0b3b0b3a 	bleq	ec408c <__bss_end__+0xeba514>
    13a0:	00001349 	andeq	r1, r0, r9, asr #6
    13a4:	03001605 	movweq	r1, #1541	; 0x605
    13a8:	3b0b3a0e 	blcc	2cfbe8 <__bss_end__+0x2c6070>
    13ac:	00134905 	andseq	r4, r3, r5, lsl #18
    13b0:	01170600 	tsteq	r7, r0, lsl #12
    13b4:	0b3a0b0b 	bleq	e83fe8 <__bss_end__+0xe7a470>
    13b8:	13010b3b 	movwne	r0, #6971	; 0x1b3b
    13bc:	0d070000 	stceq	0, cr0, [r7, #-0]
    13c0:	3a0e0300 	bcc	381fc8 <__bss_end__+0x378450>
    13c4:	490b3b0b 	stmdbmi	fp, {r0, r1, r3, r8, r9, fp, ip, sp}
    13c8:	08000013 	stmdaeq	r0, {r0, r1, r4}
    13cc:	13490101 	movtne	r0, #37121	; 0x9101
    13d0:	00001301 	andeq	r1, r0, r1, lsl #6
    13d4:	49002109 	stmdbmi	r0, {r0, r3, r8, sp}
    13d8:	000b2f13 	andeq	r2, fp, r3, lsl pc
    13dc:	01130a00 	tsteq	r3, r0, lsl #20
    13e0:	0b3a0b0b 	bleq	e84014 <__bss_end__+0xe7a49c>
    13e4:	13010b3b 	movwne	r0, #6971	; 0x1b3b
    13e8:	0d0b0000 	stceq	0, cr0, [fp, #-0]
    13ec:	3a0e0300 	bcc	381ff4 <__bss_end__+0x37847c>
    13f0:	490b3b0b 	stmdbmi	fp, {r0, r1, r3, r8, r9, fp, ip, sp}
    13f4:	000b3813 	andeq	r3, fp, r3, lsl r8
    13f8:	000f0c00 	andeq	r0, pc, r0, lsl #24
    13fc:	00000b0b 	andeq	r0, r0, fp, lsl #22
    1400:	0b000f0d 	bleq	503c <_start-0x2fc4>
    1404:	0013490b 	andseq	r4, r3, fp, lsl #18
    1408:	00260e00 	eoreq	r0, r6, r0, lsl #28
    140c:	00001349 	andeq	r1, r0, r9, asr #6
    1410:	0301130f 	movweq	r1, #4879	; 0x130f
    1414:	3a0b0b0e 	bcc	2c4054 <__bss_end__+0x2ba4dc>
    1418:	010b3b0b 	tsteq	fp, fp, lsl #22
    141c:	10000013 	andne	r0, r0, r3, lsl r0
    1420:	0803000d 	stmdaeq	r3, {r0, r2, r3}
    1424:	0b3b0b3a 	bleq	ec4114 <__bss_end__+0xeba59c>
    1428:	0b381349 	bleq	e06154 <__bss_end__+0xdfc5dc>
    142c:	13110000 	tstne	r1, #0
    1430:	0b0e0301 	bleq	38203c <__bss_end__+0x3784c4>
    1434:	3b0b3a05 	blcc	2cfc50 <__bss_end__+0x2c60d8>
    1438:	0013010b 	andseq	r0, r3, fp, lsl #2
    143c:	000d1200 	andeq	r1, sp, r0, lsl #4
    1440:	0b3a0e03 	bleq	e84c54 <__bss_end__+0xe7b0dc>
    1444:	13490b3b 	movtne	r0, #39739	; 0x9b3b
    1448:	00000538 	andeq	r0, r0, r8, lsr r5
    144c:	27001513 	smladcs	r0, r3, r5, r1
    1450:	14000019 	strne	r0, [r0], #-25	; 0xffffffe7
    1454:	19270115 	stmdbne	r7!, {r0, r2, r4, r8}
    1458:	13011349 	movwne	r1, #4937	; 0x1349
    145c:	05150000 	ldreq	r0, [r5, #-0]
    1460:	00134900 	andseq	r4, r3, r0, lsl #18
    1464:	01131600 	tsteq	r3, r0, lsl #12
    1468:	050b0e03 	streq	r0, [fp, #-3587]	; 0xfffff1fd
    146c:	053b0b3a 	ldreq	r0, [fp, #-2874]!	; 0xfffff4c6
    1470:	00001301 	andeq	r1, r0, r1, lsl #6
    1474:	03000d17 	movweq	r0, #3351	; 0xd17
    1478:	3b0b3a0e 	blcc	2cfcb8 <__bss_end__+0x2c6140>
    147c:	38134905 	ldmdacc	r3, {r0, r2, r8, fp, lr}
    1480:	1800000b 	stmdane	r0, {r0, r1, r3}
    1484:	0e03000d 	cdpeq	0, 0, cr0, cr3, cr13, {0}
    1488:	053b0b3a 	ldreq	r0, [fp, #-2874]!	; 0xfffff4c6
    148c:	05381349 	ldreq	r1, [r8, #-841]!	; 0xfffffcb7
    1490:	13190000 	tstne	r9, #0
    1494:	0b0e0301 	bleq	3820a0 <__bss_end__+0x378528>
    1498:	3b0b3a0b 	blcc	2cfccc <__bss_end__+0x2c6154>
    149c:	00130105 	andseq	r0, r3, r5, lsl #2
    14a0:	01131a00 	tsteq	r3, r0, lsl #20
    14a4:	0b3a0b0b 	bleq	e840d8 <__bss_end__+0xe7a560>
    14a8:	1301053b 	movwne	r0, #5435	; 0x153b
    14ac:	171b0000 	ldrne	r0, [fp, -r0]
    14b0:	3a0b0b01 	bcc	2c40bc <__bss_end__+0x2ba544>
    14b4:	01053b0b 	tsteq	r5, fp, lsl #22
    14b8:	1c000013 	stcne	0, cr0, [r0], {19}
    14bc:	0e03000d 	cdpeq	0, 0, cr0, cr3, cr13, {0}
    14c0:	053b0b3a 	ldreq	r0, [fp, #-2874]!	; 0xfffff4c6
    14c4:	00001349 	andeq	r1, r0, r9, asr #6
    14c8:	2701151d 	smladcs	r1, sp, r5, r1
    14cc:	00130119 	andseq	r0, r3, r9, lsl r1
    14d0:	00341e00 	eorseq	r1, r4, r0, lsl #28
    14d4:	0b3a0e03 	bleq	e84ce8 <__bss_end__+0xe7b170>
    14d8:	1349053b 	movtne	r0, #38203	; 0x953b
    14dc:	193c193f 	ldmdbne	ip!, {r0, r1, r2, r3, r4, r5, r8, fp, ip}
    14e0:	341f0000 	ldrcc	r0, [pc], #-0	; 14e8 <_start-0x6b18>
    14e4:	3a0e0300 	bcc	3820ec <__bss_end__+0x378574>
    14e8:	490b3b0b 	stmdbmi	fp, {r0, r1, r3, r8, r9, fp, ip, sp}
    14ec:	3c193f13 	ldccc	15, cr3, [r9], {19}
    14f0:	20000019 	andcs	r0, r0, r9, lsl r0
    14f4:	193f012e 	ldmdbne	pc!, {r1, r2, r3, r5, r8}	; <UNPREDICTABLE>
    14f8:	0b3a0e03 	bleq	e84d0c <__bss_end__+0xe7b194>
    14fc:	19270b3b 	stmdbne	r7!, {r0, r1, r3, r4, r5, r8, r9, fp}
    1500:	11190187 	tstne	r9, r7, lsl #3
    1504:	40061201 	andmi	r1, r6, r1, lsl #4
    1508:	19429718 	stmdbne	r2, {r3, r4, r8, r9, sl, ip, pc}^
    150c:	00001301 	andeq	r1, r0, r1, lsl #6
    1510:	01828921 	orreq	r8, r2, r1, lsr #18
    1514:	01011101 	tsteq	r1, r1, lsl #2
    1518:	22000013 	andcs	r0, r0, #19
    151c:	0001828a 	andeq	r8, r1, sl, lsl #5
    1520:	42911802 	addsmi	r1, r1, #131072	; 0x20000
    1524:	23000018 	movwcs	r0, #24
    1528:	01018289 	smlabbeq	r1, r9, r2, r8
    152c:	13310111 	teqne	r1, #1073741828	; 0x40000004
    1530:	00001301 	andeq	r1, r0, r1, lsl #6
    1534:	01828924 	orreq	r8, r2, r4, lsr #18
    1538:	31011100 	mrscc	r1, (UNDEF: 17)
    153c:	25000013 	strcs	r0, [r0, #-19]	; 0xffffffed
    1540:	193f002e 	ldmdbne	pc!, {r1, r2, r3, r5}	; <UNPREDICTABLE>
    1544:	0e6e193c 			; <UNDEFINED> instruction: 0x0e6e193c
    1548:	0b3a0e03 	bleq	e84d5c <__bss_end__+0xe7b1e4>
    154c:	00000b3b 	andeq	r0, r0, fp, lsr fp
    1550:	01110100 	tsteq	r1, r0, lsl #2
    1554:	0b130e25 	bleq	4c4df0 <__bss_end__+0x4bb278>
    1558:	0e1b0e03 	cdpeq	14, 1, cr0, cr11, cr3, {0}
    155c:	06120111 			; <UNDEFINED> instruction: 0x06120111
    1560:	00001710 	andeq	r1, r0, r0, lsl r7
    1564:	0b002402 	bleq	a574 <__bss_end__+0x9fc>
    1568:	030b3e0b 	movweq	r3, #48651	; 0xbe0b
    156c:	03000008 	movweq	r0, #8
    1570:	0b0b0024 	bleq	2c1608 <__bss_end__+0x2b7a90>
    1574:	0e030b3e 	vmoveq.16	d3[0], r0
    1578:	16040000 	strne	r0, [r4], -r0
    157c:	3a0e0300 	bcc	382184 <__bss_end__+0x37860c>
    1580:	490b3b0b 	stmdbmi	fp, {r0, r1, r3, r8, r9, fp, ip, sp}
    1584:	05000013 	streq	r0, [r0, #-19]	; 0xffffffed
    1588:	0e030016 	mcreq	0, 0, r0, cr3, cr6, {0}
    158c:	053b0b3a 	ldreq	r0, [fp, #-2874]!	; 0xfffff4c6
    1590:	00001349 	andeq	r1, r0, r9, asr #6
    1594:	0b011706 	bleq	471b4 <__bss_end__+0x3d63c>
    1598:	3b0b3a0b 	blcc	2cfdcc <__bss_end__+0x2c6254>
    159c:	0013010b 	andseq	r0, r3, fp, lsl #2
    15a0:	000d0700 	andeq	r0, sp, r0, lsl #14
    15a4:	0b3a0e03 	bleq	e84db8 <__bss_end__+0xe7b240>
    15a8:	13490b3b 	movtne	r0, #39739	; 0x9b3b
    15ac:	01080000 	mrseq	r0, (UNDEF: 8)
    15b0:	01134901 	tsteq	r3, r1, lsl #18
    15b4:	09000013 	stmdbeq	r0, {r0, r1, r4}
    15b8:	13490021 	movtne	r0, #36897	; 0x9021
    15bc:	00000b2f 	andeq	r0, r0, pc, lsr #22
    15c0:	0b01130a 	bleq	461f0 <__bss_end__+0x3c678>
    15c4:	3b0b3a0b 	blcc	2cfdf8 <__bss_end__+0x2c6280>
    15c8:	0013010b 	andseq	r0, r3, fp, lsl #2
    15cc:	000d0b00 	andeq	r0, sp, r0, lsl #22
    15d0:	0b3a0e03 	bleq	e84de4 <__bss_end__+0xe7b26c>
    15d4:	13490b3b 	movtne	r0, #39739	; 0x9b3b
    15d8:	00000b38 	andeq	r0, r0, r8, lsr fp
    15dc:	0b000f0c 	bleq	5214 <_start-0x2dec>
    15e0:	0d00000b 	stceq	0, cr0, [r0, #-44]	; 0xffffffd4
    15e4:	0b0b000f 	bleq	2c1628 <__bss_end__+0x2b7ab0>
    15e8:	00001349 	andeq	r1, r0, r9, asr #6
    15ec:	4900260e 	stmdbmi	r0, {r1, r2, r3, r9, sl, sp}
    15f0:	0f000013 	svceq	0x00000013
    15f4:	0e030113 	mcreq	1, 0, r0, cr3, cr3, {0}
    15f8:	0b3a0b0b 	bleq	e8422c <__bss_end__+0xe7a6b4>
    15fc:	13010b3b 	movwne	r0, #6971	; 0x1b3b
    1600:	0d100000 	ldceq	0, cr0, [r0, #-0]
    1604:	3a080300 	bcc	20220c <__bss_end__+0x1f8694>
    1608:	490b3b0b 	stmdbmi	fp, {r0, r1, r3, r8, r9, fp, ip, sp}
    160c:	000b3813 	andeq	r3, fp, r3, lsl r8
    1610:	01131100 	tsteq	r3, r0, lsl #2
    1614:	050b0e03 	streq	r0, [fp, #-3587]	; 0xfffff1fd
    1618:	0b3b0b3a 	bleq	ec4308 <__bss_end__+0xeba790>
    161c:	00001301 	andeq	r1, r0, r1, lsl #6
    1620:	03000d12 	movweq	r0, #3346	; 0xd12
    1624:	3b0b3a0e 	blcc	2cfe64 <__bss_end__+0x2c62ec>
    1628:	3813490b 	ldmdacc	r3, {r0, r1, r3, r8, fp, lr}
    162c:	13000005 	movwne	r0, #5
    1630:	19270015 	stmdbne	r7!, {r0, r2, r4}
    1634:	15140000 	ldrne	r0, [r4, #-0]
    1638:	49192701 	ldmdbmi	r9, {r0, r8, r9, sl, sp}
    163c:	00130113 	andseq	r0, r3, r3, lsl r1
    1640:	00051500 	andeq	r1, r5, r0, lsl #10
    1644:	00001349 	andeq	r1, r0, r9, asr #6
    1648:	03011316 	movweq	r1, #4886	; 0x1316
    164c:	3a050b0e 	bcc	14428c <__bss_end__+0x13a714>
    1650:	01053b0b 	tsteq	r5, fp, lsl #22
    1654:	17000013 	smladne	r0, r3, r0, r0
    1658:	0e03000d 	cdpeq	0, 0, cr0, cr3, cr13, {0}
    165c:	053b0b3a 	ldreq	r0, [fp, #-2874]!	; 0xfffff4c6
    1660:	0b381349 	bleq	e0638c <__bss_end__+0xdfc814>
    1664:	0d180000 	ldceq	0, cr0, [r8, #-0]
    1668:	3a0e0300 	bcc	382270 <__bss_end__+0x3786f8>
    166c:	49053b0b 	stmdbmi	r5, {r0, r1, r3, r8, r9, fp, ip, sp}
    1670:	00053813 	andeq	r3, r5, r3, lsl r8
    1674:	01131900 	tsteq	r3, r0, lsl #18
    1678:	0b0b0e03 	bleq	2c4e8c <__bss_end__+0x2bb314>
    167c:	053b0b3a 	ldreq	r0, [fp, #-2874]!	; 0xfffff4c6
    1680:	00001301 	andeq	r1, r0, r1, lsl #6
    1684:	0b01131a 	bleq	462f4 <__bss_end__+0x3c77c>
    1688:	3b0b3a0b 	blcc	2cfebc <__bss_end__+0x2c6344>
    168c:	00130105 	andseq	r0, r3, r5, lsl #2
    1690:	01171b00 	tsteq	r7, r0, lsl #22
    1694:	0b3a0b0b 	bleq	e842c8 <__bss_end__+0xe7a750>
    1698:	1301053b 	movwne	r0, #5435	; 0x153b
    169c:	0d1c0000 	ldceq	0, cr0, [ip, #-0]
    16a0:	3a0e0300 	bcc	3822a8 <__bss_end__+0x378730>
    16a4:	49053b0b 	stmdbmi	r5, {r0, r1, r3, r8, r9, fp, ip, sp}
    16a8:	1d000013 	stcne	0, cr0, [r0, #-76]	; 0xffffffb4
    16ac:	19270115 	stmdbne	r7!, {r0, r2, r4, r8}
    16b0:	00001301 	andeq	r1, r0, r1, lsl #6
    16b4:	0300341e 	movweq	r3, #1054	; 0x41e
    16b8:	3b0b3a0e 	blcc	2cfef8 <__bss_end__+0x2c6380>
    16bc:	3f134905 	svccc	0x00134905
    16c0:	00193c19 	andseq	r3, r9, r9, lsl ip
    16c4:	00341f00 	eorseq	r1, r4, r0, lsl #30
    16c8:	0b3a0e03 	bleq	e84edc <__bss_end__+0xe7b364>
    16cc:	13490b3b 	movtne	r0, #39739	; 0x9b3b
    16d0:	193c193f 	ldmdbne	ip!, {r0, r1, r2, r3, r4, r5, r8, fp, ip}
    16d4:	2e200000 	cdpcs	0, 2, cr0, cr0, cr0, {0}
    16d8:	03193f01 	tsteq	r9, #1, 30
    16dc:	3b0b3a0e 	blcc	2cff1c <__bss_end__+0x2c63a4>
    16e0:	1119270b 	tstne	r9, fp, lsl #14
    16e4:	40061201 	andmi	r1, r6, r1, lsl #4
    16e8:	19429718 	stmdbne	r2, {r3, r4, r8, r9, sl, ip, pc}^
    16ec:	00001301 	andeq	r1, r0, r1, lsl #6
    16f0:	03000521 	movweq	r0, #1313	; 0x521
    16f4:	3b0b3a08 	blcc	2cff1c <__bss_end__+0x2c63a4>
    16f8:	0213490b 	andseq	r4, r3, #180224	; 0x2c000
    16fc:	22000017 	andcs	r0, r0, #23
    1700:	01018289 	smlabbeq	r1, r9, r2, r8
    1704:	13310111 	teqne	r1, #1073741828	; 0x40000004
    1708:	8a230000 	bhi	8c1710 <__bss_end__+0x8b7b98>
    170c:	02000182 	andeq	r0, r0, #-2147483616	; 0x80000020
    1710:	18429118 	stmdane	r2, {r3, r4, r8, ip, pc}^
    1714:	34240000 	strtcc	r0, [r4], #-0
    1718:	3a080300 	bcc	202320 <__bss_end__+0x1f87a8>
    171c:	490b3b0b 	stmdbmi	fp, {r0, r1, r3, r8, r9, fp, ip, sp}
    1720:	00180213 	andseq	r0, r8, r3, lsl r2
    1724:	010b2500 	tsteq	fp, r0, lsl #10
    1728:	06120111 			; <UNDEFINED> instruction: 0x06120111
    172c:	00001301 	andeq	r1, r0, r1, lsl #6
    1730:	03003426 	movweq	r3, #1062	; 0x426
    1734:	3b0b3a08 	blcc	2cff5c <__bss_end__+0x2c63e4>
    1738:	0213490b 	andseq	r4, r3, #180224	; 0x2c000
    173c:	27000017 	smladcs	r0, r7, r0, r0
    1740:	00018289 	andeq	r8, r1, r9, lsl #5
    1744:	13310111 	teqne	r1, #1073741828	; 0x40000004
    1748:	2e280000 	cdpcs	0, 2, cr0, cr8, cr0, {0}
    174c:	03193f01 	tsteq	r9, #1, 30
    1750:	3b0b3a0e 	blcc	2cff90 <__bss_end__+0x2c6418>
    1754:	4919270b 	ldmdbmi	r9, {r0, r1, r3, r8, r9, sl, sp}
    1758:	12011113 	andne	r1, r1, #-1073741820	; 0xc0000004
    175c:	97184006 	ldrls	r4, [r8, -r6]
    1760:	13011942 	movwne	r1, #6466	; 0x1942
    1764:	05290000 	streq	r0, [r9, #-0]!
    1768:	3a0e0300 	bcc	382370 <__bss_end__+0x3787f8>
    176c:	490b3b0b 	stmdbmi	fp, {r0, r1, r3, r8, r9, fp, ip, sp}
    1770:	00170213 	andseq	r0, r7, r3, lsl r2
    1774:	002e2a00 	eoreq	r2, lr, r0, lsl #20
    1778:	193c193f 	ldmdbne	ip!, {r0, r1, r2, r3, r4, r5, r8, fp, ip}
    177c:	0e030e6e 	cdpeq	14, 0, cr0, cr3, cr14, {3}
    1780:	0b3b0b3a 	bleq	ec4470 <__bss_end__+0xeba8f8>
    1784:	01000000 	mrseq	r0, (UNDEF: 0)
    1788:	0e250111 	mcreq	1, 1, r0, cr5, cr1, {0}
    178c:	0e030b13 	vmoveq.32	d3[0], r0
    1790:	01110e1b 	tsteq	r1, fp, lsl lr
    1794:	17100612 			; <UNDEFINED> instruction: 0x17100612
    1798:	24020000 	strcs	r0, [r2], #-0
    179c:	3e0b0b00 	vmlacc.f64	d0, d11, d0
    17a0:	0008030b 	andeq	r0, r8, fp, lsl #6
    17a4:	00240300 	eoreq	r0, r4, r0, lsl #6
    17a8:	0b3e0b0b 	bleq	f843dc <__bss_end__+0xf7a864>
    17ac:	00000e03 	andeq	r0, r0, r3, lsl #28
    17b0:	49003504 	stmdbmi	r0, {r2, r8, sl, ip, sp}
    17b4:	05000013 	streq	r0, [r0, #-19]	; 0xffffffed
    17b8:	0e030016 	mcreq	0, 0, r0, cr3, cr6, {0}
    17bc:	0b3b0b3a 	bleq	ec44ac <__bss_end__+0xeba934>
    17c0:	00001349 	andeq	r1, r0, r9, asr #6
    17c4:	0b000f06 	bleq	53e4 <_start-0x2c1c>
    17c8:	0013490b 	andseq	r4, r3, fp, lsl #18
    17cc:	00130700 	andseq	r0, r3, r0, lsl #14
    17d0:	193c0e03 	ldmdbne	ip!, {r0, r1, r9, sl, fp}
    17d4:	16080000 	strne	r0, [r8], -r0
    17d8:	3a0e0300 	bcc	3823e0 <__bss_end__+0x378868>
    17dc:	49053b0b 	stmdbmi	r5, {r0, r1, r3, r8, r9, fp, ip, sp}
    17e0:	09000013 	stmdbeq	r0, {r0, r1, r4}
    17e4:	0b0b0117 	bleq	2c1c48 <__bss_end__+0x2b80d0>
    17e8:	0b3b0b3a 	bleq	ec44d8 <__bss_end__+0xeba960>
    17ec:	00001301 	andeq	r1, r0, r1, lsl #6
    17f0:	03000d0a 	movweq	r0, #3338	; 0xd0a
    17f4:	3b0b3a0e 	blcc	2d0034 <__bss_end__+0x2c64bc>
    17f8:	0013490b 	andseq	r4, r3, fp, lsl #18
    17fc:	01010b00 	tsteq	r1, r0, lsl #22
    1800:	13011349 	movwne	r1, #4937	; 0x1349
    1804:	210c0000 	mrscs	r0, (UNDEF: 12)
    1808:	2f134900 	svccs	0x00134900
    180c:	0d00000b 	stceq	0, cr0, [r0, #-44]	; 0xffffffd4
    1810:	0b0b0113 	bleq	2c1c64 <__bss_end__+0x2b80ec>
    1814:	0b3b0b3a 	bleq	ec4504 <__bss_end__+0xeba98c>
    1818:	00001301 	andeq	r1, r0, r1, lsl #6
    181c:	03000d0e 	movweq	r0, #3342	; 0xd0e
    1820:	3b0b3a0e 	blcc	2d0060 <__bss_end__+0x2c64e8>
    1824:	3813490b 	ldmdacc	r3, {r0, r1, r3, r8, fp, lr}
    1828:	0f00000b 	svceq	0x0000000b
    182c:	0b0b000f 	bleq	2c1870 <__bss_end__+0x2b7cf8>
    1830:	26100000 	ldrcs	r0, [r0], -r0
    1834:	00134900 	andseq	r4, r3, r0, lsl #18
    1838:	01131100 	tsteq	r3, r0, lsl #2
    183c:	0b0b0e03 	bleq	2c5050 <__bss_end__+0x2bb4d8>
    1840:	0b3b0b3a 	bleq	ec4530 <__bss_end__+0xeba9b8>
    1844:	00001301 	andeq	r1, r0, r1, lsl #6
    1848:	03000d12 	movweq	r0, #3346	; 0xd12
    184c:	3b0b3a08 	blcc	2d0074 <__bss_end__+0x2c64fc>
    1850:	3813490b 	ldmdacc	r3, {r0, r1, r3, r8, fp, lr}
    1854:	1300000b 	movwne	r0, #11
    1858:	0e030113 	mcreq	1, 0, r0, cr3, cr3, {0}
    185c:	0b3a050b 	bleq	e82c90 <__bss_end__+0xe79118>
    1860:	13010b3b 	movwne	r0, #6971	; 0x1b3b
    1864:	0d140000 	ldceq	0, cr0, [r4, #-0]
    1868:	3a0e0300 	bcc	382470 <__bss_end__+0x3788f8>
    186c:	490b3b0b 	stmdbmi	fp, {r0, r1, r3, r8, r9, fp, ip, sp}
    1870:	00053813 	andeq	r3, r5, r3, lsl r8
    1874:	00151500 	andseq	r1, r5, r0, lsl #10
    1878:	00001927 	andeq	r1, r0, r7, lsr #18
    187c:	27011516 	smladcs	r1, r6, r5, r1
    1880:	01134919 	tsteq	r3, r9, lsl r9
    1884:	17000013 	smladne	r0, r3, r0, r0
    1888:	13490005 	movtne	r0, #36869	; 0x9005
    188c:	13180000 	tstne	r8, #0
    1890:	0b0e0301 	bleq	38249c <__bss_end__+0x378924>
    1894:	3b0b3a05 	blcc	2d00b0 <__bss_end__+0x2c6538>
    1898:	00130105 	andseq	r0, r3, r5, lsl #2
    189c:	000d1900 	andeq	r1, sp, r0, lsl #18
    18a0:	0b3a0e03 	bleq	e850b4 <__bss_end__+0xe7b53c>
    18a4:	1349053b 	movtne	r0, #38203	; 0x953b
    18a8:	00000b38 	andeq	r0, r0, r8, lsr fp
    18ac:	03000d1a 	movweq	r0, #3354	; 0xd1a
    18b0:	3b0b3a0e 	blcc	2d00f0 <__bss_end__+0x2c6578>
    18b4:	38134905 	ldmdacc	r3, {r0, r2, r8, fp, lr}
    18b8:	1b000005 	blne	18d4 <_start-0x672c>
    18bc:	0e030113 	mcreq	1, 0, r0, cr3, cr3, {0}
    18c0:	0b3a0b0b 	bleq	e844f4 <__bss_end__+0xe7a97c>
    18c4:	1301053b 	movwne	r0, #5435	; 0x153b
    18c8:	131c0000 	tstne	ip, #0
    18cc:	3a0b0b01 	bcc	2c44d8 <__bss_end__+0x2ba960>
    18d0:	01053b0b 	tsteq	r5, fp, lsl #22
    18d4:	1d000013 	stcne	0, cr0, [r0, #-76]	; 0xffffffb4
    18d8:	0b0b0117 	bleq	2c1d3c <__bss_end__+0x2b81c4>
    18dc:	053b0b3a 	ldreq	r0, [fp, #-2874]!	; 0xfffff4c6
    18e0:	00001301 	andeq	r1, r0, r1, lsl #6
    18e4:	03000d1e 	movweq	r0, #3358	; 0xd1e
    18e8:	3b0b3a0e 	blcc	2d0128 <__bss_end__+0x2c65b0>
    18ec:	00134905 	andseq	r4, r3, r5, lsl #18
    18f0:	01151f00 	tsteq	r5, r0, lsl #30
    18f4:	13011927 	movwne	r1, #6439	; 0x1927
    18f8:	34200000 	strtcc	r0, [r0], #-0
    18fc:	3a0e0300 	bcc	382504 <__bss_end__+0x37898c>
    1900:	49053b0b 	stmdbmi	r5, {r0, r1, r3, r8, r9, fp, ip, sp}
    1904:	3c193f13 	ldccc	15, cr3, [r9], {19}
    1908:	21000019 	tstcs	r0, r9, lsl r0
    190c:	0e030034 	mcreq	0, 0, r0, cr3, cr4, {1}
    1910:	0b3b0b3a 	bleq	ec4600 <__bss_end__+0xebaa88>
    1914:	193f1349 	ldmdbne	pc!, {r0, r3, r6, r8, r9, ip}	; <UNPREDICTABLE>
    1918:	0000193c 	andeq	r1, r0, ip, lsr r9
    191c:	3e010422 	cdpcc	4, 0, cr0, cr1, cr2, {1}
    1920:	490b0b0b 	stmdbmi	fp, {r0, r1, r3, r8, r9, fp}
    1924:	3b0b3a13 	blcc	2d0178 <__bss_end__+0x2c6600>
    1928:	0013010b 	andseq	r0, r3, fp, lsl #2
    192c:	00282300 	eoreq	r2, r8, r0, lsl #6
    1930:	0b1c0e03 	bleq	705144 <__bss_end__+0x6fb5cc>
    1934:	34240000 	strtcc	r0, [r4], #-0
    1938:	3a0e0300 	bcc	382540 <__bss_end__+0x3789c8>
    193c:	490b3b0b 	stmdbmi	fp, {r0, r1, r3, r8, r9, fp, ip, sp}
    1940:	00061c13 	andeq	r1, r6, r3, lsl ip
    1944:	012e2500 			; <UNDEFINED> instruction: 0x012e2500
    1948:	0e03193f 			; <UNDEFINED> instruction: 0x0e03193f
    194c:	0b3b0b3a 	bleq	ec463c <__bss_end__+0xebaac4>
    1950:	13491927 	movtne	r1, #39207	; 0x9927
    1954:	06120111 			; <UNDEFINED> instruction: 0x06120111
    1958:	42971840 	addsmi	r1, r7, #64, 16	; 0x400000
    195c:	00130119 	andseq	r0, r3, r9, lsl r1
    1960:	82892600 	addhi	r2, r9, #0, 12
    1964:	01110001 	tsteq	r1, r1
    1968:	00001331 	andeq	r1, r0, r1, lsr r3
    196c:	3f012e27 	svccc	0x00012e27
    1970:	3a0e0319 	bcc	3825dc <__bss_end__+0x378a64>
    1974:	270b3b0b 	strcs	r3, [fp, -fp, lsl #22]
    1978:	12011119 	andne	r1, r1, #1073741830	; 0x40000006
    197c:	97184006 	ldrls	r4, [r8, -r6]
    1980:	13011942 	movwne	r1, #6466	; 0x1942
    1984:	05280000 	streq	r0, [r8, #-0]!
    1988:	3a080300 	bcc	202590 <__bss_end__+0x1f8a18>
    198c:	490b3b0b 	stmdbmi	fp, {r0, r1, r3, r8, r9, fp, ip, sp}
    1990:	00170213 	andseq	r0, r7, r3, lsl r2
    1994:	82892900 	addhi	r2, r9, #0, 18
    1998:	01110101 	tsteq	r1, r1, lsl #2
    199c:	00001331 	andeq	r1, r0, r1, lsr r3
    19a0:	01828a2a 	orreq	r8, r2, sl, lsr #20
    19a4:	91180200 	tstls	r8, r0, lsl #4
    19a8:	00001842 	andeq	r1, r0, r2, asr #16
    19ac:	0182892b 	orreq	r8, r2, fp, lsr #18
    19b0:	31011101 	tstcc	r1, r1, lsl #2
    19b4:	00130113 	andseq	r0, r3, r3, lsl r1
    19b8:	012e2c00 			; <UNDEFINED> instruction: 0x012e2c00
    19bc:	0b3a0e03 	bleq	e851d0 <__bss_end__+0xe7b658>
    19c0:	19270b3b 	stmdbne	r7!, {r0, r1, r3, r4, r5, r8, r9, fp}
    19c4:	06120111 			; <UNDEFINED> instruction: 0x06120111
    19c8:	42971840 	addsmi	r1, r7, #64, 16	; 0x400000
    19cc:	00130119 	andseq	r0, r3, r9, lsl r1
    19d0:	00052d00 	andeq	r2, r5, r0, lsl #26
    19d4:	0b3a0e03 	bleq	e851e8 <__bss_end__+0xe7b670>
    19d8:	13490b3b 	movtne	r0, #39739	; 0x9b3b
    19dc:	00001702 	andeq	r1, r0, r2, lsl #14
    19e0:	0000352e 	andeq	r3, r0, lr, lsr #10
    19e4:	002e2f00 	eoreq	r2, lr, r0, lsl #30
    19e8:	193c193f 	ldmdbne	ip!, {r0, r1, r2, r3, r4, r5, r8, fp, ip}
    19ec:	0e030e6e 	cdpeq	14, 0, cr0, cr3, cr14, {3}
    19f0:	0b3b0b3a 	bleq	ec46e0 <__bss_end__+0xebab68>
    19f4:	01000000 	mrseq	r0, (UNDEF: 0)
    19f8:	0e250111 	mcreq	1, 1, r0, cr5, cr1, {0}
    19fc:	0e030b13 	vmoveq.32	d3[0], r0
    1a00:	01110e1b 	tsteq	r1, fp, lsl lr
    1a04:	17100612 			; <UNDEFINED> instruction: 0x17100612
    1a08:	24020000 	strcs	r0, [r2], #-0
    1a0c:	3e0b0b00 	vmlacc.f64	d0, d11, d0
    1a10:	0008030b 	andeq	r0, r8, fp, lsl #6
    1a14:	00240300 	eoreq	r0, r4, r0, lsl #6
    1a18:	0b3e0b0b 	bleq	f8464c <__bss_end__+0xf7aad4>
    1a1c:	00000e03 	andeq	r0, r0, r3, lsl #28
    1a20:	49003504 	stmdbmi	r0, {r2, r8, sl, ip, sp}
    1a24:	05000013 	streq	r0, [r0, #-19]	; 0xffffffed
    1a28:	13490026 	movtne	r0, #36902	; 0x9026
    1a2c:	16060000 	strne	r0, [r6], -r0
    1a30:	3a0e0300 	bcc	382638 <__bss_end__+0x378ac0>
    1a34:	490b3b0b 	stmdbmi	fp, {r0, r1, r3, r8, r9, fp, ip, sp}
    1a38:	07000013 	smladeq	r0, r3, r0, r0
    1a3c:	0b0b000f 	bleq	2c1a80 <__bss_end__+0x2b7f08>
    1a40:	00001349 	andeq	r1, r0, r9, asr #6
    1a44:	03001308 	movweq	r1, #776	; 0x308
    1a48:	00193c0e 	andseq	r3, r9, lr, lsl #24
    1a4c:	00160900 	andseq	r0, r6, r0, lsl #18
    1a50:	0b3a0e03 	bleq	e85264 <__bss_end__+0xe7b6ec>
    1a54:	1349053b 	movtne	r0, #38203	; 0x953b
    1a58:	170a0000 	strne	r0, [sl, -r0]
    1a5c:	3a0b0b01 	bcc	2c4668 <__bss_end__+0x2baaf0>
    1a60:	010b3b0b 	tsteq	fp, fp, lsl #22
    1a64:	0b000013 	bleq	1ab8 <_start-0x6548>
    1a68:	0e03000d 	cdpeq	0, 0, cr0, cr3, cr13, {0}
    1a6c:	0b3b0b3a 	bleq	ec475c <__bss_end__+0xebabe4>
    1a70:	00001349 	andeq	r1, r0, r9, asr #6
    1a74:	4901010c 	stmdbmi	r1, {r2, r3, r8}
    1a78:	00130113 	andseq	r0, r3, r3, lsl r1
    1a7c:	00210d00 	eoreq	r0, r1, r0, lsl #26
    1a80:	0b2f1349 	bleq	bc67ac <__bss_end__+0xbbcc34>
    1a84:	130e0000 	movwne	r0, #57344	; 0xe000
    1a88:	3a0b0b01 	bcc	2c4694 <__bss_end__+0x2bab1c>
    1a8c:	010b3b0b 	tsteq	fp, fp, lsl #22
    1a90:	0f000013 	svceq	0x00000013
    1a94:	0e03000d 	cdpeq	0, 0, cr0, cr3, cr13, {0}
    1a98:	0b3b0b3a 	bleq	ec4788 <__bss_end__+0xebac10>
    1a9c:	0b381349 	bleq	e067c8 <__bss_end__+0xdfcc50>
    1aa0:	0f100000 	svceq	0x00100000
    1aa4:	000b0b00 	andeq	r0, fp, r0, lsl #22
    1aa8:	01131100 	tsteq	r3, r0, lsl #2
    1aac:	0b0b0e03 	bleq	2c52c0 <__bss_end__+0x2bb748>
    1ab0:	0b3b0b3a 	bleq	ec47a0 <__bss_end__+0xebac28>
    1ab4:	00001301 	andeq	r1, r0, r1, lsl #6
    1ab8:	03000d12 	movweq	r0, #3346	; 0xd12
    1abc:	3b0b3a08 	blcc	2d02e4 <__bss_end__+0x2c676c>
    1ac0:	3813490b 	ldmdacc	r3, {r0, r1, r3, r8, fp, lr}
    1ac4:	1300000b 	movwne	r0, #11
    1ac8:	0e030113 	mcreq	1, 0, r0, cr3, cr3, {0}
    1acc:	0b3a050b 	bleq	e82f00 <__bss_end__+0xe79388>
    1ad0:	13010b3b 	movwne	r0, #6971	; 0x1b3b
    1ad4:	0d140000 	ldceq	0, cr0, [r4, #-0]
    1ad8:	3a0e0300 	bcc	3826e0 <__bss_end__+0x378b68>
    1adc:	490b3b0b 	stmdbmi	fp, {r0, r1, r3, r8, r9, fp, ip, sp}
    1ae0:	00053813 	andeq	r3, r5, r3, lsl r8
    1ae4:	00151500 	andseq	r1, r5, r0, lsl #10
    1ae8:	00001927 	andeq	r1, r0, r7, lsr #18
    1aec:	27011516 	smladcs	r1, r6, r5, r1
    1af0:	01134919 	tsteq	r3, r9, lsl r9
    1af4:	17000013 	smladne	r0, r3, r0, r0
    1af8:	13490005 	movtne	r0, #36869	; 0x9005
    1afc:	13180000 	tstne	r8, #0
    1b00:	0b0e0301 	bleq	38270c <__bss_end__+0x378b94>
    1b04:	3b0b3a05 	blcc	2d0320 <__bss_end__+0x2c67a8>
    1b08:	00130105 	andseq	r0, r3, r5, lsl #2
    1b0c:	000d1900 	andeq	r1, sp, r0, lsl #18
    1b10:	0b3a0e03 	bleq	e85324 <__bss_end__+0xe7b7ac>
    1b14:	1349053b 	movtne	r0, #38203	; 0x953b
    1b18:	00000b38 	andeq	r0, r0, r8, lsr fp
    1b1c:	03000d1a 	movweq	r0, #3354	; 0xd1a
    1b20:	3b0b3a0e 	blcc	2d0360 <__bss_end__+0x2c67e8>
    1b24:	38134905 	ldmdacc	r3, {r0, r2, r8, fp, lr}
    1b28:	1b000005 	blne	1b44 <_start-0x64bc>
    1b2c:	0e030113 	mcreq	1, 0, r0, cr3, cr3, {0}
    1b30:	0b3a0b0b 	bleq	e84764 <__bss_end__+0xe7abec>
    1b34:	1301053b 	movwne	r0, #5435	; 0x153b
    1b38:	131c0000 	tstne	ip, #0
    1b3c:	3a0b0b01 	bcc	2c4748 <__bss_end__+0x2babd0>
    1b40:	01053b0b 	tsteq	r5, fp, lsl #22
    1b44:	1d000013 	stcne	0, cr0, [r0, #-76]	; 0xffffffb4
    1b48:	0b0b0117 	bleq	2c1fac <__bss_end__+0x2b8434>
    1b4c:	053b0b3a 	ldreq	r0, [fp, #-2874]!	; 0xfffff4c6
    1b50:	00001301 	andeq	r1, r0, r1, lsl #6
    1b54:	03000d1e 	movweq	r0, #3358	; 0xd1e
    1b58:	3b0b3a0e 	blcc	2d0398 <__bss_end__+0x2c6820>
    1b5c:	00134905 	andseq	r4, r3, r5, lsl #18
    1b60:	01151f00 	tsteq	r5, r0, lsl #30
    1b64:	13011927 	movwne	r1, #6439	; 0x1927
    1b68:	34200000 	strtcc	r0, [r0], #-0
    1b6c:	3a0e0300 	bcc	382774 <__bss_end__+0x378bfc>
    1b70:	49053b0b 	stmdbmi	r5, {r0, r1, r3, r8, r9, fp, ip, sp}
    1b74:	3c193f13 	ldccc	15, cr3, [r9], {19}
    1b78:	21000019 	tstcs	r0, r9, lsl r0
    1b7c:	0e030034 	mcreq	0, 0, r0, cr3, cr4, {1}
    1b80:	0b3b0b3a 	bleq	ec4870 <__bss_end__+0xebacf8>
    1b84:	193f1349 	ldmdbne	pc!, {r0, r3, r6, r8, r9, ip}	; <UNPREDICTABLE>
    1b88:	0000193c 	andeq	r1, r0, ip, lsr r9
    1b8c:	3e010422 	cdpcc	4, 0, cr0, cr1, cr2, {1}
    1b90:	490b0b0b 	stmdbmi	fp, {r0, r1, r3, r8, r9, fp}
    1b94:	3b0b3a13 	blcc	2d03e8 <__bss_end__+0x2c6870>
    1b98:	0013010b 	andseq	r0, r3, fp, lsl #2
    1b9c:	00282300 	eoreq	r2, r8, r0, lsl #6
    1ba0:	0b1c0e03 	bleq	7053b4 <__bss_end__+0x6fb83c>
    1ba4:	34240000 	strtcc	r0, [r4], #-0
    1ba8:	3a0e0300 	bcc	3827b0 <__bss_end__+0x378c38>
    1bac:	490b3b0b 	stmdbmi	fp, {r0, r1, r3, r8, r9, fp, ip, sp}
    1bb0:	00061c13 	andeq	r1, r6, r3, lsl ip
    1bb4:	012e2500 			; <UNDEFINED> instruction: 0x012e2500
    1bb8:	0e03193f 			; <UNDEFINED> instruction: 0x0e03193f
    1bbc:	0b3b0b3a 	bleq	ec48ac <__bss_end__+0xebad34>
    1bc0:	13491927 	movtne	r1, #39207	; 0x9927
    1bc4:	06120111 			; <UNDEFINED> instruction: 0x06120111
    1bc8:	42971840 	addsmi	r1, r7, #64, 16	; 0x400000
    1bcc:	00130119 	andseq	r0, r3, r9, lsl r1
    1bd0:	00052600 	andeq	r2, r5, r0, lsl #12
    1bd4:	0b3a0803 	bleq	e83be8 <__bss_end__+0xe7a070>
    1bd8:	13490b3b 	movtne	r0, #39739	; 0x9b3b
    1bdc:	00001702 	andeq	r1, r0, r2, lsl #14
    1be0:	03003427 	movweq	r3, #1063	; 0x427
    1be4:	3b0b3a0e 	blcc	2d0424 <__bss_end__+0x2c68ac>
    1be8:	0213490b 	andseq	r4, r3, #180224	; 0x2c000
    1bec:	28000017 	stmdacs	r0, {r0, r1, r2, r4}
    1bf0:	08030034 	stmdaeq	r3, {r2, r4, r5}
    1bf4:	0b3b0b3a 	bleq	ec48e4 <__bss_end__+0xebad6c>
    1bf8:	17021349 	strne	r1, [r2, -r9, asr #6]
    1bfc:	89290000 	stmdbhi	r9!, {}	; <UNPREDICTABLE>
    1c00:	11010182 	smlabbne	r1, r2, r1, r0
    1c04:	00133101 	andseq	r3, r3, r1, lsl #2
    1c08:	828a2a00 	addhi	r2, sl, #0, 20
    1c0c:	18020001 	stmdane	r2, {r0}
    1c10:	00184291 	mulseq	r8, r1, r2
    1c14:	012e2b00 			; <UNDEFINED> instruction: 0x012e2b00
    1c18:	0e03193f 			; <UNDEFINED> instruction: 0x0e03193f
    1c1c:	0b3b0b3a 	bleq	ec490c <__bss_end__+0xebad94>
    1c20:	01111927 	tsteq	r1, r7, lsr #18
    1c24:	18400612 	stmdane	r0, {r1, r4, r9, sl}^
    1c28:	01194297 			; <UNDEFINED> instruction: 0x01194297
    1c2c:	2c000013 	stccs	0, cr0, [r0], {19}
    1c30:	01018289 	smlabbeq	r1, r9, r2, r8
    1c34:	13310111 	teqne	r1, #1073741828	; 0x40000004
    1c38:	00001301 	andeq	r1, r0, r1, lsl #6
    1c3c:	0182892d 	orreq	r8, r2, sp, lsr #18
    1c40:	31011100 	mrscc	r1, (UNDEF: 17)
    1c44:	2e000013 	mcrcs	0, 0, r0, cr0, cr3, {0}
    1c48:	0e030005 	cdpeq	0, 0, cr0, cr3, cr5, {0}
    1c4c:	0b3b0b3a 	bleq	ec493c <__bss_end__+0xebadc4>
    1c50:	17021349 	strne	r1, [r2, -r9, asr #6]
    1c54:	342f0000 	strtcc	r0, [pc], #-0	; 1c5c <_start-0x63a4>
    1c58:	3a080300 	bcc	202860 <__bss_end__+0x1f8ce8>
    1c5c:	490b3b0b 	stmdbmi	fp, {r0, r1, r3, r8, r9, fp, ip, sp}
    1c60:	00180213 	andseq	r0, r8, r3, lsl r2
    1c64:	002e3000 	eoreq	r3, lr, r0
    1c68:	193c193f 	ldmdbne	ip!, {r0, r1, r2, r3, r4, r5, r8, fp, ip}
    1c6c:	0e030e6e 	cdpeq	14, 0, cr0, cr3, cr14, {3}
    1c70:	0b3b0b3a 	bleq	ec4960 <__bss_end__+0xebade8>
    1c74:	01000000 	mrseq	r0, (UNDEF: 0)
    1c78:	0e250111 	mcreq	1, 1, r0, cr5, cr1, {0}
    1c7c:	0e030b13 	vmoveq.32	d3[0], r0
    1c80:	01110e1b 	tsteq	r1, fp, lsl lr
    1c84:	17100612 			; <UNDEFINED> instruction: 0x17100612
    1c88:	24020000 	strcs	r0, [r2], #-0
    1c8c:	3e0b0b00 	vmlacc.f64	d0, d11, d0
    1c90:	0008030b 	andeq	r0, r8, fp, lsl #6
    1c94:	00240300 	eoreq	r0, r4, r0, lsl #6
    1c98:	0b3e0b0b 	bleq	f848cc <__bss_end__+0xf7ad54>
    1c9c:	00000e03 	andeq	r0, r0, r3, lsl #28
    1ca0:	03001604 	movweq	r1, #1540	; 0x604
    1ca4:	3b0b3a0e 	blcc	2d04e4 <__bss_end__+0x2c696c>
    1ca8:	0013490b 	andseq	r4, r3, fp, lsl #18
    1cac:	00160500 	andseq	r0, r6, r0, lsl #10
    1cb0:	0b3a0e03 	bleq	e854c4 <__bss_end__+0xe7b94c>
    1cb4:	1349053b 	movtne	r0, #38203	; 0x953b
    1cb8:	17060000 	strne	r0, [r6, -r0]
    1cbc:	3a0b0b01 	bcc	2c48c8 <__bss_end__+0x2bad50>
    1cc0:	010b3b0b 	tsteq	fp, fp, lsl #22
    1cc4:	07000013 	smladeq	r0, r3, r0, r0
    1cc8:	0e03000d 	cdpeq	0, 0, cr0, cr3, cr13, {0}
    1ccc:	0b3b0b3a 	bleq	ec49bc <__bss_end__+0xebae44>
    1cd0:	00001349 	andeq	r1, r0, r9, asr #6
    1cd4:	49010108 	stmdbmi	r1, {r3, r8}
    1cd8:	00130113 	andseq	r0, r3, r3, lsl r1
    1cdc:	00210900 	eoreq	r0, r1, r0, lsl #18
    1ce0:	0b2f1349 	bleq	bc6a0c <__bss_end__+0xbbce94>
    1ce4:	130a0000 	movwne	r0, #40960	; 0xa000
    1ce8:	3a0b0b01 	bcc	2c48f4 <__bss_end__+0x2bad7c>
    1cec:	010b3b0b 	tsteq	fp, fp, lsl #22
    1cf0:	0b000013 	bleq	1d44 <_start-0x62bc>
    1cf4:	0e03000d 	cdpeq	0, 0, cr0, cr3, cr13, {0}
    1cf8:	0b3b0b3a 	bleq	ec49e8 <__bss_end__+0xebae70>
    1cfc:	0b381349 	bleq	e06a28 <__bss_end__+0xdfceb0>
    1d00:	0f0c0000 	svceq	0x000c0000
    1d04:	000b0b00 	andeq	r0, fp, r0, lsl #22
    1d08:	000f0d00 	andeq	r0, pc, r0, lsl #26
    1d0c:	13490b0b 	movtne	r0, #39691	; 0x9b0b
    1d10:	260e0000 	strcs	r0, [lr], -r0
    1d14:	00134900 	andseq	r4, r3, r0, lsl #18
    1d18:	01130f00 	tsteq	r3, r0, lsl #30
    1d1c:	0b0b0e03 	bleq	2c5530 <__bss_end__+0x2bb9b8>
    1d20:	0b3b0b3a 	bleq	ec4a10 <__bss_end__+0xebae98>
    1d24:	00001301 	andeq	r1, r0, r1, lsl #6
    1d28:	03000d10 	movweq	r0, #3344	; 0xd10
    1d2c:	3b0b3a08 	blcc	2d0554 <__bss_end__+0x2c69dc>
    1d30:	3813490b 	ldmdacc	r3, {r0, r1, r3, r8, fp, lr}
    1d34:	1100000b 	tstne	r0, fp
    1d38:	0e030113 	mcreq	1, 0, r0, cr3, cr3, {0}
    1d3c:	0b3a050b 	bleq	e83170 <__bss_end__+0xe795f8>
    1d40:	13010b3b 	movwne	r0, #6971	; 0x1b3b
    1d44:	0d120000 	ldceq	0, cr0, [r2, #-0]
    1d48:	3a0e0300 	bcc	382950 <__bss_end__+0x378dd8>
    1d4c:	490b3b0b 	stmdbmi	fp, {r0, r1, r3, r8, r9, fp, ip, sp}
    1d50:	00053813 	andeq	r3, r5, r3, lsl r8
    1d54:	00151300 	andseq	r1, r5, r0, lsl #6
    1d58:	00001927 	andeq	r1, r0, r7, lsr #18
    1d5c:	27011514 	smladcs	r1, r4, r5, r1
    1d60:	01134919 	tsteq	r3, r9, lsl r9
    1d64:	15000013 	strne	r0, [r0, #-19]	; 0xffffffed
    1d68:	13490005 	movtne	r0, #36869	; 0x9005
    1d6c:	13160000 	tstne	r6, #0
    1d70:	0b0e0301 	bleq	38297c <__bss_end__+0x378e04>
    1d74:	3b0b3a05 	blcc	2d0590 <__bss_end__+0x2c6a18>
    1d78:	00130105 	andseq	r0, r3, r5, lsl #2
    1d7c:	000d1700 	andeq	r1, sp, r0, lsl #14
    1d80:	0b3a0e03 	bleq	e85594 <__bss_end__+0xe7ba1c>
    1d84:	1349053b 	movtne	r0, #38203	; 0x953b
    1d88:	00000b38 	andeq	r0, r0, r8, lsr fp
    1d8c:	03000d18 	movweq	r0, #3352	; 0xd18
    1d90:	3b0b3a0e 	blcc	2d05d0 <__bss_end__+0x2c6a58>
    1d94:	38134905 	ldmdacc	r3, {r0, r2, r8, fp, lr}
    1d98:	19000005 	stmdbne	r0, {r0, r2}
    1d9c:	0e030113 	mcreq	1, 0, r0, cr3, cr3, {0}
    1da0:	0b3a0b0b 	bleq	e849d4 <__bss_end__+0xe7ae5c>
    1da4:	1301053b 	movwne	r0, #5435	; 0x153b
    1da8:	131a0000 	tstne	sl, #0
    1dac:	3a0b0b01 	bcc	2c49b8 <__bss_end__+0x2bae40>
    1db0:	01053b0b 	tsteq	r5, fp, lsl #22
    1db4:	1b000013 	blne	1e08 <_start-0x61f8>
    1db8:	0b0b0117 	bleq	2c221c <__bss_end__+0x2b86a4>
    1dbc:	053b0b3a 	ldreq	r0, [fp, #-2874]!	; 0xfffff4c6
    1dc0:	00001301 	andeq	r1, r0, r1, lsl #6
    1dc4:	03000d1c 	movweq	r0, #3356	; 0xd1c
    1dc8:	3b0b3a0e 	blcc	2d0608 <__bss_end__+0x2c6a90>
    1dcc:	00134905 	andseq	r4, r3, r5, lsl #18
    1dd0:	01151d00 	tsteq	r5, r0, lsl #26
    1dd4:	13011927 	movwne	r1, #6439	; 0x1927
    1dd8:	341e0000 	ldrcc	r0, [lr], #-0
    1ddc:	3a0e0300 	bcc	3829e4 <__bss_end__+0x378e6c>
    1de0:	49053b0b 	stmdbmi	r5, {r0, r1, r3, r8, r9, fp, ip, sp}
    1de4:	3c193f13 	ldccc	15, cr3, [r9], {19}
    1de8:	1f000019 	svcne	0x00000019
    1dec:	0e030034 	mcreq	0, 0, r0, cr3, cr4, {1}
    1df0:	0b3b0b3a 	bleq	ec4ae0 <__bss_end__+0xebaf68>
    1df4:	193f1349 	ldmdbne	pc!, {r0, r3, r6, r8, r9, ip}	; <UNPREDICTABLE>
    1df8:	0000193c 	andeq	r1, r0, ip, lsr r9
    1dfc:	0b010420 	bleq	42e84 <__bss_end__+0x3930c>
    1e00:	3a13490b 	bcc	4d4234 <__bss_end__+0x4ca6bc>
    1e04:	010b3b0b 	tsteq	fp, fp, lsl #22
    1e08:	21000013 	tstcs	r0, r3, lsl r0
    1e0c:	0e030028 	cdpeq	0, 0, cr0, cr3, cr8, {1}
    1e10:	00000b1c 	andeq	r0, r0, ip, lsl fp
    1e14:	3f012e22 	svccc	0x00012e22
    1e18:	3a0e0319 	bcc	382a84 <__bss_end__+0x378f0c>
    1e1c:	270b3b0b 	strcs	r3, [fp, -fp, lsl #22]
    1e20:	11134919 	tstne	r3, r9, lsl r9
    1e24:	40061201 	andmi	r1, r6, r1, lsl #4
    1e28:	19429718 	stmdbne	r2, {r3, r4, r8, r9, sl, ip, pc}^
    1e2c:	00001301 	andeq	r1, r0, r1, lsl #6
    1e30:	03003423 	movweq	r3, #1059	; 0x423
    1e34:	3b0b3a08 	blcc	2d065c <__bss_end__+0x2c6ae4>
    1e38:	1c13490b 			; <UNDEFINED> instruction: 0x1c13490b
    1e3c:	24000006 	strcs	r0, [r0], #-6
    1e40:	01018289 	smlabbeq	r1, r9, r2, r8
    1e44:	13310111 	teqne	r1, #1073741828	; 0x40000004
    1e48:	8a250000 	bhi	941e50 <__bss_end__+0x9382d8>
    1e4c:	02000182 	andeq	r0, r0, #-2147483616	; 0x80000020
    1e50:	18429118 	stmdane	r2, {r3, r4, r8, ip, pc}^
    1e54:	2e260000 	cdpcs	0, 2, cr0, cr6, cr0, {0}
    1e58:	3c193f00 	ldccc	15, cr3, [r9], {-0}
    1e5c:	030e6e19 	movweq	r6, #60953	; 0xee19
    1e60:	3b0b3a0e 	blcc	2d06a0 <__bss_end__+0x2c6b28>
    1e64:	0000000b 	andeq	r0, r0, fp
    1e68:	25011101 	strcs	r1, [r1, #-257]	; 0xfffffeff
    1e6c:	030b130e 	movweq	r1, #45838	; 0xb30e
    1e70:	110e1b0e 	tstne	lr, lr, lsl #22
    1e74:	10061201 	andne	r1, r6, r1, lsl #4
    1e78:	02000017 	andeq	r0, r0, #23
    1e7c:	0b0b0024 	bleq	2c1f14 <__bss_end__+0x2b839c>
    1e80:	08030b3e 	stmdaeq	r3, {r1, r2, r3, r4, r5, r8, r9, fp}
    1e84:	16030000 	strne	r0, [r3], -r0
    1e88:	3a0e0300 	bcc	382a90 <__bss_end__+0x378f18>
    1e8c:	490b3b0b 	stmdbmi	fp, {r0, r1, r3, r8, r9, fp, ip, sp}
    1e90:	04000013 	streq	r0, [r0], #-19	; 0xffffffed
    1e94:	0b0b0024 	bleq	2c1f2c <__bss_end__+0x2b83b4>
    1e98:	0e030b3e 	vmoveq.16	d3[0], r0
    1e9c:	16050000 	strne	r0, [r5], -r0
    1ea0:	3a0e0300 	bcc	382aa8 <__bss_end__+0x378f30>
    1ea4:	49053b0b 	stmdbmi	r5, {r0, r1, r3, r8, r9, fp, ip, sp}
    1ea8:	06000013 			; <UNDEFINED> instruction: 0x06000013
    1eac:	0b0b0117 	bleq	2c2310 <__bss_end__+0x2b8798>
    1eb0:	0b3b0b3a 	bleq	ec4ba0 <__bss_end__+0xebb028>
    1eb4:	00001301 	andeq	r1, r0, r1, lsl #6
    1eb8:	03000d07 	movweq	r0, #3335	; 0xd07
    1ebc:	3b0b3a0e 	blcc	2d06fc <__bss_end__+0x2c6b84>
    1ec0:	0013490b 	andseq	r4, r3, fp, lsl #18
    1ec4:	01010800 	tsteq	r1, r0, lsl #16
    1ec8:	13011349 	movwne	r1, #4937	; 0x1349
    1ecc:	21090000 	mrscs	r0, (UNDEF: 9)
    1ed0:	2f134900 	svccs	0x00134900
    1ed4:	0a00000b 	beq	1f08 <_start-0x60f8>
    1ed8:	0b0b0113 	bleq	2c232c <__bss_end__+0x2b87b4>
    1edc:	0b3b0b3a 	bleq	ec4bcc <__bss_end__+0xebb054>
    1ee0:	00001301 	andeq	r1, r0, r1, lsl #6
    1ee4:	03000d0b 	movweq	r0, #3339	; 0xd0b
    1ee8:	3b0b3a0e 	blcc	2d0728 <__bss_end__+0x2c6bb0>
    1eec:	3813490b 	ldmdacc	r3, {r0, r1, r3, r8, fp, lr}
    1ef0:	0c00000b 	stceq	0, cr0, [r0], {11}
    1ef4:	0b0b000f 	bleq	2c1f38 <__bss_end__+0x2b83c0>
    1ef8:	0f0d0000 	svceq	0x000d0000
    1efc:	490b0b00 	stmdbmi	fp, {r8, r9, fp}
    1f00:	0e000013 	mcreq	0, 0, r0, cr0, cr3, {0}
    1f04:	13490026 	movtne	r0, #36902	; 0x9026
    1f08:	130f0000 	movwne	r0, #61440	; 0xf000
    1f0c:	0b0e0301 	bleq	382b18 <__bss_end__+0x378fa0>
    1f10:	3b0b3a0b 	blcc	2d0744 <__bss_end__+0x2c6bcc>
    1f14:	0013010b 	andseq	r0, r3, fp, lsl #2
    1f18:	000d1000 	andeq	r1, sp, r0
    1f1c:	0b3a0803 	bleq	e83f30 <__bss_end__+0xe7a3b8>
    1f20:	13490b3b 	movtne	r0, #39739	; 0x9b3b
    1f24:	00000b38 	andeq	r0, r0, r8, lsr fp
    1f28:	03011311 	movweq	r1, #4881	; 0x1311
    1f2c:	3a050b0e 	bcc	144b6c <__bss_end__+0x13aff4>
    1f30:	010b3b0b 	tsteq	fp, fp, lsl #22
    1f34:	12000013 	andne	r0, r0, #19
    1f38:	0e03000d 	cdpeq	0, 0, cr0, cr3, cr13, {0}
    1f3c:	0b3b0b3a 	bleq	ec4c2c <__bss_end__+0xebb0b4>
    1f40:	05381349 	ldreq	r1, [r8, #-841]!	; 0xfffffcb7
    1f44:	15130000 	ldrne	r0, [r3, #-0]
    1f48:	00192700 	andseq	r2, r9, r0, lsl #14
    1f4c:	01151400 	tsteq	r5, r0, lsl #8
    1f50:	13491927 	movtne	r1, #39207	; 0x9927
    1f54:	00001301 	andeq	r1, r0, r1, lsl #6
    1f58:	49000515 	stmdbmi	r0, {r0, r2, r4, r8, sl}
    1f5c:	16000013 			; <UNDEFINED> instruction: 0x16000013
    1f60:	0e030113 	mcreq	1, 0, r0, cr3, cr3, {0}
    1f64:	0b3a050b 	bleq	e83398 <__bss_end__+0xe79820>
    1f68:	1301053b 	movwne	r0, #5435	; 0x153b
    1f6c:	0d170000 	ldceq	0, cr0, [r7, #-0]
    1f70:	3a0e0300 	bcc	382b78 <__bss_end__+0x379000>
    1f74:	49053b0b 	stmdbmi	r5, {r0, r1, r3, r8, r9, fp, ip, sp}
    1f78:	000b3813 	andeq	r3, fp, r3, lsl r8
    1f7c:	000d1800 	andeq	r1, sp, r0, lsl #16
    1f80:	0b3a0e03 	bleq	e85794 <__bss_end__+0xe7bc1c>
    1f84:	1349053b 	movtne	r0, #38203	; 0x953b
    1f88:	00000538 	andeq	r0, r0, r8, lsr r5
    1f8c:	03011319 	movweq	r1, #4889	; 0x1319
    1f90:	3a0b0b0e 	bcc	2c4bd0 <__bss_end__+0x2bb058>
    1f94:	01053b0b 	tsteq	r5, fp, lsl #22
    1f98:	1a000013 	bne	1fec <_start-0x6014>
    1f9c:	0b0b0113 	bleq	2c23f0 <__bss_end__+0x2b8878>
    1fa0:	053b0b3a 	ldreq	r0, [fp, #-2874]!	; 0xfffff4c6
    1fa4:	00001301 	andeq	r1, r0, r1, lsl #6
    1fa8:	0b01171b 	bleq	47c1c <__bss_end__+0x3e0a4>
    1fac:	3b0b3a0b 	blcc	2d07e0 <__bss_end__+0x2c6c68>
    1fb0:	00130105 	andseq	r0, r3, r5, lsl #2
    1fb4:	000d1c00 	andeq	r1, sp, r0, lsl #24
    1fb8:	0b3a0e03 	bleq	e857cc <__bss_end__+0xe7bc54>
    1fbc:	1349053b 	movtne	r0, #38203	; 0x953b
    1fc0:	151d0000 	ldrne	r0, [sp, #-0]
    1fc4:	01192701 	tsteq	r9, r1, lsl #14
    1fc8:	1e000013 	mcrne	0, 0, r0, cr0, cr3, {0}
    1fcc:	0e030034 	mcreq	0, 0, r0, cr3, cr4, {1}
    1fd0:	053b0b3a 	ldreq	r0, [fp, #-2874]!	; 0xfffff4c6
    1fd4:	193f1349 	ldmdbne	pc!, {r0, r3, r6, r8, r9, ip}	; <UNPREDICTABLE>
    1fd8:	0000193c 	andeq	r1, r0, ip, lsr r9
    1fdc:	3f012e1f 	svccc	0x00012e1f
    1fe0:	3a0e0319 	bcc	382c4c <__bss_end__+0x3790d4>
    1fe4:	270b3b0b 	strcs	r3, [fp, -fp, lsl #22]
    1fe8:	11134919 	tstne	r3, r9, lsl r9
    1fec:	40061201 	andmi	r1, r6, r1, lsl #4
    1ff0:	19429718 	stmdbne	r2, {r3, r4, r8, r9, sl, ip, pc}^
    1ff4:	05200000 	streq	r0, [r0, #-0]!
    1ff8:	3a080300 	bcc	202c00 <__bss_end__+0x1f9088>
    1ffc:	490b3b0b 	stmdbmi	fp, {r0, r1, r3, r8, r9, fp, ip, sp}
    2000:	00180213 	andseq	r0, r8, r3, lsl r2
    2004:	00052100 	andeq	r2, r5, r0, lsl #2
    2008:	0b3a0803 	bleq	e8401c <__bss_end__+0xe7a4a4>
    200c:	13490b3b 	movtne	r0, #39739	; 0x9b3b
    2010:	00001702 	andeq	r1, r0, r2, lsl #14
    2014:	03003422 	movweq	r3, #1058	; 0x422
    2018:	3b0b3a08 	blcc	2d0840 <__bss_end__+0x2c6cc8>
    201c:	0213490b 	andseq	r4, r3, #180224	; 0x2c000
    2020:	23000017 	movwcs	r0, #23
    2024:	08030034 	stmdaeq	r3, {r2, r4, r5}
    2028:	0b3b0b3a 	bleq	ec4d18 <__bss_end__+0xebb1a0>
    202c:	18021349 	stmdane	r2, {r0, r3, r6, r8, r9, ip}
    2030:	Address 0x0000000000002030 is out of bounds.


Disassembly of section .debug_loc:

00000000 <.debug_loc>:
   0:	000000e0 	andeq	r0, r0, r0, ror #1
   4:	000000f8 	strdeq	r0, [r0], -r8
   8:	78500001 	ldmdavc	r0, {r0}^
   c:	80000001 	andhi	r0, r0, r1
  10:	0b000001 	bleq	1c <_start-0x7fe4>
  14:	0b007400 	bleq	1d01c <__bss_end__+0x134a4>
  18:	0a1af0ff 	beq	6bc41c <__bss_end__+0x6b28a4>
  1c:	9f210200 	svcls	0x00210200
  20:	00000180 	andeq	r0, r0, r0, lsl #3
  24:	00000184 	andeq	r0, r0, r4, lsl #3
  28:	00720007 	rsbseq	r0, r2, r7
  2c:	2102e00a 	tstcs	r2, sl
  30:	0001849f 	muleq	r1, pc, r4	; <UNPREDICTABLE>
  34:	00019c00 	andeq	r9, r1, r0, lsl #24
  38:	74000f00 	strvc	r0, [r0], #-3840	; 0xfffff100
  3c:	f01f0b00 			; <UNDEFINED> instruction: 0xf01f0b00
  40:	ffff0a1a 			; <UNDEFINED> instruction: 0xffff0a1a
  44:	02e00a1a 	rsceq	r0, r0, #106496	; 0x1a000
  48:	019c9f21 	orrseq	r9, ip, r1, lsr #30
  4c:	01b70000 			; <UNDEFINED> instruction: 0x01b70000
  50:	00010000 	andeq	r0, r1, r0
  54:	0001d050 	andeq	sp, r1, r0, asr r0
  58:	0001d300 	andeq	sp, r1, r0, lsl #6
  5c:	50000100 	andpl	r0, r0, r0, lsl #2
  60:	000001ec 	andeq	r0, r0, ip, ror #3
  64:	000001f0 	strdeq	r0, [r0], -r0	; <UNPREDICTABLE>
  68:	00500001 	subseq	r0, r0, r1
  6c:	00000000 	andeq	r0, r0, r0
  70:	18000000 	stmdane	r0, {}	; <UNPREDICTABLE>
  74:	48000002 	stmdami	r0, {r1}
  78:	01000002 	tsteq	r0, r2
  7c:	00005400 	andeq	r5, r0, r0, lsl #8
  80:	00000000 	andeq	r0, r0, r0
  84:	02240000 	eoreq	r0, r4, #0
  88:	022c0000 	eoreq	r0, ip, #0
  8c:	00010000 	andeq	r0, r1, r0
  90:	00022c50 	andeq	r2, r2, r0, asr ip
  94:	00022f00 	andeq	r2, r2, r0, lsl #30
  98:	51000100 	mrspl	r0, (UNDEF: 16)
	...
  a4:	00000030 	andeq	r0, r0, r0, lsr r0
  a8:	0000004f 	andeq	r0, r0, pc, asr #32
  ac:	4f500001 	svcmi	0x00500001
  b0:	80000000 	andhi	r0, r0, r0
  b4:	04000000 	streq	r0, [r0], #-0
  b8:	5001f300 	andpl	pc, r1, r0, lsl #6
  bc:	0000009f 	muleq	r0, pc, r0	; <UNPREDICTABLE>
  c0:	00000000 	andeq	r0, r0, r0
  c4:	00003000 	andeq	r3, r0, r0
  c8:	00004c00 	andeq	r4, r0, r0, lsl #24
  cc:	51000100 	mrspl	r0, (UNDEF: 16)
  d0:	0000004c 	andeq	r0, r0, ip, asr #32
  d4:	0000004f 	andeq	r0, r0, pc, asr #32
  d8:	00710002 	rsbseq	r0, r1, r2
	...
  e8:	00000027 	andeq	r0, r0, r7, lsr #32
  ec:	27500001 	ldrbcs	r0, [r0, -r1]
  f0:	30000000 	andcc	r0, r0, r0
  f4:	04000000 	streq	r0, [r0], #-0
  f8:	5001f300 	andpl	pc, r1, r0, lsl #6
  fc:	0000009f 	muleq	r0, pc, r0	; <UNPREDICTABLE>
	...
 108:	00002400 	andeq	r2, r0, r0, lsl #8
 10c:	51000100 	mrspl	r0, (UNDEF: 16)
 110:	00000024 	andeq	r0, r0, r4, lsr #32
 114:	00000027 	andeq	r0, r0, r7, lsr #32
 118:	00710002 	rsbseq	r0, r1, r2
 11c:	00000027 	andeq	r0, r0, r7, lsr #32
 120:	00000030 	andeq	r0, r0, r0, lsr r0
 124:	01f30004 	mvnseq	r0, r4
 128:	00009f51 	andeq	r9, r0, r1, asr pc
	...
 134:	00180000 	andseq	r0, r8, r0
 138:	00010000 	andeq	r0, r1, r0
 13c:	00001852 	andeq	r1, r0, r2, asr r8
 140:	00002700 	andeq	r2, r0, r0, lsl #14
 144:	91000200 	mrsls	r0, R8_usr
 148:	00000066 	andeq	r0, r0, r6, rrx
 14c:	00000000 	andeq	r0, r0, r0
 150:	0003f400 	andeq	pc, r3, r0, lsl #8
 154:	00040b00 	andeq	r0, r4, r0, lsl #22
 158:	50000100 	andpl	r0, r0, r0, lsl #2
 15c:	0000040b 	andeq	r0, r0, fp, lsl #8
 160:	000004b8 			; <UNDEFINED> instruction: 0x000004b8
 164:	01f30004 	mvnseq	r0, r4
 168:	00009f50 	andeq	r9, r0, r0, asr pc
 16c:	00000000 	andeq	r0, r0, r0
 170:	03f40000 	mvnseq	r0, #0
 174:	04080000 	streq	r0, [r8], #-0
 178:	00010000 	andeq	r0, r1, r0
 17c:	00040851 	andeq	r0, r4, r1, asr r8
 180:	0004b800 	andeq	fp, r4, r0, lsl #16
 184:	55000100 	strpl	r0, [r0, #-256]	; 0xffffff00
	...
 190:	000003f4 	strdeq	r0, [r0], -r4
 194:	00000404 	andeq	r0, r0, r4, lsl #8
 198:	04520001 	ldrbeq	r0, [r2], #-1
 19c:	b8000004 	stmdalt	r0, {r2}
 1a0:	01000004 	tsteq	r0, r4
 1a4:	00005400 	andeq	r5, r0, r0, lsl #8
 1a8:	00000000 	andeq	r0, r0, r0
 1ac:	040c0000 	streq	r0, [ip], #-0
 1b0:	04140000 	ldreq	r0, [r4], #-0
 1b4:	00020000 	andeq	r0, r2, r0
 1b8:	04149f30 	ldreq	r9, [r4], #-3888	; 0xfffff0d0
 1bc:	04170000 	ldreq	r0, [r7], #-0
 1c0:	00010000 	andeq	r0, r1, r0
 1c4:	00043052 	andeq	r3, r4, r2, asr r0
 1c8:	00047b00 	andeq	r7, r4, r0, lsl #22
 1cc:	52000100 	andpl	r0, r0, #0, 2
 1d0:	00000494 	muleq	r0, r4, r4
 1d4:	00000497 	muleq	r0, r7, r4
 1d8:	00520001 	subseq	r0, r2, r1
 1dc:	00000000 	andeq	r0, r0, r0
 1e0:	30000000 	andcc	r0, r0, r0
 1e4:	47000003 	strmi	r0, [r0, -r3]
 1e8:	01000003 	tsteq	r0, r3
 1ec:	03475000 	movteq	r5, #28672	; 0x7000
 1f0:	03f40000 	mvnseq	r0, #0
 1f4:	00040000 	andeq	r0, r4, r0
 1f8:	9f5001f3 	svcls	0x005001f3
	...
 204:	00000330 	andeq	r0, r0, r0, lsr r3
 208:	00000344 	andeq	r0, r0, r4, asr #6
 20c:	44510001 	ldrbmi	r0, [r1], #-1
 210:	f4000003 	vst4.8	{d0-d3}, [r0], r3
 214:	01000003 	tsteq	r0, r3
 218:	00005500 	andeq	r5, r0, r0, lsl #10
 21c:	00000000 	andeq	r0, r0, r0
 220:	03300000 	teqeq	r0, #0
 224:	03400000 	movteq	r0, #0
 228:	00010000 	andeq	r0, r1, r0
 22c:	00034052 	andeq	r4, r3, r2, asr r0
 230:	0003f400 	andeq	pc, r3, r0, lsl #8
 234:	54000100 	strpl	r0, [r0], #-256	; 0xffffff00
	...
 240:	00000348 	andeq	r0, r0, r8, asr #6
 244:	00000350 	andeq	r0, r0, r0, asr r3
 248:	9f300002 	svcls	0x00300002
 24c:	00000350 	andeq	r0, r0, r0, asr r3
 250:	00000353 	andeq	r0, r0, r3, asr r3
 254:	6c520001 	mrrcvs	0, 0, r0, r2, cr1
 258:	b7000003 	strlt	r0, [r0, -r3]
 25c:	01000003 	tsteq	r0, r3
 260:	03d05200 	bicseq	r5, r0, #0, 4
 264:	03d30000 	bicseq	r0, r3, #0
 268:	00010000 	andeq	r0, r1, r0
 26c:	00000052 	andeq	r0, r0, r2, asr r0
 270:	00000000 	andeq	r0, r0, r0
 274:	00016400 	andeq	r6, r1, r0, lsl #8
 278:	00017700 	andeq	r7, r1, r0, lsl #14
 27c:	50000100 	andpl	r0, r0, r0, lsl #2
 280:	00000177 	andeq	r0, r0, r7, ror r1
 284:	00000330 	andeq	r0, r0, r0, lsr r3
 288:	00560001 	subseq	r0, r6, r1
 28c:	00000000 	andeq	r0, r0, r0
 290:	64000000 	strvs	r0, [r0], #-0
 294:	77000001 	strvc	r0, [r0, -r1]
 298:	01000001 	tsteq	r0, r1
 29c:	01775100 	cmneq	r7, r0, lsl #2
 2a0:	02200000 	eoreq	r0, r0, #0
 2a4:	00010000 	andeq	r0, r1, r0
 2a8:	00022055 	andeq	r2, r2, r5, asr r0
 2ac:	00028c00 	andeq	r8, r2, r0, lsl #24
 2b0:	f3000400 	vshl.u8	d0, d0, d0
 2b4:	8c9f5101 	ldfhis	f5, [pc], {1}
 2b8:	e0000002 	and	r0, r0, r2
 2bc:	01000002 	tsteq	r0, r2
 2c0:	02e05500 	rsceq	r5, r0, #0, 10
 2c4:	03300000 	teqeq	r0, #0
 2c8:	00040000 	andeq	r0, r4, r0
 2cc:	9f5101f3 	svcls	0x005101f3
	...
 2d8:	00000164 	andeq	r0, r0, r4, ror #2
 2dc:	00000177 	andeq	r0, r0, r7, ror r1
 2e0:	77520001 	ldrbvc	r0, [r2, -r1]
 2e4:	30000001 	andcc	r0, r0, r1
 2e8:	01000003 	tsteq	r0, r3
 2ec:	00005400 	andeq	r5, r0, r0, lsl #8
 2f0:	00000000 	andeq	r0, r0, r0
 2f4:	02300000 	eorseq	r0, r0, #0
 2f8:	02340000 	eorseq	r0, r4, #0
 2fc:	00010000 	andeq	r0, r1, r0
 300:	00000050 	andeq	r0, r0, r0, asr r0
 304:	00000000 	andeq	r0, r0, r0
 308:	00014000 	andeq	r4, r1, r0
 30c:	00014400 	andeq	r4, r1, r0, lsl #8
 310:	51000100 	mrspl	r0, (UNDEF: 16)
	...
 31c:	0000011c 	andeq	r0, r0, ip, lsl r1
 320:	00000123 	andeq	r0, r0, r3, lsr #2
 324:	23500001 	cmpcs	r0, #1
 328:	2c000001 	stccs	0, cr0, [r0], {1}
 32c:	04000001 	streq	r0, [r0], #-1
 330:	5001f300 	andpl	pc, r1, r0, lsl #6
 334:	0000009f 	muleq	r0, pc, r0	; <UNPREDICTABLE>
 338:	00000000 	andeq	r0, r0, r0
 33c:	00001400 	andeq	r1, r0, r0, lsl #8
 340:	00001800 	andeq	r1, r0, r0, lsl #16
 344:	50000100 	andpl	r0, r0, r0, lsl #2
	...
 350:	00000154 	andeq	r0, r0, r4, asr r1
 354:	0000015b 	andeq	r0, r0, fp, asr r1
 358:	5b500001 	blpl	1400364 <__bss_end__+0x13f67ec>
 35c:	64000001 	strvs	r0, [r0], #-1
 360:	04000001 	streq	r0, [r0], #-1
 364:	5001f300 	andpl	pc, r1, r0, lsl #6
 368:	0000009f 	muleq	r0, pc, r0	; <UNPREDICTABLE>
	...
 374:	00000400 	andeq	r0, r0, r0, lsl #8
 378:	50000100 	andpl	r0, r0, r0, lsl #2
 37c:	00000010 	andeq	r0, r0, r0, lsl r0
 380:	00000010 	andeq	r0, r0, r0, lsl r0
 384:	00500001 	subseq	r0, r0, r1
 388:	00000000 	andeq	r0, r0, r0
 38c:	2c000000 	stccs	0, cr0, [r0], {-0}
 390:	38000000 	stmdacc	r0, {}	; <UNPREDICTABLE>
 394:	01000000 	mrseq	r0, (UNDEF: 0)
 398:	00385000 	eorseq	r5, r8, r0
 39c:	00480000 	subeq	r0, r8, r0
 3a0:	00010000 	andeq	r0, r1, r0
 3a4:	00004855 	andeq	r4, r0, r5, asr r8
 3a8:	00005800 	andeq	r5, r0, r0, lsl #16
 3ac:	50000100 	andpl	r0, r0, r0, lsl #2
	...
 3b8:	00000270 	andeq	r0, r0, r0, ror r2
 3bc:	00000294 	muleq	r0, r4, r2
 3c0:	94500001 	ldrbls	r0, [r0], #-1
 3c4:	1c000002 	stcne	0, cr0, [r0], {2}
 3c8:	01000005 	tsteq	r0, r5
 3cc:	051c5900 	ldreq	r5, [ip, #-2304]	; 0xfffff700
 3d0:	05300000 	ldreq	r0, [r0, #-0]!
 3d4:	00040000 	andeq	r0, r4, r0
 3d8:	9f5001f3 	svcls	0x005001f3
	...
 3e4:	00000270 	andeq	r0, r0, r0, ror r2
 3e8:	00000284 	andeq	r0, r0, r4, lsl #5
 3ec:	84510001 	ldrbhi	r0, [r1], #-1
 3f0:	94000002 	strls	r0, [r0], #-2
 3f4:	03000002 	movweq	r0, #2
 3f8:	9f017100 	svcls	0x00017100
 3fc:	00000294 	muleq	r0, r4, r2
 400:	00000530 	andeq	r0, r0, r0, lsr r5
 404:	01f30004 	mvnseq	r0, r4
 408:	00009f51 	andeq	r9, r0, r1, asr pc
 40c:	00000000 	andeq	r0, r0, r0
 410:	02700000 	rsbseq	r0, r0, #0
 414:	02b00000 	adcseq	r0, r0, #0
 418:	00010000 	andeq	r0, r1, r0
 41c:	0002b052 	andeq	fp, r2, r2, asr r0
 420:	0002c800 	andeq	ip, r2, r0, lsl #16
 424:	52000100 	andpl	r0, r0, #0, 2
 428:	000002c8 	andeq	r0, r0, r8, asr #5
 42c:	000002d0 	ldrdeq	r0, [r0], -r0	; <UNPREDICTABLE>
 430:	d0550001 	subsle	r0, r5, r1
 434:	e0000002 	and	r0, r0, r2
 438:	01000002 	tsteq	r0, r2
 43c:	02e05200 	rsceq	r5, r0, #0, 4
 440:	03e40000 	mvneq	r0, #0
 444:	00010000 	andeq	r0, r1, r0
 448:	0003e455 	andeq	lr, r3, r5, asr r4
 44c:	0003e800 	andeq	lr, r3, r0, lsl #16
 450:	52000100 	andpl	r0, r0, #0, 2
 454:	000003e8 	andeq	r0, r0, r8, ror #7
 458:	000004e0 	andeq	r0, r0, r0, ror #9
 45c:	e0550001 	subs	r0, r5, r1
 460:	30000004 	andcc	r0, r0, r4
 464:	01000005 	tsteq	r0, r5
 468:	00005200 	andeq	r5, r0, r0, lsl #4
 46c:	00000000 	andeq	r0, r0, r0
 470:	02800000 	addeq	r0, r0, #0
 474:	02940000 	addseq	r0, r4, #0
 478:	00010000 	andeq	r0, r1, r0
 47c:	00029450 	andeq	r9, r2, r0, asr r4
 480:	0002ac00 	andeq	sl, r2, r0, lsl #24
 484:	56000100 	strpl	r0, [r0], -r0, lsl #2
 488:	000002ac 	andeq	r0, r0, ip, lsr #5
 48c:	000002b8 			; <UNDEFINED> instruction: 0x000002b8
 490:	01760003 	cmneq	r6, r3
 494:	0002b89f 	muleq	r2, pc, r8	; <UNPREDICTABLE>
 498:	0002d000 	andeq	sp, r2, r0
 49c:	56000100 	strpl	r0, [r0], -r0, lsl #2
 4a0:	000002d0 	ldrdeq	r0, [r0], -r0	; <UNPREDICTABLE>
 4a4:	000002dc 	ldrdeq	r0, [r0], -ip
 4a8:	01760003 	cmneq	r6, r3
 4ac:	0002dc9f 	muleq	r2, pc, ip	; <UNPREDICTABLE>
 4b0:	0004e000 	andeq	lr, r4, r0
 4b4:	56000100 	strpl	r0, [r0], -r0, lsl #2
 4b8:	000004e0 	andeq	r0, r0, r0, ror #9
 4bc:	000004ec 	andeq	r0, r0, ip, ror #9
 4c0:	01760003 	cmneq	r6, r3
 4c4:	0004ec9f 	muleq	r4, pc, ip	; <UNPREDICTABLE>
 4c8:	00050800 	andeq	r0, r5, r0, lsl #16
 4cc:	56000100 	strpl	r0, [r0], -r0, lsl #2
 4d0:	00000508 	andeq	r0, r0, r8, lsl #10
 4d4:	00000514 	andeq	r0, r0, r4, lsl r5
 4d8:	14500001 	ldrbne	r0, [r0], #-1
 4dc:	1c000005 	stcne	0, cr0, [r0], {5}
 4e0:	03000005 	movweq	r0, #5
 4e4:	9f017600 	svcls	0x00017600
	...
 4f0:	00000288 	andeq	r0, r0, r8, lsl #5
 4f4:	0000051c 	andeq	r0, r0, ip, lsl r5
 4f8:	1c580001 	mrrcne	0, 0, r0, r8, cr1
 4fc:	30000005 	andcc	r0, r0, r5
 500:	0a000005 	beq	51c <_start-0x7ae4>
 504:	5101f300 	mrspl	pc, SP_irq	; <UNPREDICTABLE>
 508:	225001f3 	subscs	r0, r0, #-1073741764	; 0xc000003c
 50c:	009f1c31 	addseq	r1, pc, r1, lsr ip	; <UNPREDICTABLE>
 510:	00000000 	andeq	r0, r0, r0
 514:	e0000000 	and	r0, r0, r0
 518:	e8000003 	stmda	r0, {r0, r1}
 51c:	01000003 	tsteq	r0, r3
 520:	04145000 	ldreq	r5, [r4], #-0
 524:	04180000 	ldreq	r0, [r8], #-0
 528:	00010000 	andeq	r0, r1, r0
 52c:	00044450 	andeq	r4, r4, r0, asr r4
 530:	00044800 	andeq	r4, r4, r0, lsl #16
 534:	50000100 	andpl	r0, r0, r0, lsl #2
 538:	00000474 	andeq	r0, r0, r4, ror r4
 53c:	00000478 	andeq	r0, r0, r8, ror r4
 540:	b8500001 	ldmdalt	r0, {r0}^
 544:	bc000004 	stclt	0, cr0, [r0], {4}
 548:	01000004 	tsteq	r0, r4
 54c:	04e05000 	strbteq	r5, [r0], #0
 550:	05040000 	streq	r0, [r4, #-0]
 554:	00010000 	andeq	r0, r1, r0
 558:	00000050 	andeq	r0, r0, r0, asr r0
 55c:	00000000 	andeq	r0, r0, r0
 560:	0002c800 	andeq	ip, r2, r0, lsl #16
 564:	0002d000 	andeq	sp, r2, r0
 568:	30000200 	andcc	r0, r0, r0, lsl #4
 56c:	0002e09f 	muleq	r2, pc, r0	; <UNPREDICTABLE>
 570:	0002e400 	andeq	lr, r2, r0, lsl #8
 574:	54000100 	strpl	r0, [r0], #-256	; 0xffffff00
 578:	000002f0 	strdeq	r0, [r0], -r0	; <UNPREDICTABLE>
 57c:	00000504 	andeq	r0, r0, r4, lsl #10
 580:	00540001 	subseq	r0, r4, r1
 584:	00000000 	andeq	r0, r0, r0
 588:	80000000 	andhi	r0, r0, r0
 58c:	a4000000 	strge	r0, [r0], #-0
 590:	01000000 	mrseq	r0, (UNDEF: 0)
 594:	00a45000 	adceq	r5, r4, r0
 598:	00f00000 	rscseq	r0, r0, r0
 59c:	00030000 	andeq	r0, r3, r0
 5a0:	f09f0270 			; <UNDEFINED> instruction: 0xf09f0270
 5a4:	1c000000 	stcne	0, cr0, [r0], {-0}
 5a8:	04000002 	streq	r0, [r0], #-2
 5ac:	5001f300 	andpl	pc, r1, r0, lsl #6
 5b0:	0000009f 	muleq	r0, pc, r0	; <UNPREDICTABLE>
 5b4:	00000000 	andeq	r0, r0, r0
 5b8:	00008000 	andeq	r8, r0, r0
 5bc:	0000a000 	andeq	sl, r0, r0
 5c0:	51000100 	mrspl	r0, (UNDEF: 16)
 5c4:	000000a0 	andeq	r0, r0, r0, lsr #1
 5c8:	0000021c 	andeq	r0, r0, ip, lsl r2
 5cc:	00550001 	subseq	r0, r5, r1
 5d0:	00000000 	andeq	r0, r0, r0
 5d4:	80000000 	andhi	r0, r0, r0
 5d8:	94000000 	strls	r0, [r0], #-0
 5dc:	01000000 	mrseq	r0, (UNDEF: 0)
 5e0:	00945200 	addseq	r5, r4, r0, lsl #4
 5e4:	021c0000 	andseq	r0, ip, #0
 5e8:	00010000 	andeq	r0, r1, r0
 5ec:	00000054 	andeq	r0, r0, r4, asr r0
 5f0:	00000000 	andeq	r0, r0, r0
 5f4:	00008000 	andeq	r8, r0, r0
 5f8:	0000ec00 	andeq	lr, r0, r0, lsl #24
 5fc:	53000100 	movwpl	r0, #256	; 0x100
 600:	000000ec 	andeq	r0, r0, ip, ror #1
 604:	00000104 	andeq	r0, r0, r4, lsl #2
 608:	10510001 	subsne	r0, r1, r1
 60c:	18000001 	stmdane	r0, {r0}
 610:	01000001 	tsteq	r0, r1
 614:	01685100 	cmneq	r8, r0, lsl #2
 618:	016c0000 	cmneq	ip, r0
 61c:	00010000 	andeq	r0, r1, r0
 620:	00016c51 	andeq	r6, r1, r1, asr ip
 624:	00018c00 	andeq	r8, r1, r0, lsl #24
 628:	f3000400 	vshl.u8	d0, d0, d0
 62c:	b09f5301 	addslt	r5, pc, r1, lsl #6
 630:	c0000001 	andgt	r0, r0, r1
 634:	01000001 	tsteq	r0, r1
 638:	01c05100 	biceq	r5, r0, r0, lsl #2
 63c:	01e40000 	mvneq	r0, r0
 640:	00040000 	andeq	r0, r4, r0
 644:	9f5301f3 	svcls	0x005301f3
 648:	000001e4 	andeq	r0, r0, r4, ror #3
 64c:	000001e7 	andeq	r0, r0, r7, ror #3
 650:	e7510001 	ldrb	r0, [r1, -r1]
 654:	1c000001 	stcne	0, cr0, [r0], {1}
 658:	04000002 	streq	r0, [r0], #-2
 65c:	5301f300 	movwpl	pc, #4864	; 0x1300	; <UNPREDICTABLE>
 660:	0000009f 	muleq	r0, pc, r0	; <UNPREDICTABLE>
 664:	00000000 	andeq	r0, r0, r0
 668:	00008000 	andeq	r8, r0, r0
 66c:	00009c00 	andeq	r9, r0, r0, lsl #24
 670:	91000200 	mrsls	r0, R8_usr
 674:	00009c00 	andeq	r9, r0, r0, lsl #24
 678:	00019300 	andeq	r9, r1, r0, lsl #6
 67c:	52000100 	andpl	r0, r0, #0, 2
 680:	000001b0 			; <UNDEFINED> instruction: 0x000001b0
 684:	000001e7 	andeq	r0, r0, r7, ror #3
 688:	00520001 	subseq	r0, r2, r1
 68c:	00000000 	andeq	r0, r0, r0
 690:	9c000000 	stcls	0, cr0, [r0], {-0}
 694:	18000000 	stmdane	r0, {}	; <UNPREDICTABLE>
 698:	01000001 	tsteq	r0, r1
 69c:	01185d00 	tsteq	r8, r0, lsl #26
 6a0:	011c0000 	tsteq	ip, r0
 6a4:	00010000 	andeq	r0, r1, r0
 6a8:	00011c50 	andeq	r1, r1, r0, asr ip
 6ac:	00012000 	andeq	r2, r1, r0
 6b0:	5c000100 	stfpls	f0, [r0], {-0}
 6b4:	00000120 	andeq	r0, r0, r0, lsr #2
 6b8:	00000158 	andeq	r0, r0, r8, asr r1
 6bc:	58500001 	ldmdapl	r0, {r0}^
 6c0:	64000001 	strvs	r0, [r0], #-1
 6c4:	03000001 	movweq	r0, #1
 6c8:	9f027c00 	svcls	0x00027c00
 6cc:	00000164 	andeq	r0, r0, r4, ror #2
 6d0:	00000168 	andeq	r0, r0, r8, ror #2
 6d4:	68500001 	ldmdavs	r0, {r0}^
 6d8:	6c000001 	stcvs	0, cr0, [r0], {1}
 6dc:	01000001 	tsteq	r0, r1
 6e0:	016c5d00 	cmneq	ip, r0, lsl #26
 6e4:	01700000 	cmneq	r0, r0
 6e8:	00010000 	andeq	r0, r1, r0
 6ec:	00017053 	andeq	r7, r1, r3, asr r0
 6f0:	00019300 	andeq	r9, r1, r0, lsl #6
 6f4:	50000100 	andpl	r0, r0, r0, lsl #2
 6f8:	000001b0 			; <UNDEFINED> instruction: 0x000001b0
 6fc:	000001b8 			; <UNDEFINED> instruction: 0x000001b8
 700:	a1910004 	orrsge	r0, r1, r4
 704:	01b89f7f 			; <UNDEFINED> instruction: 0x01b89f7f
 708:	01bc0000 			; <UNDEFINED> instruction: 0x01bc0000
 70c:	00010000 	andeq	r0, r1, r0
 710:	0001bc50 	andeq	fp, r1, r0, asr ip
 714:	0001c000 	andeq	ip, r1, r0
 718:	5d000100 	stfpls	f0, [r0, #-0]
 71c:	000001c0 	andeq	r0, r0, r0, asr #3
 720:	000001c4 	andeq	r0, r0, r4, asr #3
 724:	c4530001 	ldrbgt	r0, [r3], #-1
 728:	e4000001 	str	r0, [r0], #-1
 72c:	01000001 	tsteq	r0, r1
 730:	01e45000 	mvneq	r5, r0
 734:	021c0000 	andseq	r0, ip, #0
 738:	00010000 	andeq	r0, r1, r0
 73c:	0000005d 	andeq	r0, r0, sp, asr r0
 740:	00000000 	andeq	r0, r0, r0
 744:	0000a000 	andeq	sl, r0, r0
 748:	00014000 	andeq	r4, r1, r0
 74c:	51000100 	mrspl	r0, (UNDEF: 16)
 750:	0000014c 	andeq	r0, r0, ip, asr #2
 754:	00000180 	andeq	r0, r0, r0, lsl #3
 758:	80510001 	subshi	r0, r1, r1
 75c:	88000001 	stmdahi	r0, {r0}
 760:	05000001 	streq	r0, [r0, #-1]
 764:	34007100 	strcc	r7, [r0], #-256	; 0xffffff00
 768:	01889f25 	orreq	r9, r8, r5, lsr #30
 76c:	01900000 	orrseq	r0, r0, r0
 770:	00010000 	andeq	r0, r1, r0
 774:	0001b051 	andeq	fp, r1, r1, asr r0
 778:	0001d400 	andeq	sp, r1, r0, lsl #8
 77c:	51000100 	mrspl	r0, (UNDEF: 16)
 780:	000001d4 	ldrdeq	r0, [r0], -r4
 784:	000001dc 	ldrdeq	r0, [r0], -ip
 788:	00710005 	rsbseq	r0, r1, r5
 78c:	dc9f2531 	cfldr32le	mvfx2, [pc], {49}	; 0x31
 790:	e7000001 	str	r0, [r0, -r1]
 794:	01000001 	tsteq	r0, r1
 798:	01e75100 	mvneq	r5, r0, lsl #2
 79c:	021c0000 	andseq	r0, ip, #0
 7a0:	00040000 	andeq	r0, r4, r0
 7a4:	9f5301f3 	svcls	0x005301f3
	...
 7b0:	000000ec 	andeq	r0, r0, ip, ror #1
 7b4:	00000100 	andeq	r0, r0, r0, lsl #2
 7b8:	9f300002 	svcls	0x00300002
 7bc:	00000100 	andeq	r0, r0, r0, lsl #2
 7c0:	00000108 	andeq	r0, r0, r8, lsl #2
 7c4:	9f310002 	svcls	0x00310002
 7c8:	00000110 	andeq	r0, r0, r0, lsl r1
 7cc:	00000118 	andeq	r0, r0, r8, lsl r1
 7d0:	9f300002 	svcls	0x00300002
 7d4:	00000118 	andeq	r0, r0, r8, lsl r1
 7d8:	00000168 	andeq	r0, r0, r8, ror #2
 7dc:	00570001 	subseq	r0, r7, r1
 7e0:	00000000 	andeq	r0, r0, r0
 7e4:	40000000 	andmi	r0, r0, r0
 7e8:	60000000 	andvs	r0, r0, r0
 7ec:	01000000 	mrseq	r0, (UNDEF: 0)
 7f0:	00605000 	rsbeq	r5, r0, r0
 7f4:	006c0000 	rsbeq	r0, ip, r0
 7f8:	00030000 	andeq	r0, r3, r0
 7fc:	6c9f0171 	ldfvss	f0, [pc], {113}	; 0x71
 800:	74000000 	strvc	r0, [r0], #-0
 804:	01000000 	mrseq	r0, (UNDEF: 0)
 808:	00745100 	rsbseq	r5, r4, r0, lsl #2
 80c:	00800000 	addeq	r0, r0, r0
 810:	00030000 	andeq	r0, r3, r0
 814:	009f0171 	addseq	r0, pc, r1, ror r1	; <UNPREDICTABLE>
 818:	00000000 	andeq	r0, r0, r0
 81c:	40000000 	andmi	r0, r0, r0
 820:	5c000000 	stcpl	0, cr0, [r0], {-0}
 824:	01000000 	mrseq	r0, (UNDEF: 0)
 828:	005c5100 	subseq	r5, ip, r0, lsl #2
 82c:	00800000 	addeq	r0, r0, r0
 830:	00040000 	andeq	r0, r4, r0
 834:	9f5101f3 	svcls	0x005101f3
	...
 840:	00000040 	andeq	r0, r0, r0, asr #32
 844:	00000058 	andeq	r0, r0, r8, asr r0
 848:	58520001 	ldmdapl	r2, {r0}^
 84c:	64000000 	strvs	r0, [r0], #-0
 850:	01000000 	mrseq	r0, (UNDEF: 0)
 854:	00645200 	rsbeq	r5, r4, r0, lsl #4
 858:	00680000 	rsbeq	r0, r8, r0
 85c:	00030000 	andeq	r0, r3, r0
 860:	689f0172 	ldmvs	pc, {r1, r4, r5, r6, r8}	; <UNPREDICTABLE>
 864:	80000000 	andhi	r0, r0, r0
 868:	01000000 	mrseq	r0, (UNDEF: 0)
 86c:	00005200 	andeq	r5, r0, r0, lsl #4
 870:	00000000 	andeq	r0, r0, r0
 874:	00400000 	subeq	r0, r0, r0
 878:	00540000 	subseq	r0, r4, r0
 87c:	00010000 	andeq	r0, r1, r0
 880:	00005453 	andeq	r5, r0, r3, asr r4
 884:	00007800 	andeq	r7, r0, r0, lsl #16
 888:	53000100 	movwpl	r0, #256	; 0x100
	...
 894:	00000048 	andeq	r0, r0, r8, asr #32
 898:	00000050 	andeq	r0, r0, r0, asr r0
 89c:	505c0001 	subspl	r0, ip, r1
 8a0:	54000000 	strpl	r0, [r0], #-0
 8a4:	08000000 	stmdaeq	r0, {}	; <UNPREDICTABLE>
 8a8:	73007200 	movwvc	r7, #512	; 0x200
 8ac:	01231c00 			; <UNDEFINED> instruction: 0x01231c00
 8b0:	0000549f 	muleq	r0, pc, r4	; <UNPREDICTABLE>
 8b4:	00005800 	andeq	r5, r0, r0, lsl #16
 8b8:	72000900 	andvc	r0, r0, #0, 18
 8bc:	5301f300 	movwpl	pc, #4864	; 0x1300	; <UNPREDICTABLE>
 8c0:	9f01231c 	svcls	0x0001231c
 8c4:	00000058 	andeq	r0, r0, r8, asr r0
 8c8:	00000060 	andeq	r0, r0, r0, rrx
 8cc:	00720009 	rsbseq	r0, r2, r9
 8d0:	1c5301f3 	ldfnee	f0, [r3], {243}	; 0xf3
 8d4:	609f0223 	addsvs	r0, pc, r3, lsr #4
 8d8:	80000000 	andhi	r0, r0, r0
 8dc:	0a000000 	beq	8e4 <_start-0x771c>
 8e0:	5201f300 	andpl	pc, r1, #0, 6
 8e4:	1c5301f3 	ldfnee	f0, [r3], {243}	; 0xf3
 8e8:	009f0123 	addseq	r0, pc, r3, lsr #2
 8ec:	00000000 	andeq	r0, r0, r0
 8f0:	14000000 	strne	r0, [r0], #-0
 8f4:	1c000000 	stcne	0, cr0, [r0], {-0}
 8f8:	01000000 	mrseq	r0, (UNDEF: 0)
 8fc:	001c5000 	andseq	r5, ip, r0
 900:	002c0000 	eoreq	r0, ip, r0
 904:	00030000 	andeq	r0, r3, r0
 908:	2c9f0170 	ldfcss	f0, [pc], {112}	; 0x70
 90c:	40000000 	andmi	r0, r0, r0
 910:	01000000 	mrseq	r0, (UNDEF: 0)
 914:	00005000 	andeq	r5, r0, r0
 918:	00000000 	andeq	r0, r0, r0
 91c:	00140000 	andseq	r0, r4, r0
 920:	00180000 	andseq	r0, r8, r0
 924:	00010000 	andeq	r0, r1, r0
 928:	00001851 	andeq	r1, r0, r1, asr r8
 92c:	00004000 	andeq	r4, r0, r0
 930:	f3000400 	vshl.u8	d0, d0, d0
 934:	009f5101 	addseq	r5, pc, r1, lsl #2
	...
 940:	04000000 	streq	r0, [r0], #-0
 944:	01000000 	mrseq	r0, (UNDEF: 0)
 948:	00045000 	andeq	r5, r4, r0
 94c:	000c0000 	andeq	r0, ip, r0
 950:	00030000 	andeq	r0, r3, r0
 954:	0c9f3070 	ldceq	0, cr3, [pc], {112}	; 0x70
 958:	14000000 	strne	r0, [r0], #-0
 95c:	04000000 	streq	r0, [r0], #-0
 960:	5001f300 	andpl	pc, r1, r0, lsl #6
 964:	0000009f 	muleq	r0, pc, r0	; <UNPREDICTABLE>
 968:	00000000 	andeq	r0, r0, r0
 96c:	00021c00 	andeq	r1, r2, r0, lsl #24
 970:	00024300 	andeq	r4, r2, r0, lsl #6
 974:	50000100 	andpl	r0, r0, r0, lsl #2
 978:	00000243 	andeq	r0, r0, r3, asr #4
 97c:	00000270 	andeq	r0, r0, r0, ror r2
 980:	01f30004 	mvnseq	r0, r4
 984:	00009f50 	andeq	r9, r0, r0, asr pc
 988:	00000000 	andeq	r0, r0, r0
 98c:	021c0000 	andseq	r0, ip, #0
 990:	02430000 	subeq	r0, r3, #0
 994:	00010000 	andeq	r0, r1, r0
 998:	00024351 	andeq	r4, r2, r1, asr r3
 99c:	00027000 	andeq	r7, r2, r0
 9a0:	f3000400 	vshl.u8	d0, d0, d0
 9a4:	009f5101 	addseq	r5, pc, r1, lsl #2
	...
 9b0:	0c000000 	stceq	0, cr0, [r0], {-0}
 9b4:	01000000 	mrseq	r0, (UNDEF: 0)
 9b8:	000c5000 	andeq	r5, ip, r0
 9bc:	00340000 	eorseq	r0, r4, r0
 9c0:	00010000 	andeq	r0, r1, r0
 9c4:	00000054 	andeq	r0, r0, r4, asr r0
	...
 9d0:	00000b00 	andeq	r0, r0, r0, lsl #22
 9d4:	50000100 	andpl	r0, r0, r0, lsl #2
 9d8:	0000000b 	andeq	r0, r0, fp
 9dc:	00000014 	andeq	r0, r0, r4, lsl r0
 9e0:	00540001 	subseq	r0, r4, r1
 9e4:	00000000 	andeq	r0, r0, r0
 9e8:	10000000 	andne	r0, r0, r0
 9ec:	1c000000 	stcne	0, cr0, [r0], {-0}
 9f0:	03000000 	movweq	r0, #0
 9f4:	9f047300 	svcls	0x00047300
 9f8:	0000001c 	andeq	r0, r0, ip, lsl r0
 9fc:	0000002b 	andeq	r0, r0, fp, lsr #32
 a00:	00530001 	subseq	r0, r3, r1
 a04:	00000000 	andeq	r0, r0, r0
 a08:	2c000000 	stccs	0, cr0, [r0], {-0}
 a0c:	40000000 	andmi	r0, r0, r0
 a10:	01000000 	mrseq	r0, (UNDEF: 0)
 a14:	00485000 	subeq	r5, r8, r0
 a18:	00580000 	subseq	r0, r8, r0
 a1c:	00010000 	andeq	r0, r1, r0
 a20:	00000050 	andeq	r0, r0, r0, asr r0
 a24:	00000000 	andeq	r0, r0, r0
 a28:	008eac00 	addeq	sl, lr, r0, lsl #24
 a2c:	008ec800 	addeq	ip, lr, r0, lsl #16
 a30:	0c000600 	stceq	6, cr0, [r0], {-0}
 a34:	2010001c 	andscs	r0, r0, ip, lsl r0
 a38:	0000009f 	muleq	r0, pc, r0	; <UNPREDICTABLE>
 a3c:	00000000 	andeq	r0, r0, r0
 a40:	008eac00 	addeq	sl, lr, r0, lsl #24
 a44:	008ec800 	addeq	ip, lr, r0, lsl #16
 a48:	0c000600 	stceq	6, cr0, [r0], {-0}
 a4c:	20100024 	andscs	r0, r0, r4, lsr #32
 a50:	0000009f 	muleq	r0, pc, r0	; <UNPREDICTABLE>
 a54:	00000000 	andeq	r0, r0, r0
 a58:	008eac00 	addeq	sl, lr, r0, lsl #24
 a5c:	008ec800 	addeq	ip, lr, r0, lsl #16
 a60:	08000500 	stmdaeq	r0, {r8, sl}
 a64:	9f2447b4 	svcls	0x002447b4
	...
 a70:	00008eac 	andeq	r8, r0, ip, lsr #29
 a74:	00008ec8 	andeq	r8, r0, r8, asr #29
 a78:	20080003 	andcs	r0, r8, r3
 a7c:	0000009f 	muleq	r0, pc, r0	; <UNPREDICTABLE>
 a80:	00000000 	andeq	r0, r0, r0
 a84:	008e8000 	addeq	r8, lr, r0
 a88:	008e8400 	addeq	r8, lr, r0, lsl #8
 a8c:	30000200 	andcc	r0, r0, r0, lsl #4
 a90:	008e849f 	umulleq	r8, lr, pc, r4	; <UNPREDICTABLE>
 a94:	008e8800 	addeq	r8, lr, r0, lsl #16
 a98:	53000100 	movwpl	r0, #256	; 0x100
 a9c:	00008e8c 	andeq	r8, r0, ip, lsl #29
 aa0:	00008e94 	muleq	r0, r4, lr
 aa4:	00530001 	subseq	r0, r3, r1
 aa8:	00000000 	andeq	r0, r0, r0
 aac:	68000000 	stmdavs	r0, {}	; <UNPREDICTABLE>
 ab0:	6c00008e 	stcvs	0, cr0, [r0], {142}	; 0x8e
 ab4:	0200008e 	andeq	r0, r0, #142	; 0x8e
 ab8:	6c9f3000 	ldcvs	0, cr3, [pc], {0}
 abc:	7000008e 	andvc	r0, r0, lr, lsl #1
 ac0:	0100008e 	smlabbeq	r0, lr, r0, r0
 ac4:	00005000 	andeq	r5, r0, r0
 ac8:	00000000 	andeq	r0, r0, r0
 acc:	00740000 	rsbseq	r0, r4, r0
 ad0:	00800000 	addeq	r0, r0, r0
 ad4:	00010000 	andeq	r0, r1, r0
 ad8:	00008050 	andeq	r8, r0, r0, asr r0
 adc:	00008800 	andeq	r8, r0, r0, lsl #16
 ae0:	f3000400 	vshl.u8	d0, d0, d0
 ae4:	009f5001 	addseq	r5, pc, r1
 ae8:	00000000 	andeq	r0, r0, r0
 aec:	60000000 	andvs	r0, r0, r0
 af0:	6c000000 	stcvs	0, cr0, [r0], {-0}
 af4:	01000000 	mrseq	r0, (UNDEF: 0)
 af8:	006c5000 	rsbeq	r5, ip, r0
 afc:	00740000 	rsbseq	r0, r4, r0
 b00:	00040000 	andeq	r0, r4, r0
 b04:	9f5001f3 	svcls	0x005001f3
	...
 b10:	0000003c 	andeq	r0, r0, ip, lsr r0
 b14:	00000047 	andeq	r0, r0, r7, asr #32
 b18:	47500001 	ldrbmi	r0, [r0, -r1]
 b1c:	60000000 	andvs	r0, r0, r0
 b20:	01000000 	mrseq	r0, (UNDEF: 0)
 b24:	00005500 	andeq	r5, r0, r0, lsl #10
 b28:	00000000 	andeq	r0, r0, r0
 b2c:	00500000 	subseq	r0, r0, r0
 b30:	00540000 	subseq	r0, r4, r0
 b34:	00010000 	andeq	r0, r1, r0
 b38:	00000050 	andeq	r0, r0, r0, asr r0
	...
 b44:	00000400 	andeq	r0, r0, r0, lsl #8
 b48:	50000100 	andpl	r0, r0, r0, lsl #2
 b4c:	00000004 	andeq	r0, r0, r4
 b50:	0000000c 	andeq	r0, r0, ip
 b54:	0c530001 	mrrceq	0, 0, r0, r3, cr1
 b58:	10000000 	andne	r0, r0, r0
 b5c:	01000000 	mrseq	r0, (UNDEF: 0)
 b60:	00105000 	andseq	r5, r0, r0
 b64:	001c0000 	andseq	r0, ip, r0
 b68:	00010000 	andeq	r0, r1, r0
 b6c:	00000053 	andeq	r0, r0, r3, asr r0
 b70:	00000000 	andeq	r0, r0, r0
 b74:	00012c00 	andeq	r2, r1, r0, lsl #24
 b78:	00013400 	andeq	r3, r1, r0, lsl #8
 b7c:	50000100 	andpl	r0, r0, r0, lsl #2
 b80:	00000134 	andeq	r0, r0, r4, lsr r1
 b84:	00000154 	andeq	r0, r0, r4, asr r1
 b88:	00540001 	subseq	r0, r4, r1
	...
 b94:	0f000000 	svceq	0x00000000
 b98:	01000000 	mrseq	r0, (UNDEF: 0)
 b9c:	000f5000 	andeq	r5, pc, r0
 ba0:	00200000 	eoreq	r0, r0, r0
 ba4:	00010000 	andeq	r0, r1, r0
 ba8:	00000054 	andeq	r0, r0, r4, asr r0
	...
 bb4:	00000f00 	andeq	r0, r0, r0, lsl #30
 bb8:	51000100 	mrspl	r0, (UNDEF: 16)
 bbc:	0000000f 	andeq	r0, r0, pc
 bc0:	00000020 	andeq	r0, r0, r0, lsr #32
 bc4:	00550001 	subseq	r0, r5, r1
 bc8:	00000000 	andeq	r0, r0, r0
 bcc:	ec000000 	stc	0, cr0, [r0], {-0}
 bd0:	04000000 	streq	r0, [r0], #-0
 bd4:	01000001 	tsteq	r0, r1
 bd8:	01045000 	mrseq	r5, (UNDEF: 4)
 bdc:	01140000 	tsteq	r4, r0
 be0:	00040000 	andeq	r0, r4, r0
 be4:	9f5001f3 	svcls	0x005001f3
 be8:	00000114 	andeq	r0, r0, r4, lsl r1
 bec:	00000118 	andeq	r0, r0, r8, lsl r1
 bf0:	18500001 	ldmdane	r0, {r0}^
 bf4:	20000001 	andcs	r0, r0, r1
 bf8:	04000001 	streq	r0, [r0], #-1
 bfc:	5001f300 	andpl	pc, r1, r0, lsl #6
 c00:	0000009f 	muleq	r0, pc, r0	; <UNPREDICTABLE>
 c04:	00000000 	andeq	r0, r0, r0
 c08:	0000f800 	andeq	pc, r0, r0, lsl #16
 c0c:	00010400 	andeq	r0, r1, r0, lsl #8
 c10:	70000b00 	andvc	r0, r0, r0, lsl #22
 c14:	23253500 			; <UNDEFINED> instruction: 0x23253500
 c18:	818080b4 	strhhi	r8, [r0, r4]
 c1c:	01049f02 	tsteq	r4, r2, lsl #30
 c20:	01070000 	mrseq	r0, (UNDEF: 7)
 c24:	00010000 	andeq	r0, r1, r0
 c28:	00010750 	andeq	r0, r1, r0, asr r7
 c2c:	00011400 	andeq	r1, r1, r0, lsl #8
 c30:	f3000c00 			; <UNDEFINED> instruction: 0xf3000c00
 c34:	25355001 	ldrcs	r5, [r5, #-1]!
 c38:	8080b423 	addhi	fp, r0, r3, lsr #8
 c3c:	009f0281 	addseq	r0, pc, r1, lsl #5
 c40:	00000000 	andeq	r0, r0, r0
 c44:	fc000000 	stc2	0, cr0, [r0], {-0}
 c48:	14000000 	strne	r0, [r0], #-0
 c4c:	01000001 	tsteq	r0, r1
 c50:	00005400 	andeq	r5, r0, r0, lsl #8
 c54:	00000000 	andeq	r0, r0, r0
 c58:	00d00000 	sbcseq	r0, r0, r0
 c5c:	00df0000 	sbcseq	r0, pc, r0
 c60:	00010000 	andeq	r0, r1, r0
 c64:	0000df50 	andeq	sp, r0, r0, asr pc
 c68:	0000e400 	andeq	lr, r0, r0, lsl #8
 c6c:	f3000400 	vshl.u8	d0, d0, d0
 c70:	e49f5001 	ldr	r5, [pc], #1	; c78 <_start-0x7388>
 c74:	e7000000 	str	r0, [r0, -r0]
 c78:	01000000 	mrseq	r0, (UNDEF: 0)
 c7c:	00e75000 	rsceq	r5, r7, r0
 c80:	00ec0000 	rsceq	r0, ip, r0
 c84:	00040000 	andeq	r0, r4, r0
 c88:	9f5001f3 	svcls	0x005001f3
	...
 c94:	000000d0 	ldrdeq	r0, [r0], -r0	; <UNPREDICTABLE>
 c98:	000000df 	ldrdeq	r0, [r0], -pc	; <UNPREDICTABLE>
 c9c:	df510001 	svcle	0x00510001
 ca0:	e4000000 	str	r0, [r0], #-0
 ca4:	04000000 	streq	r0, [r0], #-0
 ca8:	5101f300 	mrspl	pc, SP_irq	; <UNPREDICTABLE>
 cac:	0000e49f 	muleq	r0, pc, r4	; <UNPREDICTABLE>
 cb0:	0000e700 	andeq	lr, r0, r0, lsl #14
 cb4:	51000100 	mrspl	r0, (UNDEF: 16)
 cb8:	000000e7 	andeq	r0, r0, r7, ror #1
 cbc:	000000ec 	andeq	r0, r0, ip, ror #1
 cc0:	01f30004 	mvnseq	r0, r4
 cc4:	00009f51 	andeq	r9, r0, r1, asr pc
 cc8:	00000000 	andeq	r0, r0, r0
 ccc:	00c00000 	sbceq	r0, r0, r0
 cd0:	00cb0000 	sbceq	r0, fp, r0
 cd4:	00010000 	andeq	r0, r1, r0
 cd8:	0000cb50 	andeq	ip, r0, r0, asr fp
 cdc:	0000d000 	andeq	sp, r0, r0
 ce0:	f3000400 	vshl.u8	d0, d0, d0
 ce4:	009f5001 	addseq	r5, pc, r1
 ce8:	00000000 	andeq	r0, r0, r0
 cec:	9c000000 	stcls	0, cr0, [r0], {-0}
 cf0:	b4000000 	strlt	r0, [r0], #-0
 cf4:	01000000 	mrseq	r0, (UNDEF: 0)
 cf8:	00b45000 	adcseq	r5, r4, r0
 cfc:	00c00000 	sbceq	r0, r0, r0
 d00:	00040000 	andeq	r0, r4, r0
 d04:	9f5001f3 	svcls	0x005001f3
	...
 d10:	00000078 	andeq	r0, r0, r8, ror r0
 d14:	00000090 	muleq	r0, r0, r0
 d18:	90500001 	subsls	r0, r0, r1
 d1c:	9c000000 	stcls	0, cr0, [r0], {-0}
 d20:	04000000 	streq	r0, [r0], #-0
 d24:	5001f300 	andpl	pc, r1, r0, lsl #6
 d28:	0000009f 	muleq	r0, pc, r0	; <UNPREDICTABLE>
 d2c:	00000000 	andeq	r0, r0, r0
 d30:	00006800 	andeq	r6, r0, r0, lsl #16
 d34:	00007300 	andeq	r7, r0, r0, lsl #6
 d38:	50000100 	andpl	r0, r0, r0, lsl #2
 d3c:	00000073 	andeq	r0, r0, r3, ror r0
 d40:	00000078 	andeq	r0, r0, r8, ror r0
 d44:	01f30004 	mvnseq	r0, r4
 d48:	00009f50 	andeq	r9, r0, r0, asr pc
	...
 d54:	003c0000 	eorseq	r0, ip, r0
 d58:	00010000 	andeq	r0, r1, r0
 d5c:	00003c50 	andeq	r3, r0, r0, asr ip
 d60:	00006800 	andeq	r6, r0, r0, lsl #16
 d64:	f3000400 	vshl.u8	d0, d0, d0
 d68:	009f5001 	addseq	r5, pc, r1
	...
 d74:	30000000 	andcc	r0, r0, r0
 d78:	01000000 	mrseq	r0, (UNDEF: 0)
 d7c:	00305100 	eorseq	r5, r0, r0, lsl #2
 d80:	00680000 	rsbeq	r0, r8, r0
 d84:	00040000 	andeq	r0, r4, r0
 d88:	9f5101f3 	svcls	0x005101f3
	...
 d94:	0000004c 	andeq	r0, r0, ip, asr #32
 d98:	00000054 	andeq	r0, r0, r4, asr r0
 d9c:	54500001 	ldrbpl	r0, [r0], #-1
 da0:	58000000 	stmdapl	r0, {}	; <UNPREDICTABLE>
 da4:	09000000 	stmdbeq	r0, {}	; <UNPREDICTABLE>
 da8:	75007400 	strvc	r7, [r0, #-1024]	; 0xfffffc00
 dac:	00712400 	rsbseq	r2, r1, r0, lsl #8
 db0:	00589f21 	subseq	r9, r8, r1, lsr #30
 db4:	005f0000 	subseq	r0, pc, r0
 db8:	00010000 	andeq	r0, r1, r0
 dbc:	00000051 	andeq	r0, r0, r1, asr r0
	...
 dc8:	00000400 	andeq	r0, r0, r0, lsl #8
 dcc:	52000100 	andpl	r0, r0, #0, 2
 dd0:	00000004 	andeq	r0, r0, r4
 dd4:	00000020 	andeq	r0, r0, r0, lsr #32
 dd8:	01f30004 	mvnseq	r0, r4
 ddc:	00009f52 	andeq	r9, r0, r2, asr pc
	...
 de8:	000c0000 	andeq	r0, ip, r0
 dec:	00010000 	andeq	r0, r1, r0
 df0:	00000c50 	andeq	r0, r0, r0, asr ip
 df4:	00001400 	andeq	r1, r0, r0, lsl #8
 df8:	73000300 	movwvc	r0, #768	; 0x300
 dfc:	00149f01 	andseq	r9, r4, r1, lsl #30
 e00:	00200000 	eoreq	r0, r0, r0
 e04:	00010000 	andeq	r0, r1, r0
 e08:	00000053 	andeq	r0, r0, r3, asr r0
 e0c:	00000000 	andeq	r0, r0, r0
	...

Disassembly of section .debug_aranges:

00000000 <.debug_aranges>:
   0:	0000001c 	andeq	r0, r0, ip, lsl r0
   4:	00000002 	andeq	r0, r0, r2
   8:	00040000 	andeq	r0, r4, r0
   c:	00000000 	andeq	r0, r0, r0
  10:	00008010 	andeq	r8, r0, r0, lsl r0
  14:	00000278 	andeq	r0, r0, r8, ror r2
	...
  20:	0000001c 	andeq	r0, r0, ip, lsl r0
  24:	0dcf0002 	stcleq	0, cr0, [pc, #8]	; 34 <_start-0x7fcc>
  28:	00040000 	andeq	r0, r4, r0
  2c:	00000000 	andeq	r0, r0, r0
  30:	00008288 	andeq	r8, r0, r8, lsl #5
  34:	00000574 	andeq	r0, r0, r4, ror r5
	...
  40:	0000001c 	andeq	r0, r0, ip, lsl r0
  44:	29320002 	ldmdbcs	r2!, {r1}
  48:	00040000 	andeq	r0, r4, r0
  4c:	00000000 	andeq	r0, r0, r0
  50:	000087fc 	strdeq	r8, [r0], -ip
  54:	00000058 	andeq	r0, r0, r8, asr r0
	...
  60:	0000001c 	andeq	r0, r0, ip, lsl r0
  64:	32c40002 	sbccc	r0, r4, #2
  68:	00040000 	andeq	r0, r4, r0
  6c:	00000000 	andeq	r0, r0, r0
  70:	00008854 	andeq	r8, r0, r4, asr r8
  74:	00000530 	andeq	r0, r0, r0, lsr r5
	...
  80:	0000001c 	andeq	r0, r0, ip, lsl r0
  84:	41380002 	teqmi	r8, r2
  88:	00040000 	andeq	r0, r4, r0
  8c:	00000000 	andeq	r0, r0, r0
  90:	00008d84 	andeq	r8, r0, r4, lsl #27
  94:	00000034 	andeq	r0, r0, r4, lsr r0
	...
  a0:	0000001c 	andeq	r0, r0, ip, lsl r0
  a4:	4a270002 	bmi	9c00b4 <__bss_end__+0x9b653c>
  a8:	00040000 	andeq	r0, r4, r0
  ac:	00000000 	andeq	r0, r0, r0
  b0:	00008db8 			; <UNDEFINED> instruction: 0x00008db8
  b4:	0000003c 	andeq	r0, r0, ip, lsr r0
	...
  c0:	0000001c 	andeq	r0, r0, ip, lsl r0
  c4:	53680002 	cmnpl	r8, #2
  c8:	00040000 	andeq	r0, r4, r0
  cc:	00000000 	andeq	r0, r0, r0
  d0:	00008df4 	strdeq	r8, [r0], -r4
  d4:	00000074 	andeq	r0, r0, r4, ror r0
	...
  e0:	0000001c 	andeq	r0, r0, ip, lsl r0
  e4:	5dd20002 	ldclpl	0, cr0, [r2, #8]
  e8:	00040000 	andeq	r0, r4, r0
  ec:	00000000 	andeq	r0, r0, r0
  f0:	00008e68 	andeq	r8, r0, r8, ror #28
  f4:	00000078 	andeq	r0, r0, r8, ror r0
	...
 100:	0000001c 	andeq	r0, r0, ip, lsl r0
 104:	67bc0002 	ldrvs	r0, [ip, r2]!
 108:	00040000 	andeq	r0, r4, r0
 10c:	00000000 	andeq	r0, r0, r0
 110:	00008ee0 	andeq	r8, r0, r0, ror #29
 114:	00000028 	andeq	r0, r0, r8, lsr #32
	...
 120:	0000001c 	andeq	r0, r0, ip, lsl r0
 124:	70d70002 	sbcsvc	r0, r7, r2
 128:	00040000 	andeq	r0, r4, r0
 12c:	00000000 	andeq	r0, r0, r0
 130:	00008f08 	andeq	r8, r0, r8, lsl #30
 134:	00000088 	andeq	r0, r0, r8, lsl #1
	...
 140:	0000001c 	andeq	r0, r0, ip, lsl r0
 144:	7af20002 	bvc	ffc80154 <__bss_end__+0xffc765dc>
 148:	00040000 	andeq	r0, r4, r0
 14c:	00000000 	andeq	r0, r0, r0
 150:	00008ff4 	strdeq	r8, [r0], -r4
 154:	00000160 	andeq	r0, r0, r0, ror #2
	...
 160:	0000001c 	andeq	r0, r0, ip, lsl r0
 164:	878b0002 	strhi	r0, [fp, r2]
 168:	00040000 	andeq	r0, r4, r0
 16c:	00000000 	andeq	r0, r0, r0
 170:	00009154 	andeq	r9, r0, r4, asr r1
 174:	00000120 	andeq	r0, r0, r0, lsr #2
	...
 180:	0000001c 	andeq	r0, r0, ip, lsl r0
 184:	93290002 			; <UNDEFINED> instruction: 0x93290002
 188:	00040000 	andeq	r0, r4, r0
 18c:	00000000 	andeq	r0, r0, r0
 190:	00009274 	andeq	r9, r0, r4, ror r2
 194:	00000050 	andeq	r0, r0, r0, asr r0
	...
 1a0:	0000001c 	andeq	r0, r0, ip, lsl r0
 1a4:	9d1c0002 	ldcls	0, cr0, [ip, #-8]
 1a8:	00040000 	andeq	r0, r4, r0
 1ac:	00000000 	andeq	r0, r0, r0
 1b0:	000092c4 	andeq	r9, r0, r4, asr #5
 1b4:	00000020 	andeq	r0, r0, r0, lsr #32
	...

Disassembly of section .debug_line:

00000000 <.debug_line>:
       0:	0000014d 	andeq	r0, r0, sp, asr #2
       4:	00cc0002 	sbceq	r0, ip, r2
       8:	01020000 	mrseq	r0, (UNDEF: 2)
       c:	000d0efb 	strdeq	r0, [sp], -fp
      10:	01010101 	tsteq	r1, r1, lsl #2
      14:	01000000 	mrseq	r0, (UNDEF: 0)
      18:	2f010000 	svccs	0x00010000
      1c:	2f727375 	svccs	0x00727375
      20:	2f62696c 	svccs	0x0062696c
      24:	2f636367 	svccs	0x00636367
      28:	2d6d7261 	sfmcs	f7, 2, [sp, #-388]!	; 0xfffffe7c
      2c:	656e6f6e 	strbvs	r6, [lr, #-3950]!	; 0xfffff092
      30:	6261652d 	rsbvs	r6, r1, #188743680	; 0xb400000
      34:	2e362f69 	cdpcs	15, 3, cr2, cr6, cr9, {3}
      38:	2f312e33 	svccs	0x00312e33
      3c:	6c636e69 	stclvs	14, cr6, [r3], #-420	; 0xfffffe5c
      40:	00656475 	rsbeq	r6, r5, r5, ror r4
      44:	7273752f 	rsbsvc	r7, r3, #197132288	; 0xbc00000
      48:	636e692f 	cmnvs	lr, #770048	; 0xbc000
      4c:	6564756c 	strbvs	r7, [r4, #-1388]!	; 0xfffffa94
      50:	77656e2f 	strbvc	r6, [r5, -pc, lsr #28]!
      54:	2f62696c 	svccs	0x0062696c
      58:	00737973 	rsbseq	r7, r3, r3, ror r9
      5c:	6d6f682f 	stclvs	8, cr6, [pc, #-188]!	; ffffffa8 <__bss_end__+0xffff6430>
      60:	73752f65 	cmnvc	r5, #404	; 0x194
      64:	442f7265 	strtmi	r7, [pc], #-613	; 6c <_start-0x7f94>
      68:	432f7665 			; <UNDEFINED> instruction: 0x432f7665
      6c:	30343153 	eorscc	r3, r4, r3, asr r1
      70:	696c2f45 	stmdbvs	ip!, {r0, r2, r6, r8, r9, sl, fp, sp}^
      74:	00697062 	rsbeq	r7, r9, r2, rrx
      78:	63646100 	cmnvs	r4, #0, 2
      7c:	35313131 	ldrcc	r3, [r1, #-305]!	; 0xfffffecf
      80:	0000632e 	andeq	r6, r0, lr, lsr #6
      84:	74730000 	ldrbtvc	r0, [r3], #-0
      88:	746e6964 	strbtvc	r6, [lr], #-2404	; 0xfffff69c
      8c:	6363672d 	cmnvs	r3, #11796480	; 0xb40000
      90:	0100682e 	tsteq	r0, lr, lsr #16
      94:	6f6c0000 	svcvs	0x006c0000
      98:	682e6b63 	stmdavs	lr!, {r0, r1, r5, r6, r8, r9, fp, sp, lr}
      9c:	00000200 	andeq	r0, r0, r0, lsl #4
      a0:	7079745f 	rsbsvc	r7, r9, pc, asr r4
      a4:	682e7365 	stmdavs	lr!, {r0, r2, r5, r6, r8, r9, ip, sp, lr}
      a8:	00000200 	andeq	r0, r0, r0, lsl #4
      ac:	64647473 	strbtvs	r7, [r4], #-1139	; 0xfffffb8d
      b0:	682e6665 	stmdavs	lr!, {r0, r2, r5, r6, r9, sl, sp, lr}
      b4:	00000100 	andeq	r0, r0, r0, lsl #2
      b8:	6e656572 	mcrvs	5, 3, r6, cr5, cr2, {3}
      bc:	00682e74 	rsbeq	r2, r8, r4, ror lr
      c0:	72000002 	andvc	r0, r0, #2
      c4:	682e6970 	stmdavs	lr!, {r4, r5, r6, r8, fp, sp, lr}
      c8:	00000300 	andeq	r0, r0, r0, lsl #6
      cc:	2e633269 	cdpcs	2, 6, cr3, cr3, cr9, {3}
      d0:	00000068 	andeq	r0, r0, r8, rrx
      d4:	05000000 	streq	r0, [r0, #-0]
      d8:	00801002 	addeq	r1, r0, r2
      dc:	011e0300 	tsteq	lr, r0, lsl #6
      e0:	4b2f2f68 	blmi	bcbe88 <__bss_end__+0xbc2310>
      e4:	689f4d67 	ldmvs	pc, {r0, r1, r2, r5, r6, r8, sl, fp, lr}	; <UNPREDICTABLE>
      e8:	68039f84 	stmdavs	r3, {r2, r7, r8, r9, sl, fp, ip, pc}
      ec:	67674b66 	strbvs	r4, [r7, -r6, ror #22]!
      f0:	2f4a1703 	svccs	0x004a1703
      f4:	032f4b2f 			; <UNDEFINED> instruction: 0x032f4b2f
      f8:	4d304a15 	vldmdbmi	r0!, {s8-s28}
      fc:	004cda83 	subeq	sp, ip, r3, lsl #21
     100:	06010402 	streq	r0, [r1], -r2, lsl #8
     104:	04020082 	streq	r0, [r2], #-130	; 0xffffff7e
     108:	dad40601 	ble	ff501914 <__bss_end__+0xff4f7d9c>
     10c:	01040200 	mrseq	r0, R12_usr
     110:	03068206 	movweq	r8, #25094	; 0x6206
     114:	8820080d 	stmdahi	r0!, {r0, r2, r3, fp}
     118:	02004c68 	andeq	r4, r0, #104, 24	; 0x6800
     11c:	82060104 	andhi	r0, r6, #4, 2
     120:	01040200 	mrseq	r0, R12_usr
     124:	00dad406 	sbcseq	sp, sl, r6, lsl #8
     128:	06010402 	streq	r0, [r1], -r2, lsl #8
     12c:	04020082 	streq	r0, [r2], #-130	; 0xffffff7e
     130:	0b030603 	bleq	c1944 <__bss_end__+0xb7dcc>
     134:	040200d6 	streq	r0, [r2], #-214	; 0xffffff2a
     138:	02006703 	andeq	r6, r0, #786432	; 0xc0000
     13c:	00670304 	rsbeq	r0, r7, r4, lsl #6
     140:	47030402 	strmi	r0, [r3, -r2, lsl #8]
     144:	01040200 	mrseq	r0, R12_usr
     148:	4f062e06 	svcmi	0x00062e06
     14c:	01001a02 	tsteq	r0, r2, lsl #20
     150:	00024401 	andeq	r4, r2, r1, lsl #8
     154:	04000200 	streq	r0, [r0], #-512	; 0xfffffe00
     158:	02000001 	andeq	r0, r0, #1
     15c:	0d0efb01 	vstreq	d15, [lr, #-4]
     160:	01010100 	mrseq	r0, (UNDEF: 17)
     164:	00000001 	andeq	r0, r0, r1
     168:	01000001 	tsteq	r0, r1
     16c:	7273752f 	rsbsvc	r7, r3, #197132288	; 0xbc00000
     170:	62696c2f 	rsbvs	r6, r9, #12032	; 0x2f00
     174:	6363672f 	cmnvs	r3, #12320768	; 0xbc0000
     178:	6d72612f 	ldfvse	f6, [r2, #-188]!	; 0xffffff44
     17c:	6e6f6e2d 	cdpvs	14, 6, cr6, cr15, cr13, {1}
     180:	61652d65 	cmnvs	r5, r5, ror #26
     184:	362f6962 	strtcc	r6, [pc], -r2, ror #18
     188:	312e332e 			; <UNDEFINED> instruction: 0x312e332e
     18c:	636e692f 	cmnvs	lr, #770048	; 0xbc000
     190:	6564756c 	strbvs	r7, [r4, #-1388]!	; 0xfffffa94
     194:	73752f00 	cmnvc	r5, #0, 30
     198:	6e692f72 	mcrvs	15, 3, r2, cr9, cr2, {3}
     19c:	64756c63 	ldrbtvs	r6, [r5], #-3171	; 0xfffff39d
     1a0:	656e2f65 	strbvs	r2, [lr, #-3941]!	; 0xfffff09b
     1a4:	62696c77 	rsbvs	r6, r9, #30464	; 0x7700
     1a8:	7379732f 	cmnvc	r9, #-1140850688	; 0xbc000000
     1ac:	6f682f00 	svcvs	0x00682f00
     1b0:	652f656d 	strvs	r6, [pc, #-1389]!	; fffffc4b <__bss_end__+0xffff60d3>
     1b4:	656c676e 	strbvs	r6, [ip, #-1902]!	; 0xfffff892
     1b8:	6c632f72 	stclvs	15, cr2, [r3], #-456	; 0xfffffe38
     1bc:	2f737361 	svccs	0x00737361
     1c0:	34317363 	ldrtcc	r7, [r1], #-867	; 0xfffffc9d
     1c4:	322d6530 	eorcc	r6, sp, #48, 10	; 0xc000000
     1c8:	6e697730 	mcrvs	7, 3, r7, cr9, cr0, {1}
     1cc:	62696c2f 	rsbvs	r6, r9, #12032	; 0x2f00
     1d0:	2f006970 	svccs	0x00006970
     1d4:	656d6f68 	strbvs	r6, [sp, #-3944]!	; 0xfffff098
     1d8:	676e652f 	strbvs	r6, [lr, -pc, lsr #10]!
     1dc:	2f72656c 	svccs	0x0072656c
     1e0:	73616c63 	cmnvc	r1, #25344	; 0x6300
     1e4:	73632f73 	cmnvc	r3, #460	; 0x1cc
     1e8:	65303431 	ldrvs	r3, [r0, #-1073]!	; 0xfffffbcf
     1ec:	7730322d 	ldrvc	r3, [r0, -sp, lsr #4]!
     1f0:	6c2f6e69 	stcvs	14, cr6, [pc], #-420	; 54 <_start-0x7fac>
     1f4:	69706269 	ldmdbvs	r0!, {r0, r3, r5, r6, r9, sp, lr}^
     1f8:	3173632f 	cmncc	r3, pc, lsr #6
     1fc:	2d653034 	stclcs	0, cr3, [r5, #-208]!	; 0xffffff30
     200:	00637273 	rsbeq	r7, r3, r3, ror r2
     204:	63326900 	teqvs	r2, #0, 18
     208:	0000632e 	andeq	r6, r0, lr, lsr #6
     20c:	74730000 	ldrbtvc	r0, [r3], #-0
     210:	746e6964 	strbtvc	r6, [lr], #-2404	; 0xfffff69c
     214:	6363672d 	cmnvs	r3, #11796480	; 0xb40000
     218:	0100682e 	tsteq	r0, lr, lsr #16
     21c:	6f6c0000 	svcvs	0x006c0000
     220:	682e6b63 	stmdavs	lr!, {r0, r1, r5, r6, r8, r9, fp, sp, lr}
     224:	00000200 	andeq	r0, r0, r0, lsl #4
     228:	7079745f 	rsbsvc	r7, r9, pc, asr r4
     22c:	682e7365 	stmdavs	lr!, {r0, r2, r5, r6, r8, r9, ip, sp, lr}
     230:	00000200 	andeq	r0, r0, r0, lsl #4
     234:	64647473 	strbtvs	r7, [r4], #-1139	; 0xfffffb8d
     238:	682e6665 	stmdavs	lr!, {r0, r2, r5, r6, r9, sl, sp, lr}
     23c:	00000100 	andeq	r0, r0, r0, lsl #2
     240:	6e656572 	mcrvs	5, 3, r6, cr5, cr2, {3}
     244:	00682e74 	rsbeq	r2, r8, r4, ror lr
     248:	72000002 	andvc	r0, r0, #2
     24c:	682e6970 	stmdavs	lr!, {r4, r5, r6, r8, fp, sp, lr}
     250:	00000300 	andeq	r0, r0, r0, lsl #6
     254:	6f697067 	svcvs	0x00697067
     258:	0400682e 	streq	r6, [r0], #-2094	; 0xfffff7d2
     25c:	00000000 	andeq	r0, r0, r0
     260:	82880205 	addhi	r0, r8, #1342177280	; 0x50000000
     264:	f6030000 			; <UNDEFINED> instruction: 0xf6030000
     268:	2f130100 	svccs	0x00130100
     26c:	03302f2f 	teqeq	r0, #47, 30	; 0xbc
     270:	4c132e37 	ldcmi	14, cr2, [r3], {55}	; 0x37
     274:	2e01be03 	cdpcs	14, 0, cr11, cr1, cr3, {0}
     278:	032e1d03 			; <UNDEFINED> instruction: 0x032e1d03
     27c:	002e7f82 	eoreq	r7, lr, r2, lsl #31
     280:	30040402 	andcc	r0, r4, r2, lsl #8
     284:	05040200 	streq	r0, [r4, #-512]	; 0xfffffe00
     288:	02008206 	andeq	r8, r0, #1610612736	; 0x60000000
     28c:	00820204 	addeq	r0, r2, r4, lsl #4
     290:	82030402 	andhi	r0, r3, #33554432	; 0x2000000
     294:	01040200 	mrseq	r0, R12_usr
     298:	84d906d6 	ldrbhi	r0, [r9], #1750	; 0x6d6
     29c:	04020084 	streq	r0, [r2], #-132	; 0xffffff7c
     2a0:	02004601 	andeq	r4, r0, #1048576	; 0x100000
     2a4:	03d80104 	bicseq	r0, r8, #4, 2
     2a8:	22027f9d 	andcs	r7, r2, #628	; 0x274
     2ac:	034b2f01 	movteq	r2, #48897	; 0xbf01
     2b0:	672f2e2d 	strvs	r2, [pc, -sp, lsr #28]!
     2b4:	7f8f0334 	svcvc	0x008f0334
     2b8:	034b2f9e 	movteq	r2, #49054	; 0xbf9e
     2bc:	832e00f2 			; <UNDEFINED> instruction: 0x832e00f2
     2c0:	04040200 	streq	r0, [r4], #-512	; 0xfffffe00
     2c4:	04020031 	streq	r0, [r2], #-49	; 0xffffffcf
     2c8:	00820605 	addeq	r0, r2, r5, lsl #12
     2cc:	82020402 	andhi	r0, r2, #33554432	; 0x2000000
     2d0:	03040200 	movweq	r0, #16896	; 0x4200
     2d4:	04020082 	streq	r0, [r2], #-130	; 0xffffff7e
     2d8:	d906d601 	stmdble	r6, {r0, r9, sl, ip, lr, pc}
     2dc:	694b3184 	stmdbvs	fp, {r2, r7, r8, ip, sp}^
     2e0:	2f68684b 	svccs	0x0068684b
     2e4:	0402004b 	streq	r0, [r2], #-75	; 0xffffffb5
     2e8:	02006e04 	andeq	r6, r0, #4, 28	; 0x40
     2ec:	82060504 	andhi	r0, r6, #4, 10	; 0x1000000
     2f0:	02040200 	andeq	r0, r4, #0, 4
     2f4:	04020082 	streq	r0, [r2], #-130	; 0xffffff7e
     2f8:	02008203 	andeq	r8, r0, #805306368	; 0x30000000
     2fc:	03060104 	movweq	r0, #24836	; 0x6104
     300:	0200d668 	andeq	sp, r0, #104, 12	; 0x6800000
     304:	00db0104 	sbcseq	r0, fp, r4, lsl #2
     308:	da010402 	ble	41318 <__bss_end__+0x377a0>
     30c:	01040200 	mrseq	r0, R12_usr
     310:	d7d60f03 	ldrble	r0, [r6, r3, lsl #30]
     314:	90080f03 	andls	r0, r8, r3, lsl #30
     318:	02006867 	andeq	r6, r0, #6750208	; 0x670000
     31c:	004c0104 	subeq	r0, ip, r4, lsl #2
     320:	d9020402 	stmdble	r2, {r1, sl}
     324:	02040200 	andeq	r0, r4, #0, 4
     328:	04020061 	streq	r0, [r2], #-97	; 0xffffff9f
     32c:	002e0601 	eoreq	r0, lr, r1, lsl #12
     330:	06040402 	streq	r0, [r4], -r2, lsl #8
     334:	0402004c 	streq	r0, [r2], #-76	; 0xffffffb4
     338:	00820605 	addeq	r0, r2, r5, lsl #12
     33c:	82020402 	andhi	r0, r2, #33554432	; 0x2000000
     340:	03040200 	movweq	r0, #16896	; 0x4200
     344:	30dc0682 	sbcscc	r0, ip, r2, lsl #13
     348:	006967f5 	strdeq	r6, [r9], #-117	; 0xffffff8b	; <UNPREDICTABLE>
     34c:	4c010402 	cfstrsmi	mvf0, [r1], {2}
     350:	02040200 	andeq	r0, r4, #0, 4
     354:	040200d9 	streq	r0, [r2], #-217	; 0xffffff27
     358:	02006102 	andeq	r6, r0, #-2147483648	; 0x80000000
     35c:	2e060104 	adfcss	f0, f6, f4
     360:	04040200 	streq	r0, [r4], #-512	; 0xfffffe00
     364:	02004c06 	andeq	r4, r0, #1536	; 0x600
     368:	82060504 	andhi	r0, r6, #4, 10	; 0x1000000
     36c:	02040200 	andeq	r0, r4, #0, 4
     370:	04020082 	streq	r0, [r2], #-130	; 0xffffff7e
     374:	dc068203 	sfmle	f0, 1, [r6], {3}
     378:	0314f730 	tsteq	r4, #48, 14	; 0xc00000	; <UNPREDICTABLE>
     37c:	312f820b 			; <UNDEFINED> instruction: 0x312f820b
     380:	34696734 	strbtcc	r6, [r9], #-1844	; 0xfffff8cc
     384:	2f313085 	svccs	0x00313085
     388:	04020068 	streq	r0, [r2], #-104	; 0xffffff98
     38c:	59038001 	stmdbpl	r3, {r0, pc}
     390:	682f9008 	stmdavs	pc!, {r3, ip, pc}	; <UNPREDICTABLE>
     394:	01000402 	tsteq	r0, r2, lsl #8
     398:	0000f701 	andeq	pc, r0, r1, lsl #14
     39c:	e0000200 	and	r0, r0, r0, lsl #4
     3a0:	02000000 	andeq	r0, r0, #0
     3a4:	0d0efb01 	vstreq	d15, [lr, #-4]
     3a8:	01010100 	mrseq	r0, (UNDEF: 17)
     3ac:	00000001 	andeq	r0, r0, r1
     3b0:	01000001 	tsteq	r0, r1
     3b4:	6362696c 	cmnvs	r2, #108, 18	; 0x1b0000
     3b8:	73752f00 	cmnvc	r5, #0, 30
     3bc:	696c2f72 	stmdbvs	ip!, {r1, r4, r5, r6, r8, r9, sl, fp, sp}^
     3c0:	63672f62 	cmnvs	r7, #392	; 0x188
     3c4:	72612f63 	rsbvc	r2, r1, #396	; 0x18c
     3c8:	6f6e2d6d 	svcvs	0x006e2d6d
     3cc:	652d656e 	strvs	r6, [sp, #-1390]!	; 0xfffffa92
     3d0:	2f696261 	svccs	0x00696261
     3d4:	2e332e36 	mrccs	14, 1, r2, cr3, cr6, {1}
     3d8:	6e692f31 	mcrvs	15, 3, r2, cr9, cr1, {1}
     3dc:	64756c63 	ldrbtvs	r6, [r5], #-3171	; 0xfffff39d
     3e0:	752f0065 	strvc	r0, [pc, #-101]!	; 383 <_start-0x7c7d>
     3e4:	692f7273 	stmdbvs	pc!, {r0, r1, r4, r5, r6, r9, ip, sp, lr}	; <UNPREDICTABLE>
     3e8:	756c636e 	strbvc	r6, [ip, #-878]!	; 0xfffffc92
     3ec:	6e2f6564 	cfsh64vs	mvdx6, mvdx15, #52
     3f0:	696c7765 	stmdbvs	ip!, {r0, r2, r5, r6, r8, r9, sl, ip, sp, lr}^
     3f4:	79732f62 	ldmdbvc	r3!, {r1, r5, r6, r8, r9, sl, fp, sp}^
     3f8:	682f0073 	stmdavs	pc!, {r0, r1, r4, r5, r6}	; <UNPREDICTABLE>
     3fc:	2f656d6f 	svccs	0x00656d6f
     400:	72657375 	rsbvc	r7, r5, #-738197503	; 0xd4000001
     404:	7665442f 	strbtvc	r4, [r5], -pc, lsr #8
     408:	3153432f 	cmpcc	r3, pc, lsr #6
     40c:	2f453034 	svccs	0x00453034
     410:	7062696c 	rsbvc	r6, r2, ip, ror #18
     414:	70000069 	andvc	r0, r0, r9, rrx
     418:	746e6972 	strbtvc	r6, [lr], #-2418	; 0xfffff68e
     41c:	00632e6b 	rsbeq	r2, r3, fp, ror #28
     420:	73000001 	movwvc	r0, #1
     424:	72616474 	rsbvc	r6, r1, #116, 8	; 0x74000000
     428:	00682e67 	rsbeq	r2, r8, r7, ror #28
     42c:	6c000002 	stcvs	0, cr0, [r0], {2}
     430:	2e6b636f 	cdpcs	3, 6, cr6, cr11, cr15, {3}
     434:	00030068 	andeq	r0, r3, r8, rrx
     438:	79745f00 	ldmdbvc	r4!, {r8, r9, sl, fp, ip, lr}^
     43c:	2e736570 	mrccs	5, 3, r6, cr3, cr0, {3}
     440:	00030068 	andeq	r0, r3, r8, rrx
     444:	64747300 	ldrbtvs	r7, [r4], #-768	; 0xfffffd00
     448:	2e666564 	cdpcs	5, 6, cr6, cr6, cr4, {3}
     44c:	00020068 	andeq	r0, r2, r8, rrx
     450:	65657200 	strbvs	r7, [r5, #-512]!	; 0xfffffe00
     454:	682e746e 	stmdavs	lr!, {r1, r2, r3, r5, r6, sl, ip, sp, lr}
     458:	00000300 	andeq	r0, r0, r0, lsl #6
     45c:	6975623c 	ldmdbvs	r5!, {r2, r3, r4, r5, r9, sp, lr}^
     460:	692d746c 	pushvs	{r2, r3, r5, r6, sl, ip, sp, lr}
     464:	00003e6e 	andeq	r3, r0, lr, ror #28
     468:	70720000 	rsbsvc	r0, r2, r0
     46c:	00682e69 	rsbeq	r2, r8, r9, ror #28
     470:	76000004 	strvc	r0, [r0], -r4
     474:	72702d61 	rsbsvc	r2, r0, #6208	; 0x1840
     478:	6b746e69 	blvs	1d1be24 <__bss_end__+0x1d122ac>
     47c:	0100682e 	tsteq	r0, lr, lsr #16
     480:	00000000 	andeq	r0, r0, r0
     484:	87fc0205 	ldrbhi	r0, [ip, r5, lsl #4]!
     488:	6b170000 	blvs	5c0490 <__bss_end__+0x5b6918>
     48c:	0289bf4b 	addeq	fp, r9, #300	; 0x12c
     490:	0101000e 	tsteq	r1, lr
     494:	000001c3 	andeq	r0, r0, r3, asr #3
     498:	00d40002 	sbcseq	r0, r4, r2
     49c:	01020000 	mrseq	r0, (UNDEF: 2)
     4a0:	000d0efb 	strdeq	r0, [sp], -fp
     4a4:	01010101 	tsteq	r1, r1, lsl #2
     4a8:	01000000 	mrseq	r0, (UNDEF: 0)
     4ac:	6c010000 	stcvs	0, cr0, [r1], {-0}
     4b0:	00636269 	rsbeq	r6, r3, r9, ror #4
     4b4:	7273752f 	rsbsvc	r7, r3, #197132288	; 0xbc00000
     4b8:	636e692f 	cmnvs	lr, #770048	; 0xbc000
     4bc:	6564756c 	strbvs	r7, [r4, #-1388]!	; 0xfffffa94
     4c0:	77656e2f 	strbvc	r6, [r5, -pc, lsr #28]!
     4c4:	2f62696c 	svccs	0x0062696c
     4c8:	00737973 	rsbseq	r7, r3, r3, ror r9
     4cc:	7273752f 	rsbsvc	r7, r3, #197132288	; 0xbc00000
     4d0:	62696c2f 	rsbvs	r6, r9, #12032	; 0x2f00
     4d4:	6363672f 	cmnvs	r3, #12320768	; 0xbc0000
     4d8:	6d72612f 	ldfvse	f6, [r2, #-188]!	; 0xffffff44
     4dc:	6e6f6e2d 	cdpvs	14, 6, cr6, cr15, cr13, {1}
     4e0:	61652d65 	cmnvs	r5, r5, ror #26
     4e4:	362f6962 	strtcc	r6, [pc], -r2, ror #18
     4e8:	312e332e 			; <UNDEFINED> instruction: 0x312e332e
     4ec:	636e692f 	cmnvs	lr, #770048	; 0xbc000
     4f0:	6564756c 	strbvs	r7, [r4, #-1388]!	; 0xfffffa94
     4f4:	6f682f00 	svcvs	0x00682f00
     4f8:	752f656d 	strvc	r6, [pc, #-1389]!	; ffffff93 <__bss_end__+0xffff641b>
     4fc:	2f726573 	svccs	0x00726573
     500:	2f766544 	svccs	0x00766544
     504:	34315343 	ldrtcc	r5, [r1], #-835	; 0xfffffcbd
     508:	6c2f4530 	cfstr32vs	mvfx4, [pc], #-192	; 450 <_start-0x7bb0>
     50c:	69706269 	ldmdbvs	r0!, {r0, r3, r5, r6, r9, sp, lr}^
     510:	61760000 	cmnvs	r6, r0
     514:	6972702d 	ldmdbvs	r2!, {r0, r2, r3, r5, ip, sp, lr}^
     518:	2e6b746e 	cdpcs	4, 6, cr7, cr11, cr14, {3}
     51c:	00010063 	andeq	r0, r1, r3, rrx
     520:	636f6c00 	cmnvs	pc, #0, 24
     524:	00682e6b 	rsbeq	r2, r8, fp, ror #28
     528:	5f000002 	svcpl	0x00000002
     52c:	65707974 	ldrbvs	r7, [r0, #-2420]!	; 0xfffff68c
     530:	00682e73 	rsbeq	r2, r8, r3, ror lr
     534:	73000002 	movwvc	r0, #2
     538:	65646474 	strbvs	r6, [r4, #-1140]!	; 0xfffffb8c
     53c:	00682e66 	rsbeq	r2, r8, r6, ror #28
     540:	72000003 	andvc	r0, r0, #3
     544:	746e6565 	strbtvc	r6, [lr], #-1381	; 0xfffffa9b
     548:	0200682e 	andeq	r6, r0, #3014656	; 0x2e0000
     54c:	70720000 	rsbsvc	r0, r2, r0
     550:	00682e69 	rsbeq	r2, r8, r9, ror #28
     554:	73000004 	movwvc	r0, #4
     558:	72616474 	rsbvc	r6, r1, #116, 8	; 0x74000000
     55c:	00682e67 	rsbeq	r2, r8, r7, ror #28
     560:	3c000003 	stccc	0, cr0, [r0], {3}
     564:	6c697562 	cfstr64vs	mvdx7, [r9], #-392	; 0xfffffe78
     568:	6e692d74 	mcrvs	13, 3, r2, cr9, cr4, {3}
     56c:	0000003e 	andeq	r0, r0, lr, lsr r0
     570:	05000000 	streq	r0, [r0, #-0]
     574:	00885402 	addeq	r5, r8, r2, lsl #8
     578:	01260300 			; <UNDEFINED> instruction: 0x01260300
     57c:	3013a501 	andscc	sl, r3, r1, lsl #10
     580:	02040200 	andeq	r0, r4, #0, 4
     584:	0402002f 	streq	r0, [r2], #-47	; 0xffffffd1
     588:	02004902 	andeq	r4, r0, #32768	; 0x8000
     58c:	002f0204 	eoreq	r0, pc, r4, lsl #4
     590:	2d010402 	cfstrscs	mvf0, [r1, #-8]
     594:	14304c4c 	ldrtne	r4, [r0], #-3148	; 0xfffff3b4
     598:	004f2f4b 	subeq	r2, pc, fp, asr #30
     59c:	67030402 	strvs	r0, [r3, -r2, lsl #8]
     5a0:	01040200 	mrseq	r0, R12_usr
     5a4:	304d4c65 	subcc	r4, sp, r5, ror #24
     5a8:	30312fa0 	eorscc	r2, r1, r0, lsr #31
     5ac:	a0162602 	andsge	r2, r6, r2, lsl #12
     5b0:	0402002d 	streq	r0, [r2], #-45	; 0xffffffd3
     5b4:	062e0601 	strteq	r0, [lr], -r1, lsl #12
     5b8:	02005148 	andeq	r5, r0, #72, 2
     5bc:	2e060104 	adfcss	f0, f6, f4
     5c0:	01040200 	mrseq	r0, R12_usr
     5c4:	67590806 	ldrbvs	r0, [r9, -r6, lsl #16]
     5c8:	8273032f 	rsbshi	r0, r3, #-1140850688	; 0xbc000000
     5cc:	01040200 	mrseq	r0, R12_usr
     5d0:	002e1303 	eoreq	r1, lr, r3, lsl #6
     5d4:	bb010402 	bllt	415e4 <__bss_end__+0x37a6c>
     5d8:	d74a1503 	strble	r1, [sl, -r3, lsl #10]
     5dc:	4b4a6e03 	blmi	129bdf0 <__bss_end__+0x1292278>
     5e0:	002e6703 	eoreq	r6, lr, r3, lsl #14
     5e4:	03010402 	movweq	r0, #5122	; 0x1402
     5e8:	02002e21 	andeq	r2, r0, #528	; 0x210
     5ec:	00bb0104 	adcseq	r0, fp, r4, lsl #2
     5f0:	6a010402 	bvs	41600 <__bss_end__+0x37a88>
     5f4:	087faa03 	ldmdaeq	pc!, {r0, r1, r9, fp, sp, pc}^	; <UNPREDICTABLE>
     5f8:	4b4b13ac 	blmi	12c54b0 <__bss_end__+0x12bb938>
     5fc:	0402002f 	streq	r0, [r2], #-47	; 0xffffffd1
     600:	02006201 	andeq	r6, r0, #268435456	; 0x10000000
     604:	032f0104 			; <UNDEFINED> instruction: 0x032f0104
     608:	740800dd 	strvc	r0, [r8], #-221	; 0xffffff23
     60c:	31484c83 	smlalbbcc	r4, r8, r3, ip
     610:	01040200 	mrseq	r0, R12_usr
     614:	4b066606 	blmi	199e34 <__bss_end__+0x1902bc>
     618:	314e842f 	cmpcc	lr, pc, lsr #8
     61c:	2e780330 	mrccs	3, 3, r0, cr8, cr0, {1}
     620:	09032d2f 	stmdbeq	r3, {r0, r1, r2, r3, r5, r8, sl, fp, sp}
     624:	a22c834a 	eorge	r8, ip, #671088641	; 0x28000001
     628:	0402004c 	streq	r0, [r2], #-76	; 0xffffffb4
     62c:	10360201 	eorsne	r0, r6, r1, lsl #4
     630:	d60e03dc 			; <UNDEFINED> instruction: 0xd60e03dc
     634:	58081603 	stmdapl	r8, {r0, r1, r9, sl, ip}
     638:	2e6a0331 	mcrcs	3, 3, r0, cr10, cr1, {1}
     63c:	08315908 	ldmdaeq	r1!, {r3, r8, fp, ip, lr}
     640:	59083059 	stmdbpl	r8, {r0, r3, r4, r6, ip, sp}
     644:	08308330 	ldmdaeq	r0!, {r4, r5, r8, r9, pc}
     648:	27083059 	smlsdcs	r8, r9, r0, r3
     64c:	04020065 	streq	r0, [r2], #-101	; 0xffffff9b
     650:	064a0601 	strbeq	r0, [sl], -r1, lsl #12
     654:	10026886 	andne	r6, r2, r6, lsl #17
     658:	db010100 	blle	40a60 <__bss_end__+0x36ee8>
     65c:	02000000 	andeq	r0, r0, #0
     660:	0000b500 	andeq	fp, r0, r0, lsl #10
     664:	fb010200 	blx	40e6e <__bss_end__+0x372f6>
     668:	01000d0e 	tsteq	r0, lr, lsl #26
     66c:	00010101 	andeq	r0, r1, r1, lsl #2
     670:	00010000 	andeq	r0, r1, r0
     674:	696c0100 	stmdbvs	ip!, {r8}^
     678:	2f006362 	svccs	0x00006362
     67c:	2f727375 	svccs	0x00727375
     680:	6c636e69 	stclvs	14, cr6, [r3], #-420	; 0xfffffe5c
     684:	2f656475 	svccs	0x00656475
     688:	6c77656e 	cfldr64vs	mvdx6, [r7], #-440	; 0xfffffe48
     68c:	732f6269 			; <UNDEFINED> instruction: 0x732f6269
     690:	2f007379 	svccs	0x00007379
     694:	2f727375 	svccs	0x00727375
     698:	2f62696c 	svccs	0x0062696c
     69c:	2f636367 	svccs	0x00636367
     6a0:	2d6d7261 	sfmcs	f7, 2, [sp, #-388]!	; 0xfffffe7c
     6a4:	656e6f6e 	strbvs	r6, [lr, #-3950]!	; 0xfffff092
     6a8:	6261652d 	rsbvs	r6, r1, #188743680	; 0xb400000
     6ac:	2e362f69 	cdpcs	15, 3, cr2, cr6, cr9, {3}
     6b0:	2f312e33 	svccs	0x00312e33
     6b4:	6c636e69 	stclvs	14, cr6, [r3], #-420	; 0xfffffe5c
     6b8:	00656475 	rsbeq	r6, r5, r5, ror r4
     6bc:	6d6f682f 	stclvs	8, cr6, [pc, #-188]!	; 608 <_start-0x79f8>
     6c0:	73752f65 	cmnvc	r5, #404	; 0x194
     6c4:	442f7265 	strtmi	r7, [pc], #-613	; 6cc <_start-0x7934>
     6c8:	432f7665 			; <UNDEFINED> instruction: 0x432f7665
     6cc:	30343153 	eorscc	r3, r4, r3, asr r1
     6d0:	696c2f45 	stmdbvs	ip!, {r0, r2, r6, r8, r9, sl, fp, sp}^
     6d4:	00697062 	rsbeq	r7, r9, r2, rrx
     6d8:	74757000 	ldrbtvc	r7, [r5], #-0
     6dc:	00632e6b 	rsbeq	r2, r3, fp, ror #28
     6e0:	6c000001 	stcvs	0, cr0, [r0], {1}
     6e4:	2e6b636f 	cdpcs	3, 6, cr6, cr11, cr15, {3}
     6e8:	00020068 	andeq	r0, r2, r8, rrx
     6ec:	79745f00 	ldmdbvc	r4!, {r8, r9, sl, fp, ip, lr}^
     6f0:	2e736570 	mrccs	5, 3, r6, cr3, cr0, {3}
     6f4:	00020068 	andeq	r0, r2, r8, rrx
     6f8:	64747300 	ldrbtvs	r7, [r4], #-768	; 0xfffffd00
     6fc:	2e666564 	cdpcs	5, 6, cr6, cr6, cr4, {3}
     700:	00030068 	andeq	r0, r3, r8, rrx
     704:	65657200 	strbvs	r7, [r5, #-512]!	; 0xfffffe00
     708:	682e746e 	stmdavs	lr!, {r1, r2, r3, r5, r6, sl, ip, sp, lr}
     70c:	00000200 	andeq	r0, r0, r0, lsl #4
     710:	2e697072 	mcrcs	0, 3, r7, cr9, cr2, {3}
     714:	00040068 	andeq	r0, r4, r8, rrx
     718:	05000000 	streq	r0, [r0, #-0]
     71c:	008d8402 	addeq	r8, sp, r2, lsl #8
     720:	004b1500 	subeq	r1, fp, r0, lsl #10
     724:	2f020402 	svccs	0x00020402
     728:	02040200 	andeq	r0, r4, #0, 4
     72c:	04020065 	streq	r0, [r2], #-101	; 0xffffff9b
     730:	062e0601 	strteq	r0, [lr], -r1, lsl #12
     734:	0006026b 	andeq	r0, r6, fp, ror #4
     738:	00d00101 	sbcseq	r0, r0, r1, lsl #2
     73c:	00020000 	andeq	r0, r2, r0
     740:	000000b8 	strheq	r0, [r0], -r8
     744:	0efb0102 	cdpeq	1, 15, cr0, cr11, cr2, {0}
     748:	0101000d 	tsteq	r1, sp
     74c:	00000101 	andeq	r0, r0, r1, lsl #2
     750:	00000100 	andeq	r0, r0, r0, lsl #2
     754:	62696c01 	rsbvs	r6, r9, #256	; 0x100
     758:	752f0063 	strvc	r0, [pc, #-99]!	; 6fd <_start-0x7903>
     75c:	692f7273 	stmdbvs	pc!, {r0, r1, r4, r5, r6, r9, ip, sp, lr}	; <UNPREDICTABLE>
     760:	756c636e 	strbvc	r6, [ip, #-878]!	; 0xfffffc92
     764:	6e2f6564 	cfsh64vs	mvdx6, mvdx15, #52
     768:	696c7765 	stmdbvs	ip!, {r0, r2, r5, r6, r8, r9, sl, ip, sp, lr}^
     76c:	79732f62 	ldmdbvc	r3!, {r1, r5, r6, r8, r9, sl, fp, sp}^
     770:	752f0073 	strvc	r0, [pc, #-115]!	; 705 <_start-0x78fb>
     774:	6c2f7273 	sfmvs	f7, 4, [pc], #-460	; 5b0 <_start-0x7a50>
     778:	672f6269 	strvs	r6, [pc, -r9, ror #4]!
     77c:	612f6363 			; <UNDEFINED> instruction: 0x612f6363
     780:	6e2d6d72 	mcrvs	13, 1, r6, cr13, cr2, {3}
     784:	2d656e6f 	stclcs	14, cr6, [r5, #-444]!	; 0xfffffe44
     788:	69626165 	stmdbvs	r2!, {r0, r2, r5, r6, r8, sp, lr}^
     78c:	332e362f 			; <UNDEFINED> instruction: 0x332e362f
     790:	692f312e 	stmdbvs	pc!, {r1, r2, r3, r5, r8, ip, sp}	; <UNPREDICTABLE>
     794:	756c636e 	strbvc	r6, [ip, #-878]!	; 0xfffffc92
     798:	2f006564 	svccs	0x00006564
     79c:	656d6f68 	strbvs	r6, [sp, #-3944]!	; 0xfffff098
     7a0:	6573752f 	ldrbvs	r7, [r3, #-1327]!	; 0xfffffad1
     7a4:	65442f72 	strbvs	r2, [r4, #-3954]	; 0xfffff08e
     7a8:	53432f76 	movtpl	r2, #16246	; 0x3f76
     7ac:	45303431 	ldrmi	r3, [r0, #-1073]!	; 0xfffffbcf
     7b0:	62696c2f 	rsbvs	r6, r9, #12032	; 0x2f00
     7b4:	00006970 	andeq	r6, r0, r0, ror r9
     7b8:	63747570 	cmnvs	r4, #112, 10	; 0x1c000000
     7bc:	2e726168 	rpwcssz	f6, f2, #0.0
     7c0:	00010063 	andeq	r0, r1, r3, rrx
     7c4:	636f6c00 	cmnvs	pc, #0, 24
     7c8:	00682e6b 	rsbeq	r2, r8, fp, ror #28
     7cc:	5f000002 	svcpl	0x00000002
     7d0:	65707974 	ldrbvs	r7, [r0, #-2420]!	; 0xfffff68c
     7d4:	00682e73 	rsbeq	r2, r8, r3, ror lr
     7d8:	73000002 	movwvc	r0, #2
     7dc:	65646474 	strbvs	r6, [r4, #-1140]!	; 0xfffffb8c
     7e0:	00682e66 	rsbeq	r2, r8, r6, ror #28
     7e4:	72000003 	andvc	r0, r0, #3
     7e8:	746e6565 	strbtvc	r6, [lr], #-1381	; 0xfffffa9b
     7ec:	0200682e 	andeq	r6, r0, #3014656	; 0x2e0000
     7f0:	70720000 	rsbsvc	r0, r2, r0
     7f4:	00682e69 	rsbeq	r2, r8, r9, ror #28
     7f8:	00000004 	andeq	r0, r0, r4
     7fc:	b8020500 	stmdalt	r2, {r8, sl}
     800:	1400008d 	strne	r0, [r0], #-141	; 0xffffff73
     804:	bc136b4a 			; <UNDEFINED> instruction: 0xbc136b4a
     808:	00080213 	andeq	r0, r8, r3, lsl r2
     80c:	010f0101 	tsteq	pc, r1, lsl #2
     810:	00020000 	andeq	r0, r2, r0
     814:	000000ed 	andeq	r0, r0, sp, ror #1
     818:	0efb0102 	cdpeq	1, 15, cr0, cr11, cr2, {0}
     81c:	0101000d 	tsteq	r1, sp
     820:	00000101 	andeq	r0, r0, r1, lsl #2
     824:	00000100 	andeq	r0, r0, r0, lsl #2
     828:	31736301 	cmncc	r3, r1, lsl #6
     82c:	2d653034 	stclcs	0, cr3, [r5, #-208]!	; 0xffffff30
     830:	00637273 	rsbeq	r7, r3, r3, ror r2
     834:	7273752f 	rsbsvc	r7, r3, #197132288	; 0xbc00000
     838:	62696c2f 	rsbvs	r6, r9, #12032	; 0x2f00
     83c:	6363672f 	cmnvs	r3, #12320768	; 0xbc0000
     840:	6d72612f 	ldfvse	f6, [r2, #-188]!	; 0xffffff44
     844:	6e6f6e2d 	cdpvs	14, 6, cr6, cr15, cr13, {1}
     848:	61652d65 	cmnvs	r5, r5, ror #26
     84c:	362f6962 	strtcc	r6, [pc], -r2, ror #18
     850:	312e332e 			; <UNDEFINED> instruction: 0x312e332e
     854:	636e692f 	cmnvs	lr, #770048	; 0xbc000
     858:	6564756c 	strbvs	r7, [r4, #-1388]!	; 0xfffffa94
     85c:	73752f00 	cmnvc	r5, #0, 30
     860:	6e692f72 	mcrvs	15, 3, r2, cr9, cr2, {3}
     864:	64756c63 	ldrbtvs	r6, [r5], #-3171	; 0xfffff39d
     868:	656e2f65 	strbvs	r2, [lr, #-3941]!	; 0xfffff09b
     86c:	62696c77 	rsbvs	r6, r9, #30464	; 0x7700
     870:	7379732f 	cmnvc	r9, #-1140850688	; 0xbc000000
     874:	6f682f00 	svcvs	0x00682f00
     878:	752f656d 	strvc	r6, [pc, #-1389]!	; 313 <_start-0x7ced>
     87c:	2f726573 	svccs	0x00726573
     880:	2f766544 	svccs	0x00766544
     884:	34315343 	ldrtcc	r5, [r1], #-835	; 0xfffffcbd
     888:	6c2f4530 	cfstr32vs	mvfx4, [pc], #-192	; 7d0 <_start-0x7830>
     88c:	69706269 	ldmdbvs	r0!, {r0, r3, r5, r6, r9, sp, lr}^
     890:	73630000 	cmnvc	r3, #0
     894:	74726174 	ldrbtvc	r6, [r2], #-372	; 0xfffffe8c
     898:	0100632e 	tsteq	r0, lr, lsr #6
     89c:	74730000 	ldrbtvc	r0, [r3], #-0
     8a0:	746e6964 	strbtvc	r6, [lr], #-2404	; 0xfffff69c
     8a4:	6363672d 	cmnvs	r3, #11796480	; 0xb40000
     8a8:	0200682e 	andeq	r6, r0, #3014656	; 0x2e0000
     8ac:	6f6c0000 	svcvs	0x006c0000
     8b0:	682e6b63 	stmdavs	lr!, {r0, r1, r5, r6, r8, r9, fp, sp, lr}
     8b4:	00000300 	andeq	r0, r0, r0, lsl #6
     8b8:	7079745f 	rsbsvc	r7, r9, pc, asr r4
     8bc:	682e7365 	stmdavs	lr!, {r0, r2, r5, r6, r8, r9, ip, sp, lr}
     8c0:	00000300 	andeq	r0, r0, r0, lsl #6
     8c4:	64647473 	strbtvs	r7, [r4], #-1139	; 0xfffffb8d
     8c8:	682e6665 	stmdavs	lr!, {r0, r2, r5, r6, r9, sl, sp, lr}
     8cc:	00000200 	andeq	r0, r0, r0, lsl #4
     8d0:	6e656572 	mcrvs	5, 3, r6, cr5, cr2, {3}
     8d4:	00682e74 	rsbeq	r2, r8, r4, ror lr
     8d8:	72000003 	andvc	r0, r0, #3
     8dc:	682e6970 	stmdavs	lr!, {r4, r5, r6, r8, fp, sp, lr}
     8e0:	00000400 	andeq	r0, r0, r0, lsl #8
     8e4:	752d7773 	strvc	r7, [sp, #-1907]!	; 0xfffff88d
     8e8:	2e747261 	cdpcs	2, 7, cr7, cr4, cr1, {3}
     8ec:	00010068 	andeq	r0, r1, r8, rrx
     8f0:	6e6f6300 	cdpvs	3, 6, cr6, cr15, cr0, {0}
     8f4:	6c6f7274 	sfmvs	f7, 2, [pc], #-464	; 72c <_start-0x78d4>
     8f8:	6f6c622d 	svcvs	0x006c622d
     8fc:	682e6b63 	stmdavs	lr!, {r0, r1, r5, r6, r8, r9, fp, sp, lr}
     900:	00000100 	andeq	r0, r0, r0, lsl #2
     904:	02050000 	andeq	r0, r5, #0
     908:	00008df4 	strdeq	r8, [r0], -r4
     90c:	32301517 	eorscc	r1, r0, #96468992	; 0x5c00000
     910:	6b652f31 	blvs	194c5dc <__bss_end__+0x1942a64>
     914:	2f6e4b2f 	svccs	0x006e4b2f
     918:	692e7803 	stmdbvs	lr!, {r0, r1, fp, ip, sp, lr}
     91c:	01001002 	tsteq	r0, r2
     920:	0000e101 	andeq	lr, r0, r1, lsl #2
     924:	bd000200 	sfmlt	f0, 4, [r0, #-0]
     928:	02000000 	andeq	r0, r0, #0
     92c:	0d0efb01 	vstreq	d15, [lr, #-4]
     930:	01010100 	mrseq	r0, (UNDEF: 17)
     934:	00000001 	andeq	r0, r0, r1
     938:	01000001 	tsteq	r0, r1
     93c:	34317363 	ldrtcc	r7, [r1], #-867	; 0xfffffc9d
     940:	732d6530 			; <UNDEFINED> instruction: 0x732d6530
     944:	2f006372 	svccs	0x00006372
     948:	2f727375 	svccs	0x00727375
     94c:	6c636e69 	stclvs	14, cr6, [r3], #-420	; 0xfffffe5c
     950:	2f656475 	svccs	0x00656475
     954:	6c77656e 	cfldr64vs	mvdx6, [r7], #-440	; 0xfffffe48
     958:	732f6269 			; <UNDEFINED> instruction: 0x732f6269
     95c:	2f007379 	svccs	0x00007379
     960:	2f727375 	svccs	0x00727375
     964:	2f62696c 	svccs	0x0062696c
     968:	2f636367 	svccs	0x00636367
     96c:	2d6d7261 	sfmcs	f7, 2, [sp, #-388]!	; 0xfffffe7c
     970:	656e6f6e 	strbvs	r6, [lr, #-3950]!	; 0xfffff092
     974:	6261652d 	rsbvs	r6, r1, #188743680	; 0xb400000
     978:	2e362f69 	cdpcs	15, 3, cr2, cr6, cr9, {3}
     97c:	2f312e33 	svccs	0x00312e33
     980:	6c636e69 	stclvs	14, cr6, [r3], #-420	; 0xfffffe5c
     984:	00656475 	rsbeq	r6, r5, r5, ror r4
     988:	6d6f682f 	stclvs	8, cr6, [pc, #-188]!	; 8d4 <_start-0x772c>
     98c:	73752f65 	cmnvc	r5, #404	; 0x194
     990:	442f7265 	strtmi	r7, [pc], #-613	; 998 <_start-0x7668>
     994:	432f7665 			; <UNDEFINED> instruction: 0x432f7665
     998:	30343153 	eorscc	r3, r4, r3, asr r1
     99c:	696c2f45 	stmdbvs	ip!, {r0, r2, r6, r8, r9, sl, fp, sp}^
     9a0:	00697062 	rsbeq	r7, r9, r2, rrx
     9a4:	62657200 	rsbvs	r7, r5, #0, 4
     9a8:	2e746f6f 	cdpcs	15, 7, cr6, cr4, cr15, {3}
     9ac:	00010063 	andeq	r0, r1, r3, rrx
     9b0:	636f6c00 	cmnvs	pc, #0, 24
     9b4:	00682e6b 	rsbeq	r2, r8, fp, ror #28
     9b8:	5f000002 	svcpl	0x00000002
     9bc:	65707974 	ldrbvs	r7, [r0, #-2420]!	; 0xfffff68c
     9c0:	00682e73 	rsbeq	r2, r8, r3, ror lr
     9c4:	73000002 	movwvc	r0, #2
     9c8:	65646474 	strbvs	r6, [r4, #-1140]!	; 0xfffffb8c
     9cc:	00682e66 	rsbeq	r2, r8, r6, ror #28
     9d0:	72000003 	andvc	r0, r0, #3
     9d4:	746e6565 	strbtvc	r6, [lr], #-1381	; 0xfffffa9b
     9d8:	0200682e 	andeq	r6, r0, #3014656	; 0x2e0000
     9dc:	70720000 	rsbsvc	r0, r2, r0
     9e0:	00682e69 	rsbeq	r2, r8, r9, ror #28
     9e4:	00000004 	andeq	r0, r0, r4
     9e8:	68020500 	stmdavs	r2, {r8, sl}
     9ec:	0300008e 	movweq	r0, #142	; 0x8e
     9f0:	3114010d 	tstcc	r4, sp, lsl #2
     9f4:	2f15852f 	svccs	0x0015852f
     9f8:	6e2f4d4b 	cdpvs	13, 2, cr4, cr15, cr11, {2}
     9fc:	70036752 	andvc	r6, r3, r2, asr r7
     a00:	000c0282 	andeq	r0, ip, r2, lsl #5
     a04:	00d90101 	sbcseq	r0, r9, r1, lsl #2
     a08:	00020000 	andeq	r0, r2, r0
     a0c:	000000c3 	andeq	r0, r0, r3, asr #1
     a10:	0efb0102 	cdpeq	1, 15, cr0, cr11, cr2, {0}
     a14:	0101000d 	tsteq	r1, sp
     a18:	00000101 	andeq	r0, r0, r1, lsl #2
     a1c:	00000100 	andeq	r0, r0, r0, lsl #2
     a20:	31736301 	cmncc	r3, r1, lsl #6
     a24:	2d653034 	stclcs	0, cr3, [r5, #-208]!	; 0xffffff30
     a28:	00637273 	rsbeq	r7, r3, r3, ror r2
     a2c:	7273752f 	rsbsvc	r7, r3, #197132288	; 0xbc00000
     a30:	636e692f 	cmnvs	lr, #770048	; 0xbc000
     a34:	6564756c 	strbvs	r7, [r4, #-1388]!	; 0xfffffa94
     a38:	77656e2f 	strbvc	r6, [r5, -pc, lsr #28]!
     a3c:	2f62696c 	svccs	0x0062696c
     a40:	00737973 	rsbseq	r7, r3, r3, ror r9
     a44:	7273752f 	rsbsvc	r7, r3, #197132288	; 0xbc00000
     a48:	62696c2f 	rsbvs	r6, r9, #12032	; 0x2f00
     a4c:	6363672f 	cmnvs	r3, #12320768	; 0xbc0000
     a50:	6d72612f 	ldfvse	f6, [r2, #-188]!	; 0xffffff44
     a54:	6e6f6e2d 	cdpvs	14, 6, cr6, cr15, cr13, {1}
     a58:	61652d65 	cmnvs	r5, r5, ror #26
     a5c:	362f6962 	strtcc	r6, [pc], -r2, ror #18
     a60:	312e332e 			; <UNDEFINED> instruction: 0x312e332e
     a64:	636e692f 	cmnvs	lr, #770048	; 0xbc000
     a68:	6564756c 	strbvs	r7, [r4, #-1388]!	; 0xfffffa94
     a6c:	6f682f00 	svcvs	0x00682f00
     a70:	752f656d 	strvc	r6, [pc, #-1389]!	; 50b <_start-0x7af5>
     a74:	2f726573 	svccs	0x00726573
     a78:	2f766544 	svccs	0x00766544
     a7c:	34315343 	ldrtcc	r5, [r1], #-835	; 0xfffffcbd
     a80:	6c2f4530 	cfstr32vs	mvfx4, [pc], #-192	; 9c8 <_start-0x7638>
     a84:	69706269 	ldmdbvs	r0!, {r0, r3, r5, r6, r9, sp, lr}^
     a88:	6c630000 	stclvs	0, cr0, [r3], #-0
     a8c:	2d6e6165 	stfcse	f6, [lr, #-404]!	; 0xfffffe6c
     a90:	6f626572 	svcvs	0x00626572
     a94:	632e746f 			; <UNDEFINED> instruction: 0x632e746f
     a98:	00000100 	andeq	r0, r0, r0, lsl #2
     a9c:	6b636f6c 	blvs	18dc854 <__bss_end__+0x18d2cdc>
     aa0:	0200682e 	andeq	r6, r0, #3014656	; 0x2e0000
     aa4:	745f0000 	ldrbvc	r0, [pc], #-0	; aac <_start-0x7554>
     aa8:	73657079 	cmnvc	r5, #121	; 0x79
     aac:	0200682e 	andeq	r6, r0, #3014656	; 0x2e0000
     ab0:	74730000 	ldrbtvc	r0, [r3], #-0
     ab4:	66656464 	strbtvs	r6, [r5], -r4, ror #8
     ab8:	0300682e 	movweq	r6, #2094	; 0x82e
     abc:	65720000 	ldrbvs	r0, [r2, #-0]!
     ac0:	2e746e65 	cdpcs	14, 7, cr6, cr4, cr5, {3}
     ac4:	00020068 	andeq	r0, r2, r8, rrx
     ac8:	69707200 	ldmdbvs	r0!, {r9, ip, sp, lr}^
     acc:	0400682e 	streq	r6, [r0], #-2094	; 0xfffff7d2
     ad0:	00000000 	andeq	r0, r0, r0
     ad4:	8ee00205 	cdphi	2, 14, cr0, cr0, cr5, {0}
     ad8:	2f150000 	svccs	0x00150000
     adc:	06024b83 	streq	r4, [r2], -r3, lsl #23
     ae0:	e2010100 	and	r0, r1, #0, 2
     ae4:	02000000 	andeq	r0, r0, #0
     ae8:	0000bc00 	andeq	fp, r0, r0, lsl #24
     aec:	fb010200 	blx	412f6 <__bss_end__+0x3777e>
     af0:	01000d0e 	tsteq	r0, lr, lsl #26
     af4:	00010101 	andeq	r0, r1, r1, lsl #2
     af8:	00010000 	andeq	r0, r1, r0
     afc:	73630100 	cmnvc	r3, #0, 2
     b00:	65303431 	ldrvs	r3, [r0, #-1073]!	; 0xfffffbcf
     b04:	6372732d 	cmnvs	r2, #-1275068416	; 0xb4000000
     b08:	73752f00 	cmnvc	r5, #0, 30
     b0c:	6e692f72 	mcrvs	15, 3, r2, cr9, cr2, {3}
     b10:	64756c63 	ldrbtvs	r6, [r5], #-3171	; 0xfffff39d
     b14:	656e2f65 	strbvs	r2, [lr, #-3941]!	; 0xfffff09b
     b18:	62696c77 	rsbvs	r6, r9, #30464	; 0x7700
     b1c:	7379732f 	cmnvc	r9, #-1140850688	; 0xbc000000
     b20:	73752f00 	cmnvc	r5, #0, 30
     b24:	696c2f72 	stmdbvs	ip!, {r1, r4, r5, r6, r8, r9, sl, fp, sp}^
     b28:	63672f62 	cmnvs	r7, #392	; 0x188
     b2c:	72612f63 	rsbvc	r2, r1, #396	; 0x18c
     b30:	6f6e2d6d 	svcvs	0x006e2d6d
     b34:	652d656e 	strvs	r6, [sp, #-1390]!	; 0xfffffa92
     b38:	2f696261 	svccs	0x00696261
     b3c:	2e332e36 	mrccs	14, 1, r2, cr3, cr6, {1}
     b40:	6e692f31 	mcrvs	15, 3, r2, cr9, cr1, {1}
     b44:	64756c63 	ldrbtvs	r6, [r5], #-3171	; 0xfffff39d
     b48:	682f0065 	stmdavs	pc!, {r0, r2, r5, r6}	; <UNPREDICTABLE>
     b4c:	2f656d6f 	svccs	0x00656d6f
     b50:	72657375 	rsbvc	r7, r5, #-738197503	; 0xd4000001
     b54:	7665442f 	strbtvc	r4, [r5], -pc, lsr #8
     b58:	3153432f 	cmpcc	r3, pc, lsr #6
     b5c:	2f453034 	svccs	0x00453034
     b60:	7062696c 	rsbvc	r6, r2, ip, ror #18
     b64:	74000069 	strvc	r0, [r0], #-105	; 0xffffff97
     b68:	72656d69 	rsbvc	r6, r5, #6720	; 0x1a40
     b6c:	0100632e 	tsteq	r0, lr, lsr #6
     b70:	6f6c0000 	svcvs	0x006c0000
     b74:	682e6b63 	stmdavs	lr!, {r0, r1, r5, r6, r8, r9, fp, sp, lr}
     b78:	00000200 	andeq	r0, r0, r0, lsl #4
     b7c:	7079745f 	rsbsvc	r7, r9, pc, asr r4
     b80:	682e7365 	stmdavs	lr!, {r0, r2, r5, r6, r8, r9, ip, sp, lr}
     b84:	00000200 	andeq	r0, r0, r0, lsl #4
     b88:	64647473 	strbtvs	r7, [r4], #-1139	; 0xfffffb8d
     b8c:	682e6665 	stmdavs	lr!, {r0, r2, r5, r6, r9, sl, sp, lr}
     b90:	00000300 	andeq	r0, r0, r0, lsl #6
     b94:	6e656572 	mcrvs	5, 3, r6, cr5, cr2, {3}
     b98:	00682e74 	rsbeq	r2, r8, r4, ror lr
     b9c:	72000002 	andvc	r0, r0, #2
     ba0:	682e6970 	stmdavs	lr!, {r4, r5, r6, r8, fp, sp, lr}
     ba4:	00000400 	andeq	r0, r0, r0, lsl #8
     ba8:	02050000 	andeq	r0, r5, #0
     bac:	00008f08 	andeq	r8, r0, r8, lsl #30
     bb0:	2d2f1316 	stccs	3, cr1, [pc, #-88]!	; b60 <_start-0x74a0>
     bb4:	4b2f3184 	blmi	bcd1cc <__bss_end__+0xbc3654>
     bb8:	3031324d 	eorscc	r3, r1, sp, asr #4
     bbc:	6a2f4c4b 	bvs	bd3cf0 <__bss_end__+0xbca178>
     bc0:	2f842f2f 	svccs	0x00842f2f
     bc4:	01000802 	tsteq	r0, r2, lsl #16
     bc8:	00014b01 	andeq	r4, r1, r1, lsl #22
     bcc:	06000200 	streq	r0, [r0], -r0, lsl #4
     bd0:	02000001 	andeq	r0, r0, #1
     bd4:	0d0efb01 	vstreq	d15, [lr, #-4]
     bd8:	01010100 	mrseq	r0, (UNDEF: 17)
     bdc:	00000001 	andeq	r0, r0, r1
     be0:	01000001 	tsteq	r0, r1
     be4:	7273752f 	rsbsvc	r7, r3, #197132288	; 0xbc00000
     be8:	6d72612f 	ldfvse	f6, [r2, #-188]!	; 0xffffff44
     bec:	6e6f6e2d 	cdpvs	14, 6, cr6, cr15, cr13, {1}
     bf0:	61652d65 	cmnvs	r5, r5, ror #26
     bf4:	692f6962 	stmdbvs	pc!, {r1, r5, r6, r8, fp, sp, lr}	; <UNPREDICTABLE>
     bf8:	756c636e 	strbvc	r6, [ip, #-878]!	; 0xfffffc92
     bfc:	732f6564 			; <UNDEFINED> instruction: 0x732f6564
     c00:	2f007379 	svccs	0x00007379
     c04:	2f727375 	svccs	0x00727375
     c08:	2f62696c 	svccs	0x0062696c
     c0c:	2f636367 	svccs	0x00636367
     c10:	2d6d7261 	sfmcs	f7, 2, [sp, #-388]!	; 0xfffffe7c
     c14:	656e6f6e 	strbvs	r6, [lr, #-3950]!	; 0xfffff092
     c18:	6261652d 	rsbvs	r6, r1, #188743680	; 0xb400000
     c1c:	2e372f69 	cdpcs	15, 3, cr2, cr7, cr9, {3}
     c20:	2f312e33 	svccs	0x00312e33
     c24:	6c636e69 	stclvs	14, cr6, [r3], #-420	; 0xfffffe5c
     c28:	00656475 	rsbeq	r6, r5, r5, ror r4
     c2c:	6d6f682f 	stclvs	8, cr6, [pc, #-188]!	; b78 <_start-0x7488>
     c30:	6e652f65 	cdpvs	15, 6, cr2, cr5, cr5, {3}
     c34:	72656c67 	rsbvc	r6, r5, #26368	; 0x6700
     c38:	616c632f 	cmnvs	ip, pc, lsr #6
     c3c:	632f7373 			; <UNDEFINED> instruction: 0x632f7373
     c40:	30343173 	eorscc	r3, r4, r3, ror r1
     c44:	30322d65 	eorscc	r2, r2, r5, ror #26
     c48:	2f6e6977 	svccs	0x006e6977
     c4c:	7062696c 	rsbvc	r6, r2, ip, ror #18
     c50:	682f0069 	stmdavs	pc!, {r0, r3, r5, r6}	; <UNPREDICTABLE>
     c54:	2f656d6f 	svccs	0x00656d6f
     c58:	6c676e65 	stclvs	14, cr6, [r7], #-404	; 0xfffffe6c
     c5c:	632f7265 			; <UNDEFINED> instruction: 0x632f7265
     c60:	7373616c 	cmnvc	r3, #108, 2
     c64:	3173632f 	cmncc	r3, pc, lsr #6
     c68:	2d653034 	stclcs	0, cr3, [r5, #-208]!	; 0xffffff30
     c6c:	69773032 	ldmdbvs	r7!, {r1, r4, r5, ip, sp}^
     c70:	696c2f6e 	stmdbvs	ip!, {r1, r2, r3, r5, r6, r8, r9, sl, fp, sp}^
     c74:	2f697062 	svccs	0x00697062
     c78:	34317363 	ldrtcc	r7, [r1], #-867	; 0xfffffc9d
     c7c:	732d6530 			; <UNDEFINED> instruction: 0x732d6530
     c80:	00006372 	andeq	r6, r0, r2, ror r3
     c84:	74726175 	ldrbtvc	r6, [r2], #-373	; 0xfffffe8b
     c88:	0000632e 	andeq	r6, r0, lr, lsr #6
     c8c:	6f6c0000 	svcvs	0x006c0000
     c90:	682e6b63 	stmdavs	lr!, {r0, r1, r5, r6, r8, r9, fp, sp, lr}
     c94:	00000100 	andeq	r0, r0, r0, lsl #2
     c98:	7079745f 	rsbsvc	r7, r9, pc, asr r4
     c9c:	682e7365 	stmdavs	lr!, {r0, r2, r5, r6, r8, r9, ip, sp, lr}
     ca0:	00000100 	andeq	r0, r0, r0, lsl #2
     ca4:	64647473 	strbtvs	r7, [r4], #-1139	; 0xfffffb8d
     ca8:	682e6665 	stmdavs	lr!, {r0, r2, r5, r6, r9, sl, sp, lr}
     cac:	00000200 	andeq	r0, r0, r0, lsl #4
     cb0:	6e656572 	mcrvs	5, 3, r6, cr5, cr2, {3}
     cb4:	00682e74 	rsbeq	r2, r8, r4, ror lr
     cb8:	72000001 	andvc	r0, r0, #1
     cbc:	682e6970 	stmdavs	lr!, {r4, r5, r6, r8, fp, sp, lr}
     cc0:	00000300 	andeq	r0, r0, r0, lsl #6
     cc4:	74726175 	ldrbtvc	r6, [r2], #-373	; 0xfffffe8b
     cc8:	0400682e 	streq	r6, [r0], #-2094	; 0xfffff7d2
     ccc:	70670000 	rsbvc	r0, r7, r0
     cd0:	682e6f69 	stmdavs	lr!, {r0, r3, r5, r6, r8, r9, sl, fp, sp, lr}
     cd4:	00000400 	andeq	r0, r0, r0, lsl #8
     cd8:	02050000 	andeq	r0, r5, #0
     cdc:	00008ff4 	strdeq	r8, [r0], -r4
     ce0:	67012d03 	strvs	r2, [r1, -r3, lsl #26]
     ce4:	2e0b0383 	cdpcs	3, 0, cr0, cr11, cr3, {4}
     ce8:	35686735 	strbcc	r6, [r8, #-1845]!	; 0xfffff8cb
     cec:	2e0c0368 	cdpcs	3, 0, cr0, cr12, cr8, {3}
     cf0:	69696b85 	stmdbvs	r9!, {r0, r2, r7, r8, r9, fp, sp, lr}^
     cf4:	6b660c03 	blvs	1983d08 <__bss_end__+0x197a190>
     cf8:	25082f67 	strcs	r2, [r8, #-3943]	; 0xfffff099
     cfc:	364b6834 			; <UNDEFINED> instruction: 0x364b6834
     d00:	02008768 	andeq	r8, r0, #104, 14	; 0x1a00000
     d04:	682f0104 	stmdavs	pc!, {r2, r8}	; <UNPREDICTABLE>
     d08:	0200674b 	andeq	r6, r0, #19660800	; 0x12c0000
     d0c:	684b0104 	stmdavs	fp, {r2, r8}^
     d10:	022e4c67 	eoreq	r4, lr, #26368	; 0x6700
     d14:	01010004 	tsteq	r1, r4
     d18:	00000137 	andeq	r0, r0, r7, lsr r1
     d1c:	00fc0002 	rscseq	r0, ip, r2
     d20:	01020000 	mrseq	r0, (UNDEF: 2)
     d24:	000d0efb 	strdeq	r0, [sp], -fp
     d28:	01010101 	tsteq	r1, r1, lsl #2
     d2c:	01000000 	mrseq	r0, (UNDEF: 0)
     d30:	2f010000 	svccs	0x00010000
     d34:	2f727375 	svccs	0x00727375
     d38:	2d6d7261 	sfmcs	f7, 2, [sp, #-388]!	; 0xfffffe7c
     d3c:	656e6f6e 	strbvs	r6, [lr, #-3950]!	; 0xfffff092
     d40:	6261652d 	rsbvs	r6, r1, #188743680	; 0xb400000
     d44:	6e692f69 	cdpvs	15, 6, cr2, cr9, cr9, {3}
     d48:	64756c63 	ldrbtvs	r6, [r5], #-3171	; 0xfffff39d
     d4c:	79732f65 	ldmdbvc	r3!, {r0, r2, r5, r6, r8, r9, sl, fp, sp}^
     d50:	752f0073 	strvc	r0, [pc, #-115]!	; ce5 <_start-0x731b>
     d54:	6c2f7273 	sfmvs	f7, 4, [pc], #-460	; b90 <_start-0x7470>
     d58:	672f6269 	strvs	r6, [pc, -r9, ror #4]!
     d5c:	612f6363 			; <UNDEFINED> instruction: 0x612f6363
     d60:	6e2d6d72 	mcrvs	13, 1, r6, cr13, cr2, {3}
     d64:	2d656e6f 	stclcs	14, cr6, [r5, #-444]!	; 0xfffffe44
     d68:	69626165 	stmdbvs	r2!, {r0, r2, r5, r6, r8, sp, lr}^
     d6c:	332e372f 			; <UNDEFINED> instruction: 0x332e372f
     d70:	692f312e 	stmdbvs	pc!, {r1, r2, r3, r5, r8, ip, sp}	; <UNPREDICTABLE>
     d74:	756c636e 	strbvc	r6, [ip, #-878]!	; 0xfffffc92
     d78:	2f006564 	svccs	0x00006564
     d7c:	656d6f68 	strbvs	r6, [sp, #-3944]!	; 0xfffff098
     d80:	676e652f 	strbvs	r6, [lr, -pc, lsr #10]!
     d84:	2f72656c 	svccs	0x0072656c
     d88:	73616c63 	cmnvc	r1, #25344	; 0x6300
     d8c:	73632f73 	cmnvc	r3, #460	; 0x1cc
     d90:	65303431 	ldrvs	r3, [r0, #-1073]!	; 0xfffffbcf
     d94:	7730322d 	ldrvc	r3, [r0, -sp, lsr #4]!
     d98:	6c2f6e69 	stcvs	14, cr6, [pc], #-420	; bfc <_start-0x7404>
     d9c:	69706269 	ldmdbvs	r0!, {r0, r3, r5, r6, r9, sp, lr}^
     da0:	6f682f00 	svcvs	0x00682f00
     da4:	652f656d 	strvs	r6, [pc, #-1389]!	; 83f <_start-0x77c1>
     da8:	656c676e 	strbvs	r6, [ip, #-1902]!	; 0xfffff892
     dac:	6c632f72 	stclvs	15, cr2, [r3], #-456	; 0xfffffe38
     db0:	2f737361 	svccs	0x00737361
     db4:	34317363 	ldrtcc	r7, [r1], #-867	; 0xfffffc9d
     db8:	322d6530 	eorcc	r6, sp, #48, 10	; 0xc000000
     dbc:	6e697730 	mcrvs	7, 3, r7, cr9, cr0, {1}
     dc0:	62696c2f 	rsbvs	r6, r9, #12032	; 0x2f00
     dc4:	632f6970 			; <UNDEFINED> instruction: 0x632f6970
     dc8:	30343173 	eorscc	r3, r4, r3, ror r1
     dcc:	72732d65 	rsbsvc	r2, r3, #6464	; 0x1940
     dd0:	67000063 	strvs	r0, [r0, -r3, rrx]
     dd4:	2e6f6970 			; <UNDEFINED> instruction: 0x2e6f6970
     dd8:	00000063 	andeq	r0, r0, r3, rrx
     ddc:	636f6c00 	cmnvs	pc, #0, 24
     de0:	00682e6b 	rsbeq	r2, r8, fp, ror #28
     de4:	5f000001 	svcpl	0x00000001
     de8:	65707974 	ldrbvs	r7, [r0, #-2420]!	; 0xfffff68c
     dec:	00682e73 	rsbeq	r2, r8, r3, ror lr
     df0:	73000001 	movwvc	r0, #1
     df4:	65646474 	strbvs	r6, [r4, #-1140]!	; 0xfffffb8c
     df8:	00682e66 	rsbeq	r2, r8, r6, ror #28
     dfc:	72000002 	andvc	r0, r0, #2
     e00:	746e6565 	strbtvc	r6, [lr], #-1381	; 0xfffffa9b
     e04:	0100682e 	tsteq	r0, lr, lsr #16
     e08:	70720000 	rsbsvc	r0, r2, r0
     e0c:	00682e69 	rsbeq	r2, r8, r9, ror #28
     e10:	67000003 	strvs	r0, [r0, -r3]
     e14:	2e6f6970 			; <UNDEFINED> instruction: 0x2e6f6970
     e18:	00040068 	andeq	r0, r4, r8, rrx
     e1c:	05000000 	streq	r0, [r0, #-0]
     e20:	00915402 	addseq	r5, r1, r2, lsl #8
     e24:	01270300 			; <UNDEFINED> instruction: 0x01270300
     e28:	4f474c13 	svcmi	0x00474c13
     e2c:	4c4b68f4 	mcrrmi	8, 15, r6, fp, cr4
     e30:	4b2f4c67 	blmi	bd3fd4 <__bss_end__+0xbca45c>
     e34:	31491331 	cmpcc	r9, r1, lsr r3
     e38:	49134d83 	ldmdbmi	r3, {r0, r1, r7, r8, sl, fp, lr}
     e3c:	2f4d8331 	svccs	0x004d8331
     e40:	4d2f314b 	stfmis	f3, [pc, #-300]!	; d1c <_start-0x72e4>
     e44:	134f2b2f 	movtne	r2, #64303	; 0xfb2f
     e48:	9f2f3249 	svcls	0x002f3249
     e4c:	0402322a 	streq	r3, [r2], #-554	; 0xfffffdd6
     e50:	2f010100 	svccs	0x00010100
     e54:	02000001 	andeq	r0, r0, #1
     e58:	00011400 	andeq	r1, r1, r0, lsl #8
     e5c:	fb010200 	blx	41666 <__bss_end__+0x37aee>
     e60:	01000d0e 	tsteq	r0, lr, lsl #26
     e64:	00010101 	andeq	r0, r1, r1, lsl #2
     e68:	00010000 	andeq	r0, r1, r0
     e6c:	73630100 	cmnvc	r3, #0, 2
     e70:	65303431 	ldrvs	r3, [r0, #-1073]!	; 0xfffffbcf
     e74:	6372732d 	cmnvs	r2, #-1275068416	; 0xb4000000
     e78:	73752f00 	cmnvc	r5, #0, 30
     e7c:	696c2f72 	stmdbvs	ip!, {r1, r4, r5, r6, r8, r9, sl, fp, sp}^
     e80:	63672f62 	cmnvs	r7, #392	; 0x188
     e84:	72612f63 	rsbvc	r2, r1, #396	; 0x18c
     e88:	6f6e2d6d 	svcvs	0x006e2d6d
     e8c:	652d656e 	strvs	r6, [sp, #-1390]!	; 0xfffffa92
     e90:	2f696261 	svccs	0x00696261
     e94:	2e332e36 	mrccs	14, 1, r2, cr3, cr6, {1}
     e98:	6e692f31 	mcrvs	15, 3, r2, cr9, cr1, {1}
     e9c:	64756c63 	ldrbtvs	r6, [r5], #-3171	; 0xfffff39d
     ea0:	752f0065 	strvc	r0, [pc, #-101]!	; e43 <_start-0x71bd>
     ea4:	692f7273 	stmdbvs	pc!, {r0, r1, r4, r5, r6, r9, ip, sp, lr}	; <UNPREDICTABLE>
     ea8:	756c636e 	strbvc	r6, [ip, #-878]!	; 0xfffffc92
     eac:	6e2f6564 	cfsh64vs	mvdx6, mvdx15, #52
     eb0:	696c7765 	stmdbvs	ip!, {r0, r2, r5, r6, r8, r9, sl, ip, sp, lr}^
     eb4:	79732f62 	ldmdbvc	r3!, {r1, r5, r6, r8, r9, sl, fp, sp}^
     eb8:	682f0073 	stmdavs	pc!, {r0, r1, r4, r5, r6}	; <UNPREDICTABLE>
     ebc:	2f656d6f 	svccs	0x00656d6f
     ec0:	72657375 	rsbvc	r7, r5, #-738197503	; 0xd4000001
     ec4:	7665442f 	strbtvc	r4, [r5], -pc, lsr #8
     ec8:	3153432f 	cmpcc	r3, pc, lsr #6
     ecc:	2f453034 	svccs	0x00453034
     ed0:	7062696c 	rsbvc	r6, r2, ip, ror #18
     ed4:	752f0069 	strvc	r0, [pc, #-105]!	; e73 <_start-0x718d>
     ed8:	692f7273 	stmdbvs	pc!, {r0, r1, r4, r5, r6, r9, ip, sp, lr}	; <UNPREDICTABLE>
     edc:	756c636e 	strbvc	r6, [ip, #-878]!	; 0xfffffc92
     ee0:	6e2f6564 	cfsh64vs	mvdx6, mvdx15, #52
     ee4:	696c7765 	stmdbvs	ip!, {r0, r2, r5, r6, r8, r9, sl, ip, sp, lr}^
     ee8:	63000062 	movwvs	r0, #98	; 0x62
     eec:	72746e6f 	rsbsvc	r6, r4, #1776	; 0x6f0
     ef0:	622d6c6f 	eorvs	r6, sp, #28416	; 0x6f00
     ef4:	6b636f6c 	blvs	18dccac <__bss_end__+0x18d3134>
     ef8:	0100632e 	tsteq	r0, lr, lsr #6
     efc:	74730000 	ldrbtvc	r0, [r3], #-0
     f00:	746e6964 	strbtvc	r6, [lr], #-2404	; 0xfffff69c
     f04:	6363672d 	cmnvs	r3, #11796480	; 0xb40000
     f08:	0200682e 	andeq	r6, r0, #3014656	; 0x2e0000
     f0c:	6f6c0000 	svcvs	0x006c0000
     f10:	682e6b63 	stmdavs	lr!, {r0, r1, r5, r6, r8, r9, fp, sp, lr}
     f14:	00000300 	andeq	r0, r0, r0, lsl #6
     f18:	7079745f 	rsbsvc	r7, r9, pc, asr r4
     f1c:	682e7365 	stmdavs	lr!, {r0, r2, r5, r6, r8, r9, ip, sp, lr}
     f20:	00000300 	andeq	r0, r0, r0, lsl #6
     f24:	64647473 	strbtvs	r7, [r4], #-1139	; 0xfffffb8d
     f28:	682e6665 	stmdavs	lr!, {r0, r2, r5, r6, r9, sl, sp, lr}
     f2c:	00000200 	andeq	r0, r0, r0, lsl #4
     f30:	6e656572 	mcrvs	5, 3, r6, cr5, cr2, {3}
     f34:	00682e74 	rsbeq	r2, r8, r4, ror lr
     f38:	72000003 	andvc	r0, r0, #3
     f3c:	682e6970 	stmdavs	lr!, {r4, r5, r6, r8, fp, sp, lr}
     f40:	00000400 	andeq	r0, r0, r0, lsl #8
     f44:	752d7773 	strvc	r7, [sp, #-1907]!	; 0xfffff88d
     f48:	2e747261 	cdpcs	2, 7, cr7, cr4, cr1, {3}
     f4c:	00010068 	andeq	r0, r1, r8, rrx
     f50:	6e6f6300 	cdpvs	3, 6, cr6, cr15, cr0, {0}
     f54:	6c6f7274 	sfmvs	f7, 2, [pc], #-464	; d8c <_start-0x7274>
     f58:	6f6c622d 	svcvs	0x006c622d
     f5c:	682e6b63 	stmdavs	lr!, {r0, r1, r5, r6, r8, r9, fp, sp, lr}
     f60:	00000100 	andeq	r0, r0, r0, lsl #2
     f64:	69727473 	ldmdbvs	r2!, {r0, r1, r4, r5, r6, sl, ip, sp, lr}^
     f68:	682e676e 	stmdavs	lr!, {r1, r2, r3, r5, r6, r8, r9, sl, sp, lr}
     f6c:	00000500 	andeq	r0, r0, r0, lsl #10
     f70:	02050000 	andeq	r0, r5, #0
     f74:	00009274 	andeq	r9, r0, r4, ror r2
     f78:	68833016 	stmvs	r3, {r1, r2, r4, ip, sp}
     f7c:	2fa0144c 	svccs	0x00a0144c
     f80:	0006022c 	andeq	r0, r6, ip, lsr #4
     f84:	00ca0101 	sbceq	r0, sl, r1, lsl #2
     f88:	00020000 	andeq	r0, r2, r0
     f8c:	000000b2 	strheq	r0, [r0], -r2
     f90:	0efb0102 	cdpeq	1, 15, cr0, cr11, cr2, {0}
     f94:	0101000d 	tsteq	r1, sp
     f98:	00000101 	andeq	r0, r0, r1, lsl #2
     f9c:	00000100 	andeq	r0, r0, r0, lsl #2
     fa0:	62696c01 	rsbvs	r6, r9, #256	; 0x100
     fa4:	752f0063 	strvc	r0, [pc, #-99]!	; f49 <_start-0x70b7>
     fa8:	6c2f7273 	sfmvs	f7, 4, [pc], #-460	; de4 <_start-0x721c>
     fac:	672f6269 	strvs	r6, [pc, -r9, ror #4]!
     fb0:	612f6363 			; <UNDEFINED> instruction: 0x612f6363
     fb4:	6e2d6d72 	mcrvs	13, 1, r6, cr13, cr2, {3}
     fb8:	2d656e6f 	stclcs	14, cr6, [r5, #-444]!	; 0xfffffe44
     fbc:	69626165 	stmdbvs	r2!, {r0, r2, r5, r6, r8, sp, lr}^
     fc0:	332e362f 			; <UNDEFINED> instruction: 0x332e362f
     fc4:	692f312e 	stmdbvs	pc!, {r1, r2, r3, r5, r8, ip, sp}	; <UNPREDICTABLE>
     fc8:	756c636e 	strbvc	r6, [ip, #-878]!	; 0xfffffc92
     fcc:	2f006564 	svccs	0x00006564
     fd0:	2f727375 	svccs	0x00727375
     fd4:	6c636e69 	stclvs	14, cr6, [r3], #-420	; 0xfffffe5c
     fd8:	2f656475 	svccs	0x00656475
     fdc:	6c77656e 	cfldr64vs	mvdx6, [r7], #-440	; 0xfffffe48
     fe0:	732f6269 			; <UNDEFINED> instruction: 0x732f6269
     fe4:	2f007379 	svccs	0x00007379
     fe8:	2f727375 	svccs	0x00727375
     fec:	6c636e69 	stclvs	14, cr6, [r3], #-420	; 0xfffffe5c
     ff0:	2f656475 	svccs	0x00656475
     ff4:	6c77656e 	cfldr64vs	mvdx6, [r7], #-440	; 0xfffffe48
     ff8:	00006269 	andeq	r6, r0, r9, ror #4
     ffc:	736d656d 	cmnvc	sp, #457179136	; 0x1b400000
    1000:	632e7465 			; <UNDEFINED> instruction: 0x632e7465
    1004:	00000100 	andeq	r0, r0, r0, lsl #2
    1008:	64647473 	strbtvs	r7, [r4], #-1139	; 0xfffffb8d
    100c:	682e6665 	stmdavs	lr!, {r0, r2, r5, r6, r9, sl, sp, lr}
    1010:	00000200 	andeq	r0, r0, r0, lsl #4
    1014:	6b636f6c 	blvs	18dcdcc <__bss_end__+0x18d3254>
    1018:	0300682e 	movweq	r6, #2094	; 0x82e
    101c:	745f0000 	ldrbvc	r0, [pc], #-0	; 1024 <_start-0x6fdc>
    1020:	73657079 	cmnvc	r5, #121	; 0x79
    1024:	0300682e 	movweq	r6, #2094	; 0x82e
    1028:	65720000 	ldrbvs	r0, [r2, #-0]!
    102c:	2e746e65 	cdpcs	14, 7, cr6, cr4, cr5, {3}
    1030:	00030068 	andeq	r0, r3, r8, rrx
    1034:	72747300 	rsbsvc	r7, r4, #0, 6
    1038:	2e676e69 	cdpcs	14, 6, cr6, cr7, cr9, {3}
    103c:	00040068 	andeq	r0, r4, r8, rrx
    1040:	05000000 	streq	r0, [r0, #-0]
    1044:	0092c402 	addseq	ip, r2, r2, lsl #8
    1048:	4c131400 	cfldrsmi	mvf1, [r3], {-0}
    104c:	024d492f 	subeq	r4, sp, #770048	; 0xbc000
    1050:	01010002 	tsteq	r1, r2

Disassembly of section .debug_str:

00000000 <.debug_str>:
   0:	6f73645f 	svcvs	0x0073645f
   4:	6e61685f 	mcrvs	8, 3, r6, cr1, cr15, {2}
   8:	00656c64 	rsbeq	r6, r5, r4, ror #24
   c:	20554e47 	subscs	r4, r5, r7, asr #28
  10:	20393943 	eorscs	r3, r9, r3, asr #18
  14:	2e332e36 	mrccs	14, 1, r2, cr3, cr6, {1}
  18:	30322031 	eorscc	r2, r2, r1, lsr r0
  1c:	36303731 			; <UNDEFINED> instruction: 0x36303731
  20:	2d203032 	stccs	0, cr3, [r0, #-200]!	; 0xffffff38
  24:	7570636d 	ldrbvc	r6, [r0, #-877]!	; 0xfffffc93
  28:	6d72613d 	ldfvse	f6, [r2, #-244]!	; 0xffffff0c
  2c:	36373131 			; <UNDEFINED> instruction: 0x36373131
  30:	2d667a6a 	vstmdbcs	r6!, {s15-s120}
  34:	6d2d2073 	stcvs	0, cr2, [sp, #-460]!	; 0xfffffe34
  38:	656e7574 	strbvs	r7, [lr, #-1396]!	; 0xfffffa8c
  3c:	6d72613d 	ldfvse	f6, [r2, #-244]!	; 0xffffff0c
  40:	36373131 			; <UNDEFINED> instruction: 0x36373131
  44:	2d667a6a 	vstmdbcs	r6!, {s15-s120}
  48:	672d2073 			; <UNDEFINED> instruction: 0x672d2073
  4c:	20626467 	rsbcs	r6, r2, r7, ror #8
  50:	20674f2d 	rsbcs	r4, r7, sp, lsr #30
  54:	6474732d 	ldrbtvs	r7, [r4], #-813	; 0xfffffcd3
  58:	756e673d 	strbvc	r6, [lr, #-1853]!	; 0xfffff8c3
  5c:	2d203939 			; <UNDEFINED> instruction: 0x2d203939
  60:	65726666 	ldrbvs	r6, [r2, #-1638]!	; 0xfffff99a
  64:	61747365 	cmnvs	r4, r5, ror #6
  68:	6e69646e 	cdpvs	4, 6, cr6, cr9, cr14, {3}
  6c:	662d2067 	strtvs	r2, [sp], -r7, rrx
  70:	67696c61 	strbvs	r6, [r9, -r1, ror #24]!
  74:	75662d6e 	strbvc	r2, [r6, #-3438]!	; 0xfffff292
  78:	6974636e 	ldmdbvs	r4!, {r1, r2, r3, r5, r6, r8, r9, sp, lr}^
  7c:	3d736e6f 	ldclcc	14, cr6, [r3, #-444]!	; 0xfffffe44
  80:	735f0034 	cmpvc	pc, #52	; 0x34
  84:	00657a69 	rsbeq	r7, r5, r9, ror #20
  88:	6e61725f 	mcrvs	2, 3, r7, cr1, cr15, {2}
  8c:	00383464 	eorseq	r3, r8, r4, ror #8
  90:	656d655f 	strbvs	r6, [sp, #-1375]!	; 0xfffffaa1
  94:	6e656772 	mcrvs	7, 3, r6, cr5, cr2, {3}
  98:	6e007963 	vmlsvs.f16	s14, s0, s7	; <UNPREDICTABLE>
  9c:	616d746f 	cmnvs	sp, pc, ror #8
  a0:	75006e69 	strvc	r6, [r0, #-3689]	; 0xfffff197
  a4:	5f747261 	svcpl	0x00747261
  a8:	74696e69 	strbtvc	r6, [r9], #-3689	; 0xfffff197
  ac:	63775f00 	cmnvs	r7, #0, 30
  b0:	6d6f7472 	cfstrdvs	mvd7, [pc, #-456]!	; fffffef0 <__bss_end__+0xffff6378>
  b4:	74735f62 	ldrbtvc	r5, [r3], #-3938	; 0xfffff09e
  b8:	00657461 	rsbeq	r7, r5, r1, ror #8
  bc:	7363775f 	cmnvc	r3, #24903680	; 0x17c0000
  c0:	6d6f7472 	cfstrdvs	mvd7, [pc, #-456]!	; ffffff00 <__bss_end__+0xffff6388>
  c4:	735f7362 	cmpvc	pc, #-2013265919	; 0x88000001
  c8:	65746174 	ldrbvs	r6, [r4, #-372]!	; 0xfffffe8c
  cc:	6e6f6c00 	cdpvs	12, 6, cr6, cr15, cr0, {0}
  d0:	6f6c2067 	svcvs	0x006c2067
  d4:	7520676e 	strvc	r6, [r0, #-1902]!	; 0xfffff892
  d8:	6769736e 	strbvs	r7, [r9, -lr, ror #6]!
  dc:	2064656e 	rsbcs	r6, r4, lr, ror #10
  e0:	00746e69 	rsbseq	r6, r4, r9, ror #28
  e4:	66626c5f 			; <UNDEFINED> instruction: 0x66626c5f
  e8:	657a6973 	ldrbvs	r6, [sl, #-2419]!	; 0xfffff68d
  ec:	626d5f00 	rsbvs	r5, sp, #0, 30
  f0:	776f7472 			; <UNDEFINED> instruction: 0x776f7472
  f4:	74735f63 	ldrbtvc	r5, [r3], #-3939	; 0xfffff09d
  f8:	00657461 	rsbeq	r7, r5, r1, ror #8
  fc:	7463775f 	strbtvc	r7, [r3], #-1887	; 0xfffff8a1
 100:	5f626d6f 	svcpl	0x00626d6f
 104:	74617473 	strbtvc	r7, [r1], #-1139	; 0xfffffb8d
 108:	5f5f0065 	svcpl	0x005f0065
 10c:	735f6d74 	cmpvc	pc, #116, 26	; 0x1d00
 110:	6c006365 	stcvs	3, cr6, [r0], {101}	; 0x65
 114:	20676e6f 	rsbcs	r6, r7, pc, ror #28
 118:	676e6f6c 	strbvs	r6, [lr, -ip, ror #30]!
 11c:	746e6920 	strbtvc	r6, [lr], #-2336	; 0xfffff6e0
 120:	76656400 	strbtvc	r6, [r5], -r0, lsl #8
 124:	6464615f 	strbtvs	r6, [r4], #-351	; 0xfffffea1
 128:	755f0072 	ldrbvc	r0, [pc, #-114]	; be <_start-0x7f42>
 12c:	00667562 	rsbeq	r7, r6, r2, ror #10
 130:	7361625f 	cmnvc	r1, #-268435451	; 0xf0000005
 134:	5f5f0065 	svcpl	0x005f0065
 138:	685f6d74 	ldmdavs	pc, {r2, r4, r5, r6, r8, sl, fp, sp, lr}^	; <UNPREDICTABLE>
 13c:	0072756f 	rsbseq	r7, r2, pc, ror #10
 140:	66735f5f 	uhsaxvs	r5, r3, pc	; <UNPREDICTABLE>
 144:	6e6f5f00 	cdpvs	15, 6, cr5, cr15, cr0, {0}
 148:	6978655f 	ldmdbvs	r8!, {r0, r1, r2, r3, r4, r6, r8, sl, sp, lr}^
 14c:	72615f74 	rsbvc	r5, r1, #116, 30	; 0x1d0
 150:	5f007367 	svcpl	0x00007367
 154:	6b6f6f63 	blvs	1bdbee8 <__bss_end__+0x1bd2370>
 158:	5f006569 	svcpl	0x00006569
 15c:	6c67735f 	stclvs	3, cr7, [r7], #-380	; 0xfffffe84
 160:	5f006575 	svcpl	0x00006575
 164:	67616c66 	strbvs	r6, [r1, -r6, ror #24]!
 168:	695f0073 	ldmdbvs	pc, {r0, r1, r4, r5, r6}^	; <UNPREDICTABLE>
 16c:	78635f73 	stmdavc	r3!, {r0, r1, r4, r5, r6, r8, r9, sl, fp, ip, lr}^
 170:	735f0061 	cmpvc	pc, #97	; 0x61
 174:	6e696474 	mcrvs	4, 3, r6, cr9, cr4, {3}
 178:	6c625f00 	stclvs	15, cr5, [r2], #-0
 17c:	7a69736b 	bvc	1a5cf30 <__bss_end__+0x1a533b8>
 180:	69750065 	ldmdbvs	r5!, {r0, r2, r5, r6}^
 184:	3631746e 	ldrtcc	r7, [r1], -lr, ror #8
 188:	5f00745f 	svcpl	0x0000745f
 18c:	62747663 	rsbsvs	r7, r4, #103809024	; 0x6300000
 190:	5f006675 	svcpl	0x00006675
 194:	7366666f 	cmnvc	r6, #116391936	; 0x6f00000
 198:	5f007465 	svcpl	0x00007465
 19c:	7273626d 	rsbsvc	r6, r3, #-805306362	; 0xd0000006
 1a0:	63776f74 	cmnvs	r7, #116, 30	; 0x1d0
 1a4:	74735f73 	ldrbtvc	r5, [r3], #-3955	; 0xfffff08d
 1a8:	00657461 	rsbeq	r7, r5, r1, ror #8
 1ac:	72626d5f 	rsbvc	r6, r2, #6080	; 0x17c0
 1b0:	5f6e656c 	svcpl	0x006e656c
 1b4:	74617473 	strbtvc	r7, [r1], #-1139	; 0xfffffb8d
 1b8:	665f0065 	ldrbvs	r0, [pc], -r5, rrx
 1bc:	6772616e 	ldrbvs	r6, [r2, -lr, ror #2]!
 1c0:	665f0073 			; <UNDEFINED> instruction: 0x665f0073
 1c4:	5f00736e 	svcpl	0x0000736e
 1c8:	6e676973 			; <UNDEFINED> instruction: 0x6e676973
 1cc:	6c665f00 	stclvs	15, cr5, [r6], #-0
 1d0:	5f6b636f 	svcpl	0x006b636f
 1d4:	735f0074 	cmpvc	pc, #116	; 0x74
 1d8:	72656474 	rsbvc	r6, r5, #116, 8	; 0x74000000
 1dc:	425f0072 	subsmi	r0, pc, #114	; 0x72
 1e0:	6e696769 	cdpvs	7, 6, cr6, cr9, cr9, {3}
 1e4:	675f0074 			; <UNDEFINED> instruction: 0x675f0074
 1e8:	616d6d61 	cmnvs	sp, r1, ror #26
 1ec:	6769735f 			; <UNDEFINED> instruction: 0x6769735f
 1f0:	6d61676e 	stclvs	7, cr6, [r1, #-440]!	; 0xfffffe48
 1f4:	65725f00 	ldrbvs	r5, [r2, #-3840]!	; 0xfffff100
 1f8:	746c7573 	strbtvc	r7, [ip], #-1395	; 0xfffffa8d
 1fc:	72006b5f 	andvc	r6, r0, #97280	; 0x17c00
 200:	705f6970 	subsvc	r6, pc, r0, ror r9	; <UNPREDICTABLE>
 204:	68637475 	stmdavs	r3!, {r0, r2, r4, r5, r6, sl, ip, sp, lr}^
 208:	5f007261 	svcpl	0x00007261
 20c:	006d745f 	rsbeq	r7, sp, pc, asr r4
 210:	5f633269 	svcpl	0x00633269
 214:	74696e69 	strbtvc	r6, [r9], #-3689	; 0xfffff197
 218:	775f5f00 	ldrbvc	r5, [pc, -r0, lsl #30]
 21c:	00626863 	rsbeq	r6, r2, r3, ror #16
 220:	5f697072 	svcpl	0x00697072
 224:	65736572 	ldrbvs	r6, [r3, #-1394]!	; 0xfffffa8e
 228:	75705f74 	ldrbvc	r5, [r0, #-3956]!	; 0xfffff08c
 22c:	5f006374 	svcpl	0x00006374
 230:	6f647473 	svcvs	0x00647473
 234:	5f007475 	svcpl	0x00007475
 238:	6c747663 	ldclvs	6, cr7, [r4], #-396	; 0xfffffe74
 23c:	5f006e65 	svcpl	0x00006e65
 240:	656c6966 	strbvs	r6, [ip, #-2406]!	; 0xfffff69a
 244:	465f5f00 	ldrbmi	r5, [pc], -r0, lsl #30
 248:	54434e55 	strbpl	r4, [r3], #-3669	; 0xfffff1ab
 24c:	5f4e4f49 	svcpl	0x004e4f49
 250:	6e5f005f 	mrcvs	0, 2, r0, cr15, cr15, {2}
 254:	73626f69 	cmnvc	r2, #420	; 0x1a4
 258:	63646100 	cmnvs	r4, #0, 2
 25c:	35313131 	ldrcc	r3, [r1, #-305]!	; 0xfffffecf
 260:	7300632e 	movwvc	r6, #814	; 0x32e
 264:	74726f68 	ldrbtvc	r6, [r2], #-3944	; 0xfffff098
 268:	736e7520 	cmnvc	lr, #32, 10	; 0x8000000
 26c:	656e6769 	strbvs	r6, [lr, #-1897]!	; 0xfffff897
 270:	6e692064 	cdpvs	0, 6, cr2, cr9, cr4, {3}
 274:	615f0074 	cmpvs	pc, r4, ror r0	; <UNPREDICTABLE>
 278:	69786574 	ldmdbvs	r8!, {r2, r4, r5, r6, r8, sl, sp, lr}^
 27c:	5f003074 	svcpl	0x00003074
 280:	6e676973 			; <UNDEFINED> instruction: 0x6e676973
 284:	625f6c61 	subsvs	r6, pc, #24832	; 0x6100
 288:	5f006675 	svcpl	0x00006675
 28c:	74637361 	strbtvc	r7, [r3], #-865	; 0xfffffc9f
 290:	5f656d69 	svcpl	0x00656d69
 294:	00667562 	rsbeq	r7, r6, r2, ror #10
 298:	5f633269 	svcpl	0x00633269
 29c:	74697277 	strbtvc	r7, [r9], #-631	; 0xfffffd89
 2a0:	725f0065 	subsvc	r0, pc, #101	; 0x65
 2a4:	6c757365 	ldclvs	3, cr7, [r5], #-404	; 0xfffffe6c
 2a8:	5f5f0074 	svcpl	0x005f0074
 2ac:	00686377 	rsbeq	r6, r8, r7, ror r3
 2b0:	746e6977 	strbtvc	r6, [lr], #-2423	; 0xfffff689
 2b4:	6100745f 	tstvs	r0, pc, asr r4
 2b8:	725f6364 	subsvc	r6, pc, #100, 6	; 0x90000001
 2bc:	74657365 	strbtvc	r7, [r5], #-869	; 0xfffffc9b
 2c0:	6c665f00 	stclvs	15, cr5, [r6], #-0
 2c4:	32736761 	rsbscc	r6, r3, #25427968	; 0x1840000
 2c8:	6e6f6300 	cdpvs	3, 6, cr6, cr15, cr0, {0}
 2cc:	73726576 	cmnvc	r2, #494927872	; 0x1d800000
 2d0:	5f6e6f69 	svcpl	0x006e6f69
 2d4:	00676572 	rsbeq	r6, r7, r2, ror r5
 2d8:	6d745f5f 	ldclvs	15, cr5, [r4, #-380]!	; 0xfffffe84
 2dc:	6165795f 	cmnvs	r5, pc, asr r9
 2e0:	6c630072 	stclvs	0, cr0, [r3], #-456	; 0xfffffe38
 2e4:	5f6e6165 	svcpl	0x006e6165
 2e8:	6f626572 	svcvs	0x00626572
 2ec:	5f00746f 	svcpl	0x0000746f
 2f0:	6c616d6e 	stclvs	13, cr6, [r1], #-440	; 0xfffffe48
 2f4:	00636f6c 	rsbeq	r6, r3, ip, ror #30
 2f8:	657a6973 	ldrbvs	r6, [sl, #-2419]!	; 0xfffff68d
 2fc:	65707974 	ldrbvs	r7, [r0, #-2420]!	; 0xfffff68c
 300:	63646100 	cmnvs	r4, #0, 2
 304:	6165725f 	cmnvs	r5, pc, asr r2
 308:	00363164 	eorseq	r3, r6, r4, ror #2
 30c:	78656e5f 	stmdavc	r5!, {r0, r1, r2, r3, r4, r6, r9, sl, fp, sp, lr}^
 310:	5f006674 	svcpl	0x00006674
 314:	5f6d745f 	svcpl	0x006d745f
 318:	006e6f6d 	rsbeq	r6, lr, sp, ror #30
 31c:	6574615f 	ldrbvs	r6, [r4, #-351]!	; 0xfffffea1
 320:	00746978 	rsbseq	r6, r4, r8, ror r9
 324:	64735f5f 	ldrbtvs	r5, [r3], #-3935	; 0xfffff0a1
 328:	6e696469 	cdpvs	4, 6, cr6, cr9, cr9, {3}
 32c:	5f007469 	svcpl	0x00007469
 330:	5f66666f 	svcpl	0x0066666f
 334:	665f0074 			; <UNDEFINED> instruction: 0x665f0074
 338:	6c656572 	cfstr64vs	mvdx6, [r5], #-456	; 0xfffffe38
 33c:	00747369 	rsbseq	r7, r4, r9, ror #6
 340:	434f4c5f 	movtmi	r4, #64607	; 0xfc5f
 344:	45525f4b 	ldrbmi	r5, [r2, #-3915]	; 0xfffff0b5
 348:	53525543 	cmppl	r2, #281018368	; 0x10c00000
 34c:	5f455649 	svcpl	0x00455649
 350:	6e750054 	mrcvs	0, 3, r0, cr5, cr4, {2}
 354:	6e676973 			; <UNDEFINED> instruction: 0x6e676973
 358:	63206465 			; <UNDEFINED> instruction: 0x63206465
 35c:	00726168 	rsbseq	r6, r2, r8, ror #2
 360:	655f685f 	ldrbvs	r6, [pc, #-2143]	; fffffb09 <__bss_end__+0xffff5f91>
 364:	6f6e7272 	svcvs	0x006e7272
 368:	6f687300 	svcvs	0x00687300
 36c:	69207472 	stmdbvs	r0!, {r1, r4, r5, r6, sl, ip, sp, lr}
 370:	5f00746e 	svcpl	0x0000746e
 374:	5f6d745f 	svcpl	0x006d745f
 378:	79616479 	stmdbvc	r1!, {r0, r3, r4, r5, r6, sl, sp, lr}^
 37c:	735f5f00 	cmpvc	pc, #0, 30
 380:	00667562 	rsbeq	r7, r6, r2, ror #10
 384:	626f695f 	rsbvs	r6, pc, #1556480	; 0x17c000
 388:	5f5f0073 	svcpl	0x005f0073
 38c:	454c4946 	strbmi	r4, [ip, #-2374]	; 0xfffff6ba
 390:	626d5f00 	rsbvs	r5, sp, #0, 30
 394:	74617473 	strbtvc	r7, [r1], #-1139	; 0xfffffb8d
 398:	00745f65 	rsbseq	r5, r4, r5, ror #30
 39c:	46735f5f 	uhsaxmi	r5, r3, pc	; <UNPREDICTABLE>
 3a0:	00454c49 	subeq	r4, r5, r9, asr #24
 3a4:	73626d5f 	cmnvc	r2, #6080	; 0x17c0
 3a8:	65746174 	ldrbvs	r6, [r4, #-372]!	; 0xfffffe8c
 3ac:	61725f00 	cmnvs	r2, r0, lsl #30
 3b0:	6e5f646e 	cdpvs	4, 5, cr6, cr15, cr14, {3}
 3b4:	00747865 	rsbseq	r7, r4, r5, ror #16
 3b8:	6c626d5f 	stclvs	13, cr6, [r2], #-380	; 0xfffffe84
 3bc:	735f6e65 	cmpvc	pc, #1616	; 0x650
 3c0:	65746174 	ldrbvs	r6, [r4, #-372]!	; 0xfffffe8c
 3c4:	6e695f00 	cdpvs	15, 6, cr5, cr9, cr0, {0}
 3c8:	695f0063 	ldmdbvs	pc, {r0, r1, r5, r6}^	; <UNPREDICTABLE>
 3cc:	5f00646e 	svcpl	0x0000646e
 3d0:	72727563 	rsbsvc	r7, r2, #415236096	; 0x18c00000
 3d4:	5f746e65 	svcpl	0x00746e65
 3d8:	61636f6c 	cmnvs	r3, ip, ror #30
 3dc:	5f00656c 	svcpl	0x0000656c
 3e0:	656c635f 	strbvs	r6, [ip, #-863]!	; 0xfffffca1
 3e4:	70756e61 	rsbsvc	r6, r5, r1, ror #28
 3e8:	616d5f00 	cmnvs	sp, r0, lsl #30
 3ec:	73647778 	cmnvc	r4, #120, 14	; 0x1e00000
 3f0:	65725f00 	ldrbvs	r5, [r2, #-3840]!	; 0xfffff100
 3f4:	00746e65 	rsbseq	r6, r4, r5, ror #28
 3f8:	6565735f 	strbvs	r7, [r5, #-863]!	; 0xfffffca1
 3fc:	65640064 	strbvs	r0, [r4, #-100]!	; 0xffffff9c
 400:	5f79616c 	svcpl	0x0079616c
 404:	5f00736d 	svcpl	0x0000736d
 408:	756f635f 	strbvc	r6, [pc, #-863]!	; b1 <_start-0x7f4f>
 40c:	5f00746e 	svcpl	0x0000746e
 410:	6c61765f 	stclvs	6, cr7, [r1], #-380	; 0xfffffe84
 414:	5f006575 	svcpl	0x00006575
 418:	6b656573 	blvs	19599ec <__bss_end__+0x194fe74>
 41c:	70665f00 	rsbvc	r5, r6, r0, lsl #30
 420:	745f736f 	ldrbvc	r7, [pc], #-879	; 428 <_start-0x7bd8>
 424:	745f5f00 	ldrbvc	r5, [pc], #-3840	; 42c <_start-0x7bd4>
 428:	696d5f6d 	stmdbvs	sp!, {r0, r2, r3, r5, r6, r8, r9, sl, fp, ip, lr}^
 42c:	6564006e 	strbvs	r0, [r4, #-110]!	; 0xffffff92
 430:	5f79616c 	svcpl	0x0079616c
 434:	75007375 	strvc	r7, [r0, #-885]	; 0xfffffc8b
 438:	38746e69 	ldmdacc	r4!, {r0, r3, r5, r6, r9, sl, fp, sp, lr}^
 43c:	5f00745f 	svcpl	0x0000745f
 440:	746c756d 	strbtvc	r7, [ip], #-1389	; 0xfffffa93
 444:	63646100 	cmnvs	r4, #0, 2
 448:	6972775f 	ldmdbvs	r2!, {r0, r1, r2, r3, r4, r6, r8, r9, sl, ip, sp, lr}^
 44c:	36316574 			; <UNDEFINED> instruction: 0x36316574
 450:	74735f00 	ldrbtvc	r5, [r3], #-3840	; 0xfffff100
 454:	6b6f7472 	blvs	1bdd624 <__bss_end__+0x1bd3aac>
 458:	73616c5f 	cmnvc	r1, #24320	; 0x5f00
 45c:	665f0074 			; <UNDEFINED> instruction: 0x665f0074
 460:	7079746e 	rsbsvc	r7, r9, lr, ror #8
 464:	5f007365 	svcpl	0x00007365
 468:	00646461 	rsbeq	r6, r4, r1, ror #8
 46c:	4c555f5f 	mrrcmi	15, 5, r5, r5, cr15	; <UNPREDICTABLE>
 470:	00676e6f 	rsbeq	r6, r7, pc, ror #28
 474:	7465675f 	strbtvc	r6, [r5], #-1887	; 0xfffff8a1
 478:	65746164 	ldrbvs	r6, [r4, #-356]!	; 0xfffffe9c
 47c:	7272655f 	rsbsvc	r6, r2, #398458880	; 0x17c00000
 480:	6c675f00 	stclvs	15, cr5, [r7], #-0
 484:	6c61626f 	sfmvs	f6, 2, [r1], #-444	; 0xfffffe44
 488:	706d695f 	rsbvc	r6, sp, pc, asr r9
 48c:	5f657275 	svcpl	0x00657275
 490:	00727470 	rsbseq	r7, r2, r0, ror r4
 494:	7275635f 	rsbsvc	r6, r5, #2080374785	; 0x7c000001
 498:	746e6572 	strbtvc	r6, [lr], #-1394	; 0xfffffa8e
 49c:	7461635f 	strbtvc	r6, [r1], #-863	; 0xfffffca1
 4a0:	726f6765 	rsbvc	r6, pc, #26476544	; 0x1940000
 4a4:	755f0079 	ldrbvc	r0, [pc, #-121]	; 433 <_start-0x7bcd>
 4a8:	6573756e 	ldrbvs	r7, [r3, #-1390]!	; 0xfffffa92
 4ac:	61725f64 	cmnvs	r2, r4, ror #30
 4b0:	6900646e 	stmdbvs	r0, {r1, r2, r3, r5, r6, sl, sp, lr}
 4b4:	725f6332 	subsvc	r6, pc, #-939524096	; 0xc8000000
 4b8:	00646165 	rsbeq	r6, r4, r5, ror #2
 4bc:	7364775f 	cmnvc	r4, #24903680	; 0x17c0000
 4c0:	745f5f00 	ldrbvc	r5, [pc], #-3840	; 4c8 <_start-0x7b38>
 4c4:	64775f6d 	ldrbtvs	r5, [r7], #-3949	; 0xfffff093
 4c8:	5f007961 	svcpl	0x00007961
 4cc:	65756c67 	ldrbvs	r6, [r5, #-3175]!	; 0xfffff399
 4d0:	6f682f00 	svcvs	0x00682f00
 4d4:	752f656d 	strvc	r6, [pc, #-1389]!	; ffffff6f <__bss_end__+0xffff63f7>
 4d8:	2f726573 	svccs	0x00726573
 4dc:	2f766544 	svccs	0x00766544
 4e0:	34325343 	ldrtcc	r5, [r2], #-835	; 0xfffffcbd
 4e4:	6c2f5830 	stcvs	8, cr5, [pc], #-192	; 42c <_start-0x7bd4>
 4e8:	2f736261 	svccs	0x00736261
 4ec:	32692d39 	rsbcc	r2, r9, #3648	; 0xe40
 4f0:	72642d63 	rsbvc	r2, r4, #6336	; 0x18c0
 4f4:	72657669 	rsbvc	r7, r5, #110100480	; 0x6900000
 4f8:	646f632f 	strbtvs	r6, [pc], #-815	; 500 <_start-0x7b00>
 4fc:	6c5f0065 	mrrcvs	0, 6, r0, pc, cr5	; <UNPREDICTABLE>
 500:	5f613436 	svcpl	0x00613436
 504:	00667562 	rsbeq	r7, r6, r2, ror #10
 508:	6769735f 			; <UNDEFINED> instruction: 0x6769735f
 50c:	6e75665f 	mrcvs	6, 3, r6, cr5, cr15, {2}
 510:	6f630063 	svcvs	0x00630063
 514:	6769666e 	strbvs	r6, [r9, -lr, ror #12]!
 518:	6765725f 			; <UNDEFINED> instruction: 0x6765725f
 51c:	626e5f00 	rsbvs	r5, lr, #0, 30
 520:	5f006675 	svcpl	0x00006675
 524:	73756e75 	cmnvc	r5, #1872	; 0x750
 528:	5f006465 	svcpl	0x00006465
 52c:	5f6d745f 	svcpl	0x006d745f
 530:	73647369 	cmnvc	r4, #-1543503871	; 0xa4000001
 534:	6c5f0074 	mrrcvs	0, 7, r0, pc, cr4	; <UNPREDICTABLE>
 538:	6c61636f 	stclvs	3, cr6, [r1], #-444	; 0xfffffe44
 53c:	656d6974 	strbvs	r6, [sp, #-2420]!	; 0xfffff68c
 540:	6675625f 			; <UNDEFINED> instruction: 0x6675625f
 544:	6c635f00 	stclvs	15, cr5, [r3], #-0
 548:	0065736f 	rsbeq	r7, r5, pc, ror #6
 54c:	3834725f 	ldmdacc	r4!, {r0, r1, r2, r3, r4, r6, r9, ip, sp, lr}
 550:	626d5f00 	rsbvs	r5, sp, #0, 30
 554:	63776f74 	cmnvs	r7, #116, 30	; 0x1d0
 558:	6174735f 	cmnvs	r4, pc, asr r3
 55c:	5f006574 	svcpl	0x00006574
 560:	00733570 	rsbseq	r3, r3, r0, ror r5
 564:	6d745f5f 	ldclvs	15, cr5, [r4, #-380]!	; 0xfffffe84
 568:	61646d5f 	cmnvs	r4, pc, asr sp
 56c:	5f730079 	svcpl	0x00730079
 570:	69676572 	stmdbvs	r7!, {r1, r4, r5, r6, r8, sl, sp, lr}^
 574:	72657473 	rsbvc	r7, r5, #1929379840	; 0x73000000
 578:	49505200 	ldmdbmi	r0, {r9, ip, lr}^
 57c:	6332695f 	teqvs	r2, #1556480	; 0x17c000
 580:	6e6f6400 	cdpvs	4, 6, cr6, cr15, cr0, {0}
 584:	69660065 	stmdbvs	r6!, {r0, r2, r5, r6}^
 588:	47006f66 	strmi	r6, [r0, -r6, ror #30]
 58c:	5f4f4950 	svcpl	0x004f4950
 590:	434e5546 	movtmi	r5, #58694	; 0xe546
 594:	504e495f 	subpl	r4, lr, pc, asr r9
 598:	69005455 	stmdbvs	r0, {r0, r2, r4, r6, sl, ip, lr}
 59c:	695f6332 	ldmdbvs	pc, {r1, r4, r5, r8, r9, sp, lr}^	; <UNPREDICTABLE>
 5a0:	6e695f73 	mcrvs	15, 3, r5, cr9, cr3, {3}
 5a4:	61697469 	cmnvs	r9, r9, ror #8
 5a8:	657a696c 	ldrbvs	r6, [sl, #-2412]!	; 0xfffff694
 5ac:	50470064 	subpl	r0, r7, r4, rrx
 5b0:	465f4f49 	ldrbmi	r4, [pc], -r9, asr #30
 5b4:	5f434e55 	svcpl	0x00434e55
 5b8:	31544c41 	cmpcc	r4, r1, asr #24
 5bc:	755f5f00 	ldrbvc	r5, [pc, #-3840]	; fffff6c4 <__bss_end__+0xffff5b4c>
 5c0:	6573756e 	ldrbvs	r7, [r3, #-1390]!	; 0xfffffa92
 5c4:	63003164 	movwvs	r3, #356	; 0x164
 5c8:	6b636f6c 	blvs	18dc380 <__bss_end__+0x18d2808>
 5cc:	7274735f 	rsbsvc	r7, r4, #2080374785	; 0x7c000001
 5d0:	68637465 	stmdavs	r3!, {r0, r2, r5, r6, sl, ip, sp, lr}^
 5d4:	6d69745f 	cfstrdvs	mvd7, [r9, #-380]!	; 0xfffffe84
 5d8:	74756f65 	ldrbtvc	r6, [r5], #-3941	; 0xfffff09b
 5dc:	69706700 	ldmdbvs	r0!, {r8, r9, sl, sp, lr}^
 5e0:	65735f6f 	ldrbvs	r5, [r3, #-3951]!	; 0xfffff091
 5e4:	75665f74 	strbvc	r5, [r6, #-3956]!	; 0xfffff08c
 5e8:	6974636e 	ldmdbvs	r4!, {r1, r2, r3, r5, r6, r8, r9, sp, lr}^
 5ec:	5f006e6f 	svcpl	0x00006e6f
 5f0:	756e755f 	strbvc	r7, [lr, #-1375]!	; 0xfffffaa1
 5f4:	30646573 	rsbcc	r6, r4, r3, ror r5
 5f8:	755f5f00 	ldrbvc	r5, [pc, #-3840]	; fffff700 <__bss_end__+0xffff5b88>
 5fc:	6573756e 	ldrbvs	r7, [r3, #-1390]!	; 0xfffffa92
 600:	64003264 	strvs	r3, [r0], #-612	; 0xfffffd9c
 604:	625f7665 	subsvs	r7, pc, #105906176	; 0x6500000
 608:	69727261 	ldmdbvs	r2!, {r0, r5, r6, r9, ip, sp, lr}^
 60c:	5f007265 	svcpl	0x00007265
 610:	756e755f 	strbvc	r7, [lr, #-1375]!	; 0xfffffaa1
 614:	33646573 	cmncc	r4, #482344960	; 0x1cc00000
 618:	69687300 	stmdbvs	r8!, {r8, r9, ip, sp, lr}^
 61c:	69007466 	stmdbvs	r0, {r1, r2, r5, r6, sl, ip, sp, lr}
 620:	632e6332 			; <UNDEFINED> instruction: 0x632e6332
 624:	61657200 	cmnvs	r5, r0, lsl #4
 628:	00635f64 	rsbeq	r5, r3, r4, ror #30
 62c:	64616572 	strbtvs	r6, [r1], #-1394	; 0xfffffa8e
 630:	2f00735f 	svccs	0x0000735f
 634:	656d6f68 	strbvs	r6, [sp, #-3944]!	; 0xfffff098
 638:	676e652f 	strbvs	r6, [lr, -pc, lsr #10]!
 63c:	2f72656c 	svccs	0x0072656c
 640:	73616c63 	cmnvc	r1, #25344	; 0x6300
 644:	73632f73 	cmnvc	r3, #460	; 0x1cc
 648:	6c303432 	cfldrsvs	mvf3, [r0], #-200	; 0xffffff38
 64c:	30322d78 	eorscc	r2, r2, r8, ror sp
 650:	2f727073 	svccs	0x00727073
 654:	7362616c 	cmnvc	r2, #108, 2
 658:	692d392f 	pushvs	{r0, r1, r2, r3, r5, r8, fp, ip, sp}
 65c:	642d6332 	strtvs	r6, [sp], #-818	; 0xfffffcce
 660:	65766972 	ldrbvs	r6, [r6, #-2418]!	; 0xfffff68e
 664:	6f632f72 	svcvs	0x00632f72
 668:	72006564 	andvc	r6, r0, #100, 10	; 0x19000000
 66c:	5f646165 	svcpl	0x00646165
 670:	6e690070 	mcrvs	0, 3, r0, cr9, cr0, {3}
 674:	61697469 	cmnvs	r9, r9, ror #8
 678:	657a696c 	ldrbvs	r6, [sl, #-2412]!	; 0xfffff694
 67c:	00705f64 	rsbseq	r5, r0, r4, ror #30
 680:	5f746573 	svcpl	0x00746573
 684:	006c6c61 	rsbeq	r6, ip, r1, ror #24
 688:	636f6c63 	cmnvs	pc, #25344	; 0x6300
 68c:	69645f6b 	stmdbvs	r4!, {r0, r1, r3, r5, r6, r8, r9, sl, fp, ip, lr}^
 690:	65720076 	ldrbvs	r0, [r2, #-118]!	; 0xffffff8a
 694:	5f746573 	svcpl	0x00746573
 698:	74617473 	strbtvc	r7, [r1], #-1139	; 0xfffffb8d
 69c:	69007375 	stmdbvs	r0, {r0, r2, r4, r5, r6, r8, r9, ip, sp, lr}
 6a0:	695f6332 	ldmdbvs	pc, {r1, r4, r5, r8, r9, sp, lr}^	; <UNPREDICTABLE>
 6a4:	5f74696e 	svcpl	0x0074696e
 6a8:	65636e6f 	strbvs	r6, [r3, #-3695]!	; 0xfffff191
 6ac:	49504700 	ldmdbmi	r0, {r8, r9, sl, lr}^
 6b0:	55465f4f 	strbpl	r5, [r6, #-3919]	; 0xfffff0b1
 6b4:	415f434e 	cmpmi	pc, lr, asr #6
 6b8:	0032544c 	eorseq	r5, r2, ip, asr #8
 6bc:	64746e69 	ldrbtvs	r6, [r4], #-3689	; 0xfffff197
 6c0:	656c6300 	strbvs	r6, [ip, #-768]!	; 0xfffffd00
 6c4:	69007261 	stmdbvs	r0, {r0, r5, r6, r9, ip, sp, lr}
 6c8:	0072746e 	rsbseq	r7, r2, lr, ror #8
 6cc:	74746e69 	ldrbtvc	r6, [r4], #-3689	; 0xfffff197
 6d0:	65686300 	strbvs	r6, [r8, #-768]!	; 0xfffffd00
 6d4:	6c5f6b63 	mrrcvs	11, 6, r6, pc, cr3	; <UNPREDICTABLE>
 6d8:	756f7961 	strbvc	r7, [pc, #-2401]!	; fffffd7f <__bss_end__+0xffff6207>
 6dc:	32690074 	rsbcc	r0, r9, #116	; 0x74
 6e0:	006e6563 	rsbeq	r6, lr, r3, ror #10
 6e4:	7479626e 	ldrbtvc	r6, [r9], #-622	; 0xfffffd92
 6e8:	64007365 	strvs	r7, [r0], #-869	; 0xfffffc9b
 6ec:	006e656c 	rsbeq	r6, lr, ip, ror #10
 6f0:	636f6c63 	cmnvs	pc, #25344	; 0x6300
 6f4:	65645f6b 	strbvs	r5, [r4, #-3947]!	; 0xfffff095
 6f8:	0079616c 	rsbseq	r6, r9, ip, ror #2
 6fc:	746e6f63 	strbtvc	r6, [lr], #-3939	; 0xfffff09d
 700:	006c6f72 	rsbeq	r6, ip, r2, ror pc
 704:	746e6975 	strbtvc	r6, [lr], #-2421	; 0xfffff68b
 708:	745f3233 	ldrbvc	r3, [pc], #-563	; 710 <_start-0x78f0>
 70c:	74757000 	ldrbtvc	r7, [r5], #-0
 710:	78003233 	stmdavc	r0, {r0, r1, r4, r5, r9, ip, sp}
 714:	5f726566 	svcpl	0x00726566
 718:	72617473 	rsbvc	r7, r1, #1929379840	; 0x73000000
 71c:	50470074 	subpl	r0, r7, r4, ror r0
 720:	465f4f49 	ldrbmi	r4, [pc], -r9, asr #30
 724:	5f434e55 	svcpl	0x00434e55
 728:	5054554f 	subspl	r5, r4, pc, asr #10
 72c:	67005455 	smlsdvs	r0, r5, r4, r5
 730:	32337465 	eorscc	r7, r3, #1694498816	; 0x65000000
 734:	65667800 	strbvs	r7, [r6, #-2048]!	; 0xfffff800
 738:	6e655f72 	mcrvs	15, 3, r5, cr5, cr2, {3}
 73c:	6c630064 	stclvs	0, cr0, [r3], #-400	; 0xfffffe70
 740:	006b746b 	rsbeq	r7, fp, fp, ror #8
 744:	61656c63 	cmnvs	r5, r3, ror #24
 748:	00635f72 	rsbeq	r5, r3, r2, ror pc
 74c:	4f495047 	svcmi	0x00495047
 750:	4e55465f 	mrcmi	6, 2, r4, cr5, cr15, {2}
 754:	4c415f43 	mcrrmi	15, 4, r5, r1, cr3
 758:	47003054 	smlsdmi	r0, r4, r0, r3
 75c:	5f4f4950 	svcpl	0x004f4950
 760:	434e5546 	movtmi	r5, #58694	; 0xe546
 764:	544c415f 	strbpl	r4, [ip], #-351	; 0xfffffea1
 768:	50470033 	subpl	r0, r7, r3, lsr r0
 76c:	465f4f49 	ldrbmi	r4, [pc], -r9, asr #30
 770:	5f434e55 	svcpl	0x00434e55
 774:	34544c41 	ldrbcc	r4, [r4], #-3137	; 0xfffff3bf
 778:	49504700 	ldmdbmi	r0, {r8, r9, sl, lr}^
 77c:	55465f4f 	strbpl	r5, [r6, #-3919]	; 0xfffff0b1
 780:	415f434e 	cmpmi	pc, lr, asr #6
 784:	0035544c 	eorseq	r5, r5, ip, asr #8
 788:	61656c63 	cmnvs	r5, r3, ror #24
 78c:	00735f72 	rsbseq	r5, r3, r2, ror pc
 790:	65725f63 	ldrbvs	r5, [r2, #-3939]!	; 0xfffff09d
 794:	74736967 	ldrbtvc	r6, [r3], #-2407	; 0xfffff699
 798:	5f007265 	svcpl	0x00007265
 79c:	5f61765f 	svcpl	0x0061765f
 7a0:	7473696c 	ldrbtvc	r6, [r3], #-2412	; 0xfffff694
 7a4:	5f617600 	svcpl	0x00617600
 7a8:	6e697270 	mcrvs	2, 3, r7, cr9, cr0, {3}
 7ac:	5f006b74 	svcpl	0x00006b74
 7b0:	756e675f 	strbvc	r6, [lr, #-1887]!	; 0xfffff8a1
 7b4:	61765f63 	cmnvs	r6, r3, ror #30
 7b8:	73696c5f 	cmnvc	r9, #24320	; 0x5f00
 7bc:	4e470074 	mcrmi	0, 2, r0, cr7, cr4, {3}
 7c0:	39432055 	stmdbcc	r3, {r0, r2, r4, r6, sp}^
 7c4:	2e362039 	mrccs	0, 1, r2, cr6, cr9, {1}
 7c8:	20312e33 	eorscs	r2, r1, r3, lsr lr
 7cc:	37313032 			; <UNDEFINED> instruction: 0x37313032
 7d0:	30323630 	eorscc	r3, r2, r0, lsr r6
 7d4:	636d2d20 	cmnvs	sp, #32, 26	; 0x800
 7d8:	613d7570 	teqvs	sp, r0, ror r5
 7dc:	31316d72 	teqcc	r1, r2, ror sp
 7e0:	7a6a3637 	bvc	1a8e0c4 <__bss_end__+0x1a8454c>
 7e4:	20732d66 	rsbscs	r2, r3, r6, ror #26
 7e8:	75746d2d 	ldrbvc	r6, [r4, #-3373]!	; 0xfffff2d3
 7ec:	613d656e 	teqvs	sp, lr, ror #10
 7f0:	31316d72 	teqcc	r1, r2, ror sp
 7f4:	7a6a3637 	bvc	1a8e0d8 <__bss_end__+0x1a84560>
 7f8:	20732d66 	rsbscs	r2, r3, r6, ror #26
 7fc:	6467672d 	strbtvs	r6, [r7], #-1837	; 0xfffff8d3
 800:	4f2d2062 	svcmi	0x002d2062
 804:	732d2067 			; <UNDEFINED> instruction: 0x732d2067
 808:	673d6474 			; <UNDEFINED> instruction: 0x673d6474
 80c:	3939756e 	ldmdbcc	r9!, {r1, r2, r3, r5, r6, r8, sl, ip, sp, lr}
 810:	66662d20 	strbtvs	r2, [r6], -r0, lsr #26
 814:	73656572 	cmnvc	r5, #478150656	; 0x1c800000
 818:	646e6174 	strbtvs	r6, [lr], #-372	; 0xfffffe8c
 81c:	00676e69 	rsbeq	r6, r7, r9, ror #28
 820:	70615f5f 	rsbvc	r5, r1, pc, asr pc
 824:	6f682f00 	svcvs	0x00682f00
 828:	752f656d 	strvc	r6, [pc, #-1389]!	; 2c3 <_start-0x7d3d>
 82c:	2f726573 	svccs	0x00726573
 830:	2f766544 	svccs	0x00766544
 834:	34315343 	ldrtcc	r5, [r1], #-835	; 0xfffffcbd
 838:	6c2f4530 	cfstr32vs	mvfx4, [pc], #-192	; 780 <_start-0x7880>
 83c:	69706269 	ldmdbvs	r0!, {r0, r3, r5, r6, r9, sp, lr}^
 840:	62696c00 	rsbvs	r6, r9, #0, 24
 844:	72702f63 	rsbsvc	r2, r0, #396	; 0x18c
 848:	6b746e69 	blvs	1d1c1f4 <__bss_end__+0x1d1267c>
 84c:	6c00632e 	stcvs	3, cr6, [r0], {46}	; 0x2e
 850:	2f636269 	svccs	0x00636269
 854:	702d6176 	eorvc	r6, sp, r6, ror r1
 858:	746e6972 	strbtvc	r6, [lr], #-2418	; 0xfffff68e
 85c:	00632e6b 	rsbeq	r2, r3, fp, ror #28
 860:	5f697072 	svcpl	0x00697072
 864:	5f746573 	svcpl	0x00746573
 868:	7074756f 	rsbsvc	r7, r4, pc, ror #10
 86c:	73007475 	movwvc	r7, #1141	; 0x475
 870:	656e6769 	strbvs	r6, [lr, #-1897]!	; 0xfffff897
 874:	00705f64 	rsbseq	r5, r0, r4, ror #30
 878:	65766572 	ldrbvs	r6, [r6, #-1394]!	; 0xfffffa8e
 87c:	00657372 	rsbeq	r7, r5, r2, ror r3
 880:	74646977 	strbtvc	r6, [r4], #-2423	; 0xfffff689
 884:	75700068 	ldrbvc	r0, [r0, #-104]!	; 0xffffff98
 888:	665f7374 			; <UNDEFINED> instruction: 0x665f7374
 88c:	656e0070 	strbvs	r0, [lr, #-112]!	; 0xffffff90
 890:	00705f67 	rsbseq	r5, r0, r7, ror #30
 894:	63747570 	cmnvs	r4, #112, 10	; 0x1c000000
 898:	0070665f 	rsbseq	r6, r0, pc, asr r6
 89c:	69647369 	stmdbvs	r4!, {r0, r3, r5, r6, r8, r9, ip, sp, lr}^
 8a0:	00746967 	rsbseq	r6, r4, r7, ror #18
 8a4:	74696d65 	strbtvc	r6, [r9], #-3429	; 0xfffff29b
 8a8:	746e6900 	strbtvc	r6, [lr], #-2304	; 0xfffff700
 8ac:	616e7265 	cmnvs	lr, r5, ror #4
 8b0:	75705f6c 	ldrbvc	r5, [r0, #-3948]!	; 0xfffff094
 8b4:	6c006b74 			; <UNDEFINED> instruction: 0x6c006b74
 8b8:	2f636269 	svccs	0x00636269
 8bc:	6b747570 	blvs	1d1de84 <__bss_end__+0x1d1430c>
 8c0:	7200632e 	andvc	r6, r0, #-1207959552	; 0xb8000000
 8c4:	735f6970 	cmpvc	pc, #112, 18	; 0x1c0000
 8c8:	705f7465 	subsvc	r7, pc, r5, ror #8
 8cc:	00637475 	rsbeq	r7, r3, r5, ror r4
 8d0:	74726175 	ldrbtvc	r6, [r2], #-373	; 0xfffffe8b
 8d4:	7475705f 	ldrbtvc	r7, [r5], #-95	; 0xffffffa1
 8d8:	6e690063 	cdpvs	0, 6, cr0, cr9, cr3, {3}
 8dc:	6e726574 	mrcvs	5, 3, r6, cr2, cr4, {3}
 8e0:	705f6c61 	subsvc	r6, pc, r1, ror #24
 8e4:	68637475 	stmdavs	r3!, {r0, r2, r4, r5, r6, sl, ip, sp, lr}^
 8e8:	6c007261 	sfmvs	f7, 4, [r0], {97}	; 0x61
 8ec:	2f636269 	svccs	0x00636269
 8f0:	63747570 	cmnvs	r4, #112, 10	; 0x1c000000
 8f4:	2e726168 	rpwcssz	f6, f2, #0.0
 8f8:	55500063 	ldrbpl	r0, [r0, #-99]	; 0xffffff9d
 8fc:	455f4354 	ldrbmi	r4, [pc, #-852]	; 5b0 <_start-0x7a50>
 900:	555f5053 	ldrbpl	r5, [pc, #-83]	; 8b5 <_start-0x774b>
 904:	00545241 	subseq	r5, r4, r1, asr #4
 908:	74726175 	ldrbtvc	r6, [r2], #-373	; 0xfffffe8b
 90c:	7665645f 			; <UNDEFINED> instruction: 0x7665645f
 910:	5f00745f 	svcpl	0x0000745f
 914:	61747363 	cmnvs	r4, r3, ror #6
 918:	73007472 	movwvc	r7, #1138	; 0x472
 91c:	61755f77 	cmnvs	r5, r7, ror pc
 920:	63007472 	movwvs	r7, #1138	; 0x472
 924:	72746e6f 	rsbsvc	r6, r4, #1776	; 0x6f0
 928:	625f6c6f 	subsvs	r6, pc, #28416	; 0x6f00
 92c:	745f6b6c 	ldrbvc	r6, [pc], #-2924	; 934 <_start-0x76cc>
 930:	54555000 	ldrbpl	r5, [r5], #-0
 934:	57485f43 	strbpl	r5, [r8, -r3, asr #30]
 938:	5241555f 	subpl	r5, r1, #398458880	; 0x17c00000
 93c:	6f630054 	svcvs	0x00630054
 940:	6c6f736e 	stclvs	3, cr7, [pc], #-440	; 790 <_start-0x7870>
 944:	65645f65 	strbvs	r5, [r4, #-3941]!	; 0xfffff09b
 948:	6f630076 	svcvs	0x00630076
 94c:	6c6f736e 	stclvs	3, cr7, [pc], #-440	; 79c <_start-0x7864>
 950:	61755f65 	cmnvs	r5, r5, ror #30
 954:	5f007472 	svcpl	0x00007472
 958:	7373625f 	cmnvc	r3, #-268435451	; 0xf0000005
 95c:	6174735f 	cmnvs	r4, pc, asr r3
 960:	5f5f7472 	svcpl	0x005f7472
 964:	625f5f00 	subsvs	r5, pc, #0, 30
 968:	655f7373 	ldrbvs	r7, [pc, #-883]	; 5fd <_start-0x7a03>
 96c:	5f5f646e 	svcpl	0x005f646e
 970:	5f777300 	svcpl	0x00777300
 974:	74726175 	ldrbtvc	r6, [r2], #-373	; 0xfffffe8b
 978:	6d00745f 	cfstrsvs	mvf7, [r0, #-380]	; 0xfffffe84
 97c:	63696761 	cmnvs	r9, #25427968	; 0x1840000
 980:	73736200 	cmnvc	r3, #0, 4
 984:	646e655f 	strbtvs	r6, [lr], #-1375	; 0xfffffaa1
 988:	746e6900 	strbtvc	r6, [lr], #-2304	; 0xfffff700
 98c:	616e7265 	cmnvs	lr, r5, ror #4
 990:	77735f6c 	ldrbvc	r5, [r3, -ip, ror #30]!
 994:	7475705f 	ldrbtvc	r7, [r5], #-95	; 0xffffffa1
 998:	72616863 	rsbvc	r6, r1, #6488064	; 0x630000
 99c:	69707200 	ldmdbvs	r0!, {r9, ip, sp, lr}^
 9a0:	6265725f 	rsbvs	r7, r5, #-268435451	; 0xf0000005
 9a4:	00746f6f 	rsbseq	r6, r4, pc, ror #30
 9a8:	64756162 	ldrbtvs	r6, [r5], #-354	; 0xfffffe9e
 9ac:	5f626300 	svcpl	0x00626300
 9b0:	5f746567 	svcpl	0x00746567
 9b4:	636f6c62 	cmnvs	pc, #25088	; 0x6200
 9b8:	7363006b 	cmnvc	r3, #107	; 0x6b
 9bc:	65303431 	ldrvs	r3, [r0, #-1073]!	; 0xfffffbcf
 9c0:	6372732d 	cmnvs	r2, #-1275068416	; 0xb4000000
 9c4:	7473632f 	ldrbtvc	r6, [r3], #-815	; 0xfffffcd1
 9c8:	2e747261 	cdpcs	2, 7, cr7, cr4, cr1, {3}
 9cc:	55500063 	ldrbpl	r0, [r0, #-99]	; 0xffffff9d
 9d0:	535f4354 	cmppl	pc, #84, 6	; 0x50000001
 9d4:	41555f57 	cmpmi	r5, r7, asr pc
 9d8:	63005452 	movwvs	r5, #1106	; 0x452
 9dc:	656c6379 	strbvs	r6, [ip, #-889]!	; 0xfffffc87
 9e0:	7265705f 	rsbvc	r7, r5, #95	; 0x5f
 9e4:	7469625f 	strbtvc	r6, [r9], #-607	; 0xfffffda1
 9e8:	5f4d5000 	svcpl	0x004d5000
 9ec:	43545352 	cmpmi	r4, #1207959553	; 0x48000001
 9f0:	54555000 	ldrbpl	r5, [r5], #-0
 9f4:	50003233 	andpl	r3, r0, r3, lsr r2
 9f8:	53525f4d 	cmppl	r2, #308	; 0x134
 9fc:	575f4354 			; <UNDEFINED> instruction: 0x575f4354
 a00:	47464352 	smlsldmi	r4, r6, r2, r3
 a04:	4c55465f 	mrrcmi	6, 5, r4, r5, cr15
 a08:	45525f4c 	ldrbmi	r5, [r2, #-3916]	; 0xfffff0b4
 a0c:	00544553 	subseq	r4, r4, r3, asr r5
 a10:	575f4d50 			; <UNDEFINED> instruction: 0x575f4d50
 a14:	00474f44 	subeq	r4, r7, r4, asr #30
 a18:	72737063 	rsbsvc	r7, r3, #99	; 0x63
 a1c:	5f4d5000 	svcpl	0x004d5000
 a20:	53534150 	cmppl	r3, #80, 2
 a24:	44524f57 	ldrbmi	r4, [r2], #-3927	; 0xfffff0a9
 a28:	31736300 	cmncc	r3, r0, lsl #6
 a2c:	2d653034 	stclcs	0, cr3, [r5, #-208]!	; 0xffffff30
 a30:	2f637273 	svccs	0x00637273
 a34:	6f626572 	svcvs	0x00626572
 a38:	632e746f 			; <UNDEFINED> instruction: 0x632e746f
 a3c:	74657300 	strbtvc	r7, [r5], #-768	; 0xfffffd00
 a40:	6573755f 	ldrbvs	r7, [r3, #-1375]!	; 0xfffffaa1
 a44:	656c5f72 	strbvs	r5, [ip, #-3954]!	; 0xfffff08e
 a48:	006c6576 	rsbeq	r6, ip, r6, ror r5
 a4c:	755f7461 	ldrbvc	r7, [pc, #-1121]	; 5f3 <_start-0x7a0d>
 a50:	5f726573 	svcpl	0x00726573
 a54:	6576656c 	ldrbvs	r6, [r6, #-1388]!	; 0xfffffa94
 a58:	7363006c 	cmnvc	r3, #108	; 0x6c
 a5c:	65303431 	ldrvs	r3, [r0, #-1073]!	; 0xfffffbcf
 a60:	6372732d 	cmnvs	r2, #-1275068416	; 0xb4000000
 a64:	656c632f 	strbvs	r6, [ip, #-815]!	; 0xfffffcd1
 a68:	722d6e61 	eorvc	r6, sp, #1552	; 0x610
 a6c:	6f6f6265 	svcvs	0x006f6265
 a70:	00632e74 	rsbeq	r2, r3, r4, ror lr
 a74:	656d6974 	strbvs	r6, [sp, #-2420]!	; 0xfffff68c
 a78:	65675f72 	strbvs	r5, [r7, #-3954]!	; 0xfffff08e
 a7c:	73755f74 	cmnvc	r5, #116, 30	; 0x1d0
 a80:	64006365 	strvs	r6, [r0], #-869	; 0xfffffc9b
 a84:	79616c65 	stmdbvc	r1!, {r0, r2, r5, r6, sl, fp, sp, lr}^
 a88:	6365735f 	cmnvs	r5, #2080374785	; 0x7c000001
 a8c:	6c656400 	cfstrdvs	mvd6, [r5], #-0
 a90:	635f7961 	cmpvs	pc, #1589248	; 0x184000
 a94:	656c6379 	strbvs	r6, [ip, #-889]!	; 0xfffffc87
 a98:	73630073 	cmnvc	r3, #115	; 0x73
 a9c:	65303431 	ldrvs	r3, [r0, #-1073]!	; 0xfffffbcf
 aa0:	6372732d 	cmnvs	r2, #-1275068416	; 0xb4000000
 aa4:	6d69742f 	cfstrdvs	mvd7, [r9, #-188]!	; 0xffffff44
 aa8:	632e7265 			; <UNDEFINED> instruction: 0x632e7265
 aac:	63697400 	cmnvs	r9, #0, 8
 ab0:	4700736b 	strmi	r7, [r0, -fp, ror #6]
 ab4:	32335445 	eorscc	r5, r3, #1157627904	; 0x45000000
 ab8:	6d697400 	cfstrdvs	mvd7, [r9, #-0]
 abc:	675f7265 	ldrbvs	r7, [pc, -r5, ror #4]
 ac0:	755f7465 	ldrbvc	r7, [pc, #-1125]	; 663 <_start-0x799d>
 ac4:	5f636573 	svcpl	0x00636573
 ac8:	00776172 	rsbseq	r6, r7, r2, ror r1
 acc:	6f6c5f5f 	svcvs	0x006c5f5f
 ad0:	656c6163 	strbvs	r6, [ip, #-355]!	; 0xfffffe9d
 ad4:	7300745f 	movwvc	r7, #1119	; 0x45f
 ad8:	00746174 	rsbseq	r6, r4, r4, ror r1
 adc:	6c746e63 	ldclvs	14, cr6, [r4], #-396	; 0xfffffe74
 ae0:	72617500 	rsbvc	r7, r1, #0, 10
 ae4:	00632e74 	rsbeq	r2, r3, r4, ror lr
 ae8:	5f787561 	svcpl	0x00787561
 aec:	69726570 	ldmdbvs	r2!, {r4, r5, r6, r8, sl, sp, lr}^
 af0:	00736870 	rsbseq	r6, r3, r0, ror r8
 af4:	5f787561 	svcpl	0x00787561
 af8:	62616e65 	rsbvs	r6, r1, #1616	; 0x650
 afc:	0073656c 	rsbseq	r6, r3, ip, ror #10
 b00:	74726175 	ldrbtvc	r6, [r2], #-373	; 0xfffffe8b
 b04:	6e61635f 	mcrvs	3, 3, r6, cr1, cr15, {2}
 b08:	7475705f 	ldrbtvc	r7, [r5], #-95	; 0xffffffa1
 b0c:	61750063 	cmnvs	r5, r3, rrx
 b10:	675f7472 			; <UNDEFINED> instruction: 0x675f7472
 b14:	00637465 	rsbeq	r7, r3, r5, ror #8
 b18:	434f4c5f 	movtmi	r4, #64607	; 0xfc5f
 b1c:	00545f4b 	subseq	r5, r4, fp, asr #30
 b20:	20554e47 	subscs	r4, r5, r7, asr #28
 b24:	20393943 	eorscs	r3, r9, r3, asr #18
 b28:	2e332e37 	mrccs	14, 1, r2, cr3, cr7, {1}
 b2c:	30322031 	eorscc	r2, r2, r1, lsr r0
 b30:	36303831 			; <UNDEFINED> instruction: 0x36303831
 b34:	28203232 	stmdacs	r0!, {r1, r4, r5, r9, ip, sp}
 b38:	656c6572 	strbvs	r6, [ip, #-1394]!	; 0xfffffa8e
 b3c:	29657361 	stmdbcs	r5!, {r0, r5, r6, r8, r9, ip, sp, lr}^
 b40:	52415b20 	subpl	r5, r1, #32, 22	; 0x8000
 b44:	6d652f4d 	stclvs	15, cr2, [r5, #-308]!	; 0xfffffecc
 b48:	64646562 	strbtvs	r6, [r4], #-1378	; 0xfffffa9e
 b4c:	372d6465 	strcc	r6, [sp, -r5, ror #8]!
 b50:	6172622d 	cmnvs	r2, sp, lsr #4
 b54:	2068636e 	rsbcs	r6, r8, lr, ror #6
 b58:	69766572 	ldmdbvs	r6!, {r1, r4, r5, r6, r8, sl, sp, lr}^
 b5c:	6e6f6973 			; <UNDEFINED> instruction: 0x6e6f6973
 b60:	31363220 	teqcc	r6, r0, lsr #4
 b64:	5d373039 	ldcpl	0, cr3, [r7, #-228]!	; 0xffffff1c
 b68:	636d2d20 	cmnvs	sp, #32, 26	; 0x800
 b6c:	613d7570 	teqvs	sp, r0, ror r5
 b70:	31316d72 	teqcc	r1, r2, ror sp
 b74:	7a6a3637 	bvc	1a8e458 <__bss_end__+0x1a848e0>
 b78:	20732d66 	rsbscs	r2, r3, r6, ror #26
 b7c:	75746d2d 	ldrbvc	r6, [r4, #-3373]!	; 0xfffff2d3
 b80:	613d656e 	teqvs	sp, lr, ror #10
 b84:	31316d72 	teqcc	r1, r2, ror sp
 b88:	7a6a3637 	bvc	1a8e46c <__bss_end__+0x1a848f4>
 b8c:	20732d66 	rsbscs	r2, r3, r6, ror #26
 b90:	6467672d 	strbtvs	r6, [r7], #-1837	; 0xfffff8d3
 b94:	4f2d2062 	svcmi	0x002d2062
 b98:	732d2067 			; <UNDEFINED> instruction: 0x732d2067
 b9c:	673d6474 			; <UNDEFINED> instruction: 0x673d6474
 ba0:	3939756e 	ldmdbcc	r9!, {r1, r2, r3, r5, r6, r8, sl, ip, sp, lr}
 ba4:	66662d20 	strbtvs	r2, [r6], -r0, lsr #26
 ba8:	73656572 	cmnvc	r5, #478150656	; 0x1c800000
 bac:	646e6174 	strbtvs	r6, [lr], #-372	; 0xfffffe8c
 bb0:	00676e69 	rsbeq	r6, r7, r9, ror #28
 bb4:	6d6f682f 	stclvs	8, cr6, [pc, #-188]!	; b00 <_start-0x7500>
 bb8:	6e652f65 	cdpvs	15, 6, cr2, cr5, cr5, {3}
 bbc:	72656c67 	rsbvc	r6, r5, #26368	; 0x6700
 bc0:	616c632f 	cmnvs	ip, pc, lsr #6
 bc4:	632f7373 			; <UNDEFINED> instruction: 0x632f7373
 bc8:	30343173 	eorscc	r3, r4, r3, ror r1
 bcc:	30322d65 	eorscc	r2, r2, r5, ror #26
 bd0:	2f6e6977 	svccs	0x006e6977
 bd4:	7062696c 	rsbvc	r6, r2, ip, ror #18
 bd8:	73632f69 	cmnvc	r3, #420	; 0x1a4
 bdc:	65303431 	ldrvs	r3, [r0, #-1073]!	; 0xfffffbcf
 be0:	6972702d 	ldmdbvs	r2!, {r0, r2, r3, r5, ip, sp, lr}^
 be4:	65746176 	ldrbvs	r6, [r4, #-374]!	; 0xfffffe8a
 be8:	6e755f00 	cdpvs	15, 7, cr5, cr5, cr0, {0}
 bec:	63657073 	cmnvs	r5, #115	; 0x73
 bf0:	65696669 	strbvs	r6, [r9, #-1641]!	; 0xfffff997
 bf4:	6f6c5f64 	svcvs	0x006c5f64
 bf8:	656c6163 	strbvs	r6, [ip, #-355]!	; 0xfffffe9d
 bfc:	666e695f 			; <UNDEFINED> instruction: 0x666e695f
 c00:	5f5f006f 	svcpl	0x005f006f
 c04:	6b636f6c 	blvs	18dc9bc <__bss_end__+0x18d2e44>
 c08:	72637300 	rsbvc	r7, r3, #0, 6
 c0c:	68637461 	stmdavs	r3!, {r0, r5, r6, sl, ip, sp, lr}^
 c10:	72617500 	rsbvc	r7, r1, #0, 10
 c14:	61635f74 	smcvs	13812	; 0x35f4
 c18:	65675f6e 	strbvs	r5, [r7, #-3950]!	; 0xfffff092
 c1c:	6f006374 	svcvs	0x00006374
 c20:	6e695f72 	mcrvs	15, 3, r5, cr9, cr2, {3}
 c24:	75003233 	strvc	r3, [r0, #-563]	; 0xfffffdcd
 c28:	5f747261 	svcpl	0x00747261
 c2c:	5f736168 	svcpl	0x00736168
 c30:	61746164 	cmnvs	r4, r4, ror #2
 c34:	69706700 	ldmdbvs	r0!, {r8, r9, sl, sp, lr}^
 c38:	65735f6f 	ldrbvs	r5, [r3, #-3951]!	; 0xfffff091
 c3c:	666f5f74 	uqsub16vs	r5, pc, r4	; <UNPREDICTABLE>
 c40:	61620066 	cmnvs	r2, r6, rrx
 c44:	67006b6e 	strvs	r6, [r0, -lr, ror #22]
 c48:	2e6f6970 			; <UNDEFINED> instruction: 0x2e6f6970
 c4c:	70670063 	rsbvc	r0, r7, r3, rrx
 c50:	665f6f69 	ldrbvs	r6, [pc], -r9, ror #30
 c54:	306c6573 	rsbcc	r6, ip, r3, ror r5
 c58:	69706700 	ldmdbvs	r0!, {r8, r9, sl, sp, lr}^
 c5c:	65725f6f 	ldrbvs	r5, [r2, #-3951]!	; 0xfffff091
 c60:	67006461 	strvs	r6, [r0, -r1, ror #8]
 c64:	5f6f6970 	svcpl	0x006f6970
 c68:	5f746573 	svcpl	0x00746573
 c6c:	7074756f 	rsbsvc	r7, r4, pc, ror #10
 c70:	67007475 	smlsdxvs	r0, r5, r4, r7
 c74:	5f6f6970 	svcpl	0x006f6970
 c78:	74697277 	strbtvc	r7, [r9], #-631	; 0xfffffd89
 c7c:	70670065 	rsbvc	r0, r7, r5, rrx
 c80:	735f6f69 	cmpvc	pc, #420	; 0x1a4
 c84:	00307465 	eorseq	r7, r0, r5, ror #8
 c88:	6f697067 	svcvs	0x00697067
 c8c:	76656c5f 			; <UNDEFINED> instruction: 0x76656c5f
 c90:	70670030 	rsbvc	r0, r7, r0, lsr r0
 c94:	735f6f69 	cmpvc	pc, #420	; 0x1a4
 c98:	695f7465 	ldmdbvs	pc, {r0, r2, r5, r6, sl, ip, sp, lr}^	; <UNPREDICTABLE>
 c9c:	7475706e 	ldrbtvc	r7, [r5], #-110	; 0xffffff92
 ca0:	69706700 	ldmdbvs	r0!, {r8, r9, sl, sp, lr}^
 ca4:	65735f6f 	ldrbvs	r5, [r3, #-3951]!	; 0xfffff091
 ca8:	6e6f5f74 	mcrvs	15, 3, r5, cr15, cr4, {3}
 cac:	69706700 	ldmdbvs	r0!, {r8, r9, sl, sp, lr}^
 cb0:	75665f6f 	strbvc	r5, [r6, #-3951]!	; 0xfffff091
 cb4:	745f636e 	ldrbvc	r6, [pc], #-878	; cbc <_start-0x7344>
 cb8:	69706700 	ldmdbvs	r0!, {r8, r9, sl, sp, lr}^
 cbc:	6c635f6f 	stclvs	15, cr5, [r3], #-444	; 0xfffffe44
 cc0:	63003072 	movwvs	r3, #114	; 0x72
 cc4:	656e5f62 	strbvs	r5, [lr, #-3938]!	; 0xfffff09e
 cc8:	73630077 	cmnvc	r3, #119	; 0x77
 ccc:	65303431 	ldrvs	r3, [r0, #-1073]!	; 0xfffffbcf
 cd0:	6372732d 	cmnvs	r2, #-1275068416	; 0xb4000000
 cd4:	6e6f632f 	cdpvs	3, 6, cr6, cr15, cr15, {1}
 cd8:	6c6f7274 	sfmvs	f7, 2, [pc], #-464	; b10 <_start-0x74f0>
 cdc:	6f6c622d 	svcvs	0x006c622d
 ce0:	632e6b63 			; <UNDEFINED> instruction: 0x632e6b63
 ce4:	6d656d00 	stclvs	13, cr6, [r5, #-0]
 ce8:	00746573 	rsbseq	r6, r4, r3, ror r5
 cec:	657a6973 	ldrbvs	r6, [sl, #-2419]!	; 0xfffff68d
 cf0:	6c00745f 	cfstrsvs	mvf7, [r0], {95}	; 0x5f
 cf4:	2f636269 	svccs	0x00636269
 cf8:	736d656d 	cmnvc	sp, #457179136	; 0x1b400000
 cfc:	632e7465 			; <UNDEFINED> instruction: 0x632e7465
	...

Disassembly of section .debug_frame:

00000000 <.debug_frame>:
   0:	0000000c 	andeq	r0, r0, ip
   4:	ffffffff 			; <UNDEFINED> instruction: 0xffffffff
   8:	7c020001 	stcvc	0, cr0, [r2], {1}
   c:	000d0c0e 	andeq	r0, sp, lr, lsl #24
  10:	00000018 	andeq	r0, r0, r8, lsl r0
  14:	00000000 	andeq	r0, r0, r0
  18:	00008010 	andeq	r8, r0, r0, lsl r0
  1c:	00000030 	andeq	r0, r0, r0, lsr r0
  20:	8e040e42 	cdphi	14, 0, cr0, cr4, cr2, {2}
  24:	180e4201 	stmdane	lr, {r0, r9, lr}
  28:	00040e52 	andeq	r0, r4, r2, asr lr
  2c:	0000001c 	andeq	r0, r0, ip, lsl r0
  30:	00000000 	andeq	r0, r0, r0
  34:	00008040 	andeq	r8, r0, r0, asr #32
  38:	00000050 	andeq	r0, r0, r0, asr r0
  3c:	84080e42 	strhi	r0, [r8], #-3650	; 0xfffff1be
  40:	42018e02 	andmi	r8, r1, #2, 28
  44:	0e62180e 	cdpeq	8, 6, cr1, cr2, cr14, {0}
  48:	00000008 	andeq	r0, r0, r8
  4c:	00000018 	andeq	r0, r0, r8, lsl r0
  50:	00000000 	andeq	r0, r0, r0
  54:	00008090 	muleq	r0, r0, r0
  58:	00000028 	andeq	r0, r0, r8, lsr #32
  5c:	8e040e42 	cdphi	14, 0, cr0, cr4, cr2, {2}
  60:	100e4201 	andne	r4, lr, r1, lsl #4
  64:	00040e4e 	andeq	r0, r4, lr, asr #28
  68:	00000018 	andeq	r0, r0, r8, lsl r0
  6c:	00000000 	andeq	r0, r0, r0
  70:	000080b8 	strheq	r8, [r0], -r8	; <UNPREDICTABLE>
  74:	000001d0 	ldrdeq	r0, [r0], -r0	; <UNPREDICTABLE>
  78:	84100e42 	ldrhi	r0, [r0], #-3650	; 0xfffff1be
  7c:	86038504 	strhi	r8, [r3], -r4, lsl #10
  80:	00018e02 	andeq	r8, r1, r2, lsl #28
  84:	0000000c 	andeq	r0, r0, ip
  88:	ffffffff 			; <UNDEFINED> instruction: 0xffffffff
  8c:	7c020001 	stcvc	0, cr0, [r2], {1}
  90:	000d0c0e 	andeq	r0, sp, lr, lsl #24
  94:	0000000c 	andeq	r0, r0, ip
  98:	00000084 	andeq	r0, r0, r4, lsl #1
  9c:	00008288 	andeq	r8, r0, r8, lsl #5
  a0:	00000014 	andeq	r0, r0, r4, lsl r0
  a4:	0000000c 	andeq	r0, r0, ip
  a8:	00000084 	andeq	r0, r0, r4, lsl #1
  ac:	0000829c 	muleq	r0, ip, r2
  b0:	0000000c 	andeq	r0, r0, ip
  b4:	00000014 	andeq	r0, r0, r4, lsl r0
  b8:	00000084 	andeq	r0, r0, r4, lsl #1
  bc:	000082a8 	andeq	r8, r0, r8, lsr #5
  c0:	00000008 	andeq	r0, r0, r8
  c4:	8e040e42 	cdphi	14, 0, cr0, cr4, cr2, {2}
  c8:	00000001 	andeq	r0, r0, r1
  cc:	00000014 	andeq	r0, r0, r4, lsl r0
  d0:	00000084 	andeq	r0, r0, r4, lsl #1
  d4:	000082b0 			; <UNDEFINED> instruction: 0x000082b0
  d8:	000000f4 	strdeq	r0, [r0], -r4
  dc:	84080e42 	strhi	r0, [r8], #-3650	; 0xfffff1be
  e0:	00018e02 	andeq	r8, r1, r2, lsl #28
  e4:	00000014 	andeq	r0, r0, r4, lsl r0
  e8:	00000084 	andeq	r0, r0, r4, lsl #1
  ec:	000083a4 	andeq	r8, r0, r4, lsr #7
  f0:	00000010 	andeq	r0, r0, r0, lsl r0
  f4:	84080e42 	strhi	r0, [r8], #-3650	; 0xfffff1be
  f8:	00018e02 	andeq	r8, r1, r2, lsl #28
  fc:	00000014 	andeq	r0, r0, r4, lsl r0
 100:	00000084 	andeq	r0, r0, r4, lsl #1
 104:	000083b4 			; <UNDEFINED> instruction: 0x000083b4
 108:	00000028 	andeq	r0, r0, r8, lsr #32
 10c:	84080e42 	strhi	r0, [r8], #-3650	; 0xfffff1be
 110:	00018e02 	andeq	r8, r1, r2, lsl #28
 114:	00000014 	andeq	r0, r0, r4, lsl r0
 118:	00000084 	andeq	r0, r0, r4, lsl #1
 11c:	000083dc 	ldrdeq	r8, [r0], -ip
 120:	00000010 	andeq	r0, r0, r0, lsl r0
 124:	84080e42 	strhi	r0, [r8], #-3650	; 0xfffff1be
 128:	00018e02 	andeq	r8, r1, r2, lsl #28
 12c:	00000018 	andeq	r0, r0, r8, lsl r0
 130:	00000084 	andeq	r0, r0, r4, lsl #1
 134:	000083ec 	andeq	r8, r0, ip, ror #7
 138:	000001cc 	andeq	r0, r0, ip, asr #3
 13c:	84100e42 	ldrhi	r0, [r0], #-3650	; 0xfffff1be
 140:	86038504 	strhi	r8, [r3], -r4, lsl #10
 144:	00018e02 	andeq	r8, r1, r2, lsl #28
 148:	00000018 	andeq	r0, r0, r8, lsl r0
 14c:	00000084 	andeq	r0, r0, r4, lsl #1
 150:	000085b8 			; <UNDEFINED> instruction: 0x000085b8
 154:	000000c4 	andeq	r0, r0, r4, asr #1
 158:	84100e42 	ldrhi	r0, [r0], #-3650	; 0xfffff1be
 15c:	86038504 	strhi	r8, [r3], -r4, lsl #10
 160:	00018e02 	andeq	r8, r1, r2, lsl #28
 164:	00000018 	andeq	r0, r0, r8, lsl r0
 168:	00000084 	andeq	r0, r0, r4, lsl #1
 16c:	0000867c 	andeq	r8, r0, ip, ror r6
 170:	000000c4 	andeq	r0, r0, r4, asr #1
 174:	84100e42 	ldrhi	r0, [r0], #-3650	; 0xfffff1be
 178:	86038504 	strhi	r8, [r3], -r4, lsl #10
 17c:	00018e02 	andeq	r8, r1, r2, lsl #28
 180:	0000000c 	andeq	r0, r0, ip
 184:	00000084 	andeq	r0, r0, r4, lsl #1
 188:	00008740 	andeq	r8, r0, r0, asr #14
 18c:	00000010 	andeq	r0, r0, r0, lsl r0
 190:	00000014 	andeq	r0, r0, r4, lsl r0
 194:	00000084 	andeq	r0, r0, r4, lsl #1
 198:	00008750 	andeq	r8, r0, r0, asr r7
 19c:	00000094 	muleq	r0, r4, r0
 1a0:	84080e42 	strhi	r0, [r8], #-3650	; 0xfffff1be
 1a4:	00018e02 	andeq	r8, r1, r2, lsl #28
 1a8:	00000014 	andeq	r0, r0, r4, lsl r0
 1ac:	00000084 	andeq	r0, r0, r4, lsl #1
 1b0:	000087e4 	andeq	r8, r0, r4, ror #15
 1b4:	00000018 	andeq	r0, r0, r8, lsl r0
 1b8:	84080e42 	strhi	r0, [r8], #-3650	; 0xfffff1be
 1bc:	00018e02 	andeq	r8, r1, r2, lsl #28
 1c0:	0000000c 	andeq	r0, r0, ip
 1c4:	ffffffff 			; <UNDEFINED> instruction: 0xffffffff
 1c8:	7c020001 	stcvc	0, cr0, [r2], {1}
 1cc:	000d0c0e 	andeq	r0, sp, lr, lsl #24
 1d0:	00000034 	andeq	r0, r0, r4, lsr r0
 1d4:	000001c0 	andeq	r0, r0, r0, asr #3
 1d8:	000087fc 	strdeq	r8, [r0], -ip
 1dc:	00000058 	andeq	r0, r0, r8, asr r0
 1e0:	80100e42 	andshi	r0, r0, r2, asr #28
 1e4:	82038104 	andhi	r8, r3, #4, 2
 1e8:	42018302 	andmi	r8, r1, #134217728	; 0x8000000
 1ec:	07841c0e 	streq	r1, [r4, lr, lsl #24]
 1f0:	058e0685 	streq	r0, [lr, #1669]	; 0x685
 1f4:	5c280e42 	stcpl	14, cr0, [r8], #-264	; 0xfffffef8
 1f8:	ce421c0e 	cdpgt	12, 4, cr1, cr2, cr14, {0}
 1fc:	100ec4c5 	andne	ip, lr, r5, asr #9
 200:	c1c2c342 	bicgt	ip, r2, r2, asr #6
 204:	00000ec0 	andeq	r0, r0, r0, asr #29
 208:	0000000c 	andeq	r0, r0, ip
 20c:	ffffffff 			; <UNDEFINED> instruction: 0xffffffff
 210:	7c020001 	stcvc	0, cr0, [r2], {1}
 214:	000d0c0e 	andeq	r0, sp, lr, lsl #24
 218:	0000000c 	andeq	r0, r0, ip
 21c:	00000208 	andeq	r0, r0, r8, lsl #4
 220:	00008854 	andeq	r8, r0, r4, asr r8
 224:	00000014 	andeq	r0, r0, r4, lsl r0
 228:	0000000c 	andeq	r0, r0, ip
 22c:	00000208 	andeq	r0, r0, r8, lsl #4
 230:	00008868 	andeq	r8, r0, r8, ror #16
 234:	0000002c 	andeq	r0, r0, ip, lsr #32
 238:	0000000c 	andeq	r0, r0, ip
 23c:	00000208 	andeq	r0, r0, r8, lsl #4
 240:	00008894 	muleq	r0, r4, r8
 244:	00000040 	andeq	r0, r0, r0, asr #32
 248:	00000024 	andeq	r0, r0, r4, lsr #32
 24c:	00000208 	andeq	r0, r0, r8, lsl #4
 250:	000088d4 	ldrdeq	r8, [r0], -r4
 254:	0000019c 	muleq	r0, ip, r1
 258:	84140e42 	ldrhi	r0, [r4], #-3650	; 0xfffff1be
 25c:	86048505 	strhi	r8, [r4], -r5, lsl #10
 260:	8e028703 	cdphi	7, 0, cr8, cr2, cr3, {0}
 264:	580e4201 	stmdapl	lr, {r0, r9, lr}
 268:	0e0a9202 	cdpeq	2, 0, cr9, cr10, cr2, {0}
 26c:	000b4214 	andeq	r4, fp, r4, lsl r2
 270:	00000014 	andeq	r0, r0, r4, lsl r0
 274:	00000208 	andeq	r0, r0, r8, lsl #4
 278:	00008a70 	andeq	r8, r0, r0, ror sl
 27c:	00000054 	andeq	r0, r0, r4, asr r0
 280:	84080e52 	strhi	r0, [r8], #-3666	; 0xfffff1ae
 284:	00018e02 	andeq	r8, r1, r2, lsl #28
 288:	00000028 	andeq	r0, r0, r8, lsr #32
 28c:	00000208 	andeq	r0, r0, r8, lsl #4
 290:	00008ac4 	andeq	r8, r0, r4, asr #21
 294:	000002c0 	andeq	r0, r0, r0, asr #5
 298:	841c0e42 	ldrhi	r0, [ip], #-3650	; 0xfffff1be
 29c:	86068507 	strhi	r8, [r6], -r7, lsl #10
 2a0:	88048705 	stmdahi	r4, {r0, r2, r8, r9, sl, pc}
 2a4:	8e028903 	vmlahi.f16	s16, s4, s6	; <UNPREDICTABLE>
 2a8:	b00e4201 	andlt	r4, lr, r1, lsl #4
 2ac:	01500301 	cmpeq	r0, r1, lsl #6
 2b0:	00001c0e 	andeq	r1, r0, lr, lsl #24
 2b4:	0000000c 	andeq	r0, r0, ip
 2b8:	ffffffff 			; <UNDEFINED> instruction: 0xffffffff
 2bc:	7c020001 	stcvc	0, cr0, [r2], {1}
 2c0:	000d0c0e 	andeq	r0, sp, lr, lsl #24
 2c4:	00000014 	andeq	r0, r0, r4, lsl r0
 2c8:	000002b4 			; <UNDEFINED> instruction: 0x000002b4
 2cc:	00008d84 	andeq	r8, r0, r4, lsl #27
 2d0:	00000034 	andeq	r0, r0, r4, lsr r0
 2d4:	84080e42 	strhi	r0, [r8], #-3650	; 0xfffff1be
 2d8:	00018e02 	andeq	r8, r1, r2, lsl #28
 2dc:	0000000c 	andeq	r0, r0, ip
 2e0:	ffffffff 			; <UNDEFINED> instruction: 0xffffffff
 2e4:	7c020001 	stcvc	0, cr0, [r2], {1}
 2e8:	000d0c0e 	andeq	r0, sp, lr, lsl #24
 2ec:	00000014 	andeq	r0, r0, r4, lsl r0
 2f0:	000002dc 	ldrdeq	r0, [r0], -ip
 2f4:	00008db8 			; <UNDEFINED> instruction: 0x00008db8
 2f8:	00000014 	andeq	r0, r0, r4, lsl r0
 2fc:	84080e42 	strhi	r0, [r8], #-3650	; 0xfffff1be
 300:	00018e02 	andeq	r8, r1, r2, lsl #28
 304:	0000000c 	andeq	r0, r0, ip
 308:	000002dc 	ldrdeq	r0, [r0], -ip
 30c:	00008dcc 	andeq	r8, r0, ip, asr #27
 310:	00000018 	andeq	r0, r0, r8, lsl r0
 314:	0000000c 	andeq	r0, r0, ip
 318:	000002dc 	ldrdeq	r0, [r0], -ip
 31c:	00008de4 	andeq	r8, r0, r4, ror #27
 320:	00000010 	andeq	r0, r0, r0, lsl r0
 324:	0000000c 	andeq	r0, r0, ip
 328:	ffffffff 			; <UNDEFINED> instruction: 0xffffffff
 32c:	7c020001 	stcvc	0, cr0, [r2], {1}
 330:	000d0c0e 	andeq	r0, sp, lr, lsl #24
 334:	0000000c 	andeq	r0, r0, ip
 338:	00000324 	andeq	r0, r0, r4, lsr #6
 33c:	00008df4 	strdeq	r8, [r0], -r4
 340:	00000004 	andeq	r0, r0, r4
 344:	00000014 	andeq	r0, r0, r4, lsl r0
 348:	00000324 	andeq	r0, r0, r4, lsr #6
 34c:	00008df8 	strdeq	r8, [r0], -r8	; <UNPREDICTABLE>
 350:	00000070 	andeq	r0, r0, r0, ror r0
 354:	84080e42 	strhi	r0, [r8], #-3650	; 0xfffff1be
 358:	00018e02 	andeq	r8, r1, r2, lsl #28
 35c:	0000000c 	andeq	r0, r0, ip
 360:	ffffffff 			; <UNDEFINED> instruction: 0xffffffff
 364:	7c020001 	stcvc	0, cr0, [r2], {1}
 368:	000d0c0e 	andeq	r0, sp, lr, lsl #24
 36c:	0000000c 	andeq	r0, r0, ip
 370:	0000035c 	andeq	r0, r0, ip, asr r3
 374:	00008e68 	andeq	r8, r0, r8, ror #28
 378:	00000018 	andeq	r0, r0, r8, lsl r0
 37c:	0000000c 	andeq	r0, r0, ip
 380:	0000035c 	andeq	r0, r0, ip, asr r3
 384:	00008e80 	andeq	r8, r0, r0, lsl #29
 388:	00000014 	andeq	r0, r0, r4, lsl r0
 38c:	00000014 	andeq	r0, r0, r4, lsl r0
 390:	0000035c 	andeq	r0, r0, ip, asr r3
 394:	00008e94 	muleq	r0, r4, lr
 398:	0000004c 	andeq	r0, r0, ip, asr #32
 39c:	84080e42 	strhi	r0, [r8], #-3650	; 0xfffff1be
 3a0:	00018e02 	andeq	r8, r1, r2, lsl #28
 3a4:	0000000c 	andeq	r0, r0, ip
 3a8:	ffffffff 			; <UNDEFINED> instruction: 0xffffffff
 3ac:	7c020001 	stcvc	0, cr0, [r2], {1}
 3b0:	000d0c0e 	andeq	r0, sp, lr, lsl #24
 3b4:	00000014 	andeq	r0, r0, r4, lsl r0
 3b8:	000003a4 	andeq	r0, r0, r4, lsr #7
 3bc:	00008ee0 	andeq	r8, r0, r0, ror #29
 3c0:	00000028 	andeq	r0, r0, r8, lsr #32
 3c4:	84080e42 	strhi	r0, [r8], #-3650	; 0xfffff1be
 3c8:	00018e02 	andeq	r8, r1, r2, lsl #28
 3cc:	0000000c 	andeq	r0, r0, ip
 3d0:	ffffffff 			; <UNDEFINED> instruction: 0xffffffff
 3d4:	7c020001 	stcvc	0, cr0, [r2], {1}
 3d8:	000d0c0e 	andeq	r0, sp, lr, lsl #24
 3dc:	0000000c 	andeq	r0, r0, ip
 3e0:	000003cc 	andeq	r0, r0, ip, asr #7
 3e4:	00008f08 	andeq	r8, r0, r8, lsl #30
 3e8:	0000001c 	andeq	r0, r0, ip, lsl r0
 3ec:	00000014 	andeq	r0, r0, r4, lsl r0
 3f0:	000003cc 	andeq	r0, r0, ip, asr #7
 3f4:	00008f24 	andeq	r8, r0, r4, lsr #30
 3f8:	00000014 	andeq	r0, r0, r4, lsl r0
 3fc:	84080e42 	strhi	r0, [r8], #-3650	; 0xfffff1be
 400:	00018e02 	andeq	r8, r1, r2, lsl #28
 404:	00000014 	andeq	r0, r0, r4, lsl r0
 408:	000003cc 	andeq	r0, r0, ip, asr #7
 40c:	00008f38 	andeq	r8, r0, r8, lsr pc
 410:	0000000c 	andeq	r0, r0, ip
 414:	84080e42 	strhi	r0, [r8], #-3650	; 0xfffff1be
 418:	00018e02 	andeq	r8, r1, r2, lsl #28
 41c:	00000018 	andeq	r0, r0, r8, lsl r0
 420:	000003cc 	andeq	r0, r0, ip, asr #7
 424:	00008f44 	andeq	r8, r0, r4, asr #30
 428:	00000024 	andeq	r0, r0, r4, lsr #32
 42c:	84100e42 	ldrhi	r0, [r0], #-3650	; 0xfffff1be
 430:	86038504 	strhi	r8, [r3], -r4, lsl #10
 434:	00018e02 	andeq	r8, r1, r2, lsl #28
 438:	00000014 	andeq	r0, r0, r4, lsl r0
 43c:	000003cc 	andeq	r0, r0, ip, asr #7
 440:	00008f68 	andeq	r8, r0, r8, ror #30
 444:	00000014 	andeq	r0, r0, r4, lsl r0
 448:	84080e42 	strhi	r0, [r8], #-3650	; 0xfffff1be
 44c:	00018e02 	andeq	r8, r1, r2, lsl #28
 450:	00000014 	andeq	r0, r0, r4, lsl r0
 454:	000003cc 	andeq	r0, r0, ip, asr #7
 458:	00008f7c 	andeq	r8, r0, ip, ror pc
 45c:	00000014 	andeq	r0, r0, r4, lsl r0
 460:	84080e42 	strhi	r0, [r8], #-3650	; 0xfffff1be
 464:	00018e02 	andeq	r8, r1, r2, lsl #28
 468:	0000000c 	andeq	r0, r0, ip
 46c:	ffffffff 			; <UNDEFINED> instruction: 0xffffffff
 470:	7c020001 	stcvc	0, cr0, [r2], {1}
 474:	000d0c0e 	andeq	r0, sp, lr, lsl #24
 478:	00000018 	andeq	r0, r0, r8, lsl r0
 47c:	00000468 	andeq	r0, r0, r8, ror #8
 480:	00008ff4 	strdeq	r8, [r0], -r4
 484:	00000020 	andeq	r0, r0, r0, lsr #32
 488:	84100e42 	ldrhi	r0, [r0], #-3650	; 0xfffff1be
 48c:	86038504 	strhi	r8, [r3], -r4, lsl #10
 490:	00018e02 	andeq	r8, r1, r2, lsl #28
 494:	00000014 	andeq	r0, r0, r4, lsl r0
 498:	00000468 	andeq	r0, r0, r8, ror #8
 49c:	00009014 	andeq	r9, r0, r4, lsl r0
 4a0:	000000b0 	strheq	r0, [r0], -r0	; <UNPREDICTABLE>
 4a4:	84080e42 	strhi	r0, [r8], #-3650	; 0xfffff1be
 4a8:	00018e02 	andeq	r8, r1, r2, lsl #28
 4ac:	00000014 	andeq	r0, r0, r4, lsl r0
 4b0:	00000468 	andeq	r0, r0, r8, ror #8
 4b4:	000090c4 	andeq	r9, r0, r4, asr #1
 4b8:	00000018 	andeq	r0, r0, r8, lsl r0
 4bc:	84080e42 	strhi	r0, [r8], #-3650	; 0xfffff1be
 4c0:	00018e02 	andeq	r8, r1, r2, lsl #28
 4c4:	00000014 	andeq	r0, r0, r4, lsl r0
 4c8:	00000468 	andeq	r0, r0, r8, ror #8
 4cc:	000090dc 	ldrdeq	r9, [r0], -ip
 4d0:	00000020 	andeq	r0, r0, r0, lsr #32
 4d4:	84080e42 	strhi	r0, [r8], #-3650	; 0xfffff1be
 4d8:	00018e02 	andeq	r8, r1, r2, lsl #28
 4dc:	00000014 	andeq	r0, r0, r4, lsl r0
 4e0:	00000468 	andeq	r0, r0, r8, ror #8
 4e4:	000090fc 	strdeq	r9, [r0], -ip
 4e8:	00000024 	andeq	r0, r0, r4, lsr #32
 4ec:	84080e42 	strhi	r0, [r8], #-3650	; 0xfffff1be
 4f0:	00018e02 	andeq	r8, r1, r2, lsl #28
 4f4:	00000014 	andeq	r0, r0, r4, lsl r0
 4f8:	00000468 	andeq	r0, r0, r8, ror #8
 4fc:	00009120 	andeq	r9, r0, r0, lsr #2
 500:	00000028 	andeq	r0, r0, r8, lsr #32
 504:	84080e42 	strhi	r0, [r8], #-3650	; 0xfffff1be
 508:	00018e02 	andeq	r8, r1, r2, lsl #28
 50c:	00000014 	andeq	r0, r0, r4, lsl r0
 510:	00000468 	andeq	r0, r0, r8, ror #8
 514:	00009148 	andeq	r9, r0, r8, asr #2
 518:	0000000c 	andeq	r0, r0, ip
 51c:	84080e42 	strhi	r0, [r8], #-3650	; 0xfffff1be
 520:	00018e02 	andeq	r8, r1, r2, lsl #28
 524:	0000000c 	andeq	r0, r0, ip
 528:	ffffffff 			; <UNDEFINED> instruction: 0xffffffff
 52c:	7c020001 	stcvc	0, cr0, [r2], {1}
 530:	000d0c0e 	andeq	r0, sp, lr, lsl #24
 534:	00000018 	andeq	r0, r0, r8, lsl r0
 538:	00000524 	andeq	r0, r0, r4, lsr #10
 53c:	00009154 	andeq	r9, r0, r4, asr r1
 540:	00000068 	andeq	r0, r0, r8, rrx
 544:	84100e4a 	ldrhi	r0, [r0], #-3658	; 0xfffff1b6
 548:	86038504 	strhi	r8, [r3], -r4, lsl #10
 54c:	00018e02 	andeq	r8, r1, r2, lsl #28
 550:	00000014 	andeq	r0, r0, r4, lsl r0
 554:	00000524 	andeq	r0, r0, r4, lsr #10
 558:	000091bc 			; <UNDEFINED> instruction: 0x000091bc
 55c:	00000010 	andeq	r0, r0, r0, lsl r0
 560:	84080e42 	strhi	r0, [r8], #-3650	; 0xfffff1be
 564:	00018e02 	andeq	r8, r1, r2, lsl #28
 568:	00000014 	andeq	r0, r0, r4, lsl r0
 56c:	00000524 	andeq	r0, r0, r4, lsr #10
 570:	000091cc 	andeq	r9, r0, ip, asr #3
 574:	00000024 	andeq	r0, r0, r4, lsr #32
 578:	84080e46 	strhi	r0, [r8], #-3654	; 0xfffff1ba
 57c:	00018e02 	andeq	r8, r1, r2, lsl #28
 580:	00000014 	andeq	r0, r0, r4, lsl r0
 584:	00000524 	andeq	r0, r0, r4, lsr #10
 588:	000091f0 	strdeq	r9, [r0], -r0
 58c:	00000024 	andeq	r0, r0, r4, lsr #32
 590:	84080e46 	strhi	r0, [r8], #-3654	; 0xfffff1ba
 594:	00018e02 	andeq	r8, r1, r2, lsl #28
 598:	00000014 	andeq	r0, r0, r4, lsl r0
 59c:	00000524 	andeq	r0, r0, r4, lsr #10
 5a0:	00009214 	andeq	r9, r0, r4, lsl r2
 5a4:	00000010 	andeq	r0, r0, r0, lsl r0
 5a8:	84080e42 	strhi	r0, [r8], #-3650	; 0xfffff1be
 5ac:	00018e02 	andeq	r8, r1, r2, lsl #28
 5b0:	00000014 	andeq	r0, r0, r4, lsl r0
 5b4:	00000524 	andeq	r0, r0, r4, lsr #10
 5b8:	00009224 	andeq	r9, r0, r4, lsr #4
 5bc:	0000001c 	andeq	r0, r0, ip, lsl r0
 5c0:	84080e42 	strhi	r0, [r8], #-3650	; 0xfffff1be
 5c4:	00018e02 	andeq	r8, r1, r2, lsl #28
 5c8:	00000018 	andeq	r0, r0, r8, lsl r0
 5cc:	00000524 	andeq	r0, r0, r4, lsr #10
 5d0:	00009240 	andeq	r9, r0, r0, asr #4
 5d4:	00000034 	andeq	r0, r0, r4, lsr r0
 5d8:	84080e46 	strhi	r0, [r8], #-3654	; 0xfffff1ba
 5dc:	4e018e02 	cdpmi	14, 0, cr8, cr1, cr2, {0}
 5e0:	cec4000e 	cdpgt	0, 12, cr0, cr4, cr14, {0}
 5e4:	0000000c 	andeq	r0, r0, ip
 5e8:	ffffffff 			; <UNDEFINED> instruction: 0xffffffff
 5ec:	7c020001 	stcvc	0, cr0, [r2], {1}
 5f0:	000d0c0e 	andeq	r0, sp, lr, lsl #24
 5f4:	00000014 	andeq	r0, r0, r4, lsl r0
 5f8:	000005e4 	andeq	r0, r0, r4, ror #11
 5fc:	00009274 	andeq	r9, r0, r4, ror r2
 600:	00000028 	andeq	r0, r0, r8, lsr #32
 604:	84080e42 	strhi	r0, [r8], #-3650	; 0xfffff1be
 608:	00018e02 	andeq	r8, r1, r2, lsl #28
 60c:	0000000c 	andeq	r0, r0, ip
 610:	000005e4 	andeq	r0, r0, r4, ror #11
 614:	0000929c 	muleq	r0, ip, r2
 618:	00000028 	andeq	r0, r0, r8, lsr #32
 61c:	0000000c 	andeq	r0, r0, ip
 620:	ffffffff 			; <UNDEFINED> instruction: 0xffffffff
 624:	7c020001 	stcvc	0, cr0, [r2], {1}
 628:	000d0c0e 	andeq	r0, sp, lr, lsl #24
 62c:	0000000c 	andeq	r0, r0, ip
 630:	0000061c 	andeq	r0, r0, ip, lsl r6
 634:	000092c4 	andeq	r9, r0, r4, asr #5
 638:	00000020 	andeq	r0, r0, r0, lsr #32

Disassembly of section .debug_ranges:

00000000 <.debug_ranges>:
   0:	000002c4 	andeq	r0, r0, r4, asr #5
   4:	000002d0 	ldrdeq	r0, [r0], -r0	; <UNPREDICTABLE>
   8:	000002e0 	andeq	r0, r0, r0, ror #5
   c:	00000504 	andeq	r0, r0, r4, lsl #10
	...
  18:	00008e68 	andeq	r8, r0, r8, ror #28
  1c:	00008ee0 	andeq	r8, r0, r0, ror #29
	...
